
LEDTileApplication.elf:     file format elf32-littlenios2
LEDTileApplication.elf
architecture: nios2, flags 0x00000112:
EXEC_P, HAS_SYMS, D_PAGED
start address 0x020001b8

Program Header:
    LOAD off    0x00001000 vaddr 0x02000000 paddr 0x02000000 align 2**12
         filesz 0x00000020 memsz 0x00000020 flags r-x
    LOAD off    0x00001020 vaddr 0x02000020 paddr 0x02000020 align 2**12
         filesz 0x00087244 memsz 0x00087244 flags r-x
    LOAD off    0x00088264 vaddr 0x02087264 paddr 0x02088f20 align 2**12
         filesz 0x00001cbc memsz 0x00001cbc flags rw-
    LOAD off    0x0008abdc vaddr 0x0208abdc paddr 0x0208abdc align 2**12
         filesz 0x00000000 memsz 0x00000410 flags rw-

Sections:
Idx Name          Size      VMA       LMA       File off  Algn
  0 .entry        00000020  02000000  02000000  00001000  2**5
                  CONTENTS, ALLOC, LOAD, READONLY, CODE
  1 .exceptions   00000198  02000020  02000020  00001020  2**2
                  CONTENTS, ALLOC, LOAD, READONLY, CODE
  2 .text         00013c90  020001b8  020001b8  000011b8  2**2
                  CONTENTS, ALLOC, LOAD, READONLY, CODE
  3 .rodata       0007341c  02013e48  02013e48  00014e48  2**2
                  CONTENTS, ALLOC, LOAD, READONLY, DATA
  4 .rwdata       00001cbc  02087264  02088f20  00088264  2**2
                  CONTENTS, ALLOC, LOAD, DATA, SMALL_DATA
  5 .bss          00000410  0208abdc  0208abdc  0008abdc  2**2
                  ALLOC, SMALL_DATA
  6 .comment      00000023  00000000  00000000  00089f20  2**0
                  CONTENTS, READONLY
  7 .debug_aranges 00001150  00000000  00000000  00089f48  2**3
                  CONTENTS, READONLY, DEBUGGING
  8 .debug_info   00030b14  00000000  00000000  0008b098  2**0
                  CONTENTS, READONLY, DEBUGGING
  9 .debug_abbrev 0000c465  00000000  00000000  000bbbac  2**0
                  CONTENTS, READONLY, DEBUGGING
 10 .debug_line   0000df46  00000000  00000000  000c8011  2**0
                  CONTENTS, READONLY, DEBUGGING
 11 .debug_frame  000020f0  00000000  00000000  000d5f58  2**2
                  CONTENTS, READONLY, DEBUGGING
 12 .debug_str    00003d00  00000000  00000000  000d8048  2**0
                  CONTENTS, READONLY, DEBUGGING
 13 .debug_loc    0001858f  00000000  00000000  000dbd48  2**0
                  CONTENTS, READONLY, DEBUGGING
 14 .debug_alt_sim_info 00000010  00000000  00000000  000f42d8  2**2
                  CONTENTS, READONLY, DEBUGGING
 15 .debug_ranges 00000dd0  00000000  00000000  000f42e8  2**3
                  CONTENTS, READONLY, DEBUGGING
 16 .thread_model 00000003  00000000  00000000  000f91b8  2**0
                  CONTENTS, READONLY
 17 .cpu          00000003  00000000  00000000  000f91bb  2**0
                  CONTENTS, READONLY
 18 .qsys         00000001  00000000  00000000  000f91be  2**0
                  CONTENTS, READONLY
 19 .simulation_enabled 00000001  00000000  00000000  000f91bf  2**0
                  CONTENTS, READONLY
 20 .sysid_hash   00000004  00000000  00000000  000f91c0  2**0
                  CONTENTS, READONLY
 21 .sysid_base   00000004  00000000  00000000  000f91c4  2**0
                  CONTENTS, READONLY
 22 .sysid_time   00000004  00000000  00000000  000f91c8  2**0
                  CONTENTS, READONLY
 23 .stderr_dev   00000009  00000000  00000000  000f91cc  2**0
                  CONTENTS, READONLY
 24 .stdin_dev    00000009  00000000  00000000  000f91d5  2**0
                  CONTENTS, READONLY
 25 .stdout_dev   00000009  00000000  00000000  000f91de  2**0
                  CONTENTS, READONLY
 26 .sopc_system_name 00000004  00000000  00000000  000f91e7  2**0
                  CONTENTS, READONLY
 27 .quartus_project_dir 00000022  00000000  00000000  000f91eb  2**0
                  CONTENTS, READONLY
 28 .sopcinfo     000721c2  00000000  00000000  000f920d  2**0
                  CONTENTS, READONLY
SYMBOL TABLE:
02000000 l    d  .entry	00000000 .entry
02000020 l    d  .exceptions	00000000 .exceptions
020001b8 l    d  .text	00000000 .text
02013e48 l    d  .rodata	00000000 .rodata
02087264 l    d  .rwdata	00000000 .rwdata
0208abdc l    d  .bss	00000000 .bss
00000000 l    d  .comment	00000000 .comment
00000000 l    d  .debug_aranges	00000000 .debug_aranges
00000000 l    d  .debug_info	00000000 .debug_info
00000000 l    d  .debug_abbrev	00000000 .debug_abbrev
00000000 l    d  .debug_line	00000000 .debug_line
00000000 l    d  .debug_frame	00000000 .debug_frame
00000000 l    d  .debug_str	00000000 .debug_str
00000000 l    d  .debug_loc	00000000 .debug_loc
00000000 l    d  .debug_alt_sim_info	00000000 .debug_alt_sim_info
00000000 l    d  .debug_ranges	00000000 .debug_ranges
00000000 l    df *ABS*	00000000 ../LEDTileApplication_bsp//obj/HAL/src/crt0.o
020001f0 l       .text	00000000 alt_after_alt_main
00000000 l    df *ABS*	00000000 alt_exception_entry.o
02000094 l       .exceptions	00000000 alt_exception_unknown
00000000 l    df *ABS*	00000000 alt_irq_handler.c
00000000 l    df *ABS*	00000000 hello_world.c
0208ac18 l     O .bss	00000004 i.2923
0208ac1c l     O .bss	00000018 alarm
00000000 l    df *ABS*	00000000 fp-bit.c
00000000 l    df *ABS*	00000000 fp-bit.c
00000000 l    df *ABS*	00000000 fp-bit.c
00000000 l    df *ABS*	00000000 fp-bit.c
00000000 l    df *ABS*	00000000 fp-bit.c
00000000 l    df *ABS*	00000000 lib2-divmod.c
02001e20 l     F .text	00000074 udivmodsi4
00000000 l    df *ABS*	00000000 lib2-divtable.c
00000000 l    df *ABS*	00000000 lib2-mul.c
00000000 l    df *ABS*	00000000 libgcc2.c
00000000 l    df *ABS*	00000000 libgcc2.c
00000000 l    df *ABS*	00000000 fp-bit.c
00000000 l    df *ABS*	00000000 fp-bit.c
00000000 l    df *ABS*	00000000 libgcc2.c
00000000 l    df *ABS*	00000000 libgcc2.c
00000000 l    df *ABS*	00000000 libgcc2.c
00000000 l    df *ABS*	00000000 fflush.c
00000000 l    df *ABS*	00000000 findfp.c
020026fc l     F .text	00000008 __fp_lock
02002704 l     F .text	00000008 __fp_unlock
00000000 l    df *ABS*	00000000 fwalk.c
00000000 l    df *ABS*	00000000 impure.c
020873cc l     O .rwdata	00000400 impure_data
00000000 l    df *ABS*	00000000 mallocr.c
00000000 l    df *ABS*	00000000 memset.c
00000000 l    df *ABS*	00000000 printf.c
00000000 l    df *ABS*	00000000 puts.c
00000000 l    df *ABS*	00000000 sbrkr.c
00000000 l    df *ABS*	00000000 scanf.c
00000000 l    df *ABS*	00000000 stdio.c
00000000 l    df *ABS*	00000000 strlen.c
00000000 l    df *ABS*	00000000 vfprintf.c
02003744 l     F .text	00000034 __sprint_r
02086d86 l     O .rodata	00000010 blanks.3546
02086d96 l     O .rodata	00000010 zeroes.3547
00000000 l    df *ABS*	00000000 vfscanf.c
02086dae l     O .rodata	00000022 basefix.3458
00000000 l    df *ABS*	00000000 writer.c
00000000 l    df *ABS*	00000000 wsetup.c
00000000 l    df *ABS*	00000000 closer.c
00000000 l    df *ABS*	00000000 ctype_.c
02086ed1 l     O .rodata	00000180 _ctype_b
00000000 l    df *ABS*	00000000 dtoa.c
02006fe4 l     F .text	0000023c quorem
00000000 l    df *ABS*	00000000 fclose.c
00000000 l    df *ABS*	00000000 fread.c
00000000 l    df *ABS*	00000000 mallocr.c
00000000 l    df *ABS*	00000000 fvwrite.c
00000000 l    df *ABS*	00000000 int_errno.c
00000000 l    df *ABS*	00000000 iswspace.c
00000000 l    df *ABS*	00000000 locale.c
02087074 l     O .rodata	00000030 lconv
00000000 l    df *ABS*	00000000 lseekr.c
00000000 l    df *ABS*	00000000 makebuf.c
00000000 l    df *ABS*	00000000 mbrtowc.c
00000000 l    df *ABS*	00000000 mbtowc_r.c
00000000 l    df *ABS*	00000000 memchr.c
00000000 l    df *ABS*	00000000 memcpy.c
00000000 l    df *ABS*	00000000 memmove.c
00000000 l    df *ABS*	00000000 mprec.c
020871bc l     O .rodata	0000000c p05.2466
00000000 l    df *ABS*	00000000 readr.c
00000000 l    df *ABS*	00000000 mallocr.c
00000000 l    df *ABS*	00000000 refill.c
0200b384 l     F .text	0000001c lflush
00000000 l    df *ABS*	00000000 s_isinfd.c
00000000 l    df *ABS*	00000000 s_isnand.c
00000000 l    df *ABS*	00000000 sccl.c
00000000 l    df *ABS*	00000000 sf_nan.c
00000000 l    df *ABS*	00000000 sprintf.c
00000000 l    df *ABS*	00000000 strcmp.c
00000000 l    df *ABS*	00000000 strtod.c
02087be0 l     O .rwdata	00000014 fpi.2046
020871d8 l     O .rodata	00000028 tinytens
02087bf4 l     O .rwdata	00000014 fpinan.2082
00000000 l    df *ABS*	00000000 strtol.c
00000000 l    df *ABS*	00000000 strtoll_r.c
00000000 l    df *ABS*	00000000 strtoul.c
00000000 l    df *ABS*	00000000 strtoull_r.c
00000000 l    df *ABS*	00000000 ungetc.c
00000000 l    df *ABS*	00000000 mallocr.c
00000000 l    df *ABS*	00000000 fstatr.c
00000000 l    df *ABS*	00000000 gdtoa-gethex.c
0200de98 l     F .text	00000110 rshift
00000000 l    df *ABS*	00000000 gdtoa-hexnan.c
00000000 l    df *ABS*	00000000 isattyr.c
00000000 l    df *ABS*	00000000 libgcc2.c
00000000 l    df *ABS*	00000000 libgcc2.c
00000000 l    df *ABS*	00000000 libgcc2.c
00000000 l    df *ABS*	00000000 fp-bit.c
00000000 l    df *ABS*	00000000 fp-bit.c
00000000 l    df *ABS*	00000000 fp-bit.c
00000000 l    df *ABS*	00000000 fp-bit.c
0200f8a0 l     F .text	00000354 _fpadd_parts
00000000 l    df *ABS*	00000000 fp-bit.c
00000000 l    df *ABS*	00000000 fp-bit.c
00000000 l    df *ABS*	00000000 fp-bit.c
00000000 l    df *ABS*	00000000 fp-bit.c
00000000 l    df *ABS*	00000000 fp-bit.c
00000000 l    df *ABS*	00000000 fp-bit.c
00000000 l    df *ABS*	00000000 fp-bit.c
00000000 l    df *ABS*	00000000 fp-bit.c
00000000 l    df *ABS*	00000000 fp-bit.c
00000000 l    df *ABS*	00000000 fp-bit.c
00000000 l    df *ABS*	00000000 fp-bit.c
00000000 l    df *ABS*	00000000 fp-bit.c
00000000 l    df *ABS*	00000000 fp-bit.c
00000000 l    df *ABS*	00000000 alt_alarm_start.c
00000000 l    df *ABS*	00000000 alt_close.c
02010548 l     F .text	00000050 alt_get_errno
00000000 l    df *ABS*	00000000 alt_dev.c
02010664 l     F .text	0000002c alt_dev_null_write
00000000 l    df *ABS*	00000000 alt_errno.c
00000000 l    df *ABS*	00000000 alt_fstat.c
02010690 l     F .text	00000050 alt_get_errno
00000000 l    df *ABS*	00000000 alt_isatty.c
02010790 l     F .text	00000050 alt_get_errno
00000000 l    df *ABS*	00000000 alt_load.c
02010884 l     F .text	0000006c alt_load_section
00000000 l    df *ABS*	00000000 alt_lseek.c
02010970 l     F .text	00000050 alt_get_errno
00000000 l    df *ABS*	00000000 alt_main.c
00000000 l    df *ABS*	00000000 alt_malloc_lock.c
00000000 l    df *ABS*	00000000 alt_read.c
02010b4c l     F .text	00000050 alt_get_errno
00000000 l    df *ABS*	00000000 alt_release_fd.c
00000000 l    df *ABS*	00000000 alt_sbrk.c
02088f08 l     O .rwdata	00000004 heap_end
00000000 l    df *ABS*	00000000 alt_tick.c
00000000 l    df *ABS*	00000000 alt_write.c
02010f5c l     F .text	00000050 alt_get_errno
00000000 l    df *ABS*	00000000 alt_sys_init.c
0201109c l     F .text	00000038 alt_dev_reg
02087db0 l     O .rwdata	000000c8 epcs_flash_controller
02087e78 l     O .rwdata	00001060 jtag_uart
00000000 l    df *ABS*	00000000 altera_avalon_epcs_flash_controller.c
02011174 l     F .text	00000038 alt_flash_device_register
02011200 l     F .text	0000028c alt_epcs_flash_query
0201148c l     F .text	000000e8 alt_epcs_flash_memcmp
02011860 l     F .text	00000094 alt_epcs_test_address
00000000 l    df *ABS*	00000000 altera_avalon_jtag_uart_fd.c
00000000 l    df *ABS*	00000000 altera_avalon_jtag_uart_init.c
02011d28 l     F .text	00000204 altera_avalon_jtag_uart_irq
02011f2c l     F .text	000000a4 altera_avalon_jtag_uart_timeout
00000000 l    df *ABS*	00000000 altera_avalon_jtag_uart_ioctl.c
00000000 l    df *ABS*	00000000 altera_avalon_jtag_uart_read.c
00000000 l    df *ABS*	00000000 altera_avalon_jtag_uart_write.c
00000000 l    df *ABS*	00000000 altera_avalon_timer_sc.c
02012564 l     F .text	00000074 alt_avalon_timer_sc_irq
00000000 l    df *ABS*	00000000 epcs_commands.c
020126bc l     F .text	00000038 epcs_test_wip
020126f4 l     F .text	00000038 epcs_await_wip_released
00000000 l    df *ABS*	00000000 alt_dcache_flush_all.c
00000000 l    df *ABS*	00000000 alt_dev_llist_insert.c
02012ca0 l     F .text	00000050 alt_get_errno
00000000 l    df *ABS*	00000000 alt_do_ctors.c
00000000 l    df *ABS*	00000000 alt_do_dtors.c
00000000 l    df *ABS*	00000000 alt_flash_dev.c
00000000 l    df *ABS*	00000000 alt_icache_flush_all.c
00000000 l    df *ABS*	00000000 alt_iic.c
00000000 l    df *ABS*	00000000 alt_iic_isr_register.c
00000000 l    df *ABS*	00000000 alt_io_redirect.c
020131e4 l     F .text	000000e0 alt_open_fd
00000000 l    df *ABS*	00000000 alt_irq_vars.c
00000000 l    df *ABS*	00000000 alt_open.c
0201333c l     F .text	00000050 alt_get_errno
0201338c l     F .text	000000f0 alt_file_locked
00000000 l    df *ABS*	00000000 altera_nios2_qsys_irq.c
00000000 l    df *ABS*	00000000 altera_avalon_spi.c
00000000 l    df *ABS*	00000000 alt_find_dev.c
00000000 l    df *ABS*	00000000 alt_find_file.c
00000000 l    df *ABS*	00000000 alt_get_fd.c
00000000 l    df *ABS*	00000000 atexit.c
00000000 l    df *ABS*	00000000 exit.c
00000000 l    df *ABS*	00000000 memcmp.c
00000000 l    df *ABS*	00000000 __atexit.c
00000000 l    df *ABS*	00000000 __call_atexit.c
00000000 l    df *ABS*	00000000 alt_exit.c
00000000 l    df *ABS*	00000000 
0200aba8 g     F .text	00000074 _mprec_log10
0206ab2c g     O .rodata	0000000c Edgar
020117d4 g     F .text	0000008c alt_epcs_flash_get_info
0200ac98 g     F .text	00000084 __any_on
0200ea3c g     F .text	00000064 _isatty_r
020870a4 g     O .rodata	00000028 __mprec_tinytens
02010a94 g     F .text	00000078 alt_main
020024a0 g     F .text	00000044 __ashldi3
02003410 g     F .text	00000084 _puts_r
0208ad5c g     O .bss	00000100 alt_irq
0200960c g     F .text	0000006c _lseek_r
02088f20 g       *ABS*	00000000 __flash_rwdata_start
02072b8c g     O .rodata	0000000c Coin
0200fca8 g     F .text	0000005c __eqdf2
0208afec g       *ABS*	00000000 __alt_heap_start
02000354 g     F .text	00000048 blank
020033d4 g     F .text	0000003c printf
02003654 g     F .text	0000005c __sseek
020027a0 g     F .text	0000010c __sinit
02009530 g     F .text	0000009c _setlocale_r
02002718 g     F .text	00000078 __sfmoreglue
0200dd48 g     F .text	0000001c ungetc
02010b2c g     F .text	00000020 __malloc_unlock
0200b824 g     F .text	00001548 _strtod_r
020140ec g     O .rodata	00000200 gamma46half
02009b40 g     F .text	0000018c memmove
02002790 g     F .text	00000010 _cleanup
02073b98 g     O .rodata	0000000c Bowser
02009ccc g     F .text	000000a8 _Balloc
0206db50 g     O .rodata	0000000c RedSlime
0200fd60 g     F .text	00000064 __gtdf2
00000000  w      *UND*	00000000 __errno
0201272c g     F .text	000000f8 epcs_sector_erase
02000000 g     F .entry	0000000c __reset
02000020 g       *ABS*	00000000 __flash_exceptions_start
0200de30 g     F .text	00000068 _fstat_r
0208abec g     O .bss	00000004 errno
02006d0c g     F .text	00000024 __svfscanf
020001f4 g     F .text	00000158 animation_callback
02000000 g       *ABS*	00000000 __alt_mem_sdram_controller
020101e0 g     F .text	0000002c __make_fp
0208abdc g     O .bss	00000004 currentAnimation
0208ac00 g     O .bss	00000004 alt_argv
02090ed8 g       *ABS*	00000000 _gp
02014af0 g     O .rodata	0000000c ie
02087c30 g     O .rwdata	00000180 alt_fd_list
02012968 g     F .text	00000068 epcs_write_status_register
020137fc g     F .text	00000090 alt_find_dev
02009a00 g     F .text	00000140 memcpy
0200e7b0 g     F .text	0000028c __hexnan
0200270c g     F .text	0000000c _cleanup_r
02001c88 g     F .text	000000d4 __floatsidf
02087264 g     O .rwdata	00000068 animations
020146ec g     O .rodata	00000200 cie1931
020132c4 g     F .text	00000078 alt_io_redirect
0200fe28 g     F .text	0000005c __ltdf2
02013e48 g       *ABS*	00000000 __DTOR_END__
02003494 g     F .text	00000014 puts
02009884 g     F .text	00000040 mbrtowc
0207dbf8 g     O .rodata	0000000c RedPotionZelda1
02011968 g     F .text	00000104 alt_epcs_flash_write_block
02006cc0 g     F .text	0000004c _vfscanf_r
0200ab04 g     F .text	000000a4 __ratio
0201212c g     F .text	00000218 altera_avalon_jtag_uart_read
00000000  w      *UND*	00000000 malloc
020033a8 g     F .text	0000002c _printf_r
02001f40 g     F .text	00000008 __udivsi3
020107e0 g     F .text	000000a4 isatty
020094f8 g     F .text	00000038 iswspace
020870f4 g     O .rodata	000000c8 __mprec_tens
02070b74 g     O .rodata	0000000c Link
020095cc g     F .text	0000000c __locale_charset
0200eaa0 g     F .text	00000084 __fixunsdfsi
0208abe8 g     O .bss	00000004 __malloc_top_pad
0200d704 g     F .text	00000024 strtoul
02088eec g     O .rwdata	00000004 __mb_cur_max
020095d8 g     F .text	0000000c _localeconv_r
0200d728 g     F .text	00000394 _strtoull_r
02071b80 g     O .rodata	0000000c MegaMan
0200a0fc g     F .text	0000003c __i2b
02009014 g     F .text	000004e4 __sfvwrite_r
020034a8 g     F .text	00000064 _sbrk_r
0207ec04 g     O .rodata	0000000c Rupee
0200ad1c g     F .text	0000006c _read_r
02087bd4 g     O .rwdata	0000000c __lc_ctype
02088f00 g     O .rwdata	00000004 alt_max_fd
02076bbc g     O .rodata	0000000c Goomba
02002358 g     F .text	00000104 __unpack_d
0200883c g     F .text	0000013c _fclose_r
02082c1c g     O .rodata	0000000c question
020026cc g     F .text	00000030 fflush
0208abe4 g     O .bss	00000004 __malloc_max_sbrked_mem
0200fbf4 g     F .text	00000054 __adddf3
0200f79c g     F .text	00000054 __nesf2
020118f4 g     F .text	00000074 alt_epcs_flash_erase_block
0200a878 g     F .text	00000148 __b2d
0207abe0 g     O .rodata	0000000c FF4Chest
0200f174 g     F .text	00000628 __umoddi3
020109c0 g     F .text	000000d4 lseek
02088ed8 g     O .rwdata	00000004 _global_impure_ptr
02012c2c g     F .text	00000058 epcs_exit_4_bytes_mode
0200ad88 g     F .text	000005fc _realloc_r
0208afec g       *ABS*	00000000 __bss_end
020130f4 g     F .text	000000f0 alt_iic_isr_register
0206cb44 g     O .rodata	0000000c BlueGhost
02010e58 g     F .text	00000104 alt_tick
020140e8 g     O .rodata	00000004 numBitmaps
0208ac5c g     O .bss	00000100 __hexdig
0200eb24 g     F .text	00000650 __udivdi3
020870cc g     O .rodata	00000028 __mprec_bigtens
02009ee0 g     F .text	00000104 __s2b
0200ff40 g     F .text	0000011c __floatunsidf
0200a618 g     F .text	00000058 __mcmp
020144ec g     O .rodata	00000200 gamma149half
02088ee8 g     O .rwdata	00000004 __ctype_ptr
020029b8 g     F .text	00000018 __fp_lock_all
020130a8 g     F .text	0000004c alt_ic_irq_enabled
0208ac14 g     O .bss	00000004 state
02010dc0 g     F .text	00000098 alt_alarm_stop
0200d10c g     F .text	00000024 strtol
02080c10 g     O .rodata	0000000c Cid_Walk_Front
0208ac10 g     O .bss	00000004 alt_irq_active
020000ec g     F .exceptions	000000cc alt_irq_handler
02087c08 g     O .rwdata	00000028 alt_dev_null
0201005c g     F .text	000000c8 __unpack_f
02050b08 g     O .rodata	0000000c mosaic
02012c84 g     F .text	0000001c alt_dcache_flush_all
02009fe4 g     F .text	00000068 __hi0bits
02001d5c g     F .text	000000c4 __fixdfsi
0207cbec g     O .rodata	0000000c BombZelda1
0200cd6c g     F .text	0000001c strtod
02088f20 g       *ABS*	00000000 __ram_rwdata_end
02088ef8 g     O .rwdata	00000008 alt_dev_list
02068b14 g     O .rodata	0000000c ns6icon
02010fac g     F .text	000000f0 write
0200f7f0 g     F .text	0000005c __gtsf2
02087264 g       *ABS*	00000000 __ram_rodata_end
020106e0 g     F .text	000000b0 fstat
02001120 g     F .text	00000334 displayGamma46ColourBars
0200245c g     F .text	00000044 __lshrdi3
0200fe84 g     F .text	0000005c __ledf2
0200a390 g     F .text	0000012c __pow5mult
0208abf8 g     O .bss	00000004 __nlocale_changed
02001f48 g     F .text	00000008 __umodsi3
0200354c g     F .text	0000002c _scanf_r
02012aec g     F .text	00000068 epcs_read_electronic_signature
02075bb0 g     O .rodata	0000000c CheepCheep
0208afec g       *ABS*	00000000 end
020102dc g     F .text	0000012c __pack_f
02011c68 g     F .text	000000c0 altera_avalon_jtag_uart_init
0206fb68 g     O .rodata	0000000c Kain
02013e48 g       *ABS*	00000000 __CTOR_LIST__
04000000 g       *ABS*	00000000 __alt_stack_pointer
020125d8 g     F .text	00000088 alt_avalon_timer_sc_init
02002088 g     F .text	000000ac __clzsi2
02012344 g     F .text	00000220 altera_avalon_jtag_uart_write
020029a8 g     F .text	00000004 __sfp_lock_acquire
02009908 g     F .text	000000f8 memchr
02003778 g     F .text	00001e7c ___vfprintf_internal_r
0200b6bc g     F .text	00000058 _sprintf_r
02008d44 g     F .text	000002d0 _free_r
02013c6c g     F .text	000001a0 __call_exitprocs
0208abf4 g     O .bss	00000004 __mlocale_changed
02088ee0 g     O .rwdata	00000004 __malloc_sbrk_base
020001b8 g     F .text	0000003c _start
0208ac08 g     O .bss	00000004 _alt_tick_rate
0200d130 g     F .text	00000330 _strtoll_r
0200a4bc g     F .text	0000015c __lshift
020135f4 g     F .text	00000208 alt_avalon_spi_command
0208ac0c g     O .bss	00000004 _alt_nticks
02010b9c g     F .text	000000f4 read
02011108 g     F .text	0000006c alt_sys_init
02013b3c g     F .text	00000130 __register_exitproc
0200a138 g     F .text	00000258 __multiply
02011fd0 g     F .text	00000068 altera_avalon_jtag_uart_close
02001f50 g     F .text	00000028 __mulsi3
02087264 g       *ABS*	00000000 __ram_rwdata_start
02013e48 g       *ABS*	00000000 __ram_rodata_start
0208ac34 g     O .bss	00000028 __malloc_current_mallinfo
0200a9c0 g     F .text	00000144 __d2b
02000ab8 g     F .text	00000334 displayGamma149ColourBars
02012660 g     F .text	0000005c epcs_read_status_register
02011b04 g     F .text	00000060 altera_avalon_jtag_uart_read_fd
0200d460 g     F .text	000002a4 _strtoul_r
020139a0 g     F .text	000000d4 alt_get_fd
0201020c g     F .text	000000d0 __fpcmp_parts_d
02006f80 g     F .text	00000064 _close_r
02012b54 g     F .text	00000080 epcs_read_device_id
02013ac0 g     F .text	0000007c memcmp
02011bc4 g     F .text	00000050 altera_avalon_jtag_uart_close_fd
0208afec g       *ABS*	00000000 __alt_stack_base
02011c14 g     F .text	00000054 altera_avalon_jtag_uart_ioctl_fd
0206bb38 g     O .rodata	0000000c CecilHead
02006e0c g     F .text	00000174 __swsetup_r
02001ad4 g     F .text	000001b4 __divdf3
020028ac g     F .text	000000fc __sfp
0200ac1c g     F .text	0000007c __copybits
020877cc g     O .rwdata	00000408 __malloc_av_
020029b4 g     F .text	00000004 __sinit_lock_release
020017f0 g     F .text	000002e4 __muldf3
04009000 g       *ABS*	00000000 __alt_mem_epcs_flash_controller
02003578 g     F .text	00000054 __sread
02008bc8 g     F .text	00000040 fread
0201388c g     F .text	00000114 alt_find_file
02012cf0 g     F .text	000000a0 alt_dev_llist_insert
02010b0c g     F .text	00000020 __malloc_lock
02010d10 g     F .text	000000b0 sbrk
0200039c g     F .text	000000b4 displayBitmap
020024e4 g     F .text	000001e8 _fflush_r
0200dd64 g     F .text	000000cc _calloc_r
02088f14 g     O .rwdata	00000008 alt_flash_dev_list
02000dec g     F .text	00000334 displayGamma98ColourBars
02074ba4 g     O .rodata	0000000c KoopaTroopa
0206eb5c g     O .rodata	0000000c BlueVirus
020872cc g     O .rwdata	00000100 __divsi3_table
0208abdc g       *ABS*	00000000 __bss_start
02000450 g     F .text	00000334 displayColourBars
020032cc g     F .text	000000dc memset
02001590 g     F .text	00000260 main
0208ac04 g     O .bss	00000004 alt_envp
0208abe0 g     O .bss	00000004 __malloc_max_total_mem
02079bd4 g     O .rodata	0000000c Mushroom
02011b64 g     F .text	00000060 altera_avalon_jtag_uart_write_fd
0200f84c g     F .text	00000054 __ltsf2
0200898c g     F .text	0000023c _fread_r
020036b0 g     F .text	00000008 __sclose
04000000 g       *ABS*	00000000 __alt_heap_limit
02008978 g     F .text	00000014 fclose
0200cea8 g     F .text	00000264 _strtol_r
0200fee0 g     F .text	00000060 __truncdfsf2
02077bc8 g     O .rodata	0000000c Kain_Walk_Left
0208ae5c g     O .bss	00000190 _atexit0
02007220 g     F .text	0000161c _dtoa_r
02002b48 g     F .text	00000784 _malloc_r
02088f04 g     O .rwdata	00000004 alt_errno
0200dabc g     F .text	000000f0 __submore
020029e8 g     F .text	000000a8 _fwalk
020098c4 g     F .text	00000044 _mbtowc_r
02001e94 g     F .text	00000050 __divsi3
02086c28 g     O .rodata	00000014 __thenan_df
02008c08 g     F .text	0000013c _malloc_trim_r
02013e48 g       *ABS*	00000000 __CTOR_END__
02011574 g     F .text	00000260 alt_epcs_flash_write
0200b780 g     F .text	000000a4 strcmp
02013e48 g       *ABS*	00000000 __flash_rodata_start
02013e48 g       *ABS*	00000000 __DTOR_LIST__
020014dc g     F .text	000000b4 animationsMenu
0200034c g     F .text	00000004 delay
0200fd04 g     F .text	0000005c __nedf2
020110d4 g     F .text	00000034 alt_irq_init
02010c90 g     F .text	00000080 alt_release_fd
0200b714 g     F .text	0000006c sprintf
02086c3c g     O .rodata	00000100 __clz_tab
0208abf0 g     O .bss	00000004 _PathLocale
0200cd88 g     F .text	00000120 strtof
02013a74 g     F .text	00000014 atexit
02006da0 g     F .text	0000006c _write_r
020095e4 g     F .text	0000001c setlocale
0200350c g     F .text	00000040 scanf
0200b6b4 g     F .text	00000008 nanf
02088edc g     O .rwdata	00000004 _impure_ptr
0208abfc g     O .bss	00000004 alt_argc
02028afc g     O .rodata	0000000c Netscapethrobber
02009820 g     F .text	00000064 _mbrtowc_r
02012dec g     F .text	0000005c _do_dtors
0200b3a0 g     F .text	000001ec __srefill_r
02000020 g       .exceptions	00000000 alt_irq_entry
0200a818 g     F .text	00000060 __ulp
0200b58c g     F .text	00000038 __isinfd
020029d0 g     F .text	00000018 __fp_unlock_all
02088ef0 g     O .rwdata	00000008 alt_fs_list
02000020 g       *ABS*	00000000 __ram_exceptions_start
02009600 g     F .text	0000000c localeconv
02012824 g     F .text	000000f4 epcs_read_buffer
04000000 g       *ABS*	00000000 __alt_mem_onchip_memory2
020111ac g     F .text	00000054 alt_epcs_flash_init
02012f1c g     F .text	00000050 alt_ic_isr_register
02001454 g     F .text	00000088 printMenu
0200dfa8 g     F .text	00000090 __hexdig_init
02088f20 g       *ABS*	00000000 _edata
0208afec g       *ABS*	00000000 _end
02012e48 g     F .text	00000068 alt_flash_open_dev
020001b8 g       *ABS*	00000000 __ram_exceptions_end
02006d30 g     F .text	00000070 vfscanf
02012038 g     F .text	000000f4 altera_avalon_jtag_uart_ioctl
02013008 g     F .text	000000a0 alt_ic_irq_disable
02012bd4 g     F .text	00000058 epcs_enter_4_bytes_mode
020035cc g     F .text	00000088 __swrite
02088ee4 g     O .rwdata	00000004 __malloc_trim_threshold
020135d4 g     F .text	00000020 altera_nios2_qsys_irq_init
02013a88 g     F .text	00000038 exit
02002a90 g     F .text	000000b8 _fwalk_reent
0200a670 g     F .text	000001a8 __mdiff
02012eb0 g     F .text	00000050 alt_flash_close_dev
02001ee4 g     F .text	0000005c __modsi3
04000000 g       *ABS*	00000000 __alt_data_end
02000020 g     F .exceptions	00000000 alt_exception
020029ac g     F .text	00000004 __sfp_lock_release
0200b5f0 g     F .text	000000c4 __sccl
02086dd0 g     O .rodata	00000101 _ctype_
02010124 g     F .text	000000bc __fpcmp_parts_f
02013e0c g     F .text	0000003c _exit
0200b5c4 g     F .text	0000002c __isnand
02010408 g     F .text	00000140 alt_alarm_start
02014aec g     O .rodata	00000004 numAnimations
02001f78 g     F .text	00000110 __muldi3
02009678 g     F .text	000001a8 __smakebuf_r
020036b8 g     F .text	0000008c strlen
02012918 g     F .text	00000050 epcs_write_enable
0201347c g     F .text	00000158 open
02069b20 g     O .rodata	0000000c MacTCP
0200fdc4 g     F .text	00000064 __gedf2
0200e038 g     F .text	00000778 __gethex
02000784 g     F .text	00000334 displayCIEColourBars
02012f00 g     F .text	0000001c alt_icache_flush_all
02088f1c g     O .rwdata	00000004 alt_priority_mask
02012f6c g     F .text	0000009c alt_ic_irq_enable
020055f4 g     F .text	00000024 __vfprintf_internal
0200fc48 g     F .text	00000060 __subdf3
020142ec g     O .rodata	00000200 gamma98half
02011a6c g     F .text	00000098 alt_epcs_flash_read
0200a04c g     F .text	000000b0 __lo0bits
02005618 g     F .text	000016a8 __svfscanf_r
02088f0c g     O .rwdata	00000008 alt_alarm_list
0200dbac g     F .text	0000019c _ungetc_r
02012d90 g     F .text	0000005c _do_ctors
020148ec g     O .rodata	00000200 linearRGB
02010598 g     F .text	000000cc close
02000350 g     F .text	00000004 longDelay
020108f0 g     F .text	00000080 alt_load
02002134 g     F .text	00000224 __pack_d
00000000  w      *UND*	00000000 free
020029b0 g     F .text	00000004 __sinit_lock_acquire
020129d0 g     F .text	0000011c epcs_write_buffer
02009d9c g     F .text	00000144 __multadd
02009d74 g     F .text	00000028 _Bfree



Disassembly of section .entry:

02000000 <__reset>:
 * Jump to the _start entry point in the .text section if reset code
 * is allowed or if optimizing for RTL simulation.
 */
#if defined(ALT_ALLOW_CODE_AT_RESET) || defined(ALT_SIM_OPTIMIZE)
    /* Jump to the _start entry point in the .text section. */
    movhi r1, %hi(_start)
 2000000:	00408034 	movhi	at,512
    ori r1, r1, %lo(_start)
 2000004:	08406e14 	ori	at,at,440
    jmp r1
 2000008:	0800683a 	jmp	at
	...

Disassembly of section .exceptions:

02000020 <alt_exception>:

#else /* ALT_EXCEPTION_STACK disabled */
        /* 
         * Reserve space on normal stack for registers about to be pushed.
         */
        addi  sp, sp, -76
 2000020:	deffed04 	addi	sp,sp,-76
         * documentation for details).
         *
         * Leave a gap in the stack frame at 4(sp) for the muldiv handler to
         * store zero into.
         */
        stw   ra,  0(sp)
 2000024:	dfc00015 	stw	ra,0(sp)
        stw   r1,   8(sp)
 2000028:	d8400215 	stw	at,8(sp)
        stw   r2,  12(sp)
 200002c:	d8800315 	stw	r2,12(sp)
        stw   r3,  16(sp)
 2000030:	d8c00415 	stw	r3,16(sp)
        stw   r4,  20(sp)
 2000034:	d9000515 	stw	r4,20(sp)
        stw   r5,  24(sp)
 2000038:	d9400615 	stw	r5,24(sp)
        stw   r6,  28(sp)
 200003c:	d9800715 	stw	r6,28(sp)
        stw   r7,  32(sp)
 2000040:	d9c00815 	stw	r7,32(sp)
        rdctl r5, estatus   /* Read early to avoid usage stall */
 2000044:	000b307a 	rdctl	r5,estatus
        stw   r8,  36(sp)
 2000048:	da000915 	stw	r8,36(sp)
        stw   r9,  40(sp)
 200004c:	da400a15 	stw	r9,40(sp)
        stw   r10, 44(sp)
 2000050:	da800b15 	stw	r10,44(sp)
        stw   r11, 48(sp)
 2000054:	dac00c15 	stw	r11,48(sp)
        stw   r12, 52(sp)
 2000058:	db000d15 	stw	r12,52(sp)
        stw   r13, 56(sp)
 200005c:	db400e15 	stw	r13,56(sp)
        stw   r14, 60(sp)
 2000060:	db800f15 	stw	r14,60(sp)
        stw   r15, 64(sp)
 2000064:	dbc01015 	stw	r15,64(sp)
        /*
         * ea-4 contains the address of the instruction being executed
         * when the exception occured. For interrupt exceptions, we will
         * will be re-issue the isntruction. Store it in 72(sp)
         */
        stw   r5,  68(sp)  /* estatus */
 2000068:	d9401115 	stw	r5,68(sp)
        addi  r15, ea, -4  /* instruction that caused exception */
 200006c:	ebffff04 	addi	r15,ea,-4
        stw   r15,  72(sp)
 2000070:	dbc01215 	stw	r15,72(sp)
#else
        /*
         * Test to see if the exception was a software exception or caused 
         * by an external interrupt, and vector accordingly.
         */
        rdctl r4, ipending
 2000074:	0009313a 	rdctl	r4,ipending
        andi  r2, r5, 1
 2000078:	2880004c 	andi	r2,r5,1
        beq   r2, zero, .Lnot_irq
 200007c:	10000326 	beq	r2,zero,200008c <alt_exception+0x6c>
        beq   r4, zero, .Lnot_irq
 2000080:	20000226 	beq	r4,zero,200008c <alt_exception+0x6c>
        /*
         * Now that all necessary registers have been preserved, call 
         * alt_irq_handler() to process the interrupts.
         */

        call alt_irq_handler
 2000084:	20000ec0 	call	20000ec <alt_irq_handler>

        .section .exceptions.irqreturn, "xa"

        br    .Lexception_exit
 2000088:	00000306 	br	2000098 <alt_exception_unknown+0x4>
         * upon completion, so we write ea (address of instruction *after*
         * the one where the exception occured) into 72(sp). The actual
         * instruction that caused the exception is written in r2, which these
         * handlers will utilize.
         */
        stw   ea,  72(sp)  /* Don't re-issue */
 200008c:	df401215 	stw	ea,72(sp)
        ldw   r2, -4(ea)   /* Instruction that caused exception */
 2000090:	e8bfff17 	ldw	r2,-4(ea)

02000094 <alt_exception_unknown>:
#ifdef NIOS2_HAS_DEBUG_STUB
       /*
        *  Either tell the user now (if there is a debugger attached) or go into
        *  the debug monitor which will loop until a debugger is attached.
        */
        break
 2000094:	003da03a 	break	0
        /* 
         * Restore the saved registers, so that all general purpose registers 
         * have been restored to their state at the time the interrupt occured.
         */

        ldw   r5,  68(sp)
 2000098:	d9401117 	ldw	r5,68(sp)
        ldw   ea,  72(sp)  /* This becomes the PC once eret is executed */
 200009c:	df401217 	ldw	ea,72(sp)
        ldw   ra,   0(sp)
 20000a0:	dfc00017 	ldw	ra,0(sp)

        wrctl estatus, r5
 20000a4:	2801707a 	wrctl	estatus,r5

        ldw   r1,   8(sp)
 20000a8:	d8400217 	ldw	at,8(sp)
        ldw   r2,  12(sp)
 20000ac:	d8800317 	ldw	r2,12(sp)
        ldw   r3,  16(sp)
 20000b0:	d8c00417 	ldw	r3,16(sp)
        ldw   r4,  20(sp)
 20000b4:	d9000517 	ldw	r4,20(sp)
        ldw   r5,  24(sp)
 20000b8:	d9400617 	ldw	r5,24(sp)
        ldw   r6,  28(sp)
 20000bc:	d9800717 	ldw	r6,28(sp)
        ldw   r7,  32(sp)
 20000c0:	d9c00817 	ldw	r7,32(sp)

#if defined(ALT_EXCEPTION_STACK) && defined(ALT_STACK_CHECK)
        ldw   et, %gprel(alt_exception_old_stack_limit)(gp)
#endif

        ldw   r8,  36(sp)
 20000c4:	da000917 	ldw	r8,36(sp)
        ldw   r9,  40(sp)
 20000c8:	da400a17 	ldw	r9,40(sp)
        ldw   r10, 44(sp)
 20000cc:	da800b17 	ldw	r10,44(sp)
        ldw   r11, 48(sp)
 20000d0:	dac00c17 	ldw	r11,48(sp)
        ldw   r12, 52(sp)
 20000d4:	db000d17 	ldw	r12,52(sp)
        ldw   r13, 56(sp)
 20000d8:	db400e17 	ldw	r13,56(sp)
        ldw   r14, 60(sp)
 20000dc:	db800f17 	ldw	r14,60(sp)
        ldw   r15, 64(sp)
 20000e0:	dbc01017 	ldw	r15,64(sp)
        stw   et, %gprel(alt_stack_limit_value)(gp)
        stw   zero, %gprel(alt_exception_old_stack_limit)(gp)
#endif /* ALT_STACK_CHECK */
        ldw   sp,  76(sp)
#else /* ALT_EXCEPTION_STACK disabled */
        addi  sp, sp, 76
 20000e4:	dec01304 	addi	sp,sp,76

        /*
         * Return to the interrupted instruction.
         */

        eret
 20000e8:	ef80083a 	eret

020000ec <alt_irq_handler>:
 * instruction is present if the macro ALT_CI_INTERRUPT_VECTOR defined.
 */

void alt_irq_handler (void) __attribute__ ((section (".exceptions")));
void alt_irq_handler (void)
{
 20000ec:	defff904 	addi	sp,sp,-28
 20000f0:	dfc00615 	stw	ra,24(sp)
 20000f4:	df000515 	stw	fp,20(sp)
 20000f8:	df000504 	addi	fp,sp,20
  
  /*
   * Notify the operating system that we are at interrupt level.
   */ 
  
  ALT_OS_INT_ENTER();
 20000fc:	0001883a 	nop
#ifndef NIOS2_EIC_PRESENT
static ALT_INLINE alt_u32 ALT_ALWAYS_INLINE alt_irq_pending (void)
{
  alt_u32 active;

  NIOS2_READ_IPENDING (active);
 2000100:	0005313a 	rdctl	r2,ipending
 2000104:	e0bffe15 	stw	r2,-8(fp)

  return active;
 2000108:	e0bffe17 	ldw	r2,-8(fp)
   * Consider the case where the high priority interupt is asserted during
   * the interrupt entry sequence for a lower priority interrupt to see why
   * this is the case.
   */

  active = alt_irq_pending ();
 200010c:	e0bffb15 	stw	r2,-20(fp)

  do
  {
    i = 0;
 2000110:	e03ffd15 	stw	zero,-12(fp)
    mask = 1;
 2000114:	00800044 	movi	r2,1
 2000118:	e0bffc15 	stw	r2,-16(fp)
     * called to clear the interrupt condition.
     */

    do
    {
      if (active & mask)
 200011c:	e0fffb17 	ldw	r3,-20(fp)
 2000120:	e0bffc17 	ldw	r2,-16(fp)
 2000124:	1884703a 	and	r2,r3,r2
 2000128:	10001726 	beq	r2,zero,2000188 <alt_irq_handler+0x9c>
      { 
#ifdef ALT_ENHANCED_INTERRUPT_API_PRESENT
        alt_irq[i].handler(alt_irq[i].context); 
 200012c:	00c08274 	movhi	r3,521
 2000130:	18eb5704 	addi	r3,r3,-21156
 2000134:	e0bffd17 	ldw	r2,-12(fp)
 2000138:	100490fa 	slli	r2,r2,3
 200013c:	1885883a 	add	r2,r3,r2
 2000140:	10c00017 	ldw	r3,0(r2)
 2000144:	01008274 	movhi	r4,521
 2000148:	212b5704 	addi	r4,r4,-21156
 200014c:	e0bffd17 	ldw	r2,-12(fp)
 2000150:	100490fa 	slli	r2,r2,3
 2000154:	2085883a 	add	r2,r4,r2
 2000158:	10800104 	addi	r2,r2,4
 200015c:	10800017 	ldw	r2,0(r2)
 2000160:	1009883a 	mov	r4,r2
 2000164:	183ee83a 	callr	r3
#else
        alt_irq[i].handler(alt_irq[i].context, i); 
#endif
        break;
 2000168:	0001883a 	nop
#ifndef NIOS2_EIC_PRESENT
static ALT_INLINE alt_u32 ALT_ALWAYS_INLINE alt_irq_pending (void)
{
  alt_u32 active;

  NIOS2_READ_IPENDING (active);
 200016c:	0005313a 	rdctl	r2,ipending
 2000170:	e0bfff15 	stw	r2,-4(fp)

  return active;
 2000174:	e0bfff17 	ldw	r2,-4(fp)
      mask <<= 1;
      i++;

    } while (1);

    active = alt_irq_pending ();
 2000178:	e0bffb15 	stw	r2,-20(fp)
    
  } while (active);
 200017c:	e0bffb17 	ldw	r2,-20(fp)
 2000180:	103fe31e 	bne	r2,zero,2000110 <__alt_mem_epcs_flash_controller+0xfdff7110>

  /*
   * Notify the operating system that interrupt processing is complete.
   */ 

  ALT_OS_INT_EXIT();
 2000184:	00000706 	br	20001a4 <alt_irq_handler+0xb8>
#else
        alt_irq[i].handler(alt_irq[i].context, i); 
#endif
        break;
      }
      mask <<= 1;
 2000188:	e0bffc17 	ldw	r2,-16(fp)
 200018c:	1085883a 	add	r2,r2,r2
 2000190:	e0bffc15 	stw	r2,-16(fp)
      i++;
 2000194:	e0bffd17 	ldw	r2,-12(fp)
 2000198:	10800044 	addi	r2,r2,1
 200019c:	e0bffd15 	stw	r2,-12(fp)

    } while (1);
 20001a0:	003fde06 	br	200011c <__alt_mem_epcs_flash_controller+0xfdff711c>
  /*
   * Notify the operating system that interrupt processing is complete.
   */ 

  ALT_OS_INT_EXIT();
}
 20001a4:	e037883a 	mov	sp,fp
 20001a8:	dfc00117 	ldw	ra,4(sp)
 20001ac:	df000017 	ldw	fp,0(sp)
 20001b0:	dec00204 	addi	sp,sp,8
 20001b4:	f800283a 	ret

Disassembly of section .text:

020001b8 <_start>:

    /*
     * Now that the caches are initialized, set up the stack pointer and global pointer.
     * The values provided by the linker are assumed to be correctly aligned.
     */
    movhi sp, %hi(__alt_stack_pointer)
 20001b8:	06c10034 	movhi	sp,1024
    ori sp, sp, %lo(__alt_stack_pointer)
 20001bc:	dec00014 	ori	sp,sp,0
    movhi gp, %hi(_gp)
 20001c0:	06808274 	movhi	gp,521
    ori gp, gp, %lo(_gp)
 20001c4:	d683b614 	ori	gp,gp,3800
 */
#ifndef ALT_SIM_OPTIMIZE
    /* Log that the BSS is about to be cleared. */
    ALT_LOG_PUTS(alt_log_msg_bss)

    movhi r2, %hi(__bss_start)
 20001c8:	00808234 	movhi	r2,520
    ori r2, r2, %lo(__bss_start)
 20001cc:	10aaf714 	ori	r2,r2,43996

    movhi r3, %hi(__bss_end)
 20001d0:	00c08234 	movhi	r3,520
    ori r3, r3, %lo(__bss_end)
 20001d4:	18ebfb14 	ori	r3,r3,45036

    beq r2, r3, 1f
 20001d8:	10c00326 	beq	r2,r3,20001e8 <_start+0x30>

0:
    stw zero, (r2)
 20001dc:	10000015 	stw	zero,0(r2)
    addi r2, r2, 4
 20001e0:	10800104 	addi	r2,r2,4
    bltu r2, r3, 0b
 20001e4:	10fffd36 	bltu	r2,r3,20001dc <__alt_mem_epcs_flash_controller+0xfdff71dc>
     * section aren't defined until alt_load() has been called).
     */
    mov   et, zero
#endif

    call alt_load
 20001e8:	20108f00 	call	20108f0 <alt_load>

    /* Log that alt_main is about to be called. */
    ALT_LOG_PUTS(alt_log_msg_alt_main)

    /* Call the C entry point. It should never return. */
    call alt_main
 20001ec:	2010a940 	call	2010a94 <alt_main>

020001f0 <alt_after_alt_main>:

    /* Wait in infinite loop in case alt_main does return. */
alt_after_alt_main:
    br alt_after_alt_main
 20001f0:	003fff06 	br	20001f0 <__alt_mem_epcs_flash_controller+0xfdff71f0>

020001f4 <animation_callback>:
 20001f4:	00808274 	movhi	r2,521
 20001f8:	10ab0504 	addi	r2,r2,-21484
 20001fc:	10800017 	ldw	r2,0(r2)
 2000200:	defffd04 	addi	sp,sp,-12
 2000204:	dc400115 	stw	r17,4(sp)
 2000208:	dc000015 	stw	r16,0(sp)
 200020c:	03c08274 	movhi	r15,521
 2000210:	7beb0604 	addi	r15,r15,-21480
 2000214:	00c08274 	movhi	r3,521
 2000218:	18eaf704 	addi	r3,r3,-21540
 200021c:	dfc00215 	stw	ra,8(sp)
 2000220:	1c000017 	ldw	r16,0(r3)
 2000224:	7c400017 	ldw	r17,0(r15)
 2000228:	10002d1e 	bne	r2,zero,20002e0 <animation_callback+0xec>
 200022c:	881c933a 	slli	r14,r17,12
 2000230:	01010004 	movi	r4,1024
 2000234:	00c08074 	movhi	r3,513
 2000238:	18d03b04 	addi	r3,r3,16620
 200023c:	73800304 	addi	r14,r14,12
 2000240:	839d883a 	add	r14,r16,r14
 2000244:	03400434 	movhi	r13,16
 2000248:	6b7f0004 	addi	r13,r13,-1024
 200024c:	03010074 	movhi	r12,1025
 2000250:	63281804 	addi	r12,r12,-24480
 2000254:	02c10074 	movhi	r11,1025
 2000258:	5ae81404 	addi	r11,r11,-24496
 200025c:	02800044 	movi	r10,1
 2000260:	01c10074 	movhi	r7,1025
 2000264:	39e81004 	addi	r7,r7,-24512
 2000268:	02440004 	movi	r9,4096
 200026c:	708b883a 	add	r5,r14,r2
 2000270:	29800017 	ldw	r6,0(r5)
 2000274:	29400083 	ldbu	r5,2(r5)
 2000278:	3022d1fa 	srli	r17,r6,7
 200027c:	31803fcc 	andi	r6,r6,255
 2000280:	318d883a 	add	r6,r6,r6
 2000284:	1991883a 	add	r8,r3,r6
 2000288:	89807f8c 	andi	r6,r17,510
 200028c:	198d883a 	add	r6,r3,r6
 2000290:	4440000b 	ldhu	r17,0(r8)
 2000294:	3180000b 	ldhu	r6,0(r6)
 2000298:	294b883a 	add	r5,r5,r5
 200029c:	194b883a 	add	r5,r3,r5
 20002a0:	2a00000b 	ldhu	r8,0(r5)
 20002a4:	880a953a 	slli	r5,r17,20
 20002a8:	300c92ba 	slli	r6,r6,10
 20002ac:	4200ffcc 	andi	r8,r8,1023
 20002b0:	294ffc2c 	andhi	r5,r5,16368
 20002b4:	414ab03a 	or	r5,r8,r5
 20002b8:	334c703a 	and	r6,r6,r13
 20002bc:	298ab03a 	or	r5,r5,r6
 20002c0:	61000035 	stwio	r4,0(r12)
 20002c4:	59400035 	stwio	r5,0(r11)
 20002c8:	3a800035 	stwio	r10,0(r7)
 20002cc:	38000035 	stwio	zero,0(r7)
 20002d0:	10800104 	addi	r2,r2,4
 20002d4:	21000044 	addi	r4,r4,1
 20002d8:	127fe41e 	bne	r2,r9,200026c <__alt_mem_epcs_flash_controller+0xfdff726c>
 20002dc:	7c400017 	ldw	r17,0(r15)
 20002e0:	81400217 	ldw	r5,8(r16)
 20002e4:	8c400044 	addi	r17,r17,1
 20002e8:	00c003c4 	movi	r3,15
 20002ec:	8944b03a 	or	r2,r17,r5
 20002f0:	18801236 	bltu	r3,r2,200033c <animation_callback+0x148>
 20002f4:	8804913a 	slli	r2,r17,4
 20002f8:	114ab03a 	or	r5,r2,r5
 20002fc:	00808234 	movhi	r2,520
 2000300:	109cb304 	addi	r2,r2,29388
 2000304:	2885883a 	add	r2,r5,r2
 2000308:	11000003 	ldbu	r4,0(r2)
 200030c:	81400217 	ldw	r5,8(r16)
 2000310:	2001f500 	call	2001f50 <__mulsi3>
 2000314:	8885c83a 	sub	r2,r17,r2
 2000318:	00c08274 	movhi	r3,521
 200031c:	18eb0604 	addi	r3,r3,-21480
 2000320:	18800015 	stw	r2,0(r3)
 2000324:	80800117 	ldw	r2,4(r16)
 2000328:	dfc00217 	ldw	ra,8(sp)
 200032c:	dc400117 	ldw	r17,4(sp)
 2000330:	dc000017 	ldw	r16,0(sp)
 2000334:	dec00304 	addi	sp,sp,12
 2000338:	f800283a 	ret
 200033c:	8809883a 	mov	r4,r17
 2000340:	2001e940 	call	2001e94 <__divsi3>
 2000344:	1009883a 	mov	r4,r2
 2000348:	003ff006 	br	200030c <__alt_mem_epcs_flash_controller+0xfdff730c>

0200034c <delay>:
 200034c:	f800283a 	ret

02000350 <longDelay>:
 2000350:	f800283a 	ret

02000354 <blank>:
 2000354:	00810004 	movi	r2,1024
 2000358:	01c10074 	movhi	r7,1025
 200035c:	39e81804 	addi	r7,r7,-24480
 2000360:	01810074 	movhi	r6,1025
 2000364:	31a81404 	addi	r6,r6,-24496
 2000368:	01400044 	movi	r5,1
 200036c:	00c10074 	movhi	r3,1025
 2000370:	18e81004 	addi	r3,r3,-24512
 2000374:	02020004 	movi	r8,2048
 2000378:	11000804 	addi	r4,r2,32
 200037c:	38800035 	stwio	r2,0(r7)
 2000380:	30000035 	stwio	zero,0(r6)
 2000384:	19400035 	stwio	r5,0(r3)
 2000388:	18000035 	stwio	zero,0(r3)
 200038c:	10800044 	addi	r2,r2,1
 2000390:	113ffa1e 	bne	r2,r4,200037c <__alt_mem_epcs_flash_controller+0xfdff737c>
 2000394:	123ff81e 	bne	r2,r8,2000378 <__alt_mem_epcs_flash_controller+0xfdff7378>
 2000398:	f800283a 	ret

0200039c <displayBitmap>:
 200039c:	00808274 	movhi	r2,521
 20003a0:	10ab0504 	addi	r2,r2,-21484
 20003a4:	10800017 	ldw	r2,0(r2)
 20003a8:	1000281e 	bne	r2,zero,200044c <displayBitmap+0xb0>
 20003ac:	00810004 	movi	r2,1024
 20003b0:	00c08074 	movhi	r3,513
 20003b4:	18d03b04 	addi	r3,r3,16620
 20003b8:	03800434 	movhi	r14,16
 20003bc:	73bf0004 	addi	r14,r14,-1024
 20003c0:	03410074 	movhi	r13,1025
 20003c4:	6b681804 	addi	r13,r13,-24480
 20003c8:	03010074 	movhi	r12,1025
 20003cc:	63281404 	addi	r12,r12,-24496
 20003d0:	02c00044 	movi	r11,1
 20003d4:	01c10074 	movhi	r7,1025
 20003d8:	39e81004 	addi	r7,r7,-24512
 20003dc:	02820004 	movi	r10,2048
 20003e0:	21800017 	ldw	r6,0(r4)
 20003e4:	21400083 	ldbu	r5,2(r4)
 20003e8:	3012d1fa 	srli	r9,r6,7
 20003ec:	31803fcc 	andi	r6,r6,255
 20003f0:	318d883a 	add	r6,r6,r6
 20003f4:	1991883a 	add	r8,r3,r6
 20003f8:	49807f8c 	andi	r6,r9,510
 20003fc:	198d883a 	add	r6,r3,r6
 2000400:	4240000b 	ldhu	r9,0(r8)
 2000404:	3180000b 	ldhu	r6,0(r6)
 2000408:	294b883a 	add	r5,r5,r5
 200040c:	194b883a 	add	r5,r3,r5
 2000410:	2a00000b 	ldhu	r8,0(r5)
 2000414:	480a953a 	slli	r5,r9,20
 2000418:	300c92ba 	slli	r6,r6,10
 200041c:	4200ffcc 	andi	r8,r8,1023
 2000420:	294ffc2c 	andhi	r5,r5,16368
 2000424:	414ab03a 	or	r5,r8,r5
 2000428:	338c703a 	and	r6,r6,r14
 200042c:	298ab03a 	or	r5,r5,r6
 2000430:	68800035 	stwio	r2,0(r13)
 2000434:	61400035 	stwio	r5,0(r12)
 2000438:	3ac00035 	stwio	r11,0(r7)
 200043c:	38000035 	stwio	zero,0(r7)
 2000440:	10800044 	addi	r2,r2,1
 2000444:	21000104 	addi	r4,r4,4
 2000448:	12bfe51e 	bne	r2,r10,20003e0 <__alt_mem_epcs_flash_controller+0xfdff73e0>
 200044c:	f800283a 	ret

02000450 <displayColourBars>:
 2000450:	defff404 	addi	sp,sp,-48
 2000454:	df000a15 	stw	fp,40(sp)
 2000458:	dd800815 	stw	r22,32(sp)
 200045c:	dd400715 	stw	r21,28(sp)
 2000460:	dd000615 	stw	r20,24(sp)
 2000464:	dcc00515 	stw	r19,20(sp)
 2000468:	dc800415 	stw	r18,16(sp)
 200046c:	dc000215 	stw	r16,8(sp)
 2000470:	dfc00b15 	stw	ra,44(sp)
 2000474:	ddc00915 	stw	r23,36(sp)
 2000478:	dc400315 	stw	r17,12(sp)
 200047c:	d8000115 	stw	zero,4(sp)
 2000480:	d8000015 	stw	zero,0(sp)
 2000484:	05408074 	movhi	r21,513
 2000488:	ad523b04 	addi	r21,r21,18668
 200048c:	05010074 	movhi	r20,1025
 2000490:	a5281804 	addi	r20,r20,-24480
 2000494:	05800434 	movhi	r22,16
 2000498:	b5bf0004 	addi	r22,r22,-1024
 200049c:	04c10074 	movhi	r19,1025
 20004a0:	9ce81404 	addi	r19,r19,-24496
 20004a4:	04800044 	movi	r18,1
 20004a8:	07010074 	movhi	fp,1025
 20004ac:	e7281004 	addi	fp,fp,-24512
 20004b0:	04000804 	movi	r16,32
 20004b4:	d8800017 	ldw	r2,0(sp)
 20004b8:	00c001c4 	movi	r3,7
 20004bc:	18803e0e 	bge	r3,r2,20005b8 <displayColourBars+0x168>
 20004c0:	10bffe04 	addi	r2,r2,-8
 20004c4:	1880632e 	bgeu	r3,r2,2000654 <displayColourBars+0x204>
 20004c8:	d8c00017 	ldw	r3,0(sp)
 20004cc:	002f883a 	mov	r23,zero
 20004d0:	18bffc04 	addi	r2,r3,-16
 20004d4:	00c001c4 	movi	r3,7
 20004d8:	1880852e 	bgeu	r3,r2,20006f0 <displayColourBars+0x2a0>
 20004dc:	d8800117 	ldw	r2,4(sp)
 20004e0:	14410004 	addi	r17,r2,1024
 20004e4:	b809883a 	mov	r4,r23
 20004e8:	2001c880 	call	2001c88 <__floatsidf>
 20004ec:	1009883a 	mov	r4,r2
 20004f0:	180b883a 	mov	r5,r3
 20004f4:	000d883a 	mov	r6,zero
 20004f8:	01d00ff4 	movhi	r7,16447
 20004fc:	2001ad40 	call	2001ad4 <__divdf3>
 2000500:	000d883a 	mov	r6,zero
 2000504:	01d01c34 	movhi	r7,16496
 2000508:	39f80004 	addi	r7,r7,-8192
 200050c:	1009883a 	mov	r4,r2
 2000510:	180b883a 	mov	r5,r3
 2000514:	20017f00 	call	20017f0 <__muldf3>
 2000518:	180b883a 	mov	r5,r3
 200051c:	1009883a 	mov	r4,r2
 2000520:	2001d5c0 	call	2001d5c <__fixdfsi>
 2000524:	1085883a 	add	r2,r2,r2
 2000528:	a885883a 	add	r2,r21,r2
 200052c:	1080000b 	ldhu	r2,0(r2)
 2000530:	8dcb883a 	add	r5,r17,r23
 2000534:	10ffffcc 	andi	r3,r2,65535
 2000538:	1808953a 	slli	r4,r3,20
 200053c:	180692ba 	slli	r3,r3,10
 2000540:	210ffc2c 	andhi	r4,r4,16368
 2000544:	1d86703a 	and	r3,r3,r22
 2000548:	a1400035 	stwio	r5,0(r20)
 200054c:	20c6b03a 	or	r3,r4,r3
 2000550:	1080ffcc 	andi	r2,r2,1023
 2000554:	1884b03a 	or	r2,r3,r2
 2000558:	98800035 	stwio	r2,0(r19)
 200055c:	e4800035 	stwio	r18,0(fp)
 2000560:	e0000035 	stwio	zero,0(fp)
 2000564:	bdc00044 	addi	r23,r23,1
 2000568:	bc3fde1e 	bne	r23,r16,20004e4 <__alt_mem_epcs_flash_controller+0xfdff74e4>
 200056c:	d8c00017 	ldw	r3,0(sp)
 2000570:	d8800117 	ldw	r2,4(sp)
 2000574:	18c00044 	addi	r3,r3,1
 2000578:	10800804 	addi	r2,r2,32
 200057c:	d8c00015 	stw	r3,0(sp)
 2000580:	d8800115 	stw	r2,4(sp)
 2000584:	1c3fcb1e 	bne	r3,r16,20004b4 <__alt_mem_epcs_flash_controller+0xfdff74b4>
 2000588:	dfc00b17 	ldw	ra,44(sp)
 200058c:	df000a17 	ldw	fp,40(sp)
 2000590:	ddc00917 	ldw	r23,36(sp)
 2000594:	dd800817 	ldw	r22,32(sp)
 2000598:	dd400717 	ldw	r21,28(sp)
 200059c:	dd000617 	ldw	r20,24(sp)
 20005a0:	dcc00517 	ldw	r19,20(sp)
 20005a4:	dc800417 	ldw	r18,16(sp)
 20005a8:	dc400317 	ldw	r17,12(sp)
 20005ac:	dc000217 	ldw	r16,8(sp)
 20005b0:	dec00c04 	addi	sp,sp,48
 20005b4:	f800283a 	ret
 20005b8:	d8800117 	ldw	r2,4(sp)
 20005bc:	002f883a 	mov	r23,zero
 20005c0:	14410004 	addi	r17,r2,1024
 20005c4:	b809883a 	mov	r4,r23
 20005c8:	2001c880 	call	2001c88 <__floatsidf>
 20005cc:	1009883a 	mov	r4,r2
 20005d0:	180b883a 	mov	r5,r3
 20005d4:	000d883a 	mov	r6,zero
 20005d8:	01d00ff4 	movhi	r7,16447
 20005dc:	2001ad40 	call	2001ad4 <__divdf3>
 20005e0:	000d883a 	mov	r6,zero
 20005e4:	01d01c34 	movhi	r7,16496
 20005e8:	39f80004 	addi	r7,r7,-8192
 20005ec:	1009883a 	mov	r4,r2
 20005f0:	180b883a 	mov	r5,r3
 20005f4:	20017f00 	call	20017f0 <__muldf3>
 20005f8:	180b883a 	mov	r5,r3
 20005fc:	1009883a 	mov	r4,r2
 2000600:	2001d5c0 	call	2001d5c <__fixdfsi>
 2000604:	1085883a 	add	r2,r2,r2
 2000608:	a885883a 	add	r2,r21,r2
 200060c:	1080000b 	ldhu	r2,0(r2)
 2000610:	8dc7883a 	add	r3,r17,r23
 2000614:	1004953a 	slli	r2,r2,20
 2000618:	a0c00035 	stwio	r3,0(r20)
 200061c:	108ffc2c 	andhi	r2,r2,16368
 2000620:	98800035 	stwio	r2,0(r19)
 2000624:	e4800035 	stwio	r18,0(fp)
 2000628:	e0000035 	stwio	zero,0(fp)
 200062c:	bdc00044 	addi	r23,r23,1
 2000630:	bc3fe41e 	bne	r23,r16,20005c4 <__alt_mem_epcs_flash_controller+0xfdff75c4>
 2000634:	d8c00017 	ldw	r3,0(sp)
 2000638:	d8800117 	ldw	r2,4(sp)
 200063c:	18c00044 	addi	r3,r3,1
 2000640:	10800804 	addi	r2,r2,32
 2000644:	d8c00015 	stw	r3,0(sp)
 2000648:	d8800115 	stw	r2,4(sp)
 200064c:	1c3f991e 	bne	r3,r16,20004b4 <__alt_mem_epcs_flash_controller+0xfdff74b4>
 2000650:	003fcd06 	br	2000588 <__alt_mem_epcs_flash_controller+0xfdff7588>
 2000654:	d8800117 	ldw	r2,4(sp)
 2000658:	002f883a 	mov	r23,zero
 200065c:	14410004 	addi	r17,r2,1024
 2000660:	b809883a 	mov	r4,r23
 2000664:	2001c880 	call	2001c88 <__floatsidf>
 2000668:	1009883a 	mov	r4,r2
 200066c:	180b883a 	mov	r5,r3
 2000670:	000d883a 	mov	r6,zero
 2000674:	01d00ff4 	movhi	r7,16447
 2000678:	2001ad40 	call	2001ad4 <__divdf3>
 200067c:	000d883a 	mov	r6,zero
 2000680:	01d01c34 	movhi	r7,16496
 2000684:	39f80004 	addi	r7,r7,-8192
 2000688:	1009883a 	mov	r4,r2
 200068c:	180b883a 	mov	r5,r3
 2000690:	20017f00 	call	20017f0 <__muldf3>
 2000694:	180b883a 	mov	r5,r3
 2000698:	1009883a 	mov	r4,r2
 200069c:	2001d5c0 	call	2001d5c <__fixdfsi>
 20006a0:	1085883a 	add	r2,r2,r2
 20006a4:	a885883a 	add	r2,r21,r2
 20006a8:	1080000b 	ldhu	r2,0(r2)
 20006ac:	8dc7883a 	add	r3,r17,r23
 20006b0:	100492ba 	slli	r2,r2,10
 20006b4:	a0c00035 	stwio	r3,0(r20)
 20006b8:	1584703a 	and	r2,r2,r22
 20006bc:	98800035 	stwio	r2,0(r19)
 20006c0:	e4800035 	stwio	r18,0(fp)
 20006c4:	e0000035 	stwio	zero,0(fp)
 20006c8:	bdc00044 	addi	r23,r23,1
 20006cc:	bc3fe41e 	bne	r23,r16,2000660 <__alt_mem_epcs_flash_controller+0xfdff7660>
 20006d0:	d8c00017 	ldw	r3,0(sp)
 20006d4:	d8800117 	ldw	r2,4(sp)
 20006d8:	18c00044 	addi	r3,r3,1
 20006dc:	10800804 	addi	r2,r2,32
 20006e0:	d8c00015 	stw	r3,0(sp)
 20006e4:	d8800115 	stw	r2,4(sp)
 20006e8:	1c3f721e 	bne	r3,r16,20004b4 <__alt_mem_epcs_flash_controller+0xfdff74b4>
 20006ec:	003fa606 	br	2000588 <__alt_mem_epcs_flash_controller+0xfdff7588>
 20006f0:	d8c00117 	ldw	r3,4(sp)
 20006f4:	1c410004 	addi	r17,r3,1024
 20006f8:	b809883a 	mov	r4,r23
 20006fc:	2001c880 	call	2001c88 <__floatsidf>
 2000700:	1009883a 	mov	r4,r2
 2000704:	180b883a 	mov	r5,r3
 2000708:	000d883a 	mov	r6,zero
 200070c:	01d00ff4 	movhi	r7,16447
 2000710:	2001ad40 	call	2001ad4 <__divdf3>
 2000714:	000d883a 	mov	r6,zero
 2000718:	01d01c34 	movhi	r7,16496
 200071c:	39f80004 	addi	r7,r7,-8192
 2000720:	1009883a 	mov	r4,r2
 2000724:	180b883a 	mov	r5,r3
 2000728:	20017f00 	call	20017f0 <__muldf3>
 200072c:	180b883a 	mov	r5,r3
 2000730:	1009883a 	mov	r4,r2
 2000734:	2001d5c0 	call	2001d5c <__fixdfsi>
 2000738:	1085883a 	add	r2,r2,r2
 200073c:	a885883a 	add	r2,r21,r2
 2000740:	1080000b 	ldhu	r2,0(r2)
 2000744:	8dc7883a 	add	r3,r17,r23
 2000748:	1080ffcc 	andi	r2,r2,1023
 200074c:	a0c00035 	stwio	r3,0(r20)
 2000750:	98800035 	stwio	r2,0(r19)
 2000754:	e4800035 	stwio	r18,0(fp)
 2000758:	e0000035 	stwio	zero,0(fp)
 200075c:	bdc00044 	addi	r23,r23,1
 2000760:	bc3fe51e 	bne	r23,r16,20006f8 <__alt_mem_epcs_flash_controller+0xfdff76f8>
 2000764:	d8c00017 	ldw	r3,0(sp)
 2000768:	d8800117 	ldw	r2,4(sp)
 200076c:	18c00044 	addi	r3,r3,1
 2000770:	10800804 	addi	r2,r2,32
 2000774:	d8c00015 	stw	r3,0(sp)
 2000778:	d8800115 	stw	r2,4(sp)
 200077c:	1c3f4d1e 	bne	r3,r16,20004b4 <__alt_mem_epcs_flash_controller+0xfdff74b4>
 2000780:	003f8106 	br	2000588 <__alt_mem_epcs_flash_controller+0xfdff7588>

02000784 <displayCIEColourBars>:
 2000784:	defff404 	addi	sp,sp,-48
 2000788:	df000a15 	stw	fp,40(sp)
 200078c:	dd800815 	stw	r22,32(sp)
 2000790:	dd400715 	stw	r21,28(sp)
 2000794:	dd000615 	stw	r20,24(sp)
 2000798:	dcc00515 	stw	r19,20(sp)
 200079c:	dc800415 	stw	r18,16(sp)
 20007a0:	dc000215 	stw	r16,8(sp)
 20007a4:	dfc00b15 	stw	ra,44(sp)
 20007a8:	ddc00915 	stw	r23,36(sp)
 20007ac:	dc400315 	stw	r17,12(sp)
 20007b0:	d8000115 	stw	zero,4(sp)
 20007b4:	d8000015 	stw	zero,0(sp)
 20007b8:	05408074 	movhi	r21,513
 20007bc:	ad51bb04 	addi	r21,r21,18156
 20007c0:	05010074 	movhi	r20,1025
 20007c4:	a5281804 	addi	r20,r20,-24480
 20007c8:	05800434 	movhi	r22,16
 20007cc:	b5bf0004 	addi	r22,r22,-1024
 20007d0:	04c10074 	movhi	r19,1025
 20007d4:	9ce81404 	addi	r19,r19,-24496
 20007d8:	04800044 	movi	r18,1
 20007dc:	07010074 	movhi	fp,1025
 20007e0:	e7281004 	addi	fp,fp,-24512
 20007e4:	04000804 	movi	r16,32
 20007e8:	d8800017 	ldw	r2,0(sp)
 20007ec:	00c001c4 	movi	r3,7
 20007f0:	18803e0e 	bge	r3,r2,20008ec <displayCIEColourBars+0x168>
 20007f4:	10bffe04 	addi	r2,r2,-8
 20007f8:	1880632e 	bgeu	r3,r2,2000988 <displayCIEColourBars+0x204>
 20007fc:	d8c00017 	ldw	r3,0(sp)
 2000800:	002f883a 	mov	r23,zero
 2000804:	18bffc04 	addi	r2,r3,-16
 2000808:	00c001c4 	movi	r3,7
 200080c:	1880852e 	bgeu	r3,r2,2000a24 <displayCIEColourBars+0x2a0>
 2000810:	d8800117 	ldw	r2,4(sp)
 2000814:	14410004 	addi	r17,r2,1024
 2000818:	b809883a 	mov	r4,r23
 200081c:	2001c880 	call	2001c88 <__floatsidf>
 2000820:	1009883a 	mov	r4,r2
 2000824:	180b883a 	mov	r5,r3
 2000828:	000d883a 	mov	r6,zero
 200082c:	01d00ff4 	movhi	r7,16447
 2000830:	2001ad40 	call	2001ad4 <__divdf3>
 2000834:	000d883a 	mov	r6,zero
 2000838:	01d01c34 	movhi	r7,16496
 200083c:	39f80004 	addi	r7,r7,-8192
 2000840:	1009883a 	mov	r4,r2
 2000844:	180b883a 	mov	r5,r3
 2000848:	20017f00 	call	20017f0 <__muldf3>
 200084c:	180b883a 	mov	r5,r3
 2000850:	1009883a 	mov	r4,r2
 2000854:	2001d5c0 	call	2001d5c <__fixdfsi>
 2000858:	1085883a 	add	r2,r2,r2
 200085c:	a885883a 	add	r2,r21,r2
 2000860:	1080000b 	ldhu	r2,0(r2)
 2000864:	8dcb883a 	add	r5,r17,r23
 2000868:	10ffffcc 	andi	r3,r2,65535
 200086c:	1808953a 	slli	r4,r3,20
 2000870:	180692ba 	slli	r3,r3,10
 2000874:	210ffc2c 	andhi	r4,r4,16368
 2000878:	1d86703a 	and	r3,r3,r22
 200087c:	a1400035 	stwio	r5,0(r20)
 2000880:	20c6b03a 	or	r3,r4,r3
 2000884:	1080ffcc 	andi	r2,r2,1023
 2000888:	1884b03a 	or	r2,r3,r2
 200088c:	98800035 	stwio	r2,0(r19)
 2000890:	e4800035 	stwio	r18,0(fp)
 2000894:	e0000035 	stwio	zero,0(fp)
 2000898:	bdc00044 	addi	r23,r23,1
 200089c:	bc3fde1e 	bne	r23,r16,2000818 <__alt_mem_epcs_flash_controller+0xfdff7818>
 20008a0:	d8c00017 	ldw	r3,0(sp)
 20008a4:	d8800117 	ldw	r2,4(sp)
 20008a8:	18c00044 	addi	r3,r3,1
 20008ac:	10800804 	addi	r2,r2,32
 20008b0:	d8c00015 	stw	r3,0(sp)
 20008b4:	d8800115 	stw	r2,4(sp)
 20008b8:	1c3fcb1e 	bne	r3,r16,20007e8 <__alt_mem_epcs_flash_controller+0xfdff77e8>
 20008bc:	dfc00b17 	ldw	ra,44(sp)
 20008c0:	df000a17 	ldw	fp,40(sp)
 20008c4:	ddc00917 	ldw	r23,36(sp)
 20008c8:	dd800817 	ldw	r22,32(sp)
 20008cc:	dd400717 	ldw	r21,28(sp)
 20008d0:	dd000617 	ldw	r20,24(sp)
 20008d4:	dcc00517 	ldw	r19,20(sp)
 20008d8:	dc800417 	ldw	r18,16(sp)
 20008dc:	dc400317 	ldw	r17,12(sp)
 20008e0:	dc000217 	ldw	r16,8(sp)
 20008e4:	dec00c04 	addi	sp,sp,48
 20008e8:	f800283a 	ret
 20008ec:	d8800117 	ldw	r2,4(sp)
 20008f0:	002f883a 	mov	r23,zero
 20008f4:	14410004 	addi	r17,r2,1024
 20008f8:	b809883a 	mov	r4,r23
 20008fc:	2001c880 	call	2001c88 <__floatsidf>
 2000900:	1009883a 	mov	r4,r2
 2000904:	180b883a 	mov	r5,r3
 2000908:	000d883a 	mov	r6,zero
 200090c:	01d00ff4 	movhi	r7,16447
 2000910:	2001ad40 	call	2001ad4 <__divdf3>
 2000914:	000d883a 	mov	r6,zero
 2000918:	01d01c34 	movhi	r7,16496
 200091c:	39f80004 	addi	r7,r7,-8192
 2000920:	1009883a 	mov	r4,r2
 2000924:	180b883a 	mov	r5,r3
 2000928:	20017f00 	call	20017f0 <__muldf3>
 200092c:	180b883a 	mov	r5,r3
 2000930:	1009883a 	mov	r4,r2
 2000934:	2001d5c0 	call	2001d5c <__fixdfsi>
 2000938:	1085883a 	add	r2,r2,r2
 200093c:	a885883a 	add	r2,r21,r2
 2000940:	1080000b 	ldhu	r2,0(r2)
 2000944:	8dc7883a 	add	r3,r17,r23
 2000948:	1004953a 	slli	r2,r2,20
 200094c:	a0c00035 	stwio	r3,0(r20)
 2000950:	108ffc2c 	andhi	r2,r2,16368
 2000954:	98800035 	stwio	r2,0(r19)
 2000958:	e4800035 	stwio	r18,0(fp)
 200095c:	e0000035 	stwio	zero,0(fp)
 2000960:	bdc00044 	addi	r23,r23,1
 2000964:	bc3fe41e 	bne	r23,r16,20008f8 <__alt_mem_epcs_flash_controller+0xfdff78f8>
 2000968:	d8c00017 	ldw	r3,0(sp)
 200096c:	d8800117 	ldw	r2,4(sp)
 2000970:	18c00044 	addi	r3,r3,1
 2000974:	10800804 	addi	r2,r2,32
 2000978:	d8c00015 	stw	r3,0(sp)
 200097c:	d8800115 	stw	r2,4(sp)
 2000980:	1c3f991e 	bne	r3,r16,20007e8 <__alt_mem_epcs_flash_controller+0xfdff77e8>
 2000984:	003fcd06 	br	20008bc <__alt_mem_epcs_flash_controller+0xfdff78bc>
 2000988:	d8800117 	ldw	r2,4(sp)
 200098c:	002f883a 	mov	r23,zero
 2000990:	14410004 	addi	r17,r2,1024
 2000994:	b809883a 	mov	r4,r23
 2000998:	2001c880 	call	2001c88 <__floatsidf>
 200099c:	1009883a 	mov	r4,r2
 20009a0:	180b883a 	mov	r5,r3
 20009a4:	000d883a 	mov	r6,zero
 20009a8:	01d00ff4 	movhi	r7,16447
 20009ac:	2001ad40 	call	2001ad4 <__divdf3>
 20009b0:	000d883a 	mov	r6,zero
 20009b4:	01d01c34 	movhi	r7,16496
 20009b8:	39f80004 	addi	r7,r7,-8192
 20009bc:	1009883a 	mov	r4,r2
 20009c0:	180b883a 	mov	r5,r3
 20009c4:	20017f00 	call	20017f0 <__muldf3>
 20009c8:	180b883a 	mov	r5,r3
 20009cc:	1009883a 	mov	r4,r2
 20009d0:	2001d5c0 	call	2001d5c <__fixdfsi>
 20009d4:	1085883a 	add	r2,r2,r2
 20009d8:	a885883a 	add	r2,r21,r2
 20009dc:	1080000b 	ldhu	r2,0(r2)
 20009e0:	8dc7883a 	add	r3,r17,r23
 20009e4:	100492ba 	slli	r2,r2,10
 20009e8:	a0c00035 	stwio	r3,0(r20)
 20009ec:	1584703a 	and	r2,r2,r22
 20009f0:	98800035 	stwio	r2,0(r19)
 20009f4:	e4800035 	stwio	r18,0(fp)
 20009f8:	e0000035 	stwio	zero,0(fp)
 20009fc:	bdc00044 	addi	r23,r23,1
 2000a00:	bc3fe41e 	bne	r23,r16,2000994 <__alt_mem_epcs_flash_controller+0xfdff7994>
 2000a04:	d8c00017 	ldw	r3,0(sp)
 2000a08:	d8800117 	ldw	r2,4(sp)
 2000a0c:	18c00044 	addi	r3,r3,1
 2000a10:	10800804 	addi	r2,r2,32
 2000a14:	d8c00015 	stw	r3,0(sp)
 2000a18:	d8800115 	stw	r2,4(sp)
 2000a1c:	1c3f721e 	bne	r3,r16,20007e8 <__alt_mem_epcs_flash_controller+0xfdff77e8>
 2000a20:	003fa606 	br	20008bc <__alt_mem_epcs_flash_controller+0xfdff78bc>
 2000a24:	d8c00117 	ldw	r3,4(sp)
 2000a28:	1c410004 	addi	r17,r3,1024
 2000a2c:	b809883a 	mov	r4,r23
 2000a30:	2001c880 	call	2001c88 <__floatsidf>
 2000a34:	1009883a 	mov	r4,r2
 2000a38:	180b883a 	mov	r5,r3
 2000a3c:	000d883a 	mov	r6,zero
 2000a40:	01d00ff4 	movhi	r7,16447
 2000a44:	2001ad40 	call	2001ad4 <__divdf3>
 2000a48:	000d883a 	mov	r6,zero
 2000a4c:	01d01c34 	movhi	r7,16496
 2000a50:	39f80004 	addi	r7,r7,-8192
 2000a54:	1009883a 	mov	r4,r2
 2000a58:	180b883a 	mov	r5,r3
 2000a5c:	20017f00 	call	20017f0 <__muldf3>
 2000a60:	180b883a 	mov	r5,r3
 2000a64:	1009883a 	mov	r4,r2
 2000a68:	2001d5c0 	call	2001d5c <__fixdfsi>
 2000a6c:	1085883a 	add	r2,r2,r2
 2000a70:	a885883a 	add	r2,r21,r2
 2000a74:	1080000b 	ldhu	r2,0(r2)
 2000a78:	8dc7883a 	add	r3,r17,r23
 2000a7c:	1080ffcc 	andi	r2,r2,1023
 2000a80:	a0c00035 	stwio	r3,0(r20)
 2000a84:	98800035 	stwio	r2,0(r19)
 2000a88:	e4800035 	stwio	r18,0(fp)
 2000a8c:	e0000035 	stwio	zero,0(fp)
 2000a90:	bdc00044 	addi	r23,r23,1
 2000a94:	bc3fe51e 	bne	r23,r16,2000a2c <__alt_mem_epcs_flash_controller+0xfdff7a2c>
 2000a98:	d8c00017 	ldw	r3,0(sp)
 2000a9c:	d8800117 	ldw	r2,4(sp)
 2000aa0:	18c00044 	addi	r3,r3,1
 2000aa4:	10800804 	addi	r2,r2,32
 2000aa8:	d8c00015 	stw	r3,0(sp)
 2000aac:	d8800115 	stw	r2,4(sp)
 2000ab0:	1c3f4d1e 	bne	r3,r16,20007e8 <__alt_mem_epcs_flash_controller+0xfdff77e8>
 2000ab4:	003f8106 	br	20008bc <__alt_mem_epcs_flash_controller+0xfdff78bc>

02000ab8 <displayGamma149ColourBars>:
 2000ab8:	defff404 	addi	sp,sp,-48
 2000abc:	df000a15 	stw	fp,40(sp)
 2000ac0:	dd800815 	stw	r22,32(sp)
 2000ac4:	dd400715 	stw	r21,28(sp)
 2000ac8:	dd000615 	stw	r20,24(sp)
 2000acc:	dcc00515 	stw	r19,20(sp)
 2000ad0:	dc800415 	stw	r18,16(sp)
 2000ad4:	dc000215 	stw	r16,8(sp)
 2000ad8:	dfc00b15 	stw	ra,44(sp)
 2000adc:	ddc00915 	stw	r23,36(sp)
 2000ae0:	dc400315 	stw	r17,12(sp)
 2000ae4:	d8000115 	stw	zero,4(sp)
 2000ae8:	d8000015 	stw	zero,0(sp)
 2000aec:	05408074 	movhi	r21,513
 2000af0:	ad513b04 	addi	r21,r21,17644
 2000af4:	05010074 	movhi	r20,1025
 2000af8:	a5281804 	addi	r20,r20,-24480
 2000afc:	05800434 	movhi	r22,16
 2000b00:	b5bf0004 	addi	r22,r22,-1024
 2000b04:	04c10074 	movhi	r19,1025
 2000b08:	9ce81404 	addi	r19,r19,-24496
 2000b0c:	04800044 	movi	r18,1
 2000b10:	07010074 	movhi	fp,1025
 2000b14:	e7281004 	addi	fp,fp,-24512
 2000b18:	04000804 	movi	r16,32
 2000b1c:	d8800017 	ldw	r2,0(sp)
 2000b20:	00c001c4 	movi	r3,7
 2000b24:	18803e0e 	bge	r3,r2,2000c20 <displayGamma149ColourBars+0x168>
 2000b28:	10bffe04 	addi	r2,r2,-8
 2000b2c:	1880632e 	bgeu	r3,r2,2000cbc <displayGamma149ColourBars+0x204>
 2000b30:	d8c00017 	ldw	r3,0(sp)
 2000b34:	002f883a 	mov	r23,zero
 2000b38:	18bffc04 	addi	r2,r3,-16
 2000b3c:	00c001c4 	movi	r3,7
 2000b40:	1880852e 	bgeu	r3,r2,2000d58 <displayGamma149ColourBars+0x2a0>
 2000b44:	d8800117 	ldw	r2,4(sp)
 2000b48:	14410004 	addi	r17,r2,1024
 2000b4c:	b809883a 	mov	r4,r23
 2000b50:	2001c880 	call	2001c88 <__floatsidf>
 2000b54:	1009883a 	mov	r4,r2
 2000b58:	180b883a 	mov	r5,r3
 2000b5c:	000d883a 	mov	r6,zero
 2000b60:	01d00ff4 	movhi	r7,16447
 2000b64:	2001ad40 	call	2001ad4 <__divdf3>
 2000b68:	000d883a 	mov	r6,zero
 2000b6c:	01d01c34 	movhi	r7,16496
 2000b70:	39f80004 	addi	r7,r7,-8192
 2000b74:	1009883a 	mov	r4,r2
 2000b78:	180b883a 	mov	r5,r3
 2000b7c:	20017f00 	call	20017f0 <__muldf3>
 2000b80:	180b883a 	mov	r5,r3
 2000b84:	1009883a 	mov	r4,r2
 2000b88:	2001d5c0 	call	2001d5c <__fixdfsi>
 2000b8c:	1085883a 	add	r2,r2,r2
 2000b90:	a885883a 	add	r2,r21,r2
 2000b94:	1080000b 	ldhu	r2,0(r2)
 2000b98:	8dcb883a 	add	r5,r17,r23
 2000b9c:	10ffffcc 	andi	r3,r2,65535
 2000ba0:	1808953a 	slli	r4,r3,20
 2000ba4:	180692ba 	slli	r3,r3,10
 2000ba8:	210ffc2c 	andhi	r4,r4,16368
 2000bac:	1d86703a 	and	r3,r3,r22
 2000bb0:	a1400035 	stwio	r5,0(r20)
 2000bb4:	20c6b03a 	or	r3,r4,r3
 2000bb8:	1080ffcc 	andi	r2,r2,1023
 2000bbc:	1884b03a 	or	r2,r3,r2
 2000bc0:	98800035 	stwio	r2,0(r19)
 2000bc4:	e4800035 	stwio	r18,0(fp)
 2000bc8:	e0000035 	stwio	zero,0(fp)
 2000bcc:	bdc00044 	addi	r23,r23,1
 2000bd0:	bc3fde1e 	bne	r23,r16,2000b4c <__alt_mem_epcs_flash_controller+0xfdff7b4c>
 2000bd4:	d8c00017 	ldw	r3,0(sp)
 2000bd8:	d8800117 	ldw	r2,4(sp)
 2000bdc:	18c00044 	addi	r3,r3,1
 2000be0:	10800804 	addi	r2,r2,32
 2000be4:	d8c00015 	stw	r3,0(sp)
 2000be8:	d8800115 	stw	r2,4(sp)
 2000bec:	1c3fcb1e 	bne	r3,r16,2000b1c <__alt_mem_epcs_flash_controller+0xfdff7b1c>
 2000bf0:	dfc00b17 	ldw	ra,44(sp)
 2000bf4:	df000a17 	ldw	fp,40(sp)
 2000bf8:	ddc00917 	ldw	r23,36(sp)
 2000bfc:	dd800817 	ldw	r22,32(sp)
 2000c00:	dd400717 	ldw	r21,28(sp)
 2000c04:	dd000617 	ldw	r20,24(sp)
 2000c08:	dcc00517 	ldw	r19,20(sp)
 2000c0c:	dc800417 	ldw	r18,16(sp)
 2000c10:	dc400317 	ldw	r17,12(sp)
 2000c14:	dc000217 	ldw	r16,8(sp)
 2000c18:	dec00c04 	addi	sp,sp,48
 2000c1c:	f800283a 	ret
 2000c20:	d8800117 	ldw	r2,4(sp)
 2000c24:	002f883a 	mov	r23,zero
 2000c28:	14410004 	addi	r17,r2,1024
 2000c2c:	b809883a 	mov	r4,r23
 2000c30:	2001c880 	call	2001c88 <__floatsidf>
 2000c34:	1009883a 	mov	r4,r2
 2000c38:	180b883a 	mov	r5,r3
 2000c3c:	000d883a 	mov	r6,zero
 2000c40:	01d00ff4 	movhi	r7,16447
 2000c44:	2001ad40 	call	2001ad4 <__divdf3>
 2000c48:	000d883a 	mov	r6,zero
 2000c4c:	01d01c34 	movhi	r7,16496
 2000c50:	39f80004 	addi	r7,r7,-8192
 2000c54:	1009883a 	mov	r4,r2
 2000c58:	180b883a 	mov	r5,r3
 2000c5c:	20017f00 	call	20017f0 <__muldf3>
 2000c60:	180b883a 	mov	r5,r3
 2000c64:	1009883a 	mov	r4,r2
 2000c68:	2001d5c0 	call	2001d5c <__fixdfsi>
 2000c6c:	1085883a 	add	r2,r2,r2
 2000c70:	a885883a 	add	r2,r21,r2
 2000c74:	1080000b 	ldhu	r2,0(r2)
 2000c78:	8dc7883a 	add	r3,r17,r23
 2000c7c:	1004953a 	slli	r2,r2,20
 2000c80:	a0c00035 	stwio	r3,0(r20)
 2000c84:	108ffc2c 	andhi	r2,r2,16368
 2000c88:	98800035 	stwio	r2,0(r19)
 2000c8c:	e4800035 	stwio	r18,0(fp)
 2000c90:	e0000035 	stwio	zero,0(fp)
 2000c94:	bdc00044 	addi	r23,r23,1
 2000c98:	bc3fe41e 	bne	r23,r16,2000c2c <__alt_mem_epcs_flash_controller+0xfdff7c2c>
 2000c9c:	d8c00017 	ldw	r3,0(sp)
 2000ca0:	d8800117 	ldw	r2,4(sp)
 2000ca4:	18c00044 	addi	r3,r3,1
 2000ca8:	10800804 	addi	r2,r2,32
 2000cac:	d8c00015 	stw	r3,0(sp)
 2000cb0:	d8800115 	stw	r2,4(sp)
 2000cb4:	1c3f991e 	bne	r3,r16,2000b1c <__alt_mem_epcs_flash_controller+0xfdff7b1c>
 2000cb8:	003fcd06 	br	2000bf0 <__alt_mem_epcs_flash_controller+0xfdff7bf0>
 2000cbc:	d8800117 	ldw	r2,4(sp)
 2000cc0:	002f883a 	mov	r23,zero
 2000cc4:	14410004 	addi	r17,r2,1024
 2000cc8:	b809883a 	mov	r4,r23
 2000ccc:	2001c880 	call	2001c88 <__floatsidf>
 2000cd0:	1009883a 	mov	r4,r2
 2000cd4:	180b883a 	mov	r5,r3
 2000cd8:	000d883a 	mov	r6,zero
 2000cdc:	01d00ff4 	movhi	r7,16447
 2000ce0:	2001ad40 	call	2001ad4 <__divdf3>
 2000ce4:	000d883a 	mov	r6,zero
 2000ce8:	01d01c34 	movhi	r7,16496
 2000cec:	39f80004 	addi	r7,r7,-8192
 2000cf0:	1009883a 	mov	r4,r2
 2000cf4:	180b883a 	mov	r5,r3
 2000cf8:	20017f00 	call	20017f0 <__muldf3>
 2000cfc:	180b883a 	mov	r5,r3
 2000d00:	1009883a 	mov	r4,r2
 2000d04:	2001d5c0 	call	2001d5c <__fixdfsi>
 2000d08:	1085883a 	add	r2,r2,r2
 2000d0c:	a885883a 	add	r2,r21,r2
 2000d10:	1080000b 	ldhu	r2,0(r2)
 2000d14:	8dc7883a 	add	r3,r17,r23
 2000d18:	100492ba 	slli	r2,r2,10
 2000d1c:	a0c00035 	stwio	r3,0(r20)
 2000d20:	1584703a 	and	r2,r2,r22
 2000d24:	98800035 	stwio	r2,0(r19)
 2000d28:	e4800035 	stwio	r18,0(fp)
 2000d2c:	e0000035 	stwio	zero,0(fp)
 2000d30:	bdc00044 	addi	r23,r23,1
 2000d34:	bc3fe41e 	bne	r23,r16,2000cc8 <__alt_mem_epcs_flash_controller+0xfdff7cc8>
 2000d38:	d8c00017 	ldw	r3,0(sp)
 2000d3c:	d8800117 	ldw	r2,4(sp)
 2000d40:	18c00044 	addi	r3,r3,1
 2000d44:	10800804 	addi	r2,r2,32
 2000d48:	d8c00015 	stw	r3,0(sp)
 2000d4c:	d8800115 	stw	r2,4(sp)
 2000d50:	1c3f721e 	bne	r3,r16,2000b1c <__alt_mem_epcs_flash_controller+0xfdff7b1c>
 2000d54:	003fa606 	br	2000bf0 <__alt_mem_epcs_flash_controller+0xfdff7bf0>
 2000d58:	d8c00117 	ldw	r3,4(sp)
 2000d5c:	1c410004 	addi	r17,r3,1024
 2000d60:	b809883a 	mov	r4,r23
 2000d64:	2001c880 	call	2001c88 <__floatsidf>
 2000d68:	1009883a 	mov	r4,r2
 2000d6c:	180b883a 	mov	r5,r3
 2000d70:	000d883a 	mov	r6,zero
 2000d74:	01d00ff4 	movhi	r7,16447
 2000d78:	2001ad40 	call	2001ad4 <__divdf3>
 2000d7c:	000d883a 	mov	r6,zero
 2000d80:	01d01c34 	movhi	r7,16496
 2000d84:	39f80004 	addi	r7,r7,-8192
 2000d88:	1009883a 	mov	r4,r2
 2000d8c:	180b883a 	mov	r5,r3
 2000d90:	20017f00 	call	20017f0 <__muldf3>
 2000d94:	180b883a 	mov	r5,r3
 2000d98:	1009883a 	mov	r4,r2
 2000d9c:	2001d5c0 	call	2001d5c <__fixdfsi>
 2000da0:	1085883a 	add	r2,r2,r2
 2000da4:	a885883a 	add	r2,r21,r2
 2000da8:	1080000b 	ldhu	r2,0(r2)
 2000dac:	8dc7883a 	add	r3,r17,r23
 2000db0:	1080ffcc 	andi	r2,r2,1023
 2000db4:	a0c00035 	stwio	r3,0(r20)
 2000db8:	98800035 	stwio	r2,0(r19)
 2000dbc:	e4800035 	stwio	r18,0(fp)
 2000dc0:	e0000035 	stwio	zero,0(fp)
 2000dc4:	bdc00044 	addi	r23,r23,1
 2000dc8:	bc3fe51e 	bne	r23,r16,2000d60 <__alt_mem_epcs_flash_controller+0xfdff7d60>
 2000dcc:	d8c00017 	ldw	r3,0(sp)
 2000dd0:	d8800117 	ldw	r2,4(sp)
 2000dd4:	18c00044 	addi	r3,r3,1
 2000dd8:	10800804 	addi	r2,r2,32
 2000ddc:	d8c00015 	stw	r3,0(sp)
 2000de0:	d8800115 	stw	r2,4(sp)
 2000de4:	1c3f4d1e 	bne	r3,r16,2000b1c <__alt_mem_epcs_flash_controller+0xfdff7b1c>
 2000de8:	003f8106 	br	2000bf0 <__alt_mem_epcs_flash_controller+0xfdff7bf0>

02000dec <displayGamma98ColourBars>:
 2000dec:	defff404 	addi	sp,sp,-48
 2000df0:	df000a15 	stw	fp,40(sp)
 2000df4:	dd800815 	stw	r22,32(sp)
 2000df8:	dd400715 	stw	r21,28(sp)
 2000dfc:	dd000615 	stw	r20,24(sp)
 2000e00:	dcc00515 	stw	r19,20(sp)
 2000e04:	dc800415 	stw	r18,16(sp)
 2000e08:	dc000215 	stw	r16,8(sp)
 2000e0c:	dfc00b15 	stw	ra,44(sp)
 2000e10:	ddc00915 	stw	r23,36(sp)
 2000e14:	dc400315 	stw	r17,12(sp)
 2000e18:	d8000115 	stw	zero,4(sp)
 2000e1c:	d8000015 	stw	zero,0(sp)
 2000e20:	05408074 	movhi	r21,513
 2000e24:	ad50bb04 	addi	r21,r21,17132
 2000e28:	05010074 	movhi	r20,1025
 2000e2c:	a5281804 	addi	r20,r20,-24480
 2000e30:	05800434 	movhi	r22,16
 2000e34:	b5bf0004 	addi	r22,r22,-1024
 2000e38:	04c10074 	movhi	r19,1025
 2000e3c:	9ce81404 	addi	r19,r19,-24496
 2000e40:	04800044 	movi	r18,1
 2000e44:	07010074 	movhi	fp,1025
 2000e48:	e7281004 	addi	fp,fp,-24512
 2000e4c:	04000804 	movi	r16,32
 2000e50:	d8800017 	ldw	r2,0(sp)
 2000e54:	00c001c4 	movi	r3,7
 2000e58:	18803e0e 	bge	r3,r2,2000f54 <displayGamma98ColourBars+0x168>
 2000e5c:	10bffe04 	addi	r2,r2,-8
 2000e60:	1880632e 	bgeu	r3,r2,2000ff0 <displayGamma98ColourBars+0x204>
 2000e64:	d8c00017 	ldw	r3,0(sp)
 2000e68:	002f883a 	mov	r23,zero
 2000e6c:	18bffc04 	addi	r2,r3,-16
 2000e70:	00c001c4 	movi	r3,7
 2000e74:	1880852e 	bgeu	r3,r2,200108c <displayGamma98ColourBars+0x2a0>
 2000e78:	d8800117 	ldw	r2,4(sp)
 2000e7c:	14410004 	addi	r17,r2,1024
 2000e80:	b809883a 	mov	r4,r23
 2000e84:	2001c880 	call	2001c88 <__floatsidf>
 2000e88:	1009883a 	mov	r4,r2
 2000e8c:	180b883a 	mov	r5,r3
 2000e90:	000d883a 	mov	r6,zero
 2000e94:	01d00ff4 	movhi	r7,16447
 2000e98:	2001ad40 	call	2001ad4 <__divdf3>
 2000e9c:	000d883a 	mov	r6,zero
 2000ea0:	01d01c34 	movhi	r7,16496
 2000ea4:	39f80004 	addi	r7,r7,-8192
 2000ea8:	1009883a 	mov	r4,r2
 2000eac:	180b883a 	mov	r5,r3
 2000eb0:	20017f00 	call	20017f0 <__muldf3>
 2000eb4:	180b883a 	mov	r5,r3
 2000eb8:	1009883a 	mov	r4,r2
 2000ebc:	2001d5c0 	call	2001d5c <__fixdfsi>
 2000ec0:	1085883a 	add	r2,r2,r2
 2000ec4:	a885883a 	add	r2,r21,r2
 2000ec8:	1080000b 	ldhu	r2,0(r2)
 2000ecc:	8dcb883a 	add	r5,r17,r23
 2000ed0:	10ffffcc 	andi	r3,r2,65535
 2000ed4:	1808953a 	slli	r4,r3,20
 2000ed8:	180692ba 	slli	r3,r3,10
 2000edc:	210ffc2c 	andhi	r4,r4,16368
 2000ee0:	1d86703a 	and	r3,r3,r22
 2000ee4:	a1400035 	stwio	r5,0(r20)
 2000ee8:	20c6b03a 	or	r3,r4,r3
 2000eec:	1080ffcc 	andi	r2,r2,1023
 2000ef0:	1884b03a 	or	r2,r3,r2
 2000ef4:	98800035 	stwio	r2,0(r19)
 2000ef8:	e4800035 	stwio	r18,0(fp)
 2000efc:	e0000035 	stwio	zero,0(fp)
 2000f00:	bdc00044 	addi	r23,r23,1
 2000f04:	bc3fde1e 	bne	r23,r16,2000e80 <__alt_mem_epcs_flash_controller+0xfdff7e80>
 2000f08:	d8c00017 	ldw	r3,0(sp)
 2000f0c:	d8800117 	ldw	r2,4(sp)
 2000f10:	18c00044 	addi	r3,r3,1
 2000f14:	10800804 	addi	r2,r2,32
 2000f18:	d8c00015 	stw	r3,0(sp)
 2000f1c:	d8800115 	stw	r2,4(sp)
 2000f20:	1c3fcb1e 	bne	r3,r16,2000e50 <__alt_mem_epcs_flash_controller+0xfdff7e50>
 2000f24:	dfc00b17 	ldw	ra,44(sp)
 2000f28:	df000a17 	ldw	fp,40(sp)
 2000f2c:	ddc00917 	ldw	r23,36(sp)
 2000f30:	dd800817 	ldw	r22,32(sp)
 2000f34:	dd400717 	ldw	r21,28(sp)
 2000f38:	dd000617 	ldw	r20,24(sp)
 2000f3c:	dcc00517 	ldw	r19,20(sp)
 2000f40:	dc800417 	ldw	r18,16(sp)
 2000f44:	dc400317 	ldw	r17,12(sp)
 2000f48:	dc000217 	ldw	r16,8(sp)
 2000f4c:	dec00c04 	addi	sp,sp,48
 2000f50:	f800283a 	ret
 2000f54:	d8800117 	ldw	r2,4(sp)
 2000f58:	002f883a 	mov	r23,zero
 2000f5c:	14410004 	addi	r17,r2,1024
 2000f60:	b809883a 	mov	r4,r23
 2000f64:	2001c880 	call	2001c88 <__floatsidf>
 2000f68:	1009883a 	mov	r4,r2
 2000f6c:	180b883a 	mov	r5,r3
 2000f70:	000d883a 	mov	r6,zero
 2000f74:	01d00ff4 	movhi	r7,16447
 2000f78:	2001ad40 	call	2001ad4 <__divdf3>
 2000f7c:	000d883a 	mov	r6,zero
 2000f80:	01d01c34 	movhi	r7,16496
 2000f84:	39f80004 	addi	r7,r7,-8192
 2000f88:	1009883a 	mov	r4,r2
 2000f8c:	180b883a 	mov	r5,r3
 2000f90:	20017f00 	call	20017f0 <__muldf3>
 2000f94:	180b883a 	mov	r5,r3
 2000f98:	1009883a 	mov	r4,r2
 2000f9c:	2001d5c0 	call	2001d5c <__fixdfsi>
 2000fa0:	1085883a 	add	r2,r2,r2
 2000fa4:	a885883a 	add	r2,r21,r2
 2000fa8:	1080000b 	ldhu	r2,0(r2)
 2000fac:	8dc7883a 	add	r3,r17,r23
 2000fb0:	1004953a 	slli	r2,r2,20
 2000fb4:	a0c00035 	stwio	r3,0(r20)
 2000fb8:	108ffc2c 	andhi	r2,r2,16368
 2000fbc:	98800035 	stwio	r2,0(r19)
 2000fc0:	e4800035 	stwio	r18,0(fp)
 2000fc4:	e0000035 	stwio	zero,0(fp)
 2000fc8:	bdc00044 	addi	r23,r23,1
 2000fcc:	bc3fe41e 	bne	r23,r16,2000f60 <__alt_mem_epcs_flash_controller+0xfdff7f60>
 2000fd0:	d8c00017 	ldw	r3,0(sp)
 2000fd4:	d8800117 	ldw	r2,4(sp)
 2000fd8:	18c00044 	addi	r3,r3,1
 2000fdc:	10800804 	addi	r2,r2,32
 2000fe0:	d8c00015 	stw	r3,0(sp)
 2000fe4:	d8800115 	stw	r2,4(sp)
 2000fe8:	1c3f991e 	bne	r3,r16,2000e50 <__alt_mem_epcs_flash_controller+0xfdff7e50>
 2000fec:	003fcd06 	br	2000f24 <__alt_mem_epcs_flash_controller+0xfdff7f24>
 2000ff0:	d8800117 	ldw	r2,4(sp)
 2000ff4:	002f883a 	mov	r23,zero
 2000ff8:	14410004 	addi	r17,r2,1024
 2000ffc:	b809883a 	mov	r4,r23
 2001000:	2001c880 	call	2001c88 <__floatsidf>
 2001004:	1009883a 	mov	r4,r2
 2001008:	180b883a 	mov	r5,r3
 200100c:	000d883a 	mov	r6,zero
 2001010:	01d00ff4 	movhi	r7,16447
 2001014:	2001ad40 	call	2001ad4 <__divdf3>
 2001018:	000d883a 	mov	r6,zero
 200101c:	01d01c34 	movhi	r7,16496
 2001020:	39f80004 	addi	r7,r7,-8192
 2001024:	1009883a 	mov	r4,r2
 2001028:	180b883a 	mov	r5,r3
 200102c:	20017f00 	call	20017f0 <__muldf3>
 2001030:	180b883a 	mov	r5,r3
 2001034:	1009883a 	mov	r4,r2
 2001038:	2001d5c0 	call	2001d5c <__fixdfsi>
 200103c:	1085883a 	add	r2,r2,r2
 2001040:	a885883a 	add	r2,r21,r2
 2001044:	1080000b 	ldhu	r2,0(r2)
 2001048:	8dc7883a 	add	r3,r17,r23
 200104c:	100492ba 	slli	r2,r2,10
 2001050:	a0c00035 	stwio	r3,0(r20)
 2001054:	1584703a 	and	r2,r2,r22
 2001058:	98800035 	stwio	r2,0(r19)
 200105c:	e4800035 	stwio	r18,0(fp)
 2001060:	e0000035 	stwio	zero,0(fp)
 2001064:	bdc00044 	addi	r23,r23,1
 2001068:	bc3fe41e 	bne	r23,r16,2000ffc <__alt_mem_epcs_flash_controller+0xfdff7ffc>
 200106c:	d8c00017 	ldw	r3,0(sp)
 2001070:	d8800117 	ldw	r2,4(sp)
 2001074:	18c00044 	addi	r3,r3,1
 2001078:	10800804 	addi	r2,r2,32
 200107c:	d8c00015 	stw	r3,0(sp)
 2001080:	d8800115 	stw	r2,4(sp)
 2001084:	1c3f721e 	bne	r3,r16,2000e50 <__alt_mem_epcs_flash_controller+0xfdff7e50>
 2001088:	003fa606 	br	2000f24 <__alt_mem_epcs_flash_controller+0xfdff7f24>
 200108c:	d8c00117 	ldw	r3,4(sp)
 2001090:	1c410004 	addi	r17,r3,1024
 2001094:	b809883a 	mov	r4,r23
 2001098:	2001c880 	call	2001c88 <__floatsidf>
 200109c:	1009883a 	mov	r4,r2
 20010a0:	180b883a 	mov	r5,r3
 20010a4:	000d883a 	mov	r6,zero
 20010a8:	01d00ff4 	movhi	r7,16447
 20010ac:	2001ad40 	call	2001ad4 <__divdf3>
 20010b0:	000d883a 	mov	r6,zero
 20010b4:	01d01c34 	movhi	r7,16496
 20010b8:	39f80004 	addi	r7,r7,-8192
 20010bc:	1009883a 	mov	r4,r2
 20010c0:	180b883a 	mov	r5,r3
 20010c4:	20017f00 	call	20017f0 <__muldf3>
 20010c8:	180b883a 	mov	r5,r3
 20010cc:	1009883a 	mov	r4,r2
 20010d0:	2001d5c0 	call	2001d5c <__fixdfsi>
 20010d4:	1085883a 	add	r2,r2,r2
 20010d8:	a885883a 	add	r2,r21,r2
 20010dc:	1080000b 	ldhu	r2,0(r2)
 20010e0:	8dc7883a 	add	r3,r17,r23
 20010e4:	1080ffcc 	andi	r2,r2,1023
 20010e8:	a0c00035 	stwio	r3,0(r20)
 20010ec:	98800035 	stwio	r2,0(r19)
 20010f0:	e4800035 	stwio	r18,0(fp)
 20010f4:	e0000035 	stwio	zero,0(fp)
 20010f8:	bdc00044 	addi	r23,r23,1
 20010fc:	bc3fe51e 	bne	r23,r16,2001094 <__alt_mem_epcs_flash_controller+0xfdff8094>
 2001100:	d8c00017 	ldw	r3,0(sp)
 2001104:	d8800117 	ldw	r2,4(sp)
 2001108:	18c00044 	addi	r3,r3,1
 200110c:	10800804 	addi	r2,r2,32
 2001110:	d8c00015 	stw	r3,0(sp)
 2001114:	d8800115 	stw	r2,4(sp)
 2001118:	1c3f4d1e 	bne	r3,r16,2000e50 <__alt_mem_epcs_flash_controller+0xfdff7e50>
 200111c:	003f8106 	br	2000f24 <__alt_mem_epcs_flash_controller+0xfdff7f24>

02001120 <displayGamma46ColourBars>:
 2001120:	defff404 	addi	sp,sp,-48
 2001124:	df000a15 	stw	fp,40(sp)
 2001128:	dd800815 	stw	r22,32(sp)
 200112c:	dd400715 	stw	r21,28(sp)
 2001130:	dd000615 	stw	r20,24(sp)
 2001134:	dcc00515 	stw	r19,20(sp)
 2001138:	dc800415 	stw	r18,16(sp)
 200113c:	dc000215 	stw	r16,8(sp)
 2001140:	dfc00b15 	stw	ra,44(sp)
 2001144:	ddc00915 	stw	r23,36(sp)
 2001148:	dc400315 	stw	r17,12(sp)
 200114c:	d8000115 	stw	zero,4(sp)
 2001150:	d8000015 	stw	zero,0(sp)
 2001154:	05408074 	movhi	r21,513
 2001158:	ad503b04 	addi	r21,r21,16620
 200115c:	05010074 	movhi	r20,1025
 2001160:	a5281804 	addi	r20,r20,-24480
 2001164:	05800434 	movhi	r22,16
 2001168:	b5bf0004 	addi	r22,r22,-1024
 200116c:	04c10074 	movhi	r19,1025
 2001170:	9ce81404 	addi	r19,r19,-24496
 2001174:	04800044 	movi	r18,1
 2001178:	07010074 	movhi	fp,1025
 200117c:	e7281004 	addi	fp,fp,-24512
 2001180:	04000804 	movi	r16,32
 2001184:	d8800017 	ldw	r2,0(sp)
 2001188:	00c001c4 	movi	r3,7
 200118c:	18803e0e 	bge	r3,r2,2001288 <displayGamma46ColourBars+0x168>
 2001190:	10bffe04 	addi	r2,r2,-8
 2001194:	1880632e 	bgeu	r3,r2,2001324 <displayGamma46ColourBars+0x204>
 2001198:	d8c00017 	ldw	r3,0(sp)
 200119c:	002f883a 	mov	r23,zero
 20011a0:	18bffc04 	addi	r2,r3,-16
 20011a4:	00c001c4 	movi	r3,7
 20011a8:	1880852e 	bgeu	r3,r2,20013c0 <displayGamma46ColourBars+0x2a0>
 20011ac:	d8800117 	ldw	r2,4(sp)
 20011b0:	14410004 	addi	r17,r2,1024
 20011b4:	b809883a 	mov	r4,r23
 20011b8:	2001c880 	call	2001c88 <__floatsidf>
 20011bc:	1009883a 	mov	r4,r2
 20011c0:	180b883a 	mov	r5,r3
 20011c4:	000d883a 	mov	r6,zero
 20011c8:	01d00ff4 	movhi	r7,16447
 20011cc:	2001ad40 	call	2001ad4 <__divdf3>
 20011d0:	000d883a 	mov	r6,zero
 20011d4:	01d01c34 	movhi	r7,16496
 20011d8:	39f80004 	addi	r7,r7,-8192
 20011dc:	1009883a 	mov	r4,r2
 20011e0:	180b883a 	mov	r5,r3
 20011e4:	20017f00 	call	20017f0 <__muldf3>
 20011e8:	180b883a 	mov	r5,r3
 20011ec:	1009883a 	mov	r4,r2
 20011f0:	2001d5c0 	call	2001d5c <__fixdfsi>
 20011f4:	1085883a 	add	r2,r2,r2
 20011f8:	a885883a 	add	r2,r21,r2
 20011fc:	1080000b 	ldhu	r2,0(r2)
 2001200:	8dcb883a 	add	r5,r17,r23
 2001204:	10ffffcc 	andi	r3,r2,65535
 2001208:	1808953a 	slli	r4,r3,20
 200120c:	180692ba 	slli	r3,r3,10
 2001210:	210ffc2c 	andhi	r4,r4,16368
 2001214:	1d86703a 	and	r3,r3,r22
 2001218:	a1400035 	stwio	r5,0(r20)
 200121c:	20c6b03a 	or	r3,r4,r3
 2001220:	1080ffcc 	andi	r2,r2,1023
 2001224:	1884b03a 	or	r2,r3,r2
 2001228:	98800035 	stwio	r2,0(r19)
 200122c:	e4800035 	stwio	r18,0(fp)
 2001230:	e0000035 	stwio	zero,0(fp)
 2001234:	bdc00044 	addi	r23,r23,1
 2001238:	bc3fde1e 	bne	r23,r16,20011b4 <__alt_mem_epcs_flash_controller+0xfdff81b4>
 200123c:	d8c00017 	ldw	r3,0(sp)
 2001240:	d8800117 	ldw	r2,4(sp)
 2001244:	18c00044 	addi	r3,r3,1
 2001248:	10800804 	addi	r2,r2,32
 200124c:	d8c00015 	stw	r3,0(sp)
 2001250:	d8800115 	stw	r2,4(sp)
 2001254:	1c3fcb1e 	bne	r3,r16,2001184 <__alt_mem_epcs_flash_controller+0xfdff8184>
 2001258:	dfc00b17 	ldw	ra,44(sp)
 200125c:	df000a17 	ldw	fp,40(sp)
 2001260:	ddc00917 	ldw	r23,36(sp)
 2001264:	dd800817 	ldw	r22,32(sp)
 2001268:	dd400717 	ldw	r21,28(sp)
 200126c:	dd000617 	ldw	r20,24(sp)
 2001270:	dcc00517 	ldw	r19,20(sp)
 2001274:	dc800417 	ldw	r18,16(sp)
 2001278:	dc400317 	ldw	r17,12(sp)
 200127c:	dc000217 	ldw	r16,8(sp)
 2001280:	dec00c04 	addi	sp,sp,48
 2001284:	f800283a 	ret
 2001288:	d8800117 	ldw	r2,4(sp)
 200128c:	002f883a 	mov	r23,zero
 2001290:	14410004 	addi	r17,r2,1024
 2001294:	b809883a 	mov	r4,r23
 2001298:	2001c880 	call	2001c88 <__floatsidf>
 200129c:	1009883a 	mov	r4,r2
 20012a0:	180b883a 	mov	r5,r3
 20012a4:	000d883a 	mov	r6,zero
 20012a8:	01d00ff4 	movhi	r7,16447
 20012ac:	2001ad40 	call	2001ad4 <__divdf3>
 20012b0:	000d883a 	mov	r6,zero
 20012b4:	01d01c34 	movhi	r7,16496
 20012b8:	39f80004 	addi	r7,r7,-8192
 20012bc:	1009883a 	mov	r4,r2
 20012c0:	180b883a 	mov	r5,r3
 20012c4:	20017f00 	call	20017f0 <__muldf3>
 20012c8:	180b883a 	mov	r5,r3
 20012cc:	1009883a 	mov	r4,r2
 20012d0:	2001d5c0 	call	2001d5c <__fixdfsi>
 20012d4:	1085883a 	add	r2,r2,r2
 20012d8:	a885883a 	add	r2,r21,r2
 20012dc:	1080000b 	ldhu	r2,0(r2)
 20012e0:	8dc7883a 	add	r3,r17,r23
 20012e4:	1004953a 	slli	r2,r2,20
 20012e8:	a0c00035 	stwio	r3,0(r20)
 20012ec:	108ffc2c 	andhi	r2,r2,16368
 20012f0:	98800035 	stwio	r2,0(r19)
 20012f4:	e4800035 	stwio	r18,0(fp)
 20012f8:	e0000035 	stwio	zero,0(fp)
 20012fc:	bdc00044 	addi	r23,r23,1
 2001300:	bc3fe41e 	bne	r23,r16,2001294 <__alt_mem_epcs_flash_controller+0xfdff8294>
 2001304:	d8c00017 	ldw	r3,0(sp)
 2001308:	d8800117 	ldw	r2,4(sp)
 200130c:	18c00044 	addi	r3,r3,1
 2001310:	10800804 	addi	r2,r2,32
 2001314:	d8c00015 	stw	r3,0(sp)
 2001318:	d8800115 	stw	r2,4(sp)
 200131c:	1c3f991e 	bne	r3,r16,2001184 <__alt_mem_epcs_flash_controller+0xfdff8184>
 2001320:	003fcd06 	br	2001258 <__alt_mem_epcs_flash_controller+0xfdff8258>
 2001324:	d8800117 	ldw	r2,4(sp)
 2001328:	002f883a 	mov	r23,zero
 200132c:	14410004 	addi	r17,r2,1024
 2001330:	b809883a 	mov	r4,r23
 2001334:	2001c880 	call	2001c88 <__floatsidf>
 2001338:	1009883a 	mov	r4,r2
 200133c:	180b883a 	mov	r5,r3
 2001340:	000d883a 	mov	r6,zero
 2001344:	01d00ff4 	movhi	r7,16447
 2001348:	2001ad40 	call	2001ad4 <__divdf3>
 200134c:	000d883a 	mov	r6,zero
 2001350:	01d01c34 	movhi	r7,16496
 2001354:	39f80004 	addi	r7,r7,-8192
 2001358:	1009883a 	mov	r4,r2
 200135c:	180b883a 	mov	r5,r3
 2001360:	20017f00 	call	20017f0 <__muldf3>
 2001364:	180b883a 	mov	r5,r3
 2001368:	1009883a 	mov	r4,r2
 200136c:	2001d5c0 	call	2001d5c <__fixdfsi>
 2001370:	1085883a 	add	r2,r2,r2
 2001374:	a885883a 	add	r2,r21,r2
 2001378:	1080000b 	ldhu	r2,0(r2)
 200137c:	8dc7883a 	add	r3,r17,r23
 2001380:	100492ba 	slli	r2,r2,10
 2001384:	a0c00035 	stwio	r3,0(r20)
 2001388:	1584703a 	and	r2,r2,r22
 200138c:	98800035 	stwio	r2,0(r19)
 2001390:	e4800035 	stwio	r18,0(fp)
 2001394:	e0000035 	stwio	zero,0(fp)
 2001398:	bdc00044 	addi	r23,r23,1
 200139c:	bc3fe41e 	bne	r23,r16,2001330 <__alt_mem_epcs_flash_controller+0xfdff8330>
 20013a0:	d8c00017 	ldw	r3,0(sp)
 20013a4:	d8800117 	ldw	r2,4(sp)
 20013a8:	18c00044 	addi	r3,r3,1
 20013ac:	10800804 	addi	r2,r2,32
 20013b0:	d8c00015 	stw	r3,0(sp)
 20013b4:	d8800115 	stw	r2,4(sp)
 20013b8:	1c3f721e 	bne	r3,r16,2001184 <__alt_mem_epcs_flash_controller+0xfdff8184>
 20013bc:	003fa606 	br	2001258 <__alt_mem_epcs_flash_controller+0xfdff8258>
 20013c0:	d8c00117 	ldw	r3,4(sp)
 20013c4:	1c410004 	addi	r17,r3,1024
 20013c8:	b809883a 	mov	r4,r23
 20013cc:	2001c880 	call	2001c88 <__floatsidf>
 20013d0:	1009883a 	mov	r4,r2
 20013d4:	180b883a 	mov	r5,r3
 20013d8:	000d883a 	mov	r6,zero
 20013dc:	01d00ff4 	movhi	r7,16447
 20013e0:	2001ad40 	call	2001ad4 <__divdf3>
 20013e4:	000d883a 	mov	r6,zero
 20013e8:	01d01c34 	movhi	r7,16496
 20013ec:	39f80004 	addi	r7,r7,-8192
 20013f0:	1009883a 	mov	r4,r2
 20013f4:	180b883a 	mov	r5,r3
 20013f8:	20017f00 	call	20017f0 <__muldf3>
 20013fc:	180b883a 	mov	r5,r3
 2001400:	1009883a 	mov	r4,r2
 2001404:	2001d5c0 	call	2001d5c <__fixdfsi>
 2001408:	1085883a 	add	r2,r2,r2
 200140c:	a885883a 	add	r2,r21,r2
 2001410:	1080000b 	ldhu	r2,0(r2)
 2001414:	8dc7883a 	add	r3,r17,r23
 2001418:	1080ffcc 	andi	r2,r2,1023
 200141c:	a0c00035 	stwio	r3,0(r20)
 2001420:	98800035 	stwio	r2,0(r19)
 2001424:	e4800035 	stwio	r18,0(fp)
 2001428:	e0000035 	stwio	zero,0(fp)
 200142c:	bdc00044 	addi	r23,r23,1
 2001430:	bc3fe51e 	bne	r23,r16,20013c8 <__alt_mem_epcs_flash_controller+0xfdff83c8>
 2001434:	d8c00017 	ldw	r3,0(sp)
 2001438:	d8800117 	ldw	r2,4(sp)
 200143c:	18c00044 	addi	r3,r3,1
 2001440:	10800804 	addi	r2,r2,32
 2001444:	d8c00015 	stw	r3,0(sp)
 2001448:	d8800115 	stw	r2,4(sp)
 200144c:	1c3f4d1e 	bne	r3,r16,2001184 <__alt_mem_epcs_flash_controller+0xfdff8184>
 2001450:	003f8106 	br	2001258 <__alt_mem_epcs_flash_controller+0xfdff8258>

02001454 <printMenu>:
 2001454:	deffff04 	addi	sp,sp,-4
 2001458:	01008074 	movhi	r4,513
 200145c:	210f9204 	addi	r4,r4,15944
 2001460:	dfc00015 	stw	ra,0(sp)
 2001464:	20034940 	call	2003494 <puts>
 2001468:	01008074 	movhi	r4,513
 200146c:	210f9604 	addi	r4,r4,15960
 2001470:	20034940 	call	2003494 <puts>
 2001474:	01008074 	movhi	r4,513
 2001478:	210f9a04 	addi	r4,r4,15976
 200147c:	20034940 	call	2003494 <puts>
 2001480:	01008074 	movhi	r4,513
 2001484:	210f9f04 	addi	r4,r4,15996
 2001488:	20034940 	call	2003494 <puts>
 200148c:	01008074 	movhi	r4,513
 2001490:	210fa404 	addi	r4,r4,16016
 2001494:	20034940 	call	2003494 <puts>
 2001498:	01008074 	movhi	r4,513
 200149c:	210fad04 	addi	r4,r4,16052
 20014a0:	20034940 	call	2003494 <puts>
 20014a4:	01008074 	movhi	r4,513
 20014a8:	210fb904 	addi	r4,r4,16100
 20014ac:	20034940 	call	2003494 <puts>
 20014b0:	01008074 	movhi	r4,513
 20014b4:	210fc604 	addi	r4,r4,16152
 20014b8:	20034940 	call	2003494 <puts>
 20014bc:	01008074 	movhi	r4,513
 20014c0:	210fd304 	addi	r4,r4,16204
 20014c4:	20034940 	call	2003494 <puts>
 20014c8:	01008074 	movhi	r4,513
 20014cc:	210fe004 	addi	r4,r4,16256
 20014d0:	dfc00017 	ldw	ra,0(sp)
 20014d4:	dec00104 	addi	sp,sp,4
 20014d8:	20033d41 	jmpi	20033d4 <printf>

020014dc <animationsMenu>:
 20014dc:	defffc04 	addi	sp,sp,-16
 20014e0:	dc400215 	stw	r17,8(sp)
 20014e4:	dc000115 	stw	r16,4(sp)
 20014e8:	dfc00315 	stw	ra,12(sp)
 20014ec:	d8000015 	stw	zero,0(sp)
 20014f0:	000b883a 	mov	r5,zero
 20014f4:	04408234 	movhi	r17,520
 20014f8:	8c5c9904 	addi	r17,r17,29284
 20014fc:	04000644 	movi	r16,25
 2001500:	2945883a 	add	r2,r5,r5
 2001504:	1085883a 	add	r2,r2,r2
 2001508:	8885883a 	add	r2,r17,r2
 200150c:	10800017 	ldw	r2,0(r2)
 2001510:	01008074 	movhi	r4,513
 2001514:	210fec04 	addi	r4,r4,16304
 2001518:	11800017 	ldw	r6,0(r2)
 200151c:	20033d40 	call	20033d4 <printf>
 2001520:	d9400017 	ldw	r5,0(sp)
 2001524:	29400044 	addi	r5,r5,1
 2001528:	d9400015 	stw	r5,0(sp)
 200152c:	817ff40e 	bge	r16,r5,2001500 <__alt_mem_epcs_flash_controller+0xfdff8500>
 2001530:	d80b883a 	mov	r5,sp
 2001534:	01008074 	movhi	r4,513
 2001538:	210feb04 	addi	r4,r4,16300
 200153c:	200350c0 	call	200350c <scanf>
 2001540:	00808274 	movhi	r2,521
 2001544:	10a3b704 	addi	r2,r2,-28964
 2001548:	10800017 	ldw	r2,0(r2)
 200154c:	11000117 	ldw	r4,4(r2)
 2001550:	20026cc0 	call	20026cc <fflush>
 2001554:	d8800017 	ldw	r2,0(sp)
 2001558:	00c08234 	movhi	r3,520
 200155c:	18dc9904 	addi	r3,r3,29284
 2001560:	1085883a 	add	r2,r2,r2
 2001564:	1085883a 	add	r2,r2,r2
 2001568:	1885883a 	add	r2,r3,r2
 200156c:	10c00017 	ldw	r3,0(r2)
 2001570:	00808274 	movhi	r2,521
 2001574:	10aaf704 	addi	r2,r2,-21540
 2001578:	10c00015 	stw	r3,0(r2)
 200157c:	dfc00317 	ldw	ra,12(sp)
 2001580:	dc400217 	ldw	r17,8(sp)
 2001584:	dc000117 	ldw	r16,4(sp)
 2001588:	dec00404 	addi	sp,sp,16
 200158c:	f800283a 	ret

02001590 <main>:
 2001590:	defff404 	addi	sp,sp,-48
 2001594:	01008074 	movhi	r4,513
 2001598:	210fe504 	addi	r4,r4,16276
 200159c:	dd400715 	stw	r21,28(sp)
 20015a0:	dc800415 	stw	r18,16(sp)
 20015a4:	dc000215 	stw	r16,8(sp)
 20015a8:	dfc00b15 	stw	ra,44(sp)
 20015ac:	df000a15 	stw	fp,40(sp)
 20015b0:	ddc00915 	stw	r23,36(sp)
 20015b4:	dd800815 	stw	r22,32(sp)
 20015b8:	dd000615 	stw	r20,24(sp)
 20015bc:	dcc00515 	stw	r19,20(sp)
 20015c0:	dc400315 	stw	r17,12(sp)
 20015c4:	04808234 	movhi	r18,520
 20015c8:	949c9904 	addi	r18,r18,29284
 20015cc:	20034940 	call	2003494 <puts>
 20015d0:	90800117 	ldw	r2,4(r18)
 20015d4:	05408274 	movhi	r21,521
 20015d8:	ad6af704 	addi	r21,r21,-21540
 20015dc:	04010074 	movhi	r16,1025
 20015e0:	84281004 	addi	r16,r16,-24512
 20015e4:	a8800015 	stw	r2,0(r21)
 20015e8:	80000035 	stwio	zero,0(r16)
 20015ec:	01008274 	movhi	r4,521
 20015f0:	212b0704 	addi	r4,r4,-21476
 20015f4:	0140fa04 	movi	r5,1000
 20015f8:	01808034 	movhi	r6,512
 20015fc:	31807d04 	addi	r6,r6,500
 2001600:	000f883a 	mov	r7,zero
 2001604:	20104080 	call	2010408 <alt_alarm_start>
 2001608:	20014540 	call	2001454 <printMenu>
 200160c:	04c08274 	movhi	r19,521
 2001610:	9ce3b704 	addi	r19,r19,-28964
 2001614:	05008274 	movhi	r20,521
 2001618:	a52b0504 	addi	r20,r20,-21484
 200161c:	902d883a 	mov	r22,r18
 2001620:	05c10074 	movhi	r23,1025
 2001624:	bde81804 	addi	r23,r23,-24480
 2001628:	04410074 	movhi	r17,1025
 200162c:	8c681404 	addi	r17,r17,-24496
 2001630:	00002a06 	br	20016dc <main+0x14c>
 2001634:	00c00084 	movi	r3,2
 2001638:	10c05526 	beq	r2,r3,2001790 <main+0x200>
 200163c:	00c000c4 	movi	r3,3
 2001640:	10c05f26 	beq	r2,r3,20017c0 <main+0x230>
 2001644:	00c00104 	movi	r3,4
 2001648:	10c06026 	beq	r2,r3,20017cc <main+0x23c>
 200164c:	00c00144 	movi	r3,5
 2001650:	10c06126 	beq	r2,r3,20017d8 <main+0x248>
 2001654:	00c00184 	movi	r3,6
 2001658:	10c06226 	beq	r2,r3,20017e4 <main+0x254>
 200165c:	00c001c4 	movi	r3,7
 2001660:	10c04826 	beq	r2,r3,2001784 <main+0x1f4>
 2001664:	01008074 	movhi	r4,513
 2001668:	210f9204 	addi	r4,r4,15944
 200166c:	20034940 	call	2003494 <puts>
 2001670:	01008074 	movhi	r4,513
 2001674:	210f9604 	addi	r4,r4,15960
 2001678:	20034940 	call	2003494 <puts>
 200167c:	01008074 	movhi	r4,513
 2001680:	210f9a04 	addi	r4,r4,15976
 2001684:	20034940 	call	2003494 <puts>
 2001688:	01008074 	movhi	r4,513
 200168c:	210f9f04 	addi	r4,r4,15996
 2001690:	20034940 	call	2003494 <puts>
 2001694:	01008074 	movhi	r4,513
 2001698:	210fa404 	addi	r4,r4,16016
 200169c:	20034940 	call	2003494 <puts>
 20016a0:	01008074 	movhi	r4,513
 20016a4:	210fad04 	addi	r4,r4,16052
 20016a8:	20034940 	call	2003494 <puts>
 20016ac:	01008074 	movhi	r4,513
 20016b0:	210fb904 	addi	r4,r4,16100
 20016b4:	20034940 	call	2003494 <puts>
 20016b8:	01008074 	movhi	r4,513
 20016bc:	210fc604 	addi	r4,r4,16152
 20016c0:	20034940 	call	2003494 <puts>
 20016c4:	01008074 	movhi	r4,513
 20016c8:	210fd304 	addi	r4,r4,16204
 20016cc:	20034940 	call	2003494 <puts>
 20016d0:	01008074 	movhi	r4,513
 20016d4:	210fe004 	addi	r4,r4,16256
 20016d8:	20033d40 	call	20033d4 <printf>
 20016dc:	01008074 	movhi	r4,513
 20016e0:	210feb04 	addi	r4,r4,16300
 20016e4:	d9400104 	addi	r5,sp,4
 20016e8:	200350c0 	call	200350c <scanf>
 20016ec:	98800017 	ldw	r2,0(r19)
 20016f0:	11000117 	ldw	r4,4(r2)
 20016f4:	20026cc0 	call	20026cc <fflush>
 20016f8:	d8800117 	ldw	r2,4(sp)
 20016fc:	01000044 	movi	r4,1
 2001700:	113fcc1e 	bne	r2,r4,2001634 <__alt_mem_epcs_flash_controller+0xfdff8634>
 2001704:	d8000015 	stw	zero,0(sp)
 2001708:	000b883a 	mov	r5,zero
 200170c:	07000644 	movi	fp,25
 2001710:	2945883a 	add	r2,r5,r5
 2001714:	1085883a 	add	r2,r2,r2
 2001718:	9085883a 	add	r2,r18,r2
 200171c:	10800017 	ldw	r2,0(r2)
 2001720:	01008074 	movhi	r4,513
 2001724:	210fec04 	addi	r4,r4,16304
 2001728:	11800017 	ldw	r6,0(r2)
 200172c:	20033d40 	call	20033d4 <printf>
 2001730:	d9400017 	ldw	r5,0(sp)
 2001734:	29400044 	addi	r5,r5,1
 2001738:	d9400015 	stw	r5,0(sp)
 200173c:	e17ff40e 	bge	fp,r5,2001710 <__alt_mem_epcs_flash_controller+0xfdff8710>
 2001740:	d80b883a 	mov	r5,sp
 2001744:	01008074 	movhi	r4,513
 2001748:	210feb04 	addi	r4,r4,16300
 200174c:	200350c0 	call	200350c <scanf>
 2001750:	98800017 	ldw	r2,0(r19)
 2001754:	11000117 	ldw	r4,4(r2)
 2001758:	20026cc0 	call	20026cc <fflush>
 200175c:	d8800017 	ldw	r2,0(sp)
 2001760:	01008074 	movhi	r4,513
 2001764:	210f9204 	addi	r4,r4,15944
 2001768:	a0000015 	stw	zero,0(r20)
 200176c:	1085883a 	add	r2,r2,r2
 2001770:	1085883a 	add	r2,r2,r2
 2001774:	b085883a 	add	r2,r22,r2
 2001778:	10800017 	ldw	r2,0(r2)
 200177c:	a8800015 	stw	r2,0(r21)
 2001780:	003fba06 	br	200166c <__alt_mem_epcs_flash_controller+0xfdff866c>
 2001784:	a1000015 	stw	r4,0(r20)
 2001788:	20011200 	call	2001120 <displayGamma46ColourBars>
 200178c:	003fb506 	br	2001664 <__alt_mem_epcs_flash_controller+0xfdff8664>
 2001790:	a1000015 	stw	r4,0(r20)
 2001794:	00810004 	movi	r2,1024
 2001798:	01420004 	movi	r5,2048
 200179c:	10c00804 	addi	r3,r2,32
 20017a0:	b8800035 	stwio	r2,0(r23)
 20017a4:	88000035 	stwio	zero,0(r17)
 20017a8:	81000035 	stwio	r4,0(r16)
 20017ac:	80000035 	stwio	zero,0(r16)
 20017b0:	10800044 	addi	r2,r2,1
 20017b4:	10fffa1e 	bne	r2,r3,20017a0 <__alt_mem_epcs_flash_controller+0xfdff87a0>
 20017b8:	117ff81e 	bne	r2,r5,200179c <__alt_mem_epcs_flash_controller+0xfdff879c>
 20017bc:	003fa906 	br	2001664 <__alt_mem_epcs_flash_controller+0xfdff8664>
 20017c0:	a1000015 	stw	r4,0(r20)
 20017c4:	20004500 	call	2000450 <displayColourBars>
 20017c8:	003fa606 	br	2001664 <__alt_mem_epcs_flash_controller+0xfdff8664>
 20017cc:	a1000015 	stw	r4,0(r20)
 20017d0:	20007840 	call	2000784 <displayCIEColourBars>
 20017d4:	003fa306 	br	2001664 <__alt_mem_epcs_flash_controller+0xfdff8664>
 20017d8:	a1000015 	stw	r4,0(r20)
 20017dc:	2000ab80 	call	2000ab8 <displayGamma149ColourBars>
 20017e0:	003fa006 	br	2001664 <__alt_mem_epcs_flash_controller+0xfdff8664>
 20017e4:	a1000015 	stw	r4,0(r20)
 20017e8:	2000dec0 	call	2000dec <displayGamma98ColourBars>
 20017ec:	003f9d06 	br	2001664 <__alt_mem_epcs_flash_controller+0xfdff8664>

020017f0 <__muldf3>:
 20017f0:	deffe404 	addi	sp,sp,-112
 20017f4:	d9001115 	stw	r4,68(sp)
 20017f8:	d9401215 	stw	r5,72(sp)
 20017fc:	d9001104 	addi	r4,sp,68
 2001800:	d9400a04 	addi	r5,sp,40
 2001804:	dfc01b15 	stw	ra,108(sp)
 2001808:	d9800f15 	stw	r6,60(sp)
 200180c:	d9c01015 	stw	r7,64(sp)
 2001810:	ddc01a15 	stw	r23,104(sp)
 2001814:	dd801915 	stw	r22,100(sp)
 2001818:	dd401815 	stw	r21,96(sp)
 200181c:	dd001715 	stw	r20,92(sp)
 2001820:	dcc01615 	stw	r19,88(sp)
 2001824:	dc801515 	stw	r18,84(sp)
 2001828:	dc401415 	stw	r17,80(sp)
 200182c:	dc001315 	stw	r16,76(sp)
 2001830:	20023580 	call	2002358 <__unpack_d>
 2001834:	d9000f04 	addi	r4,sp,60
 2001838:	d9400504 	addi	r5,sp,20
 200183c:	20023580 	call	2002358 <__unpack_d>
 2001840:	d8c00a17 	ldw	r3,40(sp)
 2001844:	00800044 	movi	r2,1
 2001848:	10c01136 	bltu	r2,r3,2001890 <__muldf3+0xa0>
 200184c:	d8c00b17 	ldw	r3,44(sp)
 2001850:	d8800617 	ldw	r2,24(sp)
 2001854:	d9000a04 	addi	r4,sp,40
 2001858:	1884c03a 	cmpne	r2,r3,r2
 200185c:	d8800b15 	stw	r2,44(sp)
 2001860:	20021340 	call	2002134 <__pack_d>
 2001864:	dfc01b17 	ldw	ra,108(sp)
 2001868:	ddc01a17 	ldw	r23,104(sp)
 200186c:	dd801917 	ldw	r22,100(sp)
 2001870:	dd401817 	ldw	r21,96(sp)
 2001874:	dd001717 	ldw	r20,92(sp)
 2001878:	dcc01617 	ldw	r19,88(sp)
 200187c:	dc801517 	ldw	r18,84(sp)
 2001880:	dc401417 	ldw	r17,80(sp)
 2001884:	dc001317 	ldw	r16,76(sp)
 2001888:	dec01c04 	addi	sp,sp,112
 200188c:	f800283a 	ret
 2001890:	d9000517 	ldw	r4,20(sp)
 2001894:	11000636 	bltu	r2,r4,20018b0 <__muldf3+0xc0>
 2001898:	d8800617 	ldw	r2,24(sp)
 200189c:	d8c00b17 	ldw	r3,44(sp)
 20018a0:	d9000504 	addi	r4,sp,20
 20018a4:	1884c03a 	cmpne	r2,r3,r2
 20018a8:	d8800615 	stw	r2,24(sp)
 20018ac:	003fec06 	br	2001860 <__alt_mem_epcs_flash_controller+0xfdff8860>
 20018b0:	00800104 	movi	r2,4
 20018b4:	1880051e 	bne	r3,r2,20018cc <__muldf3+0xdc>
 20018b8:	00800084 	movi	r2,2
 20018bc:	20bfe31e 	bne	r4,r2,200184c <__alt_mem_epcs_flash_controller+0xfdff884c>
 20018c0:	01008234 	movhi	r4,520
 20018c4:	211b0a04 	addi	r4,r4,27688
 20018c8:	003fe506 	br	2001860 <__alt_mem_epcs_flash_controller+0xfdff8860>
 20018cc:	2080031e 	bne	r4,r2,20018dc <__muldf3+0xec>
 20018d0:	00800084 	movi	r2,2
 20018d4:	18bffa26 	beq	r3,r2,20018c0 <__alt_mem_epcs_flash_controller+0xfdff88c0>
 20018d8:	003fef06 	br	2001898 <__alt_mem_epcs_flash_controller+0xfdff8898>
 20018dc:	00800084 	movi	r2,2
 20018e0:	18bfda26 	beq	r3,r2,200184c <__alt_mem_epcs_flash_controller+0xfdff884c>
 20018e4:	20bfec26 	beq	r4,r2,2001898 <__alt_mem_epcs_flash_controller+0xfdff8898>
 20018e8:	dc000d17 	ldw	r16,52(sp)
 20018ec:	dd000817 	ldw	r20,32(sp)
 20018f0:	dc800917 	ldw	r18,36(sp)
 20018f4:	8009883a 	mov	r4,r16
 20018f8:	000b883a 	mov	r5,zero
 20018fc:	a00d883a 	mov	r6,r20
 2001900:	000f883a 	mov	r7,zero
 2001904:	2001f780 	call	2001f78 <__muldi3>
 2001908:	dc400e17 	ldw	r17,56(sp)
 200190c:	9009883a 	mov	r4,r18
 2001910:	800d883a 	mov	r6,r16
 2001914:	000b883a 	mov	r5,zero
 2001918:	000f883a 	mov	r7,zero
 200191c:	102f883a 	mov	r23,r2
 2001920:	1827883a 	mov	r19,r3
 2001924:	2001f780 	call	2001f78 <__muldi3>
 2001928:	900d883a 	mov	r6,r18
 200192c:	8809883a 	mov	r4,r17
 2001930:	000b883a 	mov	r5,zero
 2001934:	000f883a 	mov	r7,zero
 2001938:	102b883a 	mov	r21,r2
 200193c:	1821883a 	mov	r16,r3
 2001940:	2001f780 	call	2001f78 <__muldi3>
 2001944:	8809883a 	mov	r4,r17
 2001948:	000b883a 	mov	r5,zero
 200194c:	a00d883a 	mov	r6,r20
 2001950:	000f883a 	mov	r7,zero
 2001954:	102d883a 	mov	r22,r2
 2001958:	1825883a 	mov	r18,r3
 200195c:	2001f780 	call	2001f78 <__muldi3>
 2001960:	154b883a 	add	r5,r2,r21
 2001964:	2889803a 	cmpltu	r4,r5,r2
 2001968:	1c07883a 	add	r3,r3,r16
 200196c:	20c9883a 	add	r4,r4,r3
 2001970:	24004b36 	bltu	r4,r16,2001aa0 <__muldf3+0x2b0>
 2001974:	8100011e 	bne	r16,r4,200197c <__muldf3+0x18c>
 2001978:	2d404936 	bltu	r5,r21,2001aa0 <__muldf3+0x2b0>
 200197c:	0011883a 	mov	r8,zero
 2001980:	0007883a 	mov	r3,zero
 2001984:	2ccb883a 	add	r5,r5,r19
 2001988:	b80d883a 	mov	r6,r23
 200198c:	2cc0012e 	bgeu	r5,r19,2001994 <__muldf3+0x1a4>
 2001990:	02000044 	movi	r8,1
 2001994:	258f883a 	add	r7,r4,r22
 2001998:	3909803a 	cmpltu	r4,r7,r4
 200199c:	da400c17 	ldw	r9,48(sp)
 20019a0:	2489883a 	add	r4,r4,r18
 20019a4:	d8800717 	ldw	r2,28(sp)
 20019a8:	20c9883a 	add	r4,r4,r3
 20019ac:	da800b17 	ldw	r10,44(sp)
 20019b0:	d8c00617 	ldw	r3,24(sp)
 20019b4:	3a11883a 	add	r8,r7,r8
 20019b8:	4885883a 	add	r2,r9,r2
 20019bc:	50c6c03a 	cmpne	r3,r10,r3
 20019c0:	41cf803a 	cmpltu	r7,r8,r7
 20019c4:	12400104 	addi	r9,r2,4
 20019c8:	d8c00115 	stw	r3,4(sp)
 20019cc:	3909883a 	add	r4,r7,r4
 20019d0:	da400215 	stw	r9,8(sp)
 20019d4:	03480034 	movhi	r13,8192
 20019d8:	6b7fffc4 	addi	r13,r13,-1
 20019dc:	4007883a 	mov	r3,r8
 20019e0:	6900102e 	bgeu	r13,r4,2001a24 <__muldf3+0x234>
 20019e4:	10800144 	addi	r2,r2,5
 20019e8:	180ed07a 	srli	r7,r3,1
 20019ec:	18c0004c 	andi	r3,r3,1
 20019f0:	201097fa 	slli	r8,r4,31
 20019f4:	281697fa 	slli	r11,r5,31
 20019f8:	2008d07a 	srli	r4,r4,1
 20019fc:	3014d07a 	srli	r10,r6,1
 2001a00:	2812d07a 	srli	r9,r5,1
 2001a04:	1019883a 	mov	r12,r2
 2001a08:	18000226 	beq	r3,zero,2001a14 <__muldf3+0x224>
 2001a0c:	5a8cb03a 	or	r6,r11,r10
 2001a10:	49600034 	orhi	r5,r9,32768
 2001a14:	41c6b03a 	or	r3,r8,r7
 2001a18:	10800044 	addi	r2,r2,1
 2001a1c:	693ff236 	bltu	r13,r4,20019e8 <__alt_mem_epcs_flash_controller+0xfdff89e8>
 2001a20:	db000215 	stw	r12,8(sp)
 2001a24:	03440034 	movhi	r13,4096
 2001a28:	6b7fffc4 	addi	r13,r13,-1
 2001a2c:	69001336 	bltu	r13,r4,2001a7c <__muldf3+0x28c>
 2001a30:	d8800217 	ldw	r2,8(sp)
 2001a34:	10bfffc4 	addi	r2,r2,-1
 2001a38:	18d3883a 	add	r9,r3,r3
 2001a3c:	48c7803a 	cmpltu	r3,r9,r3
 2001a40:	2109883a 	add	r4,r4,r4
 2001a44:	190f883a 	add	r7,r3,r4
 2001a48:	3191883a 	add	r8,r6,r6
 2001a4c:	4197803a 	cmpltu	r11,r8,r6
 2001a50:	2955883a 	add	r10,r5,r5
 2001a54:	1019883a 	mov	r12,r2
 2001a58:	4807883a 	mov	r3,r9
 2001a5c:	3809883a 	mov	r4,r7
 2001a60:	2800010e 	bge	r5,zero,2001a68 <__muldf3+0x278>
 2001a64:	48c00054 	ori	r3,r9,1
 2001a68:	400d883a 	mov	r6,r8
 2001a6c:	5a8b883a 	add	r5,r11,r10
 2001a70:	10bfffc4 	addi	r2,r2,-1
 2001a74:	69fff02e 	bgeu	r13,r7,2001a38 <__alt_mem_epcs_flash_controller+0xfdff8a38>
 2001a78:	db000215 	stw	r12,8(sp)
 2001a7c:	18803fcc 	andi	r2,r3,255
 2001a80:	01c02004 	movi	r7,128
 2001a84:	11c00926 	beq	r2,r7,2001aac <__muldf3+0x2bc>
 2001a88:	008000c4 	movi	r2,3
 2001a8c:	d9000415 	stw	r4,16(sp)
 2001a90:	d8c00315 	stw	r3,12(sp)
 2001a94:	d8800015 	stw	r2,0(sp)
 2001a98:	d809883a 	mov	r4,sp
 2001a9c:	003f7006 	br	2001860 <__alt_mem_epcs_flash_controller+0xfdff8860>
 2001aa0:	0011883a 	mov	r8,zero
 2001aa4:	00c00044 	movi	r3,1
 2001aa8:	003fb606 	br	2001984 <__alt_mem_epcs_flash_controller+0xfdff8984>
 2001aac:	19c0400c 	andi	r7,r3,256
 2001ab0:	383ff51e 	bne	r7,zero,2001a88 <__alt_mem_epcs_flash_controller+0xfdff8a88>
 2001ab4:	314ab03a 	or	r5,r6,r5
 2001ab8:	283ff326 	beq	r5,zero,2001a88 <__alt_mem_epcs_flash_controller+0xfdff8a88>
 2001abc:	1885883a 	add	r2,r3,r2
 2001ac0:	10cb803a 	cmpltu	r5,r2,r3
 2001ac4:	00ffc004 	movi	r3,-256
 2001ac8:	10c6703a 	and	r3,r2,r3
 2001acc:	2909883a 	add	r4,r5,r4
 2001ad0:	003fed06 	br	2001a88 <__alt_mem_epcs_flash_controller+0xfdff8a88>

02001ad4 <__divdf3>:
 2001ad4:	defff104 	addi	sp,sp,-60
 2001ad8:	d9000c15 	stw	r4,48(sp)
 2001adc:	d9400d15 	stw	r5,52(sp)
 2001ae0:	d9000c04 	addi	r4,sp,48
 2001ae4:	d9400504 	addi	r5,sp,20
 2001ae8:	dfc00e15 	stw	ra,56(sp)
 2001aec:	d9800a15 	stw	r6,40(sp)
 2001af0:	d9c00b15 	stw	r7,44(sp)
 2001af4:	20023580 	call	2002358 <__unpack_d>
 2001af8:	d9000a04 	addi	r4,sp,40
 2001afc:	d80b883a 	mov	r5,sp
 2001b00:	20023580 	call	2002358 <__unpack_d>
 2001b04:	d8c00517 	ldw	r3,20(sp)
 2001b08:	00800044 	movi	r2,1
 2001b0c:	10c00536 	bltu	r2,r3,2001b24 <__divdf3+0x50>
 2001b10:	d9000504 	addi	r4,sp,20
 2001b14:	20021340 	call	2002134 <__pack_d>
 2001b18:	dfc00e17 	ldw	ra,56(sp)
 2001b1c:	dec00f04 	addi	sp,sp,60
 2001b20:	f800283a 	ret
 2001b24:	d9000017 	ldw	r4,0(sp)
 2001b28:	11000536 	bltu	r2,r4,2001b40 <__divdf3+0x6c>
 2001b2c:	d809883a 	mov	r4,sp
 2001b30:	20021340 	call	2002134 <__pack_d>
 2001b34:	dfc00e17 	ldw	ra,56(sp)
 2001b38:	dec00f04 	addi	sp,sp,60
 2001b3c:	f800283a 	ret
 2001b40:	d9800617 	ldw	r6,24(sp)
 2001b44:	d9400117 	ldw	r5,4(sp)
 2001b48:	00800104 	movi	r2,4
 2001b4c:	314af03a 	xor	r5,r6,r5
 2001b50:	d9400615 	stw	r5,24(sp)
 2001b54:	18800226 	beq	r3,r2,2001b60 <__divdf3+0x8c>
 2001b58:	01400084 	movi	r5,2
 2001b5c:	1940041e 	bne	r3,r5,2001b70 <__divdf3+0x9c>
 2001b60:	193feb1e 	bne	r3,r4,2001b10 <__alt_mem_epcs_flash_controller+0xfdff8b10>
 2001b64:	01008234 	movhi	r4,520
 2001b68:	211b0a04 	addi	r4,r4,27688
 2001b6c:	003fe906 	br	2001b14 <__alt_mem_epcs_flash_controller+0xfdff8b14>
 2001b70:	20803326 	beq	r4,r2,2001c40 <__divdf3+0x16c>
 2001b74:	21403726 	beq	r4,r5,2001c54 <__divdf3+0x180>
 2001b78:	d8800217 	ldw	r2,8(sp)
 2001b7c:	d9000717 	ldw	r4,28(sp)
 2001b80:	d8c00917 	ldw	r3,36(sp)
 2001b84:	da000417 	ldw	r8,16(sp)
 2001b88:	2089c83a 	sub	r4,r4,r2
 2001b8c:	d9000715 	stw	r4,28(sp)
 2001b90:	d8800817 	ldw	r2,32(sp)
 2001b94:	dbc00317 	ldw	r15,12(sp)
 2001b98:	1a000236 	bltu	r3,r8,2001ba4 <__divdf3+0xd0>
 2001b9c:	40c0081e 	bne	r8,r3,2001bc0 <__divdf3+0xec>
 2001ba0:	13c0072e 	bgeu	r2,r15,2001bc0 <__divdf3+0xec>
 2001ba4:	108b883a 	add	r5,r2,r2
 2001ba8:	288d803a 	cmpltu	r6,r5,r2
 2001bac:	18c7883a 	add	r3,r3,r3
 2001bb0:	213fffc4 	addi	r4,r4,-1
 2001bb4:	2805883a 	mov	r2,r5
 2001bb8:	30c7883a 	add	r3,r6,r3
 2001bbc:	d9000715 	stw	r4,28(sp)
 2001bc0:	01400f44 	movi	r5,61
 2001bc4:	000f883a 	mov	r7,zero
 2001bc8:	01040034 	movhi	r4,4096
 2001bcc:	0019883a 	mov	r12,zero
 2001bd0:	001b883a 	mov	r13,zero
 2001bd4:	201697fa 	slli	r11,r4,31
 2001bd8:	3814d07a 	srli	r10,r7,1
 2001bdc:	297fffc4 	addi	r5,r5,-1
 2001be0:	1a000936 	bltu	r3,r8,2001c08 <__divdf3+0x134>
 2001be4:	13cdc83a 	sub	r6,r2,r15
 2001be8:	1193803a 	cmpltu	r9,r2,r6
 2001bec:	1a1dc83a 	sub	r14,r3,r8
 2001bf0:	40c0011e 	bne	r8,r3,2001bf8 <__divdf3+0x124>
 2001bf4:	13c00436 	bltu	r2,r15,2001c08 <__divdf3+0x134>
 2001bf8:	3005883a 	mov	r2,r6
 2001bfc:	7247c83a 	sub	r3,r14,r9
 2001c00:	61d8b03a 	or	r12,r12,r7
 2001c04:	691ab03a 	or	r13,r13,r4
 2001c08:	108d883a 	add	r6,r2,r2
 2001c0c:	3093803a 	cmpltu	r9,r6,r2
 2001c10:	18c7883a 	add	r3,r3,r3
 2001c14:	5a8eb03a 	or	r7,r11,r10
 2001c18:	2008d07a 	srli	r4,r4,1
 2001c1c:	3005883a 	mov	r2,r6
 2001c20:	48c7883a 	add	r3,r9,r3
 2001c24:	283feb1e 	bne	r5,zero,2001bd4 <__alt_mem_epcs_flash_controller+0xfdff8bd4>
 2001c28:	61003fcc 	andi	r4,r12,255
 2001c2c:	01402004 	movi	r5,128
 2001c30:	21400b26 	beq	r4,r5,2001c60 <__divdf3+0x18c>
 2001c34:	db000815 	stw	r12,32(sp)
 2001c38:	db400915 	stw	r13,36(sp)
 2001c3c:	003fb406 	br	2001b10 <__alt_mem_epcs_flash_controller+0xfdff8b10>
 2001c40:	d8000815 	stw	zero,32(sp)
 2001c44:	d8000915 	stw	zero,36(sp)
 2001c48:	d8000715 	stw	zero,28(sp)
 2001c4c:	d9000504 	addi	r4,sp,20
 2001c50:	003fb006 	br	2001b14 <__alt_mem_epcs_flash_controller+0xfdff8b14>
 2001c54:	d8800515 	stw	r2,20(sp)
 2001c58:	d9000504 	addi	r4,sp,20
 2001c5c:	003fad06 	br	2001b14 <__alt_mem_epcs_flash_controller+0xfdff8b14>
 2001c60:	6140400c 	andi	r5,r12,256
 2001c64:	283ff31e 	bne	r5,zero,2001c34 <__alt_mem_epcs_flash_controller+0xfdff8c34>
 2001c68:	30c4b03a 	or	r2,r6,r3
 2001c6c:	103ff126 	beq	r2,zero,2001c34 <__alt_mem_epcs_flash_controller+0xfdff8c34>
 2001c70:	6109883a 	add	r4,r12,r4
 2001c74:	2305803a 	cmpltu	r2,r4,r12
 2001c78:	033fc004 	movi	r12,-256
 2001c7c:	2318703a 	and	r12,r4,r12
 2001c80:	135b883a 	add	r13,r2,r13
 2001c84:	003feb06 	br	2001c34 <__alt_mem_epcs_flash_controller+0xfdff8c34>

02001c88 <__floatsidf>:
 2001c88:	2004d7fa 	srli	r2,r4,31
 2001c8c:	defff904 	addi	sp,sp,-28
 2001c90:	00c000c4 	movi	r3,3
 2001c94:	dfc00615 	stw	ra,24(sp)
 2001c98:	dc000515 	stw	r16,20(sp)
 2001c9c:	d8c00015 	stw	r3,0(sp)
 2001ca0:	d8800115 	stw	r2,4(sp)
 2001ca4:	2000081e 	bne	r4,zero,2001cc8 <__floatsidf+0x40>
 2001ca8:	00800084 	movi	r2,2
 2001cac:	d8800015 	stw	r2,0(sp)
 2001cb0:	d809883a 	mov	r4,sp
 2001cb4:	20021340 	call	2002134 <__pack_d>
 2001cb8:	dfc00617 	ldw	ra,24(sp)
 2001cbc:	dc000517 	ldw	r16,20(sp)
 2001cc0:	dec00704 	addi	sp,sp,28
 2001cc4:	f800283a 	ret
 2001cc8:	00c00f04 	movi	r3,60
 2001ccc:	d8c00215 	stw	r3,8(sp)
 2001cd0:	10000f1e 	bne	r2,zero,2001d10 <__floatsidf+0x88>
 2001cd4:	2021883a 	mov	r16,r4
 2001cd8:	8009883a 	mov	r4,r16
 2001cdc:	20020880 	call	2002088 <__clzsi2>
 2001ce0:	11000744 	addi	r4,r2,29
 2001ce4:	0100110e 	bge	zero,r4,2001d2c <__floatsidf+0xa4>
 2001ce8:	10ffff44 	addi	r3,r2,-3
 2001cec:	18001216 	blt	r3,zero,2001d38 <__floatsidf+0xb0>
 2001cf0:	80c6983a 	sll	r3,r16,r3
 2001cf4:	0009883a 	mov	r4,zero
 2001cf8:	014007c4 	movi	r5,31
 2001cfc:	2885c83a 	sub	r2,r5,r2
 2001d00:	d9000315 	stw	r4,12(sp)
 2001d04:	d8c00415 	stw	r3,16(sp)
 2001d08:	d8800215 	stw	r2,8(sp)
 2001d0c:	003fe806 	br	2001cb0 <__alt_mem_epcs_flash_controller+0xfdff8cb0>
 2001d10:	00a00034 	movhi	r2,32768
 2001d14:	20800e26 	beq	r4,r2,2001d50 <__floatsidf+0xc8>
 2001d18:	0121c83a 	sub	r16,zero,r4
 2001d1c:	8009883a 	mov	r4,r16
 2001d20:	20020880 	call	2002088 <__clzsi2>
 2001d24:	11000744 	addi	r4,r2,29
 2001d28:	013fef16 	blt	zero,r4,2001ce8 <__alt_mem_epcs_flash_controller+0xfdff8ce8>
 2001d2c:	dc000315 	stw	r16,12(sp)
 2001d30:	d8000415 	stw	zero,16(sp)
 2001d34:	003fde06 	br	2001cb0 <__alt_mem_epcs_flash_controller+0xfdff8cb0>
 2001d38:	800ad07a 	srli	r5,r16,1
 2001d3c:	00c007c4 	movi	r3,31
 2001d40:	1907c83a 	sub	r3,r3,r4
 2001d44:	28c6d83a 	srl	r3,r5,r3
 2001d48:	8108983a 	sll	r4,r16,r4
 2001d4c:	003fea06 	br	2001cf8 <__alt_mem_epcs_flash_controller+0xfdff8cf8>
 2001d50:	0005883a 	mov	r2,zero
 2001d54:	00f07834 	movhi	r3,49632
 2001d58:	003fd706 	br	2001cb8 <__alt_mem_epcs_flash_controller+0xfdff8cb8>

02001d5c <__fixdfsi>:
 2001d5c:	defff804 	addi	sp,sp,-32
 2001d60:	d9000515 	stw	r4,20(sp)
 2001d64:	d9400615 	stw	r5,24(sp)
 2001d68:	d9000504 	addi	r4,sp,20
 2001d6c:	d80b883a 	mov	r5,sp
 2001d70:	dfc00715 	stw	ra,28(sp)
 2001d74:	20023580 	call	2002358 <__unpack_d>
 2001d78:	d8800017 	ldw	r2,0(sp)
 2001d7c:	00c00084 	movi	r3,2
 2001d80:	10c01c26 	beq	r2,r3,2001df4 <__fixdfsi+0x98>
 2001d84:	00c00044 	movi	r3,1
 2001d88:	18801a2e 	bgeu	r3,r2,2001df4 <__fixdfsi+0x98>
 2001d8c:	00c00104 	movi	r3,4
 2001d90:	10c01126 	beq	r2,r3,2001dd8 <__fixdfsi+0x7c>
 2001d94:	d8800217 	ldw	r2,8(sp)
 2001d98:	10001616 	blt	r2,zero,2001df4 <__fixdfsi+0x98>
 2001d9c:	00c00784 	movi	r3,30
 2001da0:	18800d16 	blt	r3,r2,2001dd8 <__fixdfsi+0x7c>
 2001da4:	00c00f04 	movi	r3,60
 2001da8:	1885c83a 	sub	r2,r3,r2
 2001dac:	10fff804 	addi	r3,r2,-32
 2001db0:	d9400317 	ldw	r5,12(sp)
 2001db4:	d9000417 	ldw	r4,16(sp)
 2001db8:	18001216 	blt	r3,zero,2001e04 <__fixdfsi+0xa8>
 2001dbc:	20c4d83a 	srl	r2,r4,r3
 2001dc0:	d8c00117 	ldw	r3,4(sp)
 2001dc4:	18000826 	beq	r3,zero,2001de8 <__fixdfsi+0x8c>
 2001dc8:	0085c83a 	sub	r2,zero,r2
 2001dcc:	dfc00717 	ldw	ra,28(sp)
 2001dd0:	dec00804 	addi	sp,sp,32
 2001dd4:	f800283a 	ret
 2001dd8:	d8800117 	ldw	r2,4(sp)
 2001ddc:	00e00034 	movhi	r3,32768
 2001de0:	1005003a 	cmpeq	r2,r2,zero
 2001de4:	1885c83a 	sub	r2,r3,r2
 2001de8:	dfc00717 	ldw	ra,28(sp)
 2001dec:	dec00804 	addi	sp,sp,32
 2001df0:	f800283a 	ret
 2001df4:	0005883a 	mov	r2,zero
 2001df8:	dfc00717 	ldw	ra,28(sp)
 2001dfc:	dec00804 	addi	sp,sp,32
 2001e00:	f800283a 	ret
 2001e04:	2008907a 	slli	r4,r4,1
 2001e08:	018007c4 	movi	r6,31
 2001e0c:	308dc83a 	sub	r6,r6,r2
 2001e10:	2188983a 	sll	r4,r4,r6
 2001e14:	2884d83a 	srl	r2,r5,r2
 2001e18:	2084b03a 	or	r2,r4,r2
 2001e1c:	003fe806 	br	2001dc0 <__alt_mem_epcs_flash_controller+0xfdff8dc0>

02001e20 <udivmodsi4>:
 2001e20:	2005883a 	mov	r2,r4
 2001e24:	2900182e 	bgeu	r5,r4,2001e88 <udivmodsi4+0x68>
 2001e28:	28001716 	blt	r5,zero,2001e88 <udivmodsi4+0x68>
 2001e2c:	01000804 	movi	r4,32
 2001e30:	00c00044 	movi	r3,1
 2001e34:	00000206 	br	2001e40 <udivmodsi4+0x20>
 2001e38:	20001126 	beq	r4,zero,2001e80 <udivmodsi4+0x60>
 2001e3c:	28000516 	blt	r5,zero,2001e54 <udivmodsi4+0x34>
 2001e40:	294b883a 	add	r5,r5,r5
 2001e44:	213fffc4 	addi	r4,r4,-1
 2001e48:	18c7883a 	add	r3,r3,r3
 2001e4c:	28bffa36 	bltu	r5,r2,2001e38 <__alt_mem_epcs_flash_controller+0xfdff8e38>
 2001e50:	18000b26 	beq	r3,zero,2001e80 <udivmodsi4+0x60>
 2001e54:	0009883a 	mov	r4,zero
 2001e58:	11400236 	bltu	r2,r5,2001e64 <udivmodsi4+0x44>
 2001e5c:	1145c83a 	sub	r2,r2,r5
 2001e60:	20c8b03a 	or	r4,r4,r3
 2001e64:	1806d07a 	srli	r3,r3,1
 2001e68:	280ad07a 	srli	r5,r5,1
 2001e6c:	183ffa1e 	bne	r3,zero,2001e58 <__alt_mem_epcs_flash_controller+0xfdff8e58>
 2001e70:	3000021e 	bne	r6,zero,2001e7c <udivmodsi4+0x5c>
 2001e74:	2005883a 	mov	r2,r4
 2001e78:	f800283a 	ret
 2001e7c:	f800283a 	ret
 2001e80:	0009883a 	mov	r4,zero
 2001e84:	003ffa06 	br	2001e70 <__alt_mem_epcs_flash_controller+0xfdff8e70>
 2001e88:	00c00044 	movi	r3,1
 2001e8c:	0009883a 	mov	r4,zero
 2001e90:	003ff106 	br	2001e58 <__alt_mem_epcs_flash_controller+0xfdff8e58>

02001e94 <__divsi3>:
 2001e94:	defffe04 	addi	sp,sp,-8
 2001e98:	dfc00115 	stw	ra,4(sp)
 2001e9c:	dc000015 	stw	r16,0(sp)
 2001ea0:	20000a16 	blt	r4,zero,2001ecc <__divsi3+0x38>
 2001ea4:	0021883a 	mov	r16,zero
 2001ea8:	28000b16 	blt	r5,zero,2001ed8 <__divsi3+0x44>
 2001eac:	000d883a 	mov	r6,zero
 2001eb0:	2001e200 	call	2001e20 <udivmodsi4>
 2001eb4:	80000126 	beq	r16,zero,2001ebc <__divsi3+0x28>
 2001eb8:	0085c83a 	sub	r2,zero,r2
 2001ebc:	dfc00117 	ldw	ra,4(sp)
 2001ec0:	dc000017 	ldw	r16,0(sp)
 2001ec4:	dec00204 	addi	sp,sp,8
 2001ec8:	f800283a 	ret
 2001ecc:	0109c83a 	sub	r4,zero,r4
 2001ed0:	04000044 	movi	r16,1
 2001ed4:	283ff50e 	bge	r5,zero,2001eac <__alt_mem_epcs_flash_controller+0xfdff8eac>
 2001ed8:	014bc83a 	sub	r5,zero,r5
 2001edc:	8400005c 	xori	r16,r16,1
 2001ee0:	003ff206 	br	2001eac <__alt_mem_epcs_flash_controller+0xfdff8eac>

02001ee4 <__modsi3>:
 2001ee4:	deffff04 	addi	sp,sp,-4
 2001ee8:	dfc00015 	stw	ra,0(sp)
 2001eec:	20000516 	blt	r4,zero,2001f04 <__modsi3+0x20>
 2001ef0:	28000c16 	blt	r5,zero,2001f24 <__modsi3+0x40>
 2001ef4:	01800044 	movi	r6,1
 2001ef8:	dfc00017 	ldw	ra,0(sp)
 2001efc:	dec00104 	addi	sp,sp,4
 2001f00:	2001e201 	jmpi	2001e20 <udivmodsi4>
 2001f04:	0109c83a 	sub	r4,zero,r4
 2001f08:	28000b16 	blt	r5,zero,2001f38 <__modsi3+0x54>
 2001f0c:	01800044 	movi	r6,1
 2001f10:	2001e200 	call	2001e20 <udivmodsi4>
 2001f14:	0085c83a 	sub	r2,zero,r2
 2001f18:	dfc00017 	ldw	ra,0(sp)
 2001f1c:	dec00104 	addi	sp,sp,4
 2001f20:	f800283a 	ret
 2001f24:	014bc83a 	sub	r5,zero,r5
 2001f28:	01800044 	movi	r6,1
 2001f2c:	dfc00017 	ldw	ra,0(sp)
 2001f30:	dec00104 	addi	sp,sp,4
 2001f34:	2001e201 	jmpi	2001e20 <udivmodsi4>
 2001f38:	014bc83a 	sub	r5,zero,r5
 2001f3c:	003ff306 	br	2001f0c <__alt_mem_epcs_flash_controller+0xfdff8f0c>

02001f40 <__udivsi3>:
 2001f40:	000d883a 	mov	r6,zero
 2001f44:	2001e201 	jmpi	2001e20 <udivmodsi4>

02001f48 <__umodsi3>:
 2001f48:	01800044 	movi	r6,1
 2001f4c:	2001e201 	jmpi	2001e20 <udivmodsi4>

02001f50 <__mulsi3>:
 2001f50:	0005883a 	mov	r2,zero
 2001f54:	20000726 	beq	r4,zero,2001f74 <__mulsi3+0x24>
 2001f58:	20c0004c 	andi	r3,r4,1
 2001f5c:	2008d07a 	srli	r4,r4,1
 2001f60:	18000126 	beq	r3,zero,2001f68 <__mulsi3+0x18>
 2001f64:	1145883a 	add	r2,r2,r5
 2001f68:	294b883a 	add	r5,r5,r5
 2001f6c:	203ffa1e 	bne	r4,zero,2001f58 <__alt_mem_epcs_flash_controller+0xfdff8f58>
 2001f70:	f800283a 	ret
 2001f74:	f800283a 	ret

02001f78 <__muldi3>:
 2001f78:	defff604 	addi	sp,sp,-40
 2001f7c:	dd400515 	stw	r21,20(sp)
 2001f80:	dd000415 	stw	r20,16(sp)
 2001f84:	257fffcc 	andi	r21,r4,65535
 2001f88:	353fffcc 	andi	r20,r6,65535
 2001f8c:	dcc00315 	stw	r19,12(sp)
 2001f90:	3026d43a 	srli	r19,r6,16
 2001f94:	dd800615 	stw	r22,24(sp)
 2001f98:	dc800215 	stw	r18,8(sp)
 2001f9c:	dc400115 	stw	r17,4(sp)
 2001fa0:	2024d43a 	srli	r18,r4,16
 2001fa4:	2023883a 	mov	r17,r4
 2001fa8:	282d883a 	mov	r22,r5
 2001fac:	a009883a 	mov	r4,r20
 2001fb0:	a80b883a 	mov	r5,r21
 2001fb4:	dfc00915 	stw	ra,36(sp)
 2001fb8:	df000815 	stw	fp,32(sp)
 2001fbc:	ddc00715 	stw	r23,28(sp)
 2001fc0:	3839883a 	mov	fp,r7
 2001fc4:	dc000015 	stw	r16,0(sp)
 2001fc8:	3021883a 	mov	r16,r6
 2001fcc:	2001f500 	call	2001f50 <__mulsi3>
 2001fd0:	a80b883a 	mov	r5,r21
 2001fd4:	9809883a 	mov	r4,r19
 2001fd8:	102f883a 	mov	r23,r2
 2001fdc:	2001f500 	call	2001f50 <__mulsi3>
 2001fe0:	a009883a 	mov	r4,r20
 2001fe4:	900b883a 	mov	r5,r18
 2001fe8:	102b883a 	mov	r21,r2
 2001fec:	2001f500 	call	2001f50 <__mulsi3>
 2001ff0:	9809883a 	mov	r4,r19
 2001ff4:	900b883a 	mov	r5,r18
 2001ff8:	1029883a 	mov	r20,r2
 2001ffc:	2001f500 	call	2001f50 <__mulsi3>
 2002000:	1007883a 	mov	r3,r2
 2002004:	b804d43a 	srli	r2,r23,16
 2002008:	a549883a 	add	r4,r20,r21
 200200c:	2089883a 	add	r4,r4,r2
 2002010:	2500022e 	bgeu	r4,r20,200201c <__muldi3+0xa4>
 2002014:	00800074 	movhi	r2,1
 2002018:	1887883a 	add	r3,r3,r2
 200201c:	200cd43a 	srli	r6,r4,16
 2002020:	2004943a 	slli	r2,r4,16
 2002024:	e00b883a 	mov	r5,fp
 2002028:	8809883a 	mov	r4,r17
 200202c:	bdffffcc 	andi	r23,r23,65535
 2002030:	19a3883a 	add	r17,r3,r6
 2002034:	15ef883a 	add	r23,r2,r23
 2002038:	2001f500 	call	2001f50 <__mulsi3>
 200203c:	8009883a 	mov	r4,r16
 2002040:	b00b883a 	mov	r5,r22
 2002044:	1025883a 	mov	r18,r2
 2002048:	2001f500 	call	2001f50 <__mulsi3>
 200204c:	9085883a 	add	r2,r18,r2
 2002050:	1447883a 	add	r3,r2,r17
 2002054:	b805883a 	mov	r2,r23
 2002058:	dfc00917 	ldw	ra,36(sp)
 200205c:	df000817 	ldw	fp,32(sp)
 2002060:	ddc00717 	ldw	r23,28(sp)
 2002064:	dd800617 	ldw	r22,24(sp)
 2002068:	dd400517 	ldw	r21,20(sp)
 200206c:	dd000417 	ldw	r20,16(sp)
 2002070:	dcc00317 	ldw	r19,12(sp)
 2002074:	dc800217 	ldw	r18,8(sp)
 2002078:	dc400117 	ldw	r17,4(sp)
 200207c:	dc000017 	ldw	r16,0(sp)
 2002080:	dec00a04 	addi	sp,sp,40
 2002084:	f800283a 	ret

02002088 <__clzsi2>:
 2002088:	00bfffd4 	movui	r2,65535
 200208c:	11000b36 	bltu	r2,r4,20020bc <__clzsi2+0x34>
 2002090:	00803fc4 	movi	r2,255
 2002094:	11001e2e 	bgeu	r2,r4,2002110 <__clzsi2+0x88>
 2002098:	00c00204 	movi	r3,8
 200209c:	20c8d83a 	srl	r4,r4,r3
 20020a0:	00c08234 	movhi	r3,520
 20020a4:	18db0f04 	addi	r3,r3,27708
 20020a8:	00800604 	movi	r2,24
 20020ac:	1909883a 	add	r4,r3,r4
 20020b0:	20c00003 	ldbu	r3,0(r4)
 20020b4:	10c5c83a 	sub	r2,r2,r3
 20020b8:	f800283a 	ret
 20020bc:	00804034 	movhi	r2,256
 20020c0:	10bfffc4 	addi	r2,r2,-1
 20020c4:	11000936 	bltu	r2,r4,20020ec <__clzsi2+0x64>
 20020c8:	00800404 	movi	r2,16
 20020cc:	1007883a 	mov	r3,r2
 20020d0:	20c8d83a 	srl	r4,r4,r3
 20020d4:	00c08234 	movhi	r3,520
 20020d8:	18db0f04 	addi	r3,r3,27708
 20020dc:	1909883a 	add	r4,r3,r4
 20020e0:	20c00003 	ldbu	r3,0(r4)
 20020e4:	10c5c83a 	sub	r2,r2,r3
 20020e8:	f800283a 	ret
 20020ec:	00c00604 	movi	r3,24
 20020f0:	20c8d83a 	srl	r4,r4,r3
 20020f4:	00c08234 	movhi	r3,520
 20020f8:	18db0f04 	addi	r3,r3,27708
 20020fc:	00800204 	movi	r2,8
 2002100:	1909883a 	add	r4,r3,r4
 2002104:	20c00003 	ldbu	r3,0(r4)
 2002108:	10c5c83a 	sub	r2,r2,r3
 200210c:	f800283a 	ret
 2002110:	0007883a 	mov	r3,zero
 2002114:	20c8d83a 	srl	r4,r4,r3
 2002118:	00c08234 	movhi	r3,520
 200211c:	18db0f04 	addi	r3,r3,27708
 2002120:	00800804 	movi	r2,32
 2002124:	1909883a 	add	r4,r3,r4
 2002128:	20c00003 	ldbu	r3,0(r4)
 200212c:	10c5c83a 	sub	r2,r2,r3
 2002130:	f800283a 	ret

02002134 <__pack_d>:
 2002134:	20800017 	ldw	r2,0(r4)
 2002138:	defff804 	addi	sp,sp,-32
 200213c:	dcc00315 	stw	r19,12(sp)
 2002140:	dc800215 	stw	r18,8(sp)
 2002144:	dfc00715 	stw	ra,28(sp)
 2002148:	dd800615 	stw	r22,24(sp)
 200214c:	dd400515 	stw	r21,20(sp)
 2002150:	dd000415 	stw	r20,16(sp)
 2002154:	dc400115 	stw	r17,4(sp)
 2002158:	dc000015 	stw	r16,0(sp)
 200215c:	04800044 	movi	r18,1
 2002160:	24400317 	ldw	r17,12(r4)
 2002164:	24000417 	ldw	r16,16(r4)
 2002168:	24c00117 	ldw	r19,4(r4)
 200216c:	9080422e 	bgeu	r18,r2,2002278 <__pack_d+0x144>
 2002170:	00c00104 	movi	r3,4
 2002174:	10c03c26 	beq	r2,r3,2002268 <__pack_d+0x134>
 2002178:	00c00084 	movi	r3,2
 200217c:	10c01926 	beq	r2,r3,20021e4 <__pack_d+0xb0>
 2002180:	8c04b03a 	or	r2,r17,r16
 2002184:	10001726 	beq	r2,zero,20021e4 <__pack_d+0xb0>
 2002188:	21000217 	ldw	r4,8(r4)
 200218c:	00bf0084 	movi	r2,-1022
 2002190:	20804016 	blt	r4,r2,2002294 <__pack_d+0x160>
 2002194:	0080ffc4 	movi	r2,1023
 2002198:	11003316 	blt	r2,r4,2002268 <__pack_d+0x134>
 200219c:	88803fcc 	andi	r2,r17,255
 20021a0:	00c02004 	movi	r3,128
 20021a4:	10c02926 	beq	r2,r3,200224c <__pack_d+0x118>
 20021a8:	88801fc4 	addi	r2,r17,127
 20021ac:	1463803a 	cmpltu	r17,r2,r17
 20021b0:	8c21883a 	add	r16,r17,r16
 20021b4:	1023883a 	mov	r17,r2
 20021b8:	00880034 	movhi	r2,8192
 20021bc:	10bfffc4 	addi	r2,r2,-1
 20021c0:	14001c36 	bltu	r2,r16,2002234 <__pack_d+0x100>
 20021c4:	2100ffc4 	addi	r4,r4,1023
 20021c8:	8006963a 	slli	r3,r16,24
 20021cc:	8804d23a 	srli	r2,r17,8
 20021d0:	8020913a 	slli	r16,r16,4
 20021d4:	2101ffcc 	andi	r4,r4,2047
 20021d8:	1884b03a 	or	r2,r3,r2
 20021dc:	8020d33a 	srli	r16,r16,12
 20021e0:	00000306 	br	20021f0 <__pack_d+0xbc>
 20021e4:	0009883a 	mov	r4,zero
 20021e8:	0005883a 	mov	r2,zero
 20021ec:	0021883a 	mov	r16,zero
 20021f0:	2008953a 	slli	r4,r4,20
 20021f4:	982697fa 	slli	r19,r19,31
 20021f8:	00c00434 	movhi	r3,16
 20021fc:	18ffffc4 	addi	r3,r3,-1
 2002200:	80e0703a 	and	r16,r16,r3
 2002204:	8106b03a 	or	r3,r16,r4
 2002208:	1cc6b03a 	or	r3,r3,r19
 200220c:	dfc00717 	ldw	ra,28(sp)
 2002210:	dd800617 	ldw	r22,24(sp)
 2002214:	dd400517 	ldw	r21,20(sp)
 2002218:	dd000417 	ldw	r20,16(sp)
 200221c:	dcc00317 	ldw	r19,12(sp)
 2002220:	dc800217 	ldw	r18,8(sp)
 2002224:	dc400117 	ldw	r17,4(sp)
 2002228:	dc000017 	ldw	r16,0(sp)
 200222c:	dec00804 	addi	sp,sp,32
 2002230:	f800283a 	ret
 2002234:	800697fa 	slli	r3,r16,31
 2002238:	8804d07a 	srli	r2,r17,1
 200223c:	21010004 	addi	r4,r4,1024
 2002240:	8020d07a 	srli	r16,r16,1
 2002244:	18a2b03a 	or	r17,r3,r2
 2002248:	003fdf06 	br	20021c8 <__alt_mem_epcs_flash_controller+0xfdff91c8>
 200224c:	88c0400c 	andi	r3,r17,256
 2002250:	183fd926 	beq	r3,zero,20021b8 <__alt_mem_epcs_flash_controller+0xfdff91b8>
 2002254:	8885883a 	add	r2,r17,r2
 2002258:	1463803a 	cmpltu	r17,r2,r17
 200225c:	8c21883a 	add	r16,r17,r16
 2002260:	1023883a 	mov	r17,r2
 2002264:	003fd406 	br	20021b8 <__alt_mem_epcs_flash_controller+0xfdff91b8>
 2002268:	0101ffc4 	movi	r4,2047
 200226c:	0005883a 	mov	r2,zero
 2002270:	0021883a 	mov	r16,zero
 2002274:	003fde06 	br	20021f0 <__alt_mem_epcs_flash_controller+0xfdff91f0>
 2002278:	84000234 	orhi	r16,r16,8
 200227c:	00c00434 	movhi	r3,16
 2002280:	18ffffc4 	addi	r3,r3,-1
 2002284:	8805883a 	mov	r2,r17
 2002288:	80e0703a 	and	r16,r16,r3
 200228c:	0101ffc4 	movi	r4,2047
 2002290:	003fd706 	br	20021f0 <__alt_mem_epcs_flash_controller+0xfdff91f0>
 2002294:	1129c83a 	sub	r20,r2,r4
 2002298:	00800e04 	movi	r2,56
 200229c:	15002716 	blt	r2,r20,200233c <__pack_d+0x208>
 20022a0:	800b883a 	mov	r5,r16
 20022a4:	a00d883a 	mov	r6,r20
 20022a8:	8809883a 	mov	r4,r17
 20022ac:	200245c0 	call	200245c <__lshrdi3>
 20022b0:	9009883a 	mov	r4,r18
 20022b4:	000b883a 	mov	r5,zero
 20022b8:	a00d883a 	mov	r6,r20
 20022bc:	102d883a 	mov	r22,r2
 20022c0:	182b883a 	mov	r21,r3
 20022c4:	20024a00 	call	20024a0 <__ashldi3>
 20022c8:	1009003a 	cmpeq	r4,r2,zero
 20022cc:	1907c83a 	sub	r3,r3,r4
 20022d0:	10bfffc4 	addi	r2,r2,-1
 20022d4:	1c20703a 	and	r16,r3,r16
 20022d8:	1444703a 	and	r2,r2,r17
 20022dc:	1404b03a 	or	r2,r2,r16
 20022e0:	1004c03a 	cmpne	r2,r2,zero
 20022e4:	1584b03a 	or	r2,r2,r22
 20022e8:	11003fcc 	andi	r4,r2,255
 20022ec:	01402004 	movi	r5,128
 20022f0:	a807883a 	mov	r3,r21
 20022f4:	2140131e 	bne	r4,r5,2002344 <__pack_d+0x210>
 20022f8:	1140400c 	andi	r5,r2,256
 20022fc:	28000426 	beq	r5,zero,2002310 <__pack_d+0x1dc>
 2002300:	1109883a 	add	r4,r2,r4
 2002304:	2085803a 	cmpltu	r2,r4,r2
 2002308:	1547883a 	add	r3,r2,r21
 200230c:	2005883a 	mov	r2,r4
 2002310:	1808963a 	slli	r4,r3,24
 2002314:	1004d23a 	srli	r2,r2,8
 2002318:	1820913a 	slli	r16,r3,4
 200231c:	01440034 	movhi	r5,4096
 2002320:	297fffc4 	addi	r5,r5,-1
 2002324:	2084b03a 	or	r2,r4,r2
 2002328:	8020d33a 	srli	r16,r16,12
 200232c:	01000044 	movi	r4,1
 2002330:	28ffaf36 	bltu	r5,r3,20021f0 <__alt_mem_epcs_flash_controller+0xfdff91f0>
 2002334:	0009883a 	mov	r4,zero
 2002338:	003fad06 	br	20021f0 <__alt_mem_epcs_flash_controller+0xfdff91f0>
 200233c:	0005883a 	mov	r2,zero
 2002340:	0007883a 	mov	r3,zero
 2002344:	11001fc4 	addi	r4,r2,127
 2002348:	2085803a 	cmpltu	r2,r4,r2
 200234c:	10c7883a 	add	r3,r2,r3
 2002350:	2005883a 	mov	r2,r4
 2002354:	003fee06 	br	2002310 <__alt_mem_epcs_flash_controller+0xfdff9310>

02002358 <__unpack_d>:
 2002358:	21800117 	ldw	r6,4(r4)
 200235c:	20c00017 	ldw	r3,0(r4)
 2002360:	3004d7fa 	srli	r2,r6,31
 2002364:	3008d53a 	srli	r4,r6,20
 2002368:	28800115 	stw	r2,4(r5)
 200236c:	2101ffcc 	andi	r4,r4,2047
 2002370:	00800434 	movhi	r2,16
 2002374:	10bfffc4 	addi	r2,r2,-1
 2002378:	3084703a 	and	r2,r6,r2
 200237c:	20001a1e 	bne	r4,zero,20023e8 <__unpack_d+0x90>
 2002380:	1888b03a 	or	r4,r3,r2
 2002384:	20002626 	beq	r4,zero,2002420 <__unpack_d+0xc8>
 2002388:	1808d63a 	srli	r4,r3,24
 200238c:	1004923a 	slli	r2,r2,8
 2002390:	01bf0084 	movi	r6,-1022
 2002394:	29800215 	stw	r6,8(r5)
 2002398:	2084b03a 	or	r2,r4,r2
 200239c:	010000c4 	movi	r4,3
 20023a0:	29000015 	stw	r4,0(r5)
 20023a4:	02040034 	movhi	r8,4096
 20023a8:	423fffc4 	addi	r8,r8,-1
 20023ac:	1806923a 	slli	r3,r3,8
 20023b0:	40801836 	bltu	r8,r2,2002414 <__unpack_d+0xbc>
 20023b4:	013f0044 	movi	r4,-1023
 20023b8:	18cd883a 	add	r6,r3,r3
 20023bc:	30c7803a 	cmpltu	r3,r6,r3
 20023c0:	1085883a 	add	r2,r2,r2
 20023c4:	1885883a 	add	r2,r3,r2
 20023c8:	200f883a 	mov	r7,r4
 20023cc:	3007883a 	mov	r3,r6
 20023d0:	213fffc4 	addi	r4,r4,-1
 20023d4:	40bff82e 	bgeu	r8,r2,20023b8 <__alt_mem_epcs_flash_controller+0xfdff93b8>
 20023d8:	29c00215 	stw	r7,8(r5)
 20023dc:	28c00315 	stw	r3,12(r5)
 20023e0:	28800415 	stw	r2,16(r5)
 20023e4:	f800283a 	ret
 20023e8:	01c1ffc4 	movi	r7,2047
 20023ec:	21c00f26 	beq	r4,r7,200242c <__unpack_d+0xd4>
 20023f0:	180cd63a 	srli	r6,r3,24
 20023f4:	1004923a 	slli	r2,r2,8
 20023f8:	213f0044 	addi	r4,r4,-1023
 20023fc:	1806923a 	slli	r3,r3,8
 2002400:	3084b03a 	or	r2,r6,r2
 2002404:	29000215 	stw	r4,8(r5)
 2002408:	010000c4 	movi	r4,3
 200240c:	10840034 	orhi	r2,r2,4096
 2002410:	29000015 	stw	r4,0(r5)
 2002414:	28c00315 	stw	r3,12(r5)
 2002418:	28800415 	stw	r2,16(r5)
 200241c:	f800283a 	ret
 2002420:	00800084 	movi	r2,2
 2002424:	28800015 	stw	r2,0(r5)
 2002428:	f800283a 	ret
 200242c:	1888b03a 	or	r4,r3,r2
 2002430:	20000526 	beq	r4,zero,2002448 <__unpack_d+0xf0>
 2002434:	3180022c 	andhi	r6,r6,8
 2002438:	30000626 	beq	r6,zero,2002454 <__unpack_d+0xfc>
 200243c:	01000044 	movi	r4,1
 2002440:	29000015 	stw	r4,0(r5)
 2002444:	003ff306 	br	2002414 <__alt_mem_epcs_flash_controller+0xfdff9414>
 2002448:	00800104 	movi	r2,4
 200244c:	28800015 	stw	r2,0(r5)
 2002450:	f800283a 	ret
 2002454:	28000015 	stw	zero,0(r5)
 2002458:	003fee06 	br	2002414 <__alt_mem_epcs_flash_controller+0xfdff9414>

0200245c <__lshrdi3>:
 200245c:	2005883a 	mov	r2,r4
 2002460:	2807883a 	mov	r3,r5
 2002464:	30000826 	beq	r6,zero,2002488 <__lshrdi3+0x2c>
 2002468:	01000804 	movi	r4,32
 200246c:	2189c83a 	sub	r4,r4,r6
 2002470:	0100060e 	bge	zero,r4,200248c <__lshrdi3+0x30>
 2002474:	1184d83a 	srl	r2,r2,r6
 2002478:	2908983a 	sll	r4,r5,r4
 200247c:	298cd83a 	srl	r6,r5,r6
 2002480:	2084b03a 	or	r2,r4,r2
 2002484:	3007883a 	mov	r3,r6
 2002488:	f800283a 	ret
 200248c:	0105c83a 	sub	r2,zero,r4
 2002490:	000d883a 	mov	r6,zero
 2002494:	2884d83a 	srl	r2,r5,r2
 2002498:	3007883a 	mov	r3,r6
 200249c:	003ffa06 	br	2002488 <__alt_mem_epcs_flash_controller+0xfdff9488>

020024a0 <__ashldi3>:
 20024a0:	2005883a 	mov	r2,r4
 20024a4:	2807883a 	mov	r3,r5
 20024a8:	30000826 	beq	r6,zero,20024cc <__ashldi3+0x2c>
 20024ac:	01000804 	movi	r4,32
 20024b0:	2189c83a 	sub	r4,r4,r6
 20024b4:	0100060e 	bge	zero,r4,20024d0 <__ashldi3+0x30>
 20024b8:	1108d83a 	srl	r4,r2,r4
 20024bc:	2986983a 	sll	r3,r5,r6
 20024c0:	118c983a 	sll	r6,r2,r6
 20024c4:	20c6b03a 	or	r3,r4,r3
 20024c8:	3005883a 	mov	r2,r6
 20024cc:	f800283a 	ret
 20024d0:	0107c83a 	sub	r3,zero,r4
 20024d4:	000d883a 	mov	r6,zero
 20024d8:	10c6983a 	sll	r3,r2,r3
 20024dc:	3005883a 	mov	r2,r6
 20024e0:	003ffa06 	br	20024cc <__alt_mem_epcs_flash_controller+0xfdff94cc>

020024e4 <_fflush_r>:
 20024e4:	defffb04 	addi	sp,sp,-20
 20024e8:	dcc00315 	stw	r19,12(sp)
 20024ec:	dc400115 	stw	r17,4(sp)
 20024f0:	dfc00415 	stw	ra,16(sp)
 20024f4:	dc800215 	stw	r18,8(sp)
 20024f8:	dc000015 	stw	r16,0(sp)
 20024fc:	2027883a 	mov	r19,r4
 2002500:	2823883a 	mov	r17,r5
 2002504:	20000226 	beq	r4,zero,2002510 <_fflush_r+0x2c>
 2002508:	20800e17 	ldw	r2,56(r4)
 200250c:	10005726 	beq	r2,zero,200266c <_fflush_r+0x188>
 2002510:	8880030b 	ldhu	r2,12(r17)
 2002514:	10c0020c 	andi	r3,r2,8
 2002518:	18ffffcc 	andi	r3,r3,65535
 200251c:	18e0001c 	xori	r3,r3,32768
 2002520:	18e00004 	addi	r3,r3,-32768
 2002524:	1800311e 	bne	r3,zero,20025ec <_fflush_r+0x108>
 2002528:	89000117 	ldw	r4,4(r17)
 200252c:	10c20014 	ori	r3,r2,2048
 2002530:	88c0030d 	sth	r3,12(r17)
 2002534:	180b883a 	mov	r5,r3
 2002538:	0100520e 	bge	zero,r4,2002684 <_fflush_r+0x1a0>
 200253c:	88c00a17 	ldw	r3,40(r17)
 2002540:	18002226 	beq	r3,zero,20025cc <_fflush_r+0xe8>
 2002544:	1084000c 	andi	r2,r2,4096
 2002548:	10bfffcc 	andi	r2,r2,65535
 200254c:	10a0001c 	xori	r2,r2,32768
 2002550:	10a00004 	addi	r2,r2,-32768
 2002554:	10004e26 	beq	r2,zero,2002690 <_fflush_r+0x1ac>
 2002558:	8c001417 	ldw	r16,80(r17)
 200255c:	2940010c 	andi	r5,r5,4
 2002560:	297fffcc 	andi	r5,r5,65535
 2002564:	2960001c 	xori	r5,r5,32768
 2002568:	29600004 	addi	r5,r5,-32768
 200256c:	28000626 	beq	r5,zero,2002588 <_fflush_r+0xa4>
 2002570:	89000117 	ldw	r4,4(r17)
 2002574:	88800c17 	ldw	r2,48(r17)
 2002578:	8121c83a 	sub	r16,r16,r4
 200257c:	10000226 	beq	r2,zero,2002588 <_fflush_r+0xa4>
 2002580:	88800f17 	ldw	r2,60(r17)
 2002584:	80a1c83a 	sub	r16,r16,r2
 2002588:	89400717 	ldw	r5,28(r17)
 200258c:	9809883a 	mov	r4,r19
 2002590:	800d883a 	mov	r6,r16
 2002594:	000f883a 	mov	r7,zero
 2002598:	183ee83a 	callr	r3
 200259c:	8080281e 	bne	r16,r2,2002640 <_fflush_r+0x15c>
 20025a0:	8880030b 	ldhu	r2,12(r17)
 20025a4:	88c00417 	ldw	r3,16(r17)
 20025a8:	88000115 	stw	zero,4(r17)
 20025ac:	113dffcc 	andi	r4,r2,63487
 20025b0:	1084000c 	andi	r2,r2,4096
 20025b4:	10bfffcc 	andi	r2,r2,65535
 20025b8:	10a0001c 	xori	r2,r2,32768
 20025bc:	8900030d 	sth	r4,12(r17)
 20025c0:	88c00015 	stw	r3,0(r17)
 20025c4:	10a00004 	addi	r2,r2,-32768
 20025c8:	10002c1e 	bne	r2,zero,200267c <_fflush_r+0x198>
 20025cc:	0005883a 	mov	r2,zero
 20025d0:	dfc00417 	ldw	ra,16(sp)
 20025d4:	dcc00317 	ldw	r19,12(sp)
 20025d8:	dc800217 	ldw	r18,8(sp)
 20025dc:	dc400117 	ldw	r17,4(sp)
 20025e0:	dc000017 	ldw	r16,0(sp)
 20025e4:	dec00504 	addi	sp,sp,20
 20025e8:	f800283a 	ret
 20025ec:	8c800417 	ldw	r18,16(r17)
 20025f0:	903ff626 	beq	r18,zero,20025cc <__alt_mem_epcs_flash_controller+0xfdff95cc>
 20025f4:	8c000017 	ldw	r16,0(r17)
 20025f8:	108000cc 	andi	r2,r2,3
 20025fc:	8c800015 	stw	r18,0(r17)
 2002600:	84a1c83a 	sub	r16,r16,r18
 2002604:	10001b1e 	bne	r2,zero,2002674 <_fflush_r+0x190>
 2002608:	88800517 	ldw	r2,20(r17)
 200260c:	88800215 	stw	r2,8(r17)
 2002610:	04000316 	blt	zero,r16,2002620 <_fflush_r+0x13c>
 2002614:	003fed06 	br	20025cc <__alt_mem_epcs_flash_controller+0xfdff95cc>
 2002618:	90a5883a 	add	r18,r18,r2
 200261c:	043feb0e 	bge	zero,r16,20025cc <__alt_mem_epcs_flash_controller+0xfdff95cc>
 2002620:	88800917 	ldw	r2,36(r17)
 2002624:	89400717 	ldw	r5,28(r17)
 2002628:	800f883a 	mov	r7,r16
 200262c:	900d883a 	mov	r6,r18
 2002630:	9809883a 	mov	r4,r19
 2002634:	103ee83a 	callr	r2
 2002638:	80a1c83a 	sub	r16,r16,r2
 200263c:	00bff616 	blt	zero,r2,2002618 <__alt_mem_epcs_flash_controller+0xfdff9618>
 2002640:	88c0030b 	ldhu	r3,12(r17)
 2002644:	00bfffc4 	movi	r2,-1
 2002648:	18c01014 	ori	r3,r3,64
 200264c:	88c0030d 	sth	r3,12(r17)
 2002650:	dfc00417 	ldw	ra,16(sp)
 2002654:	dcc00317 	ldw	r19,12(sp)
 2002658:	dc800217 	ldw	r18,8(sp)
 200265c:	dc400117 	ldw	r17,4(sp)
 2002660:	dc000017 	ldw	r16,0(sp)
 2002664:	dec00504 	addi	sp,sp,20
 2002668:	f800283a 	ret
 200266c:	20027a00 	call	20027a0 <__sinit>
 2002670:	003fa706 	br	2002510 <__alt_mem_epcs_flash_controller+0xfdff9510>
 2002674:	0005883a 	mov	r2,zero
 2002678:	003fe406 	br	200260c <__alt_mem_epcs_flash_controller+0xfdff960c>
 200267c:	8c001415 	stw	r16,80(r17)
 2002680:	003fd206 	br	20025cc <__alt_mem_epcs_flash_controller+0xfdff95cc>
 2002684:	88c00f17 	ldw	r3,60(r17)
 2002688:	00ffac16 	blt	zero,r3,200253c <__alt_mem_epcs_flash_controller+0xfdff953c>
 200268c:	003fcf06 	br	20025cc <__alt_mem_epcs_flash_controller+0xfdff95cc>
 2002690:	89400717 	ldw	r5,28(r17)
 2002694:	9809883a 	mov	r4,r19
 2002698:	000d883a 	mov	r6,zero
 200269c:	01c00044 	movi	r7,1
 20026a0:	183ee83a 	callr	r3
 20026a4:	1021883a 	mov	r16,r2
 20026a8:	00bfffc4 	movi	r2,-1
 20026ac:	80800326 	beq	r16,r2,20026bc <_fflush_r+0x1d8>
 20026b0:	8940030b 	ldhu	r5,12(r17)
 20026b4:	88c00a17 	ldw	r3,40(r17)
 20026b8:	003fa806 	br	200255c <__alt_mem_epcs_flash_controller+0xfdff955c>
 20026bc:	98c00017 	ldw	r3,0(r19)
 20026c0:	00800744 	movi	r2,29
 20026c4:	18bfde1e 	bne	r3,r2,2002640 <__alt_mem_epcs_flash_controller+0xfdff9640>
 20026c8:	003fc006 	br	20025cc <__alt_mem_epcs_flash_controller+0xfdff95cc>

020026cc <fflush>:
 20026cc:	200b883a 	mov	r5,r4
 20026d0:	20000426 	beq	r4,zero,20026e4 <fflush+0x18>
 20026d4:	00808274 	movhi	r2,521
 20026d8:	10a3b704 	addi	r2,r2,-28964
 20026dc:	11000017 	ldw	r4,0(r2)
 20026e0:	20024e41 	jmpi	20024e4 <_fflush_r>
 20026e4:	00808274 	movhi	r2,521
 20026e8:	10a3b604 	addi	r2,r2,-28968
 20026ec:	11000017 	ldw	r4,0(r2)
 20026f0:	01408034 	movhi	r5,512
 20026f4:	29493904 	addi	r5,r5,9444
 20026f8:	2002a901 	jmpi	2002a90 <_fwalk_reent>

020026fc <__fp_lock>:
 20026fc:	0005883a 	mov	r2,zero
 2002700:	f800283a 	ret

02002704 <__fp_unlock>:
 2002704:	0005883a 	mov	r2,zero
 2002708:	f800283a 	ret

0200270c <_cleanup_r>:
 200270c:	01408074 	movhi	r5,513
 2002710:	29625e04 	addi	r5,r5,-30344
 2002714:	20029e81 	jmpi	20029e8 <_fwalk>

02002718 <__sfmoreglue>:
 2002718:	defffc04 	addi	sp,sp,-16
 200271c:	dc800215 	stw	r18,8(sp)
 2002720:	2825883a 	mov	r18,r5
 2002724:	dc000015 	stw	r16,0(sp)
 2002728:	01401704 	movi	r5,92
 200272c:	2021883a 	mov	r16,r4
 2002730:	9009883a 	mov	r4,r18
 2002734:	dfc00315 	stw	ra,12(sp)
 2002738:	dc400115 	stw	r17,4(sp)
 200273c:	2001f500 	call	2001f50 <__mulsi3>
 2002740:	8009883a 	mov	r4,r16
 2002744:	11400304 	addi	r5,r2,12
 2002748:	1023883a 	mov	r17,r2
 200274c:	2002b480 	call	2002b48 <_malloc_r>
 2002750:	1021883a 	mov	r16,r2
 2002754:	10000726 	beq	r2,zero,2002774 <__sfmoreglue+0x5c>
 2002758:	11000304 	addi	r4,r2,12
 200275c:	10000015 	stw	zero,0(r2)
 2002760:	14800115 	stw	r18,4(r2)
 2002764:	11000215 	stw	r4,8(r2)
 2002768:	000b883a 	mov	r5,zero
 200276c:	880d883a 	mov	r6,r17
 2002770:	20032cc0 	call	20032cc <memset>
 2002774:	8005883a 	mov	r2,r16
 2002778:	dfc00317 	ldw	ra,12(sp)
 200277c:	dc800217 	ldw	r18,8(sp)
 2002780:	dc400117 	ldw	r17,4(sp)
 2002784:	dc000017 	ldw	r16,0(sp)
 2002788:	dec00404 	addi	sp,sp,16
 200278c:	f800283a 	ret

02002790 <_cleanup>:
 2002790:	00808274 	movhi	r2,521
 2002794:	10a3b604 	addi	r2,r2,-28968
 2002798:	11000017 	ldw	r4,0(r2)
 200279c:	200270c1 	jmpi	200270c <_cleanup_r>

020027a0 <__sinit>:
 20027a0:	20800e17 	ldw	r2,56(r4)
 20027a4:	1000401e 	bne	r2,zero,20028a8 <__sinit+0x108>
 20027a8:	21400117 	ldw	r5,4(r4)
 20027ac:	01808034 	movhi	r6,512
 20027b0:	3189c304 	addi	r6,r6,9996
 20027b4:	20c00217 	ldw	r3,8(r4)
 20027b8:	21800f15 	stw	r6,60(r4)
 20027bc:	2080bb04 	addi	r2,r4,748
 20027c0:	02400044 	movi	r9,1
 20027c4:	018000c4 	movi	r6,3
 20027c8:	2180b915 	stw	r6,740(r4)
 20027cc:	2080ba15 	stw	r2,744(r4)
 20027d0:	22400e15 	stw	r9,56(r4)
 20027d4:	20800317 	ldw	r2,12(r4)
 20027d8:	2000b815 	stw	zero,736(r4)
 20027dc:	02008034 	movhi	r8,512
 20027e0:	420d5e04 	addi	r8,r8,13688
 20027e4:	01c08034 	movhi	r7,512
 20027e8:	39cd7304 	addi	r7,r7,13772
 20027ec:	01808034 	movhi	r6,512
 20027f0:	318d9504 	addi	r6,r6,13908
 20027f4:	01008034 	movhi	r4,512
 20027f8:	210dac04 	addi	r4,r4,14000
 20027fc:	02800104 	movi	r10,4
 2002800:	28000015 	stw	zero,0(r5)
 2002804:	28000115 	stw	zero,4(r5)
 2002808:	28000215 	stw	zero,8(r5)
 200280c:	2a80030d 	sth	r10,12(r5)
 2002810:	2800038d 	sth	zero,14(r5)
 2002814:	28000415 	stw	zero,16(r5)
 2002818:	28000515 	stw	zero,20(r5)
 200281c:	28000615 	stw	zero,24(r5)
 2002820:	29400715 	stw	r5,28(r5)
 2002824:	2a000815 	stw	r8,32(r5)
 2002828:	29c00915 	stw	r7,36(r5)
 200282c:	29800a15 	stw	r6,40(r5)
 2002830:	29000b15 	stw	r4,44(r5)
 2002834:	01400284 	movi	r5,10
 2002838:	18000015 	stw	zero,0(r3)
 200283c:	18000115 	stw	zero,4(r3)
 2002840:	18000215 	stw	zero,8(r3)
 2002844:	1940030d 	sth	r5,12(r3)
 2002848:	1a40038d 	sth	r9,14(r3)
 200284c:	18000415 	stw	zero,16(r3)
 2002850:	18000515 	stw	zero,20(r3)
 2002854:	18000615 	stw	zero,24(r3)
 2002858:	18c00715 	stw	r3,28(r3)
 200285c:	1a000815 	stw	r8,32(r3)
 2002860:	19c00915 	stw	r7,36(r3)
 2002864:	19800a15 	stw	r6,40(r3)
 2002868:	19000b15 	stw	r4,44(r3)
 200286c:	00c00484 	movi	r3,18
 2002870:	10c0030d 	sth	r3,12(r2)
 2002874:	00c00084 	movi	r3,2
 2002878:	10000015 	stw	zero,0(r2)
 200287c:	10000115 	stw	zero,4(r2)
 2002880:	10000215 	stw	zero,8(r2)
 2002884:	10c0038d 	sth	r3,14(r2)
 2002888:	10000415 	stw	zero,16(r2)
 200288c:	10000515 	stw	zero,20(r2)
 2002890:	10000615 	stw	zero,24(r2)
 2002894:	10800715 	stw	r2,28(r2)
 2002898:	12000815 	stw	r8,32(r2)
 200289c:	11c00915 	stw	r7,36(r2)
 20028a0:	11800a15 	stw	r6,40(r2)
 20028a4:	11000b15 	stw	r4,44(r2)
 20028a8:	f800283a 	ret

020028ac <__sfp>:
 20028ac:	defffc04 	addi	sp,sp,-16
 20028b0:	00808274 	movhi	r2,521
 20028b4:	10a3b604 	addi	r2,r2,-28968
 20028b8:	dc400115 	stw	r17,4(sp)
 20028bc:	14400017 	ldw	r17,0(r2)
 20028c0:	dc800215 	stw	r18,8(sp)
 20028c4:	dfc00315 	stw	ra,12(sp)
 20028c8:	88800e17 	ldw	r2,56(r17)
 20028cc:	dc000015 	stw	r16,0(sp)
 20028d0:	2025883a 	mov	r18,r4
 20028d4:	10002826 	beq	r2,zero,2002978 <__sfp+0xcc>
 20028d8:	8c40b804 	addi	r17,r17,736
 20028dc:	043fffc4 	movi	r16,-1
 20028e0:	89400117 	ldw	r5,4(r17)
 20028e4:	88800217 	ldw	r2,8(r17)
 20028e8:	297fffc4 	addi	r5,r5,-1
 20028ec:	28000a16 	blt	r5,zero,2002918 <__sfp+0x6c>
 20028f0:	10c0030f 	ldh	r3,12(r2)
 20028f4:	18000c26 	beq	r3,zero,2002928 <__sfp+0x7c>
 20028f8:	10c01a04 	addi	r3,r2,104
 20028fc:	00000206 	br	2002908 <__sfp+0x5c>
 2002900:	19bfe90f 	ldh	r6,-92(r3)
 2002904:	30000826 	beq	r6,zero,2002928 <__sfp+0x7c>
 2002908:	297fffc4 	addi	r5,r5,-1
 200290c:	18bffd04 	addi	r2,r3,-12
 2002910:	18c01704 	addi	r3,r3,92
 2002914:	2c3ffa1e 	bne	r5,r16,2002900 <__alt_mem_epcs_flash_controller+0xfdff9900>
 2002918:	88800017 	ldw	r2,0(r17)
 200291c:	10001926 	beq	r2,zero,2002984 <__sfp+0xd8>
 2002920:	1023883a 	mov	r17,r2
 2002924:	003fee06 	br	20028e0 <__alt_mem_epcs_flash_controller+0xfdff98e0>
 2002928:	00ffffc4 	movi	r3,-1
 200292c:	10c0038d 	sth	r3,14(r2)
 2002930:	00c00044 	movi	r3,1
 2002934:	10c0030d 	sth	r3,12(r2)
 2002938:	10000015 	stw	zero,0(r2)
 200293c:	10000215 	stw	zero,8(r2)
 2002940:	10000115 	stw	zero,4(r2)
 2002944:	10000415 	stw	zero,16(r2)
 2002948:	10000515 	stw	zero,20(r2)
 200294c:	10000615 	stw	zero,24(r2)
 2002950:	10000c15 	stw	zero,48(r2)
 2002954:	10000d15 	stw	zero,52(r2)
 2002958:	10001115 	stw	zero,68(r2)
 200295c:	10001215 	stw	zero,72(r2)
 2002960:	dfc00317 	ldw	ra,12(sp)
 2002964:	dc800217 	ldw	r18,8(sp)
 2002968:	dc400117 	ldw	r17,4(sp)
 200296c:	dc000017 	ldw	r16,0(sp)
 2002970:	dec00404 	addi	sp,sp,16
 2002974:	f800283a 	ret
 2002978:	8809883a 	mov	r4,r17
 200297c:	20027a00 	call	20027a0 <__sinit>
 2002980:	003fd506 	br	20028d8 <__alt_mem_epcs_flash_controller+0xfdff98d8>
 2002984:	9009883a 	mov	r4,r18
 2002988:	01400104 	movi	r5,4
 200298c:	20027180 	call	2002718 <__sfmoreglue>
 2002990:	88800015 	stw	r2,0(r17)
 2002994:	103fe21e 	bne	r2,zero,2002920 <__alt_mem_epcs_flash_controller+0xfdff9920>
 2002998:	00800304 	movi	r2,12
 200299c:	90800015 	stw	r2,0(r18)
 20029a0:	0005883a 	mov	r2,zero
 20029a4:	003fee06 	br	2002960 <__alt_mem_epcs_flash_controller+0xfdff9960>

020029a8 <__sfp_lock_acquire>:
 20029a8:	f800283a 	ret

020029ac <__sfp_lock_release>:
 20029ac:	f800283a 	ret

020029b0 <__sinit_lock_acquire>:
 20029b0:	f800283a 	ret

020029b4 <__sinit_lock_release>:
 20029b4:	f800283a 	ret

020029b8 <__fp_lock_all>:
 20029b8:	00808274 	movhi	r2,521
 20029bc:	10a3b704 	addi	r2,r2,-28964
 20029c0:	11000017 	ldw	r4,0(r2)
 20029c4:	01408034 	movhi	r5,512
 20029c8:	2949bf04 	addi	r5,r5,9980
 20029cc:	20029e81 	jmpi	20029e8 <_fwalk>

020029d0 <__fp_unlock_all>:
 20029d0:	00808274 	movhi	r2,521
 20029d4:	10a3b704 	addi	r2,r2,-28964
 20029d8:	11000017 	ldw	r4,0(r2)
 20029dc:	01408034 	movhi	r5,512
 20029e0:	2949c104 	addi	r5,r5,9988
 20029e4:	20029e81 	jmpi	20029e8 <_fwalk>

020029e8 <_fwalk>:
 20029e8:	defff904 	addi	sp,sp,-28
 20029ec:	dcc00315 	stw	r19,12(sp)
 20029f0:	24c0b804 	addi	r19,r4,736
 20029f4:	dd400515 	stw	r21,20(sp)
 20029f8:	dd000415 	stw	r20,16(sp)
 20029fc:	dfc00615 	stw	ra,24(sp)
 2002a00:	dc800215 	stw	r18,8(sp)
 2002a04:	dc400115 	stw	r17,4(sp)
 2002a08:	dc000015 	stw	r16,0(sp)
 2002a0c:	282b883a 	mov	r21,r5
 2002a10:	0029883a 	mov	r20,zero
 2002a14:	20029a80 	call	20029a8 <__sfp_lock_acquire>
 2002a18:	98001226 	beq	r19,zero,2002a64 <_fwalk+0x7c>
 2002a1c:	04bfffc4 	movi	r18,-1
 2002a20:	9c400117 	ldw	r17,4(r19)
 2002a24:	9c000217 	ldw	r16,8(r19)
 2002a28:	8c7fffc4 	addi	r17,r17,-1
 2002a2c:	88000b16 	blt	r17,zero,2002a5c <_fwalk+0x74>
 2002a30:	84000304 	addi	r16,r16,12
 2002a34:	80c0000f 	ldh	r3,0(r16)
 2002a38:	8c7fffc4 	addi	r17,r17,-1
 2002a3c:	813ffd04 	addi	r4,r16,-12
 2002a40:	18000426 	beq	r3,zero,2002a54 <_fwalk+0x6c>
 2002a44:	80c0008f 	ldh	r3,2(r16)
 2002a48:	1c800226 	beq	r3,r18,2002a54 <_fwalk+0x6c>
 2002a4c:	a83ee83a 	callr	r21
 2002a50:	a0a8b03a 	or	r20,r20,r2
 2002a54:	84001704 	addi	r16,r16,92
 2002a58:	8cbff61e 	bne	r17,r18,2002a34 <__alt_mem_epcs_flash_controller+0xfdff9a34>
 2002a5c:	9cc00017 	ldw	r19,0(r19)
 2002a60:	983fef1e 	bne	r19,zero,2002a20 <__alt_mem_epcs_flash_controller+0xfdff9a20>
 2002a64:	20029ac0 	call	20029ac <__sfp_lock_release>
 2002a68:	a005883a 	mov	r2,r20
 2002a6c:	dfc00617 	ldw	ra,24(sp)
 2002a70:	dd400517 	ldw	r21,20(sp)
 2002a74:	dd000417 	ldw	r20,16(sp)
 2002a78:	dcc00317 	ldw	r19,12(sp)
 2002a7c:	dc800217 	ldw	r18,8(sp)
 2002a80:	dc400117 	ldw	r17,4(sp)
 2002a84:	dc000017 	ldw	r16,0(sp)
 2002a88:	dec00704 	addi	sp,sp,28
 2002a8c:	f800283a 	ret

02002a90 <_fwalk_reent>:
 2002a90:	defff804 	addi	sp,sp,-32
 2002a94:	dcc00315 	stw	r19,12(sp)
 2002a98:	24c0b804 	addi	r19,r4,736
 2002a9c:	dd800615 	stw	r22,24(sp)
 2002aa0:	dd400515 	stw	r21,20(sp)
 2002aa4:	dd000415 	stw	r20,16(sp)
 2002aa8:	dfc00715 	stw	ra,28(sp)
 2002aac:	dc800215 	stw	r18,8(sp)
 2002ab0:	dc400115 	stw	r17,4(sp)
 2002ab4:	dc000015 	stw	r16,0(sp)
 2002ab8:	2029883a 	mov	r20,r4
 2002abc:	282b883a 	mov	r21,r5
 2002ac0:	002d883a 	mov	r22,zero
 2002ac4:	20029a80 	call	20029a8 <__sfp_lock_acquire>
 2002ac8:	98001326 	beq	r19,zero,2002b18 <_fwalk_reent+0x88>
 2002acc:	04bfffc4 	movi	r18,-1
 2002ad0:	9c400117 	ldw	r17,4(r19)
 2002ad4:	9c000217 	ldw	r16,8(r19)
 2002ad8:	8c7fffc4 	addi	r17,r17,-1
 2002adc:	88000c16 	blt	r17,zero,2002b10 <_fwalk_reent+0x80>
 2002ae0:	84000304 	addi	r16,r16,12
 2002ae4:	80c0000f 	ldh	r3,0(r16)
 2002ae8:	8c7fffc4 	addi	r17,r17,-1
 2002aec:	817ffd04 	addi	r5,r16,-12
 2002af0:	18000526 	beq	r3,zero,2002b08 <_fwalk_reent+0x78>
 2002af4:	80c0008f 	ldh	r3,2(r16)
 2002af8:	a009883a 	mov	r4,r20
 2002afc:	1c800226 	beq	r3,r18,2002b08 <_fwalk_reent+0x78>
 2002b00:	a83ee83a 	callr	r21
 2002b04:	b0acb03a 	or	r22,r22,r2
 2002b08:	84001704 	addi	r16,r16,92
 2002b0c:	8cbff51e 	bne	r17,r18,2002ae4 <__alt_mem_epcs_flash_controller+0xfdff9ae4>
 2002b10:	9cc00017 	ldw	r19,0(r19)
 2002b14:	983fee1e 	bne	r19,zero,2002ad0 <__alt_mem_epcs_flash_controller+0xfdff9ad0>
 2002b18:	20029ac0 	call	20029ac <__sfp_lock_release>
 2002b1c:	b005883a 	mov	r2,r22
 2002b20:	dfc00717 	ldw	ra,28(sp)
 2002b24:	dd800617 	ldw	r22,24(sp)
 2002b28:	dd400517 	ldw	r21,20(sp)
 2002b2c:	dd000417 	ldw	r20,16(sp)
 2002b30:	dcc00317 	ldw	r19,12(sp)
 2002b34:	dc800217 	ldw	r18,8(sp)
 2002b38:	dc400117 	ldw	r17,4(sp)
 2002b3c:	dc000017 	ldw	r16,0(sp)
 2002b40:	dec00804 	addi	sp,sp,32
 2002b44:	f800283a 	ret

02002b48 <_malloc_r>:
 2002b48:	defff604 	addi	sp,sp,-40
 2002b4c:	dc800215 	stw	r18,8(sp)
 2002b50:	dfc00915 	stw	ra,36(sp)
 2002b54:	df000815 	stw	fp,32(sp)
 2002b58:	ddc00715 	stw	r23,28(sp)
 2002b5c:	dd800615 	stw	r22,24(sp)
 2002b60:	dd400515 	stw	r21,20(sp)
 2002b64:	dd000415 	stw	r20,16(sp)
 2002b68:	dcc00315 	stw	r19,12(sp)
 2002b6c:	dc400115 	stw	r17,4(sp)
 2002b70:	dc000015 	stw	r16,0(sp)
 2002b74:	288002c4 	addi	r2,r5,11
 2002b78:	00c00584 	movi	r3,22
 2002b7c:	2025883a 	mov	r18,r4
 2002b80:	18802b2e 	bgeu	r3,r2,2002c30 <_malloc_r+0xe8>
 2002b84:	047ffe04 	movi	r17,-8
 2002b88:	1462703a 	and	r17,r2,r17
 2002b8c:	88002a16 	blt	r17,zero,2002c38 <_malloc_r+0xf0>
 2002b90:	89402936 	bltu	r17,r5,2002c38 <_malloc_r+0xf0>
 2002b94:	9009883a 	mov	r4,r18
 2002b98:	2010b0c0 	call	2010b0c <__malloc_lock>
 2002b9c:	00807dc4 	movi	r2,503
 2002ba0:	14402936 	bltu	r2,r17,2002c48 <_malloc_r+0x100>
 2002ba4:	8808d0fa 	srli	r4,r17,3
 2002ba8:	04c08234 	movhi	r19,520
 2002bac:	9cddf304 	addi	r19,r19,30668
 2002bb0:	2105883a 	add	r2,r4,r4
 2002bb4:	1085883a 	add	r2,r2,r2
 2002bb8:	1085883a 	add	r2,r2,r2
 2002bbc:	9885883a 	add	r2,r19,r2
 2002bc0:	14000317 	ldw	r16,12(r2)
 2002bc4:	80815526 	beq	r16,r2,200311c <_malloc_r+0x5d4>
 2002bc8:	81000117 	ldw	r4,4(r16)
 2002bcc:	00bfff04 	movi	r2,-4
 2002bd0:	80c00317 	ldw	r3,12(r16)
 2002bd4:	2084703a 	and	r2,r4,r2
 2002bd8:	8085883a 	add	r2,r16,r2
 2002bdc:	11800117 	ldw	r6,4(r2)
 2002be0:	81400217 	ldw	r5,8(r16)
 2002be4:	9009883a 	mov	r4,r18
 2002be8:	31800054 	ori	r6,r6,1
 2002bec:	11800115 	stw	r6,4(r2)
 2002bf0:	28c00315 	stw	r3,12(r5)
 2002bf4:	19400215 	stw	r5,8(r3)
 2002bf8:	2010b2c0 	call	2010b2c <__malloc_unlock>
 2002bfc:	80800204 	addi	r2,r16,8
 2002c00:	dfc00917 	ldw	ra,36(sp)
 2002c04:	df000817 	ldw	fp,32(sp)
 2002c08:	ddc00717 	ldw	r23,28(sp)
 2002c0c:	dd800617 	ldw	r22,24(sp)
 2002c10:	dd400517 	ldw	r21,20(sp)
 2002c14:	dd000417 	ldw	r20,16(sp)
 2002c18:	dcc00317 	ldw	r19,12(sp)
 2002c1c:	dc800217 	ldw	r18,8(sp)
 2002c20:	dc400117 	ldw	r17,4(sp)
 2002c24:	dc000017 	ldw	r16,0(sp)
 2002c28:	dec00a04 	addi	sp,sp,40
 2002c2c:	f800283a 	ret
 2002c30:	04400404 	movi	r17,16
 2002c34:	897fd72e 	bgeu	r17,r5,2002b94 <__alt_mem_epcs_flash_controller+0xfdff9b94>
 2002c38:	00800304 	movi	r2,12
 2002c3c:	90800015 	stw	r2,0(r18)
 2002c40:	0005883a 	mov	r2,zero
 2002c44:	003fee06 	br	2002c00 <__alt_mem_epcs_flash_controller+0xfdff9c00>
 2002c48:	8808d27a 	srli	r4,r17,9
 2002c4c:	20007126 	beq	r4,zero,2002e14 <_malloc_r+0x2cc>
 2002c50:	00800104 	movi	r2,4
 2002c54:	1100eb36 	bltu	r2,r4,2003004 <_malloc_r+0x4bc>
 2002c58:	8808d1ba 	srli	r4,r17,6
 2002c5c:	21000e04 	addi	r4,r4,56
 2002c60:	210b883a 	add	r5,r4,r4
 2002c64:	294b883a 	add	r5,r5,r5
 2002c68:	294b883a 	add	r5,r5,r5
 2002c6c:	04c08234 	movhi	r19,520
 2002c70:	9cddf304 	addi	r19,r19,30668
 2002c74:	994b883a 	add	r5,r19,r5
 2002c78:	2c000317 	ldw	r16,12(r5)
 2002c7c:	2c000e26 	beq	r5,r16,2002cb8 <_malloc_r+0x170>
 2002c80:	80c00117 	ldw	r3,4(r16)
 2002c84:	01ffff04 	movi	r7,-4
 2002c88:	018003c4 	movi	r6,15
 2002c8c:	19c6703a 	and	r3,r3,r7
 2002c90:	1c45c83a 	sub	r2,r3,r17
 2002c94:	30800716 	blt	r6,r2,2002cb4 <_malloc_r+0x16c>
 2002c98:	1000610e 	bge	r2,zero,2002e20 <_malloc_r+0x2d8>
 2002c9c:	84000317 	ldw	r16,12(r16)
 2002ca0:	2c000526 	beq	r5,r16,2002cb8 <_malloc_r+0x170>
 2002ca4:	80c00117 	ldw	r3,4(r16)
 2002ca8:	19c6703a 	and	r3,r3,r7
 2002cac:	1c45c83a 	sub	r2,r3,r17
 2002cb0:	30bff90e 	bge	r6,r2,2002c98 <__alt_mem_epcs_flash_controller+0xfdff9c98>
 2002cb4:	213fffc4 	addi	r4,r4,-1
 2002cb8:	21000044 	addi	r4,r4,1
 2002cbc:	9c000417 	ldw	r16,16(r19)
 2002cc0:	00c08234 	movhi	r3,520
 2002cc4:	18ddf304 	addi	r3,r3,30668
 2002cc8:	1a400204 	addi	r9,r3,8
 2002ccc:	8240ff26 	beq	r16,r9,20030cc <_malloc_r+0x584>
 2002cd0:	81400117 	ldw	r5,4(r16)
 2002cd4:	00bfff04 	movi	r2,-4
 2002cd8:	018003c4 	movi	r6,15
 2002cdc:	2884703a 	and	r2,r5,r2
 2002ce0:	144bc83a 	sub	r5,r2,r17
 2002ce4:	3140ea16 	blt	r6,r5,2003090 <_malloc_r+0x548>
 2002ce8:	1a400515 	stw	r9,20(r3)
 2002cec:	1a400415 	stw	r9,16(r3)
 2002cf0:	2800570e 	bge	r5,zero,2002e50 <_malloc_r+0x308>
 2002cf4:	01407fc4 	movi	r5,511
 2002cf8:	2880ca36 	bltu	r5,r2,2003024 <_malloc_r+0x4dc>
 2002cfc:	1004d0fa 	srli	r2,r2,3
 2002d00:	02000044 	movi	r8,1
 2002d04:	19c00117 	ldw	r7,4(r3)
 2002d08:	108b883a 	add	r5,r2,r2
 2002d0c:	294b883a 	add	r5,r5,r5
 2002d10:	1005d0ba 	srai	r2,r2,2
 2002d14:	294b883a 	add	r5,r5,r5
 2002d18:	28cb883a 	add	r5,r5,r3
 2002d1c:	29800217 	ldw	r6,8(r5)
 2002d20:	4084983a 	sll	r2,r8,r2
 2002d24:	81400315 	stw	r5,12(r16)
 2002d28:	81800215 	stw	r6,8(r16)
 2002d2c:	11c4b03a 	or	r2,r2,r7
 2002d30:	18800115 	stw	r2,4(r3)
 2002d34:	2c000215 	stw	r16,8(r5)
 2002d38:	34000315 	stw	r16,12(r6)
 2002d3c:	200bd0ba 	srai	r5,r4,2
 2002d40:	00c00044 	movi	r3,1
 2002d44:	194a983a 	sll	r5,r3,r5
 2002d48:	11404936 	bltu	r2,r5,2002e70 <_malloc_r+0x328>
 2002d4c:	1146703a 	and	r3,r2,r5
 2002d50:	18000a1e 	bne	r3,zero,2002d7c <_malloc_r+0x234>
 2002d54:	00ffff04 	movi	r3,-4
 2002d58:	294b883a 	add	r5,r5,r5
 2002d5c:	20c8703a 	and	r4,r4,r3
 2002d60:	1146703a 	and	r3,r2,r5
 2002d64:	21000104 	addi	r4,r4,4
 2002d68:	1800041e 	bne	r3,zero,2002d7c <_malloc_r+0x234>
 2002d6c:	294b883a 	add	r5,r5,r5
 2002d70:	1146703a 	and	r3,r2,r5
 2002d74:	21000104 	addi	r4,r4,4
 2002d78:	183ffc26 	beq	r3,zero,2002d6c <__alt_mem_epcs_flash_controller+0xfdff9d6c>
 2002d7c:	023fff04 	movi	r8,-4
 2002d80:	01c003c4 	movi	r7,15
 2002d84:	2105883a 	add	r2,r4,r4
 2002d88:	1085883a 	add	r2,r2,r2
 2002d8c:	1085883a 	add	r2,r2,r2
 2002d90:	9899883a 	add	r12,r19,r2
 2002d94:	62800304 	addi	r10,r12,12
 2002d98:	2017883a 	mov	r11,r4
 2002d9c:	54000017 	ldw	r16,0(r10)
 2002da0:	51bffd04 	addi	r6,r10,-12
 2002da4:	8180041e 	bne	r16,r6,2002db8 <_malloc_r+0x270>
 2002da8:	0000ca06 	br	20030d4 <_malloc_r+0x58c>
 2002dac:	10001c0e 	bge	r2,zero,2002e20 <_malloc_r+0x2d8>
 2002db0:	84000317 	ldw	r16,12(r16)
 2002db4:	8180c726 	beq	r16,r6,20030d4 <_malloc_r+0x58c>
 2002db8:	80c00117 	ldw	r3,4(r16)
 2002dbc:	1a06703a 	and	r3,r3,r8
 2002dc0:	1c45c83a 	sub	r2,r3,r17
 2002dc4:	38bff90e 	bge	r7,r2,2002dac <__alt_mem_epcs_flash_controller+0xfdff9dac>
 2002dc8:	81000317 	ldw	r4,12(r16)
 2002dcc:	81400217 	ldw	r5,8(r16)
 2002dd0:	8447883a 	add	r3,r16,r17
 2002dd4:	8c400054 	ori	r17,r17,1
 2002dd8:	29000315 	stw	r4,12(r5)
 2002ddc:	21400215 	stw	r5,8(r4)
 2002de0:	84400115 	stw	r17,4(r16)
 2002de4:	1889883a 	add	r4,r3,r2
 2002de8:	11400054 	ori	r5,r2,1
 2002dec:	98c00515 	stw	r3,20(r19)
 2002df0:	98c00415 	stw	r3,16(r19)
 2002df4:	20800015 	stw	r2,0(r4)
 2002df8:	1a400315 	stw	r9,12(r3)
 2002dfc:	1a400215 	stw	r9,8(r3)
 2002e00:	19400115 	stw	r5,4(r3)
 2002e04:	9009883a 	mov	r4,r18
 2002e08:	2010b2c0 	call	2010b2c <__malloc_unlock>
 2002e0c:	80800204 	addi	r2,r16,8
 2002e10:	003f7b06 	br	2002c00 <__alt_mem_epcs_flash_controller+0xfdff9c00>
 2002e14:	8808d0fa 	srli	r4,r17,3
 2002e18:	210b883a 	add	r5,r4,r4
 2002e1c:	003f9106 	br	2002c64 <__alt_mem_epcs_flash_controller+0xfdff9c64>
 2002e20:	80c7883a 	add	r3,r16,r3
 2002e24:	19400117 	ldw	r5,4(r3)
 2002e28:	80800317 	ldw	r2,12(r16)
 2002e2c:	81000217 	ldw	r4,8(r16)
 2002e30:	29400054 	ori	r5,r5,1
 2002e34:	19400115 	stw	r5,4(r3)
 2002e38:	20800315 	stw	r2,12(r4)
 2002e3c:	11000215 	stw	r4,8(r2)
 2002e40:	9009883a 	mov	r4,r18
 2002e44:	2010b2c0 	call	2010b2c <__malloc_unlock>
 2002e48:	80800204 	addi	r2,r16,8
 2002e4c:	003f6c06 	br	2002c00 <__alt_mem_epcs_flash_controller+0xfdff9c00>
 2002e50:	8085883a 	add	r2,r16,r2
 2002e54:	10c00117 	ldw	r3,4(r2)
 2002e58:	9009883a 	mov	r4,r18
 2002e5c:	18c00054 	ori	r3,r3,1
 2002e60:	10c00115 	stw	r3,4(r2)
 2002e64:	2010b2c0 	call	2010b2c <__malloc_unlock>
 2002e68:	80800204 	addi	r2,r16,8
 2002e6c:	003f6406 	br	2002c00 <__alt_mem_epcs_flash_controller+0xfdff9c00>
 2002e70:	9c000217 	ldw	r16,8(r19)
 2002e74:	00bfff04 	movi	r2,-4
 2002e78:	85400117 	ldw	r21,4(r16)
 2002e7c:	a8aa703a 	and	r21,r21,r2
 2002e80:	ac400336 	bltu	r21,r17,2002e90 <_malloc_r+0x348>
 2002e84:	ac45c83a 	sub	r2,r21,r17
 2002e88:	00c003c4 	movi	r3,15
 2002e8c:	18805316 	blt	r3,r2,2002fdc <_malloc_r+0x494>
 2002e90:	d5e74417 	ldw	r23,-25328(gp)
 2002e94:	d0e00217 	ldw	r3,-32760(gp)
 2002e98:	00bfffc4 	movi	r2,-1
 2002e9c:	8579883a 	add	fp,r16,r21
 2002ea0:	8def883a 	add	r23,r17,r23
 2002ea4:	1880d226 	beq	r3,r2,20031f0 <_malloc_r+0x6a8>
 2002ea8:	bdc403c4 	addi	r23,r23,4111
 2002eac:	00bc0004 	movi	r2,-4096
 2002eb0:	b8ae703a 	and	r23,r23,r2
 2002eb4:	9009883a 	mov	r4,r18
 2002eb8:	b80b883a 	mov	r5,r23
 2002ebc:	20034a80 	call	20034a8 <_sbrk_r>
 2002ec0:	1029883a 	mov	r20,r2
 2002ec4:	00bfffc4 	movi	r2,-1
 2002ec8:	a080d126 	beq	r20,r2,2003210 <_malloc_r+0x6c8>
 2002ecc:	a7009f36 	bltu	r20,fp,200314c <_malloc_r+0x604>
 2002ed0:	05808274 	movhi	r22,521
 2002ed4:	b5ab0d04 	addi	r22,r22,-21452
 2002ed8:	b0800017 	ldw	r2,0(r22)
 2002edc:	b885883a 	add	r2,r23,r2
 2002ee0:	b0800015 	stw	r2,0(r22)
 2002ee4:	e500cf26 	beq	fp,r20,2003224 <_malloc_r+0x6dc>
 2002ee8:	d1200217 	ldw	r4,-32760(gp)
 2002eec:	00ffffc4 	movi	r3,-1
 2002ef0:	20c0e026 	beq	r4,r3,2003274 <_malloc_r+0x72c>
 2002ef4:	a739c83a 	sub	fp,r20,fp
 2002ef8:	1705883a 	add	r2,r2,fp
 2002efc:	b0800015 	stw	r2,0(r22)
 2002f00:	a08001cc 	andi	r2,r20,7
 2002f04:	1000a526 	beq	r2,zero,200319c <_malloc_r+0x654>
 2002f08:	a0a9c83a 	sub	r20,r20,r2
 2002f0c:	00c40204 	movi	r3,4104
 2002f10:	a5000204 	addi	r20,r20,8
 2002f14:	1885c83a 	sub	r2,r3,r2
 2002f18:	a5c7883a 	add	r3,r20,r23
 2002f1c:	18c3ffcc 	andi	r3,r3,4095
 2002f20:	10efc83a 	sub	r23,r2,r3
 2002f24:	9009883a 	mov	r4,r18
 2002f28:	b80b883a 	mov	r5,r23
 2002f2c:	20034a80 	call	20034a8 <_sbrk_r>
 2002f30:	00ffffc4 	movi	r3,-1
 2002f34:	10c0cc26 	beq	r2,r3,2003268 <_malloc_r+0x720>
 2002f38:	1505c83a 	sub	r2,r2,r20
 2002f3c:	b887883a 	add	r3,r23,r2
 2002f40:	18c00054 	ori	r3,r3,1
 2002f44:	b0800017 	ldw	r2,0(r22)
 2002f48:	9d000215 	stw	r20,8(r19)
 2002f4c:	a0c00115 	stw	r3,4(r20)
 2002f50:	b885883a 	add	r2,r23,r2
 2002f54:	b0800015 	stw	r2,0(r22)
 2002f58:	84c00e26 	beq	r16,r19,2002f94 <_malloc_r+0x44c>
 2002f5c:	00c003c4 	movi	r3,15
 2002f60:	1d40902e 	bgeu	r3,r21,20031a4 <_malloc_r+0x65c>
 2002f64:	ad7ffd04 	addi	r21,r21,-12
 2002f68:	013ffe04 	movi	r4,-8
 2002f6c:	a908703a 	and	r4,r21,r4
 2002f70:	810b883a 	add	r5,r16,r4
 2002f74:	01800144 	movi	r6,5
 2002f78:	29800115 	stw	r6,4(r5)
 2002f7c:	29800215 	stw	r6,8(r5)
 2002f80:	81400117 	ldw	r5,4(r16)
 2002f84:	2940004c 	andi	r5,r5,1
 2002f88:	214ab03a 	or	r5,r4,r5
 2002f8c:	81400115 	stw	r5,4(r16)
 2002f90:	1900ae36 	bltu	r3,r4,200324c <_malloc_r+0x704>
 2002f94:	d0e74317 	ldw	r3,-25332(gp)
 2002f98:	1880012e 	bgeu	r3,r2,2002fa0 <_malloc_r+0x458>
 2002f9c:	d0a74315 	stw	r2,-25332(gp)
 2002fa0:	d0e74217 	ldw	r3,-25336(gp)
 2002fa4:	9c000217 	ldw	r16,8(r19)
 2002fa8:	1880012e 	bgeu	r3,r2,2002fb0 <_malloc_r+0x468>
 2002fac:	d0a74215 	stw	r2,-25336(gp)
 2002fb0:	80c00117 	ldw	r3,4(r16)
 2002fb4:	00bfff04 	movi	r2,-4
 2002fb8:	1886703a 	and	r3,r3,r2
 2002fbc:	1c45c83a 	sub	r2,r3,r17
 2002fc0:	1c400236 	bltu	r3,r17,2002fcc <_malloc_r+0x484>
 2002fc4:	00c003c4 	movi	r3,15
 2002fc8:	18800416 	blt	r3,r2,2002fdc <_malloc_r+0x494>
 2002fcc:	9009883a 	mov	r4,r18
 2002fd0:	2010b2c0 	call	2010b2c <__malloc_unlock>
 2002fd4:	0005883a 	mov	r2,zero
 2002fd8:	003f0906 	br	2002c00 <__alt_mem_epcs_flash_controller+0xfdff9c00>
 2002fdc:	88c00054 	ori	r3,r17,1
 2002fe0:	10800054 	ori	r2,r2,1
 2002fe4:	80c00115 	stw	r3,4(r16)
 2002fe8:	8463883a 	add	r17,r16,r17
 2002fec:	88800115 	stw	r2,4(r17)
 2002ff0:	9009883a 	mov	r4,r18
 2002ff4:	9c400215 	stw	r17,8(r19)
 2002ff8:	2010b2c0 	call	2010b2c <__malloc_unlock>
 2002ffc:	80800204 	addi	r2,r16,8
 2003000:	003eff06 	br	2002c00 <__alt_mem_epcs_flash_controller+0xfdff9c00>
 2003004:	00800504 	movi	r2,20
 2003008:	1100492e 	bgeu	r2,r4,2003130 <_malloc_r+0x5e8>
 200300c:	00801504 	movi	r2,84
 2003010:	11005c36 	bltu	r2,r4,2003184 <_malloc_r+0x63c>
 2003014:	8808d33a 	srli	r4,r17,12
 2003018:	21001b84 	addi	r4,r4,110
 200301c:	210b883a 	add	r5,r4,r4
 2003020:	003f1006 	br	2002c64 <__alt_mem_epcs_flash_controller+0xfdff9c64>
 2003024:	1006d27a 	srli	r3,r2,9
 2003028:	01400104 	movi	r5,4
 200302c:	28c0432e 	bgeu	r5,r3,200313c <_malloc_r+0x5f4>
 2003030:	01400504 	movi	r5,20
 2003034:	28c07036 	bltu	r5,r3,20031f8 <_malloc_r+0x6b0>
 2003038:	194016c4 	addi	r5,r3,91
 200303c:	294d883a 	add	r6,r5,r5
 2003040:	318d883a 	add	r6,r6,r6
 2003044:	318d883a 	add	r6,r6,r6
 2003048:	998d883a 	add	r6,r19,r6
 200304c:	30c00217 	ldw	r3,8(r6)
 2003050:	01c08234 	movhi	r7,520
 2003054:	39ddf304 	addi	r7,r7,30668
 2003058:	19805726 	beq	r3,r6,20031b8 <_malloc_r+0x670>
 200305c:	01ffff04 	movi	r7,-4
 2003060:	19400117 	ldw	r5,4(r3)
 2003064:	29ca703a 	and	r5,r5,r7
 2003068:	1140022e 	bgeu	r2,r5,2003074 <_malloc_r+0x52c>
 200306c:	18c00217 	ldw	r3,8(r3)
 2003070:	30fffb1e 	bne	r6,r3,2003060 <__alt_mem_epcs_flash_controller+0xfdffa060>
 2003074:	19400317 	ldw	r5,12(r3)
 2003078:	98800117 	ldw	r2,4(r19)
 200307c:	81400315 	stw	r5,12(r16)
 2003080:	80c00215 	stw	r3,8(r16)
 2003084:	2c000215 	stw	r16,8(r5)
 2003088:	1c000315 	stw	r16,12(r3)
 200308c:	003f2b06 	br	2002d3c <__alt_mem_epcs_flash_controller+0xfdff9d3c>
 2003090:	8445883a 	add	r2,r16,r17
 2003094:	8c400054 	ori	r17,r17,1
 2003098:	18800515 	stw	r2,20(r3)
 200309c:	18800415 	stw	r2,16(r3)
 20030a0:	29000054 	ori	r4,r5,1
 20030a4:	1147883a 	add	r3,r2,r5
 20030a8:	84400115 	stw	r17,4(r16)
 20030ac:	11000115 	stw	r4,4(r2)
 20030b0:	12400315 	stw	r9,12(r2)
 20030b4:	12400215 	stw	r9,8(r2)
 20030b8:	19400015 	stw	r5,0(r3)
 20030bc:	9009883a 	mov	r4,r18
 20030c0:	2010b2c0 	call	2010b2c <__malloc_unlock>
 20030c4:	80800204 	addi	r2,r16,8
 20030c8:	003ecd06 	br	2002c00 <__alt_mem_epcs_flash_controller+0xfdff9c00>
 20030cc:	18800117 	ldw	r2,4(r3)
 20030d0:	003f1a06 	br	2002d3c <__alt_mem_epcs_flash_controller+0xfdff9d3c>
 20030d4:	5ac00044 	addi	r11,r11,1
 20030d8:	588000cc 	andi	r2,r11,3
 20030dc:	52800204 	addi	r10,r10,8
 20030e0:	103f2e1e 	bne	r2,zero,2002d9c <__alt_mem_epcs_flash_controller+0xfdff9d9c>
 20030e4:	20c000cc 	andi	r3,r4,3
 20030e8:	60bffe04 	addi	r2,r12,-8
 20030ec:	18006f26 	beq	r3,zero,20032ac <_malloc_r+0x764>
 20030f0:	63000017 	ldw	r12,0(r12)
 20030f4:	213fffc4 	addi	r4,r4,-1
 20030f8:	60bffa26 	beq	r12,r2,20030e4 <__alt_mem_epcs_flash_controller+0xfdffa0e4>
 20030fc:	98800117 	ldw	r2,4(r19)
 2003100:	294b883a 	add	r5,r5,r5
 2003104:	117f5a36 	bltu	r2,r5,2002e70 <__alt_mem_epcs_flash_controller+0xfdff9e70>
 2003108:	283f5926 	beq	r5,zero,2002e70 <__alt_mem_epcs_flash_controller+0xfdff9e70>
 200310c:	1146703a 	and	r3,r2,r5
 2003110:	18001626 	beq	r3,zero,200316c <_malloc_r+0x624>
 2003114:	5809883a 	mov	r4,r11
 2003118:	003f1a06 	br	2002d84 <__alt_mem_epcs_flash_controller+0xfdff9d84>
 200311c:	80800204 	addi	r2,r16,8
 2003120:	84000517 	ldw	r16,20(r16)
 2003124:	143ea81e 	bne	r2,r16,2002bc8 <__alt_mem_epcs_flash_controller+0xfdff9bc8>
 2003128:	21000084 	addi	r4,r4,2
 200312c:	003ee306 	br	2002cbc <__alt_mem_epcs_flash_controller+0xfdff9cbc>
 2003130:	210016c4 	addi	r4,r4,91
 2003134:	210b883a 	add	r5,r4,r4
 2003138:	003eca06 	br	2002c64 <__alt_mem_epcs_flash_controller+0xfdff9c64>
 200313c:	100ad1ba 	srli	r5,r2,6
 2003140:	29400e04 	addi	r5,r5,56
 2003144:	294d883a 	add	r6,r5,r5
 2003148:	003fbd06 	br	2003040 <__alt_mem_epcs_flash_controller+0xfdffa040>
 200314c:	84ff6026 	beq	r16,r19,2002ed0 <__alt_mem_epcs_flash_controller+0xfdff9ed0>
 2003150:	00808234 	movhi	r2,520
 2003154:	109df304 	addi	r2,r2,30668
 2003158:	14000217 	ldw	r16,8(r2)
 200315c:	00bfff04 	movi	r2,-4
 2003160:	80c00117 	ldw	r3,4(r16)
 2003164:	1886703a 	and	r3,r3,r2
 2003168:	003f9406 	br	2002fbc <__alt_mem_epcs_flash_controller+0xfdff9fbc>
 200316c:	294b883a 	add	r5,r5,r5
 2003170:	1146703a 	and	r3,r2,r5
 2003174:	5ac00104 	addi	r11,r11,4
 2003178:	183ffc26 	beq	r3,zero,200316c <__alt_mem_epcs_flash_controller+0xfdffa16c>
 200317c:	5809883a 	mov	r4,r11
 2003180:	003f0006 	br	2002d84 <__alt_mem_epcs_flash_controller+0xfdff9d84>
 2003184:	00805504 	movi	r2,340
 2003188:	11001336 	bltu	r2,r4,20031d8 <_malloc_r+0x690>
 200318c:	8808d3fa 	srli	r4,r17,15
 2003190:	21001dc4 	addi	r4,r4,119
 2003194:	210b883a 	add	r5,r4,r4
 2003198:	003eb206 	br	2002c64 <__alt_mem_epcs_flash_controller+0xfdff9c64>
 200319c:	00840004 	movi	r2,4096
 20031a0:	003f5d06 	br	2002f18 <__alt_mem_epcs_flash_controller+0xfdff9f18>
 20031a4:	00800044 	movi	r2,1
 20031a8:	a0800115 	stw	r2,4(r20)
 20031ac:	a021883a 	mov	r16,r20
 20031b0:	0007883a 	mov	r3,zero
 20031b4:	003f8106 	br	2002fbc <__alt_mem_epcs_flash_controller+0xfdff9fbc>
 20031b8:	280bd0ba 	srai	r5,r5,2
 20031bc:	01800044 	movi	r6,1
 20031c0:	38800117 	ldw	r2,4(r7)
 20031c4:	314c983a 	sll	r6,r6,r5
 20031c8:	180b883a 	mov	r5,r3
 20031cc:	3084b03a 	or	r2,r6,r2
 20031d0:	38800115 	stw	r2,4(r7)
 20031d4:	003fa906 	br	200307c <__alt_mem_epcs_flash_controller+0xfdffa07c>
 20031d8:	00815504 	movi	r2,1364
 20031dc:	11001836 	bltu	r2,r4,2003240 <_malloc_r+0x6f8>
 20031e0:	8808d4ba 	srli	r4,r17,18
 20031e4:	21001f04 	addi	r4,r4,124
 20031e8:	210b883a 	add	r5,r4,r4
 20031ec:	003e9d06 	br	2002c64 <__alt_mem_epcs_flash_controller+0xfdff9c64>
 20031f0:	bdc00404 	addi	r23,r23,16
 20031f4:	003f2f06 	br	2002eb4 <__alt_mem_epcs_flash_controller+0xfdff9eb4>
 20031f8:	01401504 	movi	r5,84
 20031fc:	28c01f36 	bltu	r5,r3,200327c <_malloc_r+0x734>
 2003200:	100ad33a 	srli	r5,r2,12
 2003204:	29401b84 	addi	r5,r5,110
 2003208:	294d883a 	add	r6,r5,r5
 200320c:	003f8c06 	br	2003040 <__alt_mem_epcs_flash_controller+0xfdffa040>
 2003210:	9c000217 	ldw	r16,8(r19)
 2003214:	00bfff04 	movi	r2,-4
 2003218:	80c00117 	ldw	r3,4(r16)
 200321c:	1886703a 	and	r3,r3,r2
 2003220:	003f6606 	br	2002fbc <__alt_mem_epcs_flash_controller+0xfdff9fbc>
 2003224:	e0c3ffcc 	andi	r3,fp,4095
 2003228:	183f2f1e 	bne	r3,zero,2002ee8 <__alt_mem_epcs_flash_controller+0xfdff9ee8>
 200322c:	98c00217 	ldw	r3,8(r19)
 2003230:	bd49883a 	add	r4,r23,r21
 2003234:	21000054 	ori	r4,r4,1
 2003238:	19000115 	stw	r4,4(r3)
 200323c:	003f5506 	br	2002f94 <__alt_mem_epcs_flash_controller+0xfdff9f94>
 2003240:	01403f04 	movi	r5,252
 2003244:	01001f84 	movi	r4,126
 2003248:	003e8606 	br	2002c64 <__alt_mem_epcs_flash_controller+0xfdff9c64>
 200324c:	9009883a 	mov	r4,r18
 2003250:	81400204 	addi	r5,r16,8
 2003254:	2008d440 	call	2008d44 <_free_r>
 2003258:	00808274 	movhi	r2,521
 200325c:	10ab0d04 	addi	r2,r2,-21452
 2003260:	10800017 	ldw	r2,0(r2)
 2003264:	003f4b06 	br	2002f94 <__alt_mem_epcs_flash_controller+0xfdff9f94>
 2003268:	00c00044 	movi	r3,1
 200326c:	002f883a 	mov	r23,zero
 2003270:	003f3406 	br	2002f44 <__alt_mem_epcs_flash_controller+0xfdff9f44>
 2003274:	d5200215 	stw	r20,-32760(gp)
 2003278:	003f2106 	br	2002f00 <__alt_mem_epcs_flash_controller+0xfdff9f00>
 200327c:	01405504 	movi	r5,340
 2003280:	28c00436 	bltu	r5,r3,2003294 <_malloc_r+0x74c>
 2003284:	100ad3fa 	srli	r5,r2,15
 2003288:	29401dc4 	addi	r5,r5,119
 200328c:	294d883a 	add	r6,r5,r5
 2003290:	003f6b06 	br	2003040 <__alt_mem_epcs_flash_controller+0xfdffa040>
 2003294:	01415504 	movi	r5,1364
 2003298:	28c00936 	bltu	r5,r3,20032c0 <_malloc_r+0x778>
 200329c:	100ad4ba 	srli	r5,r2,18
 20032a0:	29401f04 	addi	r5,r5,124
 20032a4:	294d883a 	add	r6,r5,r5
 20032a8:	003f6506 	br	2003040 <__alt_mem_epcs_flash_controller+0xfdffa040>
 20032ac:	98800117 	ldw	r2,4(r19)
 20032b0:	0146303a 	nor	r3,zero,r5
 20032b4:	1884703a 	and	r2,r3,r2
 20032b8:	98800115 	stw	r2,4(r19)
 20032bc:	003f9006 	br	2003100 <__alt_mem_epcs_flash_controller+0xfdffa100>
 20032c0:	01803f04 	movi	r6,252
 20032c4:	01401f84 	movi	r5,126
 20032c8:	003f5d06 	br	2003040 <__alt_mem_epcs_flash_controller+0xfdffa040>

020032cc <memset>:
 20032cc:	00c000c4 	movi	r3,3
 20032d0:	2005883a 	mov	r2,r4
 20032d4:	29403fcc 	andi	r5,r5,255
 20032d8:	19802d2e 	bgeu	r3,r6,2003390 <memset+0xc4>
 20032dc:	20c6703a 	and	r3,r4,r3
 20032e0:	18002e1e 	bne	r3,zero,200339c <memset+0xd0>
 20032e4:	2806923a 	slli	r3,r5,8
 20032e8:	010003c4 	movi	r4,15
 20032ec:	3011883a 	mov	r8,r6
 20032f0:	1946b03a 	or	r3,r3,r5
 20032f4:	180e943a 	slli	r7,r3,16
 20032f8:	38ceb03a 	or	r7,r7,r3
 20032fc:	1007883a 	mov	r3,r2
 2003300:	21800f2e 	bgeu	r4,r6,2003340 <memset+0x74>
 2003304:	19c00015 	stw	r7,0(r3)
 2003308:	19c00115 	stw	r7,4(r3)
 200330c:	19c00215 	stw	r7,8(r3)
 2003310:	19c00315 	stw	r7,12(r3)
 2003314:	423ffc04 	addi	r8,r8,-16
 2003318:	18c00404 	addi	r3,r3,16
 200331c:	223ff936 	bltu	r4,r8,2003304 <__alt_mem_epcs_flash_controller+0xfdffa304>
 2003320:	30fffc04 	addi	r3,r6,-16
 2003324:	1806d13a 	srli	r3,r3,4
 2003328:	318003cc 	andi	r6,r6,15
 200332c:	010000c4 	movi	r4,3
 2003330:	18c00044 	addi	r3,r3,1
 2003334:	1806913a 	slli	r3,r3,4
 2003338:	10c7883a 	add	r3,r2,r3
 200333c:	21800e2e 	bgeu	r4,r6,2003378 <memset+0xac>
 2003340:	1813883a 	mov	r9,r3
 2003344:	3011883a 	mov	r8,r6
 2003348:	010000c4 	movi	r4,3
 200334c:	49c00015 	stw	r7,0(r9)
 2003350:	423fff04 	addi	r8,r8,-4
 2003354:	4a400104 	addi	r9,r9,4
 2003358:	223ffc36 	bltu	r4,r8,200334c <__alt_mem_epcs_flash_controller+0xfdffa34c>
 200335c:	313fff04 	addi	r4,r6,-4
 2003360:	2008d0ba 	srli	r4,r4,2
 2003364:	318000cc 	andi	r6,r6,3
 2003368:	21000044 	addi	r4,r4,1
 200336c:	2109883a 	add	r4,r4,r4
 2003370:	2109883a 	add	r4,r4,r4
 2003374:	1907883a 	add	r3,r3,r4
 2003378:	30000a26 	beq	r6,zero,20033a4 <memset+0xd8>
 200337c:	198d883a 	add	r6,r3,r6
 2003380:	19400005 	stb	r5,0(r3)
 2003384:	18c00044 	addi	r3,r3,1
 2003388:	19bffd1e 	bne	r3,r6,2003380 <__alt_mem_epcs_flash_controller+0xfdffa380>
 200338c:	f800283a 	ret
 2003390:	2007883a 	mov	r3,r4
 2003394:	303ff91e 	bne	r6,zero,200337c <__alt_mem_epcs_flash_controller+0xfdffa37c>
 2003398:	00000206 	br	20033a4 <memset+0xd8>
 200339c:	2007883a 	mov	r3,r4
 20033a0:	003ff606 	br	200337c <__alt_mem_epcs_flash_controller+0xfdffa37c>
 20033a4:	f800283a 	ret

020033a8 <_printf_r>:
 20033a8:	defffd04 	addi	sp,sp,-12
 20033ac:	dfc00015 	stw	ra,0(sp)
 20033b0:	d9800115 	stw	r6,4(sp)
 20033b4:	d9c00215 	stw	r7,8(sp)
 20033b8:	280d883a 	mov	r6,r5
 20033bc:	21400217 	ldw	r5,8(r4)
 20033c0:	d9c00104 	addi	r7,sp,4
 20033c4:	20037780 	call	2003778 <___vfprintf_internal_r>
 20033c8:	dfc00017 	ldw	ra,0(sp)
 20033cc:	dec00304 	addi	sp,sp,12
 20033d0:	f800283a 	ret

020033d4 <printf>:
 20033d4:	defffc04 	addi	sp,sp,-16
 20033d8:	dfc00015 	stw	ra,0(sp)
 20033dc:	d9400115 	stw	r5,4(sp)
 20033e0:	d9800215 	stw	r6,8(sp)
 20033e4:	d9c00315 	stw	r7,12(sp)
 20033e8:	00808274 	movhi	r2,521
 20033ec:	10a3b704 	addi	r2,r2,-28964
 20033f0:	10800017 	ldw	r2,0(r2)
 20033f4:	200b883a 	mov	r5,r4
 20033f8:	d9800104 	addi	r6,sp,4
 20033fc:	11000217 	ldw	r4,8(r2)
 2003400:	20055f40 	call	20055f4 <__vfprintf_internal>
 2003404:	dfc00017 	ldw	ra,0(sp)
 2003408:	dec00404 	addi	sp,sp,16
 200340c:	f800283a 	ret

02003410 <_puts_r>:
 2003410:	defff604 	addi	sp,sp,-40
 2003414:	dc400815 	stw	r17,32(sp)
 2003418:	2023883a 	mov	r17,r4
 200341c:	2809883a 	mov	r4,r5
 2003420:	dc000715 	stw	r16,28(sp)
 2003424:	dfc00915 	stw	ra,36(sp)
 2003428:	2821883a 	mov	r16,r5
 200342c:	20036b80 	call	20036b8 <strlen>
 2003430:	10c00044 	addi	r3,r2,1
 2003434:	d8800115 	stw	r2,4(sp)
 2003438:	89400217 	ldw	r5,8(r17)
 200343c:	00808234 	movhi	r2,520
 2003440:	109b5004 	addi	r2,r2,27968
 2003444:	d8800215 	stw	r2,8(sp)
 2003448:	00800044 	movi	r2,1
 200344c:	d8800315 	stw	r2,12(sp)
 2003450:	8809883a 	mov	r4,r17
 2003454:	00800084 	movi	r2,2
 2003458:	d9800404 	addi	r6,sp,16
 200345c:	dc000015 	stw	r16,0(sp)
 2003460:	d8c00615 	stw	r3,24(sp)
 2003464:	dec00415 	stw	sp,16(sp)
 2003468:	d8800515 	stw	r2,20(sp)
 200346c:	20090140 	call	2009014 <__sfvwrite_r>
 2003470:	1000061e 	bne	r2,zero,200348c <_puts_r+0x7c>
 2003474:	00800284 	movi	r2,10
 2003478:	dfc00917 	ldw	ra,36(sp)
 200347c:	dc400817 	ldw	r17,32(sp)
 2003480:	dc000717 	ldw	r16,28(sp)
 2003484:	dec00a04 	addi	sp,sp,40
 2003488:	f800283a 	ret
 200348c:	00bfffc4 	movi	r2,-1
 2003490:	003ff906 	br	2003478 <__alt_mem_epcs_flash_controller+0xfdffa478>

02003494 <puts>:
 2003494:	00808274 	movhi	r2,521
 2003498:	10a3b704 	addi	r2,r2,-28964
 200349c:	200b883a 	mov	r5,r4
 20034a0:	11000017 	ldw	r4,0(r2)
 20034a4:	20034101 	jmpi	2003410 <_puts_r>

020034a8 <_sbrk_r>:
 20034a8:	defffd04 	addi	sp,sp,-12
 20034ac:	dc400115 	stw	r17,4(sp)
 20034b0:	dc000015 	stw	r16,0(sp)
 20034b4:	2023883a 	mov	r17,r4
 20034b8:	04008274 	movhi	r16,521
 20034bc:	842afb04 	addi	r16,r16,-21524
 20034c0:	2809883a 	mov	r4,r5
 20034c4:	dfc00215 	stw	ra,8(sp)
 20034c8:	80000015 	stw	zero,0(r16)
 20034cc:	2010d100 	call	2010d10 <sbrk>
 20034d0:	00ffffc4 	movi	r3,-1
 20034d4:	10c00526 	beq	r2,r3,20034ec <_sbrk_r+0x44>
 20034d8:	dfc00217 	ldw	ra,8(sp)
 20034dc:	dc400117 	ldw	r17,4(sp)
 20034e0:	dc000017 	ldw	r16,0(sp)
 20034e4:	dec00304 	addi	sp,sp,12
 20034e8:	f800283a 	ret
 20034ec:	80c00017 	ldw	r3,0(r16)
 20034f0:	183ff926 	beq	r3,zero,20034d8 <__alt_mem_epcs_flash_controller+0xfdffa4d8>
 20034f4:	88c00015 	stw	r3,0(r17)
 20034f8:	dfc00217 	ldw	ra,8(sp)
 20034fc:	dc400117 	ldw	r17,4(sp)
 2003500:	dc000017 	ldw	r16,0(sp)
 2003504:	dec00304 	addi	sp,sp,12
 2003508:	f800283a 	ret

0200350c <scanf>:
 200350c:	defffc04 	addi	sp,sp,-16
 2003510:	dfc00015 	stw	ra,0(sp)
 2003514:	d9400115 	stw	r5,4(sp)
 2003518:	d9800215 	stw	r6,8(sp)
 200351c:	d9c00315 	stw	r7,12(sp)
 2003520:	00808274 	movhi	r2,521
 2003524:	10a3b704 	addi	r2,r2,-28964
 2003528:	10800017 	ldw	r2,0(r2)
 200352c:	200d883a 	mov	r6,r4
 2003530:	d9c00104 	addi	r7,sp,4
 2003534:	11400117 	ldw	r5,4(r2)
 2003538:	1009883a 	mov	r4,r2
 200353c:	20056180 	call	2005618 <__svfscanf_r>
 2003540:	dfc00017 	ldw	ra,0(sp)
 2003544:	dec00404 	addi	sp,sp,16
 2003548:	f800283a 	ret

0200354c <_scanf_r>:
 200354c:	defffd04 	addi	sp,sp,-12
 2003550:	dfc00015 	stw	ra,0(sp)
 2003554:	d9800115 	stw	r6,4(sp)
 2003558:	d9c00215 	stw	r7,8(sp)
 200355c:	280d883a 	mov	r6,r5
 2003560:	21400117 	ldw	r5,4(r4)
 2003564:	d9c00104 	addi	r7,sp,4
 2003568:	20056180 	call	2005618 <__svfscanf_r>
 200356c:	dfc00017 	ldw	ra,0(sp)
 2003570:	dec00304 	addi	sp,sp,12
 2003574:	f800283a 	ret

02003578 <__sread>:
 2003578:	defffe04 	addi	sp,sp,-8
 200357c:	dc000015 	stw	r16,0(sp)
 2003580:	2821883a 	mov	r16,r5
 2003584:	2940038f 	ldh	r5,14(r5)
 2003588:	dfc00115 	stw	ra,4(sp)
 200358c:	200ad1c0 	call	200ad1c <_read_r>
 2003590:	10000716 	blt	r2,zero,20035b0 <__sread+0x38>
 2003594:	80c01417 	ldw	r3,80(r16)
 2003598:	1887883a 	add	r3,r3,r2
 200359c:	80c01415 	stw	r3,80(r16)
 20035a0:	dfc00117 	ldw	ra,4(sp)
 20035a4:	dc000017 	ldw	r16,0(sp)
 20035a8:	dec00204 	addi	sp,sp,8
 20035ac:	f800283a 	ret
 20035b0:	80c0030b 	ldhu	r3,12(r16)
 20035b4:	18fbffcc 	andi	r3,r3,61439
 20035b8:	80c0030d 	sth	r3,12(r16)
 20035bc:	dfc00117 	ldw	ra,4(sp)
 20035c0:	dc000017 	ldw	r16,0(sp)
 20035c4:	dec00204 	addi	sp,sp,8
 20035c8:	f800283a 	ret

020035cc <__swrite>:
 20035cc:	2880030b 	ldhu	r2,12(r5)
 20035d0:	defffb04 	addi	sp,sp,-20
 20035d4:	dcc00315 	stw	r19,12(sp)
 20035d8:	10c0400c 	andi	r3,r2,256
 20035dc:	18ffffcc 	andi	r3,r3,65535
 20035e0:	18e0001c 	xori	r3,r3,32768
 20035e4:	dc800215 	stw	r18,8(sp)
 20035e8:	dc400115 	stw	r17,4(sp)
 20035ec:	dc000015 	stw	r16,0(sp)
 20035f0:	dfc00415 	stw	ra,16(sp)
 20035f4:	18e00004 	addi	r3,r3,-32768
 20035f8:	2821883a 	mov	r16,r5
 20035fc:	2027883a 	mov	r19,r4
 2003600:	3025883a 	mov	r18,r6
 2003604:	3823883a 	mov	r17,r7
 2003608:	18000526 	beq	r3,zero,2003620 <__swrite+0x54>
 200360c:	2940038f 	ldh	r5,14(r5)
 2003610:	000d883a 	mov	r6,zero
 2003614:	01c00084 	movi	r7,2
 2003618:	200960c0 	call	200960c <_lseek_r>
 200361c:	8080030b 	ldhu	r2,12(r16)
 2003620:	8140038f 	ldh	r5,14(r16)
 2003624:	10bbffcc 	andi	r2,r2,61439
 2003628:	9809883a 	mov	r4,r19
 200362c:	900d883a 	mov	r6,r18
 2003630:	880f883a 	mov	r7,r17
 2003634:	8080030d 	sth	r2,12(r16)
 2003638:	dfc00417 	ldw	ra,16(sp)
 200363c:	dcc00317 	ldw	r19,12(sp)
 2003640:	dc800217 	ldw	r18,8(sp)
 2003644:	dc400117 	ldw	r17,4(sp)
 2003648:	dc000017 	ldw	r16,0(sp)
 200364c:	dec00504 	addi	sp,sp,20
 2003650:	2006da01 	jmpi	2006da0 <_write_r>

02003654 <__sseek>:
 2003654:	defffe04 	addi	sp,sp,-8
 2003658:	dc000015 	stw	r16,0(sp)
 200365c:	2821883a 	mov	r16,r5
 2003660:	2940038f 	ldh	r5,14(r5)
 2003664:	dfc00115 	stw	ra,4(sp)
 2003668:	200960c0 	call	200960c <_lseek_r>
 200366c:	00ffffc4 	movi	r3,-1
 2003670:	10c00826 	beq	r2,r3,2003694 <__sseek+0x40>
 2003674:	80c0030b 	ldhu	r3,12(r16)
 2003678:	80801415 	stw	r2,80(r16)
 200367c:	18c40014 	ori	r3,r3,4096
 2003680:	80c0030d 	sth	r3,12(r16)
 2003684:	dfc00117 	ldw	ra,4(sp)
 2003688:	dc000017 	ldw	r16,0(sp)
 200368c:	dec00204 	addi	sp,sp,8
 2003690:	f800283a 	ret
 2003694:	80c0030b 	ldhu	r3,12(r16)
 2003698:	18fbffcc 	andi	r3,r3,61439
 200369c:	80c0030d 	sth	r3,12(r16)
 20036a0:	dfc00117 	ldw	ra,4(sp)
 20036a4:	dc000017 	ldw	r16,0(sp)
 20036a8:	dec00204 	addi	sp,sp,8
 20036ac:	f800283a 	ret

020036b0 <__sclose>:
 20036b0:	2940038f 	ldh	r5,14(r5)
 20036b4:	2006f801 	jmpi	2006f80 <_close_r>

020036b8 <strlen>:
 20036b8:	208000cc 	andi	r2,r4,3
 20036bc:	10001f1e 	bne	r2,zero,200373c <strlen+0x84>
 20036c0:	20800017 	ldw	r2,0(r4)
 20036c4:	01ffbff4 	movhi	r7,65279
 20036c8:	39ffbfc4 	addi	r7,r7,-257
 20036cc:	01a02074 	movhi	r6,32897
 20036d0:	31a02004 	addi	r6,r6,-32640
 20036d4:	11c7883a 	add	r3,r2,r7
 20036d8:	0084303a 	nor	r2,zero,r2
 20036dc:	1886703a 	and	r3,r3,r2
 20036e0:	1986703a 	and	r3,r3,r6
 20036e4:	2005883a 	mov	r2,r4
 20036e8:	1800101e 	bne	r3,zero,200372c <strlen+0x74>
 20036ec:	10800104 	addi	r2,r2,4
 20036f0:	10c00017 	ldw	r3,0(r2)
 20036f4:	19cb883a 	add	r5,r3,r7
 20036f8:	00c6303a 	nor	r3,zero,r3
 20036fc:	28c6703a 	and	r3,r5,r3
 2003700:	1986703a 	and	r3,r3,r6
 2003704:	1800091e 	bne	r3,zero,200372c <strlen+0x74>
 2003708:	10800104 	addi	r2,r2,4
 200370c:	10c00017 	ldw	r3,0(r2)
 2003710:	19cb883a 	add	r5,r3,r7
 2003714:	00c6303a 	nor	r3,zero,r3
 2003718:	28c6703a 	and	r3,r5,r3
 200371c:	1986703a 	and	r3,r3,r6
 2003720:	183ff226 	beq	r3,zero,20036ec <__alt_mem_epcs_flash_controller+0xfdffa6ec>
 2003724:	00000106 	br	200372c <strlen+0x74>
 2003728:	10800044 	addi	r2,r2,1
 200372c:	10c00007 	ldb	r3,0(r2)
 2003730:	183ffd1e 	bne	r3,zero,2003728 <__alt_mem_epcs_flash_controller+0xfdffa728>
 2003734:	1105c83a 	sub	r2,r2,r4
 2003738:	f800283a 	ret
 200373c:	2005883a 	mov	r2,r4
 2003740:	003ffa06 	br	200372c <__alt_mem_epcs_flash_controller+0xfdffa72c>

02003744 <__sprint_r>:
 2003744:	30800217 	ldw	r2,8(r6)
 2003748:	defffe04 	addi	sp,sp,-8
 200374c:	dc000015 	stw	r16,0(sp)
 2003750:	dfc00115 	stw	ra,4(sp)
 2003754:	3021883a 	mov	r16,r6
 2003758:	10000226 	beq	r2,zero,2003764 <__sprint_r+0x20>
 200375c:	20090140 	call	2009014 <__sfvwrite_r>
 2003760:	80000215 	stw	zero,8(r16)
 2003764:	80000115 	stw	zero,4(r16)
 2003768:	dfc00117 	ldw	ra,4(sp)
 200376c:	dc000017 	ldw	r16,0(sp)
 2003770:	dec00204 	addi	sp,sp,8
 2003774:	f800283a 	ret

02003778 <___vfprintf_internal_r>:
 2003778:	defeb904 	addi	sp,sp,-1308
 200377c:	dc013d15 	stw	r16,1268(sp)
 2003780:	d9013015 	stw	r4,1216(sp)
 2003784:	dfc14615 	stw	ra,1304(sp)
 2003788:	df014515 	stw	fp,1300(sp)
 200378c:	ddc14415 	stw	r23,1296(sp)
 2003790:	dd814315 	stw	r22,1292(sp)
 2003794:	dd414215 	stw	r21,1288(sp)
 2003798:	dd014115 	stw	r20,1284(sp)
 200379c:	dcc14015 	stw	r19,1280(sp)
 20037a0:	dc813f15 	stw	r18,1276(sp)
 20037a4:	dc413e15 	stw	r17,1272(sp)
 20037a8:	d9412915 	stw	r5,1188(sp)
 20037ac:	3021883a 	mov	r16,r6
 20037b0:	d9c12d15 	stw	r7,1204(sp)
 20037b4:	20095d80 	call	20095d8 <_localeconv_r>
 20037b8:	10800017 	ldw	r2,0(r2)
 20037bc:	d9013017 	ldw	r4,1216(sp)
 20037c0:	d8013315 	stw	zero,1228(sp)
 20037c4:	d8813715 	stw	r2,1244(sp)
 20037c8:	d8013415 	stw	zero,1232(sp)
 20037cc:	20000226 	beq	r4,zero,20037d8 <___vfprintf_internal_r+0x60>
 20037d0:	20800e17 	ldw	r2,56(r4)
 20037d4:	10014b26 	beq	r2,zero,2003d04 <___vfprintf_internal_r+0x58c>
 20037d8:	d8c12917 	ldw	r3,1188(sp)
 20037dc:	1880030b 	ldhu	r2,12(r3)
 20037e0:	10c0020c 	andi	r3,r2,8
 20037e4:	18ffffcc 	andi	r3,r3,65535
 20037e8:	18e0001c 	xori	r3,r3,32768
 20037ec:	18e00004 	addi	r3,r3,-32768
 20037f0:	1800ed26 	beq	r3,zero,2003ba8 <___vfprintf_internal_r+0x430>
 20037f4:	d9012917 	ldw	r4,1188(sp)
 20037f8:	20c00417 	ldw	r3,16(r4)
 20037fc:	1800ea26 	beq	r3,zero,2003ba8 <___vfprintf_internal_r+0x430>
 2003800:	1100068c 	andi	r4,r2,26
 2003804:	00c00284 	movi	r3,10
 2003808:	20c0f026 	beq	r4,r3,2003bcc <___vfprintf_internal_r+0x454>
 200380c:	d9010dc4 	addi	r4,sp,1079
 2003810:	d8810e04 	addi	r2,sp,1080
 2003814:	dc413017 	ldw	r17,1216(sp)
 2003818:	d8c00404 	addi	r3,sp,16
 200381c:	d9012615 	stw	r4,1176(sp)
 2003820:	1109c83a 	sub	r4,r2,r4
 2003824:	d8812715 	stw	r2,1180(sp)
 2003828:	d8c11b15 	stw	r3,1132(sp)
 200382c:	d8011d15 	stw	zero,1140(sp)
 2003830:	d8011c15 	stw	zero,1136(sp)
 2003834:	802b883a 	mov	r21,r16
 2003838:	d8013215 	stw	zero,1224(sp)
 200383c:	d8013615 	stw	zero,1240(sp)
 2003840:	d8013515 	stw	zero,1236(sp)
 2003844:	d8012c15 	stw	zero,1200(sp)
 2003848:	1813883a 	mov	r9,r3
 200384c:	d9013915 	stw	r4,1252(sp)
 2003850:	a8800007 	ldb	r2,0(r21)
 2003854:	1002f326 	beq	r2,zero,2004424 <___vfprintf_internal_r+0xcac>
 2003858:	00c00944 	movi	r3,37
 200385c:	a825883a 	mov	r18,r21
 2003860:	10c0021e 	bne	r2,r3,200386c <___vfprintf_internal_r+0xf4>
 2003864:	00001406 	br	20038b8 <___vfprintf_internal_r+0x140>
 2003868:	10c00326 	beq	r2,r3,2003878 <___vfprintf_internal_r+0x100>
 200386c:	94800044 	addi	r18,r18,1
 2003870:	90800007 	ldb	r2,0(r18)
 2003874:	103ffc1e 	bne	r2,zero,2003868 <__alt_mem_epcs_flash_controller+0xfdffa868>
 2003878:	9561c83a 	sub	r16,r18,r21
 200387c:	80000e26 	beq	r16,zero,20038b8 <___vfprintf_internal_r+0x140>
 2003880:	da011d17 	ldw	r8,1140(sp)
 2003884:	d8c11c17 	ldw	r3,1136(sp)
 2003888:	4d400015 	stw	r21,0(r9)
 200388c:	4c000115 	stw	r16,4(r9)
 2003890:	4411883a 	add	r8,r8,r16
 2003894:	18c00044 	addi	r3,r3,1
 2003898:	da011d15 	stw	r8,1140(sp)
 200389c:	d8c11c15 	stw	r3,1136(sp)
 20038a0:	008001c4 	movi	r2,7
 20038a4:	10c11016 	blt	r2,r3,2003ce8 <___vfprintf_internal_r+0x570>
 20038a8:	4a400204 	addi	r9,r9,8
 20038ac:	d8812c17 	ldw	r2,1200(sp)
 20038b0:	1405883a 	add	r2,r2,r16
 20038b4:	d8812c15 	stw	r2,1200(sp)
 20038b8:	90800007 	ldb	r2,0(r18)
 20038bc:	1000ee26 	beq	r2,zero,2003c78 <___vfprintf_internal_r+0x500>
 20038c0:	95400044 	addi	r21,r18,1
 20038c4:	94800047 	ldb	r18,1(r18)
 20038c8:	073fffc4 	movi	fp,-1
 20038cc:	e007883a 	mov	r3,fp
 20038d0:	d8012585 	stb	zero,1174(sp)
 20038d4:	d8012e15 	stw	zero,1208(sp)
 20038d8:	0021883a 	mov	r16,zero
 20038dc:	05001604 	movi	r20,88
 20038e0:	04c00244 	movi	r19,9
 20038e4:	4839883a 	mov	fp,r9
 20038e8:	ad400044 	addi	r21,r21,1
 20038ec:	90bff804 	addi	r2,r18,-32
 20038f0:	a080462e 	bgeu	r20,r2,2003a0c <___vfprintf_internal_r+0x294>
 20038f4:	e013883a 	mov	r9,fp
 20038f8:	9000df26 	beq	r18,zero,2003c78 <___vfprintf_internal_r+0x500>
 20038fc:	00c00044 	movi	r3,1
 2003900:	d8c12815 	stw	r3,1184(sp)
 2003904:	dc810405 	stb	r18,1040(sp)
 2003908:	d8012585 	stb	zero,1174(sp)
 200390c:	d8c12b15 	stw	r3,1196(sp)
 2003910:	dcc10404 	addi	r19,sp,1040
 2003914:	d8013115 	stw	zero,1220(sp)
 2003918:	80c0008c 	andi	r3,r16,2
 200391c:	d8c12a15 	stw	r3,1192(sp)
 2003920:	18000326 	beq	r3,zero,2003930 <___vfprintf_internal_r+0x1b8>
 2003924:	d8c12817 	ldw	r3,1184(sp)
 2003928:	18c00084 	addi	r3,r3,2
 200392c:	d8c12815 	stw	r3,1184(sp)
 2003930:	80c0210c 	andi	r3,r16,132
 2003934:	d8c12f15 	stw	r3,1212(sp)
 2003938:	1802251e 	bne	r3,zero,20041d0 <___vfprintf_internal_r+0xa58>
 200393c:	d9012e17 	ldw	r4,1208(sp)
 2003940:	d8c12817 	ldw	r3,1184(sp)
 2003944:	20edc83a 	sub	r22,r4,r3
 2003948:	0582210e 	bge	zero,r22,20041d0 <___vfprintf_internal_r+0xa58>
 200394c:	02800404 	movi	r10,16
 2003950:	da011d17 	ldw	r8,1140(sp)
 2003954:	d8c11c17 	ldw	r3,1136(sp)
 2003958:	05c08234 	movhi	r23,520
 200395c:	bddb6184 	addi	r23,r23,28038
 2003960:	5580200e 	bge	r10,r22,20039e4 <___vfprintf_internal_r+0x26c>
 2003964:	dc813815 	stw	r18,1248(sp)
 2003968:	5039883a 	mov	fp,r10
 200396c:	b825883a 	mov	r18,r23
 2003970:	050001c4 	movi	r20,7
 2003974:	b02f883a 	mov	r23,r22
 2003978:	802d883a 	mov	r22,r16
 200397c:	dc012917 	ldw	r16,1188(sp)
 2003980:	00000306 	br	2003990 <___vfprintf_internal_r+0x218>
 2003984:	bdfffc04 	addi	r23,r23,-16
 2003988:	4a400204 	addi	r9,r9,8
 200398c:	e5c0110e 	bge	fp,r23,20039d4 <___vfprintf_internal_r+0x25c>
 2003990:	4c800015 	stw	r18,0(r9)
 2003994:	4f000115 	stw	fp,4(r9)
 2003998:	42000404 	addi	r8,r8,16
 200399c:	18c00044 	addi	r3,r3,1
 20039a0:	da011d15 	stw	r8,1140(sp)
 20039a4:	d8c11c15 	stw	r3,1136(sp)
 20039a8:	a0fff60e 	bge	r20,r3,2003984 <__alt_mem_epcs_flash_controller+0xfdffa984>
 20039ac:	8809883a 	mov	r4,r17
 20039b0:	800b883a 	mov	r5,r16
 20039b4:	d9811b04 	addi	r6,sp,1132
 20039b8:	20037440 	call	2003744 <__sprint_r>
 20039bc:	1000b41e 	bne	r2,zero,2003c90 <___vfprintf_internal_r+0x518>
 20039c0:	bdfffc04 	addi	r23,r23,-16
 20039c4:	da011d17 	ldw	r8,1140(sp)
 20039c8:	d8c11c17 	ldw	r3,1136(sp)
 20039cc:	da400404 	addi	r9,sp,16
 20039d0:	e5ffef16 	blt	fp,r23,2003990 <__alt_mem_epcs_flash_controller+0xfdffa990>
 20039d4:	b021883a 	mov	r16,r22
 20039d8:	b82d883a 	mov	r22,r23
 20039dc:	902f883a 	mov	r23,r18
 20039e0:	dc813817 	ldw	r18,1248(sp)
 20039e4:	4dc00015 	stw	r23,0(r9)
 20039e8:	4d800115 	stw	r22,4(r9)
 20039ec:	4591883a 	add	r8,r8,r22
 20039f0:	18c00044 	addi	r3,r3,1
 20039f4:	da011d15 	stw	r8,1140(sp)
 20039f8:	d8c11c15 	stw	r3,1136(sp)
 20039fc:	008001c4 	movi	r2,7
 2003a00:	10c3fe16 	blt	r2,r3,20049fc <___vfprintf_internal_r+0x1284>
 2003a04:	4a400204 	addi	r9,r9,8
 2003a08:	0001f306 	br	20041d8 <___vfprintf_internal_r+0xa60>
 2003a0c:	1085883a 	add	r2,r2,r2
 2003a10:	1085883a 	add	r2,r2,r2
 2003a14:	01008034 	movhi	r4,512
 2003a18:	210e8a04 	addi	r4,r4,14888
 2003a1c:	1105883a 	add	r2,r2,r4
 2003a20:	10800017 	ldw	r2,0(r2)
 2003a24:	1000683a 	jmp	r2
 2003a28:	02004104 	movi	r8,260
 2003a2c:	020038f4 	movhi	r8,227
 2003a30:	020038f4 	movhi	r8,227
 2003a34:	0200411c 	xori	r8,zero,260
 2003a38:	020038f4 	movhi	r8,227
 2003a3c:	020038f4 	movhi	r8,227
 2003a40:	020038f4 	movhi	r8,227
 2003a44:	020038f4 	movhi	r8,227
 2003a48:	020038f4 	movhi	r8,227
 2003a4c:	020038f4 	movhi	r8,227
 2003a50:	02003fd4 	movui	r8,255
 2003a54:	02004168 	cmpgeui	r8,zero,261
 2003a58:	020038f4 	movhi	r8,227
 2003a5c:	02003b9c 	xori	r8,zero,238
 2003a60:	02003f3c 	xorhi	r8,zero,252
 2003a64:	020038f4 	movhi	r8,227
 2003a68:	02004128 	cmpgeui	r8,zero,260
 2003a6c:	02004134 	movhi	r8,260
 2003a70:	02004134 	movhi	r8,260
 2003a74:	02004134 	movhi	r8,260
 2003a78:	02004134 	movhi	r8,260
 2003a7c:	02004134 	movhi	r8,260
 2003a80:	02004134 	movhi	r8,260
 2003a84:	02004134 	movhi	r8,260
 2003a88:	02004134 	movhi	r8,260
 2003a8c:	02004134 	movhi	r8,260
 2003a90:	020038f4 	movhi	r8,227
 2003a94:	020038f4 	movhi	r8,227
 2003a98:	020038f4 	movhi	r8,227
 2003a9c:	020038f4 	movhi	r8,227
 2003aa0:	020038f4 	movhi	r8,227
 2003aa4:	020038f4 	movhi	r8,227
 2003aa8:	020038f4 	movhi	r8,227
 2003aac:	020038f4 	movhi	r8,227
 2003ab0:	020038f4 	movhi	r8,227
 2003ab4:	020038f4 	movhi	r8,227
 2003ab8:	02003d0c 	andi	r8,zero,244
 2003abc:	02003dcc 	andi	r8,zero,247
 2003ac0:	020038f4 	movhi	r8,227
 2003ac4:	02003dcc 	andi	r8,zero,247
 2003ac8:	020038f4 	movhi	r8,227
 2003acc:	020038f4 	movhi	r8,227
 2003ad0:	020038f4 	movhi	r8,227
 2003ad4:	020038f4 	movhi	r8,227
 2003ad8:	02003e60 	cmpeqi	r8,zero,249
 2003adc:	020038f4 	movhi	r8,227
 2003ae0:	020038f4 	movhi	r8,227
 2003ae4:	02003e6c 	andhi	r8,zero,249
 2003ae8:	020038f4 	movhi	r8,227
 2003aec:	020038f4 	movhi	r8,227
 2003af0:	020038f4 	movhi	r8,227
 2003af4:	020038f4 	movhi	r8,227
 2003af8:	020038f4 	movhi	r8,227
 2003afc:	02003ea4 	muli	r8,zero,250
 2003b00:	020038f4 	movhi	r8,227
 2003b04:	020038f4 	movhi	r8,227
 2003b08:	02003ee0 	cmpeqi	r8,zero,251
 2003b0c:	020038f4 	movhi	r8,227
 2003b10:	020038f4 	movhi	r8,227
 2003b14:	020038f4 	movhi	r8,227
 2003b18:	020038f4 	movhi	r8,227
 2003b1c:	020038f4 	movhi	r8,227
 2003b20:	020038f4 	movhi	r8,227
 2003b24:	020038f4 	movhi	r8,227
 2003b28:	020038f4 	movhi	r8,227
 2003b2c:	020038f4 	movhi	r8,227
 2003b30:	020038f4 	movhi	r8,227
 2003b34:	02004178 	rdprs	r8,zero,261
 2003b38:	020041ac 	andhi	r8,zero,262
 2003b3c:	02003dcc 	andi	r8,zero,247
 2003b40:	02003dcc 	andi	r8,zero,247
 2003b44:	02003dcc 	andi	r8,zero,247
 2003b48:	020040f8 	rdprs	r8,zero,259
 2003b4c:	020041ac 	andhi	r8,zero,262
 2003b50:	020038f4 	movhi	r8,227
 2003b54:	020038f4 	movhi	r8,227
 2003b58:	02003f84 	movi	r8,254
 2003b5c:	020038f4 	movhi	r8,227
 2003b60:	02003f9c 	xori	r8,zero,254
 2003b64:	020041b8 	rdprs	r8,zero,262
 2003b68:	02003ffc 	xorhi	r8,zero,255
 2003b6c:	0200404c 	andi	r8,zero,257
 2003b70:	020038f4 	movhi	r8,227
 2003b74:	02004058 	cmpnei	r8,zero,257
 2003b78:	020038f4 	movhi	r8,227
 2003b7c:	020041c4 	movi	r8,263
 2003b80:	020038f4 	movhi	r8,227
 2003b84:	020038f4 	movhi	r8,227
 2003b88:	020040bc 	xorhi	r8,zero,258
 2003b8c:	d9012e17 	ldw	r4,1208(sp)
 2003b90:	d8812d15 	stw	r2,1204(sp)
 2003b94:	0109c83a 	sub	r4,zero,r4
 2003b98:	d9012e15 	stw	r4,1208(sp)
 2003b9c:	84000114 	ori	r16,r16,4
 2003ba0:	ac800007 	ldb	r18,0(r21)
 2003ba4:	003f5006 	br	20038e8 <__alt_mem_epcs_flash_controller+0xfdffa8e8>
 2003ba8:	d9013017 	ldw	r4,1216(sp)
 2003bac:	d9412917 	ldw	r5,1188(sp)
 2003bb0:	2006e0c0 	call	2006e0c <__swsetup_r>
 2003bb4:	10003d1e 	bne	r2,zero,2003cac <___vfprintf_internal_r+0x534>
 2003bb8:	d8c12917 	ldw	r3,1188(sp)
 2003bbc:	1880030b 	ldhu	r2,12(r3)
 2003bc0:	00c00284 	movi	r3,10
 2003bc4:	1100068c 	andi	r4,r2,26
 2003bc8:	20ff101e 	bne	r4,r3,200380c <__alt_mem_epcs_flash_controller+0xfdffa80c>
 2003bcc:	d9012917 	ldw	r4,1188(sp)
 2003bd0:	20c0038b 	ldhu	r3,14(r4)
 2003bd4:	193fffcc 	andi	r4,r3,65535
 2003bd8:	2120001c 	xori	r4,r4,32768
 2003bdc:	21200004 	addi	r4,r4,-32768
 2003be0:	203f0a16 	blt	r4,zero,200380c <__alt_mem_epcs_flash_controller+0xfdffa80c>
 2003be4:	d9012917 	ldw	r4,1188(sp)
 2003be8:	d9c12d17 	ldw	r7,1204(sp)
 2003bec:	10bfff4c 	andi	r2,r2,65533
 2003bf0:	22800717 	ldw	r10,28(r4)
 2003bf4:	22400917 	ldw	r9,36(r4)
 2003bf8:	d9013017 	ldw	r4,1216(sp)
 2003bfc:	02010004 	movi	r8,1024
 2003c00:	d881070d 	sth	r2,1052(sp)
 2003c04:	d9410404 	addi	r5,sp,1040
 2003c08:	d8800404 	addi	r2,sp,16
 2003c0c:	800d883a 	mov	r6,r16
 2003c10:	d8c1078d 	sth	r3,1054(sp)
 2003c14:	da810b15 	stw	r10,1068(sp)
 2003c18:	da410d15 	stw	r9,1076(sp)
 2003c1c:	d8810415 	stw	r2,1040(sp)
 2003c20:	d8810815 	stw	r2,1056(sp)
 2003c24:	da010615 	stw	r8,1048(sp)
 2003c28:	da010915 	stw	r8,1060(sp)
 2003c2c:	d8010a15 	stw	zero,1064(sp)
 2003c30:	20037780 	call	2003778 <___vfprintf_internal_r>
 2003c34:	d8812c15 	stw	r2,1200(sp)
 2003c38:	10000416 	blt	r2,zero,2003c4c <___vfprintf_internal_r+0x4d4>
 2003c3c:	d9013017 	ldw	r4,1216(sp)
 2003c40:	d9410404 	addi	r5,sp,1040
 2003c44:	20024e40 	call	20024e4 <_fflush_r>
 2003c48:	1006501e 	bne	r2,zero,200558c <___vfprintf_internal_r+0x1e14>
 2003c4c:	d881070b 	ldhu	r2,1052(sp)
 2003c50:	1080100c 	andi	r2,r2,64
 2003c54:	10bfffcc 	andi	r2,r2,65535
 2003c58:	10a0001c 	xori	r2,r2,32768
 2003c5c:	10a00004 	addi	r2,r2,-32768
 2003c60:	10001426 	beq	r2,zero,2003cb4 <___vfprintf_internal_r+0x53c>
 2003c64:	d8c12917 	ldw	r3,1188(sp)
 2003c68:	1880030b 	ldhu	r2,12(r3)
 2003c6c:	10801014 	ori	r2,r2,64
 2003c70:	1880030d 	sth	r2,12(r3)
 2003c74:	00000f06 	br	2003cb4 <___vfprintf_internal_r+0x53c>
 2003c78:	d8811d17 	ldw	r2,1140(sp)
 2003c7c:	10000426 	beq	r2,zero,2003c90 <___vfprintf_internal_r+0x518>
 2003c80:	d9013017 	ldw	r4,1216(sp)
 2003c84:	d9412917 	ldw	r5,1188(sp)
 2003c88:	d9811b04 	addi	r6,sp,1132
 2003c8c:	20037440 	call	2003744 <__sprint_r>
 2003c90:	d8c12917 	ldw	r3,1188(sp)
 2003c94:	1880030b 	ldhu	r2,12(r3)
 2003c98:	1080100c 	andi	r2,r2,64
 2003c9c:	10bfffcc 	andi	r2,r2,65535
 2003ca0:	10a0001c 	xori	r2,r2,32768
 2003ca4:	10a00004 	addi	r2,r2,-32768
 2003ca8:	10000226 	beq	r2,zero,2003cb4 <___vfprintf_internal_r+0x53c>
 2003cac:	00bfffc4 	movi	r2,-1
 2003cb0:	d8812c15 	stw	r2,1200(sp)
 2003cb4:	d8812c17 	ldw	r2,1200(sp)
 2003cb8:	dfc14617 	ldw	ra,1304(sp)
 2003cbc:	df014517 	ldw	fp,1300(sp)
 2003cc0:	ddc14417 	ldw	r23,1296(sp)
 2003cc4:	dd814317 	ldw	r22,1292(sp)
 2003cc8:	dd414217 	ldw	r21,1288(sp)
 2003ccc:	dd014117 	ldw	r20,1284(sp)
 2003cd0:	dcc14017 	ldw	r19,1280(sp)
 2003cd4:	dc813f17 	ldw	r18,1276(sp)
 2003cd8:	dc413e17 	ldw	r17,1272(sp)
 2003cdc:	dc013d17 	ldw	r16,1268(sp)
 2003ce0:	dec14704 	addi	sp,sp,1308
 2003ce4:	f800283a 	ret
 2003ce8:	d9412917 	ldw	r5,1188(sp)
 2003cec:	8809883a 	mov	r4,r17
 2003cf0:	d9811b04 	addi	r6,sp,1132
 2003cf4:	20037440 	call	2003744 <__sprint_r>
 2003cf8:	103fe51e 	bne	r2,zero,2003c90 <__alt_mem_epcs_flash_controller+0xfdffac90>
 2003cfc:	da400404 	addi	r9,sp,16
 2003d00:	003eea06 	br	20038ac <__alt_mem_epcs_flash_controller+0xfdffa8ac>
 2003d04:	20027a00 	call	20027a0 <__sinit>
 2003d08:	003eb306 	br	20037d8 <__alt_mem_epcs_flash_controller+0xfdffa7d8>
 2003d0c:	e013883a 	mov	r9,fp
 2003d10:	84000414 	ori	r16,r16,16
 2003d14:	1839883a 	mov	fp,r3
 2003d18:	8080080c 	andi	r2,r16,32
 2003d1c:	10034426 	beq	r2,zero,2004a30 <___vfprintf_internal_r+0x12b8>
 2003d20:	d8c12d17 	ldw	r3,1204(sp)
 2003d24:	18800117 	ldw	r2,4(r3)
 2003d28:	1dc00017 	ldw	r23,0(r3)
 2003d2c:	18c00204 	addi	r3,r3,8
 2003d30:	d8c12d15 	stw	r3,1204(sp)
 2003d34:	102d883a 	mov	r22,r2
 2003d38:	1003020e 	bge	r2,zero,2004944 <___vfprintf_internal_r+0x11cc>
 2003d3c:	05efc83a 	sub	r23,zero,r23
 2003d40:	b804c03a 	cmpne	r2,r23,zero
 2003d44:	05adc83a 	sub	r22,zero,r22
 2003d48:	b0adc83a 	sub	r22,r22,r2
 2003d4c:	00800b44 	movi	r2,45
 2003d50:	d8812585 	stb	r2,1174(sp)
 2003d54:	00c00044 	movi	r3,1
 2003d58:	bd84b03a 	or	r2,r23,r22
 2003d5c:	e0000216 	blt	fp,zero,2003d68 <___vfprintf_internal_r+0x5f0>
 2003d60:	013fdfc4 	movi	r4,-129
 2003d64:	8120703a 	and	r16,r16,r4
 2003d68:	1001cc1e 	bne	r2,zero,200449c <___vfprintf_internal_r+0xd24>
 2003d6c:	e001cb1e 	bne	fp,zero,200449c <___vfprintf_internal_r+0xd24>
 2003d70:	18c03fcc 	andi	r3,r3,255
 2003d74:	1802ca1e 	bne	r3,zero,20048a0 <___vfprintf_internal_r+0x1128>
 2003d78:	8080004c 	andi	r2,r16,1
 2003d7c:	1002c826 	beq	r2,zero,20048a0 <___vfprintf_internal_r+0x1128>
 2003d80:	d8c13917 	ldw	r3,1252(sp)
 2003d84:	00800c04 	movi	r2,48
 2003d88:	d8810dc5 	stb	r2,1079(sp)
 2003d8c:	d8c12b15 	stw	r3,1196(sp)
 2003d90:	dcc10dc4 	addi	r19,sp,1079
 2003d94:	d8812b17 	ldw	r2,1196(sp)
 2003d98:	d8812815 	stw	r2,1184(sp)
 2003d9c:	1700010e 	bge	r2,fp,2003da4 <___vfprintf_internal_r+0x62c>
 2003da0:	df012815 	stw	fp,1184(sp)
 2003da4:	d8812583 	ldbu	r2,1174(sp)
 2003da8:	df013115 	stw	fp,1220(sp)
 2003dac:	10803fcc 	andi	r2,r2,255
 2003db0:	1080201c 	xori	r2,r2,128
 2003db4:	10bfe004 	addi	r2,r2,-128
 2003db8:	103ed726 	beq	r2,zero,2003918 <__alt_mem_epcs_flash_controller+0xfdffa918>
 2003dbc:	d8c12817 	ldw	r3,1184(sp)
 2003dc0:	18c00044 	addi	r3,r3,1
 2003dc4:	d8c12815 	stw	r3,1184(sp)
 2003dc8:	003ed306 	br	2003918 <__alt_mem_epcs_flash_controller+0xfdffa918>
 2003dcc:	8080020c 	andi	r2,r16,8
 2003dd0:	e013883a 	mov	r9,fp
 2003dd4:	1839883a 	mov	fp,r3
 2003dd8:	1003a626 	beq	r2,zero,2004c74 <___vfprintf_internal_r+0x14fc>
 2003ddc:	d9012d17 	ldw	r4,1204(sp)
 2003de0:	25800017 	ldw	r22,0(r4)
 2003de4:	25000117 	ldw	r20,4(r4)
 2003de8:	21000204 	addi	r4,r4,8
 2003dec:	d9012d15 	stw	r4,1204(sp)
 2003df0:	dd813315 	stw	r22,1228(sp)
 2003df4:	dd013415 	stw	r20,1232(sp)
 2003df8:	b009883a 	mov	r4,r22
 2003dfc:	a00b883a 	mov	r5,r20
 2003e00:	da413c15 	stw	r9,1264(sp)
 2003e04:	200b58c0 	call	200b58c <__isinfd>
 2003e08:	da413c17 	ldw	r9,1264(sp)
 2003e0c:	b009883a 	mov	r4,r22
 2003e10:	a00b883a 	mov	r5,r20
 2003e14:	10041d26 	beq	r2,zero,2004e8c <___vfprintf_internal_r+0x1714>
 2003e18:	000d883a 	mov	r6,zero
 2003e1c:	000f883a 	mov	r7,zero
 2003e20:	200fe280 	call	200fe28 <__ltdf2>
 2003e24:	da413c17 	ldw	r9,1264(sp)
 2003e28:	1004da16 	blt	r2,zero,2005194 <___vfprintf_internal_r+0x1a1c>
 2003e2c:	d8812583 	ldbu	r2,1174(sp)
 2003e30:	00c011c4 	movi	r3,71
 2003e34:	1c83d116 	blt	r3,r18,2004d7c <___vfprintf_internal_r+0x1604>
 2003e38:	04c08234 	movhi	r19,520
 2003e3c:	9cdb5104 	addi	r19,r19,27972
 2003e40:	00c000c4 	movi	r3,3
 2003e44:	d8c12815 	stw	r3,1184(sp)
 2003e48:	00ffdfc4 	movi	r3,-129
 2003e4c:	80e0703a 	and	r16,r16,r3
 2003e50:	d8c12817 	ldw	r3,1184(sp)
 2003e54:	d8013115 	stw	zero,1220(sp)
 2003e58:	d8c12b15 	stw	r3,1196(sp)
 2003e5c:	003fd306 	br	2003dac <__alt_mem_epcs_flash_controller+0xfdffadac>
 2003e60:	84000214 	ori	r16,r16,8
 2003e64:	ac800007 	ldb	r18,0(r21)
 2003e68:	003e9f06 	br	20038e8 <__alt_mem_epcs_flash_controller+0xfdffa8e8>
 2003e6c:	e013883a 	mov	r9,fp
 2003e70:	84000414 	ori	r16,r16,16
 2003e74:	1839883a 	mov	fp,r3
 2003e78:	8080080c 	andi	r2,r16,32
 2003e7c:	10031d26 	beq	r2,zero,2004af4 <___vfprintf_internal_r+0x137c>
 2003e80:	d8812d17 	ldw	r2,1204(sp)
 2003e84:	0007883a 	mov	r3,zero
 2003e88:	15c00017 	ldw	r23,0(r2)
 2003e8c:	15800117 	ldw	r22,4(r2)
 2003e90:	10800204 	addi	r2,r2,8
 2003e94:	d8812d15 	stw	r2,1204(sp)
 2003e98:	d8012585 	stb	zero,1174(sp)
 2003e9c:	bd84b03a 	or	r2,r23,r22
 2003ea0:	003fae06 	br	2003d5c <__alt_mem_epcs_flash_controller+0xfdffad5c>
 2003ea4:	e013883a 	mov	r9,fp
 2003ea8:	84000414 	ori	r16,r16,16
 2003eac:	1839883a 	mov	fp,r3
 2003eb0:	8080080c 	andi	r2,r16,32
 2003eb4:	1002e726 	beq	r2,zero,2004a54 <___vfprintf_internal_r+0x12dc>
 2003eb8:	d8c12d17 	ldw	r3,1204(sp)
 2003ebc:	d9012d17 	ldw	r4,1204(sp)
 2003ec0:	1dc00017 	ldw	r23,0(r3)
 2003ec4:	1d800117 	ldw	r22,4(r3)
 2003ec8:	21000204 	addi	r4,r4,8
 2003ecc:	00c00044 	movi	r3,1
 2003ed0:	d9012d15 	stw	r4,1204(sp)
 2003ed4:	bd84b03a 	or	r2,r23,r22
 2003ed8:	d8012585 	stb	zero,1174(sp)
 2003edc:	003f9f06 	br	2003d5c <__alt_mem_epcs_flash_controller+0xfdffad5c>
 2003ee0:	e013883a 	mov	r9,fp
 2003ee4:	1839883a 	mov	fp,r3
 2003ee8:	00c08234 	movhi	r3,520
 2003eec:	18db5504 	addi	r3,r3,27988
 2003ef0:	d8c13615 	stw	r3,1240(sp)
 2003ef4:	8080080c 	andi	r2,r16,32
 2003ef8:	10007726 	beq	r2,zero,20040d8 <___vfprintf_internal_r+0x960>
 2003efc:	d9012d17 	ldw	r4,1204(sp)
 2003f00:	25c00017 	ldw	r23,0(r4)
 2003f04:	25800117 	ldw	r22,4(r4)
 2003f08:	21000204 	addi	r4,r4,8
 2003f0c:	d9012d15 	stw	r4,1204(sp)
 2003f10:	8080004c 	andi	r2,r16,1
 2003f14:	1002c226 	beq	r2,zero,2004a20 <___vfprintf_internal_r+0x12a8>
 2003f18:	bd84b03a 	or	r2,r23,r22
 2003f1c:	10035d26 	beq	r2,zero,2004c94 <___vfprintf_internal_r+0x151c>
 2003f20:	00c00c04 	movi	r3,48
 2003f24:	d8c12505 	stb	r3,1172(sp)
 2003f28:	dc812545 	stb	r18,1173(sp)
 2003f2c:	84000094 	ori	r16,r16,2
 2003f30:	00c00084 	movi	r3,2
 2003f34:	d8012585 	stb	zero,1174(sp)
 2003f38:	003f8806 	br	2003d5c <__alt_mem_epcs_flash_controller+0xfdffad5c>
 2003f3c:	ac800007 	ldb	r18,0(r21)
 2003f40:	00c00a84 	movi	r3,42
 2003f44:	adc00044 	addi	r23,r21,1
 2003f48:	90c57526 	beq	r18,r3,2005520 <___vfprintf_internal_r+0x1da8>
 2003f4c:	95bff404 	addi	r22,r18,-48
 2003f50:	0009883a 	mov	r4,zero
 2003f54:	9d84ff36 	bltu	r19,r22,2005354 <___vfprintf_internal_r+0x1bdc>
 2003f58:	01400284 	movi	r5,10
 2003f5c:	2001f500 	call	2001f50 <__mulsi3>
 2003f60:	bc800007 	ldb	r18,0(r23)
 2003f64:	b089883a 	add	r4,r22,r2
 2003f68:	bdc00044 	addi	r23,r23,1
 2003f6c:	95bff404 	addi	r22,r18,-48
 2003f70:	9dbff92e 	bgeu	r19,r22,2003f58 <__alt_mem_epcs_flash_controller+0xfdffaf58>
 2003f74:	2007883a 	mov	r3,r4
 2003f78:	20044316 	blt	r4,zero,2005088 <___vfprintf_internal_r+0x1910>
 2003f7c:	b82b883a 	mov	r21,r23
 2003f80:	003e5a06 	br	20038ec <__alt_mem_epcs_flash_controller+0xfdffa8ec>
 2003f84:	ac800007 	ldb	r18,0(r21)
 2003f88:	01001b04 	movi	r4,108
 2003f8c:	a805883a 	mov	r2,r21
 2003f90:	91045526 	beq	r18,r4,20050e8 <___vfprintf_internal_r+0x1970>
 2003f94:	84000414 	ori	r16,r16,16
 2003f98:	003e5306 	br	20038e8 <__alt_mem_epcs_flash_controller+0xfdffa8e8>
 2003f9c:	8080080c 	andi	r2,r16,32
 2003fa0:	e013883a 	mov	r9,fp
 2003fa4:	10034026 	beq	r2,zero,2004ca8 <___vfprintf_internal_r+0x1530>
 2003fa8:	d9012d17 	ldw	r4,1204(sp)
 2003fac:	20800017 	ldw	r2,0(r4)
 2003fb0:	d9012c17 	ldw	r4,1200(sp)
 2003fb4:	2007d7fa 	srai	r3,r4,31
 2003fb8:	d9012d17 	ldw	r4,1204(sp)
 2003fbc:	10c00115 	stw	r3,4(r2)
 2003fc0:	21000104 	addi	r4,r4,4
 2003fc4:	d9012d15 	stw	r4,1204(sp)
 2003fc8:	d9012c17 	ldw	r4,1200(sp)
 2003fcc:	11000015 	stw	r4,0(r2)
 2003fd0:	003e1f06 	br	2003850 <__alt_mem_epcs_flash_controller+0xfdffa850>
 2003fd4:	d9012d17 	ldw	r4,1204(sp)
 2003fd8:	21000017 	ldw	r4,0(r4)
 2003fdc:	d9012e15 	stw	r4,1208(sp)
 2003fe0:	d9012d17 	ldw	r4,1204(sp)
 2003fe4:	20800104 	addi	r2,r4,4
 2003fe8:	d9012e17 	ldw	r4,1208(sp)
 2003fec:	203ee716 	blt	r4,zero,2003b8c <__alt_mem_epcs_flash_controller+0xfdffab8c>
 2003ff0:	d8812d15 	stw	r2,1204(sp)
 2003ff4:	ac800007 	ldb	r18,0(r21)
 2003ff8:	003e3b06 	br	20038e8 <__alt_mem_epcs_flash_controller+0xfdffa8e8>
 2003ffc:	e013883a 	mov	r9,fp
 2004000:	1839883a 	mov	fp,r3
 2004004:	d8c12d17 	ldw	r3,1204(sp)
 2004008:	00800c04 	movi	r2,48
 200400c:	01008234 	movhi	r4,520
 2004010:	211b5a04 	addi	r4,r4,28008
 2004014:	1dc00017 	ldw	r23,0(r3)
 2004018:	18c00104 	addi	r3,r3,4
 200401c:	d8812505 	stb	r2,1172(sp)
 2004020:	00801e04 	movi	r2,120
 2004024:	d8812545 	stb	r2,1173(sp)
 2004028:	d8c12d15 	stw	r3,1204(sp)
 200402c:	002d883a 	mov	r22,zero
 2004030:	84000094 	ori	r16,r16,2
 2004034:	d9013615 	stw	r4,1240(sp)
 2004038:	00c00084 	movi	r3,2
 200403c:	04801e04 	movi	r18,120
 2004040:	b805883a 	mov	r2,r23
 2004044:	d8012585 	stb	zero,1174(sp)
 2004048:	003f4406 	br	2003d5c <__alt_mem_epcs_flash_controller+0xfdffad5c>
 200404c:	84000814 	ori	r16,r16,32
 2004050:	ac800007 	ldb	r18,0(r21)
 2004054:	003e2406 	br	20038e8 <__alt_mem_epcs_flash_controller+0xfdffa8e8>
 2004058:	d8812d17 	ldw	r2,1204(sp)
 200405c:	d8012585 	stb	zero,1174(sp)
 2004060:	e013883a 	mov	r9,fp
 2004064:	14c00017 	ldw	r19,0(r2)
 2004068:	1839883a 	mov	fp,r3
 200406c:	15c00104 	addi	r23,r2,4
 2004070:	98045526 	beq	r19,zero,20051c8 <___vfprintf_internal_r+0x1a50>
 2004074:	9809883a 	mov	r4,r19
 2004078:	18043116 	blt	r3,zero,2005140 <___vfprintf_internal_r+0x19c8>
 200407c:	000b883a 	mov	r5,zero
 2004080:	180d883a 	mov	r6,r3
 2004084:	da413c15 	stw	r9,1264(sp)
 2004088:	20099080 	call	2009908 <memchr>
 200408c:	da413c17 	ldw	r9,1264(sp)
 2004090:	10047a26 	beq	r2,zero,200527c <___vfprintf_internal_r+0x1b04>
 2004094:	14c5c83a 	sub	r2,r2,r19
 2004098:	d8812b15 	stw	r2,1196(sp)
 200409c:	e083d40e 	bge	fp,r2,2004ff0 <___vfprintf_internal_r+0x1878>
 20040a0:	df012815 	stw	fp,1184(sp)
 20040a4:	e004e416 	blt	fp,zero,2005438 <___vfprintf_internal_r+0x1cc0>
 20040a8:	d8812583 	ldbu	r2,1174(sp)
 20040ac:	df012b15 	stw	fp,1196(sp)
 20040b0:	ddc12d15 	stw	r23,1204(sp)
 20040b4:	d8013115 	stw	zero,1220(sp)
 20040b8:	003f3c06 	br	2003dac <__alt_mem_epcs_flash_controller+0xfdffadac>
 20040bc:	00808234 	movhi	r2,520
 20040c0:	109b5a04 	addi	r2,r2,28008
 20040c4:	d8813615 	stw	r2,1240(sp)
 20040c8:	8080080c 	andi	r2,r16,32
 20040cc:	e013883a 	mov	r9,fp
 20040d0:	1839883a 	mov	fp,r3
 20040d4:	103f891e 	bne	r2,zero,2003efc <__alt_mem_epcs_flash_controller+0xfdffaefc>
 20040d8:	8080040c 	andi	r2,r16,16
 20040dc:	1002c326 	beq	r2,zero,2004bec <___vfprintf_internal_r+0x1474>
 20040e0:	d8812d17 	ldw	r2,1204(sp)
 20040e4:	002d883a 	mov	r22,zero
 20040e8:	15c00017 	ldw	r23,0(r2)
 20040ec:	10800104 	addi	r2,r2,4
 20040f0:	d8812d15 	stw	r2,1204(sp)
 20040f4:	003f8606 	br	2003f10 <__alt_mem_epcs_flash_controller+0xfdffaf10>
 20040f8:	84001014 	ori	r16,r16,64
 20040fc:	ac800007 	ldb	r18,0(r21)
 2004100:	003df906 	br	20038e8 <__alt_mem_epcs_flash_controller+0xfdffa8e8>
 2004104:	d8812587 	ldb	r2,1174(sp)
 2004108:	1002e51e 	bne	r2,zero,2004ca0 <___vfprintf_internal_r+0x1528>
 200410c:	00800804 	movi	r2,32
 2004110:	d8812585 	stb	r2,1174(sp)
 2004114:	ac800007 	ldb	r18,0(r21)
 2004118:	003df306 	br	20038e8 <__alt_mem_epcs_flash_controller+0xfdffa8e8>
 200411c:	84000054 	ori	r16,r16,1
 2004120:	ac800007 	ldb	r18,0(r21)
 2004124:	003df006 	br	20038e8 <__alt_mem_epcs_flash_controller+0xfdffa8e8>
 2004128:	84002014 	ori	r16,r16,128
 200412c:	ac800007 	ldb	r18,0(r21)
 2004130:	003ded06 	br	20038e8 <__alt_mem_epcs_flash_controller+0xfdffa8e8>
 2004134:	0009883a 	mov	r4,zero
 2004138:	95bff404 	addi	r22,r18,-48
 200413c:	182f883a 	mov	r23,r3
 2004140:	01400284 	movi	r5,10
 2004144:	2001f500 	call	2001f50 <__mulsi3>
 2004148:	ac800007 	ldb	r18,0(r21)
 200414c:	1589883a 	add	r4,r2,r22
 2004150:	ad400044 	addi	r21,r21,1
 2004154:	95bff404 	addi	r22,r18,-48
 2004158:	9dbff92e 	bgeu	r19,r22,2004140 <__alt_mem_epcs_flash_controller+0xfdffb140>
 200415c:	b807883a 	mov	r3,r23
 2004160:	d9012e15 	stw	r4,1208(sp)
 2004164:	003de106 	br	20038ec <__alt_mem_epcs_flash_controller+0xfdffa8ec>
 2004168:	00800ac4 	movi	r2,43
 200416c:	d8812585 	stb	r2,1174(sp)
 2004170:	ac800007 	ldb	r18,0(r21)
 2004174:	003ddc06 	br	20038e8 <__alt_mem_epcs_flash_controller+0xfdffa8e8>
 2004178:	d8c12d17 	ldw	r3,1204(sp)
 200417c:	d9012d17 	ldw	r4,1204(sp)
 2004180:	e013883a 	mov	r9,fp
 2004184:	18800017 	ldw	r2,0(r3)
 2004188:	21000104 	addi	r4,r4,4
 200418c:	00c00044 	movi	r3,1
 2004190:	d8c12815 	stw	r3,1184(sp)
 2004194:	d8012585 	stb	zero,1174(sp)
 2004198:	d8810405 	stb	r2,1040(sp)
 200419c:	d9012d15 	stw	r4,1204(sp)
 20041a0:	d8c12b15 	stw	r3,1196(sp)
 20041a4:	dcc10404 	addi	r19,sp,1040
 20041a8:	003dda06 	br	2003914 <__alt_mem_epcs_flash_controller+0xfdffa914>
 20041ac:	e013883a 	mov	r9,fp
 20041b0:	1839883a 	mov	fp,r3
 20041b4:	003ed806 	br	2003d18 <__alt_mem_epcs_flash_controller+0xfdffad18>
 20041b8:	e013883a 	mov	r9,fp
 20041bc:	1839883a 	mov	fp,r3
 20041c0:	003f2d06 	br	2003e78 <__alt_mem_epcs_flash_controller+0xfdffae78>
 20041c4:	e013883a 	mov	r9,fp
 20041c8:	1839883a 	mov	fp,r3
 20041cc:	003f3806 	br	2003eb0 <__alt_mem_epcs_flash_controller+0xfdffaeb0>
 20041d0:	da011d17 	ldw	r8,1140(sp)
 20041d4:	d8c11c17 	ldw	r3,1136(sp)
 20041d8:	d8812587 	ldb	r2,1174(sp)
 20041dc:	10000b26 	beq	r2,zero,200420c <___vfprintf_internal_r+0xa94>
 20041e0:	d8812584 	addi	r2,sp,1174
 20041e4:	48800015 	stw	r2,0(r9)
 20041e8:	00800044 	movi	r2,1
 20041ec:	48800115 	stw	r2,4(r9)
 20041f0:	4091883a 	add	r8,r8,r2
 20041f4:	1887883a 	add	r3,r3,r2
 20041f8:	da011d15 	stw	r8,1140(sp)
 20041fc:	d8c11c15 	stw	r3,1136(sp)
 2004200:	008001c4 	movi	r2,7
 2004204:	10c18e16 	blt	r2,r3,2004840 <___vfprintf_internal_r+0x10c8>
 2004208:	4a400204 	addi	r9,r9,8
 200420c:	d9012a17 	ldw	r4,1192(sp)
 2004210:	20000b26 	beq	r4,zero,2004240 <___vfprintf_internal_r+0xac8>
 2004214:	d8812504 	addi	r2,sp,1172
 2004218:	48800015 	stw	r2,0(r9)
 200421c:	00800084 	movi	r2,2
 2004220:	48800115 	stw	r2,4(r9)
 2004224:	4091883a 	add	r8,r8,r2
 2004228:	18c00044 	addi	r3,r3,1
 200422c:	da011d15 	stw	r8,1140(sp)
 2004230:	d8c11c15 	stw	r3,1136(sp)
 2004234:	008001c4 	movi	r2,7
 2004238:	10c17816 	blt	r2,r3,200481c <___vfprintf_internal_r+0x10a4>
 200423c:	4a400204 	addi	r9,r9,8
 2004240:	d9012f17 	ldw	r4,1212(sp)
 2004244:	00802004 	movi	r2,128
 2004248:	2080fc26 	beq	r4,r2,200463c <___vfprintf_internal_r+0xec4>
 200424c:	d8813117 	ldw	r2,1220(sp)
 2004250:	d9012b17 	ldw	r4,1196(sp)
 2004254:	112fc83a 	sub	r23,r2,r4
 2004258:	05c02a0e 	bge	zero,r23,2004304 <___vfprintf_internal_r+0xb8c>
 200425c:	07000404 	movi	fp,16
 2004260:	05008234 	movhi	r20,520
 2004264:	a51b6584 	addi	r20,r20,28054
 2004268:	e5c01d0e 	bge	fp,r23,20042e0 <___vfprintf_internal_r+0xb68>
 200426c:	dc812a15 	stw	r18,1192(sp)
 2004270:	058001c4 	movi	r22,7
 2004274:	a025883a 	mov	r18,r20
 2004278:	8029883a 	mov	r20,r16
 200427c:	dc012917 	ldw	r16,1188(sp)
 2004280:	00000306 	br	2004290 <___vfprintf_internal_r+0xb18>
 2004284:	bdfffc04 	addi	r23,r23,-16
 2004288:	4a400204 	addi	r9,r9,8
 200428c:	e5c0110e 	bge	fp,r23,20042d4 <___vfprintf_internal_r+0xb5c>
 2004290:	4c800015 	stw	r18,0(r9)
 2004294:	4f000115 	stw	fp,4(r9)
 2004298:	42000404 	addi	r8,r8,16
 200429c:	18c00044 	addi	r3,r3,1
 20042a0:	da011d15 	stw	r8,1140(sp)
 20042a4:	d8c11c15 	stw	r3,1136(sp)
 20042a8:	b0fff60e 	bge	r22,r3,2004284 <__alt_mem_epcs_flash_controller+0xfdffb284>
 20042ac:	8809883a 	mov	r4,r17
 20042b0:	800b883a 	mov	r5,r16
 20042b4:	d9811b04 	addi	r6,sp,1132
 20042b8:	20037440 	call	2003744 <__sprint_r>
 20042bc:	103e741e 	bne	r2,zero,2003c90 <__alt_mem_epcs_flash_controller+0xfdffac90>
 20042c0:	bdfffc04 	addi	r23,r23,-16
 20042c4:	da011d17 	ldw	r8,1140(sp)
 20042c8:	d8c11c17 	ldw	r3,1136(sp)
 20042cc:	da400404 	addi	r9,sp,16
 20042d0:	e5ffef16 	blt	fp,r23,2004290 <__alt_mem_epcs_flash_controller+0xfdffb290>
 20042d4:	a021883a 	mov	r16,r20
 20042d8:	9029883a 	mov	r20,r18
 20042dc:	dc812a17 	ldw	r18,1192(sp)
 20042e0:	4d000015 	stw	r20,0(r9)
 20042e4:	4dc00115 	stw	r23,4(r9)
 20042e8:	45d1883a 	add	r8,r8,r23
 20042ec:	18c00044 	addi	r3,r3,1
 20042f0:	da011d15 	stw	r8,1140(sp)
 20042f4:	d8c11c15 	stw	r3,1136(sp)
 20042f8:	008001c4 	movi	r2,7
 20042fc:	10c13e16 	blt	r2,r3,20047f8 <___vfprintf_internal_r+0x1080>
 2004300:	4a400204 	addi	r9,r9,8
 2004304:	8080400c 	andi	r2,r16,256
 2004308:	1000831e 	bne	r2,zero,2004518 <___vfprintf_internal_r+0xda0>
 200430c:	d8812b17 	ldw	r2,1196(sp)
 2004310:	4cc00015 	stw	r19,0(r9)
 2004314:	48800115 	stw	r2,4(r9)
 2004318:	4091883a 	add	r8,r8,r2
 200431c:	18c00044 	addi	r3,r3,1
 2004320:	da011d15 	stw	r8,1140(sp)
 2004324:	d8c11c15 	stw	r3,1136(sp)
 2004328:	008001c4 	movi	r2,7
 200432c:	10c05316 	blt	r2,r3,200447c <___vfprintf_internal_r+0xd04>
 2004330:	4a400204 	addi	r9,r9,8
 2004334:	8400010c 	andi	r16,r16,4
 2004338:	80002e26 	beq	r16,zero,20043f4 <___vfprintf_internal_r+0xc7c>
 200433c:	d8812e17 	ldw	r2,1208(sp)
 2004340:	d8c12817 	ldw	r3,1184(sp)
 2004344:	10e1c83a 	sub	r16,r2,r3
 2004348:	04002a0e 	bge	zero,r16,20043f4 <___vfprintf_internal_r+0xc7c>
 200434c:	04800404 	movi	r18,16
 2004350:	d8c11c17 	ldw	r3,1136(sp)
 2004354:	05c08234 	movhi	r23,520
 2004358:	bddb6184 	addi	r23,r23,28038
 200435c:	9400170e 	bge	r18,r16,20043bc <___vfprintf_internal_r+0xc44>
 2004360:	04c001c4 	movi	r19,7
 2004364:	dd012917 	ldw	r20,1188(sp)
 2004368:	00000306 	br	2004378 <___vfprintf_internal_r+0xc00>
 200436c:	843ffc04 	addi	r16,r16,-16
 2004370:	4a400204 	addi	r9,r9,8
 2004374:	9400110e 	bge	r18,r16,20043bc <___vfprintf_internal_r+0xc44>
 2004378:	4dc00015 	stw	r23,0(r9)
 200437c:	4c800115 	stw	r18,4(r9)
 2004380:	42000404 	addi	r8,r8,16
 2004384:	18c00044 	addi	r3,r3,1
 2004388:	da011d15 	stw	r8,1140(sp)
 200438c:	d8c11c15 	stw	r3,1136(sp)
 2004390:	98fff60e 	bge	r19,r3,200436c <__alt_mem_epcs_flash_controller+0xfdffb36c>
 2004394:	8809883a 	mov	r4,r17
 2004398:	a00b883a 	mov	r5,r20
 200439c:	d9811b04 	addi	r6,sp,1132
 20043a0:	20037440 	call	2003744 <__sprint_r>
 20043a4:	103e3a1e 	bne	r2,zero,2003c90 <__alt_mem_epcs_flash_controller+0xfdffac90>
 20043a8:	843ffc04 	addi	r16,r16,-16
 20043ac:	da011d17 	ldw	r8,1140(sp)
 20043b0:	d8c11c17 	ldw	r3,1136(sp)
 20043b4:	da400404 	addi	r9,sp,16
 20043b8:	943fef16 	blt	r18,r16,2004378 <__alt_mem_epcs_flash_controller+0xfdffb378>
 20043bc:	4dc00015 	stw	r23,0(r9)
 20043c0:	4c000115 	stw	r16,4(r9)
 20043c4:	8211883a 	add	r8,r16,r8
 20043c8:	18c00044 	addi	r3,r3,1
 20043cc:	da011d15 	stw	r8,1140(sp)
 20043d0:	d8c11c15 	stw	r3,1136(sp)
 20043d4:	008001c4 	movi	r2,7
 20043d8:	10c0060e 	bge	r2,r3,20043f4 <___vfprintf_internal_r+0xc7c>
 20043dc:	d9412917 	ldw	r5,1188(sp)
 20043e0:	8809883a 	mov	r4,r17
 20043e4:	d9811b04 	addi	r6,sp,1132
 20043e8:	20037440 	call	2003744 <__sprint_r>
 20043ec:	103e281e 	bne	r2,zero,2003c90 <__alt_mem_epcs_flash_controller+0xfdffac90>
 20043f0:	da011d17 	ldw	r8,1140(sp)
 20043f4:	dd012817 	ldw	r20,1184(sp)
 20043f8:	d9012e17 	ldw	r4,1208(sp)
 20043fc:	a100010e 	bge	r20,r4,2004404 <___vfprintf_internal_r+0xc8c>
 2004400:	2029883a 	mov	r20,r4
 2004404:	d8812c17 	ldw	r2,1200(sp)
 2004408:	1505883a 	add	r2,r2,r20
 200440c:	d8812c15 	stw	r2,1200(sp)
 2004410:	4000b91e 	bne	r8,zero,20046f8 <___vfprintf_internal_r+0xf80>
 2004414:	d8011c15 	stw	zero,1136(sp)
 2004418:	a8800007 	ldb	r2,0(r21)
 200441c:	da400404 	addi	r9,sp,16
 2004420:	103d0d1e 	bne	r2,zero,2003858 <__alt_mem_epcs_flash_controller+0xfdffa858>
 2004424:	a825883a 	mov	r18,r21
 2004428:	003d2306 	br	20038b8 <__alt_mem_epcs_flash_controller+0xfdffa8b8>
 200442c:	d9412917 	ldw	r5,1188(sp)
 2004430:	8809883a 	mov	r4,r17
 2004434:	d9811b04 	addi	r6,sp,1132
 2004438:	20037440 	call	2003744 <__sprint_r>
 200443c:	103e141e 	bne	r2,zero,2003c90 <__alt_mem_epcs_flash_controller+0xfdffac90>
 2004440:	da011d17 	ldw	r8,1140(sp)
 2004444:	da400404 	addi	r9,sp,16
 2004448:	8080004c 	andi	r2,r16,1
 200444c:	103fb926 	beq	r2,zero,2004334 <__alt_mem_epcs_flash_controller+0xfdffb334>
 2004450:	d8c11c17 	ldw	r3,1136(sp)
 2004454:	d9013717 	ldw	r4,1244(sp)
 2004458:	00800044 	movi	r2,1
 200445c:	48800115 	stw	r2,4(r9)
 2004460:	49000015 	stw	r4,0(r9)
 2004464:	4091883a 	add	r8,r8,r2
 2004468:	1887883a 	add	r3,r3,r2
 200446c:	da011d15 	stw	r8,1140(sp)
 2004470:	d8c11c15 	stw	r3,1136(sp)
 2004474:	008001c4 	movi	r2,7
 2004478:	10ffad0e 	bge	r2,r3,2004330 <__alt_mem_epcs_flash_controller+0xfdffb330>
 200447c:	d9412917 	ldw	r5,1188(sp)
 2004480:	8809883a 	mov	r4,r17
 2004484:	d9811b04 	addi	r6,sp,1132
 2004488:	20037440 	call	2003744 <__sprint_r>
 200448c:	103e001e 	bne	r2,zero,2003c90 <__alt_mem_epcs_flash_controller+0xfdffac90>
 2004490:	da400404 	addi	r9,sp,16
 2004494:	da011d17 	ldw	r8,1140(sp)
 2004498:	003fa606 	br	2004334 <__alt_mem_epcs_flash_controller+0xfdffb334>
 200449c:	18803fcc 	andi	r2,r3,255
 20044a0:	00c00044 	movi	r3,1
 20044a4:	10c10126 	beq	r2,r3,20048ac <___vfprintf_internal_r+0x1134>
 20044a8:	00c00084 	movi	r3,2
 20044ac:	10c0ed26 	beq	r2,r3,2004864 <___vfprintf_internal_r+0x10ec>
 20044b0:	d8c10dc4 	addi	r3,sp,1079
 20044b4:	b808d0fa 	srli	r4,r23,3
 20044b8:	b00a977a 	slli	r5,r22,29
 20044bc:	b02cd0fa 	srli	r22,r22,3
 20044c0:	bdc001cc 	andi	r23,r23,7
 20044c4:	b8800c04 	addi	r2,r23,48
 20044c8:	292eb03a 	or	r23,r5,r4
 20044cc:	18800005 	stb	r2,0(r3)
 20044d0:	bd88b03a 	or	r4,r23,r22
 20044d4:	1827883a 	mov	r19,r3
 20044d8:	18ffffc4 	addi	r3,r3,-1
 20044dc:	203ff51e 	bne	r4,zero,20044b4 <__alt_mem_epcs_flash_controller+0xfdffb4b4>
 20044e0:	8100004c 	andi	r4,r16,1
 20044e4:	980b883a 	mov	r5,r19
 20044e8:	20000726 	beq	r4,zero,2004508 <___vfprintf_internal_r+0xd90>
 20044ec:	10803fcc 	andi	r2,r2,255
 20044f0:	1080201c 	xori	r2,r2,128
 20044f4:	10bfe004 	addi	r2,r2,-128
 20044f8:	01000c04 	movi	r4,48
 20044fc:	11000226 	beq	r2,r4,2004508 <___vfprintf_internal_r+0xd90>
 2004500:	1827883a 	mov	r19,r3
 2004504:	293fffc5 	stb	r4,-1(r5)
 2004508:	d8812717 	ldw	r2,1180(sp)
 200450c:	14c5c83a 	sub	r2,r2,r19
 2004510:	d8812b15 	stw	r2,1196(sp)
 2004514:	003e1f06 	br	2003d94 <__alt_mem_epcs_flash_controller+0xfdffad94>
 2004518:	00801944 	movi	r2,101
 200451c:	14807c0e 	bge	r2,r18,2004710 <___vfprintf_internal_r+0xf98>
 2004520:	d9013317 	ldw	r4,1228(sp)
 2004524:	d9413417 	ldw	r5,1232(sp)
 2004528:	000d883a 	mov	r6,zero
 200452c:	000f883a 	mov	r7,zero
 2004530:	d8c13b15 	stw	r3,1260(sp)
 2004534:	da013a15 	stw	r8,1256(sp)
 2004538:	da413c15 	stw	r9,1264(sp)
 200453c:	200fd040 	call	200fd04 <__nedf2>
 2004540:	d8c13b17 	ldw	r3,1260(sp)
 2004544:	da013a17 	ldw	r8,1256(sp)
 2004548:	da413c17 	ldw	r9,1264(sp)
 200454c:	1001001e 	bne	r2,zero,2004950 <___vfprintf_internal_r+0x11d8>
 2004550:	00808234 	movhi	r2,520
 2004554:	109b6104 	addi	r2,r2,28036
 2004558:	48800015 	stw	r2,0(r9)
 200455c:	00800044 	movi	r2,1
 2004560:	48800115 	stw	r2,4(r9)
 2004564:	4091883a 	add	r8,r8,r2
 2004568:	1887883a 	add	r3,r3,r2
 200456c:	da011d15 	stw	r8,1140(sp)
 2004570:	d8c11c15 	stw	r3,1136(sp)
 2004574:	008001c4 	movi	r2,7
 2004578:	10c20316 	blt	r2,r3,2004d88 <___vfprintf_internal_r+0x1610>
 200457c:	4a400204 	addi	r9,r9,8
 2004580:	d8812417 	ldw	r2,1168(sp)
 2004584:	d8c13217 	ldw	r3,1224(sp)
 2004588:	10c00216 	blt	r2,r3,2004594 <___vfprintf_internal_r+0xe1c>
 200458c:	8080004c 	andi	r2,r16,1
 2004590:	103f6826 	beq	r2,zero,2004334 <__alt_mem_epcs_flash_controller+0xfdffb334>
 2004594:	d8c11c17 	ldw	r3,1136(sp)
 2004598:	d9013717 	ldw	r4,1244(sp)
 200459c:	00800044 	movi	r2,1
 20045a0:	48800115 	stw	r2,4(r9)
 20045a4:	49000015 	stw	r4,0(r9)
 20045a8:	4091883a 	add	r8,r8,r2
 20045ac:	1887883a 	add	r3,r3,r2
 20045b0:	da011d15 	stw	r8,1140(sp)
 20045b4:	d8c11c15 	stw	r3,1136(sp)
 20045b8:	008001c4 	movi	r2,7
 20045bc:	10c2ce16 	blt	r2,r3,20050f8 <___vfprintf_internal_r+0x1980>
 20045c0:	4a400204 	addi	r9,r9,8
 20045c4:	d8813217 	ldw	r2,1224(sp)
 20045c8:	14bfffc4 	addi	r18,r2,-1
 20045cc:	04bf590e 	bge	zero,r18,2004334 <__alt_mem_epcs_flash_controller+0xfdffb334>
 20045d0:	04c00404 	movi	r19,16
 20045d4:	d8c11c17 	ldw	r3,1136(sp)
 20045d8:	05008234 	movhi	r20,520
 20045dc:	a51b6584 	addi	r20,r20,28054
 20045e0:	9c818a0e 	bge	r19,r18,2004c0c <___vfprintf_internal_r+0x1494>
 20045e4:	058001c4 	movi	r22,7
 20045e8:	ddc12917 	ldw	r23,1188(sp)
 20045ec:	00000306 	br	20045fc <___vfprintf_internal_r+0xe84>
 20045f0:	4a400204 	addi	r9,r9,8
 20045f4:	94bffc04 	addi	r18,r18,-16
 20045f8:	9c81840e 	bge	r19,r18,2004c0c <___vfprintf_internal_r+0x1494>
 20045fc:	4d000015 	stw	r20,0(r9)
 2004600:	4cc00115 	stw	r19,4(r9)
 2004604:	42000404 	addi	r8,r8,16
 2004608:	18c00044 	addi	r3,r3,1
 200460c:	da011d15 	stw	r8,1140(sp)
 2004610:	d8c11c15 	stw	r3,1136(sp)
 2004614:	b0fff60e 	bge	r22,r3,20045f0 <__alt_mem_epcs_flash_controller+0xfdffb5f0>
 2004618:	8809883a 	mov	r4,r17
 200461c:	b80b883a 	mov	r5,r23
 2004620:	d9811b04 	addi	r6,sp,1132
 2004624:	20037440 	call	2003744 <__sprint_r>
 2004628:	103d991e 	bne	r2,zero,2003c90 <__alt_mem_epcs_flash_controller+0xfdffac90>
 200462c:	da011d17 	ldw	r8,1140(sp)
 2004630:	d8c11c17 	ldw	r3,1136(sp)
 2004634:	da400404 	addi	r9,sp,16
 2004638:	003fee06 	br	20045f4 <__alt_mem_epcs_flash_controller+0xfdffb5f4>
 200463c:	d8812e17 	ldw	r2,1208(sp)
 2004640:	d9012817 	ldw	r4,1184(sp)
 2004644:	112fc83a 	sub	r23,r2,r4
 2004648:	05ff000e 	bge	zero,r23,200424c <__alt_mem_epcs_flash_controller+0xfdffb24c>
 200464c:	07000404 	movi	fp,16
 2004650:	05008234 	movhi	r20,520
 2004654:	a51b6584 	addi	r20,r20,28054
 2004658:	e5c01d0e 	bge	fp,r23,20046d0 <___vfprintf_internal_r+0xf58>
 200465c:	dc812a15 	stw	r18,1192(sp)
 2004660:	058001c4 	movi	r22,7
 2004664:	a025883a 	mov	r18,r20
 2004668:	8029883a 	mov	r20,r16
 200466c:	dc012917 	ldw	r16,1188(sp)
 2004670:	00000306 	br	2004680 <___vfprintf_internal_r+0xf08>
 2004674:	bdfffc04 	addi	r23,r23,-16
 2004678:	4a400204 	addi	r9,r9,8
 200467c:	e5c0110e 	bge	fp,r23,20046c4 <___vfprintf_internal_r+0xf4c>
 2004680:	4c800015 	stw	r18,0(r9)
 2004684:	4f000115 	stw	fp,4(r9)
 2004688:	42000404 	addi	r8,r8,16
 200468c:	18c00044 	addi	r3,r3,1
 2004690:	da011d15 	stw	r8,1140(sp)
 2004694:	d8c11c15 	stw	r3,1136(sp)
 2004698:	b0fff60e 	bge	r22,r3,2004674 <__alt_mem_epcs_flash_controller+0xfdffb674>
 200469c:	8809883a 	mov	r4,r17
 20046a0:	800b883a 	mov	r5,r16
 20046a4:	d9811b04 	addi	r6,sp,1132
 20046a8:	20037440 	call	2003744 <__sprint_r>
 20046ac:	103d781e 	bne	r2,zero,2003c90 <__alt_mem_epcs_flash_controller+0xfdffac90>
 20046b0:	bdfffc04 	addi	r23,r23,-16
 20046b4:	da011d17 	ldw	r8,1140(sp)
 20046b8:	d8c11c17 	ldw	r3,1136(sp)
 20046bc:	da400404 	addi	r9,sp,16
 20046c0:	e5ffef16 	blt	fp,r23,2004680 <__alt_mem_epcs_flash_controller+0xfdffb680>
 20046c4:	a021883a 	mov	r16,r20
 20046c8:	9029883a 	mov	r20,r18
 20046cc:	dc812a17 	ldw	r18,1192(sp)
 20046d0:	4d000015 	stw	r20,0(r9)
 20046d4:	4dc00115 	stw	r23,4(r9)
 20046d8:	45d1883a 	add	r8,r8,r23
 20046dc:	18c00044 	addi	r3,r3,1
 20046e0:	da011d15 	stw	r8,1140(sp)
 20046e4:	d8c11c15 	stw	r3,1136(sp)
 20046e8:	008001c4 	movi	r2,7
 20046ec:	10c13616 	blt	r2,r3,2004bc8 <___vfprintf_internal_r+0x1450>
 20046f0:	4a400204 	addi	r9,r9,8
 20046f4:	003ed506 	br	200424c <__alt_mem_epcs_flash_controller+0xfdffb24c>
 20046f8:	d9412917 	ldw	r5,1188(sp)
 20046fc:	8809883a 	mov	r4,r17
 2004700:	d9811b04 	addi	r6,sp,1132
 2004704:	20037440 	call	2003744 <__sprint_r>
 2004708:	103f4226 	beq	r2,zero,2004414 <__alt_mem_epcs_flash_controller+0xfdffb414>
 200470c:	003d6006 	br	2003c90 <__alt_mem_epcs_flash_controller+0xfdffac90>
 2004710:	d9013217 	ldw	r4,1224(sp)
 2004714:	00800044 	movi	r2,1
 2004718:	4cc00015 	stw	r19,0(r9)
 200471c:	1101000e 	bge	r2,r4,2004b20 <___vfprintf_internal_r+0x13a8>
 2004720:	00800044 	movi	r2,1
 2004724:	48800115 	stw	r2,4(r9)
 2004728:	4091883a 	add	r8,r8,r2
 200472c:	1887883a 	add	r3,r3,r2
 2004730:	da011d15 	stw	r8,1140(sp)
 2004734:	d8c11c15 	stw	r3,1136(sp)
 2004738:	008001c4 	movi	r2,7
 200473c:	10c10c16 	blt	r2,r3,2004b70 <___vfprintf_internal_r+0x13f8>
 2004740:	4a400204 	addi	r9,r9,8
 2004744:	d8813717 	ldw	r2,1244(sp)
 2004748:	48800015 	stw	r2,0(r9)
 200474c:	00800044 	movi	r2,1
 2004750:	48800115 	stw	r2,4(r9)
 2004754:	4091883a 	add	r8,r8,r2
 2004758:	1887883a 	add	r3,r3,r2
 200475c:	da011d15 	stw	r8,1140(sp)
 2004760:	d8c11c15 	stw	r3,1136(sp)
 2004764:	008001c4 	movi	r2,7
 2004768:	10c10a16 	blt	r2,r3,2004b94 <___vfprintf_internal_r+0x141c>
 200476c:	4c800204 	addi	r18,r9,8
 2004770:	d9013317 	ldw	r4,1228(sp)
 2004774:	d9413417 	ldw	r5,1232(sp)
 2004778:	000d883a 	mov	r6,zero
 200477c:	000f883a 	mov	r7,zero
 2004780:	d8c13b15 	stw	r3,1260(sp)
 2004784:	da013a15 	stw	r8,1256(sp)
 2004788:	200fca80 	call	200fca8 <__eqdf2>
 200478c:	d8c13b17 	ldw	r3,1260(sp)
 2004790:	da013a17 	ldw	r8,1256(sp)
 2004794:	1000ba26 	beq	r2,zero,2004a80 <___vfprintf_internal_r+0x1308>
 2004798:	d9013217 	ldw	r4,1224(sp)
 200479c:	9cc00044 	addi	r19,r19,1
 20047a0:	94c00015 	stw	r19,0(r18)
 20047a4:	20bfffc4 	addi	r2,r4,-1
 20047a8:	90800115 	stw	r2,4(r18)
 20047ac:	4091883a 	add	r8,r8,r2
 20047b0:	18c00044 	addi	r3,r3,1
 20047b4:	da011d15 	stw	r8,1140(sp)
 20047b8:	d8c11c15 	stw	r3,1136(sp)
 20047bc:	008001c4 	movi	r2,7
 20047c0:	10c0e216 	blt	r2,r3,2004b4c <___vfprintf_internal_r+0x13d4>
 20047c4:	94800204 	addi	r18,r18,8
 20047c8:	d9013517 	ldw	r4,1236(sp)
 20047cc:	d8811fc4 	addi	r2,sp,1151
 20047d0:	90800015 	stw	r2,0(r18)
 20047d4:	91000115 	stw	r4,4(r18)
 20047d8:	4111883a 	add	r8,r8,r4
 20047dc:	18c00044 	addi	r3,r3,1
 20047e0:	da011d15 	stw	r8,1140(sp)
 20047e4:	d8c11c15 	stw	r3,1136(sp)
 20047e8:	008001c4 	movi	r2,7
 20047ec:	10ff2316 	blt	r2,r3,200447c <__alt_mem_epcs_flash_controller+0xfdffb47c>
 20047f0:	92400204 	addi	r9,r18,8
 20047f4:	003ecf06 	br	2004334 <__alt_mem_epcs_flash_controller+0xfdffb334>
 20047f8:	d9412917 	ldw	r5,1188(sp)
 20047fc:	8809883a 	mov	r4,r17
 2004800:	d9811b04 	addi	r6,sp,1132
 2004804:	20037440 	call	2003744 <__sprint_r>
 2004808:	103d211e 	bne	r2,zero,2003c90 <__alt_mem_epcs_flash_controller+0xfdffac90>
 200480c:	da011d17 	ldw	r8,1140(sp)
 2004810:	d8c11c17 	ldw	r3,1136(sp)
 2004814:	da400404 	addi	r9,sp,16
 2004818:	003eba06 	br	2004304 <__alt_mem_epcs_flash_controller+0xfdffb304>
 200481c:	d9412917 	ldw	r5,1188(sp)
 2004820:	8809883a 	mov	r4,r17
 2004824:	d9811b04 	addi	r6,sp,1132
 2004828:	20037440 	call	2003744 <__sprint_r>
 200482c:	103d181e 	bne	r2,zero,2003c90 <__alt_mem_epcs_flash_controller+0xfdffac90>
 2004830:	da011d17 	ldw	r8,1140(sp)
 2004834:	d8c11c17 	ldw	r3,1136(sp)
 2004838:	da400404 	addi	r9,sp,16
 200483c:	003e8006 	br	2004240 <__alt_mem_epcs_flash_controller+0xfdffb240>
 2004840:	d9412917 	ldw	r5,1188(sp)
 2004844:	8809883a 	mov	r4,r17
 2004848:	d9811b04 	addi	r6,sp,1132
 200484c:	20037440 	call	2003744 <__sprint_r>
 2004850:	103d0f1e 	bne	r2,zero,2003c90 <__alt_mem_epcs_flash_controller+0xfdffac90>
 2004854:	da011d17 	ldw	r8,1140(sp)
 2004858:	d8c11c17 	ldw	r3,1136(sp)
 200485c:	da400404 	addi	r9,sp,16
 2004860:	003e6a06 	br	200420c <__alt_mem_epcs_flash_controller+0xfdffb20c>
 2004864:	d9413617 	ldw	r5,1240(sp)
 2004868:	d8810dc4 	addi	r2,sp,1079
 200486c:	b8c003cc 	andi	r3,r23,15
 2004870:	b008973a 	slli	r4,r22,28
 2004874:	28c7883a 	add	r3,r5,r3
 2004878:	b82ed13a 	srli	r23,r23,4
 200487c:	18c00003 	ldbu	r3,0(r3)
 2004880:	b02cd13a 	srli	r22,r22,4
 2004884:	25eeb03a 	or	r23,r4,r23
 2004888:	10c00005 	stb	r3,0(r2)
 200488c:	bd86b03a 	or	r3,r23,r22
 2004890:	1027883a 	mov	r19,r2
 2004894:	10bfffc4 	addi	r2,r2,-1
 2004898:	183ff41e 	bne	r3,zero,200486c <__alt_mem_epcs_flash_controller+0xfdffb86c>
 200489c:	003f1a06 	br	2004508 <__alt_mem_epcs_flash_controller+0xfdffb508>
 20048a0:	d8012b15 	stw	zero,1196(sp)
 20048a4:	dcc10e04 	addi	r19,sp,1080
 20048a8:	003d3a06 	br	2003d94 <__alt_mem_epcs_flash_controller+0xfdffad94>
 20048ac:	b0025426 	beq	r22,zero,2005200 <___vfprintf_internal_r+0x1a88>
 20048b0:	b807883a 	mov	r3,r23
 20048b4:	d8810dc4 	addi	r2,sp,1079
 20048b8:	882f883a 	mov	r23,r17
 20048bc:	04c00244 	movi	r19,9
 20048c0:	8023883a 	mov	r17,r16
 20048c4:	da412815 	stw	r9,1184(sp)
 20048c8:	1821883a 	mov	r16,r3
 20048cc:	8009883a 	mov	r4,r16
 20048d0:	b00b883a 	mov	r5,r22
 20048d4:	01800284 	movi	r6,10
 20048d8:	000f883a 	mov	r7,zero
 20048dc:	1029883a 	mov	r20,r2
 20048e0:	200f1740 	call	200f174 <__umoddi3>
 20048e4:	10800c04 	addi	r2,r2,48
 20048e8:	8009883a 	mov	r4,r16
 20048ec:	b00b883a 	mov	r5,r22
 20048f0:	a0800005 	stb	r2,0(r20)
 20048f4:	01800284 	movi	r6,10
 20048f8:	000f883a 	mov	r7,zero
 20048fc:	200eb240 	call	200eb24 <__udivdi3>
 2004900:	1021883a 	mov	r16,r2
 2004904:	182d883a 	mov	r22,r3
 2004908:	a0bfffc4 	addi	r2,r20,-1
 200490c:	183fef1e 	bne	r3,zero,20048cc <__alt_mem_epcs_flash_controller+0xfdffb8cc>
 2004910:	9c3fee36 	bltu	r19,r16,20048cc <__alt_mem_epcs_flash_controller+0xfdffb8cc>
 2004914:	da412817 	ldw	r9,1184(sp)
 2004918:	8005883a 	mov	r2,r16
 200491c:	8821883a 	mov	r16,r17
 2004920:	b823883a 	mov	r17,r23
 2004924:	102f883a 	mov	r23,r2
 2004928:	d8812717 	ldw	r2,1180(sp)
 200492c:	a4ffffc4 	addi	r19,r20,-1
 2004930:	bdc00c04 	addi	r23,r23,48
 2004934:	14c5c83a 	sub	r2,r2,r19
 2004938:	a5ffffc5 	stb	r23,-1(r20)
 200493c:	d8812b15 	stw	r2,1196(sp)
 2004940:	003d1406 	br	2003d94 <__alt_mem_epcs_flash_controller+0xfdffad94>
 2004944:	00c00044 	movi	r3,1
 2004948:	bd84b03a 	or	r2,r23,r22
 200494c:	003d0306 	br	2003d5c <__alt_mem_epcs_flash_controller+0xfdffad5c>
 2004950:	dc812417 	ldw	r18,1168(sp)
 2004954:	0481140e 	bge	zero,r18,2004da8 <___vfprintf_internal_r+0x1630>
 2004958:	d9013217 	ldw	r4,1224(sp)
 200495c:	4cc00015 	stw	r19,0(r9)
 2004960:	9100ec16 	blt	r18,r4,2004d14 <___vfprintf_internal_r+0x159c>
 2004964:	49000115 	stw	r4,4(r9)
 2004968:	4111883a 	add	r8,r8,r4
 200496c:	18c00044 	addi	r3,r3,1
 2004970:	da011d15 	stw	r8,1140(sp)
 2004974:	d8c11c15 	stw	r3,1136(sp)
 2004978:	008001c4 	movi	r2,7
 200497c:	10c23616 	blt	r2,r3,2005258 <___vfprintf_internal_r+0x1ae0>
 2004980:	4a400204 	addi	r9,r9,8
 2004984:	d8813217 	ldw	r2,1224(sp)
 2004988:	90a5c83a 	sub	r18,r18,r2
 200498c:	04beae0e 	bge	zero,r18,2004448 <__alt_mem_epcs_flash_controller+0xfdffb448>
 2004990:	04c00404 	movi	r19,16
 2004994:	d8c11c17 	ldw	r3,1136(sp)
 2004998:	05008234 	movhi	r20,520
 200499c:	a51b6584 	addi	r20,r20,28054
 20049a0:	9c81dd0e 	bge	r19,r18,2005118 <___vfprintf_internal_r+0x19a0>
 20049a4:	058001c4 	movi	r22,7
 20049a8:	ddc12917 	ldw	r23,1188(sp)
 20049ac:	00000306 	br	20049bc <___vfprintf_internal_r+0x1244>
 20049b0:	4a400204 	addi	r9,r9,8
 20049b4:	94bffc04 	addi	r18,r18,-16
 20049b8:	9c81d70e 	bge	r19,r18,2005118 <___vfprintf_internal_r+0x19a0>
 20049bc:	4d000015 	stw	r20,0(r9)
 20049c0:	4cc00115 	stw	r19,4(r9)
 20049c4:	42000404 	addi	r8,r8,16
 20049c8:	18c00044 	addi	r3,r3,1
 20049cc:	da011d15 	stw	r8,1140(sp)
 20049d0:	d8c11c15 	stw	r3,1136(sp)
 20049d4:	b0fff60e 	bge	r22,r3,20049b0 <__alt_mem_epcs_flash_controller+0xfdffb9b0>
 20049d8:	8809883a 	mov	r4,r17
 20049dc:	b80b883a 	mov	r5,r23
 20049e0:	d9811b04 	addi	r6,sp,1132
 20049e4:	20037440 	call	2003744 <__sprint_r>
 20049e8:	103ca91e 	bne	r2,zero,2003c90 <__alt_mem_epcs_flash_controller+0xfdffac90>
 20049ec:	da011d17 	ldw	r8,1140(sp)
 20049f0:	d8c11c17 	ldw	r3,1136(sp)
 20049f4:	da400404 	addi	r9,sp,16
 20049f8:	003fee06 	br	20049b4 <__alt_mem_epcs_flash_controller+0xfdffb9b4>
 20049fc:	d9412917 	ldw	r5,1188(sp)
 2004a00:	8809883a 	mov	r4,r17
 2004a04:	d9811b04 	addi	r6,sp,1132
 2004a08:	20037440 	call	2003744 <__sprint_r>
 2004a0c:	103ca01e 	bne	r2,zero,2003c90 <__alt_mem_epcs_flash_controller+0xfdffac90>
 2004a10:	da011d17 	ldw	r8,1140(sp)
 2004a14:	d8c11c17 	ldw	r3,1136(sp)
 2004a18:	da400404 	addi	r9,sp,16
 2004a1c:	003dee06 	br	20041d8 <__alt_mem_epcs_flash_controller+0xfdffb1d8>
 2004a20:	00c00084 	movi	r3,2
 2004a24:	bd84b03a 	or	r2,r23,r22
 2004a28:	d8012585 	stb	zero,1174(sp)
 2004a2c:	003ccb06 	br	2003d5c <__alt_mem_epcs_flash_controller+0xfdffad5c>
 2004a30:	8080040c 	andi	r2,r16,16
 2004a34:	1000ae26 	beq	r2,zero,2004cf0 <___vfprintf_internal_r+0x1578>
 2004a38:	d9012d17 	ldw	r4,1204(sp)
 2004a3c:	25c00017 	ldw	r23,0(r4)
 2004a40:	21000104 	addi	r4,r4,4
 2004a44:	d9012d15 	stw	r4,1204(sp)
 2004a48:	b82dd7fa 	srai	r22,r23,31
 2004a4c:	b005883a 	mov	r2,r22
 2004a50:	003cb906 	br	2003d38 <__alt_mem_epcs_flash_controller+0xfdffad38>
 2004a54:	8080040c 	andi	r2,r16,16
 2004a58:	10007026 	beq	r2,zero,2004c1c <___vfprintf_internal_r+0x14a4>
 2004a5c:	d8812d17 	ldw	r2,1204(sp)
 2004a60:	002d883a 	mov	r22,zero
 2004a64:	00c00044 	movi	r3,1
 2004a68:	15c00017 	ldw	r23,0(r2)
 2004a6c:	10800104 	addi	r2,r2,4
 2004a70:	d8812d15 	stw	r2,1204(sp)
 2004a74:	d8012585 	stb	zero,1174(sp)
 2004a78:	b805883a 	mov	r2,r23
 2004a7c:	003cb706 	br	2003d5c <__alt_mem_epcs_flash_controller+0xfdffad5c>
 2004a80:	d8813217 	ldw	r2,1224(sp)
 2004a84:	14ffffc4 	addi	r19,r2,-1
 2004a88:	04ff4f0e 	bge	zero,r19,20047c8 <__alt_mem_epcs_flash_controller+0xfdffb7c8>
 2004a8c:	05800404 	movi	r22,16
 2004a90:	05008234 	movhi	r20,520
 2004a94:	a51b6584 	addi	r20,r20,28054
 2004a98:	b4c0470e 	bge	r22,r19,2004bb8 <___vfprintf_internal_r+0x1440>
 2004a9c:	05c001c4 	movi	r23,7
 2004aa0:	df012917 	ldw	fp,1188(sp)
 2004aa4:	00000306 	br	2004ab4 <___vfprintf_internal_r+0x133c>
 2004aa8:	94800204 	addi	r18,r18,8
 2004aac:	9cfffc04 	addi	r19,r19,-16
 2004ab0:	b4c0410e 	bge	r22,r19,2004bb8 <___vfprintf_internal_r+0x1440>
 2004ab4:	95000015 	stw	r20,0(r18)
 2004ab8:	95800115 	stw	r22,4(r18)
 2004abc:	42000404 	addi	r8,r8,16
 2004ac0:	18c00044 	addi	r3,r3,1
 2004ac4:	da011d15 	stw	r8,1140(sp)
 2004ac8:	d8c11c15 	stw	r3,1136(sp)
 2004acc:	b8fff60e 	bge	r23,r3,2004aa8 <__alt_mem_epcs_flash_controller+0xfdffbaa8>
 2004ad0:	8809883a 	mov	r4,r17
 2004ad4:	e00b883a 	mov	r5,fp
 2004ad8:	d9811b04 	addi	r6,sp,1132
 2004adc:	20037440 	call	2003744 <__sprint_r>
 2004ae0:	103c6b1e 	bne	r2,zero,2003c90 <__alt_mem_epcs_flash_controller+0xfdffac90>
 2004ae4:	da011d17 	ldw	r8,1140(sp)
 2004ae8:	d8c11c17 	ldw	r3,1136(sp)
 2004aec:	dc800404 	addi	r18,sp,16
 2004af0:	003fee06 	br	2004aac <__alt_mem_epcs_flash_controller+0xfdffbaac>
 2004af4:	8080040c 	andi	r2,r16,16
 2004af8:	10005326 	beq	r2,zero,2004c48 <___vfprintf_internal_r+0x14d0>
 2004afc:	d8c12d17 	ldw	r3,1204(sp)
 2004b00:	002d883a 	mov	r22,zero
 2004b04:	1dc00017 	ldw	r23,0(r3)
 2004b08:	18c00104 	addi	r3,r3,4
 2004b0c:	d8c12d15 	stw	r3,1204(sp)
 2004b10:	b805883a 	mov	r2,r23
 2004b14:	0007883a 	mov	r3,zero
 2004b18:	d8012585 	stb	zero,1174(sp)
 2004b1c:	003c8f06 	br	2003d5c <__alt_mem_epcs_flash_controller+0xfdffad5c>
 2004b20:	8088703a 	and	r4,r16,r2
 2004b24:	203efe1e 	bne	r4,zero,2004720 <__alt_mem_epcs_flash_controller+0xfdffb720>
 2004b28:	48800115 	stw	r2,4(r9)
 2004b2c:	42000044 	addi	r8,r8,1
 2004b30:	18c00044 	addi	r3,r3,1
 2004b34:	da011d15 	stw	r8,1140(sp)
 2004b38:	d8c11c15 	stw	r3,1136(sp)
 2004b3c:	008001c4 	movi	r2,7
 2004b40:	10c00216 	blt	r2,r3,2004b4c <___vfprintf_internal_r+0x13d4>
 2004b44:	4c800204 	addi	r18,r9,8
 2004b48:	003f1f06 	br	20047c8 <__alt_mem_epcs_flash_controller+0xfdffb7c8>
 2004b4c:	d9412917 	ldw	r5,1188(sp)
 2004b50:	8809883a 	mov	r4,r17
 2004b54:	d9811b04 	addi	r6,sp,1132
 2004b58:	20037440 	call	2003744 <__sprint_r>
 2004b5c:	103c4c1e 	bne	r2,zero,2003c90 <__alt_mem_epcs_flash_controller+0xfdffac90>
 2004b60:	dc800404 	addi	r18,sp,16
 2004b64:	da011d17 	ldw	r8,1140(sp)
 2004b68:	d8c11c17 	ldw	r3,1136(sp)
 2004b6c:	003f1606 	br	20047c8 <__alt_mem_epcs_flash_controller+0xfdffb7c8>
 2004b70:	d9412917 	ldw	r5,1188(sp)
 2004b74:	8809883a 	mov	r4,r17
 2004b78:	d9811b04 	addi	r6,sp,1132
 2004b7c:	20037440 	call	2003744 <__sprint_r>
 2004b80:	103c431e 	bne	r2,zero,2003c90 <__alt_mem_epcs_flash_controller+0xfdffac90>
 2004b84:	da011d17 	ldw	r8,1140(sp)
 2004b88:	d8c11c17 	ldw	r3,1136(sp)
 2004b8c:	da400404 	addi	r9,sp,16
 2004b90:	003eec06 	br	2004744 <__alt_mem_epcs_flash_controller+0xfdffb744>
 2004b94:	d9412917 	ldw	r5,1188(sp)
 2004b98:	8809883a 	mov	r4,r17
 2004b9c:	d9811b04 	addi	r6,sp,1132
 2004ba0:	20037440 	call	2003744 <__sprint_r>
 2004ba4:	103c3a1e 	bne	r2,zero,2003c90 <__alt_mem_epcs_flash_controller+0xfdffac90>
 2004ba8:	da011d17 	ldw	r8,1140(sp)
 2004bac:	d8c11c17 	ldw	r3,1136(sp)
 2004bb0:	dc800404 	addi	r18,sp,16
 2004bb4:	003eee06 	br	2004770 <__alt_mem_epcs_flash_controller+0xfdffb770>
 2004bb8:	95000015 	stw	r20,0(r18)
 2004bbc:	94c00115 	stw	r19,4(r18)
 2004bc0:	44d1883a 	add	r8,r8,r19
 2004bc4:	003efa06 	br	20047b0 <__alt_mem_epcs_flash_controller+0xfdffb7b0>
 2004bc8:	d9412917 	ldw	r5,1188(sp)
 2004bcc:	8809883a 	mov	r4,r17
 2004bd0:	d9811b04 	addi	r6,sp,1132
 2004bd4:	20037440 	call	2003744 <__sprint_r>
 2004bd8:	103c2d1e 	bne	r2,zero,2003c90 <__alt_mem_epcs_flash_controller+0xfdffac90>
 2004bdc:	da011d17 	ldw	r8,1140(sp)
 2004be0:	d8c11c17 	ldw	r3,1136(sp)
 2004be4:	da400404 	addi	r9,sp,16
 2004be8:	003d9806 	br	200424c <__alt_mem_epcs_flash_controller+0xfdffb24c>
 2004bec:	8080100c 	andi	r2,r16,64
 2004bf0:	10011626 	beq	r2,zero,200504c <___vfprintf_internal_r+0x18d4>
 2004bf4:	d8c12d17 	ldw	r3,1204(sp)
 2004bf8:	002d883a 	mov	r22,zero
 2004bfc:	1dc0000b 	ldhu	r23,0(r3)
 2004c00:	18c00104 	addi	r3,r3,4
 2004c04:	d8c12d15 	stw	r3,1204(sp)
 2004c08:	003cc106 	br	2003f10 <__alt_mem_epcs_flash_controller+0xfdffaf10>
 2004c0c:	4d000015 	stw	r20,0(r9)
 2004c10:	4c800115 	stw	r18,4(r9)
 2004c14:	4491883a 	add	r8,r8,r18
 2004c18:	003dc006 	br	200431c <__alt_mem_epcs_flash_controller+0xfdffb31c>
 2004c1c:	8080100c 	andi	r2,r16,64
 2004c20:	10010126 	beq	r2,zero,2005028 <___vfprintf_internal_r+0x18b0>
 2004c24:	d8c12d17 	ldw	r3,1204(sp)
 2004c28:	002d883a 	mov	r22,zero
 2004c2c:	1dc0000b 	ldhu	r23,0(r3)
 2004c30:	18c00104 	addi	r3,r3,4
 2004c34:	d8c12d15 	stw	r3,1204(sp)
 2004c38:	b805883a 	mov	r2,r23
 2004c3c:	00c00044 	movi	r3,1
 2004c40:	d8012585 	stb	zero,1174(sp)
 2004c44:	003c4506 	br	2003d5c <__alt_mem_epcs_flash_controller+0xfdffad5c>
 2004c48:	8080100c 	andi	r2,r16,64
 2004c4c:	10010526 	beq	r2,zero,2005064 <___vfprintf_internal_r+0x18ec>
 2004c50:	d9012d17 	ldw	r4,1204(sp)
 2004c54:	002d883a 	mov	r22,zero
 2004c58:	0007883a 	mov	r3,zero
 2004c5c:	25c0000b 	ldhu	r23,0(r4)
 2004c60:	21000104 	addi	r4,r4,4
 2004c64:	d9012d15 	stw	r4,1204(sp)
 2004c68:	b805883a 	mov	r2,r23
 2004c6c:	d8012585 	stb	zero,1174(sp)
 2004c70:	003c3a06 	br	2003d5c <__alt_mem_epcs_flash_controller+0xfdffad5c>
 2004c74:	d8812d17 	ldw	r2,1204(sp)
 2004c78:	15800017 	ldw	r22,0(r2)
 2004c7c:	15000117 	ldw	r20,4(r2)
 2004c80:	10800204 	addi	r2,r2,8
 2004c84:	d8812d15 	stw	r2,1204(sp)
 2004c88:	dd813315 	stw	r22,1228(sp)
 2004c8c:	dd013415 	stw	r20,1232(sp)
 2004c90:	003c5906 	br	2003df8 <__alt_mem_epcs_flash_controller+0xfdffadf8>
 2004c94:	00c00084 	movi	r3,2
 2004c98:	d8012585 	stb	zero,1174(sp)
 2004c9c:	003c2f06 	br	2003d5c <__alt_mem_epcs_flash_controller+0xfdffad5c>
 2004ca0:	ac800007 	ldb	r18,0(r21)
 2004ca4:	003b1006 	br	20038e8 <__alt_mem_epcs_flash_controller+0xfdffa8e8>
 2004ca8:	8080040c 	andi	r2,r16,16
 2004cac:	1000091e 	bne	r2,zero,2004cd4 <___vfprintf_internal_r+0x155c>
 2004cb0:	8400100c 	andi	r16,r16,64
 2004cb4:	80000726 	beq	r16,zero,2004cd4 <___vfprintf_internal_r+0x155c>
 2004cb8:	d8c12d17 	ldw	r3,1204(sp)
 2004cbc:	d9012c17 	ldw	r4,1200(sp)
 2004cc0:	18800017 	ldw	r2,0(r3)
 2004cc4:	18c00104 	addi	r3,r3,4
 2004cc8:	d8c12d15 	stw	r3,1204(sp)
 2004ccc:	1100000d 	sth	r4,0(r2)
 2004cd0:	003adf06 	br	2003850 <__alt_mem_epcs_flash_controller+0xfdffa850>
 2004cd4:	d8c12d17 	ldw	r3,1204(sp)
 2004cd8:	d9012c17 	ldw	r4,1200(sp)
 2004cdc:	18800017 	ldw	r2,0(r3)
 2004ce0:	18c00104 	addi	r3,r3,4
 2004ce4:	d8c12d15 	stw	r3,1204(sp)
 2004ce8:	11000015 	stw	r4,0(r2)
 2004cec:	003ad806 	br	2003850 <__alt_mem_epcs_flash_controller+0xfdffa850>
 2004cf0:	8080100c 	andi	r2,r16,64
 2004cf4:	1000c526 	beq	r2,zero,200500c <___vfprintf_internal_r+0x1894>
 2004cf8:	d8812d17 	ldw	r2,1204(sp)
 2004cfc:	15c0000f 	ldh	r23,0(r2)
 2004d00:	10800104 	addi	r2,r2,4
 2004d04:	d8812d15 	stw	r2,1204(sp)
 2004d08:	b82dd7fa 	srai	r22,r23,31
 2004d0c:	b005883a 	mov	r2,r22
 2004d10:	003c0906 	br	2003d38 <__alt_mem_epcs_flash_controller+0xfdffad38>
 2004d14:	4c800115 	stw	r18,4(r9)
 2004d18:	9211883a 	add	r8,r18,r8
 2004d1c:	18c00044 	addi	r3,r3,1
 2004d20:	da011d15 	stw	r8,1140(sp)
 2004d24:	d8c11c15 	stw	r3,1136(sp)
 2004d28:	008001c4 	movi	r2,7
 2004d2c:	10c14016 	blt	r2,r3,2005230 <___vfprintf_internal_r+0x1ab8>
 2004d30:	4a400204 	addi	r9,r9,8
 2004d34:	d8813717 	ldw	r2,1244(sp)
 2004d38:	9ca7883a 	add	r19,r19,r18
 2004d3c:	48800015 	stw	r2,0(r9)
 2004d40:	00800044 	movi	r2,1
 2004d44:	48800115 	stw	r2,4(r9)
 2004d48:	4091883a 	add	r8,r8,r2
 2004d4c:	1887883a 	add	r3,r3,r2
 2004d50:	da011d15 	stw	r8,1140(sp)
 2004d54:	d8c11c15 	stw	r3,1136(sp)
 2004d58:	008001c4 	movi	r2,7
 2004d5c:	10c12c16 	blt	r2,r3,2005210 <___vfprintf_internal_r+0x1a98>
 2004d60:	4a400204 	addi	r9,r9,8
 2004d64:	d9013217 	ldw	r4,1224(sp)
 2004d68:	da011d17 	ldw	r8,1140(sp)
 2004d6c:	d8c11c17 	ldw	r3,1136(sp)
 2004d70:	24a5c83a 	sub	r18,r4,r18
 2004d74:	4cc00015 	stw	r19,0(r9)
 2004d78:	003fa506 	br	2004c10 <__alt_mem_epcs_flash_controller+0xfdffbc10>
 2004d7c:	04c08234 	movhi	r19,520
 2004d80:	9cdb5204 	addi	r19,r19,27976
 2004d84:	003c2e06 	br	2003e40 <__alt_mem_epcs_flash_controller+0xfdffae40>
 2004d88:	d9412917 	ldw	r5,1188(sp)
 2004d8c:	8809883a 	mov	r4,r17
 2004d90:	d9811b04 	addi	r6,sp,1132
 2004d94:	20037440 	call	2003744 <__sprint_r>
 2004d98:	103bbd1e 	bne	r2,zero,2003c90 <__alt_mem_epcs_flash_controller+0xfdffac90>
 2004d9c:	da011d17 	ldw	r8,1140(sp)
 2004da0:	da400404 	addi	r9,sp,16
 2004da4:	003df606 	br	2004580 <__alt_mem_epcs_flash_controller+0xfdffb580>
 2004da8:	00808234 	movhi	r2,520
 2004dac:	109b6104 	addi	r2,r2,28036
 2004db0:	48800015 	stw	r2,0(r9)
 2004db4:	00800044 	movi	r2,1
 2004db8:	48800115 	stw	r2,4(r9)
 2004dbc:	4091883a 	add	r8,r8,r2
 2004dc0:	1887883a 	add	r3,r3,r2
 2004dc4:	da011d15 	stw	r8,1140(sp)
 2004dc8:	d8c11c15 	stw	r3,1136(sp)
 2004dcc:	008001c4 	movi	r2,7
 2004dd0:	10c0bc16 	blt	r2,r3,20050c4 <___vfprintf_internal_r+0x194c>
 2004dd4:	4a400204 	addi	r9,r9,8
 2004dd8:	9000041e 	bne	r18,zero,2004dec <___vfprintf_internal_r+0x1674>
 2004ddc:	d8c13217 	ldw	r3,1224(sp)
 2004de0:	1800021e 	bne	r3,zero,2004dec <___vfprintf_internal_r+0x1674>
 2004de4:	8080004c 	andi	r2,r16,1
 2004de8:	103d5226 	beq	r2,zero,2004334 <__alt_mem_epcs_flash_controller+0xfdffb334>
 2004dec:	d8c11c17 	ldw	r3,1136(sp)
 2004df0:	d9013717 	ldw	r4,1244(sp)
 2004df4:	00800044 	movi	r2,1
 2004df8:	48800115 	stw	r2,4(r9)
 2004dfc:	49000015 	stw	r4,0(r9)
 2004e00:	4091883a 	add	r8,r8,r2
 2004e04:	1887883a 	add	r3,r3,r2
 2004e08:	da011d15 	stw	r8,1140(sp)
 2004e0c:	d8c11c15 	stw	r3,1136(sp)
 2004e10:	008001c4 	movi	r2,7
 2004e14:	10c14516 	blt	r2,r3,200532c <___vfprintf_internal_r+0x1bb4>
 2004e18:	4a400204 	addi	r9,r9,8
 2004e1c:	04a5c83a 	sub	r18,zero,r18
 2004e20:	0480d70e 	bge	zero,r18,2005180 <___vfprintf_internal_r+0x1a08>
 2004e24:	05800404 	movi	r22,16
 2004e28:	05008234 	movhi	r20,520
 2004e2c:	a51b6584 	addi	r20,r20,28054
 2004e30:	b480db0e 	bge	r22,r18,20051a0 <___vfprintf_internal_r+0x1a28>
 2004e34:	05c001c4 	movi	r23,7
 2004e38:	df012917 	ldw	fp,1188(sp)
 2004e3c:	00000306 	br	2004e4c <___vfprintf_internal_r+0x16d4>
 2004e40:	4a400204 	addi	r9,r9,8
 2004e44:	94bffc04 	addi	r18,r18,-16
 2004e48:	b480d50e 	bge	r22,r18,20051a0 <___vfprintf_internal_r+0x1a28>
 2004e4c:	4d000015 	stw	r20,0(r9)
 2004e50:	4d800115 	stw	r22,4(r9)
 2004e54:	42000404 	addi	r8,r8,16
 2004e58:	18c00044 	addi	r3,r3,1
 2004e5c:	da011d15 	stw	r8,1140(sp)
 2004e60:	d8c11c15 	stw	r3,1136(sp)
 2004e64:	b8fff60e 	bge	r23,r3,2004e40 <__alt_mem_epcs_flash_controller+0xfdffbe40>
 2004e68:	8809883a 	mov	r4,r17
 2004e6c:	e00b883a 	mov	r5,fp
 2004e70:	d9811b04 	addi	r6,sp,1132
 2004e74:	20037440 	call	2003744 <__sprint_r>
 2004e78:	103b851e 	bne	r2,zero,2003c90 <__alt_mem_epcs_flash_controller+0xfdffac90>
 2004e7c:	da011d17 	ldw	r8,1140(sp)
 2004e80:	d8c11c17 	ldw	r3,1136(sp)
 2004e84:	da400404 	addi	r9,sp,16
 2004e88:	003fee06 	br	2004e44 <__alt_mem_epcs_flash_controller+0xfdffbe44>
 2004e8c:	da413c15 	stw	r9,1264(sp)
 2004e90:	200b5c40 	call	200b5c4 <__isnand>
 2004e94:	da413c17 	ldw	r9,1264(sp)
 2004e98:	10007e1e 	bne	r2,zero,2005094 <___vfprintf_internal_r+0x191c>
 2004e9c:	00bfffc4 	movi	r2,-1
 2004ea0:	e0816a26 	beq	fp,r2,200544c <___vfprintf_internal_r+0x1cd4>
 2004ea4:	008019c4 	movi	r2,103
 2004ea8:	90816526 	beq	r18,r2,2005440 <___vfprintf_internal_r+0x1cc8>
 2004eac:	008011c4 	movi	r2,71
 2004eb0:	90816326 	beq	r18,r2,2005440 <___vfprintf_internal_r+0x1cc8>
 2004eb4:	80c04014 	ori	r3,r16,256
 2004eb8:	d8c12a15 	stw	r3,1192(sp)
 2004ebc:	a0016516 	blt	r20,zero,2005454 <___vfprintf_internal_r+0x1cdc>
 2004ec0:	d8012f05 	stb	zero,1212(sp)
 2004ec4:	00801984 	movi	r2,102
 2004ec8:	9080f226 	beq	r18,r2,2005294 <___vfprintf_internal_r+0x1b1c>
 2004ecc:	00801184 	movi	r2,70
 2004ed0:	9080f026 	beq	r18,r2,2005294 <___vfprintf_internal_r+0x1b1c>
 2004ed4:	00801944 	movi	r2,101
 2004ed8:	90818d26 	beq	r18,r2,2005510 <___vfprintf_internal_r+0x1d98>
 2004edc:	00801144 	movi	r2,69
 2004ee0:	90818b26 	beq	r18,r2,2005510 <___vfprintf_internal_r+0x1d98>
 2004ee4:	e02f883a 	mov	r23,fp
 2004ee8:	d8812404 	addi	r2,sp,1168
 2004eec:	d8800115 	stw	r2,4(sp)
 2004ef0:	d8812304 	addi	r2,sp,1164
 2004ef4:	d8800215 	stw	r2,8(sp)
 2004ef8:	d8812204 	addi	r2,sp,1160
 2004efc:	ddc00015 	stw	r23,0(sp)
 2004f00:	d8800315 	stw	r2,12(sp)
 2004f04:	8809883a 	mov	r4,r17
 2004f08:	b00b883a 	mov	r5,r22
 2004f0c:	a00d883a 	mov	r6,r20
 2004f10:	01c00084 	movi	r7,2
 2004f14:	da413c15 	stw	r9,1264(sp)
 2004f18:	20072200 	call	2007220 <_dtoa_r>
 2004f1c:	1027883a 	mov	r19,r2
 2004f20:	008019c4 	movi	r2,103
 2004f24:	da413c17 	ldw	r9,1264(sp)
 2004f28:	9081951e 	bne	r18,r2,2005580 <___vfprintf_internal_r+0x1e08>
 2004f2c:	8080004c 	andi	r2,r16,1
 2004f30:	10017926 	beq	r2,zero,2005518 <___vfprintf_internal_r+0x1da0>
 2004f34:	00801184 	movi	r2,70
 2004f38:	9dc7883a 	add	r3,r19,r23
 2004f3c:	9080e626 	beq	r18,r2,20052d8 <___vfprintf_internal_r+0x1b60>
 2004f40:	b009883a 	mov	r4,r22
 2004f44:	a00b883a 	mov	r5,r20
 2004f48:	000d883a 	mov	r6,zero
 2004f4c:	000f883a 	mov	r7,zero
 2004f50:	d8c13b15 	stw	r3,1260(sp)
 2004f54:	da413c15 	stw	r9,1264(sp)
 2004f58:	200fca80 	call	200fca8 <__eqdf2>
 2004f5c:	d8c13b17 	ldw	r3,1260(sp)
 2004f60:	da413c17 	ldw	r9,1264(sp)
 2004f64:	10000726 	beq	r2,zero,2004f84 <___vfprintf_internal_r+0x180c>
 2004f68:	d8812217 	ldw	r2,1160(sp)
 2004f6c:	10c18a2e 	bgeu	r2,r3,2005598 <___vfprintf_internal_r+0x1e20>
 2004f70:	01000c04 	movi	r4,48
 2004f74:	11000005 	stb	r4,0(r2)
 2004f78:	10800044 	addi	r2,r2,1
 2004f7c:	d8812215 	stw	r2,1160(sp)
 2004f80:	10fffc1e 	bne	r2,r3,2004f74 <__alt_mem_epcs_flash_controller+0xfdffbf74>
 2004f84:	1cc7c83a 	sub	r3,r3,r19
 2004f88:	d8c13215 	stw	r3,1224(sp)
 2004f8c:	008019c4 	movi	r2,103
 2004f90:	9080fa26 	beq	r18,r2,200537c <___vfprintf_internal_r+0x1c04>
 2004f94:	008011c4 	movi	r2,71
 2004f98:	9080f826 	beq	r18,r2,200537c <___vfprintf_internal_r+0x1c04>
 2004f9c:	00801984 	movi	r2,102
 2004fa0:	90818e1e 	bne	r18,r2,20055dc <___vfprintf_internal_r+0x1e64>
 2004fa4:	d8812417 	ldw	r2,1168(sp)
 2004fa8:	d8812b15 	stw	r2,1196(sp)
 2004fac:	00817c0e 	bge	zero,r2,20055a0 <___vfprintf_internal_r+0x1e28>
 2004fb0:	e000021e 	bne	fp,zero,2004fbc <___vfprintf_internal_r+0x1844>
 2004fb4:	8400004c 	andi	r16,r16,1
 2004fb8:	80000426 	beq	r16,zero,2004fcc <___vfprintf_internal_r+0x1854>
 2004fbc:	d8812b17 	ldw	r2,1196(sp)
 2004fc0:	e2000044 	addi	r8,fp,1
 2004fc4:	1205883a 	add	r2,r2,r8
 2004fc8:	d8812b15 	stw	r2,1196(sp)
 2004fcc:	d8812815 	stw	r2,1184(sp)
 2004fd0:	10010b16 	blt	r2,zero,2005400 <___vfprintf_internal_r+0x1c88>
 2004fd4:	ddc12f07 	ldb	r23,1212(sp)
 2004fd8:	b800e426 	beq	r23,zero,200536c <___vfprintf_internal_r+0x1bf4>
 2004fdc:	00800b44 	movi	r2,45
 2004fe0:	d8812585 	stb	r2,1174(sp)
 2004fe4:	dc012a17 	ldw	r16,1192(sp)
 2004fe8:	d8013115 	stw	zero,1220(sp)
 2004fec:	003b7306 	br	2003dbc <__alt_mem_epcs_flash_controller+0xfdffadbc>
 2004ff0:	d8812b17 	ldw	r2,1196(sp)
 2004ff4:	d8812815 	stw	r2,1184(sp)
 2004ff8:	10005716 	blt	r2,zero,2005158 <___vfprintf_internal_r+0x19e0>
 2004ffc:	d8812583 	ldbu	r2,1174(sp)
 2005000:	ddc12d15 	stw	r23,1204(sp)
 2005004:	d8013115 	stw	zero,1220(sp)
 2005008:	003b6806 	br	2003dac <__alt_mem_epcs_flash_controller+0xfdffadac>
 200500c:	d8c12d17 	ldw	r3,1204(sp)
 2005010:	1dc00017 	ldw	r23,0(r3)
 2005014:	18c00104 	addi	r3,r3,4
 2005018:	d8c12d15 	stw	r3,1204(sp)
 200501c:	b82dd7fa 	srai	r22,r23,31
 2005020:	b005883a 	mov	r2,r22
 2005024:	003b4406 	br	2003d38 <__alt_mem_epcs_flash_controller+0xfdffad38>
 2005028:	d9012d17 	ldw	r4,1204(sp)
 200502c:	002d883a 	mov	r22,zero
 2005030:	00c00044 	movi	r3,1
 2005034:	25c00017 	ldw	r23,0(r4)
 2005038:	21000104 	addi	r4,r4,4
 200503c:	d9012d15 	stw	r4,1204(sp)
 2005040:	b805883a 	mov	r2,r23
 2005044:	d8012585 	stb	zero,1174(sp)
 2005048:	003b4406 	br	2003d5c <__alt_mem_epcs_flash_controller+0xfdffad5c>
 200504c:	d9012d17 	ldw	r4,1204(sp)
 2005050:	002d883a 	mov	r22,zero
 2005054:	25c00017 	ldw	r23,0(r4)
 2005058:	21000104 	addi	r4,r4,4
 200505c:	d9012d15 	stw	r4,1204(sp)
 2005060:	003bab06 	br	2003f10 <__alt_mem_epcs_flash_controller+0xfdffaf10>
 2005064:	d8812d17 	ldw	r2,1204(sp)
 2005068:	002d883a 	mov	r22,zero
 200506c:	0007883a 	mov	r3,zero
 2005070:	15c00017 	ldw	r23,0(r2)
 2005074:	10800104 	addi	r2,r2,4
 2005078:	d8812d15 	stw	r2,1204(sp)
 200507c:	d8012585 	stb	zero,1174(sp)
 2005080:	b805883a 	mov	r2,r23
 2005084:	003b3506 	br	2003d5c <__alt_mem_epcs_flash_controller+0xfdffad5c>
 2005088:	00ffffc4 	movi	r3,-1
 200508c:	b82b883a 	mov	r21,r23
 2005090:	003a1606 	br	20038ec <__alt_mem_epcs_flash_controller+0xfdffa8ec>
 2005094:	008011c4 	movi	r2,71
 2005098:	1480b116 	blt	r2,r18,2005360 <___vfprintf_internal_r+0x1be8>
 200509c:	04c08234 	movhi	r19,520
 20050a0:	9cdb5304 	addi	r19,r19,27980
 20050a4:	00c000c4 	movi	r3,3
 20050a8:	00bfdfc4 	movi	r2,-129
 20050ac:	80a0703a 	and	r16,r16,r2
 20050b0:	d8c12815 	stw	r3,1184(sp)
 20050b4:	d8812583 	ldbu	r2,1174(sp)
 20050b8:	d8c12b15 	stw	r3,1196(sp)
 20050bc:	d8013115 	stw	zero,1220(sp)
 20050c0:	003b3a06 	br	2003dac <__alt_mem_epcs_flash_controller+0xfdffadac>
 20050c4:	d9412917 	ldw	r5,1188(sp)
 20050c8:	8809883a 	mov	r4,r17
 20050cc:	d9811b04 	addi	r6,sp,1132
 20050d0:	20037440 	call	2003744 <__sprint_r>
 20050d4:	103aee1e 	bne	r2,zero,2003c90 <__alt_mem_epcs_flash_controller+0xfdffac90>
 20050d8:	dc812417 	ldw	r18,1168(sp)
 20050dc:	da011d17 	ldw	r8,1140(sp)
 20050e0:	da400404 	addi	r9,sp,16
 20050e4:	003f3c06 	br	2004dd8 <__alt_mem_epcs_flash_controller+0xfdffbdd8>
 20050e8:	ad400044 	addi	r21,r21,1
 20050ec:	84000814 	ori	r16,r16,32
 20050f0:	14800047 	ldb	r18,1(r2)
 20050f4:	0039fc06 	br	20038e8 <__alt_mem_epcs_flash_controller+0xfdffa8e8>
 20050f8:	d9412917 	ldw	r5,1188(sp)
 20050fc:	8809883a 	mov	r4,r17
 2005100:	d9811b04 	addi	r6,sp,1132
 2005104:	20037440 	call	2003744 <__sprint_r>
 2005108:	103ae11e 	bne	r2,zero,2003c90 <__alt_mem_epcs_flash_controller+0xfdffac90>
 200510c:	da011d17 	ldw	r8,1140(sp)
 2005110:	da400404 	addi	r9,sp,16
 2005114:	003d2b06 	br	20045c4 <__alt_mem_epcs_flash_controller+0xfdffb5c4>
 2005118:	4d000015 	stw	r20,0(r9)
 200511c:	4c800115 	stw	r18,4(r9)
 2005120:	4491883a 	add	r8,r8,r18
 2005124:	18c00044 	addi	r3,r3,1
 2005128:	da011d15 	stw	r8,1140(sp)
 200512c:	d8c11c15 	stw	r3,1136(sp)
 2005130:	008001c4 	movi	r2,7
 2005134:	10fcbd16 	blt	r2,r3,200442c <__alt_mem_epcs_flash_controller+0xfdffb42c>
 2005138:	4a400204 	addi	r9,r9,8
 200513c:	003cc206 	br	2004448 <__alt_mem_epcs_flash_controller+0xfdffb448>
 2005140:	da413c15 	stw	r9,1264(sp)
 2005144:	20036b80 	call	20036b8 <strlen>
 2005148:	d8812b15 	stw	r2,1196(sp)
 200514c:	d8812815 	stw	r2,1184(sp)
 2005150:	da413c17 	ldw	r9,1264(sp)
 2005154:	103fa90e 	bge	r2,zero,2004ffc <__alt_mem_epcs_flash_controller+0xfdffbffc>
 2005158:	d8012815 	stw	zero,1184(sp)
 200515c:	003fa706 	br	2004ffc <__alt_mem_epcs_flash_controller+0xfdffbffc>
 2005160:	d9412917 	ldw	r5,1188(sp)
 2005164:	8809883a 	mov	r4,r17
 2005168:	d9811b04 	addi	r6,sp,1132
 200516c:	20037440 	call	2003744 <__sprint_r>
 2005170:	103ac71e 	bne	r2,zero,2003c90 <__alt_mem_epcs_flash_controller+0xfdffac90>
 2005174:	da011d17 	ldw	r8,1140(sp)
 2005178:	d8c11c17 	ldw	r3,1136(sp)
 200517c:	da400404 	addi	r9,sp,16
 2005180:	d8813217 	ldw	r2,1224(sp)
 2005184:	4cc00015 	stw	r19,0(r9)
 2005188:	48800115 	stw	r2,4(r9)
 200518c:	4091883a 	add	r8,r8,r2
 2005190:	003c6206 	br	200431c <__alt_mem_epcs_flash_controller+0xfdffb31c>
 2005194:	00800b44 	movi	r2,45
 2005198:	d8812585 	stb	r2,1174(sp)
 200519c:	003b2406 	br	2003e30 <__alt_mem_epcs_flash_controller+0xfdffae30>
 20051a0:	4d000015 	stw	r20,0(r9)
 20051a4:	4c800115 	stw	r18,4(r9)
 20051a8:	4491883a 	add	r8,r8,r18
 20051ac:	18c00044 	addi	r3,r3,1
 20051b0:	da011d15 	stw	r8,1140(sp)
 20051b4:	d8c11c15 	stw	r3,1136(sp)
 20051b8:	008001c4 	movi	r2,7
 20051bc:	10ffe816 	blt	r2,r3,2005160 <__alt_mem_epcs_flash_controller+0xfdffc160>
 20051c0:	4a400204 	addi	r9,r9,8
 20051c4:	003fee06 	br	2005180 <__alt_mem_epcs_flash_controller+0xfdffc180>
 20051c8:	d8c12b15 	stw	r3,1196(sp)
 20051cc:	00800184 	movi	r2,6
 20051d0:	10c0062e 	bgeu	r2,r3,20051ec <___vfprintf_internal_r+0x1a74>
 20051d4:	d8812b15 	stw	r2,1196(sp)
 20051d8:	d8812815 	stw	r2,1184(sp)
 20051dc:	ddc12d15 	stw	r23,1204(sp)
 20051e0:	04c08234 	movhi	r19,520
 20051e4:	9cdb5f04 	addi	r19,r19,28028
 20051e8:	0039ca06 	br	2003914 <__alt_mem_epcs_flash_controller+0xfdffa914>
 20051ec:	d8812b17 	ldw	r2,1196(sp)
 20051f0:	d8812815 	stw	r2,1184(sp)
 20051f4:	103ff90e 	bge	r2,zero,20051dc <__alt_mem_epcs_flash_controller+0xfdffc1dc>
 20051f8:	d8012815 	stw	zero,1184(sp)
 20051fc:	003ff706 	br	20051dc <__alt_mem_epcs_flash_controller+0xfdffc1dc>
 2005200:	00800244 	movi	r2,9
 2005204:	15fdaa36 	bltu	r2,r23,20048b0 <__alt_mem_epcs_flash_controller+0xfdffb8b0>
 2005208:	dd010e04 	addi	r20,sp,1080
 200520c:	003dc606 	br	2004928 <__alt_mem_epcs_flash_controller+0xfdffb928>
 2005210:	d9412917 	ldw	r5,1188(sp)
 2005214:	8809883a 	mov	r4,r17
 2005218:	d9811b04 	addi	r6,sp,1132
 200521c:	20037440 	call	2003744 <__sprint_r>
 2005220:	103a9b1e 	bne	r2,zero,2003c90 <__alt_mem_epcs_flash_controller+0xfdffac90>
 2005224:	dc812417 	ldw	r18,1168(sp)
 2005228:	da400404 	addi	r9,sp,16
 200522c:	003ecd06 	br	2004d64 <__alt_mem_epcs_flash_controller+0xfdffbd64>
