
LEDTileApplication.elf:     file format elf32-littlenios2
LEDTileApplication.elf
architecture: nios2, flags 0x00000112:
EXEC_P, HAS_SYMS, D_PAGED
start address 0x020001b8

Program Header:
    LOAD off    0x00001000 vaddr 0x02000000 paddr 0x02000000 align 2**12
         filesz 0x00000020 memsz 0x00000020 flags r-x
    LOAD off    0x00001020 vaddr 0x02000020 paddr 0x02000020 align 2**12
         filesz 0x000877d8 memsz 0x000877d8 flags r-x
    LOAD off    0x000887f8 vaddr 0x020877f8 paddr 0x02089584 align 2**12
         filesz 0x00001d8c memsz 0x00001d8c flags rw-
    LOAD off    0x0008b310 vaddr 0x0208b310 paddr 0x0208b310 align 2**12
         filesz 0x00000000 memsz 0x00000410 flags rw-

Sections:
Idx Name          Size      VMA       LMA       File off  Algn
  0 .entry        00000020  02000000  02000000  00001000  2**5
                  CONTENTS, ALLOC, LOAD, READONLY, CODE
  1 .exceptions   00000198  02000020  02000020  00001020  2**2
                  CONTENTS, ALLOC, LOAD, READONLY, CODE
  2 .text         00014360  020001b8  020001b8  000011b8  2**2
                  CONTENTS, ALLOC, LOAD, READONLY, CODE
  3 .rodata       000732e0  02014518  02014518  00015518  2**2
                  CONTENTS, ALLOC, LOAD, READONLY, DATA
  4 .rwdata       00001d8c  020877f8  02089584  000887f8  2**2
                  CONTENTS, ALLOC, LOAD, DATA, SMALL_DATA
  5 .bss          00000410  0208b310  0208b310  0008b310  2**2
                  ALLOC, SMALL_DATA
  6 .comment      00000023  00000000  00000000  0008a584  2**0
                  CONTENTS, READONLY
  7 .debug_aranges 000011d0  00000000  00000000  0008a5a8  2**3
                  CONTENTS, READONLY, DEBUGGING
  8 .debug_info   00031a3d  00000000  00000000  0008b778  2**0
                  CONTENTS, READONLY, DEBUGGING
  9 .debug_abbrev 0000c9f3  00000000  00000000  000bd1b5  2**0
                  CONTENTS, READONLY, DEBUGGING
 10 .debug_line   0000e4d6  00000000  00000000  000c9ba8  2**0
                  CONTENTS, READONLY, DEBUGGING
 11 .debug_frame  00002280  00000000  00000000  000d8080  2**2
                  CONTENTS, READONLY, DEBUGGING
 12 .debug_str    00003f3f  00000000  00000000  000da300  2**0
                  CONTENTS, READONLY, DEBUGGING
 13 .debug_loc    0001879f  00000000  00000000  000de23f  2**0
                  CONTENTS, READONLY, DEBUGGING
 14 .debug_alt_sim_info 00000010  00000000  00000000  000f69e0  2**2
                  CONTENTS, READONLY, DEBUGGING
 15 .debug_ranges 00000dd0  00000000  00000000  000f69f0  2**3
                  CONTENTS, READONLY, DEBUGGING
 16 .thread_model 00000003  00000000  00000000  000fbb87  2**0
                  CONTENTS, READONLY
 17 .cpu          00000003  00000000  00000000  000fbb8a  2**0
                  CONTENTS, READONLY
 18 .qsys         00000001  00000000  00000000  000fbb8d  2**0
                  CONTENTS, READONLY
 19 .simulation_enabled 00000001  00000000  00000000  000fbb8e  2**0
                  CONTENTS, READONLY
 20 .sysid_hash   00000004  00000000  00000000  000fbb8f  2**0
                  CONTENTS, READONLY
 21 .sysid_base   00000004  00000000  00000000  000fbb93  2**0
                  CONTENTS, READONLY
 22 .sysid_time   00000004  00000000  00000000  000fbb97  2**0
                  CONTENTS, READONLY
 23 .stderr_dev   00000009  00000000  00000000  000fbb9b  2**0
                  CONTENTS, READONLY
 24 .stdin_dev    00000009  00000000  00000000  000fbba4  2**0
                  CONTENTS, READONLY
 25 .stdout_dev   00000009  00000000  00000000  000fbbad  2**0
                  CONTENTS, READONLY
 26 .sopc_system_name 00000004  00000000  00000000  000fbbb6  2**0
                  CONTENTS, READONLY
 27 .quartus_project_dir 00000022  00000000  00000000  000fbbba  2**0
                  CONTENTS, READONLY
 28 .sopcinfo     00078e37  00000000  00000000  000fbbdc  2**0
                  CONTENTS, READONLY
SYMBOL TABLE:
02000000 l    d  .entry	00000000 .entry
02000020 l    d  .exceptions	00000000 .exceptions
020001b8 l    d  .text	00000000 .text
02014518 l    d  .rodata	00000000 .rodata
020877f8 l    d  .rwdata	00000000 .rwdata
0208b310 l    d  .bss	00000000 .bss
00000000 l    d  .comment	00000000 .comment
00000000 l    d  .debug_aranges	00000000 .debug_aranges
00000000 l    d  .debug_info	00000000 .debug_info
00000000 l    d  .debug_abbrev	00000000 .debug_abbrev
00000000 l    d  .debug_line	00000000 .debug_line
00000000 l    d  .debug_frame	00000000 .debug_frame
00000000 l    d  .debug_str	00000000 .debug_str
00000000 l    d  .debug_loc	00000000 .debug_loc
00000000 l    d  .debug_alt_sim_info	00000000 .debug_alt_sim_info
00000000 l    d  .debug_ranges	00000000 .debug_ranges
00000000 l    df *ABS*	00000000 ../LEDTileApplication_bsp//obj/HAL/src/crt0.o
020001f0 l       .text	00000000 alt_after_alt_main
00000000 l    df *ABS*	00000000 alt_exception_entry.o
02000094 l       .exceptions	00000000 alt_exception_unknown
00000000 l    df *ABS*	00000000 alt_irq_handler.c
00000000 l    df *ABS*	00000000 hello_world.c
0208b34c l     O .bss	00000004 i.2925
0208b350 l     O .bss	00000018 alarm
00000000 l    df *ABS*	00000000 fp-bit.c
00000000 l    df *ABS*	00000000 fp-bit.c
00000000 l    df *ABS*	00000000 fp-bit.c
00000000 l    df *ABS*	00000000 fp-bit.c
00000000 l    df *ABS*	00000000 fp-bit.c
00000000 l    df *ABS*	00000000 lib2-divmod.c
02001bf0 l     F .text	00000074 udivmodsi4
00000000 l    df *ABS*	00000000 lib2-divtable.c
00000000 l    df *ABS*	00000000 lib2-mul.c
00000000 l    df *ABS*	00000000 libgcc2.c
00000000 l    df *ABS*	00000000 libgcc2.c
00000000 l    df *ABS*	00000000 fp-bit.c
00000000 l    df *ABS*	00000000 fp-bit.c
00000000 l    df *ABS*	00000000 libgcc2.c
00000000 l    df *ABS*	00000000 libgcc2.c
00000000 l    df *ABS*	00000000 libgcc2.c
00000000 l    df *ABS*	00000000 fflush.c
00000000 l    df *ABS*	00000000 findfp.c
020024cc l     F .text	00000008 __fp_lock
020024d4 l     F .text	00000008 __fp_unlock
00000000 l    df *ABS*	00000000 fwalk.c
00000000 l    df *ABS*	00000000 impure.c
0208796c l     O .rwdata	00000400 impure_data
00000000 l    df *ABS*	00000000 mallocr.c
00000000 l    df *ABS*	00000000 memset.c
00000000 l    df *ABS*	00000000 printf.c
00000000 l    df *ABS*	00000000 puts.c
00000000 l    df *ABS*	00000000 sbrkr.c
00000000 l    df *ABS*	00000000 scanf.c
00000000 l    df *ABS*	00000000 stdio.c
00000000 l    df *ABS*	00000000 strlen.c
00000000 l    df *ABS*	00000000 vfprintf.c
02003514 l     F .text	00000034 __sprint_r
0208730e l     O .rodata	00000010 blanks.3546
0208731e l     O .rodata	00000010 zeroes.3547
00000000 l    df *ABS*	00000000 vfscanf.c
02087336 l     O .rodata	00000022 basefix.3458
00000000 l    df *ABS*	00000000 writer.c
00000000 l    df *ABS*	00000000 wsetup.c
00000000 l    df *ABS*	00000000 closer.c
00000000 l    df *ABS*	00000000 ctype_.c
02087459 l     O .rodata	00000180 _ctype_b
00000000 l    df *ABS*	00000000 dtoa.c
02006db4 l     F .text	0000023c quorem
00000000 l    df *ABS*	00000000 fclose.c
00000000 l    df *ABS*	00000000 fread.c
00000000 l    df *ABS*	00000000 mallocr.c
00000000 l    df *ABS*	00000000 fvwrite.c
00000000 l    df *ABS*	00000000 int_errno.c
00000000 l    df *ABS*	00000000 iswspace.c
00000000 l    df *ABS*	00000000 locale.c
020875fc l     O .rodata	00000030 lconv
00000000 l    df *ABS*	00000000 lseekr.c
00000000 l    df *ABS*	00000000 makebuf.c
00000000 l    df *ABS*	00000000 mbrtowc.c
00000000 l    df *ABS*	00000000 mbtowc_r.c
00000000 l    df *ABS*	00000000 memchr.c
00000000 l    df *ABS*	00000000 memcpy.c
00000000 l    df *ABS*	00000000 memmove.c
00000000 l    df *ABS*	00000000 mprec.c
02087744 l     O .rodata	0000000c p05.2466
00000000 l    df *ABS*	00000000 readr.c
00000000 l    df *ABS*	00000000 mallocr.c
00000000 l    df *ABS*	00000000 refill.c
0200b154 l     F .text	0000001c lflush
00000000 l    df *ABS*	00000000 s_isinfd.c
00000000 l    df *ABS*	00000000 s_isnand.c
00000000 l    df *ABS*	00000000 sccl.c
00000000 l    df *ABS*	00000000 sf_nan.c
00000000 l    df *ABS*	00000000 sprintf.c
00000000 l    df *ABS*	00000000 strcmp.c
00000000 l    df *ABS*	00000000 strtod.c
02088180 l     O .rwdata	00000014 fpi.2046
02087760 l     O .rodata	00000028 tinytens
02088194 l     O .rwdata	00000014 fpinan.2082
00000000 l    df *ABS*	00000000 strtol.c
00000000 l    df *ABS*	00000000 strtoll_r.c
00000000 l    df *ABS*	00000000 strtoul.c
00000000 l    df *ABS*	00000000 strtoull_r.c
00000000 l    df *ABS*	00000000 ungetc.c
00000000 l    df *ABS*	00000000 mallocr.c
00000000 l    df *ABS*	00000000 fstatr.c
00000000 l    df *ABS*	00000000 gdtoa-gethex.c
0200dc68 l     F .text	00000110 rshift
00000000 l    df *ABS*	00000000 gdtoa-hexnan.c
00000000 l    df *ABS*	00000000 isattyr.c
00000000 l    df *ABS*	00000000 libgcc2.c
00000000 l    df *ABS*	00000000 libgcc2.c
00000000 l    df *ABS*	00000000 libgcc2.c
00000000 l    df *ABS*	00000000 fp-bit.c
00000000 l    df *ABS*	00000000 fp-bit.c
00000000 l    df *ABS*	00000000 fp-bit.c
00000000 l    df *ABS*	00000000 fp-bit.c
0200f670 l     F .text	00000354 _fpadd_parts
00000000 l    df *ABS*	00000000 fp-bit.c
00000000 l    df *ABS*	00000000 fp-bit.c
00000000 l    df *ABS*	00000000 fp-bit.c
00000000 l    df *ABS*	00000000 fp-bit.c
00000000 l    df *ABS*	00000000 fp-bit.c
00000000 l    df *ABS*	00000000 fp-bit.c
00000000 l    df *ABS*	00000000 fp-bit.c
00000000 l    df *ABS*	00000000 fp-bit.c
00000000 l    df *ABS*	00000000 fp-bit.c
00000000 l    df *ABS*	00000000 fp-bit.c
00000000 l    df *ABS*	00000000 fp-bit.c
00000000 l    df *ABS*	00000000 fp-bit.c
00000000 l    df *ABS*	00000000 fp-bit.c
00000000 l    df *ABS*	00000000 alt_alarm_start.c
00000000 l    df *ABS*	00000000 alt_close.c
02010318 l     F .text	00000050 alt_get_errno
00000000 l    df *ABS*	00000000 alt_dev.c
02010434 l     F .text	0000002c alt_dev_null_write
00000000 l    df *ABS*	00000000 alt_errno.c
00000000 l    df *ABS*	00000000 alt_fstat.c
02010460 l     F .text	00000050 alt_get_errno
00000000 l    df *ABS*	00000000 alt_isatty.c
02010560 l     F .text	00000050 alt_get_errno
00000000 l    df *ABS*	00000000 alt_load.c
02010654 l     F .text	0000006c alt_load_section
00000000 l    df *ABS*	00000000 alt_lseek.c
02010740 l     F .text	00000050 alt_get_errno
00000000 l    df *ABS*	00000000 alt_main.c
00000000 l    df *ABS*	00000000 alt_malloc_lock.c
00000000 l    df *ABS*	00000000 alt_read.c
0201091c l     F .text	00000050 alt_get_errno
00000000 l    df *ABS*	00000000 alt_release_fd.c
00000000 l    df *ABS*	00000000 alt_sbrk.c
0208956c l     O .rwdata	00000004 heap_end
00000000 l    df *ABS*	00000000 alt_tick.c
00000000 l    df *ABS*	00000000 alt_write.c
02010d2c l     F .text	00000050 alt_get_errno
00000000 l    df *ABS*	00000000 alt_sys_init.c
02010e6c l     F .text	00000038 alt_dev_reg
02088350 l     O .rwdata	000000c8 epcs_flash_controller
02088418 l     O .rwdata	00001060 jtag_uart
02089478 l     O .rwdata	000000c4 uart_0
00000000 l    df *ABS*	00000000 altera_avalon_epcs_flash_controller.c
02010f64 l     F .text	00000038 alt_flash_device_register
02010ff0 l     F .text	0000028c alt_epcs_flash_query
0201127c l     F .text	000000e8 alt_epcs_flash_memcmp
02011650 l     F .text	00000094 alt_epcs_test_address
00000000 l    df *ABS*	00000000 altera_avalon_jtag_uart_fd.c
00000000 l    df *ABS*	00000000 altera_avalon_jtag_uart_init.c
02011b18 l     F .text	00000204 altera_avalon_jtag_uart_irq
02011d1c l     F .text	000000a4 altera_avalon_jtag_uart_timeout
00000000 l    df *ABS*	00000000 altera_avalon_jtag_uart_ioctl.c
00000000 l    df *ABS*	00000000 altera_avalon_jtag_uart_read.c
00000000 l    df *ABS*	00000000 altera_avalon_jtag_uart_write.c
00000000 l    df *ABS*	00000000 altera_avalon_timer_sc.c
02012354 l     F .text	00000074 alt_avalon_timer_sc_irq
00000000 l    df *ABS*	00000000 altera_avalon_uart_fd.c
00000000 l    df *ABS*	00000000 altera_avalon_uart_init.c
02012608 l     F .text	00000098 altera_avalon_uart_irq
020126a0 l     F .text	000000d8 altera_avalon_uart_rxirq
02012778 l     F .text	0000013c altera_avalon_uart_txirq
00000000 l    df *ABS*	00000000 altera_avalon_uart_read.c
02012908 l     F .text	00000050 alt_get_errno
00000000 l    df *ABS*	00000000 altera_avalon_uart_write.c
02012b38 l     F .text	00000050 alt_get_errno
00000000 l    df *ABS*	00000000 epcs_commands.c
02012d8c l     F .text	00000038 epcs_test_wip
02012dc4 l     F .text	00000038 epcs_await_wip_released
00000000 l    df *ABS*	00000000 alt_dcache_flush_all.c
00000000 l    df *ABS*	00000000 alt_dev_llist_insert.c
02013370 l     F .text	00000050 alt_get_errno
00000000 l    df *ABS*	00000000 alt_do_ctors.c
00000000 l    df *ABS*	00000000 alt_do_dtors.c
00000000 l    df *ABS*	00000000 alt_flash_dev.c
00000000 l    df *ABS*	00000000 alt_icache_flush_all.c
00000000 l    df *ABS*	00000000 alt_iic.c
00000000 l    df *ABS*	00000000 alt_iic_isr_register.c
00000000 l    df *ABS*	00000000 alt_io_redirect.c
020138b4 l     F .text	000000e0 alt_open_fd
00000000 l    df *ABS*	00000000 alt_irq_vars.c
00000000 l    df *ABS*	00000000 alt_open.c
02013a0c l     F .text	00000050 alt_get_errno
02013a5c l     F .text	000000f0 alt_file_locked
00000000 l    df *ABS*	00000000 altera_nios2_qsys_irq.c
00000000 l    df *ABS*	00000000 altera_avalon_spi.c
00000000 l    df *ABS*	00000000 alt_find_dev.c
00000000 l    df *ABS*	00000000 alt_find_file.c
00000000 l    df *ABS*	00000000 alt_get_fd.c
00000000 l    df *ABS*	00000000 atexit.c
00000000 l    df *ABS*	00000000 exit.c
00000000 l    df *ABS*	00000000 memcmp.c
00000000 l    df *ABS*	00000000 __atexit.c
00000000 l    df *ABS*	00000000 __call_atexit.c
00000000 l    df *ABS*	00000000 alt_exit.c
00000000 l    df *ABS*	00000000 
0200a978 g     F .text	00000074 _mprec_log10
0206b0b4 g     O .rodata	0000000c Edgar
020115c4 g     F .text	0000008c alt_epcs_flash_get_info
0200aa68 g     F .text	00000084 __any_on
0200e80c g     F .text	00000064 _isatty_r
0208762c g     O .rodata	00000028 __mprec_tinytens
02010864 g     F .text	00000078 alt_main
02002270 g     F .text	00000044 __ashldi3
020031e0 g     F .text	00000084 _puts_r
0208b490 g     O .bss	00000100 alt_irq
020093dc g     F .text	0000006c _lseek_r
02089584 g       *ABS*	00000000 __flash_rwdata_start
02073114 g     O .rodata	0000000c Coin
0200fa78 g     F .text	0000005c __eqdf2
0208b720 g       *ABS*	00000000 __alt_heap_start
02000354 g     F .text	00000048 blank
020031a4 g     F .text	0000003c printf
02003424 g     F .text	0000005c __sseek
02002570 g     F .text	0000010c __sinit
02009300 g     F .text	0000009c _setlocale_r
020024e8 g     F .text	00000078 __sfmoreglue
0200db18 g     F .text	0000001c ungetc
020108fc g     F .text	00000020 __malloc_unlock
0200b5f4 g     F .text	00001548 _strtod_r
02014670 g     O .rodata	00000200 gamma46half
02009910 g     F .text	0000018c memmove
02002560 g     F .text	00000010 _cleanup
02074120 g     O .rodata	0000000c Bowser
02009a9c g     F .text	000000a8 _Balloc
0206e0d8 g     O .rodata	0000000c RedSlime
0200fb30 g     F .text	00000064 __gtdf2
00000000  w      *UND*	00000000 __errno
02012dfc g     F .text	000000f8 epcs_sector_erase
02000000 g     F .entry	0000000c __reset
02000020 g       *ABS*	00000000 __flash_exceptions_start
0200dc00 g     F .text	00000068 _fstat_r
0208b320 g     O .bss	00000004 errno
02006adc g     F .text	00000024 __svfscanf
020001f4 g     F .text	00000158 animation_callback
02000000 g       *ABS*	00000000 __alt_mem_sdram_controller
0200ffb0 g     F .text	0000002c __make_fp
0208b310 g     O .bss	00000004 currentAnimation
0208b334 g     O .bss	00000004 alt_argv
0209153c g       *ABS*	00000000 _gp
02015078 g     O .rodata	0000000c ie
020881d0 g     O .rwdata	00000180 alt_fd_list
02013038 g     F .text	00000068 epcs_write_status_register
02013ecc g     F .text	00000090 alt_find_dev
020097d0 g     F .text	00000140 memcpy
0200e580 g     F .text	0000028c __hexnan
020024dc g     F .text	0000000c _cleanup_r
02001a58 g     F .text	000000d4 __floatsidf
02087804 g     O .rwdata	00000068 animations
02014c70 g     O .rodata	00000200 cie1931
02013994 g     F .text	00000078 alt_io_redirect
0200fbf8 g     F .text	0000005c __ltdf2
02014518 g       *ABS*	00000000 __DTOR_END__
02003264 g     F .text	00000014 puts
02009654 g     F .text	00000040 mbrtowc
0207e180 g     O .rodata	0000000c RedPotionZelda1
02011758 g     F .text	00000104 alt_epcs_flash_write_block
02006a90 g     F .text	0000004c _vfscanf_r
0200a8d4 g     F .text	000000a4 __ratio
02011f1c g     F .text	00000218 altera_avalon_jtag_uart_read
00000000  w      *UND*	00000000 malloc
02003178 g     F .text	0000002c _printf_r
02001d10 g     F .text	00000008 __udivsi3
020105b0 g     F .text	000000a4 isatty
020092c8 g     F .text	00000038 iswspace
0208767c g     O .rodata	000000c8 __mprec_tens
020710fc g     O .rodata	0000000c Link
0200939c g     F .text	0000000c __locale_charset
0200e870 g     F .text	00000084 __fixunsdfsi
0208b31c g     O .bss	00000004 __malloc_top_pad
0200d4d4 g     F .text	00000024 strtoul
02089550 g     O .rwdata	00000004 __mb_cur_max
020093a8 g     F .text	0000000c _localeconv_r
0200d4f8 g     F .text	00000394 _strtoull_r
02072108 g     O .rodata	0000000c MegaMan
02009ecc g     F .text	0000003c __i2b
02008de4 g     F .text	000004e4 __sfvwrite_r
02003278 g     F .text	00000064 _sbrk_r
0207f18c g     O .rodata	0000000c Rupee
0200aaec g     F .text	0000006c _read_r
02088174 g     O .rwdata	0000000c __lc_ctype
02089564 g     O .rwdata	00000004 alt_max_fd
02077144 g     O .rodata	0000000c Goomba
02002128 g     F .text	00000104 __unpack_d
0200860c g     F .text	0000013c _fclose_r
020831a4 g     O .rodata	0000000c question
0200249c g     F .text	00000030 fflush
0208b318 g     O .bss	00000004 __malloc_max_sbrked_mem
0200f9c4 g     F .text	00000054 __adddf3
0200f56c g     F .text	00000054 __nesf2
020116e4 g     F .text	00000074 alt_epcs_flash_erase_block
0200a648 g     F .text	00000148 __b2d
0207b168 g     O .rodata	0000000c FF4Chest
0200ef44 g     F .text	00000628 __umoddi3
02010790 g     F .text	000000d4 lseek
0208953c g     O .rwdata	00000004 _global_impure_ptr
020132fc g     F .text	00000058 epcs_exit_4_bytes_mode
0200ab58 g     F .text	000005fc _realloc_r
0208b720 g       *ABS*	00000000 __bss_end
020137c4 g     F .text	000000f0 alt_iic_isr_register
0206d0cc g     O .rodata	0000000c BlueGhost
02010c28 g     F .text	00000104 alt_tick
0201466c g     O .rodata	00000004 numBitmaps
0208b390 g     O .bss	00000100 __hexdig
0200e8f4 g     F .text	00000650 __udivdi3
02087654 g     O .rodata	00000028 __mprec_bigtens
02009cb0 g     F .text	00000104 __s2b
0200fd10 g     F .text	0000011c __floatunsidf
0200a3e8 g     F .text	00000058 __mcmp
02012560 g     F .text	000000a8 altera_avalon_uart_init
02014a70 g     O .rodata	00000200 gamma149half
0208954c g     O .rwdata	00000004 __ctype_ptr
02002788 g     F .text	00000018 __fp_lock_all
02013778 g     F .text	0000004c alt_ic_irq_enabled
0208b348 g     O .bss	00000004 state
02010b90 g     F .text	00000098 alt_alarm_stop
0200cedc g     F .text	00000024 strtol
02081198 g     O .rodata	0000000c Cid_Walk_Front
0208b344 g     O .bss	00000004 alt_irq_active
020000ec g     F .exceptions	000000cc alt_irq_handler
020881a8 g     O .rwdata	00000028 alt_dev_null
0200fe2c g     F .text	000000c8 __unpack_f
02051090 g     O .rodata	0000000c mosaic
02013354 g     F .text	0000001c alt_dcache_flush_all
02009db4 g     F .text	00000068 __hi0bits
02001b2c g     F .text	000000c4 __fixdfsi
0207d174 g     O .rodata	0000000c BombZelda1
0200cb3c g     F .text	0000001c strtod
02089584 g       *ABS*	00000000 __ram_rwdata_end
0208955c g     O .rwdata	00000008 alt_dev_list
0206909c g     O .rodata	0000000c ns6icon
02010d7c g     F .text	000000f0 write
0200f5c0 g     F .text	0000005c __gtsf2
020877f8 g       *ABS*	00000000 __ram_rodata_end
020104b0 g     F .text	000000b0 fstat
02001120 g     F .text	00000334 displayGamma46ColourBars
0200222c g     F .text	00000044 __lshrdi3
0200fc54 g     F .text	0000005c __ledf2
0200a160 g     F .text	0000012c __pow5mult
0208b32c g     O .bss	00000004 __nlocale_changed
02001d18 g     F .text	00000008 __umodsi3
0200331c g     F .text	0000002c _scanf_r
020131bc g     F .text	00000068 epcs_read_electronic_signature
02076138 g     O .rodata	0000000c CheepCheep
0208b720 g       *ABS*	00000000 end
020100ac g     F .text	0000012c __pack_f
02012b88 g     F .text	000001a8 altera_avalon_uart_write
02011a58 g     F .text	000000c0 altera_avalon_jtag_uart_init
020700f0 g     O .rodata	0000000c Kain
02014518 g       *ABS*	00000000 __CTOR_LIST__
04000000 g       *ABS*	00000000 __alt_stack_pointer
020123c8 g     F .text	00000088 alt_avalon_timer_sc_init
020124b0 g     F .text	00000060 altera_avalon_uart_write_fd
02001e58 g     F .text	000000ac __clzsi2
02012510 g     F .text	00000050 altera_avalon_uart_close_fd
02012134 g     F .text	00000220 altera_avalon_jtag_uart_write
02002778 g     F .text	00000004 __sfp_lock_acquire
020096d8 g     F .text	000000f8 memchr
02003548 g     F .text	00001e7c ___vfprintf_internal_r
0200b48c g     F .text	00000058 _sprintf_r
02008b14 g     F .text	000002d0 _free_r
0201433c g     F .text	000001a0 __call_exitprocs
0208b328 g     O .bss	00000004 __mlocale_changed
02089544 g     O .rwdata	00000004 __malloc_sbrk_base
020001b8 g     F .text	0000003c _start
0208b33c g     O .bss	00000004 _alt_tick_rate
0200cf00 g     F .text	00000330 _strtoll_r
0200a28c g     F .text	0000015c __lshift
02013cc4 g     F .text	00000208 alt_avalon_spi_command
0208b340 g     O .bss	00000004 _alt_nticks
0201096c g     F .text	000000f4 read
02010ed8 g     F .text	0000008c alt_sys_init
0201420c g     F .text	00000130 __register_exitproc
02009f08 g     F .text	00000258 __multiply
02011dc0 g     F .text	00000068 altera_avalon_jtag_uart_close
02001d20 g     F .text	00000028 __mulsi3
020877f8 g       *ABS*	00000000 __ram_rwdata_start
02014518 g       *ABS*	00000000 __ram_rodata_start
0208b368 g     O .bss	00000028 __malloc_current_mallinfo
0200a790 g     F .text	00000144 __d2b
02000ab8 g     F .text	00000334 displayGamma149ColourBars
02012d30 g     F .text	0000005c epcs_read_status_register
020118f4 g     F .text	00000060 altera_avalon_jtag_uart_read_fd
0200d230 g     F .text	000002a4 _strtoul_r
02014070 g     F .text	000000d4 alt_get_fd
0200ffdc g     F .text	000000d0 __fpcmp_parts_d
02006d50 g     F .text	00000064 _close_r
020877f8 g     O .rwdata	0000000c halloweenAnimations
02013224 g     F .text	00000080 epcs_read_device_id
02014190 g     F .text	0000007c memcmp
020119b4 g     F .text	00000050 altera_avalon_jtag_uart_close_fd
0208b720 g       *ABS*	00000000 __alt_stack_base
02011a04 g     F .text	00000054 altera_avalon_jtag_uart_ioctl_fd
0206c0c0 g     O .rodata	0000000c CecilHead
02006bdc g     F .text	00000174 __swsetup_r
020018a4 g     F .text	000001b4 __divdf3
0200267c g     F .text	000000fc __sfp
0200a9ec g     F .text	0000007c __copybits
02087d6c g     O .rwdata	00000408 __malloc_av_
02002784 g     F .text	00000004 __sinit_lock_release
020015c0 g     F .text	000002e4 __muldf3
04009000 g       *ABS*	00000000 __alt_mem_epcs_flash_controller
02003348 g     F .text	00000054 __sread
02008998 g     F .text	00000040 fread
02013f5c g     F .text	00000114 alt_find_file
020133c0 g     F .text	000000a0 alt_dev_llist_insert
020108dc g     F .text	00000020 __malloc_lock
02010ae0 g     F .text	000000b0 sbrk
0200039c g     F .text	000000b4 displayBitmap
020022b4 g     F .text	000001e8 _fflush_r
0200db34 g     F .text	000000cc _calloc_r
02089578 g     O .rwdata	00000008 alt_flash_dev_list
02000dec g     F .text	00000334 displayGamma98ColourBars
0207512c g     O .rodata	0000000c KoopaTroopa
0206f0e4 g     O .rodata	0000000c BlueVirus
0208786c g     O .rwdata	00000100 __divsi3_table
0208b310 g       *ABS*	00000000 __bss_start
02000450 g     F .text	00000334 displayColourBars
0200309c g     F .text	000000dc memset
0200150c g     F .text	000000b4 main
0208b338 g     O .bss	00000004 alt_envp
0208b314 g     O .bss	00000004 __malloc_max_total_mem
0207a15c g     O .rodata	0000000c Mushroom
02011954 g     F .text	00000060 altera_avalon_jtag_uart_write_fd
0200f61c g     F .text	00000054 __ltsf2
0200875c g     F .text	0000023c _fread_r
02003480 g     F .text	00000008 __sclose
04000000 g       *ABS*	00000000 __alt_heap_limit
02008748 g     F .text	00000014 fclose
0200cc78 g     F .text	00000264 _strtol_r
0200fcb0 g     F .text	00000060 __truncdfsf2
02078150 g     O .rodata	0000000c Kain_Walk_Left
0208b590 g     O .bss	00000190 _atexit0
02006ff0 g     F .text	0000161c _dtoa_r
02002918 g     F .text	00000784 _malloc_r
02089568 g     O .rwdata	00000004 alt_errno
0200d88c g     F .text	000000f0 __submore
020027b8 g     F .text	000000a8 _fwalk
02009694 g     F .text	00000044 _mbtowc_r
02001c64 g     F .text	00000050 __divsi3
020871b0 g     O .rodata	00000014 __thenan_df
020089d8 g     F .text	0000013c _malloc_trim_r
02014518 g       *ABS*	00000000 __CTOR_END__
02011364 g     F .text	00000260 alt_epcs_flash_write
0200b550 g     F .text	000000a4 strcmp
02014518 g       *ABS*	00000000 __flash_rodata_start
02014518 g       *ABS*	00000000 __DTOR_LIST__
02001458 g     F .text	000000b4 animationsMenu
0200034c g     F .text	00000004 delay
0200fad4 g     F .text	0000005c __nedf2
02010ea4 g     F .text	00000034 alt_irq_init
02010a60 g     F .text	00000080 alt_release_fd
0200b4e4 g     F .text	0000006c sprintf
020871c4 g     O .rodata	00000100 __clz_tab
0208b324 g     O .bss	00000004 _PathLocale
0200cb58 g     F .text	00000120 strtof
02014144 g     F .text	00000014 atexit
02006b70 g     F .text	0000006c _write_r
020093b4 g     F .text	0000001c setlocale
020032dc g     F .text	00000040 scanf
02015070 g     O .rodata	00000004 numHalloweenAnimations
0200b484 g     F .text	00000008 nanf
02089540 g     O .rwdata	00000004 _impure_ptr
0208b330 g     O .bss	00000004 alt_argc
02029084 g     O .rodata	0000000c Netscapethrobber
020095f0 g     F .text	00000064 _mbrtowc_r
020134bc g     F .text	0000005c _do_dtors
0200b170 g     F .text	000001ec __srefill_r
02000020 g       .exceptions	00000000 alt_irq_entry
0200a5e8 g     F .text	00000060 __ulp
0200b35c g     F .text	00000038 __isinfd
020027a0 g     F .text	00000018 __fp_unlock_all
02089554 g     O .rwdata	00000008 alt_fs_list
02000020 g       *ABS*	00000000 __ram_exceptions_start
020093d0 g     F .text	0000000c localeconv
02012ef4 g     F .text	000000f4 epcs_read_buffer
04000000 g       *ABS*	00000000 __alt_mem_onchip_memory2
02010f9c g     F .text	00000054 alt_epcs_flash_init
020135ec g     F .text	00000050 alt_ic_isr_register
02001454 g     F .text	00000004 printMenu
0200dd78 g     F .text	00000090 __hexdig_init
02089584 g       *ABS*	00000000 _edata
02012450 g     F .text	00000060 altera_avalon_uart_read_fd
0208b720 g       *ABS*	00000000 _end
02013518 g     F .text	00000068 alt_flash_open_dev
020001b8 g       *ABS*	00000000 __ram_exceptions_end
02006b00 g     F .text	00000070 vfscanf
02011e28 g     F .text	000000f4 altera_avalon_jtag_uart_ioctl
020136d8 g     F .text	000000a0 alt_ic_irq_disable
020132a4 g     F .text	00000058 epcs_enter_4_bytes_mode
0200339c g     F .text	00000088 __swrite
02089548 g     O .rwdata	00000004 __malloc_trim_threshold
02013ca4 g     F .text	00000020 altera_nios2_qsys_irq_init
02014158 g     F .text	00000038 exit
02002860 g     F .text	000000b8 _fwalk_reent
0200a440 g     F .text	000001a8 __mdiff
02013580 g     F .text	00000050 alt_flash_close_dev
02001cb4 g     F .text	0000005c __modsi3
04000000 g       *ABS*	00000000 __alt_data_end
02000020 g     F .exceptions	00000000 alt_exception
0200277c g     F .text	00000004 __sfp_lock_release
0200b3c0 g     F .text	000000c4 __sccl
02087358 g     O .rodata	00000101 _ctype_
020128b4 g     F .text	00000054 altera_avalon_uart_close
0200fef4 g     F .text	000000bc __fpcmp_parts_f
020144dc g     F .text	0000003c _exit
0200b394 g     F .text	0000002c __isnand
020101d8 g     F .text	00000140 alt_alarm_start
02015074 g     O .rodata	00000004 numAnimations
02001d48 g     F .text	00000110 __muldi3
02009448 g     F .text	000001a8 __smakebuf_r
02003488 g     F .text	0000008c strlen
02012fe8 g     F .text	00000050 epcs_write_enable
02013b4c g     F .text	00000158 open
0206a0a8 g     O .rodata	0000000c MacTCP
0200fb94 g     F .text	00000064 __gedf2
0200de08 g     F .text	00000778 __gethex
02000784 g     F .text	00000334 displayCIEColourBars
020135d0 g     F .text	0000001c alt_icache_flush_all
02089580 g     O .rwdata	00000004 alt_priority_mask
0201363c g     F .text	0000009c alt_ic_irq_enable
020053c4 g     F .text	00000024 __vfprintf_internal
02012958 g     F .text	000001e0 altera_avalon_uart_read
0200fa18 g     F .text	00000060 __subdf3
02014870 g     O .rodata	00000200 gamma98half
0201185c g     F .text	00000098 alt_epcs_flash_read
02009e1c g     F .text	000000b0 __lo0bits
020053e8 g     F .text	000016a8 __svfscanf_r
02089570 g     O .rwdata	00000008 alt_alarm_list
0200d97c g     F .text	0000019c _ungetc_r
02013460 g     F .text	0000005c _do_ctors
02014e70 g     O .rodata	00000200 linearRGB
02010368 g     F .text	000000cc close
02000350 g     F .text	00000004 longDelay
020106c0 g     F .text	00000080 alt_load
02001f04 g     F .text	00000224 __pack_d
00000000  w      *UND*	00000000 free
02002780 g     F .text	00000004 __sinit_lock_acquire
020130a0 g     F .text	0000011c epcs_write_buffer
02009b6c g     F .text	00000144 __multadd
02009b44 g     F .text	00000028 _Bfree



Disassembly of section .entry:

02000000 <__reset>:
 * Jump to the _start entry point in the .text section if reset code
 * is allowed or if optimizing for RTL simulation.
 */
#if defined(ALT_ALLOW_CODE_AT_RESET) || defined(ALT_SIM_OPTIMIZE)
    /* Jump to the _start entry point in the .text section. */
    movhi r1, %hi(_start)
 2000000:	00408034 	movhi	at,512
    ori r1, r1, %lo(_start)
 2000004:	08406e14 	ori	at,at,440
    jmp r1
 2000008:	0800683a 	jmp	at
	...

Disassembly of section .exceptions:

02000020 <alt_exception>:

#else /* ALT_EXCEPTION_STACK disabled */
        /* 
         * Reserve space on normal stack for registers about to be pushed.
         */
        addi  sp, sp, -76
 2000020:	deffed04 	addi	sp,sp,-76
         * documentation for details).
         *
         * Leave a gap in the stack frame at 4(sp) for the muldiv handler to
         * store zero into.
         */
        stw   ra,  0(sp)
 2000024:	dfc00015 	stw	ra,0(sp)
        stw   r1,   8(sp)
 2000028:	d8400215 	stw	at,8(sp)
        stw   r2,  12(sp)
 200002c:	d8800315 	stw	r2,12(sp)
        stw   r3,  16(sp)
 2000030:	d8c00415 	stw	r3,16(sp)
        stw   r4,  20(sp)
 2000034:	d9000515 	stw	r4,20(sp)
        stw   r5,  24(sp)
 2000038:	d9400615 	stw	r5,24(sp)
        stw   r6,  28(sp)
 200003c:	d9800715 	stw	r6,28(sp)
        stw   r7,  32(sp)
 2000040:	d9c00815 	stw	r7,32(sp)
        rdctl r5, estatus   /* Read early to avoid usage stall */
 2000044:	000b307a 	rdctl	r5,estatus
        stw   r8,  36(sp)
 2000048:	da000915 	stw	r8,36(sp)
        stw   r9,  40(sp)
 200004c:	da400a15 	stw	r9,40(sp)
        stw   r10, 44(sp)
 2000050:	da800b15 	stw	r10,44(sp)
        stw   r11, 48(sp)
 2000054:	dac00c15 	stw	r11,48(sp)
        stw   r12, 52(sp)
 2000058:	db000d15 	stw	r12,52(sp)
        stw   r13, 56(sp)
 200005c:	db400e15 	stw	r13,56(sp)
        stw   r14, 60(sp)
 2000060:	db800f15 	stw	r14,60(sp)
        stw   r15, 64(sp)
 2000064:	dbc01015 	stw	r15,64(sp)
        /*
         * ea-4 contains the address of the instruction being executed
         * when the exception occured. For interrupt exceptions, we will
         * will be re-issue the isntruction. Store it in 72(sp)
         */
        stw   r5,  68(sp)  /* estatus */
 2000068:	d9401115 	stw	r5,68(sp)
        addi  r15, ea, -4  /* instruction that caused exception */
 200006c:	ebffff04 	addi	r15,ea,-4
        stw   r15,  72(sp)
 2000070:	dbc01215 	stw	r15,72(sp)
#else
        /*
         * Test to see if the exception was a software exception or caused 
         * by an external interrupt, and vector accordingly.
         */
        rdctl r4, ipending
 2000074:	0009313a 	rdctl	r4,ipending
        andi  r2, r5, 1
 2000078:	2880004c 	andi	r2,r5,1
        beq   r2, zero, .Lnot_irq
 200007c:	10000326 	beq	r2,zero,200008c <alt_exception+0x6c>
        beq   r4, zero, .Lnot_irq
 2000080:	20000226 	beq	r4,zero,200008c <alt_exception+0x6c>
        /*
         * Now that all necessary registers have been preserved, call 
         * alt_irq_handler() to process the interrupts.
         */

        call alt_irq_handler
 2000084:	20000ec0 	call	20000ec <alt_irq_handler>

        .section .exceptions.irqreturn, "xa"

        br    .Lexception_exit
 2000088:	00000306 	br	2000098 <alt_exception_unknown+0x4>
         * upon completion, so we write ea (address of instruction *after*
         * the one where the exception occured) into 72(sp). The actual
         * instruction that caused the exception is written in r2, which these
         * handlers will utilize.
         */
        stw   ea,  72(sp)  /* Don't re-issue */
 200008c:	df401215 	stw	ea,72(sp)
        ldw   r2, -4(ea)   /* Instruction that caused exception */
 2000090:	e8bfff17 	ldw	r2,-4(ea)

02000094 <alt_exception_unknown>:
#ifdef NIOS2_HAS_DEBUG_STUB
       /*
        *  Either tell the user now (if there is a debugger attached) or go into
        *  the debug monitor which will loop until a debugger is attached.
        */
        break
 2000094:	003da03a 	break	0
        /* 
         * Restore the saved registers, so that all general purpose registers 
         * have been restored to their state at the time the interrupt occured.
         */

        ldw   r5,  68(sp)
 2000098:	d9401117 	ldw	r5,68(sp)
        ldw   ea,  72(sp)  /* This becomes the PC once eret is executed */
 200009c:	df401217 	ldw	ea,72(sp)
        ldw   ra,   0(sp)
 20000a0:	dfc00017 	ldw	ra,0(sp)

        wrctl estatus, r5
 20000a4:	2801707a 	wrctl	estatus,r5

        ldw   r1,   8(sp)
 20000a8:	d8400217 	ldw	at,8(sp)
        ldw   r2,  12(sp)
 20000ac:	d8800317 	ldw	r2,12(sp)
        ldw   r3,  16(sp)
 20000b0:	d8c00417 	ldw	r3,16(sp)
        ldw   r4,  20(sp)
 20000b4:	d9000517 	ldw	r4,20(sp)
        ldw   r5,  24(sp)
 20000b8:	d9400617 	ldw	r5,24(sp)
        ldw   r6,  28(sp)
 20000bc:	d9800717 	ldw	r6,28(sp)
        ldw   r7,  32(sp)
 20000c0:	d9c00817 	ldw	r7,32(sp)

#if defined(ALT_EXCEPTION_STACK) && defined(ALT_STACK_CHECK)
        ldw   et, %gprel(alt_exception_old_stack_limit)(gp)
#endif

        ldw   r8,  36(sp)
 20000c4:	da000917 	ldw	r8,36(sp)
        ldw   r9,  40(sp)
 20000c8:	da400a17 	ldw	r9,40(sp)
        ldw   r10, 44(sp)
 20000cc:	da800b17 	ldw	r10,44(sp)
        ldw   r11, 48(sp)
 20000d0:	dac00c17 	ldw	r11,48(sp)
        ldw   r12, 52(sp)
 20000d4:	db000d17 	ldw	r12,52(sp)
        ldw   r13, 56(sp)
 20000d8:	db400e17 	ldw	r13,56(sp)
        ldw   r14, 60(sp)
 20000dc:	db800f17 	ldw	r14,60(sp)
        ldw   r15, 64(sp)
 20000e0:	dbc01017 	ldw	r15,64(sp)
        stw   et, %gprel(alt_stack_limit_value)(gp)
        stw   zero, %gprel(alt_exception_old_stack_limit)(gp)
#endif /* ALT_STACK_CHECK */
        ldw   sp,  76(sp)
#else /* ALT_EXCEPTION_STACK disabled */
        addi  sp, sp, 76
 20000e4:	dec01304 	addi	sp,sp,76

        /*
         * Return to the interrupted instruction.
         */

        eret
 20000e8:	ef80083a 	eret

020000ec <alt_irq_handler>:
 * instruction is present if the macro ALT_CI_INTERRUPT_VECTOR defined.
 */

void alt_irq_handler (void) __attribute__ ((section (".exceptions")));
void alt_irq_handler (void)
{
 20000ec:	defff904 	addi	sp,sp,-28
 20000f0:	dfc00615 	stw	ra,24(sp)
 20000f4:	df000515 	stw	fp,20(sp)
 20000f8:	df000504 	addi	fp,sp,20
  
  /*
   * Notify the operating system that we are at interrupt level.
   */ 
  
  ALT_OS_INT_ENTER();
 20000fc:	0001883a 	nop
#ifndef NIOS2_EIC_PRESENT
static ALT_INLINE alt_u32 ALT_ALWAYS_INLINE alt_irq_pending (void)
{
  alt_u32 active;

  NIOS2_READ_IPENDING (active);
 2000100:	0005313a 	rdctl	r2,ipending
 2000104:	e0bffe15 	stw	r2,-8(fp)

  return active;
 2000108:	e0bffe17 	ldw	r2,-8(fp)
   * Consider the case where the high priority interupt is asserted during
   * the interrupt entry sequence for a lower priority interrupt to see why
   * this is the case.
   */

  active = alt_irq_pending ();
 200010c:	e0bffb15 	stw	r2,-20(fp)

  do
  {
    i = 0;
 2000110:	e03ffd15 	stw	zero,-12(fp)
    mask = 1;
 2000114:	00800044 	movi	r2,1
 2000118:	e0bffc15 	stw	r2,-16(fp)
     * called to clear the interrupt condition.
     */

    do
    {
      if (active & mask)
 200011c:	e0fffb17 	ldw	r3,-20(fp)
 2000120:	e0bffc17 	ldw	r2,-16(fp)
 2000124:	1884703a 	and	r2,r3,r2
 2000128:	10001726 	beq	r2,zero,2000188 <alt_irq_handler+0x9c>
      { 
#ifdef ALT_ENHANCED_INTERRUPT_API_PRESENT
        alt_irq[i].handler(alt_irq[i].context); 
 200012c:	00c08274 	movhi	r3,521
 2000130:	18ed2404 	addi	r3,r3,-19312
 2000134:	e0bffd17 	ldw	r2,-12(fp)
 2000138:	100490fa 	slli	r2,r2,3
 200013c:	1885883a 	add	r2,r3,r2
 2000140:	10c00017 	ldw	r3,0(r2)
 2000144:	01008274 	movhi	r4,521
 2000148:	212d2404 	addi	r4,r4,-19312
 200014c:	e0bffd17 	ldw	r2,-12(fp)
 2000150:	100490fa 	slli	r2,r2,3
 2000154:	2085883a 	add	r2,r4,r2
 2000158:	10800104 	addi	r2,r2,4
 200015c:	10800017 	ldw	r2,0(r2)
 2000160:	1009883a 	mov	r4,r2
 2000164:	183ee83a 	callr	r3
#else
        alt_irq[i].handler(alt_irq[i].context, i); 
#endif
        break;
 2000168:	0001883a 	nop
#ifndef NIOS2_EIC_PRESENT
static ALT_INLINE alt_u32 ALT_ALWAYS_INLINE alt_irq_pending (void)
{
  alt_u32 active;

  NIOS2_READ_IPENDING (active);
 200016c:	0005313a 	rdctl	r2,ipending
 2000170:	e0bfff15 	stw	r2,-4(fp)

  return active;
 2000174:	e0bfff17 	ldw	r2,-4(fp)
      mask <<= 1;
      i++;

    } while (1);

    active = alt_irq_pending ();
 2000178:	e0bffb15 	stw	r2,-20(fp)
    
  } while (active);
 200017c:	e0bffb17 	ldw	r2,-20(fp)
 2000180:	103fe31e 	bne	r2,zero,2000110 <__alt_mem_epcs_flash_controller+0xfdff7110>

  /*
   * Notify the operating system that interrupt processing is complete.
   */ 

  ALT_OS_INT_EXIT();
 2000184:	00000706 	br	20001a4 <alt_irq_handler+0xb8>
#else
        alt_irq[i].handler(alt_irq[i].context, i); 
#endif
        break;
      }
      mask <<= 1;
 2000188:	e0bffc17 	ldw	r2,-16(fp)
 200018c:	1085883a 	add	r2,r2,r2
 2000190:	e0bffc15 	stw	r2,-16(fp)
      i++;
 2000194:	e0bffd17 	ldw	r2,-12(fp)
 2000198:	10800044 	addi	r2,r2,1
 200019c:	e0bffd15 	stw	r2,-12(fp)

    } while (1);
 20001a0:	003fde06 	br	200011c <__alt_mem_epcs_flash_controller+0xfdff711c>
  /*
   * Notify the operating system that interrupt processing is complete.
   */ 

  ALT_OS_INT_EXIT();
}
 20001a4:	e037883a 	mov	sp,fp
 20001a8:	dfc00117 	ldw	ra,4(sp)
 20001ac:	df000017 	ldw	fp,0(sp)
 20001b0:	dec00204 	addi	sp,sp,8
 20001b4:	f800283a 	ret

Disassembly of section .text:

020001b8 <_start>:

    /*
     * Now that the caches are initialized, set up the stack pointer and global pointer.
     * The values provided by the linker are assumed to be correctly aligned.
     */
    movhi sp, %hi(__alt_stack_pointer)
 20001b8:	06c10034 	movhi	sp,1024
    ori sp, sp, %lo(__alt_stack_pointer)
 20001bc:	dec00014 	ori	sp,sp,0
    movhi gp, %hi(_gp)
 20001c0:	06808274 	movhi	gp,521
    ori gp, gp, %lo(_gp)
 20001c4:	d6854f14 	ori	gp,gp,5436
 */
#ifndef ALT_SIM_OPTIMIZE
    /* Log that the BSS is about to be cleared. */
    ALT_LOG_PUTS(alt_log_msg_bss)

    movhi r2, %hi(__bss_start)
 20001c8:	00808234 	movhi	r2,520
    ori r2, r2, %lo(__bss_start)
 20001cc:	10acc414 	ori	r2,r2,45840

    movhi r3, %hi(__bss_end)
 20001d0:	00c08234 	movhi	r3,520
    ori r3, r3, %lo(__bss_end)
 20001d4:	18edc814 	ori	r3,r3,46880

    beq r2, r3, 1f
 20001d8:	10c00326 	beq	r2,r3,20001e8 <_start+0x30>

0:
    stw zero, (r2)
 20001dc:	10000015 	stw	zero,0(r2)
    addi r2, r2, 4
 20001e0:	10800104 	addi	r2,r2,4
    bltu r2, r3, 0b
 20001e4:	10fffd36 	bltu	r2,r3,20001dc <__alt_mem_epcs_flash_controller+0xfdff71dc>
     * section aren't defined until alt_load() has been called).
     */
    mov   et, zero
#endif

    call alt_load
 20001e8:	20106c00 	call	20106c0 <alt_load>

    /* Log that alt_main is about to be called. */
    ALT_LOG_PUTS(alt_log_msg_alt_main)

    /* Call the C entry point. It should never return. */
    call alt_main
 20001ec:	20108640 	call	2010864 <alt_main>

020001f0 <alt_after_alt_main>:

    /* Wait in infinite loop in case alt_main does return. */
alt_after_alt_main:
    br alt_after_alt_main
 20001f0:	003fff06 	br	20001f0 <__alt_mem_epcs_flash_controller+0xfdff71f0>

020001f4 <animation_callback>:
 20001f4:	00808274 	movhi	r2,521
 20001f8:	10acd204 	addi	r2,r2,-19640
 20001fc:	10800017 	ldw	r2,0(r2)
 2000200:	defffd04 	addi	sp,sp,-12
 2000204:	dc400115 	stw	r17,4(sp)
 2000208:	dc000015 	stw	r16,0(sp)
 200020c:	03c08274 	movhi	r15,521
 2000210:	7becd304 	addi	r15,r15,-19636
 2000214:	00c08274 	movhi	r3,521
 2000218:	18ecc404 	addi	r3,r3,-19696
 200021c:	dfc00215 	stw	ra,8(sp)
 2000220:	1c000017 	ldw	r16,0(r3)
 2000224:	7c400017 	ldw	r17,0(r15)
 2000228:	10002d1e 	bne	r2,zero,20002e0 <animation_callback+0xec>
 200022c:	881c933a 	slli	r14,r17,12
 2000230:	01010004 	movi	r4,1024
 2000234:	00c08074 	movhi	r3,513
 2000238:	18d19c04 	addi	r3,r3,18032
 200023c:	73800304 	addi	r14,r14,12
 2000240:	839d883a 	add	r14,r16,r14
 2000244:	03400434 	movhi	r13,16
 2000248:	6b7f0004 	addi	r13,r13,-1024
 200024c:	03010074 	movhi	r12,1025
 2000250:	63281804 	addi	r12,r12,-24480
 2000254:	02c10074 	movhi	r11,1025
 2000258:	5ae81404 	addi	r11,r11,-24496
 200025c:	02800044 	movi	r10,1
 2000260:	01c10074 	movhi	r7,1025
 2000264:	39e81004 	addi	r7,r7,-24512
 2000268:	02440004 	movi	r9,4096
 200026c:	708b883a 	add	r5,r14,r2
 2000270:	29800017 	ldw	r6,0(r5)
 2000274:	29400083 	ldbu	r5,2(r5)
 2000278:	3022d1fa 	srli	r17,r6,7
 200027c:	31803fcc 	andi	r6,r6,255
 2000280:	318d883a 	add	r6,r6,r6
 2000284:	1991883a 	add	r8,r3,r6
 2000288:	89807f8c 	andi	r6,r17,510
 200028c:	198d883a 	add	r6,r3,r6
 2000290:	4440000b 	ldhu	r17,0(r8)
 2000294:	3180000b 	ldhu	r6,0(r6)
 2000298:	294b883a 	add	r5,r5,r5
 200029c:	194b883a 	add	r5,r3,r5
 20002a0:	2a00000b 	ldhu	r8,0(r5)
 20002a4:	880a953a 	slli	r5,r17,20
 20002a8:	300c92ba 	slli	r6,r6,10
 20002ac:	4200ffcc 	andi	r8,r8,1023
 20002b0:	294ffc2c 	andhi	r5,r5,16368
 20002b4:	414ab03a 	or	r5,r8,r5
 20002b8:	334c703a 	and	r6,r6,r13
 20002bc:	298ab03a 	or	r5,r5,r6
 20002c0:	61000035 	stwio	r4,0(r12)
 20002c4:	59400035 	stwio	r5,0(r11)
 20002c8:	3a800035 	stwio	r10,0(r7)
 20002cc:	38000035 	stwio	zero,0(r7)
 20002d0:	10800104 	addi	r2,r2,4
 20002d4:	21000044 	addi	r4,r4,1
 20002d8:	127fe41e 	bne	r2,r9,200026c <__alt_mem_epcs_flash_controller+0xfdff726c>
 20002dc:	7c400017 	ldw	r17,0(r15)
 20002e0:	81400217 	ldw	r5,8(r16)
 20002e4:	8c400044 	addi	r17,r17,1
 20002e8:	00c003c4 	movi	r3,15
 20002ec:	8944b03a 	or	r2,r17,r5
 20002f0:	18801236 	bltu	r3,r2,200033c <animation_callback+0x148>
 20002f4:	8804913a 	slli	r2,r17,4
 20002f8:	114ab03a 	or	r5,r2,r5
 20002fc:	00808234 	movhi	r2,520
 2000300:	109e1b04 	addi	r2,r2,30828
 2000304:	2885883a 	add	r2,r5,r2
 2000308:	11000003 	ldbu	r4,0(r2)
 200030c:	81400217 	ldw	r5,8(r16)
 2000310:	2001d200 	call	2001d20 <__mulsi3>
 2000314:	8885c83a 	sub	r2,r17,r2
 2000318:	00c08274 	movhi	r3,521
 200031c:	18ecd304 	addi	r3,r3,-19636
 2000320:	18800015 	stw	r2,0(r3)
 2000324:	80800117 	ldw	r2,4(r16)
 2000328:	dfc00217 	ldw	ra,8(sp)
 200032c:	dc400117 	ldw	r17,4(sp)
 2000330:	dc000017 	ldw	r16,0(sp)
 2000334:	dec00304 	addi	sp,sp,12
 2000338:	f800283a 	ret
 200033c:	8809883a 	mov	r4,r17
 2000340:	2001c640 	call	2001c64 <__divsi3>
 2000344:	1009883a 	mov	r4,r2
 2000348:	003ff006 	br	200030c <__alt_mem_epcs_flash_controller+0xfdff730c>

0200034c <delay>:
 200034c:	f800283a 	ret

02000350 <longDelay>:
 2000350:	f800283a 	ret

02000354 <blank>:
 2000354:	00810004 	movi	r2,1024
 2000358:	01c10074 	movhi	r7,1025
 200035c:	39e81804 	addi	r7,r7,-24480
 2000360:	01810074 	movhi	r6,1025
 2000364:	31a81404 	addi	r6,r6,-24496
 2000368:	01400044 	movi	r5,1
 200036c:	00c10074 	movhi	r3,1025
 2000370:	18e81004 	addi	r3,r3,-24512
 2000374:	02020004 	movi	r8,2048
 2000378:	11000804 	addi	r4,r2,32
 200037c:	38800035 	stwio	r2,0(r7)
 2000380:	30000035 	stwio	zero,0(r6)
 2000384:	19400035 	stwio	r5,0(r3)
 2000388:	18000035 	stwio	zero,0(r3)
 200038c:	10800044 	addi	r2,r2,1
 2000390:	113ffa1e 	bne	r2,r4,200037c <__alt_mem_epcs_flash_controller+0xfdff737c>
 2000394:	123ff81e 	bne	r2,r8,2000378 <__alt_mem_epcs_flash_controller+0xfdff7378>
 2000398:	f800283a 	ret

0200039c <displayBitmap>:
 200039c:	00808274 	movhi	r2,521
 20003a0:	10acd204 	addi	r2,r2,-19640
 20003a4:	10800017 	ldw	r2,0(r2)
 20003a8:	1000281e 	bne	r2,zero,200044c <displayBitmap+0xb0>
 20003ac:	00810004 	movi	r2,1024
 20003b0:	00c08074 	movhi	r3,513
 20003b4:	18d19c04 	addi	r3,r3,18032
 20003b8:	03800434 	movhi	r14,16
 20003bc:	73bf0004 	addi	r14,r14,-1024
 20003c0:	03410074 	movhi	r13,1025
 20003c4:	6b681804 	addi	r13,r13,-24480
 20003c8:	03010074 	movhi	r12,1025
 20003cc:	63281404 	addi	r12,r12,-24496
 20003d0:	02c00044 	movi	r11,1
 20003d4:	01c10074 	movhi	r7,1025
 20003d8:	39e81004 	addi	r7,r7,-24512
 20003dc:	02820004 	movi	r10,2048
 20003e0:	21800017 	ldw	r6,0(r4)
 20003e4:	21400083 	ldbu	r5,2(r4)
 20003e8:	3012d1fa 	srli	r9,r6,7
 20003ec:	31803fcc 	andi	r6,r6,255
 20003f0:	318d883a 	add	r6,r6,r6
 20003f4:	1991883a 	add	r8,r3,r6
 20003f8:	49807f8c 	andi	r6,r9,510
 20003fc:	198d883a 	add	r6,r3,r6
 2000400:	4240000b 	ldhu	r9,0(r8)
 2000404:	3180000b 	ldhu	r6,0(r6)
 2000408:	294b883a 	add	r5,r5,r5
 200040c:	194b883a 	add	r5,r3,r5
 2000410:	2a00000b 	ldhu	r8,0(r5)
 2000414:	480a953a 	slli	r5,r9,20
 2000418:	300c92ba 	slli	r6,r6,10
 200041c:	4200ffcc 	andi	r8,r8,1023
 2000420:	294ffc2c 	andhi	r5,r5,16368
 2000424:	414ab03a 	or	r5,r8,r5
 2000428:	338c703a 	and	r6,r6,r14
 200042c:	298ab03a 	or	r5,r5,r6
 2000430:	68800035 	stwio	r2,0(r13)
 2000434:	61400035 	stwio	r5,0(r12)
 2000438:	3ac00035 	stwio	r11,0(r7)
 200043c:	38000035 	stwio	zero,0(r7)
 2000440:	10800044 	addi	r2,r2,1
 2000444:	21000104 	addi	r4,r4,4
 2000448:	12bfe51e 	bne	r2,r10,20003e0 <__alt_mem_epcs_flash_controller+0xfdff73e0>
 200044c:	f800283a 	ret

02000450 <displayColourBars>:
 2000450:	defff404 	addi	sp,sp,-48
 2000454:	df000a15 	stw	fp,40(sp)
 2000458:	dd800815 	stw	r22,32(sp)
 200045c:	dd400715 	stw	r21,28(sp)
 2000460:	dd000615 	stw	r20,24(sp)
 2000464:	dcc00515 	stw	r19,20(sp)
 2000468:	dc800415 	stw	r18,16(sp)
 200046c:	dc000215 	stw	r16,8(sp)
 2000470:	dfc00b15 	stw	ra,44(sp)
 2000474:	ddc00915 	stw	r23,36(sp)
 2000478:	dc400315 	stw	r17,12(sp)
 200047c:	d8000115 	stw	zero,4(sp)
 2000480:	d8000015 	stw	zero,0(sp)
 2000484:	05408074 	movhi	r21,513
 2000488:	ad539c04 	addi	r21,r21,20080
 200048c:	05010074 	movhi	r20,1025
 2000490:	a5281804 	addi	r20,r20,-24480
 2000494:	05800434 	movhi	r22,16
 2000498:	b5bf0004 	addi	r22,r22,-1024
 200049c:	04c10074 	movhi	r19,1025
 20004a0:	9ce81404 	addi	r19,r19,-24496
 20004a4:	04800044 	movi	r18,1
 20004a8:	07010074 	movhi	fp,1025
 20004ac:	e7281004 	addi	fp,fp,-24512
 20004b0:	04000804 	movi	r16,32
 20004b4:	d8800017 	ldw	r2,0(sp)
 20004b8:	00c001c4 	movi	r3,7
 20004bc:	18803e0e 	bge	r3,r2,20005b8 <displayColourBars+0x168>
 20004c0:	10bffe04 	addi	r2,r2,-8
 20004c4:	1880632e 	bgeu	r3,r2,2000654 <displayColourBars+0x204>
 20004c8:	d8c00017 	ldw	r3,0(sp)
 20004cc:	002f883a 	mov	r23,zero
 20004d0:	18bffc04 	addi	r2,r3,-16
 20004d4:	00c001c4 	movi	r3,7
 20004d8:	1880852e 	bgeu	r3,r2,20006f0 <displayColourBars+0x2a0>
 20004dc:	d8800117 	ldw	r2,4(sp)
 20004e0:	14410004 	addi	r17,r2,1024
 20004e4:	b809883a 	mov	r4,r23
 20004e8:	2001a580 	call	2001a58 <__floatsidf>
 20004ec:	1009883a 	mov	r4,r2
 20004f0:	180b883a 	mov	r5,r3
 20004f4:	000d883a 	mov	r6,zero
 20004f8:	01d00ff4 	movhi	r7,16447
 20004fc:	20018a40 	call	20018a4 <__divdf3>
 2000500:	000d883a 	mov	r6,zero
 2000504:	01d01c34 	movhi	r7,16496
 2000508:	39f80004 	addi	r7,r7,-8192
 200050c:	1009883a 	mov	r4,r2
 2000510:	180b883a 	mov	r5,r3
 2000514:	20015c00 	call	20015c0 <__muldf3>
 2000518:	180b883a 	mov	r5,r3
 200051c:	1009883a 	mov	r4,r2
 2000520:	2001b2c0 	call	2001b2c <__fixdfsi>
 2000524:	1085883a 	add	r2,r2,r2
 2000528:	a885883a 	add	r2,r21,r2
 200052c:	1080000b 	ldhu	r2,0(r2)
 2000530:	8dcb883a 	add	r5,r17,r23
 2000534:	10ffffcc 	andi	r3,r2,65535
 2000538:	1808953a 	slli	r4,r3,20
 200053c:	180692ba 	slli	r3,r3,10
 2000540:	210ffc2c 	andhi	r4,r4,16368
 2000544:	1d86703a 	and	r3,r3,r22
 2000548:	a1400035 	stwio	r5,0(r20)
 200054c:	20c6b03a 	or	r3,r4,r3
 2000550:	1080ffcc 	andi	r2,r2,1023
 2000554:	1884b03a 	or	r2,r3,r2
 2000558:	98800035 	stwio	r2,0(r19)
 200055c:	e4800035 	stwio	r18,0(fp)
 2000560:	e0000035 	stwio	zero,0(fp)
 2000564:	bdc00044 	addi	r23,r23,1
 2000568:	bc3fde1e 	bne	r23,r16,20004e4 <__alt_mem_epcs_flash_controller+0xfdff74e4>
 200056c:	d8c00017 	ldw	r3,0(sp)
 2000570:	d8800117 	ldw	r2,4(sp)
 2000574:	18c00044 	addi	r3,r3,1
 2000578:	10800804 	addi	r2,r2,32
 200057c:	d8c00015 	stw	r3,0(sp)
 2000580:	d8800115 	stw	r2,4(sp)
 2000584:	1c3fcb1e 	bne	r3,r16,20004b4 <__alt_mem_epcs_flash_controller+0xfdff74b4>
 2000588:	dfc00b17 	ldw	ra,44(sp)
 200058c:	df000a17 	ldw	fp,40(sp)
 2000590:	ddc00917 	ldw	r23,36(sp)
 2000594:	dd800817 	ldw	r22,32(sp)
 2000598:	dd400717 	ldw	r21,28(sp)
 200059c:	dd000617 	ldw	r20,24(sp)
 20005a0:	dcc00517 	ldw	r19,20(sp)
 20005a4:	dc800417 	ldw	r18,16(sp)
 20005a8:	dc400317 	ldw	r17,12(sp)
 20005ac:	dc000217 	ldw	r16,8(sp)
 20005b0:	dec00c04 	addi	sp,sp,48
 20005b4:	f800283a 	ret
 20005b8:	d8800117 	ldw	r2,4(sp)
 20005bc:	002f883a 	mov	r23,zero
 20005c0:	14410004 	addi	r17,r2,1024
 20005c4:	b809883a 	mov	r4,r23
 20005c8:	2001a580 	call	2001a58 <__floatsidf>
 20005cc:	1009883a 	mov	r4,r2
 20005d0:	180b883a 	mov	r5,r3
 20005d4:	000d883a 	mov	r6,zero
 20005d8:	01d00ff4 	movhi	r7,16447
 20005dc:	20018a40 	call	20018a4 <__divdf3>
 20005e0:	000d883a 	mov	r6,zero
 20005e4:	01d01c34 	movhi	r7,16496
 20005e8:	39f80004 	addi	r7,r7,-8192
 20005ec:	1009883a 	mov	r4,r2
 20005f0:	180b883a 	mov	r5,r3
 20005f4:	20015c00 	call	20015c0 <__muldf3>
 20005f8:	180b883a 	mov	r5,r3
 20005fc:	1009883a 	mov	r4,r2
 2000600:	2001b2c0 	call	2001b2c <__fixdfsi>
 2000604:	1085883a 	add	r2,r2,r2
 2000608:	a885883a 	add	r2,r21,r2
 200060c:	1080000b 	ldhu	r2,0(r2)
 2000610:	8dc7883a 	add	r3,r17,r23
 2000614:	1004953a 	slli	r2,r2,20
 2000618:	a0c00035 	stwio	r3,0(r20)
 200061c:	108ffc2c 	andhi	r2,r2,16368
 2000620:	98800035 	stwio	r2,0(r19)
 2000624:	e4800035 	stwio	r18,0(fp)
 2000628:	e0000035 	stwio	zero,0(fp)
 200062c:	bdc00044 	addi	r23,r23,1
 2000630:	bc3fe41e 	bne	r23,r16,20005c4 <__alt_mem_epcs_flash_controller+0xfdff75c4>
 2000634:	d8c00017 	ldw	r3,0(sp)
 2000638:	d8800117 	ldw	r2,4(sp)
 200063c:	18c00044 	addi	r3,r3,1
 2000640:	10800804 	addi	r2,r2,32
 2000644:	d8c00015 	stw	r3,0(sp)
 2000648:	d8800115 	stw	r2,4(sp)
 200064c:	1c3f991e 	bne	r3,r16,20004b4 <__alt_mem_epcs_flash_controller+0xfdff74b4>
 2000650:	003fcd06 	br	2000588 <__alt_mem_epcs_flash_controller+0xfdff7588>
 2000654:	d8800117 	ldw	r2,4(sp)
 2000658:	002f883a 	mov	r23,zero
 200065c:	14410004 	addi	r17,r2,1024
 2000660:	b809883a 	mov	r4,r23
 2000664:	2001a580 	call	2001a58 <__floatsidf>
 2000668:	1009883a 	mov	r4,r2
 200066c:	180b883a 	mov	r5,r3
 2000670:	000d883a 	mov	r6,zero
 2000674:	01d00ff4 	movhi	r7,16447
 2000678:	20018a40 	call	20018a4 <__divdf3>
 200067c:	000d883a 	mov	r6,zero
 2000680:	01d01c34 	movhi	r7,16496
 2000684:	39f80004 	addi	r7,r7,-8192
 2000688:	1009883a 	mov	r4,r2
 200068c:	180b883a 	mov	r5,r3
 2000690:	20015c00 	call	20015c0 <__muldf3>
 2000694:	180b883a 	mov	r5,r3
 2000698:	1009883a 	mov	r4,r2
 200069c:	2001b2c0 	call	2001b2c <__fixdfsi>
 20006a0:	1085883a 	add	r2,r2,r2
 20006a4:	a885883a 	add	r2,r21,r2
 20006a8:	1080000b 	ldhu	r2,0(r2)
 20006ac:	8dc7883a 	add	r3,r17,r23
 20006b0:	100492ba 	slli	r2,r2,10
 20006b4:	a0c00035 	stwio	r3,0(r20)
 20006b8:	1584703a 	and	r2,r2,r22
 20006bc:	98800035 	stwio	r2,0(r19)
 20006c0:	e4800035 	stwio	r18,0(fp)
 20006c4:	e0000035 	stwio	zero,0(fp)
 20006c8:	bdc00044 	addi	r23,r23,1
 20006cc:	bc3fe41e 	bne	r23,r16,2000660 <__alt_mem_epcs_flash_controller+0xfdff7660>
 20006d0:	d8c00017 	ldw	r3,0(sp)
 20006d4:	d8800117 	ldw	r2,4(sp)
 20006d8:	18c00044 	addi	r3,r3,1
 20006dc:	10800804 	addi	r2,r2,32
 20006e0:	d8c00015 	stw	r3,0(sp)
 20006e4:	d8800115 	stw	r2,4(sp)
 20006e8:	1c3f721e 	bne	r3,r16,20004b4 <__alt_mem_epcs_flash_controller+0xfdff74b4>
 20006ec:	003fa606 	br	2000588 <__alt_mem_epcs_flash_controller+0xfdff7588>
 20006f0:	d8c00117 	ldw	r3,4(sp)
 20006f4:	1c410004 	addi	r17,r3,1024
 20006f8:	b809883a 	mov	r4,r23
 20006fc:	2001a580 	call	2001a58 <__floatsidf>
 2000700:	1009883a 	mov	r4,r2
 2000704:	180b883a 	mov	r5,r3
 2000708:	000d883a 	mov	r6,zero
 200070c:	01d00ff4 	movhi	r7,16447
 2000710:	20018a40 	call	20018a4 <__divdf3>
 2000714:	000d883a 	mov	r6,zero
 2000718:	01d01c34 	movhi	r7,16496
 200071c:	39f80004 	addi	r7,r7,-8192
 2000720:	1009883a 	mov	r4,r2
 2000724:	180b883a 	mov	r5,r3
 2000728:	20015c00 	call	20015c0 <__muldf3>
 200072c:	180b883a 	mov	r5,r3
 2000730:	1009883a 	mov	r4,r2
 2000734:	2001b2c0 	call	2001b2c <__fixdfsi>
 2000738:	1085883a 	add	r2,r2,r2
 200073c:	a885883a 	add	r2,r21,r2
 2000740:	1080000b 	ldhu	r2,0(r2)
 2000744:	8dc7883a 	add	r3,r17,r23
 2000748:	1080ffcc 	andi	r2,r2,1023
 200074c:	a0c00035 	stwio	r3,0(r20)
 2000750:	98800035 	stwio	r2,0(r19)
 2000754:	e4800035 	stwio	r18,0(fp)
 2000758:	e0000035 	stwio	zero,0(fp)
 200075c:	bdc00044 	addi	r23,r23,1
 2000760:	bc3fe51e 	bne	r23,r16,20006f8 <__alt_mem_epcs_flash_controller+0xfdff76f8>
 2000764:	d8c00017 	ldw	r3,0(sp)
 2000768:	d8800117 	ldw	r2,4(sp)
 200076c:	18c00044 	addi	r3,r3,1
 2000770:	10800804 	addi	r2,r2,32
 2000774:	d8c00015 	stw	r3,0(sp)
 2000778:	d8800115 	stw	r2,4(sp)
 200077c:	1c3f4d1e 	bne	r3,r16,20004b4 <__alt_mem_epcs_flash_controller+0xfdff74b4>
 2000780:	003f8106 	br	2000588 <__alt_mem_epcs_flash_controller+0xfdff7588>

02000784 <displayCIEColourBars>:
 2000784:	defff404 	addi	sp,sp,-48
 2000788:	df000a15 	stw	fp,40(sp)
 200078c:	dd800815 	stw	r22,32(sp)
 2000790:	dd400715 	stw	r21,28(sp)
 2000794:	dd000615 	stw	r20,24(sp)
 2000798:	dcc00515 	stw	r19,20(sp)
 200079c:	dc800415 	stw	r18,16(sp)
 20007a0:	dc000215 	stw	r16,8(sp)
 20007a4:	dfc00b15 	stw	ra,44(sp)
 20007a8:	ddc00915 	stw	r23,36(sp)
 20007ac:	dc400315 	stw	r17,12(sp)
 20007b0:	d8000115 	stw	zero,4(sp)
 20007b4:	d8000015 	stw	zero,0(sp)
 20007b8:	05408074 	movhi	r21,513
 20007bc:	ad531c04 	addi	r21,r21,19568
 20007c0:	05010074 	movhi	r20,1025
 20007c4:	a5281804 	addi	r20,r20,-24480
 20007c8:	05800434 	movhi	r22,16
 20007cc:	b5bf0004 	addi	r22,r22,-1024
 20007d0:	04c10074 	movhi	r19,1025
 20007d4:	9ce81404 	addi	r19,r19,-24496
 20007d8:	04800044 	movi	r18,1
 20007dc:	07010074 	movhi	fp,1025
 20007e0:	e7281004 	addi	fp,fp,-24512
 20007e4:	04000804 	movi	r16,32
 20007e8:	d8800017 	ldw	r2,0(sp)
 20007ec:	00c001c4 	movi	r3,7
 20007f0:	18803e0e 	bge	r3,r2,20008ec <displayCIEColourBars+0x168>
 20007f4:	10bffe04 	addi	r2,r2,-8
 20007f8:	1880632e 	bgeu	r3,r2,2000988 <displayCIEColourBars+0x204>
 20007fc:	d8c00017 	ldw	r3,0(sp)
 2000800:	002f883a 	mov	r23,zero
 2000804:	18bffc04 	addi	r2,r3,-16
 2000808:	00c001c4 	movi	r3,7
 200080c:	1880852e 	bgeu	r3,r2,2000a24 <displayCIEColourBars+0x2a0>
 2000810:	d8800117 	ldw	r2,4(sp)
 2000814:	14410004 	addi	r17,r2,1024
 2000818:	b809883a 	mov	r4,r23
 200081c:	2001a580 	call	2001a58 <__floatsidf>
 2000820:	1009883a 	mov	r4,r2
 2000824:	180b883a 	mov	r5,r3
 2000828:	000d883a 	mov	r6,zero
 200082c:	01d00ff4 	movhi	r7,16447
 2000830:	20018a40 	call	20018a4 <__divdf3>
 2000834:	000d883a 	mov	r6,zero
 2000838:	01d01c34 	movhi	r7,16496
 200083c:	39f80004 	addi	r7,r7,-8192
 2000840:	1009883a 	mov	r4,r2
 2000844:	180b883a 	mov	r5,r3
 2000848:	20015c00 	call	20015c0 <__muldf3>
 200084c:	180b883a 	mov	r5,r3
 2000850:	1009883a 	mov	r4,r2
 2000854:	2001b2c0 	call	2001b2c <__fixdfsi>
 2000858:	1085883a 	add	r2,r2,r2
 200085c:	a885883a 	add	r2,r21,r2
 2000860:	1080000b 	ldhu	r2,0(r2)
 2000864:	8dcb883a 	add	r5,r17,r23
 2000868:	10ffffcc 	andi	r3,r2,65535
 200086c:	1808953a 	slli	r4,r3,20
 2000870:	180692ba 	slli	r3,r3,10
 2000874:	210ffc2c 	andhi	r4,r4,16368
 2000878:	1d86703a 	and	r3,r3,r22
 200087c:	a1400035 	stwio	r5,0(r20)
 2000880:	20c6b03a 	or	r3,r4,r3
 2000884:	1080ffcc 	andi	r2,r2,1023
 2000888:	1884b03a 	or	r2,r3,r2
 200088c:	98800035 	stwio	r2,0(r19)
 2000890:	e4800035 	stwio	r18,0(fp)
 2000894:	e0000035 	stwio	zero,0(fp)
 2000898:	bdc00044 	addi	r23,r23,1
 200089c:	bc3fde1e 	bne	r23,r16,2000818 <__alt_mem_epcs_flash_controller+0xfdff7818>
 20008a0:	d8c00017 	ldw	r3,0(sp)
 20008a4:	d8800117 	ldw	r2,4(sp)
 20008a8:	18c00044 	addi	r3,r3,1
 20008ac:	10800804 	addi	r2,r2,32
 20008b0:	d8c00015 	stw	r3,0(sp)
 20008b4:	d8800115 	stw	r2,4(sp)
 20008b8:	1c3fcb1e 	bne	r3,r16,20007e8 <__alt_mem_epcs_flash_controller+0xfdff77e8>
 20008bc:	dfc00b17 	ldw	ra,44(sp)
 20008c0:	df000a17 	ldw	fp,40(sp)
 20008c4:	ddc00917 	ldw	r23,36(sp)
 20008c8:	dd800817 	ldw	r22,32(sp)
 20008cc:	dd400717 	ldw	r21,28(sp)
 20008d0:	dd000617 	ldw	r20,24(sp)
 20008d4:	dcc00517 	ldw	r19,20(sp)
 20008d8:	dc800417 	ldw	r18,16(sp)
 20008dc:	dc400317 	ldw	r17,12(sp)
 20008e0:	dc000217 	ldw	r16,8(sp)
 20008e4:	dec00c04 	addi	sp,sp,48
 20008e8:	f800283a 	ret
 20008ec:	d8800117 	ldw	r2,4(sp)
 20008f0:	002f883a 	mov	r23,zero
 20008f4:	14410004 	addi	r17,r2,1024
 20008f8:	b809883a 	mov	r4,r23
 20008fc:	2001a580 	call	2001a58 <__floatsidf>
 2000900:	1009883a 	mov	r4,r2
 2000904:	180b883a 	mov	r5,r3
 2000908:	000d883a 	mov	r6,zero
 200090c:	01d00ff4 	movhi	r7,16447
 2000910:	20018a40 	call	20018a4 <__divdf3>
 2000914:	000d883a 	mov	r6,zero
 2000918:	01d01c34 	movhi	r7,16496
 200091c:	39f80004 	addi	r7,r7,-8192
 2000920:	1009883a 	mov	r4,r2
 2000924:	180b883a 	mov	r5,r3
 2000928:	20015c00 	call	20015c0 <__muldf3>
 200092c:	180b883a 	mov	r5,r3
 2000930:	1009883a 	mov	r4,r2
 2000934:	2001b2c0 	call	2001b2c <__fixdfsi>
 2000938:	1085883a 	add	r2,r2,r2
 200093c:	a885883a 	add	r2,r21,r2
 2000940:	1080000b 	ldhu	r2,0(r2)
 2000944:	8dc7883a 	add	r3,r17,r23
 2000948:	1004953a 	slli	r2,r2,20
 200094c:	a0c00035 	stwio	r3,0(r20)
 2000950:	108ffc2c 	andhi	r2,r2,16368
 2000954:	98800035 	stwio	r2,0(r19)
 2000958:	e4800035 	stwio	r18,0(fp)
 200095c:	e0000035 	stwio	zero,0(fp)
 2000960:	bdc00044 	addi	r23,r23,1
 2000964:	bc3fe41e 	bne	r23,r16,20008f8 <__alt_mem_epcs_flash_controller+0xfdff78f8>
 2000968:	d8c00017 	ldw	r3,0(sp)
 200096c:	d8800117 	ldw	r2,4(sp)
 2000970:	18c00044 	addi	r3,r3,1
 2000974:	10800804 	addi	r2,r2,32
 2000978:	d8c00015 	stw	r3,0(sp)
 200097c:	d8800115 	stw	r2,4(sp)
 2000980:	1c3f991e 	bne	r3,r16,20007e8 <__alt_mem_epcs_flash_controller+0xfdff77e8>
 2000984:	003fcd06 	br	20008bc <__alt_mem_epcs_flash_controller+0xfdff78bc>
 2000988:	d8800117 	ldw	r2,4(sp)
 200098c:	002f883a 	mov	r23,zero
 2000990:	14410004 	addi	r17,r2,1024
 2000994:	b809883a 	mov	r4,r23
 2000998:	2001a580 	call	2001a58 <__floatsidf>
 200099c:	1009883a 	mov	r4,r2
 20009a0:	180b883a 	mov	r5,r3
 20009a4:	000d883a 	mov	r6,zero
 20009a8:	01d00ff4 	movhi	r7,16447
 20009ac:	20018a40 	call	20018a4 <__divdf3>
 20009b0:	000d883a 	mov	r6,zero
 20009b4:	01d01c34 	movhi	r7,16496
 20009b8:	39f80004 	addi	r7,r7,-8192
 20009bc:	1009883a 	mov	r4,r2
 20009c0:	180b883a 	mov	r5,r3
 20009c4:	20015c00 	call	20015c0 <__muldf3>
 20009c8:	180b883a 	mov	r5,r3
 20009cc:	1009883a 	mov	r4,r2
 20009d0:	2001b2c0 	call	2001b2c <__fixdfsi>
 20009d4:	1085883a 	add	r2,r2,r2
 20009d8:	a885883a 	add	r2,r21,r2
 20009dc:	1080000b 	ldhu	r2,0(r2)
 20009e0:	8dc7883a 	add	r3,r17,r23
 20009e4:	100492ba 	slli	r2,r2,10
 20009e8:	a0c00035 	stwio	r3,0(r20)
 20009ec:	1584703a 	and	r2,r2,r22
 20009f0:	98800035 	stwio	r2,0(r19)
 20009f4:	e4800035 	stwio	r18,0(fp)
 20009f8:	e0000035 	stwio	zero,0(fp)
 20009fc:	bdc00044 	addi	r23,r23,1
 2000a00:	bc3fe41e 	bne	r23,r16,2000994 <__alt_mem_epcs_flash_controller+0xfdff7994>
 2000a04:	d8c00017 	ldw	r3,0(sp)
 2000a08:	d8800117 	ldw	r2,4(sp)
 2000a0c:	18c00044 	addi	r3,r3,1
 2000a10:	10800804 	addi	r2,r2,32
 2000a14:	d8c00015 	stw	r3,0(sp)
 2000a18:	d8800115 	stw	r2,4(sp)
 2000a1c:	1c3f721e 	bne	r3,r16,20007e8 <__alt_mem_epcs_flash_controller+0xfdff77e8>
 2000a20:	003fa606 	br	20008bc <__alt_mem_epcs_flash_controller+0xfdff78bc>
 2000a24:	d8c00117 	ldw	r3,4(sp)
 2000a28:	1c410004 	addi	r17,r3,1024
 2000a2c:	b809883a 	mov	r4,r23
 2000a30:	2001a580 	call	2001a58 <__floatsidf>
 2000a34:	1009883a 	mov	r4,r2
 2000a38:	180b883a 	mov	r5,r3
 2000a3c:	000d883a 	mov	r6,zero
 2000a40:	01d00ff4 	movhi	r7,16447
 2000a44:	20018a40 	call	20018a4 <__divdf3>
 2000a48:	000d883a 	mov	r6,zero
 2000a4c:	01d01c34 	movhi	r7,16496
 2000a50:	39f80004 	addi	r7,r7,-8192
 2000a54:	1009883a 	mov	r4,r2
 2000a58:	180b883a 	mov	r5,r3
 2000a5c:	20015c00 	call	20015c0 <__muldf3>
 2000a60:	180b883a 	mov	r5,r3
 2000a64:	1009883a 	mov	r4,r2
 2000a68:	2001b2c0 	call	2001b2c <__fixdfsi>
 2000a6c:	1085883a 	add	r2,r2,r2
 2000a70:	a885883a 	add	r2,r21,r2
 2000a74:	1080000b 	ldhu	r2,0(r2)
 2000a78:	8dc7883a 	add	r3,r17,r23
 2000a7c:	1080ffcc 	andi	r2,r2,1023
 2000a80:	a0c00035 	stwio	r3,0(r20)
 2000a84:	98800035 	stwio	r2,0(r19)
 2000a88:	e4800035 	stwio	r18,0(fp)
 2000a8c:	e0000035 	stwio	zero,0(fp)
 2000a90:	bdc00044 	addi	r23,r23,1
 2000a94:	bc3fe51e 	bne	r23,r16,2000a2c <__alt_mem_epcs_flash_controller+0xfdff7a2c>
 2000a98:	d8c00017 	ldw	r3,0(sp)
 2000a9c:	d8800117 	ldw	r2,4(sp)
 2000aa0:	18c00044 	addi	r3,r3,1
 2000aa4:	10800804 	addi	r2,r2,32
 2000aa8:	d8c00015 	stw	r3,0(sp)
 2000aac:	d8800115 	stw	r2,4(sp)
 2000ab0:	1c3f4d1e 	bne	r3,r16,20007e8 <__alt_mem_epcs_flash_controller+0xfdff77e8>
 2000ab4:	003f8106 	br	20008bc <__alt_mem_epcs_flash_controller+0xfdff78bc>

02000ab8 <displayGamma149ColourBars>:
 2000ab8:	defff404 	addi	sp,sp,-48
 2000abc:	df000a15 	stw	fp,40(sp)
 2000ac0:	dd800815 	stw	r22,32(sp)
 2000ac4:	dd400715 	stw	r21,28(sp)
 2000ac8:	dd000615 	stw	r20,24(sp)
 2000acc:	dcc00515 	stw	r19,20(sp)
 2000ad0:	dc800415 	stw	r18,16(sp)
 2000ad4:	dc000215 	stw	r16,8(sp)
 2000ad8:	dfc00b15 	stw	ra,44(sp)
 2000adc:	ddc00915 	stw	r23,36(sp)
 2000ae0:	dc400315 	stw	r17,12(sp)
 2000ae4:	d8000115 	stw	zero,4(sp)
 2000ae8:	d8000015 	stw	zero,0(sp)
 2000aec:	05408074 	movhi	r21,513
 2000af0:	ad529c04 	addi	r21,r21,19056
 2000af4:	05010074 	movhi	r20,1025
 2000af8:	a5281804 	addi	r20,r20,-24480
 2000afc:	05800434 	movhi	r22,16
 2000b00:	b5bf0004 	addi	r22,r22,-1024
 2000b04:	04c10074 	movhi	r19,1025
 2000b08:	9ce81404 	addi	r19,r19,-24496
 2000b0c:	04800044 	movi	r18,1
 2000b10:	07010074 	movhi	fp,1025
 2000b14:	e7281004 	addi	fp,fp,-24512
 2000b18:	04000804 	movi	r16,32
 2000b1c:	d8800017 	ldw	r2,0(sp)
 2000b20:	00c001c4 	movi	r3,7
 2000b24:	18803e0e 	bge	r3,r2,2000c20 <displayGamma149ColourBars+0x168>
 2000b28:	10bffe04 	addi	r2,r2,-8
 2000b2c:	1880632e 	bgeu	r3,r2,2000cbc <displayGamma149ColourBars+0x204>
 2000b30:	d8c00017 	ldw	r3,0(sp)
 2000b34:	002f883a 	mov	r23,zero
 2000b38:	18bffc04 	addi	r2,r3,-16
 2000b3c:	00c001c4 	movi	r3,7
 2000b40:	1880852e 	bgeu	r3,r2,2000d58 <displayGamma149ColourBars+0x2a0>
 2000b44:	d8800117 	ldw	r2,4(sp)
 2000b48:	14410004 	addi	r17,r2,1024
 2000b4c:	b809883a 	mov	r4,r23
 2000b50:	2001a580 	call	2001a58 <__floatsidf>
 2000b54:	1009883a 	mov	r4,r2
 2000b58:	180b883a 	mov	r5,r3
 2000b5c:	000d883a 	mov	r6,zero
 2000b60:	01d00ff4 	movhi	r7,16447
 2000b64:	20018a40 	call	20018a4 <__divdf3>
 2000b68:	000d883a 	mov	r6,zero
 2000b6c:	01d01c34 	movhi	r7,16496
 2000b70:	39f80004 	addi	r7,r7,-8192
 2000b74:	1009883a 	mov	r4,r2
 2000b78:	180b883a 	mov	r5,r3
 2000b7c:	20015c00 	call	20015c0 <__muldf3>
 2000b80:	180b883a 	mov	r5,r3
 2000b84:	1009883a 	mov	r4,r2
 2000b88:	2001b2c0 	call	2001b2c <__fixdfsi>
 2000b8c:	1085883a 	add	r2,r2,r2
 2000b90:	a885883a 	add	r2,r21,r2
 2000b94:	1080000b 	ldhu	r2,0(r2)
 2000b98:	8dcb883a 	add	r5,r17,r23
 2000b9c:	10ffffcc 	andi	r3,r2,65535
 2000ba0:	1808953a 	slli	r4,r3,20
 2000ba4:	180692ba 	slli	r3,r3,10
 2000ba8:	210ffc2c 	andhi	r4,r4,16368
 2000bac:	1d86703a 	and	r3,r3,r22
 2000bb0:	a1400035 	stwio	r5,0(r20)
 2000bb4:	20c6b03a 	or	r3,r4,r3
 2000bb8:	1080ffcc 	andi	r2,r2,1023
 2000bbc:	1884b03a 	or	r2,r3,r2
 2000bc0:	98800035 	stwio	r2,0(r19)
 2000bc4:	e4800035 	stwio	r18,0(fp)
 2000bc8:	e0000035 	stwio	zero,0(fp)
 2000bcc:	bdc00044 	addi	r23,r23,1
 2000bd0:	bc3fde1e 	bne	r23,r16,2000b4c <__alt_mem_epcs_flash_controller+0xfdff7b4c>
 2000bd4:	d8c00017 	ldw	r3,0(sp)
 2000bd8:	d8800117 	ldw	r2,4(sp)
 2000bdc:	18c00044 	addi	r3,r3,1
 2000be0:	10800804 	addi	r2,r2,32
 2000be4:	d8c00015 	stw	r3,0(sp)
 2000be8:	d8800115 	stw	r2,4(sp)
 2000bec:	1c3fcb1e 	bne	r3,r16,2000b1c <__alt_mem_epcs_flash_controller+0xfdff7b1c>
 2000bf0:	dfc00b17 	ldw	ra,44(sp)
 2000bf4:	df000a17 	ldw	fp,40(sp)
 2000bf8:	ddc00917 	ldw	r23,36(sp)
 2000bfc:	dd800817 	ldw	r22,32(sp)
 2000c00:	dd400717 	ldw	r21,28(sp)
 2000c04:	dd000617 	ldw	r20,24(sp)
 2000c08:	dcc00517 	ldw	r19,20(sp)
 2000c0c:	dc800417 	ldw	r18,16(sp)
 2000c10:	dc400317 	ldw	r17,12(sp)
 2000c14:	dc000217 	ldw	r16,8(sp)
 2000c18:	dec00c04 	addi	sp,sp,48
 2000c1c:	f800283a 	ret
 2000c20:	d8800117 	ldw	r2,4(sp)
 2000c24:	002f883a 	mov	r23,zero
 2000c28:	14410004 	addi	r17,r2,1024
 2000c2c:	b809883a 	mov	r4,r23
 2000c30:	2001a580 	call	2001a58 <__floatsidf>
 2000c34:	1009883a 	mov	r4,r2
 2000c38:	180b883a 	mov	r5,r3
 2000c3c:	000d883a 	mov	r6,zero
 2000c40:	01d00ff4 	movhi	r7,16447
 2000c44:	20018a40 	call	20018a4 <__divdf3>
 2000c48:	000d883a 	mov	r6,zero
 2000c4c:	01d01c34 	movhi	r7,16496
 2000c50:	39f80004 	addi	r7,r7,-8192
 2000c54:	1009883a 	mov	r4,r2
 2000c58:	180b883a 	mov	r5,r3
 2000c5c:	20015c00 	call	20015c0 <__muldf3>
 2000c60:	180b883a 	mov	r5,r3
 2000c64:	1009883a 	mov	r4,r2
 2000c68:	2001b2c0 	call	2001b2c <__fixdfsi>
 2000c6c:	1085883a 	add	r2,r2,r2
 2000c70:	a885883a 	add	r2,r21,r2
 2000c74:	1080000b 	ldhu	r2,0(r2)
 2000c78:	8dc7883a 	add	r3,r17,r23
 2000c7c:	1004953a 	slli	r2,r2,20
 2000c80:	a0c00035 	stwio	r3,0(r20)
 2000c84:	108ffc2c 	andhi	r2,r2,16368
 2000c88:	98800035 	stwio	r2,0(r19)
 2000c8c:	e4800035 	stwio	r18,0(fp)
 2000c90:	e0000035 	stwio	zero,0(fp)
 2000c94:	bdc00044 	addi	r23,r23,1
 2000c98:	bc3fe41e 	bne	r23,r16,2000c2c <__alt_mem_epcs_flash_controller+0xfdff7c2c>
 2000c9c:	d8c00017 	ldw	r3,0(sp)
 2000ca0:	d8800117 	ldw	r2,4(sp)
 2000ca4:	18c00044 	addi	r3,r3,1
 2000ca8:	10800804 	addi	r2,r2,32
 2000cac:	d8c00015 	stw	r3,0(sp)
 2000cb0:	d8800115 	stw	r2,4(sp)
 2000cb4:	1c3f991e 	bne	r3,r16,2000b1c <__alt_mem_epcs_flash_controller+0xfdff7b1c>
 2000cb8:	003fcd06 	br	2000bf0 <__alt_mem_epcs_flash_controller+0xfdff7bf0>
 2000cbc:	d8800117 	ldw	r2,4(sp)
 2000cc0:	002f883a 	mov	r23,zero
 2000cc4:	14410004 	addi	r17,r2,1024
 2000cc8:	b809883a 	mov	r4,r23
 2000ccc:	2001a580 	call	2001a58 <__floatsidf>
 2000cd0:	1009883a 	mov	r4,r2
 2000cd4:	180b883a 	mov	r5,r3
 2000cd8:	000d883a 	mov	r6,zero
 2000cdc:	01d00ff4 	movhi	r7,16447
 2000ce0:	20018a40 	call	20018a4 <__divdf3>
 2000ce4:	000d883a 	mov	r6,zero
 2000ce8:	01d01c34 	movhi	r7,16496
 2000cec:	39f80004 	addi	r7,r7,-8192
 2000cf0:	1009883a 	mov	r4,r2
 2000cf4:	180b883a 	mov	r5,r3
 2000cf8:	20015c00 	call	20015c0 <__muldf3>
 2000cfc:	180b883a 	mov	r5,r3
 2000d00:	1009883a 	mov	r4,r2
 2000d04:	2001b2c0 	call	2001b2c <__fixdfsi>
 2000d08:	1085883a 	add	r2,r2,r2
 2000d0c:	a885883a 	add	r2,r21,r2
 2000d10:	1080000b 	ldhu	r2,0(r2)
 2000d14:	8dc7883a 	add	r3,r17,r23
 2000d18:	100492ba 	slli	r2,r2,10
 2000d1c:	a0c00035 	stwio	r3,0(r20)
 2000d20:	1584703a 	and	r2,r2,r22
 2000d24:	98800035 	stwio	r2,0(r19)
 2000d28:	e4800035 	stwio	r18,0(fp)
 2000d2c:	e0000035 	stwio	zero,0(fp)
 2000d30:	bdc00044 	addi	r23,r23,1
 2000d34:	bc3fe41e 	bne	r23,r16,2000cc8 <__alt_mem_epcs_flash_controller+0xfdff7cc8>
 2000d38:	d8c00017 	ldw	r3,0(sp)
 2000d3c:	d8800117 	ldw	r2,4(sp)
 2000d40:	18c00044 	addi	r3,r3,1
 2000d44:	10800804 	addi	r2,r2,32
 2000d48:	d8c00015 	stw	r3,0(sp)
 2000d4c:	d8800115 	stw	r2,4(sp)
 2000d50:	1c3f721e 	bne	r3,r16,2000b1c <__alt_mem_epcs_flash_controller+0xfdff7b1c>
 2000d54:	003fa606 	br	2000bf0 <__alt_mem_epcs_flash_controller+0xfdff7bf0>
 2000d58:	d8c00117 	ldw	r3,4(sp)
 2000d5c:	1c410004 	addi	r17,r3,1024
 2000d60:	b809883a 	mov	r4,r23
 2000d64:	2001a580 	call	2001a58 <__floatsidf>
 2000d68:	1009883a 	mov	r4,r2
 2000d6c:	180b883a 	mov	r5,r3
 2000d70:	000d883a 	mov	r6,zero
 2000d74:	01d00ff4 	movhi	r7,16447
 2000d78:	20018a40 	call	20018a4 <__divdf3>
 2000d7c:	000d883a 	mov	r6,zero
 2000d80:	01d01c34 	movhi	r7,16496
 2000d84:	39f80004 	addi	r7,r7,-8192
 2000d88:	1009883a 	mov	r4,r2
 2000d8c:	180b883a 	mov	r5,r3
 2000d90:	20015c00 	call	20015c0 <__muldf3>
 2000d94:	180b883a 	mov	r5,r3
 2000d98:	1009883a 	mov	r4,r2
 2000d9c:	2001b2c0 	call	2001b2c <__fixdfsi>
 2000da0:	1085883a 	add	r2,r2,r2
 2000da4:	a885883a 	add	r2,r21,r2
 2000da8:	1080000b 	ldhu	r2,0(r2)
 2000dac:	8dc7883a 	add	r3,r17,r23
 2000db0:	1080ffcc 	andi	r2,r2,1023
 2000db4:	a0c00035 	stwio	r3,0(r20)
 2000db8:	98800035 	stwio	r2,0(r19)
 2000dbc:	e4800035 	stwio	r18,0(fp)
 2000dc0:	e0000035 	stwio	zero,0(fp)
 2000dc4:	bdc00044 	addi	r23,r23,1
 2000dc8:	bc3fe51e 	bne	r23,r16,2000d60 <__alt_mem_epcs_flash_controller+0xfdff7d60>
 2000dcc:	d8c00017 	ldw	r3,0(sp)
 2000dd0:	d8800117 	ldw	r2,4(sp)
 2000dd4:	18c00044 	addi	r3,r3,1
 2000dd8:	10800804 	addi	r2,r2,32
 2000ddc:	d8c00015 	stw	r3,0(sp)
 2000de0:	d8800115 	stw	r2,4(sp)
 2000de4:	1c3f4d1e 	bne	r3,r16,2000b1c <__alt_mem_epcs_flash_controller+0xfdff7b1c>
 2000de8:	003f8106 	br	2000bf0 <__alt_mem_epcs_flash_controller+0xfdff7bf0>

02000dec <displayGamma98ColourBars>:
 2000dec:	defff404 	addi	sp,sp,-48
 2000df0:	df000a15 	stw	fp,40(sp)
 2000df4:	dd800815 	stw	r22,32(sp)
 2000df8:	dd400715 	stw	r21,28(sp)
 2000dfc:	dd000615 	stw	r20,24(sp)
 2000e00:	dcc00515 	stw	r19,20(sp)
 2000e04:	dc800415 	stw	r18,16(sp)
 2000e08:	dc000215 	stw	r16,8(sp)
 2000e0c:	dfc00b15 	stw	ra,44(sp)
 2000e10:	ddc00915 	stw	r23,36(sp)
 2000e14:	dc400315 	stw	r17,12(sp)
 2000e18:	d8000115 	stw	zero,4(sp)
 2000e1c:	d8000015 	stw	zero,0(sp)
 2000e20:	05408074 	movhi	r21,513
 2000e24:	ad521c04 	addi	r21,r21,18544
 2000e28:	05010074 	movhi	r20,1025
 2000e2c:	a5281804 	addi	r20,r20,-24480
 2000e30:	05800434 	movhi	r22,16
 2000e34:	b5bf0004 	addi	r22,r22,-1024
 2000e38:	04c10074 	movhi	r19,1025
 2000e3c:	9ce81404 	addi	r19,r19,-24496
 2000e40:	04800044 	movi	r18,1
 2000e44:	07010074 	movhi	fp,1025
 2000e48:	e7281004 	addi	fp,fp,-24512
 2000e4c:	04000804 	movi	r16,32
 2000e50:	d8800017 	ldw	r2,0(sp)
 2000e54:	00c001c4 	movi	r3,7
 2000e58:	18803e0e 	bge	r3,r2,2000f54 <displayGamma98ColourBars+0x168>
 2000e5c:	10bffe04 	addi	r2,r2,-8
 2000e60:	1880632e 	bgeu	r3,r2,2000ff0 <displayGamma98ColourBars+0x204>
 2000e64:	d8c00017 	ldw	r3,0(sp)
 2000e68:	002f883a 	mov	r23,zero
 2000e6c:	18bffc04 	addi	r2,r3,-16
 2000e70:	00c001c4 	movi	r3,7
 2000e74:	1880852e 	bgeu	r3,r2,200108c <displayGamma98ColourBars+0x2a0>
 2000e78:	d8800117 	ldw	r2,4(sp)
 2000e7c:	14410004 	addi	r17,r2,1024
 2000e80:	b809883a 	mov	r4,r23
 2000e84:	2001a580 	call	2001a58 <__floatsidf>
 2000e88:	1009883a 	mov	r4,r2
 2000e8c:	180b883a 	mov	r5,r3
 2000e90:	000d883a 	mov	r6,zero
 2000e94:	01d00ff4 	movhi	r7,16447
 2000e98:	20018a40 	call	20018a4 <__divdf3>
 2000e9c:	000d883a 	mov	r6,zero
 2000ea0:	01d01c34 	movhi	r7,16496
 2000ea4:	39f80004 	addi	r7,r7,-8192
 2000ea8:	1009883a 	mov	r4,r2
 2000eac:	180b883a 	mov	r5,r3
 2000eb0:	20015c00 	call	20015c0 <__muldf3>
 2000eb4:	180b883a 	mov	r5,r3
 2000eb8:	1009883a 	mov	r4,r2
 2000ebc:	2001b2c0 	call	2001b2c <__fixdfsi>
 2000ec0:	1085883a 	add	r2,r2,r2
 2000ec4:	a885883a 	add	r2,r21,r2
 2000ec8:	1080000b 	ldhu	r2,0(r2)
 2000ecc:	8dcb883a 	add	r5,r17,r23
 2000ed0:	10ffffcc 	andi	r3,r2,65535
 2000ed4:	1808953a 	slli	r4,r3,20
 2000ed8:	180692ba 	slli	r3,r3,10
 2000edc:	210ffc2c 	andhi	r4,r4,16368
 2000ee0:	1d86703a 	and	r3,r3,r22
 2000ee4:	a1400035 	stwio	r5,0(r20)
 2000ee8:	20c6b03a 	or	r3,r4,r3
 2000eec:	1080ffcc 	andi	r2,r2,1023
 2000ef0:	1884b03a 	or	r2,r3,r2
 2000ef4:	98800035 	stwio	r2,0(r19)
 2000ef8:	e4800035 	stwio	r18,0(fp)
 2000efc:	e0000035 	stwio	zero,0(fp)
 2000f00:	bdc00044 	addi	r23,r23,1
 2000f04:	bc3fde1e 	bne	r23,r16,2000e80 <__alt_mem_epcs_flash_controller+0xfdff7e80>
 2000f08:	d8c00017 	ldw	r3,0(sp)
 2000f0c:	d8800117 	ldw	r2,4(sp)
 2000f10:	18c00044 	addi	r3,r3,1
 2000f14:	10800804 	addi	r2,r2,32
 2000f18:	d8c00015 	stw	r3,0(sp)
 2000f1c:	d8800115 	stw	r2,4(sp)
 2000f20:	1c3fcb1e 	bne	r3,r16,2000e50 <__alt_mem_epcs_flash_controller+0xfdff7e50>
 2000f24:	dfc00b17 	ldw	ra,44(sp)
 2000f28:	df000a17 	ldw	fp,40(sp)
 2000f2c:	ddc00917 	ldw	r23,36(sp)
 2000f30:	dd800817 	ldw	r22,32(sp)
 2000f34:	dd400717 	ldw	r21,28(sp)
 2000f38:	dd000617 	ldw	r20,24(sp)
 2000f3c:	dcc00517 	ldw	r19,20(sp)
 2000f40:	dc800417 	ldw	r18,16(sp)
 2000f44:	dc400317 	ldw	r17,12(sp)
 2000f48:	dc000217 	ldw	r16,8(sp)
 2000f4c:	dec00c04 	addi	sp,sp,48
 2000f50:	f800283a 	ret
 2000f54:	d8800117 	ldw	r2,4(sp)
 2000f58:	002f883a 	mov	r23,zero
 2000f5c:	14410004 	addi	r17,r2,1024
 2000f60:	b809883a 	mov	r4,r23
 2000f64:	2001a580 	call	2001a58 <__floatsidf>
 2000f68:	1009883a 	mov	r4,r2
 2000f6c:	180b883a 	mov	r5,r3
 2000f70:	000d883a 	mov	r6,zero
 2000f74:	01d00ff4 	movhi	r7,16447
 2000f78:	20018a40 	call	20018a4 <__divdf3>
 2000f7c:	000d883a 	mov	r6,zero
 2000f80:	01d01c34 	movhi	r7,16496
 2000f84:	39f80004 	addi	r7,r7,-8192
 2000f88:	1009883a 	mov	r4,r2
 2000f8c:	180b883a 	mov	r5,r3
 2000f90:	20015c00 	call	20015c0 <__muldf3>
 2000f94:	180b883a 	mov	r5,r3
 2000f98:	1009883a 	mov	r4,r2
 2000f9c:	2001b2c0 	call	2001b2c <__fixdfsi>
 2000fa0:	1085883a 	add	r2,r2,r2
 2000fa4:	a885883a 	add	r2,r21,r2
 2000fa8:	1080000b 	ldhu	r2,0(r2)
 2000fac:	8dc7883a 	add	r3,r17,r23
 2000fb0:	1004953a 	slli	r2,r2,20
 2000fb4:	a0c00035 	stwio	r3,0(r20)
 2000fb8:	108ffc2c 	andhi	r2,r2,16368
 2000fbc:	98800035 	stwio	r2,0(r19)
 2000fc0:	e4800035 	stwio	r18,0(fp)
 2000fc4:	e0000035 	stwio	zero,0(fp)
 2000fc8:	bdc00044 	addi	r23,r23,1
 2000fcc:	bc3fe41e 	bne	r23,r16,2000f60 <__alt_mem_epcs_flash_controller+0xfdff7f60>
 2000fd0:	d8c00017 	ldw	r3,0(sp)
 2000fd4:	d8800117 	ldw	r2,4(sp)
 2000fd8:	18c00044 	addi	r3,r3,1
 2000fdc:	10800804 	addi	r2,r2,32
 2000fe0:	d8c00015 	stw	r3,0(sp)
 2000fe4:	d8800115 	stw	r2,4(sp)
 2000fe8:	1c3f991e 	bne	r3,r16,2000e50 <__alt_mem_epcs_flash_controller+0xfdff7e50>
 2000fec:	003fcd06 	br	2000f24 <__alt_mem_epcs_flash_controller+0xfdff7f24>
 2000ff0:	d8800117 	ldw	r2,4(sp)
 2000ff4:	002f883a 	mov	r23,zero
 2000ff8:	14410004 	addi	r17,r2,1024
 2000ffc:	b809883a 	mov	r4,r23
 2001000:	2001a580 	call	2001a58 <__floatsidf>
 2001004:	1009883a 	mov	r4,r2
 2001008:	180b883a 	mov	r5,r3
 200100c:	000d883a 	mov	r6,zero
 2001010:	01d00ff4 	movhi	r7,16447
 2001014:	20018a40 	call	20018a4 <__divdf3>
 2001018:	000d883a 	mov	r6,zero
 200101c:	01d01c34 	movhi	r7,16496
 2001020:	39f80004 	addi	r7,r7,-8192
 2001024:	1009883a 	mov	r4,r2
 2001028:	180b883a 	mov	r5,r3
 200102c:	20015c00 	call	20015c0 <__muldf3>
 2001030:	180b883a 	mov	r5,r3
 2001034:	1009883a 	mov	r4,r2
 2001038:	2001b2c0 	call	2001b2c <__fixdfsi>
 200103c:	1085883a 	add	r2,r2,r2
 2001040:	a885883a 	add	r2,r21,r2
 2001044:	1080000b 	ldhu	r2,0(r2)
 2001048:	8dc7883a 	add	r3,r17,r23
 200104c:	100492ba 	slli	r2,r2,10
 2001050:	a0c00035 	stwio	r3,0(r20)
 2001054:	1584703a 	and	r2,r2,r22
 2001058:	98800035 	stwio	r2,0(r19)
 200105c:	e4800035 	stwio	r18,0(fp)
 2001060:	e0000035 	stwio	zero,0(fp)
 2001064:	bdc00044 	addi	r23,r23,1
 2001068:	bc3fe41e 	bne	r23,r16,2000ffc <__alt_mem_epcs_flash_controller+0xfdff7ffc>
 200106c:	d8c00017 	ldw	r3,0(sp)
 2001070:	d8800117 	ldw	r2,4(sp)
 2001074:	18c00044 	addi	r3,r3,1
 2001078:	10800804 	addi	r2,r2,32
 200107c:	d8c00015 	stw	r3,0(sp)
 2001080:	d8800115 	stw	r2,4(sp)
 2001084:	1c3f721e 	bne	r3,r16,2000e50 <__alt_mem_epcs_flash_controller+0xfdff7e50>
 2001088:	003fa606 	br	2000f24 <__alt_mem_epcs_flash_controller+0xfdff7f24>
 200108c:	d8c00117 	ldw	r3,4(sp)
 2001090:	1c410004 	addi	r17,r3,1024
 2001094:	b809883a 	mov	r4,r23
 2001098:	2001a580 	call	2001a58 <__floatsidf>
 200109c:	1009883a 	mov	r4,r2
 20010a0:	180b883a 	mov	r5,r3
 20010a4:	000d883a 	mov	r6,zero
 20010a8:	01d00ff4 	movhi	r7,16447
 20010ac:	20018a40 	call	20018a4 <__divdf3>
 20010b0:	000d883a 	mov	r6,zero
 20010b4:	01d01c34 	movhi	r7,16496
 20010b8:	39f80004 	addi	r7,r7,-8192
 20010bc:	1009883a 	mov	r4,r2
 20010c0:	180b883a 	mov	r5,r3
 20010c4:	20015c00 	call	20015c0 <__muldf3>
 20010c8:	180b883a 	mov	r5,r3
 20010cc:	1009883a 	mov	r4,r2
 20010d0:	2001b2c0 	call	2001b2c <__fixdfsi>
 20010d4:	1085883a 	add	r2,r2,r2
 20010d8:	a885883a 	add	r2,r21,r2
 20010dc:	1080000b 	ldhu	r2,0(r2)
 20010e0:	8dc7883a 	add	r3,r17,r23
 20010e4:	1080ffcc 	andi	r2,r2,1023
 20010e8:	a0c00035 	stwio	r3,0(r20)
 20010ec:	98800035 	stwio	r2,0(r19)
 20010f0:	e4800035 	stwio	r18,0(fp)
 20010f4:	e0000035 	stwio	zero,0(fp)
 20010f8:	bdc00044 	addi	r23,r23,1
 20010fc:	bc3fe51e 	bne	r23,r16,2001094 <__alt_mem_epcs_flash_controller+0xfdff8094>
 2001100:	d8c00017 	ldw	r3,0(sp)
 2001104:	d8800117 	ldw	r2,4(sp)
 2001108:	18c00044 	addi	r3,r3,1
 200110c:	10800804 	addi	r2,r2,32
 2001110:	d8c00015 	stw	r3,0(sp)
 2001114:	d8800115 	stw	r2,4(sp)
 2001118:	1c3f4d1e 	bne	r3,r16,2000e50 <__alt_mem_epcs_flash_controller+0xfdff7e50>
 200111c:	003f8106 	br	2000f24 <__alt_mem_epcs_flash_controller+0xfdff7f24>

02001120 <displayGamma46ColourBars>:
 2001120:	defff404 	addi	sp,sp,-48
 2001124:	df000a15 	stw	fp,40(sp)
 2001128:	dd800815 	stw	r22,32(sp)
 200112c:	dd400715 	stw	r21,28(sp)
 2001130:	dd000615 	stw	r20,24(sp)
 2001134:	dcc00515 	stw	r19,20(sp)
 2001138:	dc800415 	stw	r18,16(sp)
 200113c:	dc000215 	stw	r16,8(sp)
 2001140:	dfc00b15 	stw	ra,44(sp)
 2001144:	ddc00915 	stw	r23,36(sp)
 2001148:	dc400315 	stw	r17,12(sp)
 200114c:	d8000115 	stw	zero,4(sp)
 2001150:	d8000015 	stw	zero,0(sp)
 2001154:	05408074 	movhi	r21,513
 2001158:	ad519c04 	addi	r21,r21,18032
 200115c:	05010074 	movhi	r20,1025
 2001160:	a5281804 	addi	r20,r20,-24480
 2001164:	05800434 	movhi	r22,16
 2001168:	b5bf0004 	addi	r22,r22,-1024
 200116c:	04c10074 	movhi	r19,1025
 2001170:	9ce81404 	addi	r19,r19,-24496
 2001174:	04800044 	movi	r18,1
 2001178:	07010074 	movhi	fp,1025
 200117c:	e7281004 	addi	fp,fp,-24512
 2001180:	04000804 	movi	r16,32
 2001184:	d8800017 	ldw	r2,0(sp)
 2001188:	00c001c4 	movi	r3,7
 200118c:	18803e0e 	bge	r3,r2,2001288 <displayGamma46ColourBars+0x168>
 2001190:	10bffe04 	addi	r2,r2,-8
 2001194:	1880632e 	bgeu	r3,r2,2001324 <displayGamma46ColourBars+0x204>
 2001198:	d8c00017 	ldw	r3,0(sp)
 200119c:	002f883a 	mov	r23,zero
 20011a0:	18bffc04 	addi	r2,r3,-16
 20011a4:	00c001c4 	movi	r3,7
 20011a8:	1880852e 	bgeu	r3,r2,20013c0 <displayGamma46ColourBars+0x2a0>
 20011ac:	d8800117 	ldw	r2,4(sp)
 20011b0:	14410004 	addi	r17,r2,1024
 20011b4:	b809883a 	mov	r4,r23
 20011b8:	2001a580 	call	2001a58 <__floatsidf>
 20011bc:	1009883a 	mov	r4,r2
 20011c0:	180b883a 	mov	r5,r3
 20011c4:	000d883a 	mov	r6,zero
 20011c8:	01d00ff4 	movhi	r7,16447
 20011cc:	20018a40 	call	20018a4 <__divdf3>
 20011d0:	000d883a 	mov	r6,zero
 20011d4:	01d01c34 	movhi	r7,16496
 20011d8:	39f80004 	addi	r7,r7,-8192
 20011dc:	1009883a 	mov	r4,r2
 20011e0:	180b883a 	mov	r5,r3
 20011e4:	20015c00 	call	20015c0 <__muldf3>
 20011e8:	180b883a 	mov	r5,r3
 20011ec:	1009883a 	mov	r4,r2
 20011f0:	2001b2c0 	call	2001b2c <__fixdfsi>
 20011f4:	1085883a 	add	r2,r2,r2
 20011f8:	a885883a 	add	r2,r21,r2
 20011fc:	1080000b 	ldhu	r2,0(r2)
 2001200:	8dcb883a 	add	r5,r17,r23
 2001204:	10ffffcc 	andi	r3,r2,65535
 2001208:	1808953a 	slli	r4,r3,20
 200120c:	180692ba 	slli	r3,r3,10
 2001210:	210ffc2c 	andhi	r4,r4,16368
 2001214:	1d86703a 	and	r3,r3,r22
 2001218:	a1400035 	stwio	r5,0(r20)
 200121c:	20c6b03a 	or	r3,r4,r3
 2001220:	1080ffcc 	andi	r2,r2,1023
 2001224:	1884b03a 	or	r2,r3,r2
 2001228:	98800035 	stwio	r2,0(r19)
 200122c:	e4800035 	stwio	r18,0(fp)
 2001230:	e0000035 	stwio	zero,0(fp)
 2001234:	bdc00044 	addi	r23,r23,1
 2001238:	bc3fde1e 	bne	r23,r16,20011b4 <__alt_mem_epcs_flash_controller+0xfdff81b4>
 200123c:	d8c00017 	ldw	r3,0(sp)
 2001240:	d8800117 	ldw	r2,4(sp)
 2001244:	18c00044 	addi	r3,r3,1
 2001248:	10800804 	addi	r2,r2,32
 200124c:	d8c00015 	stw	r3,0(sp)
 2001250:	d8800115 	stw	r2,4(sp)
 2001254:	1c3fcb1e 	bne	r3,r16,2001184 <__alt_mem_epcs_flash_controller+0xfdff8184>
 2001258:	dfc00b17 	ldw	ra,44(sp)
 200125c:	df000a17 	ldw	fp,40(sp)
 2001260:	ddc00917 	ldw	r23,36(sp)
 2001264:	dd800817 	ldw	r22,32(sp)
 2001268:	dd400717 	ldw	r21,28(sp)
 200126c:	dd000617 	ldw	r20,24(sp)
 2001270:	dcc00517 	ldw	r19,20(sp)
 2001274:	dc800417 	ldw	r18,16(sp)
 2001278:	dc400317 	ldw	r17,12(sp)
 200127c:	dc000217 	ldw	r16,8(sp)
 2001280:	dec00c04 	addi	sp,sp,48
 2001284:	f800283a 	ret
 2001288:	d8800117 	ldw	r2,4(sp)
 200128c:	002f883a 	mov	r23,zero
 2001290:	14410004 	addi	r17,r2,1024
 2001294:	b809883a 	mov	r4,r23
 2001298:	2001a580 	call	2001a58 <__floatsidf>
 200129c:	1009883a 	mov	r4,r2
 20012a0:	180b883a 	mov	r5,r3
 20012a4:	000d883a 	mov	r6,zero
 20012a8:	01d00ff4 	movhi	r7,16447
 20012ac:	20018a40 	call	20018a4 <__divdf3>
 20012b0:	000d883a 	mov	r6,zero
 20012b4:	01d01c34 	movhi	r7,16496
 20012b8:	39f80004 	addi	r7,r7,-8192
 20012bc:	1009883a 	mov	r4,r2
 20012c0:	180b883a 	mov	r5,r3
 20012c4:	20015c00 	call	20015c0 <__muldf3>
 20012c8:	180b883a 	mov	r5,r3
 20012cc:	1009883a 	mov	r4,r2
 20012d0:	2001b2c0 	call	2001b2c <__fixdfsi>
 20012d4:	1085883a 	add	r2,r2,r2
 20012d8:	a885883a 	add	r2,r21,r2
 20012dc:	1080000b 	ldhu	r2,0(r2)
 20012e0:	8dc7883a 	add	r3,r17,r23
 20012e4:	1004953a 	slli	r2,r2,20
 20012e8:	a0c00035 	stwio	r3,0(r20)
 20012ec:	108ffc2c 	andhi	r2,r2,16368
 20012f0:	98800035 	stwio	r2,0(r19)
 20012f4:	e4800035 	stwio	r18,0(fp)
 20012f8:	e0000035 	stwio	zero,0(fp)
 20012fc:	bdc00044 	addi	r23,r23,1
 2001300:	bc3fe41e 	bne	r23,r16,2001294 <__alt_mem_epcs_flash_controller+0xfdff8294>
 2001304:	d8c00017 	ldw	r3,0(sp)
 2001308:	d8800117 	ldw	r2,4(sp)
 200130c:	18c00044 	addi	r3,r3,1
 2001310:	10800804 	addi	r2,r2,32
 2001314:	d8c00015 	stw	r3,0(sp)
 2001318:	d8800115 	stw	r2,4(sp)
 200131c:	1c3f991e 	bne	r3,r16,2001184 <__alt_mem_epcs_flash_controller+0xfdff8184>
 2001320:	003fcd06 	br	2001258 <__alt_mem_epcs_flash_controller+0xfdff8258>
 2001324:	d8800117 	ldw	r2,4(sp)
 2001328:	002f883a 	mov	r23,zero
 200132c:	14410004 	addi	r17,r2,1024
 2001330:	b809883a 	mov	r4,r23
 2001334:	2001a580 	call	2001a58 <__floatsidf>
 2001338:	1009883a 	mov	r4,r2
 200133c:	180b883a 	mov	r5,r3
 2001340:	000d883a 	mov	r6,zero
 2001344:	01d00ff4 	movhi	r7,16447
 2001348:	20018a40 	call	20018a4 <__divdf3>
 200134c:	000d883a 	mov	r6,zero
 2001350:	01d01c34 	movhi	r7,16496
 2001354:	39f80004 	addi	r7,r7,-8192
 2001358:	1009883a 	mov	r4,r2
 200135c:	180b883a 	mov	r5,r3
 2001360:	20015c00 	call	20015c0 <__muldf3>
 2001364:	180b883a 	mov	r5,r3
 2001368:	1009883a 	mov	r4,r2
 200136c:	2001b2c0 	call	2001b2c <__fixdfsi>
 2001370:	1085883a 	add	r2,r2,r2
 2001374:	a885883a 	add	r2,r21,r2
 2001378:	1080000b 	ldhu	r2,0(r2)
 200137c:	8dc7883a 	add	r3,r17,r23
 2001380:	100492ba 	slli	r2,r2,10
 2001384:	a0c00035 	stwio	r3,0(r20)
 2001388:	1584703a 	and	r2,r2,r22
 200138c:	98800035 	stwio	r2,0(r19)
 2001390:	e4800035 	stwio	r18,0(fp)
 2001394:	e0000035 	stwio	zero,0(fp)
 2001398:	bdc00044 	addi	r23,r23,1
 200139c:	bc3fe41e 	bne	r23,r16,2001330 <__alt_mem_epcs_flash_controller+0xfdff8330>
 20013a0:	d8c00017 	ldw	r3,0(sp)
 20013a4:	d8800117 	ldw	r2,4(sp)
 20013a8:	18c00044 	addi	r3,r3,1
 20013ac:	10800804 	addi	r2,r2,32
 20013b0:	d8c00015 	stw	r3,0(sp)
 20013b4:	d8800115 	stw	r2,4(sp)
 20013b8:	1c3f721e 	bne	r3,r16,2001184 <__alt_mem_epcs_flash_controller+0xfdff8184>
 20013bc:	003fa606 	br	2001258 <__alt_mem_epcs_flash_controller+0xfdff8258>
 20013c0:	d8c00117 	ldw	r3,4(sp)
 20013c4:	1c410004 	addi	r17,r3,1024
 20013c8:	b809883a 	mov	r4,r23
 20013cc:	2001a580 	call	2001a58 <__floatsidf>
 20013d0:	1009883a 	mov	r4,r2
 20013d4:	180b883a 	mov	r5,r3
 20013d8:	000d883a 	mov	r6,zero
 20013dc:	01d00ff4 	movhi	r7,16447
 20013e0:	20018a40 	call	20018a4 <__divdf3>
 20013e4:	000d883a 	mov	r6,zero
 20013e8:	01d01c34 	movhi	r7,16496
 20013ec:	39f80004 	addi	r7,r7,-8192
 20013f0:	1009883a 	mov	r4,r2
 20013f4:	180b883a 	mov	r5,r3
 20013f8:	20015c00 	call	20015c0 <__muldf3>
 20013fc:	180b883a 	mov	r5,r3
 2001400:	1009883a 	mov	r4,r2
 2001404:	2001b2c0 	call	2001b2c <__fixdfsi>
 2001408:	1085883a 	add	r2,r2,r2
 200140c:	a885883a 	add	r2,r21,r2
 2001410:	1080000b 	ldhu	r2,0(r2)
 2001414:	8dc7883a 	add	r3,r17,r23
 2001418:	1080ffcc 	andi	r2,r2,1023
 200141c:	a0c00035 	stwio	r3,0(r20)
 2001420:	98800035 	stwio	r2,0(r19)
 2001424:	e4800035 	stwio	r18,0(fp)
 2001428:	e0000035 	stwio	zero,0(fp)
 200142c:	bdc00044 	addi	r23,r23,1
 2001430:	bc3fe51e 	bne	r23,r16,20013c8 <__alt_mem_epcs_flash_controller+0xfdff83c8>
 2001434:	d8c00017 	ldw	r3,0(sp)
 2001438:	d8800117 	ldw	r2,4(sp)
 200143c:	18c00044 	addi	r3,r3,1
 2001440:	10800804 	addi	r2,r2,32
 2001444:	d8c00015 	stw	r3,0(sp)
 2001448:	d8800115 	stw	r2,4(sp)
 200144c:	1c3f4d1e 	bne	r3,r16,2001184 <__alt_mem_epcs_flash_controller+0xfdff8184>
 2001450:	003f8106 	br	2001258 <__alt_mem_epcs_flash_controller+0xfdff8258>

02001454 <printMenu>:
 2001454:	f800283a 	ret

02001458 <animationsMenu>:
 2001458:	defffc04 	addi	sp,sp,-16
 200145c:	dc400215 	stw	r17,8(sp)
 2001460:	dc000115 	stw	r16,4(sp)
 2001464:	dfc00315 	stw	ra,12(sp)
 2001468:	d8000015 	stw	zero,0(sp)
 200146c:	000b883a 	mov	r5,zero
 2001470:	04408234 	movhi	r17,520
 2001474:	8c5e0104 	addi	r17,r17,30724
 2001478:	04000644 	movi	r16,25
 200147c:	2945883a 	add	r2,r5,r5
 2001480:	1085883a 	add	r2,r2,r2
 2001484:	8885883a 	add	r2,r17,r2
 2001488:	10800017 	ldw	r2,0(r2)
 200148c:	01008074 	movhi	r4,513
 2001490:	21114d04 	addi	r4,r4,17716
 2001494:	11800017 	ldw	r6,0(r2)
 2001498:	20031a40 	call	20031a4 <printf>
 200149c:	d9400017 	ldw	r5,0(sp)
 20014a0:	29400044 	addi	r5,r5,1
 20014a4:	d9400015 	stw	r5,0(sp)
 20014a8:	817ff40e 	bge	r16,r5,200147c <__alt_mem_epcs_flash_controller+0xfdff847c>
 20014ac:	d80b883a 	mov	r5,sp
 20014b0:	01008074 	movhi	r4,513
 20014b4:	21114c04 	addi	r4,r4,17712
 20014b8:	20032dc0 	call	20032dc <scanf>
 20014bc:	00808274 	movhi	r2,521
 20014c0:	10a55004 	addi	r2,r2,-27328
 20014c4:	10800017 	ldw	r2,0(r2)
 20014c8:	11000117 	ldw	r4,4(r2)
 20014cc:	200249c0 	call	200249c <fflush>
 20014d0:	d8800017 	ldw	r2,0(sp)
 20014d4:	00c08234 	movhi	r3,520
 20014d8:	18de0104 	addi	r3,r3,30724
 20014dc:	1085883a 	add	r2,r2,r2
 20014e0:	1085883a 	add	r2,r2,r2
 20014e4:	1885883a 	add	r2,r3,r2
 20014e8:	10c00017 	ldw	r3,0(r2)
 20014ec:	00808274 	movhi	r2,521
 20014f0:	10acc404 	addi	r2,r2,-19696
 20014f4:	10c00015 	stw	r3,0(r2)
 20014f8:	dfc00317 	ldw	ra,12(sp)
 20014fc:	dc400217 	ldw	r17,8(sp)
 2001500:	dc000117 	ldw	r16,4(sp)
 2001504:	dec00404 	addi	sp,sp,16
 2001508:	f800283a 	ret

0200150c <main>:
 200150c:	defffa04 	addi	sp,sp,-24
 2001510:	01008074 	movhi	r4,513
 2001514:	21114604 	addi	r4,r4,17688
 2001518:	dcc00415 	stw	r19,16(sp)
 200151c:	dfc00515 	stw	ra,20(sp)
 2001520:	dc800315 	stw	r18,12(sp)
 2001524:	dc400215 	stw	r17,8(sp)
 2001528:	dc000115 	stw	r16,4(sp)
 200152c:	20032640 	call	2003264 <puts>
 2001530:	00808234 	movhi	r2,520
 2001534:	109e0104 	addi	r2,r2,30724
 2001538:	10800117 	ldw	r2,4(r2)
 200153c:	04c08274 	movhi	r19,521
 2001540:	9cecc404 	addi	r19,r19,-19696
 2001544:	98800015 	stw	r2,0(r19)
 2001548:	00810074 	movhi	r2,1025
 200154c:	10a81004 	addi	r2,r2,-24512
 2001550:	10000035 	stwio	zero,0(r2)
 2001554:	01008274 	movhi	r4,521
 2001558:	212cd404 	addi	r4,r4,-19632
 200155c:	0140fa04 	movi	r5,1000
 2001560:	01808034 	movhi	r6,512
 2001564:	31807d04 	addi	r6,r6,500
 2001568:	000f883a 	mov	r7,zero
 200156c:	20101d80 	call	20101d8 <alt_alarm_start>
 2001570:	04808274 	movhi	r18,521
 2001574:	94a55004 	addi	r18,r18,-27328
 2001578:	04408234 	movhi	r17,520
 200157c:	8c5dfe04 	addi	r17,r17,30712
 2001580:	04000084 	movi	r16,2
 2001584:	d80b883a 	mov	r5,sp
 2001588:	01008074 	movhi	r4,513
 200158c:	21114c04 	addi	r4,r4,17712
 2001590:	20032dc0 	call	20032dc <scanf>
 2001594:	90800017 	ldw	r2,0(r18)
 2001598:	11000117 	ldw	r4,4(r2)
 200159c:	200249c0 	call	200249c <fflush>
 20015a0:	d8800017 	ldw	r2,0(sp)
 20015a4:	1087883a 	add	r3,r2,r2
 20015a8:	18c7883a 	add	r3,r3,r3
 20015ac:	88c7883a 	add	r3,r17,r3
 20015b0:	80bff416 	blt	r16,r2,2001584 <__alt_mem_epcs_flash_controller+0xfdff8584>
 20015b4:	18800017 	ldw	r2,0(r3)
 20015b8:	98800015 	stw	r2,0(r19)
 20015bc:	003ff106 	br	2001584 <__alt_mem_epcs_flash_controller+0xfdff8584>

020015c0 <__muldf3>:
 20015c0:	deffe404 	addi	sp,sp,-112
 20015c4:	d9001115 	stw	r4,68(sp)
 20015c8:	d9401215 	stw	r5,72(sp)
 20015cc:	d9001104 	addi	r4,sp,68
 20015d0:	d9400a04 	addi	r5,sp,40
 20015d4:	dfc01b15 	stw	ra,108(sp)
 20015d8:	d9800f15 	stw	r6,60(sp)
 20015dc:	d9c01015 	stw	r7,64(sp)
 20015e0:	ddc01a15 	stw	r23,104(sp)
 20015e4:	dd801915 	stw	r22,100(sp)
 20015e8:	dd401815 	stw	r21,96(sp)
 20015ec:	dd001715 	stw	r20,92(sp)
 20015f0:	dcc01615 	stw	r19,88(sp)
 20015f4:	dc801515 	stw	r18,84(sp)
 20015f8:	dc401415 	stw	r17,80(sp)
 20015fc:	dc001315 	stw	r16,76(sp)
 2001600:	20021280 	call	2002128 <__unpack_d>
 2001604:	d9000f04 	addi	r4,sp,60
 2001608:	d9400504 	addi	r5,sp,20
 200160c:	20021280 	call	2002128 <__unpack_d>
 2001610:	d8c00a17 	ldw	r3,40(sp)
 2001614:	00800044 	movi	r2,1
 2001618:	10c01136 	bltu	r2,r3,2001660 <__muldf3+0xa0>
 200161c:	d8c00b17 	ldw	r3,44(sp)
 2001620:	d8800617 	ldw	r2,24(sp)
 2001624:	d9000a04 	addi	r4,sp,40
 2001628:	1884c03a 	cmpne	r2,r3,r2
 200162c:	d8800b15 	stw	r2,44(sp)
 2001630:	2001f040 	call	2001f04 <__pack_d>
 2001634:	dfc01b17 	ldw	ra,108(sp)
 2001638:	ddc01a17 	ldw	r23,104(sp)
 200163c:	dd801917 	ldw	r22,100(sp)
 2001640:	dd401817 	ldw	r21,96(sp)
 2001644:	dd001717 	ldw	r20,92(sp)
 2001648:	dcc01617 	ldw	r19,88(sp)
 200164c:	dc801517 	ldw	r18,84(sp)
 2001650:	dc401417 	ldw	r17,80(sp)
 2001654:	dc001317 	ldw	r16,76(sp)
 2001658:	dec01c04 	addi	sp,sp,112
 200165c:	f800283a 	ret
 2001660:	d9000517 	ldw	r4,20(sp)
 2001664:	11000636 	bltu	r2,r4,2001680 <__muldf3+0xc0>
 2001668:	d8800617 	ldw	r2,24(sp)
 200166c:	d8c00b17 	ldw	r3,44(sp)
 2001670:	d9000504 	addi	r4,sp,20
 2001674:	1884c03a 	cmpne	r2,r3,r2
 2001678:	d8800615 	stw	r2,24(sp)
 200167c:	003fec06 	br	2001630 <__alt_mem_epcs_flash_controller+0xfdff8630>
 2001680:	00800104 	movi	r2,4
 2001684:	1880051e 	bne	r3,r2,200169c <__muldf3+0xdc>
 2001688:	00800084 	movi	r2,2
 200168c:	20bfe31e 	bne	r4,r2,200161c <__alt_mem_epcs_flash_controller+0xfdff861c>
 2001690:	01008234 	movhi	r4,520
 2001694:	211c6c04 	addi	r4,r4,29104
 2001698:	003fe506 	br	2001630 <__alt_mem_epcs_flash_controller+0xfdff8630>
 200169c:	2080031e 	bne	r4,r2,20016ac <__muldf3+0xec>
 20016a0:	00800084 	movi	r2,2
 20016a4:	18bffa26 	beq	r3,r2,2001690 <__alt_mem_epcs_flash_controller+0xfdff8690>
 20016a8:	003fef06 	br	2001668 <__alt_mem_epcs_flash_controller+0xfdff8668>
 20016ac:	00800084 	movi	r2,2
 20016b0:	18bfda26 	beq	r3,r2,200161c <__alt_mem_epcs_flash_controller+0xfdff861c>
 20016b4:	20bfec26 	beq	r4,r2,2001668 <__alt_mem_epcs_flash_controller+0xfdff8668>
 20016b8:	dc000d17 	ldw	r16,52(sp)
 20016bc:	dd000817 	ldw	r20,32(sp)
 20016c0:	dc800917 	ldw	r18,36(sp)
 20016c4:	8009883a 	mov	r4,r16
 20016c8:	000b883a 	mov	r5,zero
 20016cc:	a00d883a 	mov	r6,r20
 20016d0:	000f883a 	mov	r7,zero
 20016d4:	2001d480 	call	2001d48 <__muldi3>
 20016d8:	dc400e17 	ldw	r17,56(sp)
 20016dc:	9009883a 	mov	r4,r18
 20016e0:	800d883a 	mov	r6,r16
 20016e4:	000b883a 	mov	r5,zero
 20016e8:	000f883a 	mov	r7,zero
 20016ec:	102f883a 	mov	r23,r2
 20016f0:	1827883a 	mov	r19,r3
 20016f4:	2001d480 	call	2001d48 <__muldi3>
 20016f8:	900d883a 	mov	r6,r18
 20016fc:	8809883a 	mov	r4,r17
 2001700:	000b883a 	mov	r5,zero
 2001704:	000f883a 	mov	r7,zero
 2001708:	102b883a 	mov	r21,r2
 200170c:	1821883a 	mov	r16,r3
 2001710:	2001d480 	call	2001d48 <__muldi3>
 2001714:	8809883a 	mov	r4,r17
 2001718:	000b883a 	mov	r5,zero
 200171c:	a00d883a 	mov	r6,r20
 2001720:	000f883a 	mov	r7,zero
 2001724:	102d883a 	mov	r22,r2
 2001728:	1825883a 	mov	r18,r3
 200172c:	2001d480 	call	2001d48 <__muldi3>
 2001730:	154b883a 	add	r5,r2,r21
 2001734:	2889803a 	cmpltu	r4,r5,r2
 2001738:	1c07883a 	add	r3,r3,r16
 200173c:	20c9883a 	add	r4,r4,r3
 2001740:	24004b36 	bltu	r4,r16,2001870 <__muldf3+0x2b0>
 2001744:	8100011e 	bne	r16,r4,200174c <__muldf3+0x18c>
 2001748:	2d404936 	bltu	r5,r21,2001870 <__muldf3+0x2b0>
 200174c:	0011883a 	mov	r8,zero
 2001750:	0007883a 	mov	r3,zero
 2001754:	2ccb883a 	add	r5,r5,r19
 2001758:	b80d883a 	mov	r6,r23
 200175c:	2cc0012e 	bgeu	r5,r19,2001764 <__muldf3+0x1a4>
 2001760:	02000044 	movi	r8,1
 2001764:	258f883a 	add	r7,r4,r22
 2001768:	3909803a 	cmpltu	r4,r7,r4
 200176c:	da400c17 	ldw	r9,48(sp)
 2001770:	2489883a 	add	r4,r4,r18
 2001774:	d8800717 	ldw	r2,28(sp)
 2001778:	20c9883a 	add	r4,r4,r3
 200177c:	da800b17 	ldw	r10,44(sp)
 2001780:	d8c00617 	ldw	r3,24(sp)
 2001784:	3a11883a 	add	r8,r7,r8
 2001788:	4885883a 	add	r2,r9,r2
 200178c:	50c6c03a 	cmpne	r3,r10,r3
 2001790:	41cf803a 	cmpltu	r7,r8,r7
 2001794:	12400104 	addi	r9,r2,4
 2001798:	d8c00115 	stw	r3,4(sp)
 200179c:	3909883a 	add	r4,r7,r4
 20017a0:	da400215 	stw	r9,8(sp)
 20017a4:	03480034 	movhi	r13,8192
 20017a8:	6b7fffc4 	addi	r13,r13,-1
 20017ac:	4007883a 	mov	r3,r8
 20017b0:	6900102e 	bgeu	r13,r4,20017f4 <__muldf3+0x234>
 20017b4:	10800144 	addi	r2,r2,5
 20017b8:	180ed07a 	srli	r7,r3,1
 20017bc:	18c0004c 	andi	r3,r3,1
 20017c0:	201097fa 	slli	r8,r4,31
 20017c4:	281697fa 	slli	r11,r5,31
 20017c8:	2008d07a 	srli	r4,r4,1
 20017cc:	3014d07a 	srli	r10,r6,1
 20017d0:	2812d07a 	srli	r9,r5,1
 20017d4:	1019883a 	mov	r12,r2
 20017d8:	18000226 	beq	r3,zero,20017e4 <__muldf3+0x224>
 20017dc:	5a8cb03a 	or	r6,r11,r10
 20017e0:	49600034 	orhi	r5,r9,32768
 20017e4:	41c6b03a 	or	r3,r8,r7
 20017e8:	10800044 	addi	r2,r2,1
 20017ec:	693ff236 	bltu	r13,r4,20017b8 <__alt_mem_epcs_flash_controller+0xfdff87b8>
 20017f0:	db000215 	stw	r12,8(sp)
 20017f4:	03440034 	movhi	r13,4096
 20017f8:	6b7fffc4 	addi	r13,r13,-1
 20017fc:	69001336 	bltu	r13,r4,200184c <__muldf3+0x28c>
 2001800:	d8800217 	ldw	r2,8(sp)
 2001804:	10bfffc4 	addi	r2,r2,-1
 2001808:	18d3883a 	add	r9,r3,r3
 200180c:	48c7803a 	cmpltu	r3,r9,r3
 2001810:	2109883a 	add	r4,r4,r4
 2001814:	190f883a 	add	r7,r3,r4
 2001818:	3191883a 	add	r8,r6,r6
 200181c:	4197803a 	cmpltu	r11,r8,r6
 2001820:	2955883a 	add	r10,r5,r5
 2001824:	1019883a 	mov	r12,r2
 2001828:	4807883a 	mov	r3,r9
 200182c:	3809883a 	mov	r4,r7
 2001830:	2800010e 	bge	r5,zero,2001838 <__muldf3+0x278>
 2001834:	48c00054 	ori	r3,r9,1
 2001838:	400d883a 	mov	r6,r8
 200183c:	5a8b883a 	add	r5,r11,r10
 2001840:	10bfffc4 	addi	r2,r2,-1
 2001844:	69fff02e 	bgeu	r13,r7,2001808 <__alt_mem_epcs_flash_controller+0xfdff8808>
 2001848:	db000215 	stw	r12,8(sp)
 200184c:	18803fcc 	andi	r2,r3,255
 2001850:	01c02004 	movi	r7,128
 2001854:	11c00926 	beq	r2,r7,200187c <__muldf3+0x2bc>
 2001858:	008000c4 	movi	r2,3
 200185c:	d9000415 	stw	r4,16(sp)
 2001860:	d8c00315 	stw	r3,12(sp)
 2001864:	d8800015 	stw	r2,0(sp)
 2001868:	d809883a 	mov	r4,sp
 200186c:	003f7006 	br	2001630 <__alt_mem_epcs_flash_controller+0xfdff8630>
 2001870:	0011883a 	mov	r8,zero
 2001874:	00c00044 	movi	r3,1
 2001878:	003fb606 	br	2001754 <__alt_mem_epcs_flash_controller+0xfdff8754>
 200187c:	19c0400c 	andi	r7,r3,256
 2001880:	383ff51e 	bne	r7,zero,2001858 <__alt_mem_epcs_flash_controller+0xfdff8858>
 2001884:	314ab03a 	or	r5,r6,r5
 2001888:	283ff326 	beq	r5,zero,2001858 <__alt_mem_epcs_flash_controller+0xfdff8858>
 200188c:	1885883a 	add	r2,r3,r2
 2001890:	10cb803a 	cmpltu	r5,r2,r3
 2001894:	00ffc004 	movi	r3,-256
 2001898:	10c6703a 	and	r3,r2,r3
 200189c:	2909883a 	add	r4,r5,r4
 20018a0:	003fed06 	br	2001858 <__alt_mem_epcs_flash_controller+0xfdff8858>

020018a4 <__divdf3>:
 20018a4:	defff104 	addi	sp,sp,-60
 20018a8:	d9000c15 	stw	r4,48(sp)
 20018ac:	d9400d15 	stw	r5,52(sp)
 20018b0:	d9000c04 	addi	r4,sp,48
 20018b4:	d9400504 	addi	r5,sp,20
 20018b8:	dfc00e15 	stw	ra,56(sp)
 20018bc:	d9800a15 	stw	r6,40(sp)
 20018c0:	d9c00b15 	stw	r7,44(sp)
 20018c4:	20021280 	call	2002128 <__unpack_d>
 20018c8:	d9000a04 	addi	r4,sp,40
 20018cc:	d80b883a 	mov	r5,sp
 20018d0:	20021280 	call	2002128 <__unpack_d>
 20018d4:	d8c00517 	ldw	r3,20(sp)
 20018d8:	00800044 	movi	r2,1
 20018dc:	10c00536 	bltu	r2,r3,20018f4 <__divdf3+0x50>
 20018e0:	d9000504 	addi	r4,sp,20
 20018e4:	2001f040 	call	2001f04 <__pack_d>
 20018e8:	dfc00e17 	ldw	ra,56(sp)
 20018ec:	dec00f04 	addi	sp,sp,60
 20018f0:	f800283a 	ret
 20018f4:	d9000017 	ldw	r4,0(sp)
 20018f8:	11000536 	bltu	r2,r4,2001910 <__divdf3+0x6c>
 20018fc:	d809883a 	mov	r4,sp
 2001900:	2001f040 	call	2001f04 <__pack_d>
 2001904:	dfc00e17 	ldw	ra,56(sp)
 2001908:	dec00f04 	addi	sp,sp,60
 200190c:	f800283a 	ret
 2001910:	d9800617 	ldw	r6,24(sp)
 2001914:	d9400117 	ldw	r5,4(sp)
 2001918:	00800104 	movi	r2,4
 200191c:	314af03a 	xor	r5,r6,r5
 2001920:	d9400615 	stw	r5,24(sp)
 2001924:	18800226 	beq	r3,r2,2001930 <__divdf3+0x8c>
 2001928:	01400084 	movi	r5,2
 200192c:	1940041e 	bne	r3,r5,2001940 <__divdf3+0x9c>
 2001930:	193feb1e 	bne	r3,r4,20018e0 <__alt_mem_epcs_flash_controller+0xfdff88e0>
 2001934:	01008234 	movhi	r4,520
 2001938:	211c6c04 	addi	r4,r4,29104
 200193c:	003fe906 	br	20018e4 <__alt_mem_epcs_flash_controller+0xfdff88e4>
 2001940:	20803326 	beq	r4,r2,2001a10 <__divdf3+0x16c>
 2001944:	21403726 	beq	r4,r5,2001a24 <__divdf3+0x180>
 2001948:	d8800217 	ldw	r2,8(sp)
 200194c:	d9000717 	ldw	r4,28(sp)
 2001950:	d8c00917 	ldw	r3,36(sp)
 2001954:	da000417 	ldw	r8,16(sp)
 2001958:	2089c83a 	sub	r4,r4,r2
 200195c:	d9000715 	stw	r4,28(sp)
 2001960:	d8800817 	ldw	r2,32(sp)
 2001964:	dbc00317 	ldw	r15,12(sp)
 2001968:	1a000236 	bltu	r3,r8,2001974 <__divdf3+0xd0>
 200196c:	40c0081e 	bne	r8,r3,2001990 <__divdf3+0xec>
 2001970:	13c0072e 	bgeu	r2,r15,2001990 <__divdf3+0xec>
 2001974:	108b883a 	add	r5,r2,r2
 2001978:	288d803a 	cmpltu	r6,r5,r2
 200197c:	18c7883a 	add	r3,r3,r3
 2001980:	213fffc4 	addi	r4,r4,-1
 2001984:	2805883a 	mov	r2,r5
 2001988:	30c7883a 	add	r3,r6,r3
 200198c:	d9000715 	stw	r4,28(sp)
 2001990:	01400f44 	movi	r5,61
 2001994:	000f883a 	mov	r7,zero
 2001998:	01040034 	movhi	r4,4096
 200199c:	0019883a 	mov	r12,zero
 20019a0:	001b883a 	mov	r13,zero
 20019a4:	201697fa 	slli	r11,r4,31
 20019a8:	3814d07a 	srli	r10,r7,1
 20019ac:	297fffc4 	addi	r5,r5,-1
 20019b0:	1a000936 	bltu	r3,r8,20019d8 <__divdf3+0x134>
 20019b4:	13cdc83a 	sub	r6,r2,r15
 20019b8:	1193803a 	cmpltu	r9,r2,r6
 20019bc:	1a1dc83a 	sub	r14,r3,r8
 20019c0:	40c0011e 	bne	r8,r3,20019c8 <__divdf3+0x124>
 20019c4:	13c00436 	bltu	r2,r15,20019d8 <__divdf3+0x134>
 20019c8:	3005883a 	mov	r2,r6
 20019cc:	7247c83a 	sub	r3,r14,r9
 20019d0:	61d8b03a 	or	r12,r12,r7
 20019d4:	691ab03a 	or	r13,r13,r4
 20019d8:	108d883a 	add	r6,r2,r2
 20019dc:	3093803a 	cmpltu	r9,r6,r2
 20019e0:	18c7883a 	add	r3,r3,r3
 20019e4:	5a8eb03a 	or	r7,r11,r10
 20019e8:	2008d07a 	srli	r4,r4,1
 20019ec:	3005883a 	mov	r2,r6
 20019f0:	48c7883a 	add	r3,r9,r3
 20019f4:	283feb1e 	bne	r5,zero,20019a4 <__alt_mem_epcs_flash_controller+0xfdff89a4>
 20019f8:	61003fcc 	andi	r4,r12,255
 20019fc:	01402004 	movi	r5,128
 2001a00:	21400b26 	beq	r4,r5,2001a30 <__divdf3+0x18c>
 2001a04:	db000815 	stw	r12,32(sp)
 2001a08:	db400915 	stw	r13,36(sp)
 2001a0c:	003fb406 	br	20018e0 <__alt_mem_epcs_flash_controller+0xfdff88e0>
 2001a10:	d8000815 	stw	zero,32(sp)
 2001a14:	d8000915 	stw	zero,36(sp)
 2001a18:	d8000715 	stw	zero,28(sp)
 2001a1c:	d9000504 	addi	r4,sp,20
 2001a20:	003fb006 	br	20018e4 <__alt_mem_epcs_flash_controller+0xfdff88e4>
 2001a24:	d8800515 	stw	r2,20(sp)
 2001a28:	d9000504 	addi	r4,sp,20
 2001a2c:	003fad06 	br	20018e4 <__alt_mem_epcs_flash_controller+0xfdff88e4>
 2001a30:	6140400c 	andi	r5,r12,256
 2001a34:	283ff31e 	bne	r5,zero,2001a04 <__alt_mem_epcs_flash_controller+0xfdff8a04>
 2001a38:	30c4b03a 	or	r2,r6,r3
 2001a3c:	103ff126 	beq	r2,zero,2001a04 <__alt_mem_epcs_flash_controller+0xfdff8a04>
 2001a40:	6109883a 	add	r4,r12,r4
 2001a44:	2305803a 	cmpltu	r2,r4,r12
 2001a48:	033fc004 	movi	r12,-256
 2001a4c:	2318703a 	and	r12,r4,r12
 2001a50:	135b883a 	add	r13,r2,r13
 2001a54:	003feb06 	br	2001a04 <__alt_mem_epcs_flash_controller+0xfdff8a04>

02001a58 <__floatsidf>:
 2001a58:	2004d7fa 	srli	r2,r4,31
 2001a5c:	defff904 	addi	sp,sp,-28
 2001a60:	00c000c4 	movi	r3,3
 2001a64:	dfc00615 	stw	ra,24(sp)
 2001a68:	dc000515 	stw	r16,20(sp)
 2001a6c:	d8c00015 	stw	r3,0(sp)
 2001a70:	d8800115 	stw	r2,4(sp)
 2001a74:	2000081e 	bne	r4,zero,2001a98 <__floatsidf+0x40>
 2001a78:	00800084 	movi	r2,2
 2001a7c:	d8800015 	stw	r2,0(sp)
 2001a80:	d809883a 	mov	r4,sp
 2001a84:	2001f040 	call	2001f04 <__pack_d>
 2001a88:	dfc00617 	ldw	ra,24(sp)
 2001a8c:	dc000517 	ldw	r16,20(sp)
 2001a90:	dec00704 	addi	sp,sp,28
 2001a94:	f800283a 	ret
 2001a98:	00c00f04 	movi	r3,60
 2001a9c:	d8c00215 	stw	r3,8(sp)
 2001aa0:	10000f1e 	bne	r2,zero,2001ae0 <__floatsidf+0x88>
 2001aa4:	2021883a 	mov	r16,r4
 2001aa8:	8009883a 	mov	r4,r16
 2001aac:	2001e580 	call	2001e58 <__clzsi2>
 2001ab0:	11000744 	addi	r4,r2,29
 2001ab4:	0100110e 	bge	zero,r4,2001afc <__floatsidf+0xa4>
 2001ab8:	10ffff44 	addi	r3,r2,-3
 2001abc:	18001216 	blt	r3,zero,2001b08 <__floatsidf+0xb0>
 2001ac0:	80c6983a 	sll	r3,r16,r3
 2001ac4:	0009883a 	mov	r4,zero
 2001ac8:	014007c4 	movi	r5,31
 2001acc:	2885c83a 	sub	r2,r5,r2
 2001ad0:	d9000315 	stw	r4,12(sp)
 2001ad4:	d8c00415 	stw	r3,16(sp)
 2001ad8:	d8800215 	stw	r2,8(sp)
 2001adc:	003fe806 	br	2001a80 <__alt_mem_epcs_flash_controller+0xfdff8a80>
 2001ae0:	00a00034 	movhi	r2,32768
 2001ae4:	20800e26 	beq	r4,r2,2001b20 <__floatsidf+0xc8>
 2001ae8:	0121c83a 	sub	r16,zero,r4
 2001aec:	8009883a 	mov	r4,r16
 2001af0:	2001e580 	call	2001e58 <__clzsi2>
 2001af4:	11000744 	addi	r4,r2,29
 2001af8:	013fef16 	blt	zero,r4,2001ab8 <__alt_mem_epcs_flash_controller+0xfdff8ab8>
 2001afc:	dc000315 	stw	r16,12(sp)
 2001b00:	d8000415 	stw	zero,16(sp)
 2001b04:	003fde06 	br	2001a80 <__alt_mem_epcs_flash_controller+0xfdff8a80>
 2001b08:	800ad07a 	srli	r5,r16,1
 2001b0c:	00c007c4 	movi	r3,31
 2001b10:	1907c83a 	sub	r3,r3,r4
 2001b14:	28c6d83a 	srl	r3,r5,r3
 2001b18:	8108983a 	sll	r4,r16,r4
 2001b1c:	003fea06 	br	2001ac8 <__alt_mem_epcs_flash_controller+0xfdff8ac8>
 2001b20:	0005883a 	mov	r2,zero
 2001b24:	00f07834 	movhi	r3,49632
 2001b28:	003fd706 	br	2001a88 <__alt_mem_epcs_flash_controller+0xfdff8a88>

02001b2c <__fixdfsi>:
 2001b2c:	defff804 	addi	sp,sp,-32
 2001b30:	d9000515 	stw	r4,20(sp)
 2001b34:	d9400615 	stw	r5,24(sp)
 2001b38:	d9000504 	addi	r4,sp,20
 2001b3c:	d80b883a 	mov	r5,sp
 2001b40:	dfc00715 	stw	ra,28(sp)
 2001b44:	20021280 	call	2002128 <__unpack_d>
 2001b48:	d8800017 	ldw	r2,0(sp)
 2001b4c:	00c00084 	movi	r3,2
 2001b50:	10c01c26 	beq	r2,r3,2001bc4 <__fixdfsi+0x98>
 2001b54:	00c00044 	movi	r3,1
 2001b58:	18801a2e 	bgeu	r3,r2,2001bc4 <__fixdfsi+0x98>
 2001b5c:	00c00104 	movi	r3,4
 2001b60:	10c01126 	beq	r2,r3,2001ba8 <__fixdfsi+0x7c>
 2001b64:	d8800217 	ldw	r2,8(sp)
 2001b68:	10001616 	blt	r2,zero,2001bc4 <__fixdfsi+0x98>
 2001b6c:	00c00784 	movi	r3,30
 2001b70:	18800d16 	blt	r3,r2,2001ba8 <__fixdfsi+0x7c>
 2001b74:	00c00f04 	movi	r3,60
 2001b78:	1885c83a 	sub	r2,r3,r2
 2001b7c:	10fff804 	addi	r3,r2,-32
 2001b80:	d9400317 	ldw	r5,12(sp)
 2001b84:	d9000417 	ldw	r4,16(sp)
 2001b88:	18001216 	blt	r3,zero,2001bd4 <__fixdfsi+0xa8>
 2001b8c:	20c4d83a 	srl	r2,r4,r3
 2001b90:	d8c00117 	ldw	r3,4(sp)
 2001b94:	18000826 	beq	r3,zero,2001bb8 <__fixdfsi+0x8c>
 2001b98:	0085c83a 	sub	r2,zero,r2
 2001b9c:	dfc00717 	ldw	ra,28(sp)
 2001ba0:	dec00804 	addi	sp,sp,32
 2001ba4:	f800283a 	ret
 2001ba8:	d8800117 	ldw	r2,4(sp)
 2001bac:	00e00034 	movhi	r3,32768
 2001bb0:	1005003a 	cmpeq	r2,r2,zero
 2001bb4:	1885c83a 	sub	r2,r3,r2
 2001bb8:	dfc00717 	ldw	ra,28(sp)
 2001bbc:	dec00804 	addi	sp,sp,32
 2001bc0:	f800283a 	ret
 2001bc4:	0005883a 	mov	r2,zero
 2001bc8:	dfc00717 	ldw	ra,28(sp)
 2001bcc:	dec00804 	addi	sp,sp,32
 2001bd0:	f800283a 	ret
 2001bd4:	2008907a 	slli	r4,r4,1
 2001bd8:	018007c4 	movi	r6,31
 2001bdc:	308dc83a 	sub	r6,r6,r2
 2001be0:	2188983a 	sll	r4,r4,r6
 2001be4:	2884d83a 	srl	r2,r5,r2
 2001be8:	2084b03a 	or	r2,r4,r2
 2001bec:	003fe806 	br	2001b90 <__alt_mem_epcs_flash_controller+0xfdff8b90>

02001bf0 <udivmodsi4>:
 2001bf0:	2005883a 	mov	r2,r4
 2001bf4:	2900182e 	bgeu	r5,r4,2001c58 <udivmodsi4+0x68>
 2001bf8:	28001716 	blt	r5,zero,2001c58 <udivmodsi4+0x68>
 2001bfc:	01000804 	movi	r4,32
 2001c00:	00c00044 	movi	r3,1
 2001c04:	00000206 	br	2001c10 <udivmodsi4+0x20>
 2001c08:	20001126 	beq	r4,zero,2001c50 <udivmodsi4+0x60>
 2001c0c:	28000516 	blt	r5,zero,2001c24 <udivmodsi4+0x34>
 2001c10:	294b883a 	add	r5,r5,r5
 2001c14:	213fffc4 	addi	r4,r4,-1
 2001c18:	18c7883a 	add	r3,r3,r3
 2001c1c:	28bffa36 	bltu	r5,r2,2001c08 <__alt_mem_epcs_flash_controller+0xfdff8c08>
 2001c20:	18000b26 	beq	r3,zero,2001c50 <udivmodsi4+0x60>
 2001c24:	0009883a 	mov	r4,zero
 2001c28:	11400236 	bltu	r2,r5,2001c34 <udivmodsi4+0x44>
 2001c2c:	1145c83a 	sub	r2,r2,r5
 2001c30:	20c8b03a 	or	r4,r4,r3
 2001c34:	1806d07a 	srli	r3,r3,1
 2001c38:	280ad07a 	srli	r5,r5,1
 2001c3c:	183ffa1e 	bne	r3,zero,2001c28 <__alt_mem_epcs_flash_controller+0xfdff8c28>
 2001c40:	3000021e 	bne	r6,zero,2001c4c <udivmodsi4+0x5c>
 2001c44:	2005883a 	mov	r2,r4
 2001c48:	f800283a 	ret
 2001c4c:	f800283a 	ret
 2001c50:	0009883a 	mov	r4,zero
 2001c54:	003ffa06 	br	2001c40 <__alt_mem_epcs_flash_controller+0xfdff8c40>
 2001c58:	00c00044 	movi	r3,1
 2001c5c:	0009883a 	mov	r4,zero
 2001c60:	003ff106 	br	2001c28 <__alt_mem_epcs_flash_controller+0xfdff8c28>

02001c64 <__divsi3>:
 2001c64:	defffe04 	addi	sp,sp,-8
 2001c68:	dfc00115 	stw	ra,4(sp)
 2001c6c:	dc000015 	stw	r16,0(sp)
 2001c70:	20000a16 	blt	r4,zero,2001c9c <__divsi3+0x38>
 2001c74:	0021883a 	mov	r16,zero
 2001c78:	28000b16 	blt	r5,zero,2001ca8 <__divsi3+0x44>
 2001c7c:	000d883a 	mov	r6,zero
 2001c80:	2001bf00 	call	2001bf0 <udivmodsi4>
 2001c84:	80000126 	beq	r16,zero,2001c8c <__divsi3+0x28>
 2001c88:	0085c83a 	sub	r2,zero,r2
 2001c8c:	dfc00117 	ldw	ra,4(sp)
 2001c90:	dc000017 	ldw	r16,0(sp)
 2001c94:	dec00204 	addi	sp,sp,8
 2001c98:	f800283a 	ret
 2001c9c:	0109c83a 	sub	r4,zero,r4
 2001ca0:	04000044 	movi	r16,1
 2001ca4:	283ff50e 	bge	r5,zero,2001c7c <__alt_mem_epcs_flash_controller+0xfdff8c7c>
 2001ca8:	014bc83a 	sub	r5,zero,r5
 2001cac:	8400005c 	xori	r16,r16,1
 2001cb0:	003ff206 	br	2001c7c <__alt_mem_epcs_flash_controller+0xfdff8c7c>

02001cb4 <__modsi3>:
 2001cb4:	deffff04 	addi	sp,sp,-4
 2001cb8:	dfc00015 	stw	ra,0(sp)
 2001cbc:	20000516 	blt	r4,zero,2001cd4 <__modsi3+0x20>
 2001cc0:	28000c16 	blt	r5,zero,2001cf4 <__modsi3+0x40>
 2001cc4:	01800044 	movi	r6,1
 2001cc8:	dfc00017 	ldw	ra,0(sp)
 2001ccc:	dec00104 	addi	sp,sp,4
 2001cd0:	2001bf01 	jmpi	2001bf0 <udivmodsi4>
 2001cd4:	0109c83a 	sub	r4,zero,r4
 2001cd8:	28000b16 	blt	r5,zero,2001d08 <__modsi3+0x54>
 2001cdc:	01800044 	movi	r6,1
 2001ce0:	2001bf00 	call	2001bf0 <udivmodsi4>
 2001ce4:	0085c83a 	sub	r2,zero,r2
 2001ce8:	dfc00017 	ldw	ra,0(sp)
 2001cec:	dec00104 	addi	sp,sp,4
 2001cf0:	f800283a 	ret
 2001cf4:	014bc83a 	sub	r5,zero,r5
 2001cf8:	01800044 	movi	r6,1
 2001cfc:	dfc00017 	ldw	ra,0(sp)
 2001d00:	dec00104 	addi	sp,sp,4
 2001d04:	2001bf01 	jmpi	2001bf0 <udivmodsi4>
 2001d08:	014bc83a 	sub	r5,zero,r5
 2001d0c:	003ff306 	br	2001cdc <__alt_mem_epcs_flash_controller+0xfdff8cdc>

02001d10 <__udivsi3>:
 2001d10:	000d883a 	mov	r6,zero
 2001d14:	2001bf01 	jmpi	2001bf0 <udivmodsi4>

02001d18 <__umodsi3>:
 2001d18:	01800044 	movi	r6,1
 2001d1c:	2001bf01 	jmpi	2001bf0 <udivmodsi4>

02001d20 <__mulsi3>:
 2001d20:	0005883a 	mov	r2,zero
 2001d24:	20000726 	beq	r4,zero,2001d44 <__mulsi3+0x24>
 2001d28:	20c0004c 	andi	r3,r4,1
 2001d2c:	2008d07a 	srli	r4,r4,1
 2001d30:	18000126 	beq	r3,zero,2001d38 <__mulsi3+0x18>
 2001d34:	1145883a 	add	r2,r2,r5
 2001d38:	294b883a 	add	r5,r5,r5
 2001d3c:	203ffa1e 	bne	r4,zero,2001d28 <__alt_mem_epcs_flash_controller+0xfdff8d28>
 2001d40:	f800283a 	ret
 2001d44:	f800283a 	ret

02001d48 <__muldi3>:
 2001d48:	defff604 	addi	sp,sp,-40
 2001d4c:	dd400515 	stw	r21,20(sp)
 2001d50:	dd000415 	stw	r20,16(sp)
 2001d54:	257fffcc 	andi	r21,r4,65535
 2001d58:	353fffcc 	andi	r20,r6,65535
 2001d5c:	dcc00315 	stw	r19,12(sp)
 2001d60:	3026d43a 	srli	r19,r6,16
 2001d64:	dd800615 	stw	r22,24(sp)
 2001d68:	dc800215 	stw	r18,8(sp)
 2001d6c:	dc400115 	stw	r17,4(sp)
 2001d70:	2024d43a 	srli	r18,r4,16
 2001d74:	2023883a 	mov	r17,r4
 2001d78:	282d883a 	mov	r22,r5
 2001d7c:	a009883a 	mov	r4,r20
 2001d80:	a80b883a 	mov	r5,r21
 2001d84:	dfc00915 	stw	ra,36(sp)
 2001d88:	df000815 	stw	fp,32(sp)
 2001d8c:	ddc00715 	stw	r23,28(sp)
 2001d90:	3839883a 	mov	fp,r7
 2001d94:	dc000015 	stw	r16,0(sp)
 2001d98:	3021883a 	mov	r16,r6
 2001d9c:	2001d200 	call	2001d20 <__mulsi3>
 2001da0:	a80b883a 	mov	r5,r21
 2001da4:	9809883a 	mov	r4,r19
 2001da8:	102f883a 	mov	r23,r2
 2001dac:	2001d200 	call	2001d20 <__mulsi3>
 2001db0:	a009883a 	mov	r4,r20
 2001db4:	900b883a 	mov	r5,r18
 2001db8:	102b883a 	mov	r21,r2
 2001dbc:	2001d200 	call	2001d20 <__mulsi3>
 2001dc0:	9809883a 	mov	r4,r19
 2001dc4:	900b883a 	mov	r5,r18
 2001dc8:	1029883a 	mov	r20,r2
 2001dcc:	2001d200 	call	2001d20 <__mulsi3>
 2001dd0:	1007883a 	mov	r3,r2
 2001dd4:	b804d43a 	srli	r2,r23,16
 2001dd8:	a549883a 	add	r4,r20,r21
 2001ddc:	2089883a 	add	r4,r4,r2
 2001de0:	2500022e 	bgeu	r4,r20,2001dec <__muldi3+0xa4>
 2001de4:	00800074 	movhi	r2,1
 2001de8:	1887883a 	add	r3,r3,r2
 2001dec:	200cd43a 	srli	r6,r4,16
 2001df0:	2004943a 	slli	r2,r4,16
 2001df4:	e00b883a 	mov	r5,fp
 2001df8:	8809883a 	mov	r4,r17
 2001dfc:	bdffffcc 	andi	r23,r23,65535
 2001e00:	19a3883a 	add	r17,r3,r6
 2001e04:	15ef883a 	add	r23,r2,r23
 2001e08:	2001d200 	call	2001d20 <__mulsi3>
 2001e0c:	8009883a 	mov	r4,r16
 2001e10:	b00b883a 	mov	r5,r22
 2001e14:	1025883a 	mov	r18,r2
 2001e18:	2001d200 	call	2001d20 <__mulsi3>
 2001e1c:	9085883a 	add	r2,r18,r2
 2001e20:	1447883a 	add	r3,r2,r17
 2001e24:	b805883a 	mov	r2,r23
 2001e28:	dfc00917 	ldw	ra,36(sp)
 2001e2c:	df000817 	ldw	fp,32(sp)
 2001e30:	ddc00717 	ldw	r23,28(sp)
 2001e34:	dd800617 	ldw	r22,24(sp)
 2001e38:	dd400517 	ldw	r21,20(sp)
 2001e3c:	dd000417 	ldw	r20,16(sp)
 2001e40:	dcc00317 	ldw	r19,12(sp)
 2001e44:	dc800217 	ldw	r18,8(sp)
 2001e48:	dc400117 	ldw	r17,4(sp)
 2001e4c:	dc000017 	ldw	r16,0(sp)
 2001e50:	dec00a04 	addi	sp,sp,40
 2001e54:	f800283a 	ret

02001e58 <__clzsi2>:
 2001e58:	00bfffd4 	movui	r2,65535
 2001e5c:	11000b36 	bltu	r2,r4,2001e8c <__clzsi2+0x34>
 2001e60:	00803fc4 	movi	r2,255
 2001e64:	11001e2e 	bgeu	r2,r4,2001ee0 <__clzsi2+0x88>
 2001e68:	00c00204 	movi	r3,8
 2001e6c:	20c8d83a 	srl	r4,r4,r3
 2001e70:	00c08234 	movhi	r3,520
 2001e74:	18dc7104 	addi	r3,r3,29124
 2001e78:	00800604 	movi	r2,24
 2001e7c:	1909883a 	add	r4,r3,r4
 2001e80:	20c00003 	ldbu	r3,0(r4)
 2001e84:	10c5c83a 	sub	r2,r2,r3
 2001e88:	f800283a 	ret
 2001e8c:	00804034 	movhi	r2,256
 2001e90:	10bfffc4 	addi	r2,r2,-1
 2001e94:	11000936 	bltu	r2,r4,2001ebc <__clzsi2+0x64>
 2001e98:	00800404 	movi	r2,16
 2001e9c:	1007883a 	mov	r3,r2
 2001ea0:	20c8d83a 	srl	r4,r4,r3
 2001ea4:	00c08234 	movhi	r3,520
 2001ea8:	18dc7104 	addi	r3,r3,29124
 2001eac:	1909883a 	add	r4,r3,r4
 2001eb0:	20c00003 	ldbu	r3,0(r4)
 2001eb4:	10c5c83a 	sub	r2,r2,r3
 2001eb8:	f800283a 	ret
 2001ebc:	00c00604 	movi	r3,24
 2001ec0:	20c8d83a 	srl	r4,r4,r3
 2001ec4:	00c08234 	movhi	r3,520
 2001ec8:	18dc7104 	addi	r3,r3,29124
 2001ecc:	00800204 	movi	r2,8
 2001ed0:	1909883a 	add	r4,r3,r4
 2001ed4:	20c00003 	ldbu	r3,0(r4)
 2001ed8:	10c5c83a 	sub	r2,r2,r3
 2001edc:	f800283a 	ret
 2001ee0:	0007883a 	mov	r3,zero
 2001ee4:	20c8d83a 	srl	r4,r4,r3
 2001ee8:	00c08234 	movhi	r3,520
 2001eec:	18dc7104 	addi	r3,r3,29124
 2001ef0:	00800804 	movi	r2,32
 2001ef4:	1909883a 	add	r4,r3,r4
 2001ef8:	20c00003 	ldbu	r3,0(r4)
 2001efc:	10c5c83a 	sub	r2,r2,r3
 2001f00:	f800283a 	ret

02001f04 <__pack_d>:
 2001f04:	20800017 	ldw	r2,0(r4)
 2001f08:	defff804 	addi	sp,sp,-32
 2001f0c:	dcc00315 	stw	r19,12(sp)
 2001f10:	dc800215 	stw	r18,8(sp)
 2001f14:	dfc00715 	stw	ra,28(sp)
 2001f18:	dd800615 	stw	r22,24(sp)
 2001f1c:	dd400515 	stw	r21,20(sp)
 2001f20:	dd000415 	stw	r20,16(sp)
 2001f24:	dc400115 	stw	r17,4(sp)
 2001f28:	dc000015 	stw	r16,0(sp)
 2001f2c:	04800044 	movi	r18,1
 2001f30:	24400317 	ldw	r17,12(r4)
 2001f34:	24000417 	ldw	r16,16(r4)
 2001f38:	24c00117 	ldw	r19,4(r4)
 2001f3c:	9080422e 	bgeu	r18,r2,2002048 <__pack_d+0x144>
 2001f40:	00c00104 	movi	r3,4
 2001f44:	10c03c26 	beq	r2,r3,2002038 <__pack_d+0x134>
 2001f48:	00c00084 	movi	r3,2
 2001f4c:	10c01926 	beq	r2,r3,2001fb4 <__pack_d+0xb0>
 2001f50:	8c04b03a 	or	r2,r17,r16
 2001f54:	10001726 	beq	r2,zero,2001fb4 <__pack_d+0xb0>
 2001f58:	21000217 	ldw	r4,8(r4)
 2001f5c:	00bf0084 	movi	r2,-1022
 2001f60:	20804016 	blt	r4,r2,2002064 <__pack_d+0x160>
 2001f64:	0080ffc4 	movi	r2,1023
 2001f68:	11003316 	blt	r2,r4,2002038 <__pack_d+0x134>
 2001f6c:	88803fcc 	andi	r2,r17,255
 2001f70:	00c02004 	movi	r3,128
 2001f74:	10c02926 	beq	r2,r3,200201c <__pack_d+0x118>
 2001f78:	88801fc4 	addi	r2,r17,127
 2001f7c:	1463803a 	cmpltu	r17,r2,r17
 2001f80:	8c21883a 	add	r16,r17,r16
 2001f84:	1023883a 	mov	r17,r2
 2001f88:	00880034 	movhi	r2,8192
 2001f8c:	10bfffc4 	addi	r2,r2,-1
 2001f90:	14001c36 	bltu	r2,r16,2002004 <__pack_d+0x100>
 2001f94:	2100ffc4 	addi	r4,r4,1023
 2001f98:	8006963a 	slli	r3,r16,24
 2001f9c:	8804d23a 	srli	r2,r17,8
 2001fa0:	8020913a 	slli	r16,r16,4
 2001fa4:	2101ffcc 	andi	r4,r4,2047
 2001fa8:	1884b03a 	or	r2,r3,r2
 2001fac:	8020d33a 	srli	r16,r16,12
 2001fb0:	00000306 	br	2001fc0 <__pack_d+0xbc>
 2001fb4:	0009883a 	mov	r4,zero
 2001fb8:	0005883a 	mov	r2,zero
 2001fbc:	0021883a 	mov	r16,zero
 2001fc0:	2008953a 	slli	r4,r4,20
 2001fc4:	982697fa 	slli	r19,r19,31
 2001fc8:	00c00434 	movhi	r3,16
 2001fcc:	18ffffc4 	addi	r3,r3,-1
 2001fd0:	80e0703a 	and	r16,r16,r3
 2001fd4:	8106b03a 	or	r3,r16,r4
 2001fd8:	1cc6b03a 	or	r3,r3,r19
 2001fdc:	dfc00717 	ldw	ra,28(sp)
 2001fe0:	dd800617 	ldw	r22,24(sp)
 2001fe4:	dd400517 	ldw	r21,20(sp)
 2001fe8:	dd000417 	ldw	r20,16(sp)
 2001fec:	dcc00317 	ldw	r19,12(sp)
 2001ff0:	dc800217 	ldw	r18,8(sp)
 2001ff4:	dc400117 	ldw	r17,4(sp)
 2001ff8:	dc000017 	ldw	r16,0(sp)
 2001ffc:	dec00804 	addi	sp,sp,32
 2002000:	f800283a 	ret
 2002004:	800697fa 	slli	r3,r16,31
 2002008:	8804d07a 	srli	r2,r17,1
 200200c:	21010004 	addi	r4,r4,1024
 2002010:	8020d07a 	srli	r16,r16,1
 2002014:	18a2b03a 	or	r17,r3,r2
 2002018:	003fdf06 	br	2001f98 <__alt_mem_epcs_flash_controller+0xfdff8f98>
 200201c:	88c0400c 	andi	r3,r17,256
 2002020:	183fd926 	beq	r3,zero,2001f88 <__alt_mem_epcs_flash_controller+0xfdff8f88>
 2002024:	8885883a 	add	r2,r17,r2
 2002028:	1463803a 	cmpltu	r17,r2,r17
 200202c:	8c21883a 	add	r16,r17,r16
 2002030:	1023883a 	mov	r17,r2
 2002034:	003fd406 	br	2001f88 <__alt_mem_epcs_flash_controller+0xfdff8f88>
 2002038:	0101ffc4 	movi	r4,2047
 200203c:	0005883a 	mov	r2,zero
 2002040:	0021883a 	mov	r16,zero
 2002044:	003fde06 	br	2001fc0 <__alt_mem_epcs_flash_controller+0xfdff8fc0>
 2002048:	84000234 	orhi	r16,r16,8
 200204c:	00c00434 	movhi	r3,16
 2002050:	18ffffc4 	addi	r3,r3,-1
 2002054:	8805883a 	mov	r2,r17
 2002058:	80e0703a 	and	r16,r16,r3
 200205c:	0101ffc4 	movi	r4,2047
 2002060:	003fd706 	br	2001fc0 <__alt_mem_epcs_flash_controller+0xfdff8fc0>
 2002064:	1129c83a 	sub	r20,r2,r4
 2002068:	00800e04 	movi	r2,56
 200206c:	15002716 	blt	r2,r20,200210c <__pack_d+0x208>
 2002070:	800b883a 	mov	r5,r16
 2002074:	a00d883a 	mov	r6,r20
 2002078:	8809883a 	mov	r4,r17
 200207c:	200222c0 	call	200222c <__lshrdi3>
 2002080:	9009883a 	mov	r4,r18
 2002084:	000b883a 	mov	r5,zero
 2002088:	a00d883a 	mov	r6,r20
 200208c:	102d883a 	mov	r22,r2
 2002090:	182b883a 	mov	r21,r3
 2002094:	20022700 	call	2002270 <__ashldi3>
 2002098:	1009003a 	cmpeq	r4,r2,zero
 200209c:	1907c83a 	sub	r3,r3,r4
 20020a0:	10bfffc4 	addi	r2,r2,-1
 20020a4:	1c20703a 	and	r16,r3,r16
 20020a8:	1444703a 	and	r2,r2,r17
 20020ac:	1404b03a 	or	r2,r2,r16
 20020b0:	1004c03a 	cmpne	r2,r2,zero
 20020b4:	1584b03a 	or	r2,r2,r22
 20020b8:	11003fcc 	andi	r4,r2,255
 20020bc:	01402004 	movi	r5,128
 20020c0:	a807883a 	mov	r3,r21
 20020c4:	2140131e 	bne	r4,r5,2002114 <__pack_d+0x210>
 20020c8:	1140400c 	andi	r5,r2,256
 20020cc:	28000426 	beq	r5,zero,20020e0 <__pack_d+0x1dc>
 20020d0:	1109883a 	add	r4,r2,r4
 20020d4:	2085803a 	cmpltu	r2,r4,r2
 20020d8:	1547883a 	add	r3,r2,r21
 20020dc:	2005883a 	mov	r2,r4
 20020e0:	1808963a 	slli	r4,r3,24
 20020e4:	1004d23a 	srli	r2,r2,8
 20020e8:	1820913a 	slli	r16,r3,4
 20020ec:	01440034 	movhi	r5,4096
 20020f0:	297fffc4 	addi	r5,r5,-1
 20020f4:	2084b03a 	or	r2,r4,r2
 20020f8:	8020d33a 	srli	r16,r16,12
 20020fc:	01000044 	movi	r4,1
 2002100:	28ffaf36 	bltu	r5,r3,2001fc0 <__alt_mem_epcs_flash_controller+0xfdff8fc0>
 2002104:	0009883a 	mov	r4,zero
 2002108:	003fad06 	br	2001fc0 <__alt_mem_epcs_flash_controller+0xfdff8fc0>
 200210c:	0005883a 	mov	r2,zero
 2002110:	0007883a 	mov	r3,zero
 2002114:	11001fc4 	addi	r4,r2,127
 2002118:	2085803a 	cmpltu	r2,r4,r2
 200211c:	10c7883a 	add	r3,r2,r3
 2002120:	2005883a 	mov	r2,r4
 2002124:	003fee06 	br	20020e0 <__alt_mem_epcs_flash_controller+0xfdff90e0>

02002128 <__unpack_d>:
 2002128:	21800117 	ldw	r6,4(r4)
 200212c:	20c00017 	ldw	r3,0(r4)
 2002130:	3004d7fa 	srli	r2,r6,31
 2002134:	3008d53a 	srli	r4,r6,20
 2002138:	28800115 	stw	r2,4(r5)
 200213c:	2101ffcc 	andi	r4,r4,2047
 2002140:	00800434 	movhi	r2,16
 2002144:	10bfffc4 	addi	r2,r2,-1
 2002148:	3084703a 	and	r2,r6,r2
 200214c:	20001a1e 	bne	r4,zero,20021b8 <__unpack_d+0x90>
 2002150:	1888b03a 	or	r4,r3,r2
 2002154:	20002626 	beq	r4,zero,20021f0 <__unpack_d+0xc8>
 2002158:	1808d63a 	srli	r4,r3,24
 200215c:	1004923a 	slli	r2,r2,8
 2002160:	01bf0084 	movi	r6,-1022
 2002164:	29800215 	stw	r6,8(r5)
 2002168:	2084b03a 	or	r2,r4,r2
 200216c:	010000c4 	movi	r4,3
 2002170:	29000015 	stw	r4,0(r5)
 2002174:	02040034 	movhi	r8,4096
 2002178:	423fffc4 	addi	r8,r8,-1
 200217c:	1806923a 	slli	r3,r3,8
 2002180:	40801836 	bltu	r8,r2,20021e4 <__unpack_d+0xbc>
 2002184:	013f0044 	movi	r4,-1023
 2002188:	18cd883a 	add	r6,r3,r3
 200218c:	30c7803a 	cmpltu	r3,r6,r3
 2002190:	1085883a 	add	r2,r2,r2
 2002194:	1885883a 	add	r2,r3,r2
 2002198:	200f883a 	mov	r7,r4
 200219c:	3007883a 	mov	r3,r6
 20021a0:	213fffc4 	addi	r4,r4,-1
 20021a4:	40bff82e 	bgeu	r8,r2,2002188 <__alt_mem_epcs_flash_controller+0xfdff9188>
 20021a8:	29c00215 	stw	r7,8(r5)
 20021ac:	28c00315 	stw	r3,12(r5)
 20021b0:	28800415 	stw	r2,16(r5)
 20021b4:	f800283a 	ret
 20021b8:	01c1ffc4 	movi	r7,2047
 20021bc:	21c00f26 	beq	r4,r7,20021fc <__unpack_d+0xd4>
 20021c0:	180cd63a 	srli	r6,r3,24
 20021c4:	1004923a 	slli	r2,r2,8
 20021c8:	213f0044 	addi	r4,r4,-1023
 20021cc:	1806923a 	slli	r3,r3,8
 20021d0:	3084b03a 	or	r2,r6,r2
 20021d4:	29000215 	stw	r4,8(r5)
 20021d8:	010000c4 	movi	r4,3
 20021dc:	10840034 	orhi	r2,r2,4096
 20021e0:	29000015 	stw	r4,0(r5)
 20021e4:	28c00315 	stw	r3,12(r5)
 20021e8:	28800415 	stw	r2,16(r5)
 20021ec:	f800283a 	ret
 20021f0:	00800084 	movi	r2,2
 20021f4:	28800015 	stw	r2,0(r5)
 20021f8:	f800283a 	ret
 20021fc:	1888b03a 	or	r4,r3,r2
 2002200:	20000526 	beq	r4,zero,2002218 <__unpack_d+0xf0>
 2002204:	3180022c 	andhi	r6,r6,8
 2002208:	30000626 	beq	r6,zero,2002224 <__unpack_d+0xfc>
 200220c:	01000044 	movi	r4,1
 2002210:	29000015 	stw	r4,0(r5)
 2002214:	003ff306 	br	20021e4 <__alt_mem_epcs_flash_controller+0xfdff91e4>
 2002218:	00800104 	movi	r2,4
 200221c:	28800015 	stw	r2,0(r5)
 2002220:	f800283a 	ret
 2002224:	28000015 	stw	zero,0(r5)
 2002228:	003fee06 	br	20021e4 <__alt_mem_epcs_flash_controller+0xfdff91e4>

0200222c <__lshrdi3>:
 200222c:	2005883a 	mov	r2,r4
 2002230:	2807883a 	mov	r3,r5
 2002234:	30000826 	beq	r6,zero,2002258 <__lshrdi3+0x2c>
 2002238:	01000804 	movi	r4,32
 200223c:	2189c83a 	sub	r4,r4,r6
 2002240:	0100060e 	bge	zero,r4,200225c <__lshrdi3+0x30>
 2002244:	1184d83a 	srl	r2,r2,r6
 2002248:	2908983a 	sll	r4,r5,r4
 200224c:	298cd83a 	srl	r6,r5,r6
 2002250:	2084b03a 	or	r2,r4,r2
 2002254:	3007883a 	mov	r3,r6
 2002258:	f800283a 	ret
 200225c:	0105c83a 	sub	r2,zero,r4
 2002260:	000d883a 	mov	r6,zero
 2002264:	2884d83a 	srl	r2,r5,r2
 2002268:	3007883a 	mov	r3,r6
 200226c:	003ffa06 	br	2002258 <__alt_mem_epcs_flash_controller+0xfdff9258>

02002270 <__ashldi3>:
 2002270:	2005883a 	mov	r2,r4
 2002274:	2807883a 	mov	r3,r5
 2002278:	30000826 	beq	r6,zero,200229c <__ashldi3+0x2c>
 200227c:	01000804 	movi	r4,32
 2002280:	2189c83a 	sub	r4,r4,r6
 2002284:	0100060e 	bge	zero,r4,20022a0 <__ashldi3+0x30>
 2002288:	1108d83a 	srl	r4,r2,r4
 200228c:	2986983a 	sll	r3,r5,r6
 2002290:	118c983a 	sll	r6,r2,r6
 2002294:	20c6b03a 	or	r3,r4,r3
 2002298:	3005883a 	mov	r2,r6
 200229c:	f800283a 	ret
 20022a0:	0107c83a 	sub	r3,zero,r4
 20022a4:	000d883a 	mov	r6,zero
 20022a8:	10c6983a 	sll	r3,r2,r3
 20022ac:	3005883a 	mov	r2,r6
 20022b0:	003ffa06 	br	200229c <__alt_mem_epcs_flash_controller+0xfdff929c>

020022b4 <_fflush_r>:
 20022b4:	defffb04 	addi	sp,sp,-20
 20022b8:	dcc00315 	stw	r19,12(sp)
 20022bc:	dc400115 	stw	r17,4(sp)
 20022c0:	dfc00415 	stw	ra,16(sp)
 20022c4:	dc800215 	stw	r18,8(sp)
 20022c8:	dc000015 	stw	r16,0(sp)
 20022cc:	2027883a 	mov	r19,r4
 20022d0:	2823883a 	mov	r17,r5
 20022d4:	20000226 	beq	r4,zero,20022e0 <_fflush_r+0x2c>
 20022d8:	20800e17 	ldw	r2,56(r4)
 20022dc:	10005726 	beq	r2,zero,200243c <_fflush_r+0x188>
 20022e0:	8880030b 	ldhu	r2,12(r17)
 20022e4:	10c0020c 	andi	r3,r2,8
 20022e8:	18ffffcc 	andi	r3,r3,65535
 20022ec:	18e0001c 	xori	r3,r3,32768
 20022f0:	18e00004 	addi	r3,r3,-32768
 20022f4:	1800311e 	bne	r3,zero,20023bc <_fflush_r+0x108>
 20022f8:	89000117 	ldw	r4,4(r17)
 20022fc:	10c20014 	ori	r3,r2,2048
 2002300:	88c0030d 	sth	r3,12(r17)
 2002304:	180b883a 	mov	r5,r3
 2002308:	0100520e 	bge	zero,r4,2002454 <_fflush_r+0x1a0>
 200230c:	88c00a17 	ldw	r3,40(r17)
 2002310:	18002226 	beq	r3,zero,200239c <_fflush_r+0xe8>
 2002314:	1084000c 	andi	r2,r2,4096
 2002318:	10bfffcc 	andi	r2,r2,65535
 200231c:	10a0001c 	xori	r2,r2,32768
 2002320:	10a00004 	addi	r2,r2,-32768
 2002324:	10004e26 	beq	r2,zero,2002460 <_fflush_r+0x1ac>
 2002328:	8c001417 	ldw	r16,80(r17)
 200232c:	2940010c 	andi	r5,r5,4
 2002330:	297fffcc 	andi	r5,r5,65535
 2002334:	2960001c 	xori	r5,r5,32768
 2002338:	29600004 	addi	r5,r5,-32768
 200233c:	28000626 	beq	r5,zero,2002358 <_fflush_r+0xa4>
 2002340:	89000117 	ldw	r4,4(r17)
 2002344:	88800c17 	ldw	r2,48(r17)
 2002348:	8121c83a 	sub	r16,r16,r4
 200234c:	10000226 	beq	r2,zero,2002358 <_fflush_r+0xa4>
 2002350:	88800f17 	ldw	r2,60(r17)
 2002354:	80a1c83a 	sub	r16,r16,r2
 2002358:	89400717 	ldw	r5,28(r17)
 200235c:	9809883a 	mov	r4,r19
 2002360:	800d883a 	mov	r6,r16
 2002364:	000f883a 	mov	r7,zero
 2002368:	183ee83a 	callr	r3
 200236c:	8080281e 	bne	r16,r2,2002410 <_fflush_r+0x15c>
 2002370:	8880030b 	ldhu	r2,12(r17)
 2002374:	88c00417 	ldw	r3,16(r17)
 2002378:	88000115 	stw	zero,4(r17)
 200237c:	113dffcc 	andi	r4,r2,63487
 2002380:	1084000c 	andi	r2,r2,4096
 2002384:	10bfffcc 	andi	r2,r2,65535
 2002388:	10a0001c 	xori	r2,r2,32768
 200238c:	8900030d 	sth	r4,12(r17)
 2002390:	88c00015 	stw	r3,0(r17)
 2002394:	10a00004 	addi	r2,r2,-32768
 2002398:	10002c1e 	bne	r2,zero,200244c <_fflush_r+0x198>
 200239c:	0005883a 	mov	r2,zero
 20023a0:	dfc00417 	ldw	ra,16(sp)
 20023a4:	dcc00317 	ldw	r19,12(sp)
 20023a8:	dc800217 	ldw	r18,8(sp)
 20023ac:	dc400117 	ldw	r17,4(sp)
 20023b0:	dc000017 	ldw	r16,0(sp)
 20023b4:	dec00504 	addi	sp,sp,20
 20023b8:	f800283a 	ret
 20023bc:	8c800417 	ldw	r18,16(r17)
 20023c0:	903ff626 	beq	r18,zero,200239c <__alt_mem_epcs_flash_controller+0xfdff939c>
 20023c4:	8c000017 	ldw	r16,0(r17)
 20023c8:	108000cc 	andi	r2,r2,3
 20023cc:	8c800015 	stw	r18,0(r17)
 20023d0:	84a1c83a 	sub	r16,r16,r18
 20023d4:	10001b1e 	bne	r2,zero,2002444 <_fflush_r+0x190>
 20023d8:	88800517 	ldw	r2,20(r17)
 20023dc:	88800215 	stw	r2,8(r17)
 20023e0:	04000316 	blt	zero,r16,20023f0 <_fflush_r+0x13c>
 20023e4:	003fed06 	br	200239c <__alt_mem_epcs_flash_controller+0xfdff939c>
 20023e8:	90a5883a 	add	r18,r18,r2
 20023ec:	043feb0e 	bge	zero,r16,200239c <__alt_mem_epcs_flash_controller+0xfdff939c>
 20023f0:	88800917 	ldw	r2,36(r17)
 20023f4:	89400717 	ldw	r5,28(r17)
 20023f8:	800f883a 	mov	r7,r16
 20023fc:	900d883a 	mov	r6,r18
 2002400:	9809883a 	mov	r4,r19
 2002404:	103ee83a 	callr	r2
 2002408:	80a1c83a 	sub	r16,r16,r2
 200240c:	00bff616 	blt	zero,r2,20023e8 <__alt_mem_epcs_flash_controller+0xfdff93e8>
 2002410:	88c0030b 	ldhu	r3,12(r17)
 2002414:	00bfffc4 	movi	r2,-1
 2002418:	18c01014 	ori	r3,r3,64
 200241c:	88c0030d 	sth	r3,12(r17)
 2002420:	dfc00417 	ldw	ra,16(sp)
 2002424:	dcc00317 	ldw	r19,12(sp)
 2002428:	dc800217 	ldw	r18,8(sp)
 200242c:	dc400117 	ldw	r17,4(sp)
 2002430:	dc000017 	ldw	r16,0(sp)
 2002434:	dec00504 	addi	sp,sp,20
 2002438:	f800283a 	ret
 200243c:	20025700 	call	2002570 <__sinit>
 2002440:	003fa706 	br	20022e0 <__alt_mem_epcs_flash_controller+0xfdff92e0>
 2002444:	0005883a 	mov	r2,zero
 2002448:	003fe406 	br	20023dc <__alt_mem_epcs_flash_controller+0xfdff93dc>
 200244c:	8c001415 	stw	r16,80(r17)
 2002450:	003fd206 	br	200239c <__alt_mem_epcs_flash_controller+0xfdff939c>
 2002454:	88c00f17 	ldw	r3,60(r17)
 2002458:	00ffac16 	blt	zero,r3,200230c <__alt_mem_epcs_flash_controller+0xfdff930c>
 200245c:	003fcf06 	br	200239c <__alt_mem_epcs_flash_controller+0xfdff939c>
 2002460:	89400717 	ldw	r5,28(r17)
 2002464:	9809883a 	mov	r4,r19
 2002468:	000d883a 	mov	r6,zero
 200246c:	01c00044 	movi	r7,1
 2002470:	183ee83a 	callr	r3
 2002474:	1021883a 	mov	r16,r2
 2002478:	00bfffc4 	movi	r2,-1
 200247c:	80800326 	beq	r16,r2,200248c <_fflush_r+0x1d8>
 2002480:	8940030b 	ldhu	r5,12(r17)
 2002484:	88c00a17 	ldw	r3,40(r17)
 2002488:	003fa806 	br	200232c <__alt_mem_epcs_flash_controller+0xfdff932c>
 200248c:	98c00017 	ldw	r3,0(r19)
 2002490:	00800744 	movi	r2,29
 2002494:	18bfde1e 	bne	r3,r2,2002410 <__alt_mem_epcs_flash_controller+0xfdff9410>
 2002498:	003fc006 	br	200239c <__alt_mem_epcs_flash_controller+0xfdff939c>

0200249c <fflush>:
 200249c:	200b883a 	mov	r5,r4
 20024a0:	20000426 	beq	r4,zero,20024b4 <fflush+0x18>
 20024a4:	00808274 	movhi	r2,521
 20024a8:	10a55004 	addi	r2,r2,-27328
 20024ac:	11000017 	ldw	r4,0(r2)
 20024b0:	20022b41 	jmpi	20022b4 <_fflush_r>
 20024b4:	00808274 	movhi	r2,521
 20024b8:	10a54f04 	addi	r2,r2,-27332
 20024bc:	11000017 	ldw	r4,0(r2)
 20024c0:	01408034 	movhi	r5,512
 20024c4:	2948ad04 	addi	r5,r5,8884
 20024c8:	20028601 	jmpi	2002860 <_fwalk_reent>

020024cc <__fp_lock>:
 20024cc:	0005883a 	mov	r2,zero
 20024d0:	f800283a 	ret

020024d4 <__fp_unlock>:
 20024d4:	0005883a 	mov	r2,zero
 20024d8:	f800283a 	ret

020024dc <_cleanup_r>:
 20024dc:	01408074 	movhi	r5,513
 20024e0:	2961d204 	addi	r5,r5,-30904
 20024e4:	20027b81 	jmpi	20027b8 <_fwalk>

020024e8 <__sfmoreglue>:
 20024e8:	defffc04 	addi	sp,sp,-16
 20024ec:	dc800215 	stw	r18,8(sp)
 20024f0:	2825883a 	mov	r18,r5
 20024f4:	dc000015 	stw	r16,0(sp)
 20024f8:	01401704 	movi	r5,92
 20024fc:	2021883a 	mov	r16,r4
 2002500:	9009883a 	mov	r4,r18
 2002504:	dfc00315 	stw	ra,12(sp)
 2002508:	dc400115 	stw	r17,4(sp)
 200250c:	2001d200 	call	2001d20 <__mulsi3>
 2002510:	8009883a 	mov	r4,r16
 2002514:	11400304 	addi	r5,r2,12
 2002518:	1023883a 	mov	r17,r2
 200251c:	20029180 	call	2002918 <_malloc_r>
 2002520:	1021883a 	mov	r16,r2
 2002524:	10000726 	beq	r2,zero,2002544 <__sfmoreglue+0x5c>
 2002528:	11000304 	addi	r4,r2,12
 200252c:	10000015 	stw	zero,0(r2)
 2002530:	14800115 	stw	r18,4(r2)
 2002534:	11000215 	stw	r4,8(r2)
 2002538:	000b883a 	mov	r5,zero
 200253c:	880d883a 	mov	r6,r17
 2002540:	200309c0 	call	200309c <memset>
 2002544:	8005883a 	mov	r2,r16
 2002548:	dfc00317 	ldw	ra,12(sp)
 200254c:	dc800217 	ldw	r18,8(sp)
 2002550:	dc400117 	ldw	r17,4(sp)
 2002554:	dc000017 	ldw	r16,0(sp)
 2002558:	dec00404 	addi	sp,sp,16
 200255c:	f800283a 	ret

02002560 <_cleanup>:
 2002560:	00808274 	movhi	r2,521
 2002564:	10a54f04 	addi	r2,r2,-27332
 2002568:	11000017 	ldw	r4,0(r2)
 200256c:	20024dc1 	jmpi	20024dc <_cleanup_r>

02002570 <__sinit>:
 2002570:	20800e17 	ldw	r2,56(r4)
 2002574:	1000401e 	bne	r2,zero,2002678 <__sinit+0x108>
 2002578:	21400117 	ldw	r5,4(r4)
 200257c:	01808034 	movhi	r6,512
 2002580:	31893704 	addi	r6,r6,9436
 2002584:	20c00217 	ldw	r3,8(r4)
 2002588:	21800f15 	stw	r6,60(r4)
 200258c:	2080bb04 	addi	r2,r4,748
 2002590:	02400044 	movi	r9,1
 2002594:	018000c4 	movi	r6,3
 2002598:	2180b915 	stw	r6,740(r4)
 200259c:	2080ba15 	stw	r2,744(r4)
 20025a0:	22400e15 	stw	r9,56(r4)
 20025a4:	20800317 	ldw	r2,12(r4)
 20025a8:	2000b815 	stw	zero,736(r4)
 20025ac:	02008034 	movhi	r8,512
 20025b0:	420cd204 	addi	r8,r8,13128
 20025b4:	01c08034 	movhi	r7,512
 20025b8:	39cce704 	addi	r7,r7,13212
 20025bc:	01808034 	movhi	r6,512
 20025c0:	318d0904 	addi	r6,r6,13348
 20025c4:	01008034 	movhi	r4,512
 20025c8:	210d2004 	addi	r4,r4,13440
 20025cc:	02800104 	movi	r10,4
 20025d0:	28000015 	stw	zero,0(r5)
 20025d4:	28000115 	stw	zero,4(r5)
 20025d8:	28000215 	stw	zero,8(r5)
 20025dc:	2a80030d 	sth	r10,12(r5)
 20025e0:	2800038d 	sth	zero,14(r5)
 20025e4:	28000415 	stw	zero,16(r5)
 20025e8:	28000515 	stw	zero,20(r5)
 20025ec:	28000615 	stw	zero,24(r5)
 20025f0:	29400715 	stw	r5,28(r5)
 20025f4:	2a000815 	stw	r8,32(r5)
 20025f8:	29c00915 	stw	r7,36(r5)
 20025fc:	29800a15 	stw	r6,40(r5)
 2002600:	29000b15 	stw	r4,44(r5)
 2002604:	01400284 	movi	r5,10
 2002608:	18000015 	stw	zero,0(r3)
 200260c:	18000115 	stw	zero,4(r3)
 2002610:	18000215 	stw	zero,8(r3)
 2002614:	1940030d 	sth	r5,12(r3)
 2002618:	1a40038d 	sth	r9,14(r3)
 200261c:	18000415 	stw	zero,16(r3)
 2002620:	18000515 	stw	zero,20(r3)
 2002624:	18000615 	stw	zero,24(r3)
 2002628:	18c00715 	stw	r3,28(r3)
 200262c:	1a000815 	stw	r8,32(r3)
 2002630:	19c00915 	stw	r7,36(r3)
 2002634:	19800a15 	stw	r6,40(r3)
 2002638:	19000b15 	stw	r4,44(r3)
 200263c:	00c00484 	movi	r3,18
 2002640:	10c0030d 	sth	r3,12(r2)
 2002644:	00c00084 	movi	r3,2
 2002648:	10000015 	stw	zero,0(r2)
 200264c:	10000115 	stw	zero,4(r2)
 2002650:	10000215 	stw	zero,8(r2)
 2002654:	10c0038d 	sth	r3,14(r2)
 2002658:	10000415 	stw	zero,16(r2)
 200265c:	10000515 	stw	zero,20(r2)
 2002660:	10000615 	stw	zero,24(r2)
 2002664:	10800715 	stw	r2,28(r2)
 2002668:	12000815 	stw	r8,32(r2)
 200266c:	11c00915 	stw	r7,36(r2)
 2002670:	11800a15 	stw	r6,40(r2)
 2002674:	11000b15 	stw	r4,44(r2)
 2002678:	f800283a 	ret

0200267c <__sfp>:
 200267c:	defffc04 	addi	sp,sp,-16
 2002680:	00808274 	movhi	r2,521
 2002684:	10a54f04 	addi	r2,r2,-27332
 2002688:	dc400115 	stw	r17,4(sp)
 200268c:	14400017 	ldw	r17,0(r2)
 2002690:	dc800215 	stw	r18,8(sp)
 2002694:	dfc00315 	stw	ra,12(sp)
 2002698:	88800e17 	ldw	r2,56(r17)
 200269c:	dc000015 	stw	r16,0(sp)
 20026a0:	2025883a 	mov	r18,r4
 20026a4:	10002826 	beq	r2,zero,2002748 <__sfp+0xcc>
 20026a8:	8c40b804 	addi	r17,r17,736
 20026ac:	043fffc4 	movi	r16,-1
 20026b0:	89400117 	ldw	r5,4(r17)
 20026b4:	88800217 	ldw	r2,8(r17)
 20026b8:	297fffc4 	addi	r5,r5,-1
 20026bc:	28000a16 	blt	r5,zero,20026e8 <__sfp+0x6c>
 20026c0:	10c0030f 	ldh	r3,12(r2)
 20026c4:	18000c26 	beq	r3,zero,20026f8 <__sfp+0x7c>
 20026c8:	10c01a04 	addi	r3,r2,104
 20026cc:	00000206 	br	20026d8 <__sfp+0x5c>
 20026d0:	19bfe90f 	ldh	r6,-92(r3)
 20026d4:	30000826 	beq	r6,zero,20026f8 <__sfp+0x7c>
 20026d8:	297fffc4 	addi	r5,r5,-1
 20026dc:	18bffd04 	addi	r2,r3,-12
 20026e0:	18c01704 	addi	r3,r3,92
 20026e4:	2c3ffa1e 	bne	r5,r16,20026d0 <__alt_mem_epcs_flash_controller+0xfdff96d0>
 20026e8:	88800017 	ldw	r2,0(r17)
 20026ec:	10001926 	beq	r2,zero,2002754 <__sfp+0xd8>
 20026f0:	1023883a 	mov	r17,r2
 20026f4:	003fee06 	br	20026b0 <__alt_mem_epcs_flash_controller+0xfdff96b0>
 20026f8:	00ffffc4 	movi	r3,-1
 20026fc:	10c0038d 	sth	r3,14(r2)
 2002700:	00c00044 	movi	r3,1
 2002704:	10c0030d 	sth	r3,12(r2)
 2002708:	10000015 	stw	zero,0(r2)
 200270c:	10000215 	stw	zero,8(r2)
 2002710:	10000115 	stw	zero,4(r2)
 2002714:	10000415 	stw	zero,16(r2)
 2002718:	10000515 	stw	zero,20(r2)
 200271c:	10000615 	stw	zero,24(r2)
 2002720:	10000c15 	stw	zero,48(r2)
 2002724:	10000d15 	stw	zero,52(r2)
 2002728:	10001115 	stw	zero,68(r2)
 200272c:	10001215 	stw	zero,72(r2)
 2002730:	dfc00317 	ldw	ra,12(sp)
 2002734:	dc800217 	ldw	r18,8(sp)
 2002738:	dc400117 	ldw	r17,4(sp)
 200273c:	dc000017 	ldw	r16,0(sp)
 2002740:	dec00404 	addi	sp,sp,16
 2002744:	f800283a 	ret
 2002748:	8809883a 	mov	r4,r17
 200274c:	20025700 	call	2002570 <__sinit>
 2002750:	003fd506 	br	20026a8 <__alt_mem_epcs_flash_controller+0xfdff96a8>
 2002754:	9009883a 	mov	r4,r18
 2002758:	01400104 	movi	r5,4
 200275c:	20024e80 	call	20024e8 <__sfmoreglue>
 2002760:	88800015 	stw	r2,0(r17)
 2002764:	103fe21e 	bne	r2,zero,20026f0 <__alt_mem_epcs_flash_controller+0xfdff96f0>
 2002768:	00800304 	movi	r2,12
 200276c:	90800015 	stw	r2,0(r18)
 2002770:	0005883a 	mov	r2,zero
 2002774:	003fee06 	br	2002730 <__alt_mem_epcs_flash_controller+0xfdff9730>

02002778 <__sfp_lock_acquire>:
 2002778:	f800283a 	ret

0200277c <__sfp_lock_release>:
 200277c:	f800283a 	ret

02002780 <__sinit_lock_acquire>:
 2002780:	f800283a 	ret

02002784 <__sinit_lock_release>:
 2002784:	f800283a 	ret

02002788 <__fp_lock_all>:
 2002788:	00808274 	movhi	r2,521
 200278c:	10a55004 	addi	r2,r2,-27328
 2002790:	11000017 	ldw	r4,0(r2)
 2002794:	01408034 	movhi	r5,512
 2002798:	29493304 	addi	r5,r5,9420
 200279c:	20027b81 	jmpi	20027b8 <_fwalk>

020027a0 <__fp_unlock_all>:
 20027a0:	00808274 	movhi	r2,521
 20027a4:	10a55004 	addi	r2,r2,-27328
 20027a8:	11000017 	ldw	r4,0(r2)
 20027ac:	01408034 	movhi	r5,512
 20027b0:	29493504 	addi	r5,r5,9428
 20027b4:	20027b81 	jmpi	20027b8 <_fwalk>

020027b8 <_fwalk>:
 20027b8:	defff904 	addi	sp,sp,-28
 20027bc:	dcc00315 	stw	r19,12(sp)
 20027c0:	24c0b804 	addi	r19,r4,736
 20027c4:	dd400515 	stw	r21,20(sp)
 20027c8:	dd000415 	stw	r20,16(sp)
 20027cc:	dfc00615 	stw	ra,24(sp)
 20027d0:	dc800215 	stw	r18,8(sp)
 20027d4:	dc400115 	stw	r17,4(sp)
 20027d8:	dc000015 	stw	r16,0(sp)
 20027dc:	282b883a 	mov	r21,r5
 20027e0:	0029883a 	mov	r20,zero
 20027e4:	20027780 	call	2002778 <__sfp_lock_acquire>
 20027e8:	98001226 	beq	r19,zero,2002834 <_fwalk+0x7c>
 20027ec:	04bfffc4 	movi	r18,-1
 20027f0:	9c400117 	ldw	r17,4(r19)
 20027f4:	9c000217 	ldw	r16,8(r19)
 20027f8:	8c7fffc4 	addi	r17,r17,-1
 20027fc:	88000b16 	blt	r17,zero,200282c <_fwalk+0x74>
 2002800:	84000304 	addi	r16,r16,12
 2002804:	80c0000f 	ldh	r3,0(r16)
 2002808:	8c7fffc4 	addi	r17,r17,-1
 200280c:	813ffd04 	addi	r4,r16,-12
 2002810:	18000426 	beq	r3,zero,2002824 <_fwalk+0x6c>
 2002814:	80c0008f 	ldh	r3,2(r16)
 2002818:	1c800226 	beq	r3,r18,2002824 <_fwalk+0x6c>
 200281c:	a83ee83a 	callr	r21
 2002820:	a0a8b03a 	or	r20,r20,r2
 2002824:	84001704 	addi	r16,r16,92
 2002828:	8cbff61e 	bne	r17,r18,2002804 <__alt_mem_epcs_flash_controller+0xfdff9804>
 200282c:	9cc00017 	ldw	r19,0(r19)
 2002830:	983fef1e 	bne	r19,zero,20027f0 <__alt_mem_epcs_flash_controller+0xfdff97f0>
 2002834:	200277c0 	call	200277c <__sfp_lock_release>
 2002838:	a005883a 	mov	r2,r20
 200283c:	dfc00617 	ldw	ra,24(sp)
 2002840:	dd400517 	ldw	r21,20(sp)
 2002844:	dd000417 	ldw	r20,16(sp)
 2002848:	dcc00317 	ldw	r19,12(sp)
 200284c:	dc800217 	ldw	r18,8(sp)
 2002850:	dc400117 	ldw	r17,4(sp)
 2002854:	dc000017 	ldw	r16,0(sp)
 2002858:	dec00704 	addi	sp,sp,28
 200285c:	f800283a 	ret

02002860 <_fwalk_reent>:
 2002860:	defff804 	addi	sp,sp,-32
 2002864:	dcc00315 	stw	r19,12(sp)
 2002868:	24c0b804 	addi	r19,r4,736
 200286c:	dd800615 	stw	r22,24(sp)
 2002870:	dd400515 	stw	r21,20(sp)
 2002874:	dd000415 	stw	r20,16(sp)
 2002878:	dfc00715 	stw	ra,28(sp)
 200287c:	dc800215 	stw	r18,8(sp)
 2002880:	dc400115 	stw	r17,4(sp)
 2002884:	dc000015 	stw	r16,0(sp)
 2002888:	2029883a 	mov	r20,r4
 200288c:	282b883a 	mov	r21,r5
 2002890:	002d883a 	mov	r22,zero
 2002894:	20027780 	call	2002778 <__sfp_lock_acquire>
 2002898:	98001326 	beq	r19,zero,20028e8 <_fwalk_reent+0x88>
 200289c:	04bfffc4 	movi	r18,-1
 20028a0:	9c400117 	ldw	r17,4(r19)
 20028a4:	9c000217 	ldw	r16,8(r19)
 20028a8:	8c7fffc4 	addi	r17,r17,-1
 20028ac:	88000c16 	blt	r17,zero,20028e0 <_fwalk_reent+0x80>
 20028b0:	84000304 	addi	r16,r16,12
 20028b4:	80c0000f 	ldh	r3,0(r16)
 20028b8:	8c7fffc4 	addi	r17,r17,-1
 20028bc:	817ffd04 	addi	r5,r16,-12
 20028c0:	18000526 	beq	r3,zero,20028d8 <_fwalk_reent+0x78>
 20028c4:	80c0008f 	ldh	r3,2(r16)
 20028c8:	a009883a 	mov	r4,r20
 20028cc:	1c800226 	beq	r3,r18,20028d8 <_fwalk_reent+0x78>
 20028d0:	a83ee83a 	callr	r21
 20028d4:	b0acb03a 	or	r22,r22,r2
 20028d8:	84001704 	addi	r16,r16,92
 20028dc:	8cbff51e 	bne	r17,r18,20028b4 <__alt_mem_epcs_flash_controller+0xfdff98b4>
 20028e0:	9cc00017 	ldw	r19,0(r19)
 20028e4:	983fee1e 	bne	r19,zero,20028a0 <__alt_mem_epcs_flash_controller+0xfdff98a0>
 20028e8:	200277c0 	call	200277c <__sfp_lock_release>
 20028ec:	b005883a 	mov	r2,r22
 20028f0:	dfc00717 	ldw	ra,28(sp)
 20028f4:	dd800617 	ldw	r22,24(sp)
 20028f8:	dd400517 	ldw	r21,20(sp)
 20028fc:	dd000417 	ldw	r20,16(sp)
 2002900:	dcc00317 	ldw	r19,12(sp)
 2002904:	dc800217 	ldw	r18,8(sp)
 2002908:	dc400117 	ldw	r17,4(sp)
 200290c:	dc000017 	ldw	r16,0(sp)
 2002910:	dec00804 	addi	sp,sp,32
 2002914:	f800283a 	ret

02002918 <_malloc_r>:
 2002918:	defff604 	addi	sp,sp,-40
 200291c:	dc800215 	stw	r18,8(sp)
 2002920:	dfc00915 	stw	ra,36(sp)
 2002924:	df000815 	stw	fp,32(sp)
 2002928:	ddc00715 	stw	r23,28(sp)
 200292c:	dd800615 	stw	r22,24(sp)
 2002930:	dd400515 	stw	r21,20(sp)
 2002934:	dd000415 	stw	r20,16(sp)
 2002938:	dcc00315 	stw	r19,12(sp)
 200293c:	dc400115 	stw	r17,4(sp)
 2002940:	dc000015 	stw	r16,0(sp)
 2002944:	288002c4 	addi	r2,r5,11
 2002948:	00c00584 	movi	r3,22
 200294c:	2025883a 	mov	r18,r4
 2002950:	18802b2e 	bgeu	r3,r2,2002a00 <_malloc_r+0xe8>
 2002954:	047ffe04 	movi	r17,-8
 2002958:	1462703a 	and	r17,r2,r17
 200295c:	88002a16 	blt	r17,zero,2002a08 <_malloc_r+0xf0>
 2002960:	89402936 	bltu	r17,r5,2002a08 <_malloc_r+0xf0>
 2002964:	9009883a 	mov	r4,r18
 2002968:	20108dc0 	call	20108dc <__malloc_lock>
 200296c:	00807dc4 	movi	r2,503
 2002970:	14402936 	bltu	r2,r17,2002a18 <_malloc_r+0x100>
 2002974:	8808d0fa 	srli	r4,r17,3
 2002978:	04c08234 	movhi	r19,520
 200297c:	9cdf5b04 	addi	r19,r19,32108
 2002980:	2105883a 	add	r2,r4,r4
 2002984:	1085883a 	add	r2,r2,r2
 2002988:	1085883a 	add	r2,r2,r2
 200298c:	9885883a 	add	r2,r19,r2
 2002990:	14000317 	ldw	r16,12(r2)
 2002994:	80815526 	beq	r16,r2,2002eec <_malloc_r+0x5d4>
 2002998:	81000117 	ldw	r4,4(r16)
 200299c:	00bfff04 	movi	r2,-4
 20029a0:	80c00317 	ldw	r3,12(r16)
 20029a4:	2084703a 	and	r2,r4,r2
 20029a8:	8085883a 	add	r2,r16,r2
 20029ac:	11800117 	ldw	r6,4(r2)
 20029b0:	81400217 	ldw	r5,8(r16)
 20029b4:	9009883a 	mov	r4,r18
 20029b8:	31800054 	ori	r6,r6,1
 20029bc:	11800115 	stw	r6,4(r2)
 20029c0:	28c00315 	stw	r3,12(r5)
 20029c4:	19400215 	stw	r5,8(r3)
 20029c8:	20108fc0 	call	20108fc <__malloc_unlock>
 20029cc:	80800204 	addi	r2,r16,8
 20029d0:	dfc00917 	ldw	ra,36(sp)
 20029d4:	df000817 	ldw	fp,32(sp)
 20029d8:	ddc00717 	ldw	r23,28(sp)
 20029dc:	dd800617 	ldw	r22,24(sp)
 20029e0:	dd400517 	ldw	r21,20(sp)
 20029e4:	dd000417 	ldw	r20,16(sp)
 20029e8:	dcc00317 	ldw	r19,12(sp)
 20029ec:	dc800217 	ldw	r18,8(sp)
 20029f0:	dc400117 	ldw	r17,4(sp)
 20029f4:	dc000017 	ldw	r16,0(sp)
 20029f8:	dec00a04 	addi	sp,sp,40
 20029fc:	f800283a 	ret
 2002a00:	04400404 	movi	r17,16
 2002a04:	897fd72e 	bgeu	r17,r5,2002964 <__alt_mem_epcs_flash_controller+0xfdff9964>
 2002a08:	00800304 	movi	r2,12
 2002a0c:	90800015 	stw	r2,0(r18)
 2002a10:	0005883a 	mov	r2,zero
 2002a14:	003fee06 	br	20029d0 <__alt_mem_epcs_flash_controller+0xfdff99d0>
 2002a18:	8808d27a 	srli	r4,r17,9
 2002a1c:	20007126 	beq	r4,zero,2002be4 <_malloc_r+0x2cc>
 2002a20:	00800104 	movi	r2,4
 2002a24:	1100eb36 	bltu	r2,r4,2002dd4 <_malloc_r+0x4bc>
 2002a28:	8808d1ba 	srli	r4,r17,6
 2002a2c:	21000e04 	addi	r4,r4,56
 2002a30:	210b883a 	add	r5,r4,r4
 2002a34:	294b883a 	add	r5,r5,r5
 2002a38:	294b883a 	add	r5,r5,r5
 2002a3c:	04c08234 	movhi	r19,520
 2002a40:	9cdf5b04 	addi	r19,r19,32108
 2002a44:	994b883a 	add	r5,r19,r5
 2002a48:	2c000317 	ldw	r16,12(r5)
 2002a4c:	2c000e26 	beq	r5,r16,2002a88 <_malloc_r+0x170>
 2002a50:	80c00117 	ldw	r3,4(r16)
 2002a54:	01ffff04 	movi	r7,-4
 2002a58:	018003c4 	movi	r6,15
 2002a5c:	19c6703a 	and	r3,r3,r7
 2002a60:	1c45c83a 	sub	r2,r3,r17
 2002a64:	30800716 	blt	r6,r2,2002a84 <_malloc_r+0x16c>
 2002a68:	1000610e 	bge	r2,zero,2002bf0 <_malloc_r+0x2d8>
 2002a6c:	84000317 	ldw	r16,12(r16)
 2002a70:	2c000526 	beq	r5,r16,2002a88 <_malloc_r+0x170>
 2002a74:	80c00117 	ldw	r3,4(r16)
 2002a78:	19c6703a 	and	r3,r3,r7
 2002a7c:	1c45c83a 	sub	r2,r3,r17
 2002a80:	30bff90e 	bge	r6,r2,2002a68 <__alt_mem_epcs_flash_controller+0xfdff9a68>
 2002a84:	213fffc4 	addi	r4,r4,-1
 2002a88:	21000044 	addi	r4,r4,1
 2002a8c:	9c000417 	ldw	r16,16(r19)
 2002a90:	00c08234 	movhi	r3,520
 2002a94:	18df5b04 	addi	r3,r3,32108
 2002a98:	1a400204 	addi	r9,r3,8
 2002a9c:	8240ff26 	beq	r16,r9,2002e9c <_malloc_r+0x584>
 2002aa0:	81400117 	ldw	r5,4(r16)
 2002aa4:	00bfff04 	movi	r2,-4
 2002aa8:	018003c4 	movi	r6,15
 2002aac:	2884703a 	and	r2,r5,r2
 2002ab0:	144bc83a 	sub	r5,r2,r17
 2002ab4:	3140ea16 	blt	r6,r5,2002e60 <_malloc_r+0x548>
 2002ab8:	1a400515 	stw	r9,20(r3)
 2002abc:	1a400415 	stw	r9,16(r3)
 2002ac0:	2800570e 	bge	r5,zero,2002c20 <_malloc_r+0x308>
 2002ac4:	01407fc4 	movi	r5,511
 2002ac8:	2880ca36 	bltu	r5,r2,2002df4 <_malloc_r+0x4dc>
 2002acc:	1004d0fa 	srli	r2,r2,3
 2002ad0:	02000044 	movi	r8,1
 2002ad4:	19c00117 	ldw	r7,4(r3)
 2002ad8:	108b883a 	add	r5,r2,r2
 2002adc:	294b883a 	add	r5,r5,r5
 2002ae0:	1005d0ba 	srai	r2,r2,2
 2002ae4:	294b883a 	add	r5,r5,r5
 2002ae8:	28cb883a 	add	r5,r5,r3
 2002aec:	29800217 	ldw	r6,8(r5)
 2002af0:	4084983a 	sll	r2,r8,r2
 2002af4:	81400315 	stw	r5,12(r16)
 2002af8:	81800215 	stw	r6,8(r16)
 2002afc:	11c4b03a 	or	r2,r2,r7
 2002b00:	18800115 	stw	r2,4(r3)
 2002b04:	2c000215 	stw	r16,8(r5)
 2002b08:	34000315 	stw	r16,12(r6)
 2002b0c:	200bd0ba 	srai	r5,r4,2
 2002b10:	00c00044 	movi	r3,1
 2002b14:	194a983a 	sll	r5,r3,r5
 2002b18:	11404936 	bltu	r2,r5,2002c40 <_malloc_r+0x328>
 2002b1c:	1146703a 	and	r3,r2,r5
 2002b20:	18000a1e 	bne	r3,zero,2002b4c <_malloc_r+0x234>
 2002b24:	00ffff04 	movi	r3,-4
 2002b28:	294b883a 	add	r5,r5,r5
 2002b2c:	20c8703a 	and	r4,r4,r3
 2002b30:	1146703a 	and	r3,r2,r5
 2002b34:	21000104 	addi	r4,r4,4
 2002b38:	1800041e 	bne	r3,zero,2002b4c <_malloc_r+0x234>
 2002b3c:	294b883a 	add	r5,r5,r5
 2002b40:	1146703a 	and	r3,r2,r5
 2002b44:	21000104 	addi	r4,r4,4
 2002b48:	183ffc26 	beq	r3,zero,2002b3c <__alt_mem_epcs_flash_controller+0xfdff9b3c>
 2002b4c:	023fff04 	movi	r8,-4
 2002b50:	01c003c4 	movi	r7,15
 2002b54:	2105883a 	add	r2,r4,r4
 2002b58:	1085883a 	add	r2,r2,r2
 2002b5c:	1085883a 	add	r2,r2,r2
 2002b60:	9899883a 	add	r12,r19,r2
 2002b64:	62800304 	addi	r10,r12,12
 2002b68:	2017883a 	mov	r11,r4
 2002b6c:	54000017 	ldw	r16,0(r10)
 2002b70:	51bffd04 	addi	r6,r10,-12
 2002b74:	8180041e 	bne	r16,r6,2002b88 <_malloc_r+0x270>
 2002b78:	0000ca06 	br	2002ea4 <_malloc_r+0x58c>
 2002b7c:	10001c0e 	bge	r2,zero,2002bf0 <_malloc_r+0x2d8>
 2002b80:	84000317 	ldw	r16,12(r16)
 2002b84:	8180c726 	beq	r16,r6,2002ea4 <_malloc_r+0x58c>
 2002b88:	80c00117 	ldw	r3,4(r16)
 2002b8c:	1a06703a 	and	r3,r3,r8
 2002b90:	1c45c83a 	sub	r2,r3,r17
 2002b94:	38bff90e 	bge	r7,r2,2002b7c <__alt_mem_epcs_flash_controller+0xfdff9b7c>
 2002b98:	81000317 	ldw	r4,12(r16)
 2002b9c:	81400217 	ldw	r5,8(r16)
 2002ba0:	8447883a 	add	r3,r16,r17
 2002ba4:	8c400054 	ori	r17,r17,1
 2002ba8:	29000315 	stw	r4,12(r5)
 2002bac:	21400215 	stw	r5,8(r4)
 2002bb0:	84400115 	stw	r17,4(r16)
 2002bb4:	1889883a 	add	r4,r3,r2
 2002bb8:	11400054 	ori	r5,r2,1
 2002bbc:	98c00515 	stw	r3,20(r19)
 2002bc0:	98c00415 	stw	r3,16(r19)
 2002bc4:	20800015 	stw	r2,0(r4)
 2002bc8:	1a400315 	stw	r9,12(r3)
 2002bcc:	1a400215 	stw	r9,8(r3)
 2002bd0:	19400115 	stw	r5,4(r3)
 2002bd4:	9009883a 	mov	r4,r18
 2002bd8:	20108fc0 	call	20108fc <__malloc_unlock>
 2002bdc:	80800204 	addi	r2,r16,8
 2002be0:	003f7b06 	br	20029d0 <__alt_mem_epcs_flash_controller+0xfdff99d0>
 2002be4:	8808d0fa 	srli	r4,r17,3
 2002be8:	210b883a 	add	r5,r4,r4
 2002bec:	003f9106 	br	2002a34 <__alt_mem_epcs_flash_controller+0xfdff9a34>
 2002bf0:	80c7883a 	add	r3,r16,r3
 2002bf4:	19400117 	ldw	r5,4(r3)
 2002bf8:	80800317 	ldw	r2,12(r16)
 2002bfc:	81000217 	ldw	r4,8(r16)
 2002c00:	29400054 	ori	r5,r5,1
 2002c04:	19400115 	stw	r5,4(r3)
 2002c08:	20800315 	stw	r2,12(r4)
 2002c0c:	11000215 	stw	r4,8(r2)
 2002c10:	9009883a 	mov	r4,r18
 2002c14:	20108fc0 	call	20108fc <__malloc_unlock>
 2002c18:	80800204 	addi	r2,r16,8
 2002c1c:	003f6c06 	br	20029d0 <__alt_mem_epcs_flash_controller+0xfdff99d0>
 2002c20:	8085883a 	add	r2,r16,r2
 2002c24:	10c00117 	ldw	r3,4(r2)
 2002c28:	9009883a 	mov	r4,r18
 2002c2c:	18c00054 	ori	r3,r3,1
 2002c30:	10c00115 	stw	r3,4(r2)
 2002c34:	20108fc0 	call	20108fc <__malloc_unlock>
 2002c38:	80800204 	addi	r2,r16,8
 2002c3c:	003f6406 	br	20029d0 <__alt_mem_epcs_flash_controller+0xfdff99d0>
 2002c40:	9c000217 	ldw	r16,8(r19)
 2002c44:	00bfff04 	movi	r2,-4
 2002c48:	85400117 	ldw	r21,4(r16)
 2002c4c:	a8aa703a 	and	r21,r21,r2
 2002c50:	ac400336 	bltu	r21,r17,2002c60 <_malloc_r+0x348>
 2002c54:	ac45c83a 	sub	r2,r21,r17
 2002c58:	00c003c4 	movi	r3,15
 2002c5c:	18805316 	blt	r3,r2,2002dac <_malloc_r+0x494>
 2002c60:	d5e77817 	ldw	r23,-25120(gp)
 2002c64:	d0e00217 	ldw	r3,-32760(gp)
 2002c68:	00bfffc4 	movi	r2,-1
 2002c6c:	8579883a 	add	fp,r16,r21
 2002c70:	8def883a 	add	r23,r17,r23
 2002c74:	1880d226 	beq	r3,r2,2002fc0 <_malloc_r+0x6a8>
 2002c78:	bdc403c4 	addi	r23,r23,4111
 2002c7c:	00bc0004 	movi	r2,-4096
 2002c80:	b8ae703a 	and	r23,r23,r2
 2002c84:	9009883a 	mov	r4,r18
 2002c88:	b80b883a 	mov	r5,r23
 2002c8c:	20032780 	call	2003278 <_sbrk_r>
 2002c90:	1029883a 	mov	r20,r2
 2002c94:	00bfffc4 	movi	r2,-1
 2002c98:	a080d126 	beq	r20,r2,2002fe0 <_malloc_r+0x6c8>
 2002c9c:	a7009f36 	bltu	r20,fp,2002f1c <_malloc_r+0x604>
 2002ca0:	05808274 	movhi	r22,521
 2002ca4:	b5acda04 	addi	r22,r22,-19608
 2002ca8:	b0800017 	ldw	r2,0(r22)
 2002cac:	b885883a 	add	r2,r23,r2
 2002cb0:	b0800015 	stw	r2,0(r22)
 2002cb4:	e500cf26 	beq	fp,r20,2002ff4 <_malloc_r+0x6dc>
 2002cb8:	d1200217 	ldw	r4,-32760(gp)
 2002cbc:	00ffffc4 	movi	r3,-1
 2002cc0:	20c0e026 	beq	r4,r3,2003044 <_malloc_r+0x72c>
 2002cc4:	a739c83a 	sub	fp,r20,fp
 2002cc8:	1705883a 	add	r2,r2,fp
 2002ccc:	b0800015 	stw	r2,0(r22)
 2002cd0:	a08001cc 	andi	r2,r20,7
 2002cd4:	1000a526 	beq	r2,zero,2002f6c <_malloc_r+0x654>
 2002cd8:	a0a9c83a 	sub	r20,r20,r2
 2002cdc:	00c40204 	movi	r3,4104
 2002ce0:	a5000204 	addi	r20,r20,8
 2002ce4:	1885c83a 	sub	r2,r3,r2
 2002ce8:	a5c7883a 	add	r3,r20,r23
 2002cec:	18c3ffcc 	andi	r3,r3,4095
 2002cf0:	10efc83a 	sub	r23,r2,r3
 2002cf4:	9009883a 	mov	r4,r18
 2002cf8:	b80b883a 	mov	r5,r23
 2002cfc:	20032780 	call	2003278 <_sbrk_r>
 2002d00:	00ffffc4 	movi	r3,-1
 2002d04:	10c0cc26 	beq	r2,r3,2003038 <_malloc_r+0x720>
 2002d08:	1505c83a 	sub	r2,r2,r20
 2002d0c:	b887883a 	add	r3,r23,r2
 2002d10:	18c00054 	ori	r3,r3,1
 2002d14:	b0800017 	ldw	r2,0(r22)
 2002d18:	9d000215 	stw	r20,8(r19)
 2002d1c:	a0c00115 	stw	r3,4(r20)
 2002d20:	b885883a 	add	r2,r23,r2
 2002d24:	b0800015 	stw	r2,0(r22)
 2002d28:	84c00e26 	beq	r16,r19,2002d64 <_malloc_r+0x44c>
 2002d2c:	00c003c4 	movi	r3,15
 2002d30:	1d40902e 	bgeu	r3,r21,2002f74 <_malloc_r+0x65c>
 2002d34:	ad7ffd04 	addi	r21,r21,-12
 2002d38:	013ffe04 	movi	r4,-8
 2002d3c:	a908703a 	and	r4,r21,r4
 2002d40:	810b883a 	add	r5,r16,r4
 2002d44:	01800144 	movi	r6,5
 2002d48:	29800115 	stw	r6,4(r5)
 2002d4c:	29800215 	stw	r6,8(r5)
 2002d50:	81400117 	ldw	r5,4(r16)
 2002d54:	2940004c 	andi	r5,r5,1
 2002d58:	214ab03a 	or	r5,r4,r5
 2002d5c:	81400115 	stw	r5,4(r16)
 2002d60:	1900ae36 	bltu	r3,r4,200301c <_malloc_r+0x704>
 2002d64:	d0e77717 	ldw	r3,-25124(gp)
 2002d68:	1880012e 	bgeu	r3,r2,2002d70 <_malloc_r+0x458>
 2002d6c:	d0a77715 	stw	r2,-25124(gp)
 2002d70:	d0e77617 	ldw	r3,-25128(gp)
 2002d74:	9c000217 	ldw	r16,8(r19)
 2002d78:	1880012e 	bgeu	r3,r2,2002d80 <_malloc_r+0x468>
 2002d7c:	d0a77615 	stw	r2,-25128(gp)
 2002d80:	80c00117 	ldw	r3,4(r16)
 2002d84:	00bfff04 	movi	r2,-4
 2002d88:	1886703a 	and	r3,r3,r2
 2002d8c:	1c45c83a 	sub	r2,r3,r17
 2002d90:	1c400236 	bltu	r3,r17,2002d9c <_malloc_r+0x484>
 2002d94:	00c003c4 	movi	r3,15
 2002d98:	18800416 	blt	r3,r2,2002dac <_malloc_r+0x494>
 2002d9c:	9009883a 	mov	r4,r18
 2002da0:	20108fc0 	call	20108fc <__malloc_unlock>
 2002da4:	0005883a 	mov	r2,zero
 2002da8:	003f0906 	br	20029d0 <__alt_mem_epcs_flash_controller+0xfdff99d0>
 2002dac:	88c00054 	ori	r3,r17,1
 2002db0:	10800054 	ori	r2,r2,1
 2002db4:	80c00115 	stw	r3,4(r16)
 2002db8:	8463883a 	add	r17,r16,r17
 2002dbc:	88800115 	stw	r2,4(r17)
 2002dc0:	9009883a 	mov	r4,r18
 2002dc4:	9c400215 	stw	r17,8(r19)
 2002dc8:	20108fc0 	call	20108fc <__malloc_unlock>
 2002dcc:	80800204 	addi	r2,r16,8
 2002dd0:	003eff06 	br	20029d0 <__alt_mem_epcs_flash_controller+0xfdff99d0>
 2002dd4:	00800504 	movi	r2,20
 2002dd8:	1100492e 	bgeu	r2,r4,2002f00 <_malloc_r+0x5e8>
 2002ddc:	00801504 	movi	r2,84
 2002de0:	11005c36 	bltu	r2,r4,2002f54 <_malloc_r+0x63c>
 2002de4:	8808d33a 	srli	r4,r17,12
 2002de8:	21001b84 	addi	r4,r4,110
 2002dec:	210b883a 	add	r5,r4,r4
 2002df0:	003f1006 	br	2002a34 <__alt_mem_epcs_flash_controller+0xfdff9a34>
 2002df4:	1006d27a 	srli	r3,r2,9
 2002df8:	01400104 	movi	r5,4
 2002dfc:	28c0432e 	bgeu	r5,r3,2002f0c <_malloc_r+0x5f4>
 2002e00:	01400504 	movi	r5,20
 2002e04:	28c07036 	bltu	r5,r3,2002fc8 <_malloc_r+0x6b0>
 2002e08:	194016c4 	addi	r5,r3,91
 2002e0c:	294d883a 	add	r6,r5,r5
 2002e10:	318d883a 	add	r6,r6,r6
 2002e14:	318d883a 	add	r6,r6,r6
 2002e18:	998d883a 	add	r6,r19,r6
 2002e1c:	30c00217 	ldw	r3,8(r6)
 2002e20:	01c08234 	movhi	r7,520
 2002e24:	39df5b04 	addi	r7,r7,32108
 2002e28:	19805726 	beq	r3,r6,2002f88 <_malloc_r+0x670>
 2002e2c:	01ffff04 	movi	r7,-4
 2002e30:	19400117 	ldw	r5,4(r3)
 2002e34:	29ca703a 	and	r5,r5,r7
 2002e38:	1140022e 	bgeu	r2,r5,2002e44 <_malloc_r+0x52c>
 2002e3c:	18c00217 	ldw	r3,8(r3)
 2002e40:	30fffb1e 	bne	r6,r3,2002e30 <__alt_mem_epcs_flash_controller+0xfdff9e30>
 2002e44:	19400317 	ldw	r5,12(r3)
 2002e48:	98800117 	ldw	r2,4(r19)
 2002e4c:	81400315 	stw	r5,12(r16)
 2002e50:	80c00215 	stw	r3,8(r16)
 2002e54:	2c000215 	stw	r16,8(r5)
 2002e58:	1c000315 	stw	r16,12(r3)
 2002e5c:	003f2b06 	br	2002b0c <__alt_mem_epcs_flash_controller+0xfdff9b0c>
 2002e60:	8445883a 	add	r2,r16,r17
 2002e64:	8c400054 	ori	r17,r17,1
 2002e68:	18800515 	stw	r2,20(r3)
 2002e6c:	18800415 	stw	r2,16(r3)
 2002e70:	29000054 	ori	r4,r5,1
 2002e74:	1147883a 	add	r3,r2,r5
 2002e78:	84400115 	stw	r17,4(r16)
 2002e7c:	11000115 	stw	r4,4(r2)
 2002e80:	12400315 	stw	r9,12(r2)
 2002e84:	12400215 	stw	r9,8(r2)
 2002e88:	19400015 	stw	r5,0(r3)
 2002e8c:	9009883a 	mov	r4,r18
 2002e90:	20108fc0 	call	20108fc <__malloc_unlock>
 2002e94:	80800204 	addi	r2,r16,8
 2002e98:	003ecd06 	br	20029d0 <__alt_mem_epcs_flash_controller+0xfdff99d0>
 2002e9c:	18800117 	ldw	r2,4(r3)
 2002ea0:	003f1a06 	br	2002b0c <__alt_mem_epcs_flash_controller+0xfdff9b0c>
 2002ea4:	5ac00044 	addi	r11,r11,1
 2002ea8:	588000cc 	andi	r2,r11,3
 2002eac:	52800204 	addi	r10,r10,8
 2002eb0:	103f2e1e 	bne	r2,zero,2002b6c <__alt_mem_epcs_flash_controller+0xfdff9b6c>
 2002eb4:	20c000cc 	andi	r3,r4,3
 2002eb8:	60bffe04 	addi	r2,r12,-8
 2002ebc:	18006f26 	beq	r3,zero,200307c <_malloc_r+0x764>
 2002ec0:	63000017 	ldw	r12,0(r12)
 2002ec4:	213fffc4 	addi	r4,r4,-1
 2002ec8:	60bffa26 	beq	r12,r2,2002eb4 <__alt_mem_epcs_flash_controller+0xfdff9eb4>
 2002ecc:	98800117 	ldw	r2,4(r19)
 2002ed0:	294b883a 	add	r5,r5,r5
 2002ed4:	117f5a36 	bltu	r2,r5,2002c40 <__alt_mem_epcs_flash_controller+0xfdff9c40>
 2002ed8:	283f5926 	beq	r5,zero,2002c40 <__alt_mem_epcs_flash_controller+0xfdff9c40>
 2002edc:	1146703a 	and	r3,r2,r5
 2002ee0:	18001626 	beq	r3,zero,2002f3c <_malloc_r+0x624>
 2002ee4:	5809883a 	mov	r4,r11
 2002ee8:	003f1a06 	br	2002b54 <__alt_mem_epcs_flash_controller+0xfdff9b54>
 2002eec:	80800204 	addi	r2,r16,8
 2002ef0:	84000517 	ldw	r16,20(r16)
 2002ef4:	143ea81e 	bne	r2,r16,2002998 <__alt_mem_epcs_flash_controller+0xfdff9998>
 2002ef8:	21000084 	addi	r4,r4,2
 2002efc:	003ee306 	br	2002a8c <__alt_mem_epcs_flash_controller+0xfdff9a8c>
 2002f00:	210016c4 	addi	r4,r4,91
 2002f04:	210b883a 	add	r5,r4,r4
 2002f08:	003eca06 	br	2002a34 <__alt_mem_epcs_flash_controller+0xfdff9a34>
 2002f0c:	100ad1ba 	srli	r5,r2,6
 2002f10:	29400e04 	addi	r5,r5,56
 2002f14:	294d883a 	add	r6,r5,r5
 2002f18:	003fbd06 	br	2002e10 <__alt_mem_epcs_flash_controller+0xfdff9e10>
 2002f1c:	84ff6026 	beq	r16,r19,2002ca0 <__alt_mem_epcs_flash_controller+0xfdff9ca0>
 2002f20:	00808234 	movhi	r2,520
 2002f24:	109f5b04 	addi	r2,r2,32108
 2002f28:	14000217 	ldw	r16,8(r2)
 2002f2c:	00bfff04 	movi	r2,-4
 2002f30:	80c00117 	ldw	r3,4(r16)
 2002f34:	1886703a 	and	r3,r3,r2
 2002f38:	003f9406 	br	2002d8c <__alt_mem_epcs_flash_controller+0xfdff9d8c>
 2002f3c:	294b883a 	add	r5,r5,r5
 2002f40:	1146703a 	and	r3,r2,r5
 2002f44:	5ac00104 	addi	r11,r11,4
 2002f48:	183ffc26 	beq	r3,zero,2002f3c <__alt_mem_epcs_flash_controller+0xfdff9f3c>
 2002f4c:	5809883a 	mov	r4,r11
 2002f50:	003f0006 	br	2002b54 <__alt_mem_epcs_flash_controller+0xfdff9b54>
 2002f54:	00805504 	movi	r2,340
 2002f58:	11001336 	bltu	r2,r4,2002fa8 <_malloc_r+0x690>
 2002f5c:	8808d3fa 	srli	r4,r17,15
 2002f60:	21001dc4 	addi	r4,r4,119
 2002f64:	210b883a 	add	r5,r4,r4
 2002f68:	003eb206 	br	2002a34 <__alt_mem_epcs_flash_controller+0xfdff9a34>
 2002f6c:	00840004 	movi	r2,4096
 2002f70:	003f5d06 	br	2002ce8 <__alt_mem_epcs_flash_controller+0xfdff9ce8>
 2002f74:	00800044 	movi	r2,1
 2002f78:	a0800115 	stw	r2,4(r20)
 2002f7c:	a021883a 	mov	r16,r20
 2002f80:	0007883a 	mov	r3,zero
 2002f84:	003f8106 	br	2002d8c <__alt_mem_epcs_flash_controller+0xfdff9d8c>
 2002f88:	280bd0ba 	srai	r5,r5,2
 2002f8c:	01800044 	movi	r6,1
 2002f90:	38800117 	ldw	r2,4(r7)
 2002f94:	314c983a 	sll	r6,r6,r5
 2002f98:	180b883a 	mov	r5,r3
 2002f9c:	3084b03a 	or	r2,r6,r2
 2002fa0:	38800115 	stw	r2,4(r7)
 2002fa4:	003fa906 	br	2002e4c <__alt_mem_epcs_flash_controller+0xfdff9e4c>
 2002fa8:	00815504 	movi	r2,1364
 2002fac:	11001836 	bltu	r2,r4,2003010 <_malloc_r+0x6f8>
 2002fb0:	8808d4ba 	srli	r4,r17,18
 2002fb4:	21001f04 	addi	r4,r4,124
 2002fb8:	210b883a 	add	r5,r4,r4
 2002fbc:	003e9d06 	br	2002a34 <__alt_mem_epcs_flash_controller+0xfdff9a34>
 2002fc0:	bdc00404 	addi	r23,r23,16
 2002fc4:	003f2f06 	br	2002c84 <__alt_mem_epcs_flash_controller+0xfdff9c84>
 2002fc8:	01401504 	movi	r5,84
 2002fcc:	28c01f36 	bltu	r5,r3,200304c <_malloc_r+0x734>
 2002fd0:	100ad33a 	srli	r5,r2,12
 2002fd4:	29401b84 	addi	r5,r5,110
 2002fd8:	294d883a 	add	r6,r5,r5
 2002fdc:	003f8c06 	br	2002e10 <__alt_mem_epcs_flash_controller+0xfdff9e10>
 2002fe0:	9c000217 	ldw	r16,8(r19)
 2002fe4:	00bfff04 	movi	r2,-4
 2002fe8:	80c00117 	ldw	r3,4(r16)
 2002fec:	1886703a 	and	r3,r3,r2
 2002ff0:	003f6606 	br	2002d8c <__alt_mem_epcs_flash_controller+0xfdff9d8c>
 2002ff4:	e0c3ffcc 	andi	r3,fp,4095
 2002ff8:	183f2f1e 	bne	r3,zero,2002cb8 <__alt_mem_epcs_flash_controller+0xfdff9cb8>
 2002ffc:	98c00217 	ldw	r3,8(r19)
 2003000:	bd49883a 	add	r4,r23,r21
 2003004:	21000054 	ori	r4,r4,1
 2003008:	19000115 	stw	r4,4(r3)
 200300c:	003f5506 	br	2002d64 <__alt_mem_epcs_flash_controller+0xfdff9d64>
 2003010:	01403f04 	movi	r5,252
 2003014:	01001f84 	movi	r4,126
 2003018:	003e8606 	br	2002a34 <__alt_mem_epcs_flash_controller+0xfdff9a34>
 200301c:	9009883a 	mov	r4,r18
 2003020:	81400204 	addi	r5,r16,8
 2003024:	2008b140 	call	2008b14 <_free_r>
 2003028:	00808274 	movhi	r2,521
 200302c:	10acda04 	addi	r2,r2,-19608
 2003030:	10800017 	ldw	r2,0(r2)
 2003034:	003f4b06 	br	2002d64 <__alt_mem_epcs_flash_controller+0xfdff9d64>
 2003038:	00c00044 	movi	r3,1
 200303c:	002f883a 	mov	r23,zero
 2003040:	003f3406 	br	2002d14 <__alt_mem_epcs_flash_controller+0xfdff9d14>
 2003044:	d5200215 	stw	r20,-32760(gp)
 2003048:	003f2106 	br	2002cd0 <__alt_mem_epcs_flash_controller+0xfdff9cd0>
 200304c:	01405504 	movi	r5,340
 2003050:	28c00436 	bltu	r5,r3,2003064 <_malloc_r+0x74c>
 2003054:	100ad3fa 	srli	r5,r2,15
 2003058:	29401dc4 	addi	r5,r5,119
 200305c:	294d883a 	add	r6,r5,r5
 2003060:	003f6b06 	br	2002e10 <__alt_mem_epcs_flash_controller+0xfdff9e10>
 2003064:	01415504 	movi	r5,1364
 2003068:	28c00936 	bltu	r5,r3,2003090 <_malloc_r+0x778>
 200306c:	100ad4ba 	srli	r5,r2,18
 2003070:	29401f04 	addi	r5,r5,124
 2003074:	294d883a 	add	r6,r5,r5
 2003078:	003f6506 	br	2002e10 <__alt_mem_epcs_flash_controller+0xfdff9e10>
 200307c:	98800117 	ldw	r2,4(r19)
 2003080:	0146303a 	nor	r3,zero,r5
 2003084:	1884703a 	and	r2,r3,r2
 2003088:	98800115 	stw	r2,4(r19)
 200308c:	003f9006 	br	2002ed0 <__alt_mem_epcs_flash_controller+0xfdff9ed0>
 2003090:	01803f04 	movi	r6,252
 2003094:	01401f84 	movi	r5,126
 2003098:	003f5d06 	br	2002e10 <__alt_mem_epcs_flash_controller+0xfdff9e10>

0200309c <memset>:
 200309c:	00c000c4 	movi	r3,3
 20030a0:	2005883a 	mov	r2,r4
 20030a4:	29403fcc 	andi	r5,r5,255
 20030a8:	19802d2e 	bgeu	r3,r6,2003160 <memset+0xc4>
 20030ac:	20c6703a 	and	r3,r4,r3
 20030b0:	18002e1e 	bne	r3,zero,200316c <memset+0xd0>
 20030b4:	2806923a 	slli	r3,r5,8
 20030b8:	010003c4 	movi	r4,15
 20030bc:	3011883a 	mov	r8,r6
 20030c0:	1946b03a 	or	r3,r3,r5
 20030c4:	180e943a 	slli	r7,r3,16
 20030c8:	38ceb03a 	or	r7,r7,r3
 20030cc:	1007883a 	mov	r3,r2
 20030d0:	21800f2e 	bgeu	r4,r6,2003110 <memset+0x74>
 20030d4:	19c00015 	stw	r7,0(r3)
 20030d8:	19c00115 	stw	r7,4(r3)
 20030dc:	19c00215 	stw	r7,8(r3)
 20030e0:	19c00315 	stw	r7,12(r3)
 20030e4:	423ffc04 	addi	r8,r8,-16
 20030e8:	18c00404 	addi	r3,r3,16
 20030ec:	223ff936 	bltu	r4,r8,20030d4 <__alt_mem_epcs_flash_controller+0xfdffa0d4>
 20030f0:	30fffc04 	addi	r3,r6,-16
 20030f4:	1806d13a 	srli	r3,r3,4
 20030f8:	318003cc 	andi	r6,r6,15
 20030fc:	010000c4 	movi	r4,3
 2003100:	18c00044 	addi	r3,r3,1
 2003104:	1806913a 	slli	r3,r3,4
 2003108:	10c7883a 	add	r3,r2,r3
 200310c:	21800e2e 	bgeu	r4,r6,2003148 <memset+0xac>
 2003110:	1813883a 	mov	r9,r3
 2003114:	3011883a 	mov	r8,r6
 2003118:	010000c4 	movi	r4,3
 200311c:	49c00015 	stw	r7,0(r9)
 2003120:	423fff04 	addi	r8,r8,-4
 2003124:	4a400104 	addi	r9,r9,4
 2003128:	223ffc36 	bltu	r4,r8,200311c <__alt_mem_epcs_flash_controller+0xfdffa11c>
 200312c:	313fff04 	addi	r4,r6,-4
 2003130:	2008d0ba 	srli	r4,r4,2
 2003134:	318000cc 	andi	r6,r6,3
 2003138:	21000044 	addi	r4,r4,1
 200313c:	2109883a 	add	r4,r4,r4
 2003140:	2109883a 	add	r4,r4,r4
 2003144:	1907883a 	add	r3,r3,r4
 2003148:	30000a26 	beq	r6,zero,2003174 <memset+0xd8>
 200314c:	198d883a 	add	r6,r3,r6
 2003150:	19400005 	stb	r5,0(r3)
 2003154:	18c00044 	addi	r3,r3,1
 2003158:	19bffd1e 	bne	r3,r6,2003150 <__alt_mem_epcs_flash_controller+0xfdffa150>
 200315c:	f800283a 	ret
 2003160:	2007883a 	mov	r3,r4
 2003164:	303ff91e 	bne	r6,zero,200314c <__alt_mem_epcs_flash_controller+0xfdffa14c>
 2003168:	00000206 	br	2003174 <memset+0xd8>
 200316c:	2007883a 	mov	r3,r4
 2003170:	003ff606 	br	200314c <__alt_mem_epcs_flash_controller+0xfdffa14c>
 2003174:	f800283a 	ret

02003178 <_printf_r>:
 2003178:	defffd04 	addi	sp,sp,-12
 200317c:	dfc00015 	stw	ra,0(sp)
 2003180:	d9800115 	stw	r6,4(sp)
 2003184:	d9c00215 	stw	r7,8(sp)
 2003188:	280d883a 	mov	r6,r5
 200318c:	21400217 	ldw	r5,8(r4)
 2003190:	d9c00104 	addi	r7,sp,4
 2003194:	20035480 	call	2003548 <___vfprintf_internal_r>
 2003198:	dfc00017 	ldw	ra,0(sp)
 200319c:	dec00304 	addi	sp,sp,12
 20031a0:	f800283a 	ret

020031a4 <printf>:
 20031a4:	defffc04 	addi	sp,sp,-16
 20031a8:	dfc00015 	stw	ra,0(sp)
 20031ac:	d9400115 	stw	r5,4(sp)
 20031b0:	d9800215 	stw	r6,8(sp)
 20031b4:	d9c00315 	stw	r7,12(sp)
 20031b8:	00808274 	movhi	r2,521
 20031bc:	10a55004 	addi	r2,r2,-27328
 20031c0:	10800017 	ldw	r2,0(r2)
 20031c4:	200b883a 	mov	r5,r4
 20031c8:	d9800104 	addi	r6,sp,4
 20031cc:	11000217 	ldw	r4,8(r2)
 20031d0:	20053c40 	call	20053c4 <__vfprintf_internal>
 20031d4:	dfc00017 	ldw	ra,0(sp)
 20031d8:	dec00404 	addi	sp,sp,16
 20031dc:	f800283a 	ret

020031e0 <_puts_r>:
 20031e0:	defff604 	addi	sp,sp,-40
 20031e4:	dc400815 	stw	r17,32(sp)
 20031e8:	2023883a 	mov	r17,r4
 20031ec:	2809883a 	mov	r4,r5
 20031f0:	dc000715 	stw	r16,28(sp)
 20031f4:	dfc00915 	stw	ra,36(sp)
 20031f8:	2821883a 	mov	r16,r5
 20031fc:	20034880 	call	2003488 <strlen>
 2003200:	10c00044 	addi	r3,r2,1
 2003204:	d8800115 	stw	r2,4(sp)
 2003208:	89400217 	ldw	r5,8(r17)
 200320c:	00808234 	movhi	r2,520
 2003210:	109cb204 	addi	r2,r2,29384
 2003214:	d8800215 	stw	r2,8(sp)
 2003218:	00800044 	movi	r2,1
 200321c:	d8800315 	stw	r2,12(sp)
 2003220:	8809883a 	mov	r4,r17
 2003224:	00800084 	movi	r2,2
 2003228:	d9800404 	addi	r6,sp,16
 200322c:	dc000015 	stw	r16,0(sp)
 2003230:	d8c00615 	stw	r3,24(sp)
 2003234:	dec00415 	stw	sp,16(sp)
 2003238:	d8800515 	stw	r2,20(sp)
 200323c:	2008de40 	call	2008de4 <__sfvwrite_r>
 2003240:	1000061e 	bne	r2,zero,200325c <_puts_r+0x7c>
 2003244:	00800284 	movi	r2,10
 2003248:	dfc00917 	ldw	ra,36(sp)
 200324c:	dc400817 	ldw	r17,32(sp)
 2003250:	dc000717 	ldw	r16,28(sp)
 2003254:	dec00a04 	addi	sp,sp,40
 2003258:	f800283a 	ret
 200325c:	00bfffc4 	movi	r2,-1
 2003260:	003ff906 	br	2003248 <__alt_mem_epcs_flash_controller+0xfdffa248>

02003264 <puts>:
 2003264:	00808274 	movhi	r2,521
 2003268:	10a55004 	addi	r2,r2,-27328
 200326c:	200b883a 	mov	r5,r4
 2003270:	11000017 	ldw	r4,0(r2)
 2003274:	20031e01 	jmpi	20031e0 <_puts_r>

02003278 <_sbrk_r>:
 2003278:	defffd04 	addi	sp,sp,-12
 200327c:	dc400115 	stw	r17,4(sp)
 2003280:	dc000015 	stw	r16,0(sp)
 2003284:	2023883a 	mov	r17,r4
 2003288:	04008274 	movhi	r16,521
 200328c:	842cc804 	addi	r16,r16,-19680
 2003290:	2809883a 	mov	r4,r5
 2003294:	dfc00215 	stw	ra,8(sp)
 2003298:	80000015 	stw	zero,0(r16)
 200329c:	2010ae00 	call	2010ae0 <sbrk>
 20032a0:	00ffffc4 	movi	r3,-1
 20032a4:	10c00526 	beq	r2,r3,20032bc <_sbrk_r+0x44>
 20032a8:	dfc00217 	ldw	ra,8(sp)
 20032ac:	dc400117 	ldw	r17,4(sp)
 20032b0:	dc000017 	ldw	r16,0(sp)
 20032b4:	dec00304 	addi	sp,sp,12
 20032b8:	f800283a 	ret
 20032bc:	80c00017 	ldw	r3,0(r16)
 20032c0:	183ff926 	beq	r3,zero,20032a8 <__alt_mem_epcs_flash_controller+0xfdffa2a8>
 20032c4:	88c00015 	stw	r3,0(r17)
 20032c8:	dfc00217 	ldw	ra,8(sp)
 20032cc:	dc400117 	ldw	r17,4(sp)
 20032d0:	dc000017 	ldw	r16,0(sp)
 20032d4:	dec00304 	addi	sp,sp,12
 20032d8:	f800283a 	ret

020032dc <scanf>:
 20032dc:	defffc04 	addi	sp,sp,-16
 20032e0:	dfc00015 	stw	ra,0(sp)
 20032e4:	d9400115 	stw	r5,4(sp)
 20032e8:	d9800215 	stw	r6,8(sp)
 20032ec:	d9c00315 	stw	r7,12(sp)
 20032f0:	00808274 	movhi	r2,521
 20032f4:	10a55004 	addi	r2,r2,-27328
 20032f8:	10800017 	ldw	r2,0(r2)
 20032fc:	200d883a 	mov	r6,r4
 2003300:	d9c00104 	addi	r7,sp,4
 2003304:	11400117 	ldw	r5,4(r2)
 2003308:	1009883a 	mov	r4,r2
 200330c:	20053e80 	call	20053e8 <__svfscanf_r>
 2003310:	dfc00017 	ldw	ra,0(sp)
 2003314:	dec00404 	addi	sp,sp,16
 2003318:	f800283a 	ret

0200331c <_scanf_r>:
 200331c:	defffd04 	addi	sp,sp,-12
 2003320:	dfc00015 	stw	ra,0(sp)
 2003324:	d9800115 	stw	r6,4(sp)
 2003328:	d9c00215 	stw	r7,8(sp)
 200332c:	280d883a 	mov	r6,r5
 2003330:	21400117 	ldw	r5,4(r4)
 2003334:	d9c00104 	addi	r7,sp,4
 2003338:	20053e80 	call	20053e8 <__svfscanf_r>
 200333c:	dfc00017 	ldw	ra,0(sp)
 2003340:	dec00304 	addi	sp,sp,12
 2003344:	f800283a 	ret

02003348 <__sread>:
 2003348:	defffe04 	addi	sp,sp,-8
 200334c:	dc000015 	stw	r16,0(sp)
 2003350:	2821883a 	mov	r16,r5
 2003354:	2940038f 	ldh	r5,14(r5)
 2003358:	dfc00115 	stw	ra,4(sp)
 200335c:	200aaec0 	call	200aaec <_read_r>
 2003360:	10000716 	blt	r2,zero,2003380 <__sread+0x38>
 2003364:	80c01417 	ldw	r3,80(r16)
 2003368:	1887883a 	add	r3,r3,r2
 200336c:	80c01415 	stw	r3,80(r16)
 2003370:	dfc00117 	ldw	ra,4(sp)
 2003374:	dc000017 	ldw	r16,0(sp)
 2003378:	dec00204 	addi	sp,sp,8
 200337c:	f800283a 	ret
 2003380:	80c0030b 	ldhu	r3,12(r16)
 2003384:	18fbffcc 	andi	r3,r3,61439
 2003388:	80c0030d 	sth	r3,12(r16)
 200338c:	dfc00117 	ldw	ra,4(sp)
 2003390:	dc000017 	ldw	r16,0(sp)
 2003394:	dec00204 	addi	sp,sp,8
 2003398:	f800283a 	ret

0200339c <__swrite>:
 200339c:	2880030b 	ldhu	r2,12(r5)
 20033a0:	defffb04 	addi	sp,sp,-20
 20033a4:	dcc00315 	stw	r19,12(sp)
 20033a8:	10c0400c 	andi	r3,r2,256
 20033ac:	18ffffcc 	andi	r3,r3,65535
 20033b0:	18e0001c 	xori	r3,r3,32768
 20033b4:	dc800215 	stw	r18,8(sp)
 20033b8:	dc400115 	stw	r17,4(sp)
 20033bc:	dc000015 	stw	r16,0(sp)
 20033c0:	dfc00415 	stw	ra,16(sp)
 20033c4:	18e00004 	addi	r3,r3,-32768
 20033c8:	2821883a 	mov	r16,r5
 20033cc:	2027883a 	mov	r19,r4
 20033d0:	3025883a 	mov	r18,r6
 20033d4:	3823883a 	mov	r17,r7
 20033d8:	18000526 	beq	r3,zero,20033f0 <__swrite+0x54>
 20033dc:	2940038f 	ldh	r5,14(r5)
 20033e0:	000d883a 	mov	r6,zero
 20033e4:	01c00084 	movi	r7,2
 20033e8:	20093dc0 	call	20093dc <_lseek_r>
 20033ec:	8080030b 	ldhu	r2,12(r16)
 20033f0:	8140038f 	ldh	r5,14(r16)
 20033f4:	10bbffcc 	andi	r2,r2,61439
 20033f8:	9809883a 	mov	r4,r19
 20033fc:	900d883a 	mov	r6,r18
 2003400:	880f883a 	mov	r7,r17
 2003404:	8080030d 	sth	r2,12(r16)
 2003408:	dfc00417 	ldw	ra,16(sp)
 200340c:	dcc00317 	ldw	r19,12(sp)
 2003410:	dc800217 	ldw	r18,8(sp)
 2003414:	dc400117 	ldw	r17,4(sp)
 2003418:	dc000017 	ldw	r16,0(sp)
 200341c:	dec00504 	addi	sp,sp,20
 2003420:	2006b701 	jmpi	2006b70 <_write_r>

02003424 <__sseek>:
 2003424:	defffe04 	addi	sp,sp,-8
 2003428:	dc000015 	stw	r16,0(sp)
 200342c:	2821883a 	mov	r16,r5
 2003430:	2940038f 	ldh	r5,14(r5)
 2003434:	dfc00115 	stw	ra,4(sp)
 2003438:	20093dc0 	call	20093dc <_lseek_r>
 200343c:	00ffffc4 	movi	r3,-1
 2003440:	10c00826 	beq	r2,r3,2003464 <__sseek+0x40>
 2003444:	80c0030b 	ldhu	r3,12(r16)
 2003448:	80801415 	stw	r2,80(r16)
 200344c:	18c40014 	ori	r3,r3,4096
 2003450:	80c0030d 	sth	r3,12(r16)
 2003454:	dfc00117 	ldw	ra,4(sp)
 2003458:	dc000017 	ldw	r16,0(sp)
 200345c:	dec00204 	addi	sp,sp,8
 2003460:	f800283a 	ret
 2003464:	80c0030b 	ldhu	r3,12(r16)
 2003468:	18fbffcc 	andi	r3,r3,61439
 200346c:	80c0030d 	sth	r3,12(r16)
 2003470:	dfc00117 	ldw	ra,4(sp)
 2003474:	dc000017 	ldw	r16,0(sp)
 2003478:	dec00204 	addi	sp,sp,8
 200347c:	f800283a 	ret

02003480 <__sclose>:
 2003480:	2940038f 	ldh	r5,14(r5)
 2003484:	2006d501 	jmpi	2006d50 <_close_r>

02003488 <strlen>:
 2003488:	208000cc 	andi	r2,r4,3
 200348c:	10001f1e 	bne	r2,zero,200350c <strlen+0x84>
 2003490:	20800017 	ldw	r2,0(r4)
 2003494:	01ffbff4 	movhi	r7,65279
 2003498:	39ffbfc4 	addi	r7,r7,-257
 200349c:	01a02074 	movhi	r6,32897
 20034a0:	31a02004 	addi	r6,r6,-32640
 20034a4:	11c7883a 	add	r3,r2,r7
 20034a8:	0084303a 	nor	r2,zero,r2
 20034ac:	1886703a 	and	r3,r3,r2
 20034b0:	1986703a 	and	r3,r3,r6
 20034b4:	2005883a 	mov	r2,r4
 20034b8:	1800101e 	bne	r3,zero,20034fc <strlen+0x74>
 20034bc:	10800104 	addi	r2,r2,4
 20034c0:	10c00017 	ldw	r3,0(r2)
 20034c4:	19cb883a 	add	r5,r3,r7
 20034c8:	00c6303a 	nor	r3,zero,r3
 20034cc:	28c6703a 	and	r3,r5,r3
 20034d0:	1986703a 	and	r3,r3,r6
 20034d4:	1800091e 	bne	r3,zero,20034fc <strlen+0x74>
 20034d8:	10800104 	addi	r2,r2,4
 20034dc:	10c00017 	ldw	r3,0(r2)
 20034e0:	19cb883a 	add	r5,r3,r7
 20034e4:	00c6303a 	nor	r3,zero,r3
 20034e8:	28c6703a 	and	r3,r5,r3
 20034ec:	1986703a 	and	r3,r3,r6
 20034f0:	183ff226 	beq	r3,zero,20034bc <__alt_mem_epcs_flash_controller+0xfdffa4bc>
 20034f4:	00000106 	br	20034fc <strlen+0x74>
 20034f8:	10800044 	addi	r2,r2,1
 20034fc:	10c00007 	ldb	r3,0(r2)
 2003500:	183ffd1e 	bne	r3,zero,20034f8 <__alt_mem_epcs_flash_controller+0xfdffa4f8>
 2003504:	1105c83a 	sub	r2,r2,r4
 2003508:	f800283a 	ret
 200350c:	2005883a 	mov	r2,r4
 2003510:	003ffa06 	br	20034fc <__alt_mem_epcs_flash_controller+0xfdffa4fc>

02003514 <__sprint_r>:
 2003514:	30800217 	ldw	r2,8(r6)
 2003518:	defffe04 	addi	sp,sp,-8
 200351c:	dc000015 	stw	r16,0(sp)
 2003520:	dfc00115 	stw	ra,4(sp)
 2003524:	3021883a 	mov	r16,r6
 2003528:	10000226 	beq	r2,zero,2003534 <__sprint_r+0x20>
 200352c:	2008de40 	call	2008de4 <__sfvwrite_r>
 2003530:	80000215 	stw	zero,8(r16)
 2003534:	80000115 	stw	zero,4(r16)
 2003538:	dfc00117 	ldw	ra,4(sp)
 200353c:	dc000017 	ldw	r16,0(sp)
 2003540:	dec00204 	addi	sp,sp,8
 2003544:	f800283a 	ret

02003548 <___vfprintf_internal_r>:
 2003548:	defeb904 	addi	sp,sp,-1308
 200354c:	dc013d15 	stw	r16,1268(sp)
 2003550:	d9013015 	stw	r4,1216(sp)
 2003554:	dfc14615 	stw	ra,1304(sp)
 2003558:	df014515 	stw	fp,1300(sp)
 200355c:	ddc14415 	stw	r23,1296(sp)
 2003560:	dd814315 	stw	r22,1292(sp)
 2003564:	dd414215 	stw	r21,1288(sp)
 2003568:	dd014115 	stw	r20,1284(sp)
 200356c:	dcc14015 	stw	r19,1280(sp)
 2003570:	dc813f15 	stw	r18,1276(sp)
 2003574:	dc413e15 	stw	r17,1272(sp)
 2003578:	d9412915 	stw	r5,1188(sp)
 200357c:	3021883a 	mov	r16,r6
 2003580:	d9c12d15 	stw	r7,1204(sp)
 2003584:	20093a80 	call	20093a8 <_localeconv_r>
 2003588:	10800017 	ldw	r2,0(r2)
 200358c:	d9013017 	ldw	r4,1216(sp)
 2003590:	d8013315 	stw	zero,1228(sp)
 2003594:	d8813715 	stw	r2,1244(sp)
 2003598:	d8013415 	stw	zero,1232(sp)
 200359c:	20000226 	beq	r4,zero,20035a8 <___vfprintf_internal_r+0x60>
 20035a0:	20800e17 	ldw	r2,56(r4)
 20035a4:	10014b26 	beq	r2,zero,2003ad4 <___vfprintf_internal_r+0x58c>
 20035a8:	d8c12917 	ldw	r3,1188(sp)
 20035ac:	1880030b 	ldhu	r2,12(r3)
 20035b0:	10c0020c 	andi	r3,r2,8
 20035b4:	18ffffcc 	andi	r3,r3,65535
 20035b8:	18e0001c 	xori	r3,r3,32768
 20035bc:	18e00004 	addi	r3,r3,-32768
 20035c0:	1800ed26 	beq	r3,zero,2003978 <___vfprintf_internal_r+0x430>
 20035c4:	d9012917 	ldw	r4,1188(sp)
 20035c8:	20c00417 	ldw	r3,16(r4)
 20035cc:	1800ea26 	beq	r3,zero,2003978 <___vfprintf_internal_r+0x430>
 20035d0:	1100068c 	andi	r4,r2,26
 20035d4:	00c00284 	movi	r3,10
 20035d8:	20c0f026 	beq	r4,r3,200399c <___vfprintf_internal_r+0x454>
 20035dc:	d9010dc4 	addi	r4,sp,1079
 20035e0:	d8810e04 	addi	r2,sp,1080
 20035e4:	dc413017 	ldw	r17,1216(sp)
 20035e8:	d8c00404 	addi	r3,sp,16
 20035ec:	d9012615 	stw	r4,1176(sp)
 20035f0:	1109c83a 	sub	r4,r2,r4
 20035f4:	d8812715 	stw	r2,1180(sp)
 20035f8:	d8c11b15 	stw	r3,1132(sp)
 20035fc:	d8011d15 	stw	zero,1140(sp)
 2003600:	d8011c15 	stw	zero,1136(sp)
 2003604:	802b883a 	mov	r21,r16
 2003608:	d8013215 	stw	zero,1224(sp)
 200360c:	d8013615 	stw	zero,1240(sp)
 2003610:	d8013515 	stw	zero,1236(sp)
 2003614:	d8012c15 	stw	zero,1200(sp)
 2003618:	1813883a 	mov	r9,r3
 200361c:	d9013915 	stw	r4,1252(sp)
 2003620:	a8800007 	ldb	r2,0(r21)
 2003624:	1002f326 	beq	r2,zero,20041f4 <___vfprintf_internal_r+0xcac>
 2003628:	00c00944 	movi	r3,37
 200362c:	a825883a 	mov	r18,r21
 2003630:	10c0021e 	bne	r2,r3,200363c <___vfprintf_internal_r+0xf4>
 2003634:	00001406 	br	2003688 <___vfprintf_internal_r+0x140>
 2003638:	10c00326 	beq	r2,r3,2003648 <___vfprintf_internal_r+0x100>
 200363c:	94800044 	addi	r18,r18,1
 2003640:	90800007 	ldb	r2,0(r18)
 2003644:	103ffc1e 	bne	r2,zero,2003638 <__alt_mem_epcs_flash_controller+0xfdffa638>
 2003648:	9561c83a 	sub	r16,r18,r21
 200364c:	80000e26 	beq	r16,zero,2003688 <___vfprintf_internal_r+0x140>
 2003650:	da011d17 	ldw	r8,1140(sp)
 2003654:	d8c11c17 	ldw	r3,1136(sp)
 2003658:	4d400015 	stw	r21,0(r9)
 200365c:	4c000115 	stw	r16,4(r9)
 2003660:	4411883a 	add	r8,r8,r16
 2003664:	18c00044 	addi	r3,r3,1
 2003668:	da011d15 	stw	r8,1140(sp)
 200366c:	d8c11c15 	stw	r3,1136(sp)
 2003670:	008001c4 	movi	r2,7
 2003674:	10c11016 	blt	r2,r3,2003ab8 <___vfprintf_internal_r+0x570>
 2003678:	4a400204 	addi	r9,r9,8
 200367c:	d8812c17 	ldw	r2,1200(sp)
 2003680:	1405883a 	add	r2,r2,r16
 2003684:	d8812c15 	stw	r2,1200(sp)
 2003688:	90800007 	ldb	r2,0(r18)
 200368c:	1000ee26 	beq	r2,zero,2003a48 <___vfprintf_internal_r+0x500>
 2003690:	95400044 	addi	r21,r18,1
 2003694:	94800047 	ldb	r18,1(r18)
 2003698:	073fffc4 	movi	fp,-1
 200369c:	e007883a 	mov	r3,fp
 20036a0:	d8012585 	stb	zero,1174(sp)
 20036a4:	d8012e15 	stw	zero,1208(sp)
 20036a8:	0021883a 	mov	r16,zero
 20036ac:	05001604 	movi	r20,88
 20036b0:	04c00244 	movi	r19,9
 20036b4:	4839883a 	mov	fp,r9
 20036b8:	ad400044 	addi	r21,r21,1
 20036bc:	90bff804 	addi	r2,r18,-32
 20036c0:	a080462e 	bgeu	r20,r2,20037dc <___vfprintf_internal_r+0x294>
 20036c4:	e013883a 	mov	r9,fp
 20036c8:	9000df26 	beq	r18,zero,2003a48 <___vfprintf_internal_r+0x500>
 20036cc:	00c00044 	movi	r3,1
 20036d0:	d8c12815 	stw	r3,1184(sp)
 20036d4:	dc810405 	stb	r18,1040(sp)
 20036d8:	d8012585 	stb	zero,1174(sp)
 20036dc:	d8c12b15 	stw	r3,1196(sp)
 20036e0:	dcc10404 	addi	r19,sp,1040
 20036e4:	d8013115 	stw	zero,1220(sp)
 20036e8:	80c0008c 	andi	r3,r16,2
 20036ec:	d8c12a15 	stw	r3,1192(sp)
 20036f0:	18000326 	beq	r3,zero,2003700 <___vfprintf_internal_r+0x1b8>
 20036f4:	d8c12817 	ldw	r3,1184(sp)
 20036f8:	18c00084 	addi	r3,r3,2
 20036fc:	d8c12815 	stw	r3,1184(sp)
 2003700:	80c0210c 	andi	r3,r16,132
 2003704:	d8c12f15 	stw	r3,1212(sp)
 2003708:	1802251e 	bne	r3,zero,2003fa0 <___vfprintf_internal_r+0xa58>
 200370c:	d9012e17 	ldw	r4,1208(sp)
 2003710:	d8c12817 	ldw	r3,1184(sp)
 2003714:	20edc83a 	sub	r22,r4,r3
 2003718:	0582210e 	bge	zero,r22,2003fa0 <___vfprintf_internal_r+0xa58>
 200371c:	02800404 	movi	r10,16
 2003720:	da011d17 	ldw	r8,1140(sp)
 2003724:	d8c11c17 	ldw	r3,1136(sp)
 2003728:	05c08234 	movhi	r23,520
 200372c:	bddcc384 	addi	r23,r23,29454
 2003730:	5580200e 	bge	r10,r22,20037b4 <___vfprintf_internal_r+0x26c>
 2003734:	dc813815 	stw	r18,1248(sp)
 2003738:	5039883a 	mov	fp,r10
 200373c:	b825883a 	mov	r18,r23
 2003740:	050001c4 	movi	r20,7
 2003744:	b02f883a 	mov	r23,r22
 2003748:	802d883a 	mov	r22,r16
 200374c:	dc012917 	ldw	r16,1188(sp)
 2003750:	00000306 	br	2003760 <___vfprintf_internal_r+0x218>
 2003754:	bdfffc04 	addi	r23,r23,-16
 2003758:	4a400204 	addi	r9,r9,8
 200375c:	e5c0110e 	bge	fp,r23,20037a4 <___vfprintf_internal_r+0x25c>
 2003760:	4c800015 	stw	r18,0(r9)
 2003764:	4f000115 	stw	fp,4(r9)
 2003768:	42000404 	addi	r8,r8,16
 200376c:	18c00044 	addi	r3,r3,1
 2003770:	da011d15 	stw	r8,1140(sp)
 2003774:	d8c11c15 	stw	r3,1136(sp)
 2003778:	a0fff60e 	bge	r20,r3,2003754 <__alt_mem_epcs_flash_controller+0xfdffa754>
 200377c:	8809883a 	mov	r4,r17
 2003780:	800b883a 	mov	r5,r16
 2003784:	d9811b04 	addi	r6,sp,1132
 2003788:	20035140 	call	2003514 <__sprint_r>
 200378c:	1000b41e 	bne	r2,zero,2003a60 <___vfprintf_internal_r+0x518>
 2003790:	bdfffc04 	addi	r23,r23,-16
 2003794:	da011d17 	ldw	r8,1140(sp)
 2003798:	d8c11c17 	ldw	r3,1136(sp)
 200379c:	da400404 	addi	r9,sp,16
 20037a0:	e5ffef16 	blt	fp,r23,2003760 <__alt_mem_epcs_flash_controller+0xfdffa760>
 20037a4:	b021883a 	mov	r16,r22
 20037a8:	b82d883a 	mov	r22,r23
 20037ac:	902f883a 	mov	r23,r18
 20037b0:	dc813817 	ldw	r18,1248(sp)
 20037b4:	4dc00015 	stw	r23,0(r9)
 20037b8:	4d800115 	stw	r22,4(r9)
 20037bc:	4591883a 	add	r8,r8,r22
 20037c0:	18c00044 	addi	r3,r3,1
 20037c4:	da011d15 	stw	r8,1140(sp)
 20037c8:	d8c11c15 	stw	r3,1136(sp)
 20037cc:	008001c4 	movi	r2,7
 20037d0:	10c3fe16 	blt	r2,r3,20047cc <___vfprintf_internal_r+0x1284>
 20037d4:	4a400204 	addi	r9,r9,8
 20037d8:	0001f306 	br	2003fa8 <___vfprintf_internal_r+0xa60>
 20037dc:	1085883a 	add	r2,r2,r2
 20037e0:	1085883a 	add	r2,r2,r2
 20037e4:	01008034 	movhi	r4,512
 20037e8:	210dfe04 	addi	r4,r4,14328
 20037ec:	1105883a 	add	r2,r2,r4
 20037f0:	10800017 	ldw	r2,0(r2)
 20037f4:	1000683a 	jmp	r2
 20037f8:	02003ed4 	movui	r8,251
 20037fc:	020036c4 	movi	r8,219
 2003800:	020036c4 	movi	r8,219
 2003804:	02003eec 	andhi	r8,zero,251
 2003808:	020036c4 	movi	r8,219
 200380c:	020036c4 	movi	r8,219
 2003810:	020036c4 	movi	r8,219
 2003814:	020036c4 	movi	r8,219
 2003818:	020036c4 	movi	r8,219
 200381c:	020036c4 	movi	r8,219
 2003820:	02003da4 	muli	r8,zero,246
 2003824:	02003f38 	rdprs	r8,zero,252
 2003828:	020036c4 	movi	r8,219
 200382c:	0200396c 	andhi	r8,zero,229
 2003830:	02003d0c 	andi	r8,zero,244
 2003834:	020036c4 	movi	r8,219
 2003838:	02003ef8 	rdprs	r8,zero,251
 200383c:	02003f04 	movi	r8,252
 2003840:	02003f04 	movi	r8,252
 2003844:	02003f04 	movi	r8,252
 2003848:	02003f04 	movi	r8,252
 200384c:	02003f04 	movi	r8,252
 2003850:	02003f04 	movi	r8,252
 2003854:	02003f04 	movi	r8,252
 2003858:	02003f04 	movi	r8,252
 200385c:	02003f04 	movi	r8,252
 2003860:	020036c4 	movi	r8,219
 2003864:	020036c4 	movi	r8,219
 2003868:	020036c4 	movi	r8,219
 200386c:	020036c4 	movi	r8,219
 2003870:	020036c4 	movi	r8,219
 2003874:	020036c4 	movi	r8,219
 2003878:	020036c4 	movi	r8,219
 200387c:	020036c4 	movi	r8,219
 2003880:	020036c4 	movi	r8,219
 2003884:	020036c4 	movi	r8,219
 2003888:	02003adc 	xori	r8,zero,235
 200388c:	02003b9c 	xori	r8,zero,238
 2003890:	020036c4 	movi	r8,219
 2003894:	02003b9c 	xori	r8,zero,238
 2003898:	020036c4 	movi	r8,219
 200389c:	020036c4 	movi	r8,219
 20038a0:	020036c4 	movi	r8,219
 20038a4:	020036c4 	movi	r8,219
 20038a8:	02003c30 	cmpltui	r8,zero,240
 20038ac:	020036c4 	movi	r8,219
 20038b0:	020036c4 	movi	r8,219
 20038b4:	02003c3c 	xorhi	r8,zero,240
 20038b8:	020036c4 	movi	r8,219
 20038bc:	020036c4 	movi	r8,219
 20038c0:	020036c4 	movi	r8,219
 20038c4:	020036c4 	movi	r8,219
 20038c8:	020036c4 	movi	r8,219
 20038cc:	02003c74 	movhi	r8,241
 20038d0:	020036c4 	movi	r8,219
 20038d4:	020036c4 	movi	r8,219
 20038d8:	02003cb0 	cmpltui	r8,zero,242
 20038dc:	020036c4 	movi	r8,219
 20038e0:	020036c4 	movi	r8,219
 20038e4:	020036c4 	movi	r8,219
 20038e8:	020036c4 	movi	r8,219
 20038ec:	020036c4 	movi	r8,219
 20038f0:	020036c4 	movi	r8,219
 20038f4:	020036c4 	movi	r8,219
 20038f8:	020036c4 	movi	r8,219
 20038fc:	020036c4 	movi	r8,219
 2003900:	020036c4 	movi	r8,219
 2003904:	02003f48 	cmpgei	r8,zero,253
 2003908:	02003f7c 	xorhi	r8,zero,253
 200390c:	02003b9c 	xori	r8,zero,238
 2003910:	02003b9c 	xori	r8,zero,238
 2003914:	02003b9c 	xori	r8,zero,238
 2003918:	02003ec8 	cmpgei	r8,zero,251
 200391c:	02003f7c 	xorhi	r8,zero,253
 2003920:	020036c4 	movi	r8,219
 2003924:	020036c4 	movi	r8,219
 2003928:	02003d54 	movui	r8,245
 200392c:	020036c4 	movi	r8,219
 2003930:	02003d6c 	andhi	r8,zero,245
 2003934:	02003f88 	cmpgei	r8,zero,254
 2003938:	02003dcc 	andi	r8,zero,247
 200393c:	02003e1c 	xori	r8,zero,248
 2003940:	020036c4 	movi	r8,219
 2003944:	02003e28 	cmpgeui	r8,zero,248
 2003948:	020036c4 	movi	r8,219
 200394c:	02003f94 	movui	r8,254
 2003950:	020036c4 	movi	r8,219
 2003954:	020036c4 	movi	r8,219
 2003958:	02003e8c 	andi	r8,zero,250
 200395c:	d9012e17 	ldw	r4,1208(sp)
 2003960:	d8812d15 	stw	r2,1204(sp)
 2003964:	0109c83a 	sub	r4,zero,r4
 2003968:	d9012e15 	stw	r4,1208(sp)
 200396c:	84000114 	ori	r16,r16,4
 2003970:	ac800007 	ldb	r18,0(r21)
 2003974:	003f5006 	br	20036b8 <__alt_mem_epcs_flash_controller+0xfdffa6b8>
 2003978:	d9013017 	ldw	r4,1216(sp)
 200397c:	d9412917 	ldw	r5,1188(sp)
 2003980:	2006bdc0 	call	2006bdc <__swsetup_r>
 2003984:	10003d1e 	bne	r2,zero,2003a7c <___vfprintf_internal_r+0x534>
 2003988:	d8c12917 	ldw	r3,1188(sp)
 200398c:	1880030b 	ldhu	r2,12(r3)
 2003990:	00c00284 	movi	r3,10
 2003994:	1100068c 	andi	r4,r2,26
 2003998:	20ff101e 	bne	r4,r3,20035dc <__alt_mem_epcs_flash_controller+0xfdffa5dc>
 200399c:	d9012917 	ldw	r4,1188(sp)
 20039a0:	20c0038b 	ldhu	r3,14(r4)
 20039a4:	193fffcc 	andi	r4,r3,65535
 20039a8:	2120001c 	xori	r4,r4,32768
 20039ac:	21200004 	addi	r4,r4,-32768
 20039b0:	203f0a16 	blt	r4,zero,20035dc <__alt_mem_epcs_flash_controller+0xfdffa5dc>
 20039b4:	d9012917 	ldw	r4,1188(sp)
 20039b8:	d9c12d17 	ldw	r7,1204(sp)
 20039bc:	10bfff4c 	andi	r2,r2,65533
 20039c0:	22800717 	ldw	r10,28(r4)
 20039c4:	22400917 	ldw	r9,36(r4)
 20039c8:	d9013017 	ldw	r4,1216(sp)
 20039cc:	02010004 	movi	r8,1024
 20039d0:	d881070d 	sth	r2,1052(sp)
 20039d4:	d9410404 	addi	r5,sp,1040
 20039d8:	d8800404 	addi	r2,sp,16
 20039dc:	800d883a 	mov	r6,r16
 20039e0:	d8c1078d 	sth	r3,1054(sp)
 20039e4:	da810b15 	stw	r10,1068(sp)
 20039e8:	da410d15 	stw	r9,1076(sp)
 20039ec:	d8810415 	stw	r2,1040(sp)
 20039f0:	d8810815 	stw	r2,1056(sp)
 20039f4:	da010615 	stw	r8,1048(sp)
 20039f8:	da010915 	stw	r8,1060(sp)
 20039fc:	d8010a15 	stw	zero,1064(sp)
 2003a00:	20035480 	call	2003548 <___vfprintf_internal_r>
 2003a04:	d8812c15 	stw	r2,1200(sp)
 2003a08:	10000416 	blt	r2,zero,2003a1c <___vfprintf_internal_r+0x4d4>
 2003a0c:	d9013017 	ldw	r4,1216(sp)
 2003a10:	d9410404 	addi	r5,sp,1040
 2003a14:	20022b40 	call	20022b4 <_fflush_r>
 2003a18:	1006501e 	bne	r2,zero,200535c <___vfprintf_internal_r+0x1e14>
 2003a1c:	d881070b 	ldhu	r2,1052(sp)
 2003a20:	1080100c 	andi	r2,r2,64
 2003a24:	10bfffcc 	andi	r2,r2,65535
 2003a28:	10a0001c 	xori	r2,r2,32768
 2003a2c:	10a00004 	addi	r2,r2,-32768
 2003a30:	10001426 	beq	r2,zero,2003a84 <___vfprintf_internal_r+0x53c>
 2003a34:	d8c12917 	ldw	r3,1188(sp)
 2003a38:	1880030b 	ldhu	r2,12(r3)
 2003a3c:	10801014 	ori	r2,r2,64
 2003a40:	1880030d 	sth	r2,12(r3)
 2003a44:	00000f06 	br	2003a84 <___vfprintf_internal_r+0x53c>
 2003a48:	d8811d17 	ldw	r2,1140(sp)
 2003a4c:	10000426 	beq	r2,zero,2003a60 <___vfprintf_internal_r+0x518>
 2003a50:	d9013017 	ldw	r4,1216(sp)
 2003a54:	d9412917 	ldw	r5,1188(sp)
 2003a58:	d9811b04 	addi	r6,sp,1132
 2003a5c:	20035140 	call	2003514 <__sprint_r>
 2003a60:	d8c12917 	ldw	r3,1188(sp)
 2003a64:	1880030b 	ldhu	r2,12(r3)
 2003a68:	1080100c 	andi	r2,r2,64
 2003a6c:	10bfffcc 	andi	r2,r2,65535
 2003a70:	10a0001c 	xori	r2,r2,32768
 2003a74:	10a00004 	addi	r2,r2,-32768
 2003a78:	10000226 	beq	r2,zero,2003a84 <___vfprintf_internal_r+0x53c>
 2003a7c:	00bfffc4 	movi	r2,-1
 2003a80:	d8812c15 	stw	r2,1200(sp)
 2003a84:	d8812c17 	ldw	r2,1200(sp)
 2003a88:	dfc14617 	ldw	ra,1304(sp)
 2003a8c:	df014517 	ldw	fp,1300(sp)
 2003a90:	ddc14417 	ldw	r23,1296(sp)
 2003a94:	dd814317 	ldw	r22,1292(sp)
 2003a98:	dd414217 	ldw	r21,1288(sp)
 2003a9c:	dd014117 	ldw	r20,1284(sp)
 2003aa0:	dcc14017 	ldw	r19,1280(sp)
 2003aa4:	dc813f17 	ldw	r18,1276(sp)
 2003aa8:	dc413e17 	ldw	r17,1272(sp)
 2003aac:	dc013d17 	ldw	r16,1268(sp)
 2003ab0:	dec14704 	addi	sp,sp,1308
 2003ab4:	f800283a 	ret
 2003ab8:	d9412917 	ldw	r5,1188(sp)
 2003abc:	8809883a 	mov	r4,r17
 2003ac0:	d9811b04 	addi	r6,sp,1132
 2003ac4:	20035140 	call	2003514 <__sprint_r>
 2003ac8:	103fe51e 	bne	r2,zero,2003a60 <__alt_mem_epcs_flash_controller+0xfdffaa60>
 2003acc:	da400404 	addi	r9,sp,16
 2003ad0:	003eea06 	br	200367c <__alt_mem_epcs_flash_controller+0xfdffa67c>
 2003ad4:	20025700 	call	2002570 <__sinit>
 2003ad8:	003eb306 	br	20035a8 <__alt_mem_epcs_flash_controller+0xfdffa5a8>
 2003adc:	e013883a 	mov	r9,fp
 2003ae0:	84000414 	ori	r16,r16,16
 2003ae4:	1839883a 	mov	fp,r3
 2003ae8:	8080080c 	andi	r2,r16,32
 2003aec:	10034426 	beq	r2,zero,2004800 <___vfprintf_internal_r+0x12b8>
 2003af0:	d8c12d17 	ldw	r3,1204(sp)
 2003af4:	18800117 	ldw	r2,4(r3)
 2003af8:	1dc00017 	ldw	r23,0(r3)
 2003afc:	18c00204 	addi	r3,r3,8
 2003b00:	d8c12d15 	stw	r3,1204(sp)
 2003b04:	102d883a 	mov	r22,r2
 2003b08:	1003020e 	bge	r2,zero,2004714 <___vfprintf_internal_r+0x11cc>
 2003b0c:	05efc83a 	sub	r23,zero,r23
 2003b10:	b804c03a 	cmpne	r2,r23,zero
 2003b14:	05adc83a 	sub	r22,zero,r22
 2003b18:	b0adc83a 	sub	r22,r22,r2
 2003b1c:	00800b44 	movi	r2,45
 2003b20:	d8812585 	stb	r2,1174(sp)
 2003b24:	00c00044 	movi	r3,1
 2003b28:	bd84b03a 	or	r2,r23,r22
 2003b2c:	e0000216 	blt	fp,zero,2003b38 <___vfprintf_internal_r+0x5f0>
 2003b30:	013fdfc4 	movi	r4,-129
 2003b34:	8120703a 	and	r16,r16,r4
 2003b38:	1001cc1e 	bne	r2,zero,200426c <___vfprintf_internal_r+0xd24>
 2003b3c:	e001cb1e 	bne	fp,zero,200426c <___vfprintf_internal_r+0xd24>
 2003b40:	18c03fcc 	andi	r3,r3,255
 2003b44:	1802ca1e 	bne	r3,zero,2004670 <___vfprintf_internal_r+0x1128>
 2003b48:	8080004c 	andi	r2,r16,1
 2003b4c:	1002c826 	beq	r2,zero,2004670 <___vfprintf_internal_r+0x1128>
 2003b50:	d8c13917 	ldw	r3,1252(sp)
 2003b54:	00800c04 	movi	r2,48
 2003b58:	d8810dc5 	stb	r2,1079(sp)
 2003b5c:	d8c12b15 	stw	r3,1196(sp)
 2003b60:	dcc10dc4 	addi	r19,sp,1079
 2003b64:	d8812b17 	ldw	r2,1196(sp)
 2003b68:	d8812815 	stw	r2,1184(sp)
 2003b6c:	1700010e 	bge	r2,fp,2003b74 <___vfprintf_internal_r+0x62c>
 2003b70:	df012815 	stw	fp,1184(sp)
 2003b74:	d8812583 	ldbu	r2,1174(sp)
 2003b78:	df013115 	stw	fp,1220(sp)
 2003b7c:	10803fcc 	andi	r2,r2,255
 2003b80:	1080201c 	xori	r2,r2,128
 2003b84:	10bfe004 	addi	r2,r2,-128
 2003b88:	103ed726 	beq	r2,zero,20036e8 <__alt_mem_epcs_flash_controller+0xfdffa6e8>
 2003b8c:	d8c12817 	ldw	r3,1184(sp)
 2003b90:	18c00044 	addi	r3,r3,1
 2003b94:	d8c12815 	stw	r3,1184(sp)
 2003b98:	003ed306 	br	20036e8 <__alt_mem_epcs_flash_controller+0xfdffa6e8>
 2003b9c:	8080020c 	andi	r2,r16,8
 2003ba0:	e013883a 	mov	r9,fp
 2003ba4:	1839883a 	mov	fp,r3
 2003ba8:	1003a626 	beq	r2,zero,2004a44 <___vfprintf_internal_r+0x14fc>
 2003bac:	d9012d17 	ldw	r4,1204(sp)
 2003bb0:	25800017 	ldw	r22,0(r4)
 2003bb4:	25000117 	ldw	r20,4(r4)
 2003bb8:	21000204 	addi	r4,r4,8
 2003bbc:	d9012d15 	stw	r4,1204(sp)
 2003bc0:	dd813315 	stw	r22,1228(sp)
 2003bc4:	dd013415 	stw	r20,1232(sp)
 2003bc8:	b009883a 	mov	r4,r22
 2003bcc:	a00b883a 	mov	r5,r20
 2003bd0:	da413c15 	stw	r9,1264(sp)
 2003bd4:	200b35c0 	call	200b35c <__isinfd>
 2003bd8:	da413c17 	ldw	r9,1264(sp)
 2003bdc:	b009883a 	mov	r4,r22
 2003be0:	a00b883a 	mov	r5,r20
 2003be4:	10041d26 	beq	r2,zero,2004c5c <___vfprintf_internal_r+0x1714>
 2003be8:	000d883a 	mov	r6,zero
 2003bec:	000f883a 	mov	r7,zero
 2003bf0:	200fbf80 	call	200fbf8 <__ltdf2>
 2003bf4:	da413c17 	ldw	r9,1264(sp)
 2003bf8:	1004da16 	blt	r2,zero,2004f64 <___vfprintf_internal_r+0x1a1c>
 2003bfc:	d8812583 	ldbu	r2,1174(sp)
 2003c00:	00c011c4 	movi	r3,71
 2003c04:	1c83d116 	blt	r3,r18,2004b4c <___vfprintf_internal_r+0x1604>
 2003c08:	04c08234 	movhi	r19,520
 2003c0c:	9cdcb304 	addi	r19,r19,29388
 2003c10:	00c000c4 	movi	r3,3
 2003c14:	d8c12815 	stw	r3,1184(sp)
 2003c18:	00ffdfc4 	movi	r3,-129
 2003c1c:	80e0703a 	and	r16,r16,r3
 2003c20:	d8c12817 	ldw	r3,1184(sp)
 2003c24:	d8013115 	stw	zero,1220(sp)
 2003c28:	d8c12b15 	stw	r3,1196(sp)
 2003c2c:	003fd306 	br	2003b7c <__alt_mem_epcs_flash_controller+0xfdffab7c>
 2003c30:	84000214 	ori	r16,r16,8
 2003c34:	ac800007 	ldb	r18,0(r21)
 2003c38:	003e9f06 	br	20036b8 <__alt_mem_epcs_flash_controller+0xfdffa6b8>
 2003c3c:	e013883a 	mov	r9,fp
 2003c40:	84000414 	ori	r16,r16,16
 2003c44:	1839883a 	mov	fp,r3
 2003c48:	8080080c 	andi	r2,r16,32
 2003c4c:	10031d26 	beq	r2,zero,20048c4 <___vfprintf_internal_r+0x137c>
 2003c50:	d8812d17 	ldw	r2,1204(sp)
 2003c54:	0007883a 	mov	r3,zero
 2003c58:	15c00017 	ldw	r23,0(r2)
 2003c5c:	15800117 	ldw	r22,4(r2)
 2003c60:	10800204 	addi	r2,r2,8
 2003c64:	d8812d15 	stw	r2,1204(sp)
 2003c68:	d8012585 	stb	zero,1174(sp)
 2003c6c:	bd84b03a 	or	r2,r23,r22
 2003c70:	003fae06 	br	2003b2c <__alt_mem_epcs_flash_controller+0xfdffab2c>
 2003c74:	e013883a 	mov	r9,fp
 2003c78:	84000414 	ori	r16,r16,16
 2003c7c:	1839883a 	mov	fp,r3
 2003c80:	8080080c 	andi	r2,r16,32
 2003c84:	1002e726 	beq	r2,zero,2004824 <___vfprintf_internal_r+0x12dc>
 2003c88:	d8c12d17 	ldw	r3,1204(sp)
 2003c8c:	d9012d17 	ldw	r4,1204(sp)
 2003c90:	1dc00017 	ldw	r23,0(r3)
 2003c94:	1d800117 	ldw	r22,4(r3)
 2003c98:	21000204 	addi	r4,r4,8
 2003c9c:	00c00044 	movi	r3,1
 2003ca0:	d9012d15 	stw	r4,1204(sp)
 2003ca4:	bd84b03a 	or	r2,r23,r22
 2003ca8:	d8012585 	stb	zero,1174(sp)
 2003cac:	003f9f06 	br	2003b2c <__alt_mem_epcs_flash_controller+0xfdffab2c>
 2003cb0:	e013883a 	mov	r9,fp
 2003cb4:	1839883a 	mov	fp,r3
 2003cb8:	00c08234 	movhi	r3,520
 2003cbc:	18dcb704 	addi	r3,r3,29404
 2003cc0:	d8c13615 	stw	r3,1240(sp)
 2003cc4:	8080080c 	andi	r2,r16,32
 2003cc8:	10007726 	beq	r2,zero,2003ea8 <___vfprintf_internal_r+0x960>
 2003ccc:	d9012d17 	ldw	r4,1204(sp)
 2003cd0:	25c00017 	ldw	r23,0(r4)
 2003cd4:	25800117 	ldw	r22,4(r4)
 2003cd8:	21000204 	addi	r4,r4,8
 2003cdc:	d9012d15 	stw	r4,1204(sp)
 2003ce0:	8080004c 	andi	r2,r16,1
 2003ce4:	1002c226 	beq	r2,zero,20047f0 <___vfprintf_internal_r+0x12a8>
 2003ce8:	bd84b03a 	or	r2,r23,r22
 2003cec:	10035d26 	beq	r2,zero,2004a64 <___vfprintf_internal_r+0x151c>
 2003cf0:	00c00c04 	movi	r3,48
 2003cf4:	d8c12505 	stb	r3,1172(sp)
 2003cf8:	dc812545 	stb	r18,1173(sp)
 2003cfc:	84000094 	ori	r16,r16,2
 2003d00:	00c00084 	movi	r3,2
 2003d04:	d8012585 	stb	zero,1174(sp)
 2003d08:	003f8806 	br	2003b2c <__alt_mem_epcs_flash_controller+0xfdffab2c>
 2003d0c:	ac800007 	ldb	r18,0(r21)
 2003d10:	00c00a84 	movi	r3,42
 2003d14:	adc00044 	addi	r23,r21,1
 2003d18:	90c57526 	beq	r18,r3,20052f0 <___vfprintf_internal_r+0x1da8>
 2003d1c:	95bff404 	addi	r22,r18,-48
 2003d20:	0009883a 	mov	r4,zero
 2003d24:	9d84ff36 	bltu	r19,r22,2005124 <___vfprintf_internal_r+0x1bdc>
 2003d28:	01400284 	movi	r5,10
 2003d2c:	2001d200 	call	2001d20 <__mulsi3>
 2003d30:	bc800007 	ldb	r18,0(r23)
 2003d34:	b089883a 	add	r4,r22,r2
 2003d38:	bdc00044 	addi	r23,r23,1
 2003d3c:	95bff404 	addi	r22,r18,-48
 2003d40:	9dbff92e 	bgeu	r19,r22,2003d28 <__alt_mem_epcs_flash_controller+0xfdffad28>
 2003d44:	2007883a 	mov	r3,r4
 2003d48:	20044316 	blt	r4,zero,2004e58 <___vfprintf_internal_r+0x1910>
 2003d4c:	b82b883a 	mov	r21,r23
 2003d50:	003e5a06 	br	20036bc <__alt_mem_epcs_flash_controller+0xfdffa6bc>
 2003d54:	ac800007 	ldb	r18,0(r21)
 2003d58:	01001b04 	movi	r4,108
 2003d5c:	a805883a 	mov	r2,r21
 2003d60:	91045526 	beq	r18,r4,2004eb8 <___vfprintf_internal_r+0x1970>
 2003d64:	84000414 	ori	r16,r16,16
 2003d68:	003e5306 	br	20036b8 <__alt_mem_epcs_flash_controller+0xfdffa6b8>
 2003d6c:	8080080c 	andi	r2,r16,32
 2003d70:	e013883a 	mov	r9,fp
 2003d74:	10034026 	beq	r2,zero,2004a78 <___vfprintf_internal_r+0x1530>
 2003d78:	d9012d17 	ldw	r4,1204(sp)
 2003d7c:	20800017 	ldw	r2,0(r4)
 2003d80:	d9012c17 	ldw	r4,1200(sp)
 2003d84:	2007d7fa 	srai	r3,r4,31
 2003d88:	d9012d17 	ldw	r4,1204(sp)
 2003d8c:	10c00115 	stw	r3,4(r2)
 2003d90:	21000104 	addi	r4,r4,4
 2003d94:	d9012d15 	stw	r4,1204(sp)
 2003d98:	d9012c17 	ldw	r4,1200(sp)
 2003d9c:	11000015 	stw	r4,0(r2)
 2003da0:	003e1f06 	br	2003620 <__alt_mem_epcs_flash_controller+0xfdffa620>
 2003da4:	d9012d17 	ldw	r4,1204(sp)
 2003da8:	21000017 	ldw	r4,0(r4)
 2003dac:	d9012e15 	stw	r4,1208(sp)
 2003db0:	d9012d17 	ldw	r4,1204(sp)
 2003db4:	20800104 	addi	r2,r4,4
 2003db8:	d9012e17 	ldw	r4,1208(sp)
 2003dbc:	203ee716 	blt	r4,zero,200395c <__alt_mem_epcs_flash_controller+0xfdffa95c>
 2003dc0:	d8812d15 	stw	r2,1204(sp)
 2003dc4:	ac800007 	ldb	r18,0(r21)
 2003dc8:	003e3b06 	br	20036b8 <__alt_mem_epcs_flash_controller+0xfdffa6b8>
 2003dcc:	e013883a 	mov	r9,fp
 2003dd0:	1839883a 	mov	fp,r3
 2003dd4:	d8c12d17 	ldw	r3,1204(sp)
 2003dd8:	00800c04 	movi	r2,48
 2003ddc:	01008234 	movhi	r4,520
 2003de0:	211cbc04 	addi	r4,r4,29424
 2003de4:	1dc00017 	ldw	r23,0(r3)
 2003de8:	18c00104 	addi	r3,r3,4
 2003dec:	d8812505 	stb	r2,1172(sp)
 2003df0:	00801e04 	movi	r2,120
 2003df4:	d8812545 	stb	r2,1173(sp)
 2003df8:	d8c12d15 	stw	r3,1204(sp)
 2003dfc:	002d883a 	mov	r22,zero
 2003e00:	84000094 	ori	r16,r16,2
 2003e04:	d9013615 	stw	r4,1240(sp)
 2003e08:	00c00084 	movi	r3,2
 2003e0c:	04801e04 	movi	r18,120
 2003e10:	b805883a 	mov	r2,r23
 2003e14:	d8012585 	stb	zero,1174(sp)
 2003e18:	003f4406 	br	2003b2c <__alt_mem_epcs_flash_controller+0xfdffab2c>
 2003e1c:	84000814 	ori	r16,r16,32
 2003e20:	ac800007 	ldb	r18,0(r21)
 2003e24:	003e2406 	br	20036b8 <__alt_mem_epcs_flash_controller+0xfdffa6b8>
 2003e28:	d8812d17 	ldw	r2,1204(sp)
 2003e2c:	d8012585 	stb	zero,1174(sp)
 2003e30:	e013883a 	mov	r9,fp
 2003e34:	14c00017 	ldw	r19,0(r2)
 2003e38:	1839883a 	mov	fp,r3
 2003e3c:	15c00104 	addi	r23,r2,4
 2003e40:	98045526 	beq	r19,zero,2004f98 <___vfprintf_internal_r+0x1a50>
 2003e44:	9809883a 	mov	r4,r19
 2003e48:	18043116 	blt	r3,zero,2004f10 <___vfprintf_internal_r+0x19c8>
 2003e4c:	000b883a 	mov	r5,zero
 2003e50:	180d883a 	mov	r6,r3
 2003e54:	da413c15 	stw	r9,1264(sp)
 2003e58:	20096d80 	call	20096d8 <memchr>
 2003e5c:	da413c17 	ldw	r9,1264(sp)
 2003e60:	10047a26 	beq	r2,zero,200504c <___vfprintf_internal_r+0x1b04>
 2003e64:	14c5c83a 	sub	r2,r2,r19
 2003e68:	d8812b15 	stw	r2,1196(sp)
 2003e6c:	e083d40e 	bge	fp,r2,2004dc0 <___vfprintf_internal_r+0x1878>
 2003e70:	df012815 	stw	fp,1184(sp)
 2003e74:	e004e416 	blt	fp,zero,2005208 <___vfprintf_internal_r+0x1cc0>
 2003e78:	d8812583 	ldbu	r2,1174(sp)
 2003e7c:	df012b15 	stw	fp,1196(sp)
 2003e80:	ddc12d15 	stw	r23,1204(sp)
 2003e84:	d8013115 	stw	zero,1220(sp)
 2003e88:	003f3c06 	br	2003b7c <__alt_mem_epcs_flash_controller+0xfdffab7c>
 2003e8c:	00808234 	movhi	r2,520
 2003e90:	109cbc04 	addi	r2,r2,29424
 2003e94:	d8813615 	stw	r2,1240(sp)
 2003e98:	8080080c 	andi	r2,r16,32
 2003e9c:	e013883a 	mov	r9,fp
 2003ea0:	1839883a 	mov	fp,r3
 2003ea4:	103f891e 	bne	r2,zero,2003ccc <__alt_mem_epcs_flash_controller+0xfdffaccc>
 2003ea8:	8080040c 	andi	r2,r16,16
 2003eac:	1002c326 	beq	r2,zero,20049bc <___vfprintf_internal_r+0x1474>
 2003eb0:	d8812d17 	ldw	r2,1204(sp)
 2003eb4:	002d883a 	mov	r22,zero
 2003eb8:	15c00017 	ldw	r23,0(r2)
 2003ebc:	10800104 	addi	r2,r2,4
 2003ec0:	d8812d15 	stw	r2,1204(sp)
 2003ec4:	003f8606 	br	2003ce0 <__alt_mem_epcs_flash_controller+0xfdfface0>
 2003ec8:	84001014 	ori	r16,r16,64
 2003ecc:	ac800007 	ldb	r18,0(r21)
 2003ed0:	003df906 	br	20036b8 <__alt_mem_epcs_flash_controller+0xfdffa6b8>
 2003ed4:	d8812587 	ldb	r2,1174(sp)
 2003ed8:	1002e51e 	bne	r2,zero,2004a70 <___vfprintf_internal_r+0x1528>
 2003edc:	00800804 	movi	r2,32
 2003ee0:	d8812585 	stb	r2,1174(sp)
 2003ee4:	ac800007 	ldb	r18,0(r21)
 2003ee8:	003df306 	br	20036b8 <__alt_mem_epcs_flash_controller+0xfdffa6b8>
 2003eec:	84000054 	ori	r16,r16,1
 2003ef0:	ac800007 	ldb	r18,0(r21)
 2003ef4:	003df006 	br	20036b8 <__alt_mem_epcs_flash_controller+0xfdffa6b8>
 2003ef8:	84002014 	ori	r16,r16,128
 2003efc:	ac800007 	ldb	r18,0(r21)
 2003f00:	003ded06 	br	20036b8 <__alt_mem_epcs_flash_controller+0xfdffa6b8>
 2003f04:	0009883a 	mov	r4,zero
 2003f08:	95bff404 	addi	r22,r18,-48
 2003f0c:	182f883a 	mov	r23,r3
 2003f10:	01400284 	movi	r5,10
 2003f14:	2001d200 	call	2001d20 <__mulsi3>
 2003f18:	ac800007 	ldb	r18,0(r21)
 2003f1c:	1589883a 	add	r4,r2,r22
 2003f20:	ad400044 	addi	r21,r21,1
 2003f24:	95bff404 	addi	r22,r18,-48
 2003f28:	9dbff92e 	bgeu	r19,r22,2003f10 <__alt_mem_epcs_flash_controller+0xfdffaf10>
 2003f2c:	b807883a 	mov	r3,r23
 2003f30:	d9012e15 	stw	r4,1208(sp)
 2003f34:	003de106 	br	20036bc <__alt_mem_epcs_flash_controller+0xfdffa6bc>
 2003f38:	00800ac4 	movi	r2,43
 2003f3c:	d8812585 	stb	r2,1174(sp)
 2003f40:	ac800007 	ldb	r18,0(r21)
 2003f44:	003ddc06 	br	20036b8 <__alt_mem_epcs_flash_controller+0xfdffa6b8>
 2003f48:	d8c12d17 	ldw	r3,1204(sp)
 2003f4c:	d9012d17 	ldw	r4,1204(sp)
 2003f50:	e013883a 	mov	r9,fp
 2003f54:	18800017 	ldw	r2,0(r3)
 2003f58:	21000104 	addi	r4,r4,4
 2003f5c:	00c00044 	movi	r3,1
 2003f60:	d8c12815 	stw	r3,1184(sp)
 2003f64:	d8012585 	stb	zero,1174(sp)
 2003f68:	d8810405 	stb	r2,1040(sp)
 2003f6c:	d9012d15 	stw	r4,1204(sp)
 2003f70:	d8c12b15 	stw	r3,1196(sp)
 2003f74:	dcc10404 	addi	r19,sp,1040
 2003f78:	003dda06 	br	20036e4 <__alt_mem_epcs_flash_controller+0xfdffa6e4>
 2003f7c:	e013883a 	mov	r9,fp
 2003f80:	1839883a 	mov	fp,r3
 2003f84:	003ed806 	br	2003ae8 <__alt_mem_epcs_flash_controller+0xfdffaae8>
 2003f88:	e013883a 	mov	r9,fp
 2003f8c:	1839883a 	mov	fp,r3
 2003f90:	003f2d06 	br	2003c48 <__alt_mem_epcs_flash_controller+0xfdffac48>
 2003f94:	e013883a 	mov	r9,fp
 2003f98:	1839883a 	mov	fp,r3
 2003f9c:	003f3806 	br	2003c80 <__alt_mem_epcs_flash_controller+0xfdffac80>
 2003fa0:	da011d17 	ldw	r8,1140(sp)
 2003fa4:	d8c11c17 	ldw	r3,1136(sp)
 2003fa8:	d8812587 	ldb	r2,1174(sp)
 2003fac:	10000b26 	beq	r2,zero,2003fdc <___vfprintf_internal_r+0xa94>
 2003fb0:	d8812584 	addi	r2,sp,1174
 2003fb4:	48800015 	stw	r2,0(r9)
 2003fb8:	00800044 	movi	r2,1
 2003fbc:	48800115 	stw	r2,4(r9)
 2003fc0:	4091883a 	add	r8,r8,r2
 2003fc4:	1887883a 	add	r3,r3,r2
 2003fc8:	da011d15 	stw	r8,1140(sp)
 2003fcc:	d8c11c15 	stw	r3,1136(sp)
 2003fd0:	008001c4 	movi	r2,7
 2003fd4:	10c18e16 	blt	r2,r3,2004610 <___vfprintf_internal_r+0x10c8>
 2003fd8:	4a400204 	addi	r9,r9,8
 2003fdc:	d9012a17 	ldw	r4,1192(sp)
 2003fe0:	20000b26 	beq	r4,zero,2004010 <___vfprintf_internal_r+0xac8>
 2003fe4:	d8812504 	addi	r2,sp,1172
 2003fe8:	48800015 	stw	r2,0(r9)
 2003fec:	00800084 	movi	r2,2
 2003ff0:	48800115 	stw	r2,4(r9)
 2003ff4:	4091883a 	add	r8,r8,r2
 2003ff8:	18c00044 	addi	r3,r3,1
 2003ffc:	da011d15 	stw	r8,1140(sp)
 2004000:	d8c11c15 	stw	r3,1136(sp)
 2004004:	008001c4 	movi	r2,7
 2004008:	10c17816 	blt	r2,r3,20045ec <___vfprintf_internal_r+0x10a4>
 200400c:	4a400204 	addi	r9,r9,8
 2004010:	d9012f17 	ldw	r4,1212(sp)
 2004014:	00802004 	movi	r2,128
 2004018:	2080fc26 	beq	r4,r2,200440c <___vfprintf_internal_r+0xec4>
 200401c:	d8813117 	ldw	r2,1220(sp)
 2004020:	d9012b17 	ldw	r4,1196(sp)
 2004024:	112fc83a 	sub	r23,r2,r4
 2004028:	05c02a0e 	bge	zero,r23,20040d4 <___vfprintf_internal_r+0xb8c>
 200402c:	07000404 	movi	fp,16
 2004030:	05008234 	movhi	r20,520
 2004034:	a51cc784 	addi	r20,r20,29470
 2004038:	e5c01d0e 	bge	fp,r23,20040b0 <___vfprintf_internal_r+0xb68>
 200403c:	dc812a15 	stw	r18,1192(sp)
 2004040:	058001c4 	movi	r22,7
 2004044:	a025883a 	mov	r18,r20
 2004048:	8029883a 	mov	r20,r16
 200404c:	dc012917 	ldw	r16,1188(sp)
 2004050:	00000306 	br	2004060 <___vfprintf_internal_r+0xb18>
 2004054:	bdfffc04 	addi	r23,r23,-16
 2004058:	4a400204 	addi	r9,r9,8
 200405c:	e5c0110e 	bge	fp,r23,20040a4 <___vfprintf_internal_r+0xb5c>
 2004060:	4c800015 	stw	r18,0(r9)
 2004064:	4f000115 	stw	fp,4(r9)
 2004068:	42000404 	addi	r8,r8,16
 200406c:	18c00044 	addi	r3,r3,1
 2004070:	da011d15 	stw	r8,1140(sp)
 2004074:	d8c11c15 	stw	r3,1136(sp)
 2004078:	b0fff60e 	bge	r22,r3,2004054 <__alt_mem_epcs_flash_controller+0xfdffb054>
 200407c:	8809883a 	mov	r4,r17
 2004080:	800b883a 	mov	r5,r16
 2004084:	d9811b04 	addi	r6,sp,1132
 2004088:	20035140 	call	2003514 <__sprint_r>
 200408c:	103e741e 	bne	r2,zero,2003a60 <__alt_mem_epcs_flash_controller+0xfdffaa60>
 2004090:	bdfffc04 	addi	r23,r23,-16
 2004094:	da011d17 	ldw	r8,1140(sp)
 2004098:	d8c11c17 	ldw	r3,1136(sp)
 200409c:	da400404 	addi	r9,sp,16
 20040a0:	e5ffef16 	blt	fp,r23,2004060 <__alt_mem_epcs_flash_controller+0xfdffb060>
 20040a4:	a021883a 	mov	r16,r20
 20040a8:	9029883a 	mov	r20,r18
 20040ac:	dc812a17 	ldw	r18,1192(sp)
 20040b0:	4d000015 	stw	r20,0(r9)
 20040b4:	4dc00115 	stw	r23,4(r9)
 20040b8:	45d1883a 	add	r8,r8,r23
 20040bc:	18c00044 	addi	r3,r3,1
 20040c0:	da011d15 	stw	r8,1140(sp)
 20040c4:	d8c11c15 	stw	r3,1136(sp)
 20040c8:	008001c4 	movi	r2,7
 20040cc:	10c13e16 	blt	r2,r3,20045c8 <___vfprintf_internal_r+0x1080>
 20040d0:	4a400204 	addi	r9,r9,8
 20040d4:	8080400c 	andi	r2,r16,256
 20040d8:	1000831e 	bne	r2,zero,20042e8 <___vfprintf_internal_r+0xda0>
 20040dc:	d8812b17 	ldw	r2,1196(sp)
 20040e0:	4cc00015 	stw	r19,0(r9)
 20040e4:	48800115 	stw	r2,4(r9)
 20040e8:	4091883a 	add	r8,r8,r2
 20040ec:	18c00044 	addi	r3,r3,1
 20040f0:	da011d15 	stw	r8,1140(sp)
 20040f4:	d8c11c15 	stw	r3,1136(sp)
 20040f8:	008001c4 	movi	r2,7
 20040fc:	10c05316 	blt	r2,r3,200424c <___vfprintf_internal_r+0xd04>
 2004100:	4a400204 	addi	r9,r9,8
 2004104:	8400010c 	andi	r16,r16,4
 2004108:	80002e26 	beq	r16,zero,20041c4 <___vfprintf_internal_r+0xc7c>
 200410c:	d8812e17 	ldw	r2,1208(sp)
 2004110:	d8c12817 	ldw	r3,1184(sp)
 2004114:	10e1c83a 	sub	r16,r2,r3
 2004118:	04002a0e 	bge	zero,r16,20041c4 <___vfprintf_internal_r+0xc7c>
 200411c:	04800404 	movi	r18,16
 2004120:	d8c11c17 	ldw	r3,1136(sp)
 2004124:	05c08234 	movhi	r23,520
 2004128:	bddcc384 	addi	r23,r23,29454
 200412c:	9400170e 	bge	r18,r16,200418c <___vfprintf_internal_r+0xc44>
 2004130:	04c001c4 	movi	r19,7
 2004134:	dd012917 	ldw	r20,1188(sp)
 2004138:	00000306 	br	2004148 <___vfprintf_internal_r+0xc00>
 200413c:	843ffc04 	addi	r16,r16,-16
 2004140:	4a400204 	addi	r9,r9,8
 2004144:	9400110e 	bge	r18,r16,200418c <___vfprintf_internal_r+0xc44>
 2004148:	4dc00015 	stw	r23,0(r9)
 200414c:	4c800115 	stw	r18,4(r9)
 2004150:	42000404 	addi	r8,r8,16
 2004154:	18c00044 	addi	r3,r3,1
 2004158:	da011d15 	stw	r8,1140(sp)
 200415c:	d8c11c15 	stw	r3,1136(sp)
 2004160:	98fff60e 	bge	r19,r3,200413c <__alt_mem_epcs_flash_controller+0xfdffb13c>
 2004164:	8809883a 	mov	r4,r17
 2004168:	a00b883a 	mov	r5,r20
 200416c:	d9811b04 	addi	r6,sp,1132
 2004170:	20035140 	call	2003514 <__sprint_r>
 2004174:	103e3a1e 	bne	r2,zero,2003a60 <__alt_mem_epcs_flash_controller+0xfdffaa60>
 2004178:	843ffc04 	addi	r16,r16,-16
 200417c:	da011d17 	ldw	r8,1140(sp)
 2004180:	d8c11c17 	ldw	r3,1136(sp)
 2004184:	da400404 	addi	r9,sp,16
 2004188:	943fef16 	blt	r18,r16,2004148 <__alt_mem_epcs_flash_controller+0xfdffb148>
 200418c:	4dc00015 	stw	r23,0(r9)
 2004190:	4c000115 	stw	r16,4(r9)
 2004194:	8211883a 	add	r8,r16,r8
 2004198:	18c00044 	addi	r3,r3,1
 200419c:	da011d15 	stw	r8,1140(sp)
 20041a0:	d8c11c15 	stw	r3,1136(sp)
 20041a4:	008001c4 	movi	r2,7
 20041a8:	10c0060e 	bge	r2,r3,20041c4 <___vfprintf_internal_r+0xc7c>
 20041ac:	d9412917 	ldw	r5,1188(sp)
 20041b0:	8809883a 	mov	r4,r17
 20041b4:	d9811b04 	addi	r6,sp,1132
 20041b8:	20035140 	call	2003514 <__sprint_r>
 20041bc:	103e281e 	bne	r2,zero,2003a60 <__alt_mem_epcs_flash_controller+0xfdffaa60>
 20041c0:	da011d17 	ldw	r8,1140(sp)
 20041c4:	dd012817 	ldw	r20,1184(sp)
 20041c8:	d9012e17 	ldw	r4,1208(sp)
 20041cc:	a100010e 	bge	r20,r4,20041d4 <___vfprintf_internal_r+0xc8c>
 20041d0:	2029883a 	mov	r20,r4
 20041d4:	d8812c17 	ldw	r2,1200(sp)
 20041d8:	1505883a 	add	r2,r2,r20
 20041dc:	d8812c15 	stw	r2,1200(sp)
 20041e0:	4000b91e 	bne	r8,zero,20044c8 <___vfprintf_internal_r+0xf80>
 20041e4:	d8011c15 	stw	zero,1136(sp)
 20041e8:	a8800007 	ldb	r2,0(r21)
 20041ec:	da400404 	addi	r9,sp,16
 20041f0:	103d0d1e 	bne	r2,zero,2003628 <__alt_mem_epcs_flash_controller+0xfdffa628>
 20041f4:	a825883a 	mov	r18,r21
 20041f8:	003d2306 	br	2003688 <__alt_mem_epcs_flash_controller+0xfdffa688>
 20041fc:	d9412917 	ldw	r5,1188(sp)
 2004200:	8809883a 	mov	r4,r17
 2004204:	d9811b04 	addi	r6,sp,1132
 2004208:	20035140 	call	2003514 <__sprint_r>
 200420c:	103e141e 	bne	r2,zero,2003a60 <__alt_mem_epcs_flash_controller+0xfdffaa60>
 2004210:	da011d17 	ldw	r8,1140(sp)
 2004214:	da400404 	addi	r9,sp,16
 2004218:	8080004c 	andi	r2,r16,1
 200421c:	103fb926 	beq	r2,zero,2004104 <__alt_mem_epcs_flash_controller+0xfdffb104>
 2004220:	d8c11c17 	ldw	r3,1136(sp)
 2004224:	d9013717 	ldw	r4,1244(sp)
 2004228:	00800044 	movi	r2,1
 200422c:	48800115 	stw	r2,4(r9)
 2004230:	49000015 	stw	r4,0(r9)
 2004234:	4091883a 	add	r8,r8,r2
 2004238:	1887883a 	add	r3,r3,r2
 200423c:	da011d15 	stw	r8,1140(sp)
 2004240:	d8c11c15 	stw	r3,1136(sp)
 2004244:	008001c4 	movi	r2,7
 2004248:	10ffad0e 	bge	r2,r3,2004100 <__alt_mem_epcs_flash_controller+0xfdffb100>
 200424c:	d9412917 	ldw	r5,1188(sp)
 2004250:	8809883a 	mov	r4,r17
 2004254:	d9811b04 	addi	r6,sp,1132
 2004258:	20035140 	call	2003514 <__sprint_r>
 200425c:	103e001e 	bne	r2,zero,2003a60 <__alt_mem_epcs_flash_controller+0xfdffaa60>
 2004260:	da400404 	addi	r9,sp,16
 2004264:	da011d17 	ldw	r8,1140(sp)
 2004268:	003fa606 	br	2004104 <__alt_mem_epcs_flash_controller+0xfdffb104>
 200426c:	18803fcc 	andi	r2,r3,255
 2004270:	00c00044 	movi	r3,1
 2004274:	10c10126 	beq	r2,r3,200467c <___vfprintf_internal_r+0x1134>
 2004278:	00c00084 	movi	r3,2
 200427c:	10c0ed26 	beq	r2,r3,2004634 <___vfprintf_internal_r+0x10ec>
 2004280:	d8c10dc4 	addi	r3,sp,1079
 2004284:	b808d0fa 	srli	r4,r23,3
 2004288:	b00a977a 	slli	r5,r22,29
 200428c:	b02cd0fa 	srli	r22,r22,3
 2004290:	bdc001cc 	andi	r23,r23,7
 2004294:	b8800c04 	addi	r2,r23,48
 2004298:	292eb03a 	or	r23,r5,r4
 200429c:	18800005 	stb	r2,0(r3)
 20042a0:	bd88b03a 	or	r4,r23,r22
 20042a4:	1827883a 	mov	r19,r3
 20042a8:	18ffffc4 	addi	r3,r3,-1
 20042ac:	203ff51e 	bne	r4,zero,2004284 <__alt_mem_epcs_flash_controller+0xfdffb284>
 20042b0:	8100004c 	andi	r4,r16,1
 20042b4:	980b883a 	mov	r5,r19
 20042b8:	20000726 	beq	r4,zero,20042d8 <___vfprintf_internal_r+0xd90>
 20042bc:	10803fcc 	andi	r2,r2,255
 20042c0:	1080201c 	xori	r2,r2,128
 20042c4:	10bfe004 	addi	r2,r2,-128
 20042c8:	01000c04 	movi	r4,48
 20042cc:	11000226 	beq	r2,r4,20042d8 <___vfprintf_internal_r+0xd90>
 20042d0:	1827883a 	mov	r19,r3
 20042d4:	293fffc5 	stb	r4,-1(r5)
 20042d8:	d8812717 	ldw	r2,1180(sp)
 20042dc:	14c5c83a 	sub	r2,r2,r19
 20042e0:	d8812b15 	stw	r2,1196(sp)
 20042e4:	003e1f06 	br	2003b64 <__alt_mem_epcs_flash_controller+0xfdffab64>
 20042e8:	00801944 	movi	r2,101
 20042ec:	14807c0e 	bge	r2,r18,20044e0 <___vfprintf_internal_r+0xf98>
 20042f0:	d9013317 	ldw	r4,1228(sp)
 20042f4:	d9413417 	ldw	r5,1232(sp)
 20042f8:	000d883a 	mov	r6,zero
 20042fc:	000f883a 	mov	r7,zero
 2004300:	d8c13b15 	stw	r3,1260(sp)
 2004304:	da013a15 	stw	r8,1256(sp)
 2004308:	da413c15 	stw	r9,1264(sp)
 200430c:	200fad40 	call	200fad4 <__nedf2>
 2004310:	d8c13b17 	ldw	r3,1260(sp)
 2004314:	da013a17 	ldw	r8,1256(sp)
 2004318:	da413c17 	ldw	r9,1264(sp)
 200431c:	1001001e 	bne	r2,zero,2004720 <___vfprintf_internal_r+0x11d8>
 2004320:	00808234 	movhi	r2,520
 2004324:	109cc304 	addi	r2,r2,29452
 2004328:	48800015 	stw	r2,0(r9)
 200432c:	00800044 	movi	r2,1
 2004330:	48800115 	stw	r2,4(r9)
 2004334:	4091883a 	add	r8,r8,r2
 2004338:	1887883a 	add	r3,r3,r2
 200433c:	da011d15 	stw	r8,1140(sp)
 2004340:	d8c11c15 	stw	r3,1136(sp)
 2004344:	008001c4 	movi	r2,7
 2004348:	10c20316 	blt	r2,r3,2004b58 <___vfprintf_internal_r+0x1610>
 200434c:	4a400204 	addi	r9,r9,8
 2004350:	d8812417 	ldw	r2,1168(sp)
 2004354:	d8c13217 	ldw	r3,1224(sp)
 2004358:	10c00216 	blt	r2,r3,2004364 <___vfprintf_internal_r+0xe1c>
 200435c:	8080004c 	andi	r2,r16,1
 2004360:	103f6826 	beq	r2,zero,2004104 <__alt_mem_epcs_flash_controller+0xfdffb104>
 2004364:	d8c11c17 	ldw	r3,1136(sp)
 2004368:	d9013717 	ldw	r4,1244(sp)
 200436c:	00800044 	movi	r2,1
 2004370:	48800115 	stw	r2,4(r9)
 2004374:	49000015 	stw	r4,0(r9)
 2004378:	4091883a 	add	r8,r8,r2
 200437c:	1887883a 	add	r3,r3,r2
 2004380:	da011d15 	stw	r8,1140(sp)
 2004384:	d8c11c15 	stw	r3,1136(sp)
 2004388:	008001c4 	movi	r2,7
 200438c:	10c2ce16 	blt	r2,r3,2004ec8 <___vfprintf_internal_r+0x1980>
 2004390:	4a400204 	addi	r9,r9,8
 2004394:	d8813217 	ldw	r2,1224(sp)
 2004398:	14bfffc4 	addi	r18,r2,-1
 200439c:	04bf590e 	bge	zero,r18,2004104 <__alt_mem_epcs_flash_controller+0xfdffb104>
 20043a0:	04c00404 	movi	r19,16
 20043a4:	d8c11c17 	ldw	r3,1136(sp)
 20043a8:	05008234 	movhi	r20,520
 20043ac:	a51cc784 	addi	r20,r20,29470
 20043b0:	9c818a0e 	bge	r19,r18,20049dc <___vfprintf_internal_r+0x1494>
 20043b4:	058001c4 	movi	r22,7
 20043b8:	ddc12917 	ldw	r23,1188(sp)
 20043bc:	00000306 	br	20043cc <___vfprintf_internal_r+0xe84>
 20043c0:	4a400204 	addi	r9,r9,8
 20043c4:	94bffc04 	addi	r18,r18,-16
 20043c8:	9c81840e 	bge	r19,r18,20049dc <___vfprintf_internal_r+0x1494>
 20043cc:	4d000015 	stw	r20,0(r9)
 20043d0:	4cc00115 	stw	r19,4(r9)
 20043d4:	42000404 	addi	r8,r8,16
 20043d8:	18c00044 	addi	r3,r3,1
 20043dc:	da011d15 	stw	r8,1140(sp)
 20043e0:	d8c11c15 	stw	r3,1136(sp)
 20043e4:	b0fff60e 	bge	r22,r3,20043c0 <__alt_mem_epcs_flash_controller+0xfdffb3c0>
 20043e8:	8809883a 	mov	r4,r17
 20043ec:	b80b883a 	mov	r5,r23
 20043f0:	d9811b04 	addi	r6,sp,1132
 20043f4:	20035140 	call	2003514 <__sprint_r>
 20043f8:	103d991e 	bne	r2,zero,2003a60 <__alt_mem_epcs_flash_controller+0xfdffaa60>
 20043fc:	da011d17 	ldw	r8,1140(sp)
 2004400:	d8c11c17 	ldw	r3,1136(sp)
 2004404:	da400404 	addi	r9,sp,16
 2004408:	003fee06 	br	20043c4 <__alt_mem_epcs_flash_controller+0xfdffb3c4>
 200440c:	d8812e17 	ldw	r2,1208(sp)
 2004410:	d9012817 	ldw	r4,1184(sp)
 2004414:	112fc83a 	sub	r23,r2,r4
 2004418:	05ff000e 	bge	zero,r23,200401c <__alt_mem_epcs_flash_controller+0xfdffb01c>
 200441c:	07000404 	movi	fp,16
 2004420:	05008234 	movhi	r20,520
 2004424:	a51cc784 	addi	r20,r20,29470
 2004428:	e5c01d0e 	bge	fp,r23,20044a0 <___vfprintf_internal_r+0xf58>
 200442c:	dc812a15 	stw	r18,1192(sp)
 2004430:	058001c4 	movi	r22,7
 2004434:	a025883a 	mov	r18,r20
 2004438:	8029883a 	mov	r20,r16
 200443c:	dc012917 	ldw	r16,1188(sp)
 2004440:	00000306 	br	2004450 <___vfprintf_internal_r+0xf08>
 2004444:	bdfffc04 	addi	r23,r23,-16
 2004448:	4a400204 	addi	r9,r9,8
 200444c:	e5c0110e 	bge	fp,r23,2004494 <___vfprintf_internal_r+0xf4c>
 2004450:	4c800015 	stw	r18,0(r9)
 2004454:	4f000115 	stw	fp,4(r9)
 2004458:	42000404 	addi	r8,r8,16
 200445c:	18c00044 	addi	r3,r3,1
 2004460:	da011d15 	stw	r8,1140(sp)
 2004464:	d8c11c15 	stw	r3,1136(sp)
 2004468:	b0fff60e 	bge	r22,r3,2004444 <__alt_mem_epcs_flash_controller+0xfdffb444>
 200446c:	8809883a 	mov	r4,r17
 2004470:	800b883a 	mov	r5,r16
 2004474:	d9811b04 	addi	r6,sp,1132
 2004478:	20035140 	call	2003514 <__sprint_r>
 200447c:	103d781e 	bne	r2,zero,2003a60 <__alt_mem_epcs_flash_controller+0xfdffaa60>
 2004480:	bdfffc04 	addi	r23,r23,-16
 2004484:	da011d17 	ldw	r8,1140(sp)
 2004488:	d8c11c17 	ldw	r3,1136(sp)
 200448c:	da400404 	addi	r9,sp,16
 2004490:	e5ffef16 	blt	fp,r23,2004450 <__alt_mem_epcs_flash_controller+0xfdffb450>
 2004494:	a021883a 	mov	r16,r20
 2004498:	9029883a 	mov	r20,r18
 200449c:	dc812a17 	ldw	r18,1192(sp)
 20044a0:	4d000015 	stw	r20,0(r9)
 20044a4:	4dc00115 	stw	r23,4(r9)
 20044a8:	45d1883a 	add	r8,r8,r23
 20044ac:	18c00044 	addi	r3,r3,1
 20044b0:	da011d15 	stw	r8,1140(sp)
 20044b4:	d8c11c15 	stw	r3,1136(sp)
 20044b8:	008001c4 	movi	r2,7
 20044bc:	10c13616 	blt	r2,r3,2004998 <___vfprintf_internal_r+0x1450>
 20044c0:	4a400204 	addi	r9,r9,8
 20044c4:	003ed506 	br	200401c <__alt_mem_epcs_flash_controller+0xfdffb01c>
 20044c8:	d9412917 	ldw	r5,1188(sp)
 20044cc:	8809883a 	mov	r4,r17
 20044d0:	d9811b04 	addi	r6,sp,1132
 20044d4:	20035140 	call	2003514 <__sprint_r>
 20044d8:	103f4226 	beq	r2,zero,20041e4 <__alt_mem_epcs_flash_controller+0xfdffb1e4>
 20044dc:	003d6006 	br	2003a60 <__alt_mem_epcs_flash_controller+0xfdffaa60>
 20044e0:	d9013217 	ldw	r4,1224(sp)
 20044e4:	00800044 	movi	r2,1
 20044e8:	4cc00015 	stw	r19,0(r9)
 20044ec:	1101000e 	bge	r2,r4,20048f0 <___vfprintf_internal_r+0x13a8>
 20044f0:	00800044 	movi	r2,1
 20044f4:	48800115 	stw	r2,4(r9)
 20044f8:	4091883a 	add	r8,r8,r2
 20044fc:	1887883a 	add	r3,r3,r2
 2004500:	da011d15 	stw	r8,1140(sp)
 2004504:	d8c11c15 	stw	r3,1136(sp)
 2004508:	008001c4 	movi	r2,7
 200450c:	10c10c16 	blt	r2,r3,2004940 <___vfprintf_internal_r+0x13f8>
 2004510:	4a400204 	addi	r9,r9,8
 2004514:	d8813717 	ldw	r2,1244(sp)
 2004518:	48800015 	stw	r2,0(r9)
 200451c:	00800044 	movi	r2,1
 2004520:	48800115 	stw	r2,4(r9)
 2004524:	4091883a 	add	r8,r8,r2
 2004528:	1887883a 	add	r3,r3,r2
 200452c:	da011d15 	stw	r8,1140(sp)
 2004530:	d8c11c15 	stw	r3,1136(sp)
 2004534:	008001c4 	movi	r2,7
 2004538:	10c10a16 	blt	r2,r3,2004964 <___vfprintf_internal_r+0x141c>
 200453c:	4c800204 	addi	r18,r9,8
 2004540:	d9013317 	ldw	r4,1228(sp)
 2004544:	d9413417 	ldw	r5,1232(sp)
 2004548:	000d883a 	mov	r6,zero
 200454c:	000f883a 	mov	r7,zero
 2004550:	d8c13b15 	stw	r3,1260(sp)
 2004554:	da013a15 	stw	r8,1256(sp)
 2004558:	200fa780 	call	200fa78 <__eqdf2>
 200455c:	d8c13b17 	ldw	r3,1260(sp)
 2004560:	da013a17 	ldw	r8,1256(sp)
 2004564:	1000ba26 	beq	r2,zero,2004850 <___vfprintf_internal_r+0x1308>
 2004568:	d9013217 	ldw	r4,1224(sp)
 200456c:	9cc00044 	addi	r19,r19,1
 2004570:	94c00015 	stw	r19,0(r18)
 2004574:	20bfffc4 	addi	r2,r4,-1
 2004578:	90800115 	stw	r2,4(r18)
 200457c:	4091883a 	add	r8,r8,r2
 2004580:	18c00044 	addi	r3,r3,1
 2004584:	da011d15 	stw	r8,1140(sp)
 2004588:	d8c11c15 	stw	r3,1136(sp)
 200458c:	008001c4 	movi	r2,7
 2004590:	10c0e216 	blt	r2,r3,200491c <___vfprintf_internal_r+0x13d4>
 2004594:	94800204 	addi	r18,r18,8
 2004598:	d9013517 	ldw	r4,1236(sp)
 200459c:	d8811fc4 	addi	r2,sp,1151
 20045a0:	90800015 	stw	r2,0(r18)
 20045a4:	91000115 	stw	r4,4(r18)
 20045a8:	4111883a 	add	r8,r8,r4
 20045ac:	18c00044 	addi	r3,r3,1
 20045b0:	da011d15 	stw	r8,1140(sp)
 20045b4:	d8c11c15 	stw	r3,1136(sp)
 20045b8:	008001c4 	movi	r2,7
 20045bc:	10ff2316 	blt	r2,r3,200424c <__alt_mem_epcs_flash_controller+0xfdffb24c>
 20045c0:	92400204 	addi	r9,r18,8
 20045c4:	003ecf06 	br	2004104 <__alt_mem_epcs_flash_controller+0xfdffb104>
 20045c8:	d9412917 	ldw	r5,1188(sp)
 20045cc:	8809883a 	mov	r4,r17
 20045d0:	d9811b04 	addi	r6,sp,1132
 20045d4:	20035140 	call	2003514 <__sprint_r>
 20045d8:	103d211e 	bne	r2,zero,2003a60 <__alt_mem_epcs_flash_controller+0xfdffaa60>
 20045dc:	da011d17 	ldw	r8,1140(sp)
 20045e0:	d8c11c17 	ldw	r3,1136(sp)
 20045e4:	da400404 	addi	r9,sp,16
 20045e8:	003eba06 	br	20040d4 <__alt_mem_epcs_flash_controller+0xfdffb0d4>
 20045ec:	d9412917 	ldw	r5,1188(sp)
 20045f0:	8809883a 	mov	r4,r17
 20045f4:	d9811b04 	addi	r6,sp,1132
 20045f8:	20035140 	call	2003514 <__sprint_r>
 20045fc:	103d181e 	bne	r2,zero,2003a60 <__alt_mem_epcs_flash_controller+0xfdffaa60>
 2004600:	da011d17 	ldw	r8,1140(sp)
 2004604:	d8c11c17 	ldw	r3,1136(sp)
 2004608:	da400404 	addi	r9,sp,16
 200460c:	003e8006 	br	2004010 <__alt_mem_epcs_flash_controller+0xfdffb010>
 2004610:	d9412917 	ldw	r5,1188(sp)
 2004614:	8809883a 	mov	r4,r17
 2004618:	d9811b04 	addi	r6,sp,1132
 200461c:	20035140 	call	2003514 <__sprint_r>
 2004620:	103d0f1e 	bne	r2,zero,2003a60 <__alt_mem_epcs_flash_controller+0xfdffaa60>
 2004624:	da011d17 	ldw	r8,1140(sp)
 2004628:	d8c11c17 	ldw	r3,1136(sp)
 200462c:	da400404 	addi	r9,sp,16
 2004630:	003e6a06 	br	2003fdc <__alt_mem_epcs_flash_controller+0xfdffafdc>
 2004634:	d9413617 	ldw	r5,1240(sp)
 2004638:	d8810dc4 	addi	r2,sp,1079
 200463c:	b8c003cc 	andi	r3,r23,15
 2004640:	b008973a 	slli	r4,r22,28
 2004644:	28c7883a 	add	r3,r5,r3
 2004648:	b82ed13a 	srli	r23,r23,4
 200464c:	18c00003 	ldbu	r3,0(r3)
 2004650:	b02cd13a 	srli	r22,r22,4
 2004654:	25eeb03a 	or	r23,r4,r23
 2004658:	10c00005 	stb	r3,0(r2)
 200465c:	bd86b03a 	or	r3,r23,r22
 2004660:	1027883a 	mov	r19,r2
 2004664:	10bfffc4 	addi	r2,r2,-1
 2004668:	183ff41e 	bne	r3,zero,200463c <__alt_mem_epcs_flash_controller+0xfdffb63c>
 200466c:	003f1a06 	br	20042d8 <__alt_mem_epcs_flash_controller+0xfdffb2d8>
 2004670:	d8012b15 	stw	zero,1196(sp)
 2004674:	dcc10e04 	addi	r19,sp,1080
 2004678:	003d3a06 	br	2003b64 <__alt_mem_epcs_flash_controller+0xfdffab64>
 200467c:	b0025426 	beq	r22,zero,2004fd0 <___vfprintf_internal_r+0x1a88>
 2004680:	b807883a 	mov	r3,r23
 2004684:	d8810dc4 	addi	r2,sp,1079
 2004688:	882f883a 	mov	r23,r17
 200468c:	04c00244 	movi	r19,9
 2004690:	8023883a 	mov	r17,r16
 2004694:	da412815 	stw	r9,1184(sp)
 2004698:	1821883a 	mov	r16,r3
 200469c:	8009883a 	mov	r4,r16
 20046a0:	b00b883a 	mov	r5,r22
 20046a4:	01800284 	movi	r6,10
 20046a8:	000f883a 	mov	r7,zero
 20046ac:	1029883a 	mov	r20,r2
 20046b0:	200ef440 	call	200ef44 <__umoddi3>
 20046b4:	10800c04 	addi	r2,r2,48
 20046b8:	8009883a 	mov	r4,r16
 20046bc:	b00b883a 	mov	r5,r22
 20046c0:	a0800005 	stb	r2,0(r20)
 20046c4:	01800284 	movi	r6,10
 20046c8:	000f883a 	mov	r7,zero
 20046cc:	200e8f40 	call	200e8f4 <__udivdi3>
 20046d0:	1021883a 	mov	r16,r2
 20046d4:	182d883a 	mov	r22,r3
 20046d8:	a0bfffc4 	addi	r2,r20,-1
 20046dc:	183fef1e 	bne	r3,zero,200469c <__alt_mem_epcs_flash_controller+0xfdffb69c>
 20046e0:	9c3fee36 	bltu	r19,r16,200469c <__alt_mem_epcs_flash_controller+0xfdffb69c>
 20046e4:	da412817 	ldw	r9,1184(sp)
 20046e8:	8005883a 	mov	r2,r16
 20046ec:	8821883a 	mov	r16,r17
 20046f0:	b823883a 	mov	r17,r23
 20046f4:	102f883a 	mov	r23,r2
 20046f8:	d8812717 	ldw	r2,1180(sp)
 20046fc:	a4ffffc4 	addi	r19,r20,-1
 2004700:	bdc00c04 	addi	r23,r23,48
 2004704:	14c5c83a 	sub	r2,r2,r19
 2004708:	a5ffffc5 	stb	r23,-1(r20)
 200470c:	d8812b15 	stw	r2,1196(sp)
 2004710:	003d1406 	br	2003b64 <__alt_mem_epcs_flash_controller+0xfdffab64>
 2004714:	00c00044 	movi	r3,1
 2004718:	bd84b03a 	or	r2,r23,r22
 200471c:	003d0306 	br	2003b2c <__alt_mem_epcs_flash_controller+0xfdffab2c>
 2004720:	dc812417 	ldw	r18,1168(sp)
 2004724:	0481140e 	bge	zero,r18,2004b78 <___vfprintf_internal_r+0x1630>
 2004728:	d9013217 	ldw	r4,1224(sp)
 200472c:	4cc00015 	stw	r19,0(r9)
 2004730:	9100ec16 	blt	r18,r4,2004ae4 <___vfprintf_internal_r+0x159c>
 2004734:	49000115 	stw	r4,4(r9)
 2004738:	4111883a 	add	r8,r8,r4
 200473c:	18c00044 	addi	r3,r3,1
 2004740:	da011d15 	stw	r8,1140(sp)
 2004744:	d8c11c15 	stw	r3,1136(sp)
 2004748:	008001c4 	movi	r2,7
 200474c:	10c23616 	blt	r2,r3,2005028 <___vfprintf_internal_r+0x1ae0>
 2004750:	4a400204 	addi	r9,r9,8
 2004754:	d8813217 	ldw	r2,1224(sp)
 2004758:	90a5c83a 	sub	r18,r18,r2
 200475c:	04beae0e 	bge	zero,r18,2004218 <__alt_mem_epcs_flash_controller+0xfdffb218>
 2004760:	04c00404 	movi	r19,16
 2004764:	d8c11c17 	ldw	r3,1136(sp)
 2004768:	05008234 	movhi	r20,520
 200476c:	a51cc784 	addi	r20,r20,29470
 2004770:	9c81dd0e 	bge	r19,r18,2004ee8 <___vfprintf_internal_r+0x19a0>
 2004774:	058001c4 	movi	r22,7
 2004778:	ddc12917 	ldw	r23,1188(sp)
 200477c:	00000306 	br	200478c <___vfprintf_internal_r+0x1244>
 2004780:	4a400204 	addi	r9,r9,8
 2004784:	94bffc04 	addi	r18,r18,-16
 2004788:	9c81d70e 	bge	r19,r18,2004ee8 <___vfprintf_internal_r+0x19a0>
 200478c:	4d000015 	stw	r20,0(r9)
 2004790:	4cc00115 	stw	r19,4(r9)
 2004794:	42000404 	addi	r8,r8,16
 2004798:	18c00044 	addi	r3,r3,1
 200479c:	da011d15 	stw	r8,1140(sp)
 20047a0:	d8c11c15 	stw	r3,1136(sp)
 20047a4:	b0fff60e 	bge	r22,r3,2004780 <__alt_mem_epcs_flash_controller+0xfdffb780>
 20047a8:	8809883a 	mov	r4,r17
 20047ac:	b80b883a 	mov	r5,r23
 20047b0:	d9811b04 	addi	r6,sp,1132
 20047b4:	20035140 	call	2003514 <__sprint_r>
 20047b8:	103ca91e 	bne	r2,zero,2003a60 <__alt_mem_epcs_flash_controller+0xfdffaa60>
 20047bc:	da011d17 	ldw	r8,1140(sp)
 20047c0:	d8c11c17 	ldw	r3,1136(sp)
 20047c4:	da400404 	addi	r9,sp,16
 20047c8:	003fee06 	br	2004784 <__alt_mem_epcs_flash_controller+0xfdffb784>
 20047cc:	d9412917 	ldw	r5,1188(sp)
 20047d0:	8809883a 	mov	r4,r17
 20047d4:	d9811b04 	addi	r6,sp,1132
 20047d8:	20035140 	call	2003514 <__sprint_r>
 20047dc:	103ca01e 	bne	r2,zero,2003a60 <__alt_mem_epcs_flash_controller+0xfdffaa60>
 20047e0:	da011d17 	ldw	r8,1140(sp)
 20047e4:	d8c11c17 	ldw	r3,1136(sp)
 20047e8:	da400404 	addi	r9,sp,16
 20047ec:	003dee06 	br	2003fa8 <__alt_mem_epcs_flash_controller+0xfdffafa8>
 20047f0:	00c00084 	movi	r3,2
 20047f4:	bd84b03a 	or	r2,r23,r22
 20047f8:	d8012585 	stb	zero,1174(sp)
 20047fc:	003ccb06 	br	2003b2c <__alt_mem_epcs_flash_controller+0xfdffab2c>
 2004800:	8080040c 	andi	r2,r16,16
 2004804:	1000ae26 	beq	r2,zero,2004ac0 <___vfprintf_internal_r+0x1578>
 2004808:	d9012d17 	ldw	r4,1204(sp)
 200480c:	25c00017 	ldw	r23,0(r4)
 2004810:	21000104 	addi	r4,r4,4
 2004814:	d9012d15 	stw	r4,1204(sp)
 2004818:	b82dd7fa 	srai	r22,r23,31
 200481c:	b005883a 	mov	r2,r22
 2004820:	003cb906 	br	2003b08 <__alt_mem_epcs_flash_controller+0xfdffab08>
 2004824:	8080040c 	andi	r2,r16,16
 2004828:	10007026 	beq	r2,zero,20049ec <___vfprintf_internal_r+0x14a4>
 200482c:	d8812d17 	ldw	r2,1204(sp)
 2004830:	002d883a 	mov	r22,zero
 2004834:	00c00044 	movi	r3,1
 2004838:	15c00017 	ldw	r23,0(r2)
 200483c:	10800104 	addi	r2,r2,4
 2004840:	d8812d15 	stw	r2,1204(sp)
 2004844:	d8012585 	stb	zero,1174(sp)
 2004848:	b805883a 	mov	r2,r23
 200484c:	003cb706 	br	2003b2c <__alt_mem_epcs_flash_controller+0xfdffab2c>
 2004850:	d8813217 	ldw	r2,1224(sp)
 2004854:	14ffffc4 	addi	r19,r2,-1
 2004858:	04ff4f0e 	bge	zero,r19,2004598 <__alt_mem_epcs_flash_controller+0xfdffb598>
 200485c:	05800404 	movi	r22,16
 2004860:	05008234 	movhi	r20,520
 2004864:	a51cc784 	addi	r20,r20,29470
 2004868:	b4c0470e 	bge	r22,r19,2004988 <___vfprintf_internal_r+0x1440>
 200486c:	05c001c4 	movi	r23,7
 2004870:	df012917 	ldw	fp,1188(sp)
 2004874:	00000306 	br	2004884 <___vfprintf_internal_r+0x133c>
 2004878:	94800204 	addi	r18,r18,8
 200487c:	9cfffc04 	addi	r19,r19,-16
 2004880:	b4c0410e 	bge	r22,r19,2004988 <___vfprintf_internal_r+0x1440>
 2004884:	95000015 	stw	r20,0(r18)
 2004888:	95800115 	stw	r22,4(r18)
 200488c:	42000404 	addi	r8,r8,16
 2004890:	18c00044 	addi	r3,r3,1
 2004894:	da011d15 	stw	r8,1140(sp)
 2004898:	d8c11c15 	stw	r3,1136(sp)
 200489c:	b8fff60e 	bge	r23,r3,2004878 <__alt_mem_epcs_flash_controller+0xfdffb878>
 20048a0:	8809883a 	mov	r4,r17
 20048a4:	e00b883a 	mov	r5,fp
 20048a8:	d9811b04 	addi	r6,sp,1132
 20048ac:	20035140 	call	2003514 <__sprint_r>
 20048b0:	103c6b1e 	bne	r2,zero,2003a60 <__alt_mem_epcs_flash_controller+0xfdffaa60>
 20048b4:	da011d17 	ldw	r8,1140(sp)
 20048b8:	d8c11c17 	ldw	r3,1136(sp)
 20048bc:	dc800404 	addi	r18,sp,16
 20048c0:	003fee06 	br	200487c <__alt_mem_epcs_flash_controller+0xfdffb87c>
 20048c4:	8080040c 	andi	r2,r16,16
 20048c8:	10005326 	beq	r2,zero,2004a18 <___vfprintf_internal_r+0x14d0>
 20048cc:	d8c12d17 	ldw	r3,1204(sp)
 20048d0:	002d883a 	mov	r22,zero
 20048d4:	1dc00017 	ldw	r23,0(r3)
 20048d8:	18c00104 	addi	r3,r3,4
 20048dc:	d8c12d15 	stw	r3,1204(sp)
 20048e0:	b805883a 	mov	r2,r23
 20048e4:	0007883a 	mov	r3,zero
 20048e8:	d8012585 	stb	zero,1174(sp)
 20048ec:	003c8f06 	br	2003b2c <__alt_mem_epcs_flash_controller+0xfdffab2c>
 20048f0:	8088703a 	and	r4,r16,r2
 20048f4:	203efe1e 	bne	r4,zero,20044f0 <__alt_mem_epcs_flash_controller+0xfdffb4f0>
 20048f8:	48800115 	stw	r2,4(r9)
 20048fc:	42000044 	addi	r8,r8,1
 2004900:	18c00044 	addi	r3,r3,1
 2004904:	da011d15 	stw	r8,1140(sp)
 2004908:	d8c11c15 	stw	r3,1136(sp)
 200490c:	008001c4 	movi	r2,7
 2004910:	10c00216 	blt	r2,r3,200491c <___vfprintf_internal_r+0x13d4>
 2004914:	4c800204 	addi	r18,r9,8
 2004918:	003f1f06 	br	2004598 <__alt_mem_epcs_flash_controller+0xfdffb598>
 200491c:	d9412917 	ldw	r5,1188(sp)
 2004920:	8809883a 	mov	r4,r17
 2004924:	d9811b04 	addi	r6,sp,1132
 2004928:	20035140 	call	2003514 <__sprint_r>
 200492c:	103c4c1e 	bne	r2,zero,2003a60 <__alt_mem_epcs_flash_controller+0xfdffaa60>
 2004930:	dc800404 	addi	r18,sp,16
 2004934:	da011d17 	ldw	r8,1140(sp)
 2004938:	d8c11c17 	ldw	r3,1136(sp)
 200493c:	003f1606 	br	2004598 <__alt_mem_epcs_flash_controller+0xfdffb598>
 2004940:	d9412917 	ldw	r5,1188(sp)
 2004944:	8809883a 	mov	r4,r17
 2004948:	d9811b04 	addi	r6,sp,1132
 200494c:	20035140 	call	2003514 <__sprint_r>
 2004950:	103c431e 	bne	r2,zero,2003a60 <__alt_mem_epcs_flash_controller+0xfdffaa60>
 2004954:	da011d17 	ldw	r8,1140(sp)
 2004958:	d8c11c17 	ldw	r3,1136(sp)
 200495c:	da400404 	addi	r9,sp,16
 2004960:	003eec06 	br	2004514 <__alt_mem_epcs_flash_controller+0xfdffb514>
 2004964:	d9412917 	ldw	r5,1188(sp)
 2004968:	8809883a 	mov	r4,r17
 200496c:	d9811b04 	addi	r6,sp,1132
 2004970:	20035140 	call	2003514 <__sprint_r>
 2004974:	103c3a1e 	bne	r2,zero,2003a60 <__alt_mem_epcs_flash_controller+0xfdffaa60>
 2004978:	da011d17 	ldw	r8,1140(sp)
 200497c:	d8c11c17 	ldw	r3,1136(sp)
 2004980:	dc800404 	addi	r18,sp,16
 2004984:	003eee06 	br	2004540 <__alt_mem_epcs_flash_controller+0xfdffb540>
 2004988:	95000015 	stw	r20,0(r18)
 200498c:	94c00115 	stw	r19,4(r18)
 2004990:	44d1883a 	add	r8,r8,r19
 2004994:	003efa06 	br	2004580 <__alt_mem_epcs_flash_controller+0xfdffb580>
 2004998:	d9412917 	ldw	r5,1188(sp)
 200499c:	8809883a 	mov	r4,r17
 20049a0:	d9811b04 	addi	r6,sp,1132
 20049a4:	20035140 	call	2003514 <__sprint_r>
 20049a8:	103c2d1e 	bne	r2,zero,2003a60 <__alt_mem_epcs_flash_controller+0xfdffaa60>
 20049ac:	da011d17 	ldw	r8,1140(sp)
 20049b0:	d8c11c17 	ldw	r3,1136(sp)
 20049b4:	da400404 	addi	r9,sp,16
 20049b8:	003d9806 	br	200401c <__alt_mem_epcs_flash_controller+0xfdffb01c>
 20049bc:	8080100c 	andi	r2,r16,64
 20049c0:	10011626 	beq	r2,zero,2004e1c <___vfprintf_internal_r+0x18d4>
 20049c4:	d8c12d17 	ldw	r3,1204(sp)
 20049c8:	002d883a 	mov	r22,zero
 20049cc:	1dc0000b 	ldhu	r23,0(r3)
 20049d0:	18c00104 	addi	r3,r3,4
 20049d4:	d8c12d15 	stw	r3,1204(sp)
 20049d8:	003cc106 	br	2003ce0 <__alt_mem_epcs_flash_controller+0xfdfface0>
 20049dc:	4d000015 	stw	r20,0(r9)
 20049e0:	4c800115 	stw	r18,4(r9)
 20049e4:	4491883a 	add	r8,r8,r18
 20049e8:	003dc006 	br	20040ec <__alt_mem_epcs_flash_controller+0xfdffb0ec>
 20049ec:	8080100c 	andi	r2,r16,64
 20049f0:	10010126 	beq	r2,zero,2004df8 <___vfprintf_internal_r+0x18b0>
 20049f4:	d8c12d17 	ldw	r3,1204(sp)
 20049f8:	002d883a 	mov	r22,zero
 20049fc:	1dc0000b 	ldhu	r23,0(r3)
 2004a00:	18c00104 	addi	r3,r3,4
 2004a04:	d8c12d15 	stw	r3,1204(sp)
 2004a08:	b805883a 	mov	r2,r23
 2004a0c:	00c00044 	movi	r3,1
 2004a10:	d8012585 	stb	zero,1174(sp)
 2004a14:	003c4506 	br	2003b2c <__alt_mem_epcs_flash_controller+0xfdffab2c>
 2004a18:	8080100c 	andi	r2,r16,64
 2004a1c:	10010526 	beq	r2,zero,2004e34 <___vfprintf_internal_r+0x18ec>
 2004a20:	d9012d17 	ldw	r4,1204(sp)
 2004a24:	002d883a 	mov	r22,zero
 2004a28:	0007883a 	mov	r3,zero
 2004a2c:	25c0000b 	ldhu	r23,0(r4)
 2004a30:	21000104 	addi	r4,r4,4
 2004a34:	d9012d15 	stw	r4,1204(sp)
 2004a38:	b805883a 	mov	r2,r23
 2004a3c:	d8012585 	stb	zero,1174(sp)
 2004a40:	003c3a06 	br	2003b2c <__alt_mem_epcs_flash_controller+0xfdffab2c>
 2004a44:	d8812d17 	ldw	r2,1204(sp)
 2004a48:	15800017 	ldw	r22,0(r2)
 2004a4c:	15000117 	ldw	r20,4(r2)
 2004a50:	10800204 	addi	r2,r2,8
 2004a54:	d8812d15 	stw	r2,1204(sp)
 2004a58:	dd813315 	stw	r22,1228(sp)
 2004a5c:	dd013415 	stw	r20,1232(sp)
 2004a60:	003c5906 	br	2003bc8 <__alt_mem_epcs_flash_controller+0xfdffabc8>
 2004a64:	00c00084 	movi	r3,2
 2004a68:	d8012585 	stb	zero,1174(sp)
 2004a6c:	003c2f06 	br	2003b2c <__alt_mem_epcs_flash_controller+0xfdffab2c>
 2004a70:	ac800007 	ldb	r18,0(r21)
 2004a74:	003b1006 	br	20036b8 <__alt_mem_epcs_flash_controller+0xfdffa6b8>
 2004a78:	8080040c 	andi	r2,r16,16
 2004a7c:	1000091e 	bne	r2,zero,2004aa4 <___vfprintf_internal_r+0x155c>
 2004a80:	8400100c 	andi	r16,r16,64
 2004a84:	80000726 	beq	r16,zero,2004aa4 <___vfprintf_internal_r+0x155c>
 2004a88:	d8c12d17 	ldw	r3,1204(sp)
 2004a8c:	d9012c17 	ldw	r4,1200(sp)
 2004a90:	18800017 	ldw	r2,0(r3)
 2004a94:	18c00104 	addi	r3,r3,4
 2004a98:	d8c12d15 	stw	r3,1204(sp)
 2004a9c:	1100000d 	sth	r4,0(r2)
 2004aa0:	003adf06 	br	2003620 <__alt_mem_epcs_flash_controller+0xfdffa620>
 2004aa4:	d8c12d17 	ldw	r3,1204(sp)
 2004aa8:	d9012c17 	ldw	r4,1200(sp)
 2004aac:	18800017 	ldw	r2,0(r3)
 2004ab0:	18c00104 	addi	r3,r3,4
 2004ab4:	d8c12d15 	stw	r3,1204(sp)
 2004ab8:	11000015 	stw	r4,0(r2)
 2004abc:	003ad806 	br	2003620 <__alt_mem_epcs_flash_controller+0xfdffa620>
 2004ac0:	8080100c 	andi	r2,r16,64
 2004ac4:	1000c526 	beq	r2,zero,2004ddc <___vfprintf_internal_r+0x1894>
 2004ac8:	d8812d17 	ldw	r2,1204(sp)
 2004acc:	15c0000f 	ldh	r23,0(r2)
 2004ad0:	10800104 	addi	r2,r2,4
 2004ad4:	d8812d15 	stw	r2,1204(sp)
 2004ad8:	b82dd7fa 	srai	r22,r23,31
 2004adc:	b005883a 	mov	r2,r22
 2004ae0:	003c0906 	br	2003b08 <__alt_mem_epcs_flash_controller+0xfdffab08>
 2004ae4:	4c800115 	stw	r18,4(r9)
 2004ae8:	9211883a 	add	r8,r18,r8
 2004aec:	18c00044 	addi	r3,r3,1
 2004af0:	da011d15 	stw	r8,1140(sp)
 2004af4:	d8c11c15 	stw	r3,1136(sp)
 2004af8:	008001c4 	movi	r2,7
 2004afc:	10c14016 	blt	r2,r3,2005000 <___vfprintf_internal_r+0x1ab8>
 2004b00:	4a400204 	addi	r9,r9,8
 2004b04:	d8813717 	ldw	r2,1244(sp)
 2004b08:	9ca7883a 	add	r19,r19,r18
 2004b0c:	48800015 	stw	r2,0(r9)
 2004b10:	00800044 	movi	r2,1
 2004b14:	48800115 	stw	r2,4(r9)
 2004b18:	4091883a 	add	r8,r8,r2
 2004b1c:	1887883a 	add	r3,r3,r2
 2004b20:	da011d15 	stw	r8,1140(sp)
 2004b24:	d8c11c15 	stw	r3,1136(sp)
 2004b28:	008001c4 	movi	r2,7
 2004b2c:	10c12c16 	blt	r2,r3,2004fe0 <___vfprintf_internal_r+0x1a98>
 2004b30:	4a400204 	addi	r9,r9,8
 2004b34:	d9013217 	ldw	r4,1224(sp)
 2004b38:	da011d17 	ldw	r8,1140(sp)
 2004b3c:	d8c11c17 	ldw	r3,1136(sp)
 2004b40:	24a5c83a 	sub	r18,r4,r18
 2004b44:	4cc00015 	stw	r19,0(r9)
 2004b48:	003fa506 	br	20049e0 <__alt_mem_epcs_flash_controller+0xfdffb9e0>
 2004b4c:	04c08234 	movhi	r19,520
 2004b50:	9cdcb404 	addi	r19,r19,29392
 2004b54:	003c2e06 	br	2003c10 <__alt_mem_epcs_flash_controller+0xfdffac10>
 2004b58:	d9412917 	ldw	r5,1188(sp)
 2004b5c:	8809883a 	mov	r4,r17
 2004b60:	d9811b04 	addi	r6,sp,1132
 2004b64:	20035140 	call	2003514 <__sprint_r>
 2004b68:	103bbd1e 	bne	r2,zero,2003a60 <__alt_mem_epcs_flash_controller+0xfdffaa60>
 2004b6c:	da011d17 	ldw	r8,1140(sp)
 2004b70:	da400404 	addi	r9,sp,16
 2004b74:	003df606 	br	2004350 <__alt_mem_epcs_flash_controller+0xfdffb350>
 2004b78:	00808234 	movhi	r2,520
 2004b7c:	109cc304 	addi	r2,r2,29452
 2004b80:	48800015 	stw	r2,0(r9)
 2004b84:	00800044 	movi	r2,1
 2004b88:	48800115 	stw	r2,4(r9)
 2004b8c:	4091883a 	add	r8,r8,r2
 2004b90:	1887883a 	add	r3,r3,r2
 2004b94:	da011d15 	stw	r8,1140(sp)
 2004b98:	d8c11c15 	stw	r3,1136(sp)
 2004b9c:	008001c4 	movi	r2,7
 2004ba0:	10c0bc16 	blt	r2,r3,2004e94 <___vfprintf_internal_r+0x194c>
 2004ba4:	4a400204 	addi	r9,r9,8
 2004ba8:	9000041e 	bne	r18,zero,2004bbc <___vfprintf_internal_r+0x1674>
 2004bac:	d8c13217 	ldw	r3,1224(sp)
 2004bb0:	1800021e 	bne	r3,zero,2004bbc <___vfprintf_internal_r+0x1674>
 2004bb4:	8080004c 	andi	r2,r16,1
 2004bb8:	103d5226 	beq	r2,zero,2004104 <__alt_mem_epcs_flash_controller+0xfdffb104>
 2004bbc:	d8c11c17 	ldw	r3,1136(sp)
 2004bc0:	d9013717 	ldw	r4,1244(sp)
 2004bc4:	00800044 	movi	r2,1
 2004bc8:	48800115 	stw	r2,4(r9)
 2004bcc:	49000015 	stw	r4,0(r9)
 2004bd0:	4091883a 	add	r8,r8,r2
 2004bd4:	1887883a 	add	r3,r3,r2
 2004bd8:	da011d15 	stw	r8,1140(sp)
 2004bdc:	d8c11c15 	stw	r3,1136(sp)
 2004be0:	008001c4 	movi	r2,7
 2004be4:	10c14516 	blt	r2,r3,20050fc <___vfprintf_internal_r+0x1bb4>
 2004be8:	4a400204 	addi	r9,r9,8
 2004bec:	04a5c83a 	sub	r18,zero,r18
 2004bf0:	0480d70e 	bge	zero,r18,2004f50 <___vfprintf_internal_r+0x1a08>
 2004bf4:	05800404 	movi	r22,16
 2004bf8:	05008234 	movhi	r20,520
 2004bfc:	a51cc784 	addi	r20,r20,29470
 2004c00:	b480db0e 	bge	r22,r18,2004f70 <___vfprintf_internal_r+0x1a28>
 2004c04:	05c001c4 	movi	r23,7
 2004c08:	df012917 	ldw	fp,1188(sp)
 2004c0c:	00000306 	br	2004c1c <___vfprintf_internal_r+0x16d4>
 2004c10:	4a400204 	addi	r9,r9,8
 2004c14:	94bffc04 	addi	r18,r18,-16
 2004c18:	b480d50e 	bge	r22,r18,2004f70 <___vfprintf_internal_r+0x1a28>
 2004c1c:	4d000015 	stw	r20,0(r9)
 2004c20:	4d800115 	stw	r22,4(r9)
 2004c24:	42000404 	addi	r8,r8,16
 2004c28:	18c00044 	addi	r3,r3,1
 2004c2c:	da011d15 	stw	r8,1140(sp)
 2004c30:	d8c11c15 	stw	r3,1136(sp)
 2004c34:	b8fff60e 	bge	r23,r3,2004c10 <__alt_mem_epcs_flash_controller+0xfdffbc10>
 2004c38:	8809883a 	mov	r4,r17
 2004c3c:	e00b883a 	mov	r5,fp
 2004c40:	d9811b04 	addi	r6,sp,1132
 2004c44:	20035140 	call	2003514 <__sprint_r>
 2004c48:	103b851e 	bne	r2,zero,2003a60 <__alt_mem_epcs_flash_controller+0xfdffaa60>
 2004c4c:	da011d17 	ldw	r8,1140(sp)
 2004c50:	d8c11c17 	ldw	r3,1136(sp)
 2004c54:	da400404 	addi	r9,sp,16
 2004c58:	003fee06 	br	2004c14 <__alt_mem_epcs_flash_controller+0xfdffbc14>
 2004c5c:	da413c15 	stw	r9,1264(sp)
 2004c60:	200b3940 	call	200b394 <__isnand>
 2004c64:	da413c17 	ldw	r9,1264(sp)
 2004c68:	10007e1e 	bne	r2,zero,2004e64 <___vfprintf_internal_r+0x191c>
 2004c6c:	00bfffc4 	movi	r2,-1
 2004c70:	e0816a26 	beq	fp,r2,200521c <___vfprintf_internal_r+0x1cd4>
 2004c74:	008019c4 	movi	r2,103
 2004c78:	90816526 	beq	r18,r2,2005210 <___vfprintf_internal_r+0x1cc8>
 2004c7c:	008011c4 	movi	r2,71
 2004c80:	90816326 	beq	r18,r2,2005210 <___vfprintf_internal_r+0x1cc8>
 2004c84:	80c04014 	ori	r3,r16,256
 2004c88:	d8c12a15 	stw	r3,1192(sp)
 2004c8c:	a0016516 	blt	r20,zero,2005224 <___vfprintf_internal_r+0x1cdc>
 2004c90:	d8012f05 	stb	zero,1212(sp)
 2004c94:	00801984 	movi	r2,102
 2004c98:	9080f226 	beq	r18,r2,2005064 <___vfprintf_internal_r+0x1b1c>
 2004c9c:	00801184 	movi	r2,70
 2004ca0:	9080f026 	beq	r18,r2,2005064 <___vfprintf_internal_r+0x1b1c>
 2004ca4:	00801944 	movi	r2,101
 2004ca8:	90818d26 	beq	r18,r2,20052e0 <___vfprintf_internal_r+0x1d98>
 2004cac:	00801144 	movi	r2,69
 2004cb0:	90818b26 	beq	r18,r2,20052e0 <___vfprintf_internal_r+0x1d98>
 2004cb4:	e02f883a 	mov	r23,fp
 2004cb8:	d8812404 	addi	r2,sp,1168
 2004cbc:	d8800115 	stw	r2,4(sp)
 2004cc0:	d8812304 	addi	r2,sp,1164
 2004cc4:	d8800215 	stw	r2,8(sp)
 2004cc8:	d8812204 	addi	r2,sp,1160
 2004ccc:	ddc00015 	stw	r23,0(sp)
 2004cd0:	d8800315 	stw	r2,12(sp)
 2004cd4:	8809883a 	mov	r4,r17
 2004cd8:	b00b883a 	mov	r5,r22
 2004cdc:	a00d883a 	mov	r6,r20
 2004ce0:	01c00084 	movi	r7,2
 2004ce4:	da413c15 	stw	r9,1264(sp)
 2004ce8:	2006ff00 	call	2006ff0 <_dtoa_r>
 2004cec:	1027883a 	mov	r19,r2
 2004cf0:	008019c4 	movi	r2,103
 2004cf4:	da413c17 	ldw	r9,1264(sp)
 2004cf8:	9081951e 	bne	r18,r2,2005350 <___vfprintf_internal_r+0x1e08>
 2004cfc:	8080004c 	andi	r2,r16,1
 2004d00:	10017926 	beq	r2,zero,20052e8 <___vfprintf_internal_r+0x1da0>
 2004d04:	00801184 	movi	r2,70
 2004d08:	9dc7883a 	add	r3,r19,r23
 2004d0c:	9080e626 	beq	r18,r2,20050a8 <___vfprintf_internal_r+0x1b60>
 2004d10:	b009883a 	mov	r4,r22
 2004d14:	a00b883a 	mov	r5,r20
 2004d18:	000d883a 	mov	r6,zero
 2004d1c:	000f883a 	mov	r7,zero
 2004d20:	d8c13b15 	stw	r3,1260(sp)
 2004d24:	da413c15 	stw	r9,1264(sp)
 2004d28:	200fa780 	call	200fa78 <__eqdf2>
 2004d2c:	d8c13b17 	ldw	r3,1260(sp)
 2004d30:	da413c17 	ldw	r9,1264(sp)
 2004d34:	10000726 	beq	r2,zero,2004d54 <___vfprintf_internal_r+0x180c>
 2004d38:	d8812217 	ldw	r2,1160(sp)
 2004d3c:	10c18a2e 	bgeu	r2,r3,2005368 <___vfprintf_internal_r+0x1e20>
 2004d40:	01000c04 	movi	r4,48
 2004d44:	11000005 	stb	r4,0(r2)
 2004d48:	10800044 	addi	r2,r2,1
 2004d4c:	d8812215 	stw	r2,1160(sp)
 2004d50:	10fffc1e 	bne	r2,r3,2004d44 <__alt_mem_epcs_flash_controller+0xfdffbd44>
 2004d54:	1cc7c83a 	sub	r3,r3,r19
 2004d58:	d8c13215 	stw	r3,1224(sp)
 2004d5c:	008019c4 	movi	r2,103
 2004d60:	9080fa26 	beq	r18,r2,200514c <___vfprintf_internal_r+0x1c04>
 2004d64:	008011c4 	movi	r2,71
 2004d68:	9080f826 	beq	r18,r2,200514c <___vfprintf_internal_r+0x1c04>
 2004d6c:	00801984 	movi	r2,102
 2004d70:	90818e1e 	bne	r18,r2,20053ac <___vfprintf_internal_r+0x1e64>
 2004d74:	d8812417 	ldw	r2,1168(sp)
 2004d78:	d8812b15 	stw	r2,1196(sp)
 2004d7c:	00817c0e 	bge	zero,r2,2005370 <___vfprintf_internal_r+0x1e28>
 2004d80:	e000021e 	bne	fp,zero,2004d8c <___vfprintf_internal_r+0x1844>
 2004d84:	8400004c 	andi	r16,r16,1
 2004d88:	80000426 	beq	r16,zero,2004d9c <___vfprintf_internal_r+0x1854>
 2004d8c:	d8812b17 	ldw	r2,1196(sp)
 2004d90:	e2000044 	addi	r8,fp,1
 2004d94:	1205883a 	add	r2,r2,r8
 2004d98:	d8812b15 	stw	r2,1196(sp)
 2004d9c:	d8812815 	stw	r2,1184(sp)
 2004da0:	10010b16 	blt	r2,zero,20051d0 <___vfprintf_internal_r+0x1c88>
 2004da4:	ddc12f07 	ldb	r23,1212(sp)
 2004da8:	b800e426 	beq	r23,zero,200513c <___vfprintf_internal_r+0x1bf4>
 2004dac:	00800b44 	movi	r2,45
 2004db0:	d8812585 	stb	r2,1174(sp)
 2004db4:	dc012a17 	ldw	r16,1192(sp)
 2004db8:	d8013115 	stw	zero,1220(sp)
 2004dbc:	003b7306 	br	2003b8c <__alt_mem_epcs_flash_controller+0xfdffab8c>
 2004dc0:	d8812b17 	ldw	r2,1196(sp)
 2004dc4:	d8812815 	stw	r2,1184(sp)
 2004dc8:	10005716 	blt	r2,zero,2004f28 <___vfprintf_internal_r+0x19e0>
 2004dcc:	d8812583 	ldbu	r2,1174(sp)
 2004dd0:	ddc12d15 	stw	r23,1204(sp)
 2004dd4:	d8013115 	stw	zero,1220(sp)
 2004dd8:	003b6806 	br	2003b7c <__alt_mem_epcs_flash_controller+0xfdffab7c>
 2004ddc:	d8c12d17 	ldw	r3,1204(sp)
 2004de0:	1dc00017 	ldw	r23,0(r3)
 2004de4:	18c00104 	addi	r3,r3,4
 2004de8:	d8c12d15 	stw	r3,1204(sp)
 2004dec:	b82dd7fa 	srai	r22,r23,31
 2004df0:	b005883a 	mov	r2,r22
 2004df4:	003b4406 	br	2003b08 <__alt_mem_epcs_flash_controller+0xfdffab08>
 2004df8:	d9012d17 	ldw	r4,1204(sp)
 2004dfc:	002d883a 	mov	r22,zero
 2004e00:	00c00044 	movi	r3,1
 2004e04:	25c00017 	ldw	r23,0(r4)
 2004e08:	21000104 	addi	r4,r4,4
 2004e0c:	d9012d15 	stw	r4,1204(sp)
 2004e10:	b805883a 	mov	r2,r23
 2004e14:	d8012585 	stb	zero,1174(sp)
 2004e18:	003b4406 	br	2003b2c <__alt_mem_epcs_flash_controller+0xfdffab2c>
 2004e1c:	d9012d17 	ldw	r4,1204(sp)
 2004e20:	002d883a 	mov	r22,zero
 2004e24:	25c00017 	ldw	r23,0(r4)
 2004e28:	21000104 	addi	r4,r4,4
 2004e2c:	d9012d15 	stw	r4,1204(sp)
 2004e30:	003bab06 	br	2003ce0 <__alt_mem_epcs_flash_controller+0xfdfface0>
 2004e34:	d8812d17 	ldw	r2,1204(sp)
 2004e38:	002d883a 	mov	r22,zero
 2004e3c:	0007883a 	mov	r3,zero
 2004e40:	15c00017 	ldw	r23,0(r2)
 2004e44:	10800104 	addi	r2,r2,4
 2004e48:	d8812d15 	stw	r2,1204(sp)
 2004e4c:	d8012585 	stb	zero,1174(sp)
 2004e50:	b805883a 	mov	r2,r23
 2004e54:	003b3506 	br	2003b2c <__alt_mem_epcs_flash_controller+0xfdffab2c>
 2004e58:	00ffffc4 	movi	r3,-1
 2004e5c:	b82b883a 	mov	r21,r23
 2004e60:	003a1606 	br	20036bc <__alt_mem_epcs_flash_controller+0xfdffa6bc>
 2004e64:	008011c4 	movi	r2,71
 2004e68:	1480b116 	blt	r2,r18,2005130 <___vfprintf_internal_r+0x1be8>
 2004e6c:	04c08234 	movhi	r19,520
 2004e70:	9cdcb504 	addi	r19,r19,29396
 2004e74:	00c000c4 	movi	r3,3
 2004e78:	00bfdfc4 	movi	r2,-129
 2004e7c:	80a0703a 	and	r16,r16,r2
 2004e80:	d8c12815 	stw	r3,1184(sp)
 2004e84:	d8812583 	ldbu	r2,1174(sp)
 2004e88:	d8c12b15 	stw	r3,1196(sp)
 2004e8c:	d8013115 	stw	zero,1220(sp)
 2004e90:	003b3a06 	br	2003b7c <__alt_mem_epcs_flash_controller+0xfdffab7c>
 2004e94:	d9412917 	ldw	r5,1188(sp)
 2004e98:	8809883a 	mov	r4,r17
 2004e9c:	d9811b04 	addi	r6,sp,1132
 2004ea0:	20035140 	call	2003514 <__sprint_r>
 2004ea4:	103aee1e 	bne	r2,zero,2003a60 <__alt_mem_epcs_flash_controller+0xfdffaa60>
 2004ea8:	dc812417 	ldw	r18,1168(sp)
 2004eac:	da011d17 	ldw	r8,1140(sp)
 2004eb0:	da400404 	addi	r9,sp,16
 2004eb4:	003f3c06 	br	2004ba8 <__alt_mem_epcs_flash_controller+0xfdffbba8>
 2004eb8:	ad400044 	addi	r21,r21,1
 2004ebc:	84000814 	ori	r16,r16,32
 2004ec0:	14800047 	ldb	r18,1(r2)
 2004ec4:	0039fc06 	br	20036b8 <__alt_mem_epcs_flash_controller+0xfdffa6b8>
 2004ec8:	d9412917 	ldw	r5,1188(sp)
 2004ecc:	8809883a 	mov	r4,r17
 2004ed0:	d9811b04 	addi	r6,sp,1132
 2004ed4:	20035140 	call	2003514 <__sprint_r>
 2004ed8:	103ae11e 	bne	r2,zero,2003a60 <__alt_mem_epcs_flash_controller+0xfdffaa60>
 2004edc:	da011d17 	ldw	r8,1140(sp)
 2004ee0:	da400404 	addi	r9,sp,16
 2004ee4:	003d2b06 	br	2004394 <__alt_mem_epcs_flash_controller+0xfdffb394>
 2004ee8:	4d000015 	stw	r20,0(r9)
 2004eec:	4c800115 	stw	r18,4(r9)
 2004ef0:	4491883a 	add	r8,r8,r18
 2004ef4:	18c00044 	addi	r3,r3,1
 2004ef8:	da011d15 	stw	r8,1140(sp)
 2004efc:	d8c11c15 	stw	r3,1136(sp)
 2004f00:	008001c4 	movi	r2,7
 2004f04:	10fcbd16 	blt	r2,r3,20041fc <__alt_mem_epcs_flash_controller+0xfdffb1fc>
 2004f08:	4a400204 	addi	r9,r9,8
 2004f0c:	003cc206 	br	2004218 <__alt_mem_epcs_flash_controller+0xfdffb218>
 2004f10:	da413c15 	stw	r9,1264(sp)
 2004f14:	20034880 	call	2003488 <strlen>
 2004f18:	d8812b15 	stw	r2,1196(sp)
 2004f1c:	d8812815 	stw	r2,1184(sp)
 2004f20:	da413c17 	ldw	r9,1264(sp)
 2004f24:	103fa90e 	bge	r2,zero,2004dcc <__alt_mem_epcs_flash_controller+0xfdffbdcc>
 2004f28:	d8012815 	stw	zero,1184(sp)
 2004f2c:	003fa706 	br	2004dcc <__alt_mem_epcs_flash_controller+0xfdffbdcc>
 2004f30:	d9412917 	ldw	r5,1188(sp)
 2004f34:	8809883a 	mov	r4,r17
 2004f38:	d9811b04 	addi	r6,sp,1132
 2004f3c:	20035140 	call	2003514 <__sprint_r>
 2004f40:	103ac71e 	bne	r2,zero,2003a60 <__alt_mem_epcs_flash_controller+0xfdffaa60>
 2004f44:	da011d17 	ldw	r8,1140(sp)
 2004f48:	d8c11c17 	ldw	r3,1136(sp)
 2004f4c:	da400404 	addi	r9,sp,16
 2004f50:	d8813217 	ldw	r2,1224(sp)
 2004f54:	4cc00015 	stw	r19,0(r9)
 2004f58:	48800115 	stw	r2,4(r9)
 2004f5c:	4091883a 	add	r8,r8,r2
 2004f60:	003c6206 	br	20040ec <__alt_mem_epcs_flash_controller+0xfdffb0ec>
 2004f64:	00800b44 	movi	r2,45
 2004f68:	d8812585 	stb	r2,1174(sp)
 2004f6c:	003b2406 	br	2003c00 <__alt_mem_epcs_flash_controller+0xfdffac00>
 2004f70:	4d000015 	stw	r20,0(r9)
 2004f74:	4c800115 	stw	r18,4(r9)
 2004f78:	4491883a 	add	r8,r8,r18
 2004f7c:	18c00044 	addi	r3,r3,1
 2004f80:	da011d15 	stw	r8,1140(sp)
 2004f84:	d8c11c15 	stw	r3,1136(sp)
 2004f88:	008001c4 	movi	r2,7
 2004f8c:	10ffe816 	blt	r2,r3,2004f30 <__alt_mem_epcs_flash_controller+0xfdffbf30>
 2004f90:	4a400204 	addi	r9,r9,8
 2004f94:	003fee06 	br	2004f50 <__alt_mem_epcs_flash_controller+0xfdffbf50>
 2004f98:	d8c12b15 	stw	r3,1196(sp)
 2004f9c:	00800184 	movi	r2,6
 2004fa0:	10c0062e 	bgeu	r2,r3,2004fbc <___vfprintf_internal_r+0x1a74>
 2004fa4:	d8812b15 	stw	r2,1196(sp)
 2004fa8:	d8812815 	stw	r2,1184(sp)
 2004fac:	ddc12d15 	stw	r23,1204(sp)
 2004fb0:	04c08234 	movhi	r19,520
 2004fb4:	9cdcc104 	addi	r19,r19,29444
 2004fb8:	0039ca06 	br	20036e4 <__alt_mem_epcs_flash_controller+0xfdffa6e4>
 2004fbc:	d8812b17 	ldw	r2,1196(sp)
 2004fc0:	d8812815 	stw	r2,1184(sp)
 2004fc4:	103ff90e 	bge	r2,zero,2004fac <__alt_mem_epcs_flash_controller+0xfdffbfac>
 2004fc8:	d8012815 	stw	zero,1184(sp)
 2004fcc:	003ff706 	br	2004fac <__alt_mem_epcs_flash_controller+0xfdffbfac>
 2004fd0:	00800244 	movi	r2,9
 2004fd4:	15fdaa36 	bltu	r2,r23,2004680 <__alt_mem_epcs_flash_controller+0xfdffb680>
 2004fd8:	dd010e04 	addi	r20,sp,1080
 2004fdc:	003dc606 	br	20046f8 <__alt_mem_epcs_flash_controller+0xfdffb6f8>
 2004fe0:	d9412917 	ldw	r5,1188(sp)
 2004fe4:	8809883a 	mov	r4,r17
 2004fe8:	d9811b04 	addi	r6,sp,1132
 2004fec:	20035140 	call	2003514 <__sprint_r>
 2004ff0:	103a9b1e 	bne	r2,zero,2003a60 <__alt_mem_epcs_flash_controller+0xfdffaa60>
 2004ff4:	dc812417 	ldw	r18,1168(sp)
 2004ff8:	da400404 	addi	r9,sp,16
 2004ffc:	003ecd06 	br	2004b34 <__alt_mem_epcs_flash_controller+0xfdffbb34>
 2005000:	d9412917 	ldw	r5,1188(sp)
 2005004:	8809883a 	mov	r4,r17
 2005008:	d9811b04 	addi	r6,sp,1132
 200500c:	20035140 	call	2003514 <__sprint_r>
 2005010:	103a931e 	bne	r2,zero,2003a60 <__alt_mem_epcs_flash_controller+0xfdffaa60>
 2005014:	dc812417 	ldw	r18,1168(sp)
 2005018:	da011d17 	ldw	r8,1140(sp)
 200501c:	d8c11c17 	ldw	r3,1136(sp)
 2005020:	da400404 	addi	r9,sp,16
 2005024:	003eb706 	br	2004b04 <__alt_mem_epcs_flash_controller+0xfdffbb04>
 2005028:	d9412917 	ldw	r5,1188(sp)
 200502c:	8809883a 	mov	r4,r17
 2005030:	d9811b04 	addi	r6,sp,1132
 2005034:	20035140 	call	2003514 <__sprint_r>
 2005038:	103a891e 	bne	r2,zero,2003a60 <__alt_mem_epcs_flash_controller+0xfdffaa60>
 200503c:	dc812417 	ldw	r18,1168(sp)
 2005040:	da011d17 	ldw	r8,1140(sp)
 2005044:	da400404 	addi	r9,sp,16
 2005048:	003dc206 	br	2004754 <__alt_mem_epcs_flash_controller+0xfdffb754>
 200504c:	df012815 	stw	fp,1184(sp)
 2005050:	d8812583 	ldbu	r2,1174(sp)
 2005054:	df012b15 	stw	fp,1196(sp)
 2005058:	ddc12d15 	stw	r23,1204(sp)
 200505c:	d8013115 	stw	zero,1220(sp)
 2005060:	003ac606 	br	2003b7c <__alt_mem_epcs_flash_controller+0xfdffab7c>
 2005064:	d8812404 	addi	r2,sp,1168
 2005068:	d8800115 	stw	r2,4(sp)
 200506c:	d8812304 	addi	r2,sp,1164
 2005070:	d8800215 	stw	r2,8(sp)
 2005074:	d8812204 	addi	r2,sp,1160
 2005078:	df000015 	stw	fp,0(sp)
 200507c:	d8800315 	stw	r2,12(sp)
 2005080:	8809883a 	mov	r4,r17
 2005084:	b00b883a 	mov	r5,r22
 2005088:	a00d883a 	mov	r6,r20
 200508c:	01c000c4 	movi	r7,3
 2005090:	da413c15 	stw	r9,1264(sp)
 2005094:	2006ff00 	call	2006ff0 <_dtoa_r>
 2005098:	da413c17 	ldw	r9,1264(sp)
 200509c:	1027883a 	mov	r19,r2
 20050a0:	1707883a 	add	r3,r2,fp
 20050a4:	e02f883a 	mov	r23,fp
 20050a8:	99000007 	ldb	r4,0(r19)
 20050ac:	00800c04 	movi	r2,48
 20050b0:	20800326 	beq	r4,r2,20050c0 <___vfprintf_internal_r+0x1b78>
 20050b4:	da812417 	ldw	r10,1168(sp)
 20050b8:	1a87883a 	add	r3,r3,r10
 20050bc:	003f1406 	br	2004d10 <__alt_mem_epcs_flash_controller+0xfdffbd10>
 20050c0:	b009883a 	mov	r4,r22
 20050c4:	a00b883a 	mov	r5,r20
 20050c8:	000d883a 	mov	r6,zero
 20050cc:	000f883a 	mov	r7,zero
 20050d0:	d8c13b15 	stw	r3,1260(sp)
 20050d4:	da413c15 	stw	r9,1264(sp)
 20050d8:	200fad40 	call	200fad4 <__nedf2>
 20050dc:	d8c13b17 	ldw	r3,1260(sp)
 20050e0:	da413c17 	ldw	r9,1264(sp)
 20050e4:	103ff326 	beq	r2,zero,20050b4 <__alt_mem_epcs_flash_controller+0xfdffc0b4>
 20050e8:	00800044 	movi	r2,1
 20050ec:	15d5c83a 	sub	r10,r2,r23
 20050f0:	da812415 	stw	r10,1168(sp)
 20050f4:	1a87883a 	add	r3,r3,r10
 20050f8:	003f0506 	br	2004d10 <__alt_mem_epcs_flash_controller+0xfdffbd10>
 20050fc:	d9412917 	ldw	r5,1188(sp)
 2005100:	8809883a 	mov	r4,r17
 2005104:	d9811b04 	addi	r6,sp,1132
 2005108:	20035140 	call	2003514 <__sprint_r>
 200510c:	103a541e 	bne	r2,zero,2003a60 <__alt_mem_epcs_flash_controller+0xfdffaa60>
 2005110:	dc812417 	ldw	r18,1168(sp)
 2005114:	da011d17 	ldw	r8,1140(sp)
 2005118:	d8c11c17 	ldw	r3,1136(sp)
 200511c:	da400404 	addi	r9,sp,16
 2005120:	003eb206 	br	2004bec <__alt_mem_epcs_flash_controller+0xfdffbbec>
 2005124:	b82b883a 	mov	r21,r23
 2005128:	0007883a 	mov	r3,zero
 200512c:	00396306 	br	20036bc <__alt_mem_epcs_flash_controller+0xfdffa6bc>
 2005130:	04c08234 	movhi	r19,520
 2005134:	9cdcb604 	addi	r19,r19,29400
 2005138:	003f4e06 	br	2004e74 <__alt_mem_epcs_flash_controller+0xfdffbe74>
 200513c:	d8812583 	ldbu	r2,1174(sp)
 2005140:	dc012a17 	ldw	r16,1192(sp)
 2005144:	d8013115 	stw	zero,1220(sp)
 2005148:	003a8c06 	br	2003b7c <__alt_mem_epcs_flash_controller+0xfdffab7c>
 200514c:	d8812417 	ldw	r2,1168(sp)
 2005150:	d8812b15 	stw	r2,1196(sp)
 2005154:	1029883a 	mov	r20,r2
 2005158:	00bfff44 	movi	r2,-3
 200515c:	a0800116 	blt	r20,r2,2005164 <___vfprintf_internal_r+0x1c1c>
 2005160:	e5001d0e 	bge	fp,r20,20051d8 <___vfprintf_internal_r+0x1c90>
 2005164:	94bfff84 	addi	r18,r18,-2
 2005168:	a53fffc4 	addi	r20,r20,-1
 200516c:	dd012415 	stw	r20,1168(sp)
 2005170:	dc811fc5 	stb	r18,1151(sp)
 2005174:	a0007216 	blt	r20,zero,2005340 <___vfprintf_internal_r+0x1df8>
 2005178:	00800ac4 	movi	r2,43
 200517c:	d8812005 	stb	r2,1152(sp)
 2005180:	00800244 	movi	r2,9
 2005184:	15003516 	blt	r2,r20,200525c <___vfprintf_internal_r+0x1d14>
 2005188:	00800c04 	movi	r2,48
 200518c:	a5000c04 	addi	r20,r20,48
 2005190:	d8812045 	stb	r2,1153(sp)
 2005194:	dd012085 	stb	r20,1154(sp)
 2005198:	d8c120c4 	addi	r3,sp,1155
 200519c:	d8811fc4 	addi	r2,sp,1151
 20051a0:	1885c83a 	sub	r2,r3,r2
 20051a4:	d8c13217 	ldw	r3,1224(sp)
 20051a8:	d8813515 	stw	r2,1236(sp)
 20051ac:	1885883a 	add	r2,r3,r2
 20051b0:	d8812b15 	stw	r2,1196(sp)
 20051b4:	00800044 	movi	r2,1
 20051b8:	10c0580e 	bge	r2,r3,200531c <___vfprintf_internal_r+0x1dd4>
 20051bc:	d8812b17 	ldw	r2,1196(sp)
 20051c0:	10800044 	addi	r2,r2,1
 20051c4:	d8812b15 	stw	r2,1196(sp)
 20051c8:	d8812815 	stw	r2,1184(sp)
 20051cc:	103ef50e 	bge	r2,zero,2004da4 <__alt_mem_epcs_flash_controller+0xfdffbda4>
 20051d0:	d8012815 	stw	zero,1184(sp)
 20051d4:	003ef306 	br	2004da4 <__alt_mem_epcs_flash_controller+0xfdffbda4>
 20051d8:	d8812b17 	ldw	r2,1196(sp)
 20051dc:	d8c13217 	ldw	r3,1224(sp)
 20051e0:	10c01416 	blt	r2,r3,2005234 <___vfprintf_internal_r+0x1cec>
 20051e4:	8400004c 	andi	r16,r16,1
 20051e8:	80000326 	beq	r16,zero,20051f8 <___vfprintf_internal_r+0x1cb0>
 20051ec:	d8812b17 	ldw	r2,1196(sp)
 20051f0:	10800044 	addi	r2,r2,1
 20051f4:	d8812b15 	stw	r2,1196(sp)
 20051f8:	d8812815 	stw	r2,1184(sp)
 20051fc:	10001416 	blt	r2,zero,2005250 <___vfprintf_internal_r+0x1d08>
 2005200:	048019c4 	movi	r18,103
 2005204:	003ee706 	br	2004da4 <__alt_mem_epcs_flash_controller+0xfdffbda4>
 2005208:	d8012815 	stw	zero,1184(sp)
 200520c:	003b1a06 	br	2003e78 <__alt_mem_epcs_flash_controller+0xfdffae78>
 2005210:	e03e9c1e 	bne	fp,zero,2004c84 <__alt_mem_epcs_flash_controller+0xfdffbc84>
 2005214:	07000044 	movi	fp,1
 2005218:	003e9a06 	br	2004c84 <__alt_mem_epcs_flash_controller+0xfdffbc84>
 200521c:	07000184 	movi	fp,6
 2005220:	003e9806 	br	2004c84 <__alt_mem_epcs_flash_controller+0xfdffbc84>
 2005224:	00c00b44 	movi	r3,45
 2005228:	a520003c 	xorhi	r20,r20,32768
 200522c:	d8c12f05 	stb	r3,1212(sp)
 2005230:	003e9806 	br	2004c94 <__alt_mem_epcs_flash_controller+0xfdffbc94>
 2005234:	05003f0e 	bge	zero,r20,2005334 <___vfprintf_internal_r+0x1dec>
 2005238:	05000044 	movi	r20,1
 200523c:	d8c13217 	ldw	r3,1224(sp)
 2005240:	a0e9883a 	add	r20,r20,r3
 2005244:	dd012b15 	stw	r20,1196(sp)
 2005248:	dd012815 	stw	r20,1184(sp)
 200524c:	a03fec0e 	bge	r20,zero,2005200 <__alt_mem_epcs_flash_controller+0xfdffc200>
 2005250:	d8012815 	stw	zero,1184(sp)
 2005254:	048019c4 	movi	r18,103
 2005258:	003ed206 	br	2004da4 <__alt_mem_epcs_flash_controller+0xfdffbda4>
 200525c:	d8c11f84 	addi	r3,sp,1150
 2005260:	102f883a 	mov	r23,r2
 2005264:	4839883a 	mov	fp,r9
 2005268:	a009883a 	mov	r4,r20
 200526c:	01400284 	movi	r5,10
 2005270:	182d883a 	mov	r22,r3
 2005274:	2001cb40 	call	2001cb4 <__modsi3>
 2005278:	10800c04 	addi	r2,r2,48
 200527c:	a009883a 	mov	r4,r20
 2005280:	b0800005 	stb	r2,0(r22)
 2005284:	01400284 	movi	r5,10
 2005288:	2001c640 	call	2001c64 <__divsi3>
 200528c:	1029883a 	mov	r20,r2
 2005290:	b0ffffc4 	addi	r3,r22,-1
 2005294:	b8bff416 	blt	r23,r2,2005268 <__alt_mem_epcs_flash_controller+0xfdffc268>
 2005298:	11400c04 	addi	r5,r2,48
 200529c:	b17fffc5 	stb	r5,-1(r22)
 20052a0:	d8811fc4 	addi	r2,sp,1151
 20052a4:	e013883a 	mov	r9,fp
 20052a8:	18803e2e 	bgeu	r3,r2,20053a4 <___vfprintf_internal_r+0x1e5c>
 20052ac:	b007883a 	mov	r3,r22
 20052b0:	d9012044 	addi	r4,sp,1153
 20052b4:	00000206 	br	20052c0 <___vfprintf_internal_r+0x1d78>
 20052b8:	19400003 	ldbu	r5,0(r3)
 20052bc:	18c00044 	addi	r3,r3,1
 20052c0:	21400005 	stb	r5,0(r4)
 20052c4:	21000044 	addi	r4,r4,1
 20052c8:	10fffb1e 	bne	r2,r3,20052b8 <__alt_mem_epcs_flash_controller+0xfdffc2b8>
 20052cc:	d8c12004 	addi	r3,sp,1152
 20052d0:	1d87c83a 	sub	r3,r3,r22
 20052d4:	d9012044 	addi	r4,sp,1153
 20052d8:	20c7883a 	add	r3,r4,r3
 20052dc:	003fb006 	br	20051a0 <__alt_mem_epcs_flash_controller+0xfdffc1a0>
 20052e0:	e5c00044 	addi	r23,fp,1
 20052e4:	003e7406 	br	2004cb8 <__alt_mem_epcs_flash_controller+0xfdffbcb8>
 20052e8:	d8c12217 	ldw	r3,1160(sp)
 20052ec:	003e9906 	br	2004d54 <__alt_mem_epcs_flash_controller+0xfdffbd54>
 20052f0:	d9012d17 	ldw	r4,1204(sp)
 20052f4:	ac800043 	ldbu	r18,1(r21)
 20052f8:	b82b883a 	mov	r21,r23
 20052fc:	20c00017 	ldw	r3,0(r4)
 2005300:	20800104 	addi	r2,r4,4
 2005304:	d8812d15 	stw	r2,1204(sp)
 2005308:	18002116 	blt	r3,zero,2005390 <___vfprintf_internal_r+0x1e48>
 200530c:	94803fcc 	andi	r18,r18,255
 2005310:	9480201c 	xori	r18,r18,128
 2005314:	94bfe004 	addi	r18,r18,-128
 2005318:	0038e706 	br	20036b8 <__alt_mem_epcs_flash_controller+0xfdffa6b8>
 200531c:	80a0703a 	and	r16,r16,r2
 2005320:	803fa61e 	bne	r16,zero,20051bc <__alt_mem_epcs_flash_controller+0xfdffc1bc>
 2005324:	d8812b17 	ldw	r2,1196(sp)
 2005328:	d8812815 	stw	r2,1184(sp)
 200532c:	103e9d0e 	bge	r2,zero,2004da4 <__alt_mem_epcs_flash_controller+0xfdffbda4>
 2005330:	003fa706 	br	20051d0 <__alt_mem_epcs_flash_controller+0xfdffc1d0>
 2005334:	00800084 	movi	r2,2
 2005338:	1529c83a 	sub	r20,r2,r20
 200533c:	003fbf06 	br	200523c <__alt_mem_epcs_flash_controller+0xfdffc23c>
 2005340:	00800b44 	movi	r2,45
 2005344:	0529c83a 	sub	r20,zero,r20
 2005348:	d8812005 	stb	r2,1152(sp)
 200534c:	003f8c06 	br	2005180 <__alt_mem_epcs_flash_controller+0xfdffc180>
 2005350:	008011c4 	movi	r2,71
 2005354:	90be6926 	beq	r18,r2,2004cfc <__alt_mem_epcs_flash_controller+0xfdffbcfc>
 2005358:	003e6a06 	br	2004d04 <__alt_mem_epcs_flash_controller+0xfdffbd04>
 200535c:	00bfffc4 	movi	r2,-1
 2005360:	d8812c15 	stw	r2,1200(sp)
 2005364:	0039ad06 	br	2003a1c <__alt_mem_epcs_flash_controller+0xfdffaa1c>
 2005368:	1007883a 	mov	r3,r2
 200536c:	003e7906 	br	2004d54 <__alt_mem_epcs_flash_controller+0xfdffbd54>
 2005370:	e000021e 	bne	fp,zero,200537c <___vfprintf_internal_r+0x1e34>
 2005374:	8400004c 	andi	r16,r16,1
 2005378:	80000e26 	beq	r16,zero,20053b4 <___vfprintf_internal_r+0x1e6c>
 200537c:	e7000084 	addi	fp,fp,2
 2005380:	df012b15 	stw	fp,1196(sp)
 2005384:	df012815 	stw	fp,1184(sp)
 2005388:	e03e860e 	bge	fp,zero,2004da4 <__alt_mem_epcs_flash_controller+0xfdffbda4>
 200538c:	003f9006 	br	20051d0 <__alt_mem_epcs_flash_controller+0xfdffc1d0>
 2005390:	94803fcc 	andi	r18,r18,255
 2005394:	9480201c 	xori	r18,r18,128
 2005398:	00ffffc4 	movi	r3,-1
 200539c:	94bfe004 	addi	r18,r18,-128
 20053a0:	0038c506 	br	20036b8 <__alt_mem_epcs_flash_controller+0xfdffa6b8>
 20053a4:	d8c12044 	addi	r3,sp,1153
 20053a8:	003f7d06 	br	20051a0 <__alt_mem_epcs_flash_controller+0xfdffc1a0>
 20053ac:	dd012417 	ldw	r20,1168(sp)
 20053b0:	003f6d06 	br	2005168 <__alt_mem_epcs_flash_controller+0xfdffc168>
 20053b4:	00c00044 	movi	r3,1
 20053b8:	d8c12815 	stw	r3,1184(sp)
 20053bc:	d8c12b15 	stw	r3,1196(sp)
 20053c0:	003e7806 	br	2004da4 <__alt_mem_epcs_flash_controller+0xfdffbda4>

020053c4 <__vfprintf_internal>:
 20053c4:	00808274 	movhi	r2,521
 20053c8:	10a55004 	addi	r2,r2,-27328
 20053cc:	2007883a 	mov	r3,r4
 20053d0:	11000017 	ldw	r4,0(r2)
 20053d4:	2805883a 	mov	r2,r5
 20053d8:	300f883a 	mov	r7,r6
 20053dc:	180b883a 	mov	r5,r3
 20053e0:	100d883a 	mov	r6,r2
 20053e4:	20035481 	jmpi	2003548 <___vfprintf_internal_r>

020053e8 <__svfscanf_r>:
 20053e8:	deff4c04 	addi	sp,sp,-720
 20053ec:	ddc0b115 	stw	r23,708(sp)
 20053f0:	dd00ae15 	stw	r20,696(sp)
 20053f4:	dcc0ad15 	stw	r19,692(sp)
 20053f8:	dc80ac15 	stw	r18,688(sp)
 20053fc:	dc40ab15 	stw	r17,684(sp)
 2005400:	dc00aa15 	stw	r16,680(sp)
 2005404:	dfc0b315 	stw	ra,716(sp)
 2005408:	df00b215 	stw	fp,712(sp)
 200540c:	dd80b015 	stw	r22,704(sp)
 2005410:	dd40af15 	stw	r21,700(sp)
 2005414:	30800007 	ldb	r2,0(r6)
 2005418:	002f883a 	mov	r23,zero
 200541c:	d9c09c15 	stw	r7,624(sp)
 2005420:	d800a015 	stw	zero,640(sp)
 2005424:	d8009f15 	stw	zero,636(sp)
 2005428:	d8009e15 	stw	zero,632(sp)
 200542c:	d8809b15 	stw	r2,620(sp)
 2005430:	2023883a 	mov	r17,r4
 2005434:	04808274 	movhi	r18,521
 2005438:	94a55304 	addi	r18,r18,-27316
 200543c:	b829883a 	mov	r20,r23
 2005440:	2827883a 	mov	r19,r5
 2005444:	34000044 	addi	r16,r6,1
 2005448:	10002426 	beq	r2,zero,20054dc <__svfscanf_r+0xf4>
 200544c:	95400017 	ldw	r21,0(r18)
 2005450:	a887883a 	add	r3,r21,r2
 2005454:	18c00003 	ldbu	r3,0(r3)
 2005458:	18c0020c 	andi	r3,r3,8
 200545c:	18c03fcc 	andi	r3,r3,255
 2005460:	18c0201c 	xori	r3,r3,128
 2005464:	18ffe004 	addi	r3,r3,-128
 2005468:	18002926 	beq	r3,zero,2005510 <__svfscanf_r+0x128>
 200546c:	98800117 	ldw	r2,4(r19)
 2005470:	0080110e 	bge	zero,r2,20054b8 <__svfscanf_r+0xd0>
 2005474:	98c00017 	ldw	r3,0(r19)
 2005478:	91000017 	ldw	r4,0(r18)
 200547c:	18800003 	ldbu	r2,0(r3)
 2005480:	2085883a 	add	r2,r4,r2
 2005484:	10800003 	ldbu	r2,0(r2)
 2005488:	1080020c 	andi	r2,r2,8
 200548c:	10803fcc 	andi	r2,r2,255
 2005490:	1080201c 	xori	r2,r2,128
 2005494:	10bfe004 	addi	r2,r2,-128
 2005498:	10000b26 	beq	r2,zero,20054c8 <__svfscanf_r+0xe0>
 200549c:	98800117 	ldw	r2,4(r19)
 20054a0:	18c00044 	addi	r3,r3,1
 20054a4:	98c00015 	stw	r3,0(r19)
 20054a8:	10bfffc4 	addi	r2,r2,-1
 20054ac:	98800115 	stw	r2,4(r19)
 20054b0:	a5000044 	addi	r20,r20,1
 20054b4:	00bfef16 	blt	zero,r2,2005474 <__alt_mem_epcs_flash_controller+0xfdffc474>
 20054b8:	8809883a 	mov	r4,r17
 20054bc:	980b883a 	mov	r5,r19
 20054c0:	200b1700 	call	200b170 <__srefill_r>
 20054c4:	103feb26 	beq	r2,zero,2005474 <__alt_mem_epcs_flash_controller+0xfdffc474>
 20054c8:	800d883a 	mov	r6,r16
 20054cc:	30800007 	ldb	r2,0(r6)
 20054d0:	34000044 	addi	r16,r6,1
 20054d4:	d8809b15 	stw	r2,620(sp)
 20054d8:	103fdc1e 	bne	r2,zero,200544c <__alt_mem_epcs_flash_controller+0xfdffc44c>
 20054dc:	d8809e17 	ldw	r2,632(sp)
 20054e0:	dfc0b317 	ldw	ra,716(sp)
 20054e4:	df00b217 	ldw	fp,712(sp)
 20054e8:	ddc0b117 	ldw	r23,708(sp)
 20054ec:	dd80b017 	ldw	r22,704(sp)
 20054f0:	dd40af17 	ldw	r21,700(sp)
 20054f4:	dd00ae17 	ldw	r20,696(sp)
 20054f8:	dcc0ad17 	ldw	r19,692(sp)
 20054fc:	dc80ac17 	ldw	r18,688(sp)
 2005500:	dc40ab17 	ldw	r17,684(sp)
 2005504:	dc00aa17 	ldw	r16,680(sp)
 2005508:	dec0b404 	addi	sp,sp,720
 200550c:	f800283a 	ret
 2005510:	00c00944 	movi	r3,37
 2005514:	10c00e26 	beq	r2,r3,2005550 <__svfscanf_r+0x168>
 2005518:	98800117 	ldw	r2,4(r19)
 200551c:	0080e40e 	bge	zero,r2,20058b0 <__svfscanf_r+0x4c8>
 2005520:	98800017 	ldw	r2,0(r19)
 2005524:	80ffffc7 	ldb	r3,-1(r16)
 2005528:	11000003 	ldbu	r4,0(r2)
 200552c:	20ffeb1e 	bne	r4,r3,20054dc <__alt_mem_epcs_flash_controller+0xfdffc4dc>
 2005530:	98c00117 	ldw	r3,4(r19)
 2005534:	10800044 	addi	r2,r2,1
 2005538:	98800015 	stw	r2,0(r19)
 200553c:	18bfffc4 	addi	r2,r3,-1
 2005540:	98800115 	stw	r2,4(r19)
 2005544:	a5000044 	addi	r20,r20,1
 2005548:	800d883a 	mov	r6,r16
 200554c:	003fdf06 	br	20054cc <__alt_mem_epcs_flash_controller+0xfdffc4cc>
 2005550:	0039883a 	mov	fp,zero
 2005554:	35c00043 	ldbu	r23,1(r6)
 2005558:	002d883a 	mov	r22,zero
 200555c:	00c01e04 	movi	r3,120
 2005560:	01801b04 	movi	r6,108
 2005564:	e009883a 	mov	r4,fp
 2005568:	b8803fcc 	andi	r2,r23,255
 200556c:	87000044 	addi	fp,r16,1
 2005570:	18804f2e 	bgeu	r3,r2,20056b0 <__svfscanf_r+0x2c8>
 2005574:	bdc03fcc 	andi	r23,r23,255
 2005578:	bdc0201c 	xori	r23,r23,128
 200557c:	bdffe004 	addi	r23,r23,-128
 2005580:	adeb883a 	add	r21,r21,r23
 2005584:	a8800003 	ldbu	r2,0(r21)
 2005588:	df009d15 	stw	fp,628(sp)
 200558c:	2039883a 	mov	fp,r4
 2005590:	1080004c 	andi	r2,r2,1
 2005594:	1002d926 	beq	r2,zero,20060fc <__svfscanf_r+0xd14>
 2005598:	b5800054 	ori	r22,r22,1
 200559c:	00808074 	movhi	r2,513
 20055a0:	10b31e04 	addi	r2,r2,-13192
 20055a4:	00c00284 	movi	r3,10
 20055a8:	d880a015 	stw	r2,640(sp)
 20055ac:	d8c09f15 	stw	r3,636(sp)
 20055b0:	040000c4 	movi	r16,3
 20055b4:	98800117 	ldw	r2,4(r19)
 20055b8:	0081bd0e 	bge	zero,r2,2005cb0 <__svfscanf_r+0x8c8>
 20055bc:	b080100c 	andi	r2,r22,64
 20055c0:	1000ce26 	beq	r2,zero,20058fc <__svfscanf_r+0x514>
 20055c4:	00800084 	movi	r2,2
 20055c8:	80818426 	beq	r16,r2,2005bdc <__svfscanf_r+0x7f4>
 20055cc:	1400f716 	blt	r2,r16,20059ac <__svfscanf_r+0x5c4>
 20055d0:	00800044 	movi	r2,1
 20055d4:	8080dc26 	beq	r16,r2,2005948 <__svfscanf_r+0x560>
 20055d8:	e000011e 	bne	fp,zero,20055e0 <__svfscanf_r+0x1f8>
 20055dc:	07000044 	movi	fp,1
 20055e0:	b080004c 	andi	r2,r22,1
 20055e4:	10022826 	beq	r2,zero,2005e88 <__svfscanf_r+0xaa0>
 20055e8:	b5c0040c 	andi	r23,r22,16
 20055ec:	b804601e 	bne	r23,zero,2006770 <__svfscanf_r+0x1388>
 20055f0:	d8c09c17 	ldw	r3,624(sp)
 20055f4:	1d800017 	ldw	r22,0(r3)
 20055f8:	18c00104 	addi	r3,r3,4
 20055fc:	d8c09c15 	stw	r3,624(sp)
 2005600:	0021883a 	mov	r16,zero
 2005604:	dd409904 	addi	r21,sp,612
 2005608:	01008274 	movhi	r4,521
 200560c:	21255404 	addi	r4,r4,-27312
 2005610:	20800017 	ldw	r2,0(r4)
 2005614:	8080aa26 	beq	r16,r2,20058c0 <__svfscanf_r+0x4d8>
 2005618:	98800017 	ldw	r2,0(r19)
 200561c:	9a000117 	ldw	r8,4(r19)
 2005620:	d9400104 	addi	r5,sp,4
 2005624:	11c00003 	ldbu	r7,0(r2)
 2005628:	423fffc4 	addi	r8,r8,-1
 200562c:	10800044 	addi	r2,r2,1
 2005630:	2c07883a 	add	r3,r5,r16
 2005634:	a809883a 	mov	r4,r21
 2005638:	000b883a 	mov	r5,zero
 200563c:	01800204 	movi	r6,8
 2005640:	9a000115 	stw	r8,4(r19)
 2005644:	98800015 	stw	r2,0(r19)
 2005648:	19c00005 	stb	r7,0(r3)
 200564c:	84000044 	addi	r16,r16,1
 2005650:	200309c0 	call	200309c <memset>
 2005654:	8809883a 	mov	r4,r17
 2005658:	dd400015 	stw	r21,0(sp)
 200565c:	b00b883a 	mov	r5,r22
 2005660:	d9800104 	addi	r6,sp,4
 2005664:	800f883a 	mov	r7,r16
 2005668:	20095f00 	call	20095f0 <_mbrtowc_r>
 200566c:	00ffffc4 	movi	r3,-1
 2005670:	10c09326 	beq	r2,r3,20058c0 <__svfscanf_r+0x4d8>
 2005674:	1003281e 	bne	r2,zero,2006318 <__svfscanf_r+0xf30>
 2005678:	b800011e 	bne	r23,zero,2005680 <__svfscanf_r+0x298>
 200567c:	b0000015 	stw	zero,0(r22)
 2005680:	a429883a 	add	r20,r20,r16
 2005684:	e73fffc4 	addi	fp,fp,-1
 2005688:	b803281e 	bne	r23,zero,200632c <__svfscanf_r+0xf44>
 200568c:	b5800104 	addi	r22,r22,4
 2005690:	0021883a 	mov	r16,zero
 2005694:	98800117 	ldw	r2,4(r19)
 2005698:	00820b0e 	bge	zero,r2,2005ec8 <__svfscanf_r+0xae0>
 200569c:	e03fda1e 	bne	fp,zero,2005608 <__alt_mem_epcs_flash_controller+0xfdffc608>
 20056a0:	b8012226 	beq	r23,zero,2005b2c <__svfscanf_r+0x744>
 20056a4:	dc009d17 	ldw	r16,628(sp)
 20056a8:	800d883a 	mov	r6,r16
 20056ac:	003f8706 	br	20054cc <__alt_mem_epcs_flash_controller+0xfdffc4cc>
 20056b0:	1085883a 	add	r2,r2,r2
 20056b4:	1085883a 	add	r2,r2,r2
 20056b8:	01408034 	movhi	r5,512
 20056bc:	2955b304 	addi	r5,r5,22220
 20056c0:	1145883a 	add	r2,r2,r5
 20056c4:	10800017 	ldw	r2,0(r2)
 20056c8:	1000683a 	jmp	r2
 20056cc:	020058e0 	cmpeqi	r8,zero,355
 20056d0:	02005574 	movhi	r8,341
 20056d4:	02005574 	movhi	r8,341
 20056d8:	02005574 	movhi	r8,341
 20056dc:	02005574 	movhi	r8,341
 20056e0:	02005574 	movhi	r8,341
 20056e4:	02005574 	movhi	r8,341
 20056e8:	02005574 	movhi	r8,341
 20056ec:	02005574 	movhi	r8,341
 20056f0:	02005574 	movhi	r8,341
 20056f4:	02005574 	movhi	r8,341
 20056f8:	02005574 	movhi	r8,341
 20056fc:	02005574 	movhi	r8,341
 2005700:	02005574 	movhi	r8,341
 2005704:	02005574 	movhi	r8,341
 2005708:	02005574 	movhi	r8,341
 200570c:	02005574 	movhi	r8,341
 2005710:	02005574 	movhi	r8,341
 2005714:	02005574 	movhi	r8,341
 2005718:	02005574 	movhi	r8,341
 200571c:	02005574 	movhi	r8,341
 2005720:	02005574 	movhi	r8,341
 2005724:	02005574 	movhi	r8,341
 2005728:	02005574 	movhi	r8,341
 200572c:	02005574 	movhi	r8,341
 2005730:	02005574 	movhi	r8,341
 2005734:	02005574 	movhi	r8,341
 2005738:	02005574 	movhi	r8,341
 200573c:	02005574 	movhi	r8,341
 2005740:	02005574 	movhi	r8,341
 2005744:	02005574 	movhi	r8,341
 2005748:	02005574 	movhi	r8,341
 200574c:	02005574 	movhi	r8,341
 2005750:	02005574 	movhi	r8,341
 2005754:	02005574 	movhi	r8,341
 2005758:	02005574 	movhi	r8,341
 200575c:	02005574 	movhi	r8,341
 2005760:	020061b0 	cmpltui	r8,zero,390
 2005764:	02005574 	movhi	r8,341
 2005768:	02005574 	movhi	r8,341
 200576c:	02005574 	movhi	r8,341
 2005770:	02005574 	movhi	r8,341
 2005774:	020061bc 	xorhi	r8,zero,390
 2005778:	02005574 	movhi	r8,341
 200577c:	02005574 	movhi	r8,341
 2005780:	02005574 	movhi	r8,341
 2005784:	02005574 	movhi	r8,341
 2005788:	02005574 	movhi	r8,341
 200578c:	0200614c 	andi	r8,zero,389
 2005790:	0200614c 	andi	r8,zero,389
 2005794:	0200614c 	andi	r8,zero,389
 2005798:	0200614c 	andi	r8,zero,389
 200579c:	0200614c 	andi	r8,zero,389
 20057a0:	0200614c 	andi	r8,zero,389
 20057a4:	0200614c 	andi	r8,zero,389
 20057a8:	0200614c 	andi	r8,zero,389
 20057ac:	0200614c 	andi	r8,zero,389
 20057b0:	0200614c 	andi	r8,zero,389
 20057b4:	02005574 	movhi	r8,341
 20057b8:	02005574 	movhi	r8,341
 20057bc:	02005574 	movhi	r8,341
 20057c0:	02005574 	movhi	r8,341
 20057c4:	02005574 	movhi	r8,341
 20057c8:	02005574 	movhi	r8,341
 20057cc:	02005574 	movhi	r8,341
 20057d0:	02005574 	movhi	r8,341
 20057d4:	02005574 	movhi	r8,341
 20057d8:	02005574 	movhi	r8,341
 20057dc:	02006184 	movi	r8,390
 20057e0:	02006190 	cmplti	r8,zero,390
 20057e4:	02005574 	movhi	r8,341
 20057e8:	02006190 	cmplti	r8,zero,390
 20057ec:	02005574 	movhi	r8,341
 20057f0:	02005574 	movhi	r8,341
 20057f4:	02005574 	movhi	r8,341
 20057f8:	02005574 	movhi	r8,341
 20057fc:	020061a0 	cmpeqi	r8,zero,390
 2005800:	02005574 	movhi	r8,341
 2005804:	02005574 	movhi	r8,341
 2005808:	020061cc 	andi	r8,zero,391
 200580c:	02005574 	movhi	r8,341
 2005810:	02005574 	movhi	r8,341
 2005814:	02005574 	movhi	r8,341
 2005818:	02005574 	movhi	r8,341
 200581c:	02005574 	movhi	r8,341
 2005820:	02005574 	movhi	r8,341
 2005824:	02005574 	movhi	r8,341
 2005828:	02005574 	movhi	r8,341
 200582c:	020061f4 	movhi	r8,391
 2005830:	02005574 	movhi	r8,341
 2005834:	02005574 	movhi	r8,341
 2005838:	0200621c 	xori	r8,zero,392
 200583c:	02005574 	movhi	r8,341
 2005840:	02005574 	movhi	r8,341
 2005844:	02005574 	movhi	r8,341
 2005848:	02005574 	movhi	r8,341
 200584c:	02005574 	movhi	r8,341
 2005850:	02005574 	movhi	r8,341
 2005854:	02005574 	movhi	r8,341
 2005858:	02006240 	call	200624 <__reset-0x1dff9dc>
 200585c:	02006254 	movui	r8,393
 2005860:	02006190 	cmplti	r8,zero,390
 2005864:	02006190 	cmplti	r8,zero,390
 2005868:	02006190 	cmplti	r8,zero,390
 200586c:	02006260 	cmpeqi	r8,zero,393
 2005870:	02006270 	cmpltui	r8,zero,393
 2005874:	02005574 	movhi	r8,341
 2005878:	02005574 	movhi	r8,341
 200587c:	02006290 	cmplti	r8,zero,394
 2005880:	02005574 	movhi	r8,341
 2005884:	020062b0 	cmpltui	r8,zero,394
 2005888:	020062e4 	muli	r8,zero,395
 200588c:	020062f0 	cmpltui	r8,zero,395
 2005890:	02005574 	movhi	r8,341
 2005894:	02005574 	movhi	r8,341
 2005898:	02006118 	cmpnei	r8,zero,388
 200589c:	02005574 	movhi	r8,341
 20058a0:	02006128 	cmpgeui	r8,zero,388
 20058a4:	02005574 	movhi	r8,341
 20058a8:	02005574 	movhi	r8,341
 20058ac:	020061f4 	movhi	r8,391
 20058b0:	8809883a 	mov	r4,r17
 20058b4:	980b883a 	mov	r5,r19
 20058b8:	200b1700 	call	200b170 <__srefill_r>
 20058bc:	103f1826 	beq	r2,zero,2005520 <__alt_mem_epcs_flash_controller+0xfdffc520>
 20058c0:	d8809e17 	ldw	r2,632(sp)
 20058c4:	10000626 	beq	r2,zero,20058e0 <__svfscanf_r+0x4f8>
 20058c8:	9880030b 	ldhu	r2,12(r19)
 20058cc:	1080100c 	andi	r2,r2,64
 20058d0:	10bfffcc 	andi	r2,r2,65535
 20058d4:	10a0001c 	xori	r2,r2,32768
 20058d8:	10a00004 	addi	r2,r2,-32768
 20058dc:	103eff26 	beq	r2,zero,20054dc <__alt_mem_epcs_flash_controller+0xfdffc4dc>
 20058e0:	00bfffc4 	movi	r2,-1
 20058e4:	d8809e15 	stw	r2,632(sp)
 20058e8:	003efc06 	br	20054dc <__alt_mem_epcs_flash_controller+0xfdffc4dc>
 20058ec:	8809883a 	mov	r4,r17
 20058f0:	980b883a 	mov	r5,r19
 20058f4:	200b1700 	call	200b170 <__srefill_r>
 20058f8:	103ff11e 	bne	r2,zero,20058c0 <__alt_mem_epcs_flash_controller+0xfdffc8c0>
 20058fc:	91400017 	ldw	r5,0(r18)
 2005900:	98800017 	ldw	r2,0(r19)
 2005904:	00000206 	br	2005910 <__svfscanf_r+0x528>
 2005908:	10800044 	addi	r2,r2,1
 200590c:	98800015 	stw	r2,0(r19)
 2005910:	10c00003 	ldbu	r3,0(r2)
 2005914:	28c7883a 	add	r3,r5,r3
 2005918:	18c00003 	ldbu	r3,0(r3)
 200591c:	18c0020c 	andi	r3,r3,8
 2005920:	18c03fcc 	andi	r3,r3,255
 2005924:	18c0201c 	xori	r3,r3,128
 2005928:	18ffe004 	addi	r3,r3,-128
 200592c:	183f2526 	beq	r3,zero,20055c4 <__alt_mem_epcs_flash_controller+0xfdffc5c4>
 2005930:	98c00117 	ldw	r3,4(r19)
 2005934:	a5000044 	addi	r20,r20,1
 2005938:	18ffffc4 	addi	r3,r3,-1
 200593c:	98c00115 	stw	r3,4(r19)
 2005940:	00fff116 	blt	zero,r3,2005908 <__alt_mem_epcs_flash_controller+0xfdffc908>
 2005944:	003fe906 	br	20058ec <__alt_mem_epcs_flash_controller+0xfdffc8ec>
 2005948:	e000011e 	bne	fp,zero,2005950 <__svfscanf_r+0x568>
 200594c:	073fffc4 	movi	fp,-1
 2005950:	b580040c 	andi	r22,r22,16
 2005954:	b0016826 	beq	r22,zero,2005ef8 <__svfscanf_r+0xb10>
 2005958:	98800017 	ldw	r2,0(r19)
 200595c:	0021883a 	mov	r16,zero
 2005960:	dd805884 	addi	r22,sp,354
 2005964:	10c00003 	ldbu	r3,0(r2)
 2005968:	b0c7883a 	add	r3,r22,r3
 200596c:	18c00007 	ldb	r3,0(r3)
 2005970:	18039726 	beq	r3,zero,20067d0 <__svfscanf_r+0x13e8>
 2005974:	98c00117 	ldw	r3,4(r19)
 2005978:	10800044 	addi	r2,r2,1
 200597c:	84000044 	addi	r16,r16,1
 2005980:	18ffffc4 	addi	r3,r3,-1
 2005984:	98c00115 	stw	r3,4(r19)
 2005988:	98800015 	stw	r2,0(r19)
 200598c:	e4008f26 	beq	fp,r16,2005bcc <__svfscanf_r+0x7e4>
 2005990:	00fff416 	blt	zero,r3,2005964 <__alt_mem_epcs_flash_controller+0xfdffc964>
 2005994:	8809883a 	mov	r4,r17
 2005998:	980b883a 	mov	r5,r19
 200599c:	200b1700 	call	200b170 <__srefill_r>
 20059a0:	10008a1e 	bne	r2,zero,2005bcc <__svfscanf_r+0x7e4>
 20059a4:	98800017 	ldw	r2,0(r19)
 20059a8:	003fee06 	br	2005964 <__alt_mem_epcs_flash_controller+0xfdffc964>
 20059ac:	008000c4 	movi	r2,3
 20059b0:	80806426 	beq	r16,r2,2005b44 <__svfscanf_r+0x75c>
 20059b4:	00800104 	movi	r2,4
 20059b8:	80bf071e 	bne	r16,r2,20055d8 <__alt_mem_epcs_flash_controller+0xfdffc5d8>
 20059bc:	e0bfffc4 	addi	r2,fp,-1
 20059c0:	01005704 	movi	r4,348
 20059c4:	20814736 	bltu	r4,r2,2005ee4 <__svfscanf_r+0xafc>
 20059c8:	0017883a 	mov	r11,zero
 20059cc:	b581e014 	ori	r22,r22,1920
 20059d0:	0021883a 	mov	r16,zero
 20059d4:	d800a115 	stw	zero,644(sp)
 20059d8:	d800a315 	stw	zero,652(sp)
 20059dc:	002b883a 	mov	r21,zero
 20059e0:	d800a215 	stw	zero,648(sp)
 20059e4:	ddc00104 	addi	r23,sp,4
 20059e8:	000d883a 	mov	r6,zero
 20059ec:	00c01384 	movi	r3,78
 20059f0:	03810004 	movi	r14,1024
 20059f4:	033e1fc4 	movi	r12,-1921
 20059f8:	03ff5fc4 	movi	r15,-641
 20059fc:	99c00017 	ldw	r7,0(r19)
 2005a00:	39400003 	ldbu	r5,0(r7)
 2005a04:	28bff544 	addi	r2,r5,-43
 2005a08:	10803fcc 	andi	r2,r2,255
 2005a0c:	1880c82e 	bgeu	r3,r2,2005d30 <__svfscanf_r+0x948>
 2005a10:	a8000226 	beq	r21,zero,2005a1c <__svfscanf_r+0x634>
 2005a14:	00bfbfc4 	movi	r2,-257
 2005a18:	b0ac703a 	and	r22,r22,r2
 2005a1c:	31bfffc4 	addi	r6,r6,-1
 2005a20:	00800044 	movi	r2,1
 2005a24:	1184092e 	bgeu	r2,r6,2006a4c <__svfscanf_r+0x1664>
 2005a28:	80803fcc 	andi	r2,r16,255
 2005a2c:	1080201c 	xori	r2,r2,128
 2005a30:	10bfe004 	addi	r2,r2,-128
 2005a34:	10ffffc4 	addi	r3,r2,-1
 2005a38:	01000184 	movi	r4,6
 2005a3c:	20c01036 	bltu	r4,r3,2005a80 <__svfscanf_r+0x698>
 2005a40:	00c00084 	movi	r3,2
 2005a44:	1883f50e 	bge	r3,r2,2006a1c <__svfscanf_r+0x1634>
 2005a48:	00c000c4 	movi	r3,3
 2005a4c:	10c00c26 	beq	r2,r3,2005a80 <__svfscanf_r+0x698>
 2005a50:	843fff04 	addi	r16,r16,-4
 2005a54:	84003fcc 	andi	r16,r16,255
 2005a58:	0438303a 	nor	fp,zero,r16
 2005a5c:	bf39883a 	add	fp,r23,fp
 2005a60:	bdffffc4 	addi	r23,r23,-1
 2005a64:	b9400007 	ldb	r5,0(r23)
 2005a68:	8809883a 	mov	r4,r17
 2005a6c:	980d883a 	mov	r6,r19
 2005a70:	200d97c0 	call	200d97c <_ungetc_r>
 2005a74:	bf3ffa1e 	bne	r23,fp,2005a60 <__alt_mem_epcs_flash_controller+0xfdffca60>
 2005a78:	a27fffc4 	addi	r9,r20,-1
 2005a7c:	4c29c83a 	sub	r20,r9,r16
 2005a80:	b080400c 	andi	r2,r22,256
 2005a84:	10001326 	beq	r2,zero,2005ad4 <__svfscanf_r+0x6ec>
 2005a88:	b081000c 	andi	r2,r22,1024
 2005a8c:	1003d21e 	bne	r2,zero,20069d8 <__svfscanf_r+0x15f0>
 2005a90:	b97fffc7 	ldb	r5,-1(r23)
 2005a94:	00801944 	movi	r2,101
 2005a98:	bc3fffc4 	addi	r16,r23,-1
 2005a9c:	a53fffc4 	addi	r20,r20,-1
 2005aa0:	28800826 	beq	r5,r2,2005ac4 <__svfscanf_r+0x6dc>
 2005aa4:	00801144 	movi	r2,69
 2005aa8:	28800626 	beq	r5,r2,2005ac4 <__svfscanf_r+0x6dc>
 2005aac:	8809883a 	mov	r4,r17
 2005ab0:	980d883a 	mov	r6,r19
 2005ab4:	200d97c0 	call	200d97c <_ungetc_r>
 2005ab8:	b97fff87 	ldb	r5,-2(r23)
 2005abc:	bc3fff84 	addi	r16,r23,-2
 2005ac0:	a53fffc4 	addi	r20,r20,-1
 2005ac4:	8809883a 	mov	r4,r17
 2005ac8:	980d883a 	mov	r6,r19
 2005acc:	200d97c0 	call	200d97c <_ungetc_r>
 2005ad0:	802f883a 	mov	r23,r16
 2005ad4:	b080040c 	andi	r2,r22,16
 2005ad8:	103ef21e 	bne	r2,zero,20056a4 <__alt_mem_epcs_flash_controller+0xfdffc6a4>
 2005adc:	b8000005 	stb	zero,0(r23)
 2005ae0:	b0c1800c 	andi	r3,r22,1536
 2005ae4:	00810004 	movi	r2,1024
 2005ae8:	18837726 	beq	r3,r2,20068c8 <__svfscanf_r+0x14e0>
 2005aec:	d8c0a317 	ldw	r3,652(sp)
 2005af0:	1803601e 	bne	r3,zero,2006874 <__svfscanf_r+0x148c>
 2005af4:	8809883a 	mov	r4,r17
 2005af8:	d9400104 	addi	r5,sp,4
 2005afc:	000d883a 	mov	r6,zero
 2005b00:	200b5f40 	call	200b5f4 <_strtod_r>
 2005b04:	102b883a 	mov	r21,r2
 2005b08:	b080004c 	andi	r2,r22,1
 2005b0c:	182f883a 	mov	r23,r3
 2005b10:	10031f26 	beq	r2,zero,2006790 <__svfscanf_r+0x13a8>
 2005b14:	d9409c17 	ldw	r5,624(sp)
 2005b18:	28800017 	ldw	r2,0(r5)
 2005b1c:	29400104 	addi	r5,r5,4
 2005b20:	d9409c15 	stw	r5,624(sp)
 2005b24:	15400015 	stw	r21,0(r2)
 2005b28:	10c00115 	stw	r3,4(r2)
 2005b2c:	d8809e17 	ldw	r2,632(sp)
 2005b30:	dc009d17 	ldw	r16,628(sp)
 2005b34:	10800044 	addi	r2,r2,1
 2005b38:	d8809e15 	stw	r2,632(sp)
 2005b3c:	800d883a 	mov	r6,r16
 2005b40:	003e6206 	br	20054cc <__alt_mem_epcs_flash_controller+0xfdffc4cc>
 2005b44:	e0bfffc4 	addi	r2,fp,-1
 2005b48:	01005704 	movi	r4,348
 2005b4c:	2080e82e 	bgeu	r4,r2,2005ef0 <__svfscanf_r+0xb08>
 2005b50:	e0ffa8c4 	addi	r3,fp,-349
 2005b54:	07005744 	movi	fp,349
 2005b58:	da409f17 	ldw	r9,636(sp)
 2005b5c:	b5836014 	ori	r22,r22,3456
 2005b60:	0021883a 	mov	r16,zero
 2005b64:	dd400104 	addi	r21,sp,4
 2005b68:	05c01344 	movi	r23,77
 2005b6c:	01c08004 	movi	r7,512
 2005b70:	01bf7fc4 	movi	r6,-513
 2005b74:	9a000017 	ldw	r8,0(r19)
 2005b78:	41400003 	ldbu	r5,0(r8)
 2005b7c:	28bff544 	addi	r2,r5,-43
 2005b80:	10803fcc 	andi	r2,r2,255
 2005b84:	b881eb2e 	bgeu	r23,r2,2006334 <__svfscanf_r+0xf4c>
 2005b88:	da409f15 	stw	r9,636(sp)
 2005b8c:	b080400c 	andi	r2,r22,256
 2005b90:	10000926 	beq	r2,zero,2005bb8 <__svfscanf_r+0x7d0>
 2005b94:	d9400104 	addi	r5,sp,4
 2005b98:	2d40052e 	bgeu	r5,r21,2005bb0 <__svfscanf_r+0x7c8>
 2005b9c:	a97fffc7 	ldb	r5,-1(r21)
 2005ba0:	8809883a 	mov	r4,r17
 2005ba4:	980d883a 	mov	r6,r19
 2005ba8:	ad7fffc4 	addi	r21,r21,-1
 2005bac:	200d97c0 	call	200d97c <_ungetc_r>
 2005bb0:	d8800104 	addi	r2,sp,4
 2005bb4:	157e4926 	beq	r2,r21,20054dc <__alt_mem_epcs_flash_controller+0xfdffc4dc>
 2005bb8:	b080040c 	andi	r2,r22,16
 2005bbc:	1002ac26 	beq	r2,zero,2006670 <__svfscanf_r+0x1288>
 2005bc0:	d8c00104 	addi	r3,sp,4
 2005bc4:	a8ebc83a 	sub	r21,r21,r3
 2005bc8:	ac21883a 	add	r16,r21,r16
 2005bcc:	a429883a 	add	r20,r20,r16
 2005bd0:	dc009d17 	ldw	r16,628(sp)
 2005bd4:	800d883a 	mov	r6,r16
 2005bd8:	003e3c06 	br	20054cc <__alt_mem_epcs_flash_controller+0xfdffc4cc>
 2005bdc:	e000011e 	bne	fp,zero,2005be4 <__svfscanf_r+0x7fc>
 2005be0:	073fffc4 	movi	fp,-1
 2005be4:	b080004c 	andi	r2,r22,1
 2005be8:	b580040c 	andi	r22,r22,16
 2005bec:	10003526 	beq	r2,zero,2005cc4 <__svfscanf_r+0x8dc>
 2005bf0:	b002dd1e 	bne	r22,zero,2006768 <__svfscanf_r+0x1380>
 2005bf4:	d8c09c17 	ldw	r3,624(sp)
 2005bf8:	1d400017 	ldw	r21,0(r3)
 2005bfc:	18c00104 	addi	r3,r3,4
 2005c00:	d8c09c15 	stw	r3,624(sp)
 2005c04:	0021883a 	mov	r16,zero
 2005c08:	ddc09904 	addi	r23,sp,612
 2005c0c:	98c00017 	ldw	r3,0(r19)
 2005c10:	91400017 	ldw	r5,0(r18)
 2005c14:	18800003 	ldbu	r2,0(r3)
 2005c18:	11003fcc 	andi	r4,r2,255
 2005c1c:	2909883a 	add	r4,r5,r4
 2005c20:	21000003 	ldbu	r4,0(r4)
 2005c24:	2100020c 	andi	r4,r4,8
 2005c28:	21003fcc 	andi	r4,r4,255
 2005c2c:	2100201c 	xori	r4,r4,128
 2005c30:	213fe004 	addi	r4,r4,-128
 2005c34:	2002731e 	bne	r4,zero,2006604 <__svfscanf_r+0x121c>
 2005c38:	e0027226 	beq	fp,zero,2006604 <__svfscanf_r+0x121c>
 2005c3c:	01408274 	movhi	r5,521
 2005c40:	29655404 	addi	r5,r5,-27312
 2005c44:	29000017 	ldw	r4,0(r5)
 2005c48:	813f1d26 	beq	r16,r4,20058c0 <__alt_mem_epcs_flash_controller+0xfdffc8c0>
 2005c4c:	9a000117 	ldw	r8,4(r19)
 2005c50:	18c00044 	addi	r3,r3,1
 2005c54:	d9000104 	addi	r4,sp,4
 2005c58:	423fffc4 	addi	r8,r8,-1
 2005c5c:	240f883a 	add	r7,r4,r16
 2005c60:	000b883a 	mov	r5,zero
 2005c64:	b809883a 	mov	r4,r23
 2005c68:	01800204 	movi	r6,8
 2005c6c:	9a000115 	stw	r8,4(r19)
 2005c70:	98c00015 	stw	r3,0(r19)
 2005c74:	38800005 	stb	r2,0(r7)
 2005c78:	84000044 	addi	r16,r16,1
 2005c7c:	200309c0 	call	200309c <memset>
 2005c80:	a80b883a 	mov	r5,r21
 2005c84:	8809883a 	mov	r4,r17
 2005c88:	ddc00015 	stw	r23,0(sp)
 2005c8c:	d9800104 	addi	r6,sp,4
 2005c90:	800f883a 	mov	r7,r16
 2005c94:	20095f00 	call	20095f0 <_mbrtowc_r>
 2005c98:	017fffc4 	movi	r5,-1
 2005c9c:	117f0826 	beq	r2,r5,20058c0 <__alt_mem_epcs_flash_controller+0xfdffc8c0>
 2005ca0:	1002de1e 	bne	r2,zero,200681c <__svfscanf_r+0x1434>
 2005ca4:	a8000015 	stw	zero,0(r21)
 2005ca8:	0009883a 	mov	r4,zero
 2005cac:	0002de06 	br	2006828 <__svfscanf_r+0x1440>
 2005cb0:	8809883a 	mov	r4,r17
 2005cb4:	980b883a 	mov	r5,r19
 2005cb8:	200b1700 	call	200b170 <__srefill_r>
 2005cbc:	103e3f26 	beq	r2,zero,20055bc <__alt_mem_epcs_flash_controller+0xfdffc5bc>
 2005cc0:	003eff06 	br	20058c0 <__alt_mem_epcs_flash_controller+0xfdffc8c0>
 2005cc4:	b0027e26 	beq	r22,zero,20066c0 <__svfscanf_r+0x12d8>
 2005cc8:	91400017 	ldw	r5,0(r18)
 2005ccc:	98800017 	ldw	r2,0(r19)
 2005cd0:	0021883a 	mov	r16,zero
 2005cd4:	10c00003 	ldbu	r3,0(r2)
 2005cd8:	28c7883a 	add	r3,r5,r3
 2005cdc:	18c00003 	ldbu	r3,0(r3)
 2005ce0:	18c0020c 	andi	r3,r3,8
 2005ce4:	18c03fcc 	andi	r3,r3,255
 2005ce8:	18c0201c 	xori	r3,r3,128
 2005cec:	18ffe004 	addi	r3,r3,-128
 2005cf0:	183fb61e 	bne	r3,zero,2005bcc <__alt_mem_epcs_flash_controller+0xfdffcbcc>
 2005cf4:	98c00117 	ldw	r3,4(r19)
 2005cf8:	10800044 	addi	r2,r2,1
 2005cfc:	84000044 	addi	r16,r16,1
 2005d00:	18ffffc4 	addi	r3,r3,-1
 2005d04:	98c00115 	stw	r3,4(r19)
 2005d08:	98800015 	stw	r2,0(r19)
 2005d0c:	e43faf26 	beq	fp,r16,2005bcc <__alt_mem_epcs_flash_controller+0xfdffcbcc>
 2005d10:	00fff016 	blt	zero,r3,2005cd4 <__alt_mem_epcs_flash_controller+0xfdffccd4>
 2005d14:	8809883a 	mov	r4,r17
 2005d18:	980b883a 	mov	r5,r19
 2005d1c:	200b1700 	call	200b170 <__srefill_r>
 2005d20:	103faa1e 	bne	r2,zero,2005bcc <__alt_mem_epcs_flash_controller+0xfdffcbcc>
 2005d24:	91400017 	ldw	r5,0(r18)
 2005d28:	98800017 	ldw	r2,0(r19)
 2005d2c:	003fe906 	br	2005cd4 <__alt_mem_epcs_flash_controller+0xfdffccd4>
 2005d30:	1085883a 	add	r2,r2,r2
 2005d34:	1085883a 	add	r2,r2,r2
 2005d38:	01008034 	movhi	r4,512
 2005d3c:	21175304 	addi	r4,r4,23884
 2005d40:	1105883a 	add	r2,r2,r4
 2005d44:	10800017 	ldw	r2,0(r2)
 2005d48:	1000683a 	jmp	r2
 2005d4c:	02005fec 	andhi	r8,zero,383
 2005d50:	02005a10 	cmplti	r8,zero,360
 2005d54:	02005fec 	andhi	r8,zero,383
 2005d58:	02005fd8 	cmpnei	r8,zero,383
 2005d5c:	02005a10 	cmplti	r8,zero,360
 2005d60:	02005fb4 	movhi	r8,382
 2005d64:	02005f68 	cmpgeui	r8,zero,381
 2005d68:	02005f68 	cmpgeui	r8,zero,381
 2005d6c:	02005f68 	cmpgeui	r8,zero,381
 2005d70:	02005f68 	cmpgeui	r8,zero,381
 2005d74:	02005f68 	cmpgeui	r8,zero,381
 2005d78:	02005f68 	cmpgeui	r8,zero,381
 2005d7c:	02005f68 	cmpgeui	r8,zero,381
 2005d80:	02005f68 	cmpgeui	r8,zero,381
 2005d84:	02005f68 	cmpgeui	r8,zero,381
 2005d88:	02005a10 	cmplti	r8,zero,360
 2005d8c:	02005a10 	cmplti	r8,zero,360
 2005d90:	02005a10 	cmplti	r8,zero,360
 2005d94:	02005a10 	cmplti	r8,zero,360
 2005d98:	02005a10 	cmplti	r8,zero,360
 2005d9c:	02005a10 	cmplti	r8,zero,360
 2005da0:	02005a10 	cmplti	r8,zero,360
 2005da4:	020060d0 	cmplti	r8,zero,387
 2005da8:	02005a10 	cmplti	r8,zero,360
 2005dac:	02005a10 	cmplti	r8,zero,360
 2005db0:	02005a10 	cmplti	r8,zero,360
 2005db4:	02006094 	movui	r8,386
 2005db8:	020060e0 	cmpeqi	r8,zero,387
 2005dbc:	02005a10 	cmplti	r8,zero,360
 2005dc0:	02005a10 	cmplti	r8,zero,360
 2005dc4:	0200606c 	andhi	r8,zero,385
 2005dc8:	02005a10 	cmplti	r8,zero,360
 2005dcc:	02005a10 	cmplti	r8,zero,360
 2005dd0:	02005a10 	cmplti	r8,zero,360
 2005dd4:	02005a10 	cmplti	r8,zero,360
 2005dd8:	02006038 	rdprs	r8,zero,384
 2005ddc:	02005a10 	cmplti	r8,zero,360
 2005de0:	02005a10 	cmplti	r8,zero,360
 2005de4:	02005a10 	cmplti	r8,zero,360
 2005de8:	02005a10 	cmplti	r8,zero,360
 2005dec:	02005a10 	cmplti	r8,zero,360
 2005df0:	0200601c 	xori	r8,zero,384
 2005df4:	02005a10 	cmplti	r8,zero,360
 2005df8:	02005a10 	cmplti	r8,zero,360
 2005dfc:	02005a10 	cmplti	r8,zero,360
 2005e00:	02005a10 	cmplti	r8,zero,360
 2005e04:	02006000 	call	200600 <__reset-0x1dffa00>
 2005e08:	02005a10 	cmplti	r8,zero,360
 2005e0c:	02005a10 	cmplti	r8,zero,360
 2005e10:	02005a10 	cmplti	r8,zero,360
 2005e14:	02005a10 	cmplti	r8,zero,360
 2005e18:	02005a10 	cmplti	r8,zero,360
 2005e1c:	02005a10 	cmplti	r8,zero,360
 2005e20:	02005a10 	cmplti	r8,zero,360
 2005e24:	020060d0 	cmplti	r8,zero,387
 2005e28:	02005a10 	cmplti	r8,zero,360
 2005e2c:	02005a10 	cmplti	r8,zero,360
 2005e30:	02005a10 	cmplti	r8,zero,360
 2005e34:	02006094 	movui	r8,386
 2005e38:	020060e0 	cmpeqi	r8,zero,387
 2005e3c:	02005a10 	cmplti	r8,zero,360
 2005e40:	02005a10 	cmplti	r8,zero,360
 2005e44:	0200606c 	andhi	r8,zero,385
 2005e48:	02005a10 	cmplti	r8,zero,360
 2005e4c:	02005a10 	cmplti	r8,zero,360
 2005e50:	02005a10 	cmplti	r8,zero,360
 2005e54:	02005a10 	cmplti	r8,zero,360
 2005e58:	02006038 	rdprs	r8,zero,384
 2005e5c:	02005a10 	cmplti	r8,zero,360
 2005e60:	02005a10 	cmplti	r8,zero,360
 2005e64:	02005a10 	cmplti	r8,zero,360
 2005e68:	02005a10 	cmplti	r8,zero,360
 2005e6c:	02005a10 	cmplti	r8,zero,360
 2005e70:	0200601c 	xori	r8,zero,384
 2005e74:	02005a10 	cmplti	r8,zero,360
 2005e78:	02005a10 	cmplti	r8,zero,360
 2005e7c:	02005a10 	cmplti	r8,zero,360
 2005e80:	02005a10 	cmplti	r8,zero,360
 2005e84:	02006000 	call	200600 <__reset-0x1dffa00>
 2005e88:	b580040c 	andi	r22,r22,16
 2005e8c:	b0025226 	beq	r22,zero,20067d8 <__svfscanf_r+0x13f0>
 2005e90:	0021883a 	mov	r16,zero
 2005e94:	98800117 	ldw	r2,4(r19)
 2005e98:	17026f0e 	bge	r2,fp,2006858 <__svfscanf_r+0x1470>
 2005e9c:	98c00017 	ldw	r3,0(r19)
 2005ea0:	8809883a 	mov	r4,r17
 2005ea4:	980b883a 	mov	r5,r19
 2005ea8:	1887883a 	add	r3,r3,r2
 2005eac:	98c00015 	stw	r3,0(r19)
 2005eb0:	80a1883a 	add	r16,r16,r2
 2005eb4:	e0b9c83a 	sub	fp,fp,r2
 2005eb8:	200b1700 	call	200b170 <__srefill_r>
 2005ebc:	103ff526 	beq	r2,zero,2005e94 <__alt_mem_epcs_flash_controller+0xfdffce94>
 2005ec0:	803f421e 	bne	r16,zero,2005bcc <__alt_mem_epcs_flash_controller+0xfdffcbcc>
 2005ec4:	003e7e06 	br	20058c0 <__alt_mem_epcs_flash_controller+0xfdffc8c0>
 2005ec8:	8809883a 	mov	r4,r17
 2005ecc:	980b883a 	mov	r5,r19
 2005ed0:	200b1700 	call	200b170 <__srefill_r>
 2005ed4:	103df126 	beq	r2,zero,200569c <__alt_mem_epcs_flash_controller+0xfdffc69c>
 2005ed8:	803e791e 	bne	r16,zero,20058c0 <__alt_mem_epcs_flash_controller+0xfdffc8c0>
 2005edc:	b83f1326 	beq	r23,zero,2005b2c <__alt_mem_epcs_flash_controller+0xfdffcb2c>
 2005ee0:	003df006 	br	20056a4 <__alt_mem_epcs_flash_controller+0xfdffc6a4>
 2005ee4:	e2ffa8c4 	addi	r11,fp,-349
 2005ee8:	07005744 	movi	fp,349
 2005eec:	003eb706 	br	20059cc <__alt_mem_epcs_flash_controller+0xfdffc9cc>
 2005ef0:	0007883a 	mov	r3,zero
 2005ef4:	003f1806 	br	2005b58 <__alt_mem_epcs_flash_controller+0xfdffcb58>
 2005ef8:	d8c09c17 	ldw	r3,624(sp)
 2005efc:	98800017 	ldw	r2,0(r19)
 2005f00:	dd805884 	addi	r22,sp,354
 2005f04:	1c000017 	ldw	r16,0(r3)
 2005f08:	1dc00104 	addi	r23,r3,4
 2005f0c:	802b883a 	mov	r21,r16
 2005f10:	10c00003 	ldbu	r3,0(r2)
 2005f14:	b0c7883a 	add	r3,r22,r3
 2005f18:	18c00007 	ldb	r3,0(r3)
 2005f1c:	1801c226 	beq	r3,zero,2006628 <__svfscanf_r+0x1240>
 2005f20:	98c00117 	ldw	r3,4(r19)
 2005f24:	10800044 	addi	r2,r2,1
 2005f28:	ad400044 	addi	r21,r21,1
 2005f2c:	18ffffc4 	addi	r3,r3,-1
 2005f30:	98c00115 	stw	r3,4(r19)
 2005f34:	10ffffc3 	ldbu	r3,-1(r2)
 2005f38:	e73fffc4 	addi	fp,fp,-1
 2005f3c:	a8ffffc5 	stb	r3,-1(r21)
 2005f40:	98800015 	stw	r2,0(r19)
 2005f44:	e001b826 	beq	fp,zero,2006628 <__svfscanf_r+0x1240>
 2005f48:	98c00117 	ldw	r3,4(r19)
 2005f4c:	00fff016 	blt	zero,r3,2005f10 <__alt_mem_epcs_flash_controller+0xfdffcf10>
 2005f50:	8809883a 	mov	r4,r17
 2005f54:	980b883a 	mov	r5,r19
 2005f58:	200b1700 	call	200b170 <__srefill_r>
 2005f5c:	1001b11e 	bne	r2,zero,2006624 <__svfscanf_r+0x123c>
 2005f60:	98800017 	ldw	r2,0(r19)
 2005f64:	003fea06 	br	2005f10 <__alt_mem_epcs_flash_controller+0xfdffcf10>
 2005f68:	80803fcc 	andi	r2,r16,255
 2005f6c:	1080201c 	xori	r2,r2,128
 2005f70:	10bfe004 	addi	r2,r2,-128
 2005f74:	3085883a 	add	r2,r6,r2
 2005f78:	103ea51e 	bne	r2,zero,2005a10 <__alt_mem_epcs_flash_controller+0xfdffca10>
 2005f7c:	00bf9fc4 	movi	r2,-385
 2005f80:	b0ac703a 	and	r22,r22,r2
 2005f84:	b9400005 	stb	r5,0(r23)
 2005f88:	bdc00044 	addi	r23,r23,1
 2005f8c:	98800117 	ldw	r2,4(r19)
 2005f90:	e73fffc4 	addi	fp,fp,-1
 2005f94:	a5000044 	addi	r20,r20,1
 2005f98:	10bfffc4 	addi	r2,r2,-1
 2005f9c:	98800115 	stw	r2,4(r19)
 2005fa0:	00816d0e 	bge	zero,r2,2006558 <__svfscanf_r+0x1170>
 2005fa4:	39c00044 	addi	r7,r7,1
 2005fa8:	99c00015 	stw	r7,0(r19)
 2005fac:	e03e931e 	bne	fp,zero,20059fc <__alt_mem_epcs_flash_controller+0xfdffc9fc>
 2005fb0:	003e9706 	br	2005a10 <__alt_mem_epcs_flash_controller+0xfdffca10>
 2005fb4:	b080400c 	andi	r2,r22,256
 2005fb8:	103feb26 	beq	r2,zero,2005f68 <__alt_mem_epcs_flash_controller+0xfdffcf68>
 2005fbc:	00bfdfc4 	movi	r2,-129
 2005fc0:	b0ac703a 	and	r22,r22,r2
 2005fc4:	ad400044 	addi	r21,r21,1
 2005fc8:	583ff026 	beq	r11,zero,2005f8c <__alt_mem_epcs_flash_controller+0xfdffcf8c>
 2005fcc:	5affffc4 	addi	r11,r11,-1
 2005fd0:	e7000044 	addi	fp,fp,1
 2005fd4:	003fed06 	br	2005f8c <__alt_mem_epcs_flash_controller+0xfdffcf8c>
 2005fd8:	b080800c 	andi	r2,r22,512
 2005fdc:	103e8c26 	beq	r2,zero,2005a10 <__alt_mem_epcs_flash_controller+0xfdffca10>
 2005fe0:	b3ec703a 	and	r22,r22,r15
 2005fe4:	dd40a215 	stw	r21,648(sp)
 2005fe8:	003fe606 	br	2005f84 <__alt_mem_epcs_flash_controller+0xfdffcf84>
 2005fec:	b080200c 	andi	r2,r22,128
 2005ff0:	103e8726 	beq	r2,zero,2005a10 <__alt_mem_epcs_flash_controller+0xfdffca10>
 2005ff4:	00bfdfc4 	movi	r2,-129
 2005ff8:	b0ac703a 	and	r22,r22,r2
 2005ffc:	003fe106 	br	2005f84 <__alt_mem_epcs_flash_controller+0xfdffcf84>
 2006000:	81003fcc 	andi	r4,r16,255
 2006004:	2100201c 	xori	r4,r4,128
 2006008:	213fe004 	addi	r4,r4,-128
 200600c:	008001c4 	movi	r2,7
 2006010:	20be7f1e 	bne	r4,r2,2005a10 <__alt_mem_epcs_flash_controller+0xfdffca10>
 2006014:	04000204 	movi	r16,8
 2006018:	003fda06 	br	2005f84 <__alt_mem_epcs_flash_controller+0xfdffcf84>
 200601c:	81003fcc 	andi	r4,r16,255
 2006020:	2100201c 	xori	r4,r4,128
 2006024:	213fe004 	addi	r4,r4,-128
 2006028:	00800184 	movi	r2,6
 200602c:	20be781e 	bne	r4,r2,2005a10 <__alt_mem_epcs_flash_controller+0xfdffca10>
 2006030:	040001c4 	movi	r16,7
 2006034:	003fd306 	br	2005f84 <__alt_mem_epcs_flash_controller+0xfdffcf84>
 2006038:	3001891e 	bne	r6,zero,2006660 <__svfscanf_r+0x1278>
 200603c:	b101c00c 	andi	r4,r22,1792
 2006040:	0081c004 	movi	r2,1792
 2006044:	20821d26 	beq	r4,r2,20068bc <__svfscanf_r+0x14d4>
 2006048:	80803fcc 	andi	r2,r16,255
 200604c:	1080201c 	xori	r2,r2,128
 2006050:	10bfe004 	addi	r2,r2,-128
 2006054:	01000044 	movi	r4,1
 2006058:	11000226 	beq	r2,r4,2006064 <__svfscanf_r+0xc7c>
 200605c:	01000104 	movi	r4,4
 2006060:	113e6b1e 	bne	r2,r4,2005a10 <__alt_mem_epcs_flash_controller+0xfdffca10>
 2006064:	84000044 	addi	r16,r16,1
 2006068:	003fc606 	br	2005f84 <__alt_mem_epcs_flash_controller+0xfdffcf84>
 200606c:	80803fcc 	andi	r2,r16,255
 2006070:	1080201c 	xori	r2,r2,128
 2006074:	10bfe004 	addi	r2,r2,-128
 2006078:	1001731e 	bne	r2,zero,2006648 <__svfscanf_r+0x1260>
 200607c:	b101c00c 	andi	r4,r22,1792
 2006080:	0081c004 	movi	r2,1792
 2006084:	20be621e 	bne	r4,r2,2005a10 <__alt_mem_epcs_flash_controller+0xfdffca10>
 2006088:	b32c703a 	and	r22,r22,r12
 200608c:	04000044 	movi	r16,1
 2006090:	003fbc06 	br	2005f84 <__alt_mem_epcs_flash_controller+0xfdffcf84>
 2006094:	b081400c 	andi	r2,r22,1280
 2006098:	13800326 	beq	r2,r14,20060a8 <__svfscanf_r+0xcc0>
 200609c:	b081000c 	andi	r2,r22,1024
 20060a0:	103e5b26 	beq	r2,zero,2005a10 <__alt_mem_epcs_flash_controller+0xfdffca10>
 20060a4:	a83e5d26 	beq	r21,zero,2005a1c <__alt_mem_epcs_flash_controller+0xfdffca1c>
 20060a8:	b080800c 	andi	r2,r22,512
 20060ac:	1000041e 	bne	r2,zero,20060c0 <__svfscanf_r+0xcd8>
 20060b0:	d880a217 	ldw	r2,648(sp)
 20060b4:	ddc0a115 	stw	r23,644(sp)
 20060b8:	a8abc83a 	sub	r21,r21,r2
 20060bc:	dd40a315 	stw	r21,652(sp)
 20060c0:	b32c703a 	and	r22,r22,r12
 20060c4:	b5806014 	ori	r22,r22,384
 20060c8:	002b883a 	mov	r21,zero
 20060cc:	003fad06 	br	2005f84 <__alt_mem_epcs_flash_controller+0xfdffcf84>
 20060d0:	00800044 	movi	r2,1
 20060d4:	30be4e1e 	bne	r6,r2,2005a10 <__alt_mem_epcs_flash_controller+0xfdffca10>
 20060d8:	01800084 	movi	r6,2
 20060dc:	003fa906 	br	2005f84 <__alt_mem_epcs_flash_controller+0xfdffcf84>
 20060e0:	81003fcc 	andi	r4,r16,255
 20060e4:	2100201c 	xori	r4,r4,128
 20060e8:	213fe004 	addi	r4,r4,-128
 20060ec:	00800084 	movi	r2,2
 20060f0:	20be471e 	bne	r4,r2,2005a10 <__alt_mem_epcs_flash_controller+0xfdffca10>
 20060f4:	040000c4 	movi	r16,3
 20060f8:	003fa206 	br	2005f84 <__alt_mem_epcs_flash_controller+0xfdffcf84>
 20060fc:	01408074 	movhi	r5,513
 2006100:	29731e04 	addi	r5,r5,-13192
 2006104:	00800284 	movi	r2,10
 2006108:	d940a015 	stw	r5,640(sp)
 200610c:	d8809f15 	stw	r2,636(sp)
 2006110:	040000c4 	movi	r16,3
 2006114:	003d2706 	br	20055b4 <__alt_mem_epcs_flash_controller+0xfdffc5b4>
 2006118:	df009d15 	stw	fp,628(sp)
 200611c:	04000084 	movi	r16,2
 2006120:	2039883a 	mov	fp,r4
 2006124:	003d2306 	br	20055b4 <__alt_mem_epcs_flash_controller+0xfdffc5b4>
 2006128:	00808074 	movhi	r2,513
 200612c:	10b48c04 	addi	r2,r2,-11728
 2006130:	00c00284 	movi	r3,10
 2006134:	df009d15 	stw	fp,628(sp)
 2006138:	d880a015 	stw	r2,640(sp)
 200613c:	2039883a 	mov	fp,r4
 2006140:	d8c09f15 	stw	r3,636(sp)
 2006144:	040000c4 	movi	r16,3
 2006148:	003d1a06 	br	20055b4 <__alt_mem_epcs_flash_controller+0xfdffc5b4>
 200614c:	bdc03fcc 	andi	r23,r23,255
 2006150:	01400284 	movi	r5,10
 2006154:	bdc0201c 	xori	r23,r23,128
 2006158:	d8c0a815 	stw	r3,672(sp)
 200615c:	d980a915 	stw	r6,676(sp)
 2006160:	bdffe004 	addi	r23,r23,-128
 2006164:	2001d200 	call	2001d20 <__mulsi3>
 2006168:	15c5883a 	add	r2,r2,r23
 200616c:	113ff404 	addi	r4,r2,-48
 2006170:	85c00043 	ldbu	r23,1(r16)
 2006174:	d8c0a817 	ldw	r3,672(sp)
 2006178:	e021883a 	mov	r16,fp
 200617c:	d980a917 	ldw	r6,676(sp)
 2006180:	003cf906 	br	2005568 <__alt_mem_epcs_flash_controller+0xfdffc568>
 2006184:	df009d15 	stw	fp,628(sp)
 2006188:	2039883a 	mov	fp,r4
 200618c:	003d0206 	br	2005598 <__alt_mem_epcs_flash_controller+0xfdffc598>
 2006190:	df009d15 	stw	fp,628(sp)
 2006194:	04000104 	movi	r16,4
 2006198:	2039883a 	mov	fp,r4
 200619c:	003d0506 	br	20055b4 <__alt_mem_epcs_flash_controller+0xfdffc5b4>
 20061a0:	85c00043 	ldbu	r23,1(r16)
 20061a4:	b5800094 	ori	r22,r22,2
 20061a8:	e021883a 	mov	r16,fp
 20061ac:	003cee06 	br	2005568 <__alt_mem_epcs_flash_controller+0xfdffc568>
 20061b0:	df009d15 	stw	fp,628(sp)
 20061b4:	e021883a 	mov	r16,fp
 20061b8:	003cd706 	br	2005518 <__alt_mem_epcs_flash_controller+0xfdffc518>
 20061bc:	85c00043 	ldbu	r23,1(r16)
 20061c0:	b5800414 	ori	r22,r22,16
 20061c4:	e021883a 	mov	r16,fp
 20061c8:	003ce706 	br	2005568 <__alt_mem_epcs_flash_controller+0xfdffc568>
 20061cc:	df009d15 	stw	fp,628(sp)
 20061d0:	b5800054 	ori	r22,r22,1
 20061d4:	2039883a 	mov	fp,r4
 20061d8:	01008074 	movhi	r4,513
 20061dc:	21348c04 	addi	r4,r4,-11728
 20061e0:	01400204 	movi	r5,8
 20061e4:	d900a015 	stw	r4,640(sp)
 20061e8:	d9409f15 	stw	r5,636(sp)
 20061ec:	040000c4 	movi	r16,3
 20061f0:	003cf006 	br	20055b4 <__alt_mem_epcs_flash_controller+0xfdffc5b4>
 20061f4:	df009d15 	stw	fp,628(sp)
 20061f8:	01400404 	movi	r5,16
 20061fc:	2039883a 	mov	fp,r4
 2006200:	01008074 	movhi	r4,513
 2006204:	21348c04 	addi	r4,r4,-11728
 2006208:	b5808014 	ori	r22,r22,512
 200620c:	d900a015 	stw	r4,640(sp)
 2006210:	d9409f15 	stw	r5,636(sp)
 2006214:	040000c4 	movi	r16,3
 2006218:	003ce606 	br	20055b4 <__alt_mem_epcs_flash_controller+0xfdffc5b4>
 200621c:	df009d15 	stw	fp,628(sp)
 2006220:	d9409d17 	ldw	r5,628(sp)
 2006224:	2039883a 	mov	fp,r4
 2006228:	d9005884 	addi	r4,sp,354
 200622c:	200b3c00 	call	200b3c0 <__sccl>
 2006230:	d8809d15 	stw	r2,628(sp)
 2006234:	b5801014 	ori	r22,r22,64
 2006238:	04000044 	movi	r16,1
 200623c:	003cdd06 	br	20055b4 <__alt_mem_epcs_flash_controller+0xfdffc5b4>
 2006240:	df009d15 	stw	fp,628(sp)
 2006244:	b5801014 	ori	r22,r22,64
 2006248:	2039883a 	mov	fp,r4
 200624c:	0021883a 	mov	r16,zero
 2006250:	003cd806 	br	20055b4 <__alt_mem_epcs_flash_controller+0xfdffc5b4>
 2006254:	df009d15 	stw	fp,628(sp)
 2006258:	2039883a 	mov	fp,r4
 200625c:	003ccf06 	br	200559c <__alt_mem_epcs_flash_controller+0xfdffc59c>
 2006260:	85c00043 	ldbu	r23,1(r16)
 2006264:	b5800114 	ori	r22,r22,4
 2006268:	e021883a 	mov	r16,fp
 200626c:	003cbe06 	br	2005568 <__alt_mem_epcs_flash_controller+0xfdffc568>
 2006270:	df009d15 	stw	fp,628(sp)
 2006274:	2039883a 	mov	fp,r4
 2006278:	01008074 	movhi	r4,513
 200627c:	21331e04 	addi	r4,r4,-13192
 2006280:	d900a015 	stw	r4,640(sp)
 2006284:	d8009f15 	stw	zero,636(sp)
 2006288:	040000c4 	movi	r16,3
 200628c:	003cc906 	br	20055b4 <__alt_mem_epcs_flash_controller+0xfdffc5b4>
 2006290:	85c00043 	ldbu	r23,1(r16)
 2006294:	b8803fcc 	andi	r2,r23,255
 2006298:	1080201c 	xori	r2,r2,128
 200629c:	10bfe004 	addi	r2,r2,-128
 20062a0:	11818f26 	beq	r2,r6,20068e0 <__svfscanf_r+0x14f8>
 20062a4:	b5800054 	ori	r22,r22,1
 20062a8:	e021883a 	mov	r16,fp
 20062ac:	003cae06 	br	2005568 <__alt_mem_epcs_flash_controller+0xfdffc568>
 20062b0:	df009d15 	stw	fp,628(sp)
 20062b4:	b080040c 	andi	r2,r22,16
 20062b8:	103cfa1e 	bne	r2,zero,20056a4 <__alt_mem_epcs_flash_controller+0xfdffc6a4>
 20062bc:	b080010c 	andi	r2,r22,4
 20062c0:	10018b26 	beq	r2,zero,20068f0 <__svfscanf_r+0x1508>
 20062c4:	d9009c17 	ldw	r4,624(sp)
 20062c8:	e021883a 	mov	r16,fp
 20062cc:	800d883a 	mov	r6,r16
 20062d0:	20800017 	ldw	r2,0(r4)
 20062d4:	21000104 	addi	r4,r4,4
 20062d8:	d9009c15 	stw	r4,624(sp)
 20062dc:	1500000d 	sth	r20,0(r2)
 20062e0:	003c7a06 	br	20054cc <__alt_mem_epcs_flash_controller+0xfdffc4cc>
 20062e4:	df009d15 	stw	fp,628(sp)
 20062e8:	2039883a 	mov	fp,r4
 20062ec:	003fba06 	br	20061d8 <__alt_mem_epcs_flash_controller+0xfdffd1d8>
 20062f0:	00808074 	movhi	r2,513
 20062f4:	10b48c04 	addi	r2,r2,-11728
 20062f8:	00c00404 	movi	r3,16
 20062fc:	df009d15 	stw	fp,628(sp)
 2006300:	b5808814 	ori	r22,r22,544
 2006304:	2039883a 	mov	fp,r4
 2006308:	d880a015 	stw	r2,640(sp)
 200630c:	d8c09f15 	stw	r3,636(sp)
 2006310:	040000c4 	movi	r16,3
 2006314:	003ca706 	br	20055b4 <__alt_mem_epcs_flash_controller+0xfdffc5b4>
 2006318:	013fff84 	movi	r4,-2
 200631c:	113cdd26 	beq	r2,r4,2005694 <__alt_mem_epcs_flash_controller+0xfdffc694>
 2006320:	a429883a 	add	r20,r20,r16
 2006324:	e73fffc4 	addi	fp,fp,-1
 2006328:	b83cd826 	beq	r23,zero,200568c <__alt_mem_epcs_flash_controller+0xfdffc68c>
 200632c:	0021883a 	mov	r16,zero
 2006330:	003cd806 	br	2005694 <__alt_mem_epcs_flash_controller+0xfdffc694>
 2006334:	1085883a 	add	r2,r2,r2
 2006338:	1085883a 	add	r2,r2,r2
 200633c:	01008034 	movhi	r4,512
 2006340:	2118d404 	addi	r4,r4,25424
 2006344:	1105883a 	add	r2,r2,r4
 2006348:	10800017 	ldw	r2,0(r2)
 200634c:	1000683a 	jmp	r2
 2006350:	02006544 	movi	r8,405
 2006354:	02005b88 	cmpgei	r8,zero,366
 2006358:	02006544 	movi	r8,405
 200635c:	02005b88 	cmpgei	r8,zero,366
 2006360:	02005b88 	cmpgei	r8,zero,366
 2006364:	0200651c 	xori	r8,zero,404
 2006368:	020064fc 	xorhi	r8,zero,403
 200636c:	020064fc 	xorhi	r8,zero,403
 2006370:	020064fc 	xorhi	r8,zero,403
 2006374:	020064fc 	xorhi	r8,zero,403
 2006378:	020064fc 	xorhi	r8,zero,403
 200637c:	020064fc 	xorhi	r8,zero,403
 2006380:	020064fc 	xorhi	r8,zero,403
 2006384:	020064dc 	xori	r8,zero,403
 2006388:	020064dc 	xori	r8,zero,403
 200638c:	02005b88 	cmpgei	r8,zero,366
 2006390:	02005b88 	cmpgei	r8,zero,366
 2006394:	02005b88 	cmpgei	r8,zero,366
 2006398:	02005b88 	cmpgei	r8,zero,366
 200639c:	02005b88 	cmpgei	r8,zero,366
 20063a0:	02005b88 	cmpgei	r8,zero,366
 20063a4:	02005b88 	cmpgei	r8,zero,366
 20063a8:	020064c8 	cmpgei	r8,zero,403
 20063ac:	020064c8 	cmpgei	r8,zero,403
 20063b0:	020064c8 	cmpgei	r8,zero,403
 20063b4:	020064c8 	cmpgei	r8,zero,403
 20063b8:	020064c8 	cmpgei	r8,zero,403
 20063bc:	020064c8 	cmpgei	r8,zero,403
 20063c0:	02005b88 	cmpgei	r8,zero,366
 20063c4:	02005b88 	cmpgei	r8,zero,366
 20063c8:	02005b88 	cmpgei	r8,zero,366
 20063cc:	02005b88 	cmpgei	r8,zero,366
 20063d0:	02005b88 	cmpgei	r8,zero,366
 20063d4:	02005b88 	cmpgei	r8,zero,366
 20063d8:	02005b88 	cmpgei	r8,zero,366
 20063dc:	02005b88 	cmpgei	r8,zero,366
 20063e0:	02005b88 	cmpgei	r8,zero,366
 20063e4:	02005b88 	cmpgei	r8,zero,366
 20063e8:	02005b88 	cmpgei	r8,zero,366
 20063ec:	02005b88 	cmpgei	r8,zero,366
 20063f0:	02005b88 	cmpgei	r8,zero,366
 20063f4:	02005b88 	cmpgei	r8,zero,366
 20063f8:	02005b88 	cmpgei	r8,zero,366
 20063fc:	02005b88 	cmpgei	r8,zero,366
 2006400:	02005b88 	cmpgei	r8,zero,366
 2006404:	02006488 	cmpgei	r8,zero,402
 2006408:	02005b88 	cmpgei	r8,zero,366
 200640c:	02005b88 	cmpgei	r8,zero,366
 2006410:	02005b88 	cmpgei	r8,zero,366
 2006414:	02005b88 	cmpgei	r8,zero,366
 2006418:	02005b88 	cmpgei	r8,zero,366
 200641c:	02005b88 	cmpgei	r8,zero,366
 2006420:	02005b88 	cmpgei	r8,zero,366
 2006424:	02005b88 	cmpgei	r8,zero,366
 2006428:	020064c8 	cmpgei	r8,zero,403
 200642c:	020064c8 	cmpgei	r8,zero,403
 2006430:	020064c8 	cmpgei	r8,zero,403
 2006434:	020064c8 	cmpgei	r8,zero,403
 2006438:	020064c8 	cmpgei	r8,zero,403
 200643c:	020064c8 	cmpgei	r8,zero,403
 2006440:	02005b88 	cmpgei	r8,zero,366
 2006444:	02005b88 	cmpgei	r8,zero,366
 2006448:	02005b88 	cmpgei	r8,zero,366
 200644c:	02005b88 	cmpgei	r8,zero,366
 2006450:	02005b88 	cmpgei	r8,zero,366
 2006454:	02005b88 	cmpgei	r8,zero,366
 2006458:	02005b88 	cmpgei	r8,zero,366
 200645c:	02005b88 	cmpgei	r8,zero,366
 2006460:	02005b88 	cmpgei	r8,zero,366
 2006464:	02005b88 	cmpgei	r8,zero,366
 2006468:	02005b88 	cmpgei	r8,zero,366
 200646c:	02005b88 	cmpgei	r8,zero,366
 2006470:	02005b88 	cmpgei	r8,zero,366
 2006474:	02005b88 	cmpgei	r8,zero,366
 2006478:	02005b88 	cmpgei	r8,zero,366
 200647c:	02005b88 	cmpgei	r8,zero,366
 2006480:	02005b88 	cmpgei	r8,zero,366
 2006484:	02006488 	cmpgei	r8,zero,402
 2006488:	b081800c 	andi	r2,r22,1536
 200648c:	11fdbe1e 	bne	r2,r7,2005b88 <__alt_mem_epcs_flash_controller+0xfdffcb88>
 2006490:	b1ac703a 	and	r22,r22,r6
 2006494:	b5814014 	ori	r22,r22,1280
 2006498:	02400404 	movi	r9,16
 200649c:	a9400005 	stb	r5,0(r21)
 20064a0:	ad400044 	addi	r21,r21,1
 20064a4:	98800117 	ldw	r2,4(r19)
 20064a8:	10bfffc4 	addi	r2,r2,-1
 20064ac:	98800115 	stw	r2,4(r19)
 20064b0:	00803b0e 	bge	zero,r2,20065a0 <__svfscanf_r+0x11b8>
 20064b4:	42000044 	addi	r8,r8,1
 20064b8:	9a000015 	stw	r8,0(r19)
 20064bc:	e73fffc4 	addi	fp,fp,-1
 20064c0:	e03dac1e 	bne	fp,zero,2005b74 <__alt_mem_epcs_flash_controller+0xfdffcb74>
 20064c4:	003db006 	br	2005b88 <__alt_mem_epcs_flash_controller+0xfdffcb88>
 20064c8:	00800284 	movi	r2,10
 20064cc:	127dae0e 	bge	r2,r9,2005b88 <__alt_mem_epcs_flash_controller+0xfdffcb88>
 20064d0:	00bd1fc4 	movi	r2,-2945
 20064d4:	b0ac703a 	and	r22,r22,r2
 20064d8:	003ff006 	br	200649c <__alt_mem_epcs_flash_controller+0xfdffd49c>
 20064dc:	4a53883a 	add	r9,r9,r9
 20064e0:	01008234 	movhi	r4,520
 20064e4:	211ccd84 	addi	r4,r4,29494
 20064e8:	2245883a 	add	r2,r4,r9
 20064ec:	1240000f 	ldh	r9,0(r2)
 20064f0:	00800204 	movi	r2,8
 20064f4:	127ff616 	blt	r2,r9,20064d0 <__alt_mem_epcs_flash_controller+0xfdffd4d0>
 20064f8:	003da306 	br	2005b88 <__alt_mem_epcs_flash_controller+0xfdffcb88>
 20064fc:	4a53883a 	add	r9,r9,r9
 2006500:	01008234 	movhi	r4,520
 2006504:	211ccd84 	addi	r4,r4,29494
 2006508:	2245883a 	add	r2,r4,r9
 200650c:	1240000f 	ldh	r9,0(r2)
 2006510:	00bd1fc4 	movi	r2,-2945
 2006514:	b0ac703a 	and	r22,r22,r2
 2006518:	003fe006 	br	200649c <__alt_mem_epcs_flash_controller+0xfdffd49c>
 200651c:	b082000c 	andi	r2,r22,2048
 2006520:	103fde26 	beq	r2,zero,200649c <__alt_mem_epcs_flash_controller+0xfdffd49c>
 2006524:	4800021e 	bne	r9,zero,2006530 <__svfscanf_r+0x1148>
 2006528:	b5808014 	ori	r22,r22,512
 200652c:	02400204 	movi	r9,8
 2006530:	b081000c 	andi	r2,r22,1024
 2006534:	10009f26 	beq	r2,zero,20067b4 <__svfscanf_r+0x13cc>
 2006538:	00be9fc4 	movi	r2,-1409
 200653c:	b0ac703a 	and	r22,r22,r2
 2006540:	003fd606 	br	200649c <__alt_mem_epcs_flash_controller+0xfdffd49c>
 2006544:	b080200c 	andi	r2,r22,128
 2006548:	103d8f26 	beq	r2,zero,2005b88 <__alt_mem_epcs_flash_controller+0xfdffcb88>
 200654c:	00bfdfc4 	movi	r2,-129
 2006550:	b0ac703a 	and	r22,r22,r2
 2006554:	003fd106 	br	200649c <__alt_mem_epcs_flash_controller+0xfdffd49c>
 2006558:	8809883a 	mov	r4,r17
 200655c:	980b883a 	mov	r5,r19
 2006560:	d8c0a815 	stw	r3,672(sp)
 2006564:	d980a915 	stw	r6,676(sp)
 2006568:	dac0a715 	stw	r11,668(sp)
 200656c:	db00a515 	stw	r12,660(sp)
 2006570:	db80a415 	stw	r14,656(sp)
 2006574:	dbc0a615 	stw	r15,664(sp)
 2006578:	200b1700 	call	200b170 <__srefill_r>
 200657c:	d8c0a817 	ldw	r3,672(sp)
 2006580:	d980a917 	ldw	r6,676(sp)
 2006584:	dac0a717 	ldw	r11,668(sp)
 2006588:	db00a517 	ldw	r12,660(sp)
 200658c:	db80a417 	ldw	r14,656(sp)
 2006590:	dbc0a617 	ldw	r15,664(sp)
 2006594:	103d1e1e 	bne	r2,zero,2005a10 <__alt_mem_epcs_flash_controller+0xfdffca10>
 2006598:	e03d181e 	bne	fp,zero,20059fc <__alt_mem_epcs_flash_controller+0xfdffc9fc>
 200659c:	003d1c06 	br	2005a10 <__alt_mem_epcs_flash_controller+0xfdffca10>
 20065a0:	8809883a 	mov	r4,r17
 20065a4:	980b883a 	mov	r5,r19
 20065a8:	d8c0a815 	stw	r3,672(sp)
 20065ac:	d980a915 	stw	r6,676(sp)
 20065b0:	d9c0a415 	stw	r7,656(sp)
 20065b4:	da40a515 	stw	r9,660(sp)
 20065b8:	200b1700 	call	200b170 <__srefill_r>
 20065bc:	d8c0a817 	ldw	r3,672(sp)
 20065c0:	d980a917 	ldw	r6,676(sp)
 20065c4:	d9c0a417 	ldw	r7,656(sp)
 20065c8:	da40a517 	ldw	r9,660(sp)
 20065cc:	103fbb26 	beq	r2,zero,20064bc <__alt_mem_epcs_flash_controller+0xfdffd4bc>
 20065d0:	003d6d06 	br	2005b88 <__alt_mem_epcs_flash_controller+0xfdffcb88>
 20065d4:	a429883a 	add	r20,r20,r16
 20065d8:	e73fffc4 	addi	fp,fp,-1
 20065dc:	b000fc1e 	bne	r22,zero,20069d0 <__svfscanf_r+0x15e8>
 20065e0:	ad400104 	addi	r21,r21,4
 20065e4:	0021883a 	mov	r16,zero
 20065e8:	98800117 	ldw	r2,4(r19)
 20065ec:	00bd8716 	blt	zero,r2,2005c0c <__alt_mem_epcs_flash_controller+0xfdffcc0c>
 20065f0:	8809883a 	mov	r4,r17
 20065f4:	980b883a 	mov	r5,r19
 20065f8:	200b1700 	call	200b170 <__srefill_r>
 20065fc:	103d8326 	beq	r2,zero,2005c0c <__alt_mem_epcs_flash_controller+0xfdffcc0c>
 2006600:	803caf1e 	bne	r16,zero,20058c0 <__alt_mem_epcs_flash_controller+0xfdffc8c0>
 2006604:	b03c271e 	bne	r22,zero,20056a4 <__alt_mem_epcs_flash_controller+0xfdffc6a4>
 2006608:	d8809e17 	ldw	r2,632(sp)
 200660c:	dc009d17 	ldw	r16,628(sp)
 2006610:	a8000015 	stw	zero,0(r21)
 2006614:	10800044 	addi	r2,r2,1
 2006618:	d8809e15 	stw	r2,632(sp)
 200661c:	800d883a 	mov	r6,r16
 2006620:	003baa06 	br	20054cc <__alt_mem_epcs_flash_controller+0xfdffc4cc>
 2006624:	857ca626 	beq	r16,r21,20058c0 <__alt_mem_epcs_flash_controller+0xfdffc8c0>
 2006628:	ac21c83a 	sub	r16,r21,r16
 200662c:	803bab26 	beq	r16,zero,20054dc <__alt_mem_epcs_flash_controller+0xfdffc4dc>
 2006630:	d8809e17 	ldw	r2,632(sp)
 2006634:	a8000005 	stb	zero,0(r21)
 2006638:	ddc09c15 	stw	r23,624(sp)
 200663c:	10800044 	addi	r2,r2,1
 2006640:	d8809e15 	stw	r2,632(sp)
 2006644:	003d6106 	br	2005bcc <__alt_mem_epcs_flash_controller+0xfdffcbcc>
 2006648:	010000c4 	movi	r4,3
 200664c:	113e8526 	beq	r2,r4,2006064 <__alt_mem_epcs_flash_controller+0xfdffd064>
 2006650:	01000144 	movi	r4,5
 2006654:	113cee1e 	bne	r2,r4,2005a10 <__alt_mem_epcs_flash_controller+0xfdffca10>
 2006658:	84000044 	addi	r16,r16,1
 200665c:	003e4906 	br	2005f84 <__alt_mem_epcs_flash_controller+0xfdffcf84>
 2006660:	00800084 	movi	r2,2
 2006664:	30be781e 	bne	r6,r2,2006048 <__alt_mem_epcs_flash_controller+0xfdffd048>
 2006668:	018000c4 	movi	r6,3
 200666c:	003e4506 	br	2005f84 <__alt_mem_epcs_flash_controller+0xfdffcf84>
 2006670:	d8c0a017 	ldw	r3,640(sp)
 2006674:	d9c09f17 	ldw	r7,636(sp)
 2006678:	8809883a 	mov	r4,r17
 200667c:	d9400104 	addi	r5,sp,4
 2006680:	000d883a 	mov	r6,zero
 2006684:	a8000005 	stb	zero,0(r21)
 2006688:	183ee83a 	callr	r3
 200668c:	b0c0080c 	andi	r3,r22,32
 2006690:	1800391e 	bne	r3,zero,2006778 <__svfscanf_r+0x1390>
 2006694:	b0c0010c 	andi	r3,r22,4
 2006698:	1800ac26 	beq	r3,zero,200694c <__svfscanf_r+0x1564>
 200669c:	d9409c17 	ldw	r5,624(sp)
 20066a0:	28c00017 	ldw	r3,0(r5)
 20066a4:	29400104 	addi	r5,r5,4
 20066a8:	d9409c15 	stw	r5,624(sp)
 20066ac:	1880000d 	sth	r2,0(r3)
 20066b0:	d8809e17 	ldw	r2,632(sp)
 20066b4:	10800044 	addi	r2,r2,1
 20066b8:	d8809e15 	stw	r2,632(sp)
 20066bc:	003d4006 	br	2005bc0 <__alt_mem_epcs_flash_controller+0xfdffcbc0>
 20066c0:	d8c09c17 	ldw	r3,624(sp)
 20066c4:	98800017 	ldw	r2,0(r19)
 20066c8:	1d400017 	ldw	r21,0(r3)
 20066cc:	1d800104 	addi	r22,r3,4
 20066d0:	a821883a 	mov	r16,r21
 20066d4:	10c00003 	ldbu	r3,0(r2)
 20066d8:	91400017 	ldw	r5,0(r18)
 20066dc:	28c7883a 	add	r3,r5,r3
 20066e0:	18c00003 	ldbu	r3,0(r3)
 20066e4:	18c0020c 	andi	r3,r3,8
 20066e8:	18c03fcc 	andi	r3,r3,255
 20066ec:	18c0201c 	xori	r3,r3,128
 20066f0:	18ffe004 	addi	r3,r3,-128
 20066f4:	1800121e 	bne	r3,zero,2006740 <__svfscanf_r+0x1358>
 20066f8:	98c00117 	ldw	r3,4(r19)
 20066fc:	10800044 	addi	r2,r2,1
 2006700:	84000044 	addi	r16,r16,1
 2006704:	18ffffc4 	addi	r3,r3,-1
 2006708:	98c00115 	stw	r3,4(r19)
 200670c:	10ffffc3 	ldbu	r3,-1(r2)
 2006710:	e73fffc4 	addi	fp,fp,-1
 2006714:	80ffffc5 	stb	r3,-1(r16)
 2006718:	98800015 	stw	r2,0(r19)
 200671c:	e0000826 	beq	fp,zero,2006740 <__svfscanf_r+0x1358>
 2006720:	98c00117 	ldw	r3,4(r19)
 2006724:	00ffeb16 	blt	zero,r3,20066d4 <__alt_mem_epcs_flash_controller+0xfdffd6d4>
 2006728:	8809883a 	mov	r4,r17
 200672c:	980b883a 	mov	r5,r19
 2006730:	200b1700 	call	200b170 <__srefill_r>
 2006734:	1000021e 	bne	r2,zero,2006740 <__svfscanf_r+0x1358>
 2006738:	98800017 	ldw	r2,0(r19)
 200673c:	003fe506 	br	20066d4 <__alt_mem_epcs_flash_controller+0xfdffd6d4>
 2006740:	d8809e17 	ldw	r2,632(sp)
 2006744:	856bc83a 	sub	r21,r16,r21
 2006748:	80000005 	stb	zero,0(r16)
 200674c:	dc009d17 	ldw	r16,628(sp)
 2006750:	10800044 	addi	r2,r2,1
 2006754:	a569883a 	add	r20,r20,r21
 2006758:	d8809e15 	stw	r2,632(sp)
 200675c:	dd809c15 	stw	r22,624(sp)
 2006760:	800d883a 	mov	r6,r16
 2006764:	003b5906 	br	20054cc <__alt_mem_epcs_flash_controller+0xfdffc4cc>
 2006768:	dd409b04 	addi	r21,sp,620
 200676c:	003d2506 	br	2005c04 <__alt_mem_epcs_flash_controller+0xfdffcc04>
 2006770:	002d883a 	mov	r22,zero
 2006774:	003ba206 	br	2005600 <__alt_mem_epcs_flash_controller+0xfdffc600>
 2006778:	d9009c17 	ldw	r4,624(sp)
 200677c:	20c00017 	ldw	r3,0(r4)
 2006780:	21000104 	addi	r4,r4,4
 2006784:	d9009c15 	stw	r4,624(sp)
 2006788:	18800015 	stw	r2,0(r3)
 200678c:	003fc806 	br	20066b0 <__alt_mem_epcs_flash_controller+0xfdffd6b0>
 2006790:	b280008c 	andi	r10,r22,2
 2006794:	50008126 	beq	r10,zero,200699c <__svfscanf_r+0x15b4>
 2006798:	d8c09c17 	ldw	r3,624(sp)
 200679c:	18800017 	ldw	r2,0(r3)
 20067a0:	18c00104 	addi	r3,r3,4
 20067a4:	d8c09c15 	stw	r3,624(sp)
 20067a8:	15400015 	stw	r21,0(r2)
 20067ac:	15c00115 	stw	r23,4(r2)
 20067b0:	003cde06 	br	2005b2c <__alt_mem_epcs_flash_controller+0xfdffcb2c>
 20067b4:	00bf1fc4 	movi	r2,-897
 20067b8:	b0ac703a 	and	r22,r22,r2
 20067bc:	18000226 	beq	r3,zero,20067c8 <__svfscanf_r+0x13e0>
 20067c0:	18ffffc4 	addi	r3,r3,-1
 20067c4:	e7000044 	addi	fp,fp,1
 20067c8:	84000044 	addi	r16,r16,1
 20067cc:	003f3506 	br	20064a4 <__alt_mem_epcs_flash_controller+0xfdffd4a4>
 20067d0:	803cfe1e 	bne	r16,zero,2005bcc <__alt_mem_epcs_flash_controller+0xfdffcbcc>
 20067d4:	003b4106 	br	20054dc <__alt_mem_epcs_flash_controller+0xfdffc4dc>
 20067d8:	d8c09c17 	ldw	r3,624(sp)
 20067dc:	01400044 	movi	r5,1
 20067e0:	e00d883a 	mov	r6,fp
 20067e4:	19000017 	ldw	r4,0(r3)
 20067e8:	980f883a 	mov	r7,r19
 20067ec:	20089980 	call	2008998 <fread>
 20067f0:	d9009c17 	ldw	r4,624(sp)
 20067f4:	20c00104 	addi	r3,r4,4
 20067f8:	103c3126 	beq	r2,zero,20058c0 <__alt_mem_epcs_flash_controller+0xfdffc8c0>
 20067fc:	1529883a 	add	r20,r2,r20
 2006800:	d8809e17 	ldw	r2,632(sp)
 2006804:	dc009d17 	ldw	r16,628(sp)
 2006808:	d8c09c15 	stw	r3,624(sp)
 200680c:	10800044 	addi	r2,r2,1
 2006810:	d8809e15 	stw	r2,632(sp)
 2006814:	800d883a 	mov	r6,r16
 2006818:	003b2c06 	br	20054cc <__alt_mem_epcs_flash_controller+0xfdffc4cc>
 200681c:	00ffff84 	movi	r3,-2
 2006820:	10ff7126 	beq	r2,r3,20065e8 <__alt_mem_epcs_flash_controller+0xfdffd5e8>
 2006824:	a9000017 	ldw	r4,0(r21)
 2006828:	20092c80 	call	20092c8 <iswspace>
 200682c:	103f6926 	beq	r2,zero,20065d4 <__alt_mem_epcs_flash_controller+0xfdffd5d4>
 2006830:	803f7426 	beq	r16,zero,2006604 <__alt_mem_epcs_flash_controller+0xfdffd604>
 2006834:	843fffc4 	addi	r16,r16,-1
 2006838:	d9000104 	addi	r4,sp,4
 200683c:	2405883a 	add	r2,r4,r16
 2006840:	11400003 	ldbu	r5,0(r2)
 2006844:	8809883a 	mov	r4,r17
 2006848:	980d883a 	mov	r6,r19
 200684c:	200d97c0 	call	200d97c <_ungetc_r>
 2006850:	803ff81e 	bne	r16,zero,2006834 <__alt_mem_epcs_flash_controller+0xfdffd834>
 2006854:	003f6b06 	br	2006604 <__alt_mem_epcs_flash_controller+0xfdffd604>
 2006858:	99000017 	ldw	r4,0(r19)
 200685c:	1705c83a 	sub	r2,r2,fp
 2006860:	8721883a 	add	r16,r16,fp
 2006864:	2707883a 	add	r3,r4,fp
 2006868:	98800115 	stw	r2,4(r19)
 200686c:	98c00015 	stw	r3,0(r19)
 2006870:	003cd606 	br	2005bcc <__alt_mem_epcs_flash_controller+0xfdffcbcc>
 2006874:	d880a117 	ldw	r2,644(sp)
 2006878:	000d883a 	mov	r6,zero
 200687c:	8809883a 	mov	r4,r17
 2006880:	11400044 	addi	r5,r2,1
 2006884:	01c00284 	movi	r7,10
 2006888:	200cc780 	call	200cc78 <_strtol_r>
 200688c:	d8c0a317 	ldw	r3,652(sp)
 2006890:	10cdc83a 	sub	r6,r2,r3
 2006894:	d900a117 	ldw	r4,644(sp)
 2006898:	d88055c4 	addi	r2,sp,343
 200689c:	20800236 	bltu	r4,r2,20068a8 <__svfscanf_r+0x14c0>
 20068a0:	d9005584 	addi	r4,sp,342
 20068a4:	d900a115 	stw	r4,644(sp)
 20068a8:	d900a117 	ldw	r4,644(sp)
 20068ac:	01408234 	movhi	r5,520
 20068b0:	295ccc04 	addi	r5,r5,29488
 20068b4:	200b4e40 	call	200b4e4 <sprintf>
 20068b8:	003c8e06 	br	2005af4 <__alt_mem_epcs_flash_controller+0xfdffcaf4>
 20068bc:	b32c703a 	and	r22,r22,r12
 20068c0:	01800044 	movi	r6,1
 20068c4:	003daf06 	br	2005f84 <__alt_mem_epcs_flash_controller+0xfdffcf84>
 20068c8:	d8c0a217 	ldw	r3,648(sp)
 20068cc:	a8ebc83a 	sub	r21,r21,r3
 20068d0:	054dc83a 	sub	r6,zero,r21
 20068d4:	a83c8726 	beq	r21,zero,2005af4 <__alt_mem_epcs_flash_controller+0xfdffcaf4>
 20068d8:	ddc0a115 	stw	r23,644(sp)
 20068dc:	003fed06 	br	2006894 <__alt_mem_epcs_flash_controller+0xfdffd894>
 20068e0:	85c00083 	ldbu	r23,2(r16)
 20068e4:	b5800094 	ori	r22,r22,2
 20068e8:	84000084 	addi	r16,r16,2
 20068ec:	003b1e06 	br	2005568 <__alt_mem_epcs_flash_controller+0xfdffc568>
 20068f0:	b080004c 	andi	r2,r22,1
 20068f4:	10000d1e 	bne	r2,zero,200692c <__svfscanf_r+0x1544>
 20068f8:	b580008c 	andi	r22,r22,2
 20068fc:	b0000b26 	beq	r22,zero,200692c <__svfscanf_r+0x1544>
 2006900:	d8c09c17 	ldw	r3,624(sp)
 2006904:	d9009c17 	ldw	r4,624(sp)
 2006908:	dc009d17 	ldw	r16,628(sp)
 200690c:	18800017 	ldw	r2,0(r3)
 2006910:	a007d7fa 	srai	r3,r20,31
 2006914:	21000104 	addi	r4,r4,4
 2006918:	15000015 	stw	r20,0(r2)
 200691c:	10c00115 	stw	r3,4(r2)
 2006920:	d9009c15 	stw	r4,624(sp)
 2006924:	800d883a 	mov	r6,r16
 2006928:	003ae806 	br	20054cc <__alt_mem_epcs_flash_controller+0xfdffc4cc>
 200692c:	d9409c17 	ldw	r5,624(sp)
 2006930:	dc009d17 	ldw	r16,628(sp)
 2006934:	28800017 	ldw	r2,0(r5)
 2006938:	29400104 	addi	r5,r5,4
 200693c:	d9409c15 	stw	r5,624(sp)
 2006940:	15000015 	stw	r20,0(r2)
 2006944:	800d883a 	mov	r6,r16
 2006948:	003ae006 	br	20054cc <__alt_mem_epcs_flash_controller+0xfdffc4cc>
 200694c:	b0c0004c 	andi	r3,r22,1
 2006950:	183f891e 	bne	r3,zero,2006778 <__alt_mem_epcs_flash_controller+0xfdffd778>
 2006954:	b580008c 	andi	r22,r22,2
 2006958:	b03f8726 	beq	r22,zero,2006778 <__alt_mem_epcs_flash_controller+0xfdffd778>
 200695c:	d940a017 	ldw	r5,640(sp)
 2006960:	00808074 	movhi	r2,513
 2006964:	10b48c04 	addi	r2,r2,-11728
 2006968:	8809883a 	mov	r4,r17
 200696c:	28802626 	beq	r5,r2,2006a08 <__svfscanf_r+0x1620>
 2006970:	d9c09f17 	ldw	r7,636(sp)
 2006974:	d9400104 	addi	r5,sp,4
 2006978:	000d883a 	mov	r6,zero
 200697c:	200cf000 	call	200cf00 <_strtoll_r>
 2006980:	d9409c17 	ldw	r5,624(sp)
 2006984:	29000017 	ldw	r4,0(r5)
 2006988:	29400104 	addi	r5,r5,4
 200698c:	d9409c15 	stw	r5,624(sp)
 2006990:	20800015 	stw	r2,0(r4)
 2006994:	20c00115 	stw	r3,4(r4)
 2006998:	003f4506 	br	20066b0 <__alt_mem_epcs_flash_controller+0xfdffd6b0>
 200699c:	d8809c17 	ldw	r2,624(sp)
 20069a0:	a809883a 	mov	r4,r21
 20069a4:	180b883a 	mov	r5,r3
 20069a8:	14000104 	addi	r16,r2,4
 20069ac:	15800017 	ldw	r22,0(r2)
 20069b0:	200b3940 	call	200b394 <__isnand>
 20069b4:	1000311e 	bne	r2,zero,2006a7c <__svfscanf_r+0x1694>
 20069b8:	a809883a 	mov	r4,r21
 20069bc:	b80b883a 	mov	r5,r23
 20069c0:	200fcb00 	call	200fcb0 <__truncdfsf2>
 20069c4:	b0800015 	stw	r2,0(r22)
 20069c8:	dc009c15 	stw	r16,624(sp)
 20069cc:	003c5706 	br	2005b2c <__alt_mem_epcs_flash_controller+0xfdffcb2c>
 20069d0:	0021883a 	mov	r16,zero
 20069d4:	003f0406 	br	20065e8 <__alt_mem_epcs_flash_controller+0xfdffd5e8>
 20069d8:	d9400104 	addi	r5,sp,4
 20069dc:	9821883a 	mov	r16,r19
 20069e0:	2dfabe2e 	bgeu	r5,r23,20054dc <__alt_mem_epcs_flash_controller+0xfdffc4dc>
 20069e4:	bcbfffc4 	addi	r18,r23,-1
 20069e8:	dcc000c4 	addi	r19,sp,3
 20069ec:	91400007 	ldb	r5,0(r18)
 20069f0:	8809883a 	mov	r4,r17
 20069f4:	94bfffc4 	addi	r18,r18,-1
 20069f8:	800d883a 	mov	r6,r16
 20069fc:	200d97c0 	call	200d97c <_ungetc_r>
 2006a00:	94fffa1e 	bne	r18,r19,20069ec <__alt_mem_epcs_flash_controller+0xfdffd9ec>
 2006a04:	003ab506 	br	20054dc <__alt_mem_epcs_flash_controller+0xfdffc4dc>
 2006a08:	d9c09f17 	ldw	r7,636(sp)
 2006a0c:	d9400104 	addi	r5,sp,4
 2006a10:	000d883a 	mov	r6,zero
 2006a14:	200d4f80 	call	200d4f8 <_strtoull_r>
 2006a18:	003fd906 	br	2006980 <__alt_mem_epcs_flash_controller+0xfdffd980>
 2006a1c:	d9000104 	addi	r4,sp,4
 2006a20:	9821883a 	mov	r16,r19
 2006a24:	25faad2e 	bgeu	r4,r23,20054dc <__alt_mem_epcs_flash_controller+0xfdffc4dc>
 2006a28:	bcbfffc4 	addi	r18,r23,-1
 2006a2c:	dcc000c4 	addi	r19,sp,3
 2006a30:	91400007 	ldb	r5,0(r18)
 2006a34:	8809883a 	mov	r4,r17
 2006a38:	94bfffc4 	addi	r18,r18,-1
 2006a3c:	800d883a 	mov	r6,r16
 2006a40:	200d97c0 	call	200d97c <_ungetc_r>
 2006a44:	94fffa1e 	bne	r18,r19,2006a30 <__alt_mem_epcs_flash_controller+0xfdffda30>
 2006a48:	003aa406 	br	20054dc <__alt_mem_epcs_flash_controller+0xfdffc4dc>
 2006a4c:	d8c00104 	addi	r3,sp,4
 2006a50:	9821883a 	mov	r16,r19
 2006a54:	1dfaa12e 	bgeu	r3,r23,20054dc <__alt_mem_epcs_flash_controller+0xfdffc4dc>
 2006a58:	bcbfffc4 	addi	r18,r23,-1
 2006a5c:	dcc000c4 	addi	r19,sp,3
 2006a60:	91400007 	ldb	r5,0(r18)
 2006a64:	8809883a 	mov	r4,r17
 2006a68:	94bfffc4 	addi	r18,r18,-1
 2006a6c:	800d883a 	mov	r6,r16
 2006a70:	200d97c0 	call	200d97c <_ungetc_r>
 2006a74:	94fffa1e 	bne	r18,r19,2006a60 <__alt_mem_epcs_flash_controller+0xfdffda60>
 2006a78:	003a9806 	br	20054dc <__alt_mem_epcs_flash_controller+0xfdffc4dc>
 2006a7c:	0009883a 	mov	r4,zero
 2006a80:	200b4840 	call	200b484 <nanf>
 2006a84:	b0800015 	stw	r2,0(r22)
 2006a88:	dc009c15 	stw	r16,624(sp)
 2006a8c:	003c2706 	br	2005b2c <__alt_mem_epcs_flash_controller+0xfdffcb2c>

02006a90 <_vfscanf_r>:
 2006a90:	defffb04 	addi	sp,sp,-20
 2006a94:	dc000315 	stw	r16,12(sp)
 2006a98:	dfc00415 	stw	ra,16(sp)
 2006a9c:	2021883a 	mov	r16,r4
 2006aa0:	20000926 	beq	r4,zero,2006ac8 <_vfscanf_r+0x38>
 2006aa4:	20800e17 	ldw	r2,56(r4)
 2006aa8:	1000071e 	bne	r2,zero,2006ac8 <_vfscanf_r+0x38>
 2006aac:	d9400015 	stw	r5,0(sp)
 2006ab0:	d9800115 	stw	r6,4(sp)
 2006ab4:	d9c00215 	stw	r7,8(sp)
 2006ab8:	20025700 	call	2002570 <__sinit>
 2006abc:	d9c00217 	ldw	r7,8(sp)
 2006ac0:	d9800117 	ldw	r6,4(sp)
 2006ac4:	d9400017 	ldw	r5,0(sp)
 2006ac8:	8009883a 	mov	r4,r16
 2006acc:	dfc00417 	ldw	ra,16(sp)
 2006ad0:	dc000317 	ldw	r16,12(sp)
 2006ad4:	dec00504 	addi	sp,sp,20
 2006ad8:	20053e81 	jmpi	20053e8 <__svfscanf_r>

02006adc <__svfscanf>:
 2006adc:	00808274 	movhi	r2,521
 2006ae0:	10a55004 	addi	r2,r2,-27328
 2006ae4:	2007883a 	mov	r3,r4
 2006ae8:	11000017 	ldw	r4,0(r2)
 2006aec:	2805883a 	mov	r2,r5
 2006af0:	300f883a 	mov	r7,r6
 2006af4:	180b883a 	mov	r5,r3
 2006af8:	100d883a 	mov	r6,r2
 2006afc:	20053e81 	jmpi	20053e8 <__svfscanf_r>

02006b00 <vfscanf>:
 2006b00:	defffb04 	addi	sp,sp,-20
 2006b04:	dc000115 	stw	r16,4(sp)
 2006b08:	04008274 	movhi	r16,521
 2006b0c:	84255004 	addi	r16,r16,-27328
 2006b10:	80800017 	ldw	r2,0(r16)
 2006b14:	dc800315 	stw	r18,12(sp)
 2006b18:	dc400215 	stw	r17,8(sp)
 2006b1c:	dfc00415 	stw	ra,16(sp)
 2006b20:	2025883a 	mov	r18,r4
 2006b24:	2823883a 	mov	r17,r5
 2006b28:	300f883a 	mov	r7,r6
 2006b2c:	10000726 	beq	r2,zero,2006b4c <vfscanf+0x4c>
 2006b30:	10c00e17 	ldw	r3,56(r2)
 2006b34:	1800051e 	bne	r3,zero,2006b4c <vfscanf+0x4c>
 2006b38:	1009883a 	mov	r4,r2
 2006b3c:	d9800015 	stw	r6,0(sp)
 2006b40:	20025700 	call	2002570 <__sinit>
 2006b44:	80800017 	ldw	r2,0(r16)
 2006b48:	d9c00017 	ldw	r7,0(sp)
 2006b4c:	1009883a 	mov	r4,r2
 2006b50:	900b883a 	mov	r5,r18
 2006b54:	880d883a 	mov	r6,r17
 2006b58:	dfc00417 	ldw	ra,16(sp)
 2006b5c:	dc800317 	ldw	r18,12(sp)
 2006b60:	dc400217 	ldw	r17,8(sp)
 2006b64:	dc000117 	ldw	r16,4(sp)
 2006b68:	dec00504 	addi	sp,sp,20
 2006b6c:	20053e81 	jmpi	20053e8 <__svfscanf_r>

02006b70 <_write_r>:
 2006b70:	defffd04 	addi	sp,sp,-12
 2006b74:	dc400115 	stw	r17,4(sp)
 2006b78:	dc000015 	stw	r16,0(sp)
 2006b7c:	2023883a 	mov	r17,r4
 2006b80:	04008274 	movhi	r16,521
 2006b84:	842cc804 	addi	r16,r16,-19680
 2006b88:	2809883a 	mov	r4,r5
 2006b8c:	300b883a 	mov	r5,r6
 2006b90:	380d883a 	mov	r6,r7
 2006b94:	dfc00215 	stw	ra,8(sp)
 2006b98:	80000015 	stw	zero,0(r16)
 2006b9c:	2010d7c0 	call	2010d7c <write>
 2006ba0:	00ffffc4 	movi	r3,-1
 2006ba4:	10c00526 	beq	r2,r3,2006bbc <_write_r+0x4c>
 2006ba8:	dfc00217 	ldw	ra,8(sp)
 2006bac:	dc400117 	ldw	r17,4(sp)
 2006bb0:	dc000017 	ldw	r16,0(sp)
 2006bb4:	dec00304 	addi	sp,sp,12
 2006bb8:	f800283a 	ret
 2006bbc:	80c00017 	ldw	r3,0(r16)
 2006bc0:	183ff926 	beq	r3,zero,2006ba8 <__alt_mem_epcs_flash_controller+0xfdffdba8>
 2006bc4:	88c00015 	stw	r3,0(r17)
 2006bc8:	dfc00217 	ldw	ra,8(sp)
 2006bcc:	dc400117 	ldw	r17,4(sp)
 2006bd0:	dc000017 	ldw	r16,0(sp)
 2006bd4:	dec00304 	addi	sp,sp,12
 2006bd8:	f800283a 	ret

02006bdc <__swsetup_r>:
 2006bdc:	00808274 	movhi	r2,521
 2006be0:	10a55004 	addi	r2,r2,-27328
 2006be4:	10800017 	ldw	r2,0(r2)
 2006be8:	defffd04 	addi	sp,sp,-12
 2006bec:	dc400115 	stw	r17,4(sp)
 2006bf0:	dc000015 	stw	r16,0(sp)
 2006bf4:	dfc00215 	stw	ra,8(sp)
 2006bf8:	2023883a 	mov	r17,r4
 2006bfc:	2821883a 	mov	r16,r5
 2006c00:	10000226 	beq	r2,zero,2006c0c <__swsetup_r+0x30>
 2006c04:	10c00e17 	ldw	r3,56(r2)
 2006c08:	18003d26 	beq	r3,zero,2006d00 <__swsetup_r+0x124>
 2006c0c:	8080030b 	ldhu	r2,12(r16)
 2006c10:	10c0020c 	andi	r3,r2,8
 2006c14:	18ffffcc 	andi	r3,r3,65535
 2006c18:	18e0001c 	xori	r3,r3,32768
 2006c1c:	18e00004 	addi	r3,r3,-32768
 2006c20:	18001226 	beq	r3,zero,2006c6c <__swsetup_r+0x90>
 2006c24:	80c00417 	ldw	r3,16(r16)
 2006c28:	18001f26 	beq	r3,zero,2006ca8 <__swsetup_r+0xcc>
 2006c2c:	1100004c 	andi	r4,r2,1
 2006c30:	2000261e 	bne	r4,zero,2006ccc <__swsetup_r+0xf0>
 2006c34:	1080008c 	andi	r2,r2,2
 2006c38:	10bfffcc 	andi	r2,r2,65535
 2006c3c:	10a0001c 	xori	r2,r2,32768
 2006c40:	10a00004 	addi	r2,r2,-32768
 2006c44:	1000311e 	bne	r2,zero,2006d0c <__swsetup_r+0x130>
 2006c48:	80800517 	ldw	r2,20(r16)
 2006c4c:	80800215 	stw	r2,8(r16)
 2006c50:	18002326 	beq	r3,zero,2006ce0 <__swsetup_r+0x104>
 2006c54:	0005883a 	mov	r2,zero
 2006c58:	dfc00217 	ldw	ra,8(sp)
 2006c5c:	dc400117 	ldw	r17,4(sp)
 2006c60:	dc000017 	ldw	r16,0(sp)
 2006c64:	dec00304 	addi	sp,sp,12
 2006c68:	f800283a 	ret
 2006c6c:	10c0040c 	andi	r3,r2,16
 2006c70:	18ffffcc 	andi	r3,r3,65535
 2006c74:	18e0001c 	xori	r3,r3,32768
 2006c78:	18e00004 	addi	r3,r3,-32768
 2006c7c:	18001e26 	beq	r3,zero,2006cf8 <__swsetup_r+0x11c>
 2006c80:	10c0010c 	andi	r3,r2,4
 2006c84:	18ffffcc 	andi	r3,r3,65535
 2006c88:	18e0001c 	xori	r3,r3,32768
 2006c8c:	18e00004 	addi	r3,r3,-32768
 2006c90:	1800211e 	bne	r3,zero,2006d18 <__swsetup_r+0x13c>
 2006c94:	80c00417 	ldw	r3,16(r16)
 2006c98:	11400214 	ori	r5,r2,8
 2006c9c:	8140030d 	sth	r5,12(r16)
 2006ca0:	2805883a 	mov	r2,r5
 2006ca4:	183fe11e 	bne	r3,zero,2006c2c <__alt_mem_epcs_flash_controller+0xfdffdc2c>
 2006ca8:	1140a00c 	andi	r5,r2,640
 2006cac:	01008004 	movi	r4,512
 2006cb0:	293fde26 	beq	r5,r4,2006c2c <__alt_mem_epcs_flash_controller+0xfdffdc2c>
 2006cb4:	8809883a 	mov	r4,r17
 2006cb8:	800b883a 	mov	r5,r16
 2006cbc:	20094480 	call	2009448 <__smakebuf_r>
 2006cc0:	8080030b 	ldhu	r2,12(r16)
 2006cc4:	80c00417 	ldw	r3,16(r16)
 2006cc8:	003fd806 	br	2006c2c <__alt_mem_epcs_flash_controller+0xfdffdc2c>
 2006ccc:	80800517 	ldw	r2,20(r16)
 2006cd0:	80000215 	stw	zero,8(r16)
 2006cd4:	0085c83a 	sub	r2,zero,r2
 2006cd8:	80800615 	stw	r2,24(r16)
 2006cdc:	183fdd1e 	bne	r3,zero,2006c54 <__alt_mem_epcs_flash_controller+0xfdffdc54>
 2006ce0:	8080030b 	ldhu	r2,12(r16)
 2006ce4:	1080200c 	andi	r2,r2,128
 2006ce8:	10bfffcc 	andi	r2,r2,65535
 2006cec:	10a0001c 	xori	r2,r2,32768
 2006cf0:	10a00004 	addi	r2,r2,-32768
 2006cf4:	103fd826 	beq	r2,zero,2006c58 <__alt_mem_epcs_flash_controller+0xfdffdc58>
 2006cf8:	00bfffc4 	movi	r2,-1
 2006cfc:	003fd606 	br	2006c58 <__alt_mem_epcs_flash_controller+0xfdffdc58>
 2006d00:	1009883a 	mov	r4,r2
 2006d04:	20025700 	call	2002570 <__sinit>
 2006d08:	003fc006 	br	2006c0c <__alt_mem_epcs_flash_controller+0xfdffdc0c>
 2006d0c:	0005883a 	mov	r2,zero
 2006d10:	80800215 	stw	r2,8(r16)
 2006d14:	003fce06 	br	2006c50 <__alt_mem_epcs_flash_controller+0xfdffdc50>
 2006d18:	81400c17 	ldw	r5,48(r16)
 2006d1c:	28000626 	beq	r5,zero,2006d38 <__swsetup_r+0x15c>
 2006d20:	80c01004 	addi	r3,r16,64
 2006d24:	28c00326 	beq	r5,r3,2006d34 <__swsetup_r+0x158>
 2006d28:	8809883a 	mov	r4,r17
 2006d2c:	2008b140 	call	2008b14 <_free_r>
 2006d30:	8080030b 	ldhu	r2,12(r16)
 2006d34:	80000c15 	stw	zero,48(r16)
 2006d38:	80c00417 	ldw	r3,16(r16)
 2006d3c:	013ff6c4 	movi	r4,-37
 2006d40:	2084703a 	and	r2,r4,r2
 2006d44:	80000115 	stw	zero,4(r16)
 2006d48:	80c00015 	stw	r3,0(r16)
 2006d4c:	003fd206 	br	2006c98 <__alt_mem_epcs_flash_controller+0xfdffdc98>

02006d50 <_close_r>:
 2006d50:	defffd04 	addi	sp,sp,-12
 2006d54:	dc400115 	stw	r17,4(sp)
 2006d58:	dc000015 	stw	r16,0(sp)
 2006d5c:	2023883a 	mov	r17,r4
 2006d60:	04008274 	movhi	r16,521
 2006d64:	842cc804 	addi	r16,r16,-19680
 2006d68:	2809883a 	mov	r4,r5
 2006d6c:	dfc00215 	stw	ra,8(sp)
 2006d70:	80000015 	stw	zero,0(r16)
 2006d74:	20103680 	call	2010368 <close>
 2006d78:	00ffffc4 	movi	r3,-1
 2006d7c:	10c00526 	beq	r2,r3,2006d94 <_close_r+0x44>
 2006d80:	dfc00217 	ldw	ra,8(sp)
 2006d84:	dc400117 	ldw	r17,4(sp)
 2006d88:	dc000017 	ldw	r16,0(sp)
 2006d8c:	dec00304 	addi	sp,sp,12
 2006d90:	f800283a 	ret
 2006d94:	80c00017 	ldw	r3,0(r16)
 2006d98:	183ff926 	beq	r3,zero,2006d80 <__alt_mem_epcs_flash_controller+0xfdffdd80>
 2006d9c:	88c00015 	stw	r3,0(r17)
 2006da0:	dfc00217 	ldw	ra,8(sp)
 2006da4:	dc400117 	ldw	r17,4(sp)
 2006da8:	dc000017 	ldw	r16,0(sp)
 2006dac:	dec00304 	addi	sp,sp,12
 2006db0:	f800283a 	ret

02006db4 <quorem>:
 2006db4:	defff204 	addi	sp,sp,-56
 2006db8:	dd000815 	stw	r20,32(sp)
 2006dbc:	20800417 	ldw	r2,16(r4)
 2006dc0:	2d000417 	ldw	r20,16(r5)
 2006dc4:	dcc00715 	stw	r19,28(sp)
 2006dc8:	dfc00d15 	stw	ra,52(sp)
 2006dcc:	df000c15 	stw	fp,48(sp)
 2006dd0:	ddc00b15 	stw	r23,44(sp)
 2006dd4:	dd800a15 	stw	r22,40(sp)
 2006dd8:	dd400915 	stw	r21,36(sp)
 2006ddc:	dc800615 	stw	r18,24(sp)
 2006de0:	dc400515 	stw	r17,20(sp)
 2006de4:	dc000415 	stw	r16,16(sp)
 2006de8:	d9400015 	stw	r5,0(sp)
 2006dec:	2027883a 	mov	r19,r4
 2006df0:	15007d16 	blt	r2,r20,2006fe8 <quorem+0x234>
 2006df4:	a0800104 	addi	r2,r20,4
 2006df8:	1085883a 	add	r2,r2,r2
 2006dfc:	1085883a 	add	r2,r2,r2
 2006e00:	28ad883a 	add	r22,r5,r2
 2006e04:	2085883a 	add	r2,r4,r2
 2006e08:	10800017 	ldw	r2,0(r2)
 2006e0c:	b1400017 	ldw	r5,0(r22)
 2006e10:	a53fffc4 	addi	r20,r20,-1
 2006e14:	1009883a 	mov	r4,r2
 2006e18:	29400044 	addi	r5,r5,1
 2006e1c:	d8800115 	stw	r2,4(sp)
 2006e20:	2001d100 	call	2001d10 <__udivsi3>
 2006e24:	1025883a 	mov	r18,r2
 2006e28:	d8800017 	ldw	r2,0(sp)
 2006e2c:	9f000504 	addi	fp,r19,20
 2006e30:	14000504 	addi	r16,r2,20
 2006e34:	90003626 	beq	r18,zero,2006f10 <quorem+0x15c>
 2006e38:	802b883a 	mov	r21,r16
 2006e3c:	e023883a 	mov	r17,fp
 2006e40:	0007883a 	mov	r3,zero
 2006e44:	002f883a 	mov	r23,zero
 2006e48:	a9800017 	ldw	r6,0(r21)
 2006e4c:	900b883a 	mov	r5,r18
 2006e50:	d8c00315 	stw	r3,12(sp)
 2006e54:	313fffcc 	andi	r4,r6,65535
 2006e58:	d9800215 	stw	r6,8(sp)
 2006e5c:	2001d200 	call	2001d20 <__mulsi3>
 2006e60:	d9800217 	ldw	r6,8(sp)
 2006e64:	d8c00317 	ldw	r3,12(sp)
 2006e68:	900b883a 	mov	r5,r18
 2006e6c:	3008d43a 	srli	r4,r6,16
 2006e70:	1887883a 	add	r3,r3,r2
 2006e74:	d8c00315 	stw	r3,12(sp)
 2006e78:	2001d200 	call	2001d20 <__mulsi3>
 2006e7c:	89400017 	ldw	r5,0(r17)
 2006e80:	d8c00317 	ldw	r3,12(sp)
 2006e84:	ad400104 	addi	r21,r21,4
 2006e88:	293fffcc 	andi	r4,r5,65535
 2006e8c:	1810d43a 	srli	r8,r3,16
 2006e90:	25c9883a 	add	r4,r4,r23
 2006e94:	18ffffcc 	andi	r3,r3,65535
 2006e98:	20c9c83a 	sub	r4,r4,r3
 2006e9c:	280cd43a 	srli	r6,r5,16
 2006ea0:	4085883a 	add	r2,r8,r2
 2006ea4:	2007d43a 	srai	r3,r4,16
 2006ea8:	117fffcc 	andi	r5,r2,65535
 2006eac:	314bc83a 	sub	r5,r6,r5
 2006eb0:	28cb883a 	add	r5,r5,r3
 2006eb4:	8940008d 	sth	r5,2(r17)
 2006eb8:	8900000d 	sth	r4,0(r17)
 2006ebc:	1006d43a 	srli	r3,r2,16
 2006ec0:	282fd43a 	srai	r23,r5,16
 2006ec4:	8c400104 	addi	r17,r17,4
 2006ec8:	b57fdf2e 	bgeu	r22,r21,2006e48 <__alt_mem_epcs_flash_controller+0xfdffde48>
 2006ecc:	d8c00117 	ldw	r3,4(sp)
 2006ed0:	18000f1e 	bne	r3,zero,2006f10 <quorem+0x15c>
 2006ed4:	a0800144 	addi	r2,r20,5
 2006ed8:	1085883a 	add	r2,r2,r2
 2006edc:	1085883a 	add	r2,r2,r2
 2006ee0:	9887883a 	add	r3,r19,r2
 2006ee4:	18bfff04 	addi	r2,r3,-4
 2006ee8:	e080082e 	bgeu	fp,r2,2006f0c <quorem+0x158>
 2006eec:	18ffff17 	ldw	r3,-4(r3)
 2006ef0:	18000326 	beq	r3,zero,2006f00 <quorem+0x14c>
 2006ef4:	00000506 	br	2006f0c <quorem+0x158>
 2006ef8:	10c00017 	ldw	r3,0(r2)
 2006efc:	1800031e 	bne	r3,zero,2006f0c <quorem+0x158>
 2006f00:	10bfff04 	addi	r2,r2,-4
 2006f04:	a53fffc4 	addi	r20,r20,-1
 2006f08:	e0bffb36 	bltu	fp,r2,2006ef8 <__alt_mem_epcs_flash_controller+0xfdffdef8>
 2006f0c:	9d000415 	stw	r20,16(r19)
 2006f10:	d9400017 	ldw	r5,0(sp)
 2006f14:	9809883a 	mov	r4,r19
 2006f18:	200a3e80 	call	200a3e8 <__mcmp>
 2006f1c:	10002516 	blt	r2,zero,2006fb4 <quorem+0x200>
 2006f20:	94800044 	addi	r18,r18,1
 2006f24:	e007883a 	mov	r3,fp
 2006f28:	000d883a 	mov	r6,zero
 2006f2c:	18800017 	ldw	r2,0(r3)
 2006f30:	82000017 	ldw	r8,0(r16)
 2006f34:	84000104 	addi	r16,r16,4
 2006f38:	11ffffcc 	andi	r7,r2,65535
 2006f3c:	413fffcc 	andi	r4,r8,65535
 2006f40:	398d883a 	add	r6,r7,r6
 2006f44:	310fc83a 	sub	r7,r6,r4
 2006f48:	4010d43a 	srli	r8,r8,16
 2006f4c:	100cd43a 	srli	r6,r2,16
 2006f50:	3809d43a 	srai	r4,r7,16
 2006f54:	19c0000d 	sth	r7,0(r3)
 2006f58:	320dc83a 	sub	r6,r6,r8
 2006f5c:	310d883a 	add	r6,r6,r4
 2006f60:	1980008d 	sth	r6,2(r3)
 2006f64:	300dd43a 	srai	r6,r6,16
 2006f68:	18c00104 	addi	r3,r3,4
 2006f6c:	b43fef2e 	bgeu	r22,r16,2006f2c <__alt_mem_epcs_flash_controller+0xfdffdf2c>
 2006f70:	a0800144 	addi	r2,r20,5
 2006f74:	1085883a 	add	r2,r2,r2
 2006f78:	1085883a 	add	r2,r2,r2
 2006f7c:	9885883a 	add	r2,r19,r2
 2006f80:	10c00017 	ldw	r3,0(r2)
 2006f84:	18000b1e 	bne	r3,zero,2006fb4 <quorem+0x200>
 2006f88:	10ffff04 	addi	r3,r2,-4
 2006f8c:	e0c0082e 	bgeu	fp,r3,2006fb0 <quorem+0x1fc>
 2006f90:	10bfff17 	ldw	r2,-4(r2)
 2006f94:	10000326 	beq	r2,zero,2006fa4 <quorem+0x1f0>
 2006f98:	00000506 	br	2006fb0 <quorem+0x1fc>
 2006f9c:	18800017 	ldw	r2,0(r3)
 2006fa0:	1000031e 	bne	r2,zero,2006fb0 <quorem+0x1fc>
 2006fa4:	18ffff04 	addi	r3,r3,-4
 2006fa8:	a53fffc4 	addi	r20,r20,-1
 2006fac:	e0fffb36 	bltu	fp,r3,2006f9c <__alt_mem_epcs_flash_controller+0xfdffdf9c>
 2006fb0:	9d000415 	stw	r20,16(r19)
 2006fb4:	9005883a 	mov	r2,r18
 2006fb8:	dfc00d17 	ldw	ra,52(sp)
 2006fbc:	df000c17 	ldw	fp,48(sp)
 2006fc0:	ddc00b17 	ldw	r23,44(sp)
 2006fc4:	dd800a17 	ldw	r22,40(sp)
 2006fc8:	dd400917 	ldw	r21,36(sp)
 2006fcc:	dd000817 	ldw	r20,32(sp)
 2006fd0:	dcc00717 	ldw	r19,28(sp)
 2006fd4:	dc800617 	ldw	r18,24(sp)
 2006fd8:	dc400517 	ldw	r17,20(sp)
 2006fdc:	dc000417 	ldw	r16,16(sp)
 2006fe0:	dec00e04 	addi	sp,sp,56
 2006fe4:	f800283a 	ret
 2006fe8:	0005883a 	mov	r2,zero
 2006fec:	003ff206 	br	2006fb8 <__alt_mem_epcs_flash_controller+0xfdffdfb8>

02006ff0 <_dtoa_r>:
 2006ff0:	20801017 	ldw	r2,64(r4)
 2006ff4:	deffdf04 	addi	sp,sp,-132
 2006ff8:	dcc01a15 	stw	r19,104(sp)
 2006ffc:	dc801915 	stw	r18,100(sp)
 2007000:	dc401815 	stw	r17,96(sp)
 2007004:	dc001715 	stw	r16,92(sp)
 2007008:	dfc02015 	stw	ra,128(sp)
 200700c:	df001f15 	stw	fp,124(sp)
 2007010:	ddc01e15 	stw	r23,120(sp)
 2007014:	dd801d15 	stw	r22,116(sp)
 2007018:	dd401c15 	stw	r21,112(sp)
 200701c:	dd001b15 	stw	r20,108(sp)
 2007020:	d9400315 	stw	r5,12(sp)
 2007024:	d9c00415 	stw	r7,16(sp)
 2007028:	2021883a 	mov	r16,r4
 200702c:	3025883a 	mov	r18,r6
 2007030:	dcc02317 	ldw	r19,140(sp)
 2007034:	3023883a 	mov	r17,r6
 2007038:	10000826 	beq	r2,zero,200705c <_dtoa_r+0x6c>
 200703c:	20c01117 	ldw	r3,68(r4)
 2007040:	01800044 	movi	r6,1
 2007044:	100b883a 	mov	r5,r2
 2007048:	30cc983a 	sll	r6,r6,r3
 200704c:	10c00115 	stw	r3,4(r2)
 2007050:	11800215 	stw	r6,8(r2)
 2007054:	2009b440 	call	2009b44 <_Bfree>
 2007058:	80001015 	stw	zero,64(r16)
 200705c:	90002f16 	blt	r18,zero,200711c <_dtoa_r+0x12c>
 2007060:	98000015 	stw	zero,0(r19)
 2007064:	90dffc2c 	andhi	r3,r18,32752
 2007068:	009ffc34 	movhi	r2,32752
 200706c:	18801c26 	beq	r3,r2,20070e0 <_dtoa_r+0xf0>
 2007070:	d9000317 	ldw	r4,12(sp)
 2007074:	880b883a 	mov	r5,r17
 2007078:	000d883a 	mov	r6,zero
 200707c:	000f883a 	mov	r7,zero
 2007080:	200fad40 	call	200fad4 <__nedf2>
 2007084:	10002c1e 	bne	r2,zero,2007138 <_dtoa_r+0x148>
 2007088:	d9002217 	ldw	r4,136(sp)
 200708c:	d9c02417 	ldw	r7,144(sp)
 2007090:	00800044 	movi	r2,1
 2007094:	20800015 	stw	r2,0(r4)
 2007098:	38019426 	beq	r7,zero,20076ec <_dtoa_r+0x6fc>
 200709c:	00808234 	movhi	r2,520
 20070a0:	109cc344 	addi	r2,r2,29453
 20070a4:	38800015 	stw	r2,0(r7)
 20070a8:	15ffffc4 	addi	r23,r2,-1
 20070ac:	b805883a 	mov	r2,r23
 20070b0:	dfc02017 	ldw	ra,128(sp)
 20070b4:	df001f17 	ldw	fp,124(sp)
 20070b8:	ddc01e17 	ldw	r23,120(sp)
 20070bc:	dd801d17 	ldw	r22,116(sp)
 20070c0:	dd401c17 	ldw	r21,112(sp)
 20070c4:	dd001b17 	ldw	r20,108(sp)
 20070c8:	dcc01a17 	ldw	r19,104(sp)
 20070cc:	dc801917 	ldw	r18,100(sp)
 20070d0:	dc401817 	ldw	r17,96(sp)
 20070d4:	dc001717 	ldw	r16,92(sp)
 20070d8:	dec02104 	addi	sp,sp,132
 20070dc:	f800283a 	ret
 20070e0:	d8c02217 	ldw	r3,136(sp)
 20070e4:	d9000317 	ldw	r4,12(sp)
 20070e8:	0089c3c4 	movi	r2,9999
 20070ec:	18800015 	stw	r2,0(r3)
 20070f0:	20016c26 	beq	r4,zero,20076a4 <_dtoa_r+0x6b4>
 20070f4:	05c08234 	movhi	r23,520
 20070f8:	bddd7a04 	addi	r23,r23,30184
 20070fc:	d9c02417 	ldw	r7,144(sp)
 2007100:	383fea26 	beq	r7,zero,20070ac <__alt_mem_epcs_flash_controller+0xfdffe0ac>
 2007104:	b88000c7 	ldb	r2,3(r23)
 2007108:	10016d1e 	bne	r2,zero,20076c0 <_dtoa_r+0x6d0>
 200710c:	b88000c4 	addi	r2,r23,3
 2007110:	d8c02417 	ldw	r3,144(sp)
 2007114:	18800015 	stw	r2,0(r3)
 2007118:	003fe406 	br	20070ac <__alt_mem_epcs_flash_controller+0xfdffe0ac>
 200711c:	04600034 	movhi	r17,32768
 2007120:	8c7fffc4 	addi	r17,r17,-1
 2007124:	9462703a 	and	r17,r18,r17
 2007128:	00800044 	movi	r2,1
 200712c:	98800015 	stw	r2,0(r19)
 2007130:	8825883a 	mov	r18,r17
 2007134:	003fcb06 	br	2007064 <__alt_mem_epcs_flash_controller+0xfdffe064>
 2007138:	d9400317 	ldw	r5,12(sp)
 200713c:	9028d53a 	srli	r20,r18,20
 2007140:	d8800204 	addi	r2,sp,8
 2007144:	d8800015 	stw	r2,0(sp)
 2007148:	8009883a 	mov	r4,r16
 200714c:	880d883a 	mov	r6,r17
 2007150:	d9c00104 	addi	r7,sp,4
 2007154:	200a7900 	call	200a790 <__d2b>
 2007158:	a501ffcc 	andi	r20,r20,2047
 200715c:	1039883a 	mov	fp,r2
 2007160:	a001591e 	bne	r20,zero,20076c8 <_dtoa_r+0x6d8>
 2007164:	dd400217 	ldw	r21,8(sp)
 2007168:	dd000117 	ldw	r20,4(sp)
 200716c:	00befbc4 	movi	r2,-1041
 2007170:	ad29883a 	add	r20,r21,r20
 2007174:	a082d216 	blt	r20,r2,2007cc0 <_dtoa_r+0xcd0>
 2007178:	d8c00317 	ldw	r3,12(sp)
 200717c:	013f0384 	movi	r4,-1010
 2007180:	2509c83a 	sub	r4,r4,r20
 2007184:	a0810484 	addi	r2,r20,1042
 2007188:	9124983a 	sll	r18,r18,r4
 200718c:	1884d83a 	srl	r2,r3,r2
 2007190:	9088b03a 	or	r4,r18,r2
 2007194:	200fd100 	call	200fd10 <__floatunsidf>
 2007198:	1009883a 	mov	r4,r2
 200719c:	017f8434 	movhi	r5,65040
 20071a0:	00800044 	movi	r2,1
 20071a4:	194b883a 	add	r5,r3,r5
 20071a8:	a53fffc4 	addi	r20,r20,-1
 20071ac:	d8800f15 	stw	r2,60(sp)
 20071b0:	000d883a 	mov	r6,zero
 20071b4:	01cffe34 	movhi	r7,16376
 20071b8:	200fa180 	call	200fa18 <__subdf3>
 20071bc:	1009883a 	mov	r4,r2
 20071c0:	180b883a 	mov	r5,r3
 20071c4:	0198dbf4 	movhi	r6,25455
 20071c8:	3190d844 	addi	r6,r6,17249
 20071cc:	01cff4f4 	movhi	r7,16339
 20071d0:	39e1e9c4 	addi	r7,r7,-30809
 20071d4:	20015c00 	call	20015c0 <__muldf3>
 20071d8:	180b883a 	mov	r5,r3
 20071dc:	01a2d874 	movhi	r6,35681
 20071e0:	31b22cc4 	addi	r6,r6,-14157
 20071e4:	01cff1f4 	movhi	r7,16327
 20071e8:	39e28a04 	addi	r7,r7,-30168
 20071ec:	1009883a 	mov	r4,r2
 20071f0:	200f9c40 	call	200f9c4 <__adddf3>
 20071f4:	a009883a 	mov	r4,r20
 20071f8:	1027883a 	mov	r19,r2
 20071fc:	1825883a 	mov	r18,r3
 2007200:	2001a580 	call	2001a58 <__floatsidf>
 2007204:	1009883a 	mov	r4,r2
 2007208:	180b883a 	mov	r5,r3
 200720c:	019427f4 	movhi	r6,20639
 2007210:	319e7ec4 	addi	r6,r6,31227
 2007214:	01cff4f4 	movhi	r7,16339
 2007218:	39d104c4 	addi	r7,r7,17427
 200721c:	20015c00 	call	20015c0 <__muldf3>
 2007220:	9809883a 	mov	r4,r19
 2007224:	900b883a 	mov	r5,r18
 2007228:	100d883a 	mov	r6,r2
 200722c:	180f883a 	mov	r7,r3
 2007230:	200f9c40 	call	200f9c4 <__adddf3>
 2007234:	1009883a 	mov	r4,r2
 2007238:	180b883a 	mov	r5,r3
 200723c:	1027883a 	mov	r19,r2
 2007240:	1825883a 	mov	r18,r3
 2007244:	2001b2c0 	call	2001b2c <__fixdfsi>
 2007248:	9809883a 	mov	r4,r19
 200724c:	900b883a 	mov	r5,r18
 2007250:	000d883a 	mov	r6,zero
 2007254:	000f883a 	mov	r7,zero
 2007258:	d8800615 	stw	r2,24(sp)
 200725c:	200fbf80 	call	200fbf8 <__ltdf2>
 2007260:	10027e16 	blt	r2,zero,2007c5c <_dtoa_r+0xc6c>
 2007264:	d8c00617 	ldw	r3,24(sp)
 2007268:	00800584 	movi	r2,22
 200726c:	10c26c36 	bltu	r2,r3,2007c20 <_dtoa_r+0xc30>
 2007270:	180490fa 	slli	r2,r3,3
 2007274:	00c08234 	movhi	r3,520
 2007278:	18dd9f04 	addi	r3,r3,30332
 200727c:	d9800317 	ldw	r6,12(sp)
 2007280:	1885883a 	add	r2,r3,r2
 2007284:	11000017 	ldw	r4,0(r2)
 2007288:	11400117 	ldw	r5,4(r2)
 200728c:	880f883a 	mov	r7,r17
 2007290:	200fb300 	call	200fb30 <__gtdf2>
 2007294:	00828f0e 	bge	zero,r2,2007cd4 <_dtoa_r+0xce4>
 2007298:	d8800617 	ldw	r2,24(sp)
 200729c:	d8000d15 	stw	zero,52(sp)
 20072a0:	10bfffc4 	addi	r2,r2,-1
 20072a4:	d8800615 	stw	r2,24(sp)
 20072a8:	ad29c83a 	sub	r20,r21,r20
 20072ac:	a53fffc4 	addi	r20,r20,-1
 20072b0:	a0026616 	blt	r20,zero,2007c4c <_dtoa_r+0xc5c>
 20072b4:	dd000715 	stw	r20,28(sp)
 20072b8:	d8000815 	stw	zero,32(sp)
 20072bc:	d8800617 	ldw	r2,24(sp)
 20072c0:	10025a16 	blt	r2,zero,2007c2c <_dtoa_r+0xc3c>
 20072c4:	d8c00717 	ldw	r3,28(sp)
 20072c8:	d8800b15 	stw	r2,44(sp)
 20072cc:	d8000a15 	stw	zero,40(sp)
 20072d0:	1887883a 	add	r3,r3,r2
 20072d4:	d8c00715 	stw	r3,28(sp)
 20072d8:	d9c00417 	ldw	r7,16(sp)
 20072dc:	00800244 	movi	r2,9
 20072e0:	11c10536 	bltu	r2,r7,20076f8 <_dtoa_r+0x708>
 20072e4:	00800144 	movi	r2,5
 20072e8:	11c4c60e 	bge	r2,r7,2008604 <_dtoa_r+0x1614>
 20072ec:	39ffff04 	addi	r7,r7,-4
 20072f0:	d9c00415 	stw	r7,16(sp)
 20072f4:	0027883a 	mov	r19,zero
 20072f8:	d9c00417 	ldw	r7,16(sp)
 20072fc:	008000c4 	movi	r2,3
 2007300:	3883a226 	beq	r7,r2,200818c <_dtoa_r+0x119c>
 2007304:	11c2bc16 	blt	r2,r7,2007df8 <_dtoa_r+0xe08>
 2007308:	00800084 	movi	r2,2
 200730c:	3880fb1e 	bne	r7,r2,20076fc <_dtoa_r+0x70c>
 2007310:	d8000c15 	stw	zero,48(sp)
 2007314:	d9002117 	ldw	r4,132(sp)
 2007318:	0103ae0e 	bge	zero,r4,20081d4 <_dtoa_r+0x11e4>
 200731c:	2025883a 	mov	r18,r4
 2007320:	d9000e15 	stw	r4,56(sp)
 2007324:	d9000915 	stw	r4,36(sp)
 2007328:	80001115 	stw	zero,68(r16)
 200732c:	008005c4 	movi	r2,23
 2007330:	1484b22e 	bgeu	r2,r18,20085fc <_dtoa_r+0x160c>
 2007334:	00c00044 	movi	r3,1
 2007338:	00800104 	movi	r2,4
 200733c:	1085883a 	add	r2,r2,r2
 2007340:	11000504 	addi	r4,r2,20
 2007344:	180b883a 	mov	r5,r3
 2007348:	18c00044 	addi	r3,r3,1
 200734c:	913ffb2e 	bgeu	r18,r4,200733c <__alt_mem_epcs_flash_controller+0xfdffe33c>
 2007350:	81401115 	stw	r5,68(r16)
 2007354:	8009883a 	mov	r4,r16
 2007358:	2009a9c0 	call	2009a9c <_Balloc>
 200735c:	102f883a 	mov	r23,r2
 2007360:	80801015 	stw	r2,64(r16)
 2007364:	00800384 	movi	r2,14
 2007368:	1480f036 	bltu	r2,r18,200772c <_dtoa_r+0x73c>
 200736c:	9800ef26 	beq	r19,zero,200772c <_dtoa_r+0x73c>
 2007370:	d8800617 	ldw	r2,24(sp)
 2007374:	00839c0e 	bge	zero,r2,20081e8 <_dtoa_r+0x11f8>
 2007378:	d8c00617 	ldw	r3,24(sp)
 200737c:	108003cc 	andi	r2,r2,15
 2007380:	100490fa 	slli	r2,r2,3
 2007384:	182bd13a 	srai	r21,r3,4
 2007388:	00c08234 	movhi	r3,520
 200738c:	18dd9f04 	addi	r3,r3,30332
 2007390:	1885883a 	add	r2,r3,r2
 2007394:	a8c0040c 	andi	r3,r21,16
 2007398:	12800017 	ldw	r10,0(r2)
 200739c:	15800117 	ldw	r22,4(r2)
 20073a0:	18038726 	beq	r3,zero,20081c0 <_dtoa_r+0x11d0>
 20073a4:	00808234 	movhi	r2,520
 20073a8:	109d9504 	addi	r2,r2,30292
 20073ac:	11800817 	ldw	r6,32(r2)
 20073b0:	11c00917 	ldw	r7,36(r2)
 20073b4:	d9000317 	ldw	r4,12(sp)
 20073b8:	880b883a 	mov	r5,r17
 20073bc:	da801515 	stw	r10,84(sp)
 20073c0:	20018a40 	call	20018a4 <__divdf3>
 20073c4:	da801517 	ldw	r10,84(sp)
 20073c8:	d8801015 	stw	r2,64(sp)
 20073cc:	1829883a 	mov	r20,r3
 20073d0:	ad4003cc 	andi	r21,r21,15
 20073d4:	048000c4 	movi	r18,3
 20073d8:	a8001126 	beq	r21,zero,2007420 <_dtoa_r+0x430>
 20073dc:	04c08234 	movhi	r19,520
 20073e0:	9cdd9504 	addi	r19,r19,30292
 20073e4:	5005883a 	mov	r2,r10
 20073e8:	b007883a 	mov	r3,r22
 20073ec:	a980004c 	andi	r6,r21,1
 20073f0:	1009883a 	mov	r4,r2
 20073f4:	a82bd07a 	srai	r21,r21,1
 20073f8:	180b883a 	mov	r5,r3
 20073fc:	30000426 	beq	r6,zero,2007410 <_dtoa_r+0x420>
 2007400:	99800017 	ldw	r6,0(r19)
 2007404:	99c00117 	ldw	r7,4(r19)
 2007408:	94800044 	addi	r18,r18,1
 200740c:	20015c00 	call	20015c0 <__muldf3>
 2007410:	9cc00204 	addi	r19,r19,8
 2007414:	a83ff51e 	bne	r21,zero,20073ec <__alt_mem_epcs_flash_controller+0xfdffe3ec>
 2007418:	1015883a 	mov	r10,r2
 200741c:	182d883a 	mov	r22,r3
 2007420:	d9001017 	ldw	r4,64(sp)
 2007424:	a00b883a 	mov	r5,r20
 2007428:	500d883a 	mov	r6,r10
 200742c:	b00f883a 	mov	r7,r22
 2007430:	20018a40 	call	20018a4 <__divdf3>
 2007434:	1027883a 	mov	r19,r2
 2007438:	1829883a 	mov	r20,r3
 200743c:	d8c00d17 	ldw	r3,52(sp)
 2007440:	18000626 	beq	r3,zero,200745c <_dtoa_r+0x46c>
 2007444:	9809883a 	mov	r4,r19
 2007448:	a00b883a 	mov	r5,r20
 200744c:	000d883a 	mov	r6,zero
 2007450:	01cffc34 	movhi	r7,16368
 2007454:	200fbf80 	call	200fbf8 <__ltdf2>
 2007458:	10040e16 	blt	r2,zero,2008494 <_dtoa_r+0x14a4>
 200745c:	9009883a 	mov	r4,r18
 2007460:	2001a580 	call	2001a58 <__floatsidf>
 2007464:	1009883a 	mov	r4,r2
 2007468:	180b883a 	mov	r5,r3
 200746c:	980d883a 	mov	r6,r19
 2007470:	a00f883a 	mov	r7,r20
 2007474:	20015c00 	call	20015c0 <__muldf3>
 2007478:	1009883a 	mov	r4,r2
 200747c:	180b883a 	mov	r5,r3
 2007480:	000d883a 	mov	r6,zero
 2007484:	01d00734 	movhi	r7,16412
 2007488:	200f9c40 	call	200f9c4 <__adddf3>
 200748c:	057f3034 	movhi	r21,64704
 2007490:	1d6b883a 	add	r21,r3,r21
 2007494:	d8c00917 	ldw	r3,36(sp)
 2007498:	1025883a 	mov	r18,r2
 200749c:	18031f26 	beq	r3,zero,200811c <_dtoa_r+0x112c>
 20074a0:	d8800617 	ldw	r2,24(sp)
 20074a4:	dac00917 	ldw	r11,36(sp)
 20074a8:	d8801315 	stw	r2,76(sp)
 20074ac:	d8c00c17 	ldw	r3,48(sp)
 20074b0:	18039026 	beq	r3,zero,20082f4 <_dtoa_r+0x1304>
 20074b4:	58bfffc4 	addi	r2,r11,-1
 20074b8:	100490fa 	slli	r2,r2,3
 20074bc:	00c08234 	movhi	r3,520
 20074c0:	18dd9f04 	addi	r3,r3,30332
 20074c4:	0009883a 	mov	r4,zero
 20074c8:	1885883a 	add	r2,r3,r2
 20074cc:	11800017 	ldw	r6,0(r2)
 20074d0:	11c00117 	ldw	r7,4(r2)
 20074d4:	014ff834 	movhi	r5,16352
 20074d8:	dac01615 	stw	r11,88(sp)
 20074dc:	20018a40 	call	20018a4 <__divdf3>
 20074e0:	900d883a 	mov	r6,r18
 20074e4:	a80f883a 	mov	r7,r21
 20074e8:	1009883a 	mov	r4,r2
 20074ec:	180b883a 	mov	r5,r3
 20074f0:	200fa180 	call	200fa18 <__subdf3>
 20074f4:	a00b883a 	mov	r5,r20
 20074f8:	9809883a 	mov	r4,r19
 20074fc:	182b883a 	mov	r21,r3
 2007500:	d8801015 	stw	r2,64(sp)
 2007504:	2001b2c0 	call	2001b2c <__fixdfsi>
 2007508:	1009883a 	mov	r4,r2
 200750c:	d8801515 	stw	r2,84(sp)
 2007510:	2001a580 	call	2001a58 <__floatsidf>
 2007514:	9809883a 	mov	r4,r19
 2007518:	a00b883a 	mov	r5,r20
 200751c:	100d883a 	mov	r6,r2
 2007520:	180f883a 	mov	r7,r3
 2007524:	200fa180 	call	200fa18 <__subdf3>
 2007528:	da401517 	ldw	r9,84(sp)
 200752c:	d9001017 	ldw	r4,64(sp)
 2007530:	a80b883a 	mov	r5,r21
 2007534:	4d000c04 	addi	r20,r9,48
 2007538:	bd000005 	stb	r20,0(r23)
 200753c:	100d883a 	mov	r6,r2
 2007540:	180f883a 	mov	r7,r3
 2007544:	bd800044 	addi	r22,r23,1
 2007548:	1025883a 	mov	r18,r2
 200754c:	1827883a 	mov	r19,r3
 2007550:	200fb300 	call	200fb30 <__gtdf2>
 2007554:	00842216 	blt	zero,r2,20085e0 <_dtoa_r+0x15f0>
 2007558:	0009883a 	mov	r4,zero
 200755c:	014ffc34 	movhi	r5,16368
 2007560:	900d883a 	mov	r6,r18
 2007564:	980f883a 	mov	r7,r19
 2007568:	200fa180 	call	200fa18 <__subdf3>
 200756c:	d9001017 	ldw	r4,64(sp)
 2007570:	a80b883a 	mov	r5,r21
 2007574:	100d883a 	mov	r6,r2
 2007578:	180f883a 	mov	r7,r3
 200757c:	200fb300 	call	200fb30 <__gtdf2>
 2007580:	dac01617 	ldw	r11,88(sp)
 2007584:	00841316 	blt	zero,r2,20085d4 <_dtoa_r+0x15e4>
 2007588:	00800044 	movi	r2,1
 200758c:	12c0670e 	bge	r2,r11,200772c <_dtoa_r+0x73c>
 2007590:	bad7883a 	add	r11,r23,r11
 2007594:	df001115 	stw	fp,68(sp)
 2007598:	dc401215 	stw	r17,72(sp)
 200759c:	5839883a 	mov	fp,r11
 20075a0:	dc401017 	ldw	r17,64(sp)
 20075a4:	00000806 	br	20075c8 <_dtoa_r+0x5d8>
 20075a8:	200fa180 	call	200fa18 <__subdf3>
 20075ac:	1009883a 	mov	r4,r2
 20075b0:	180b883a 	mov	r5,r3
 20075b4:	880d883a 	mov	r6,r17
 20075b8:	a80f883a 	mov	r7,r21
 20075bc:	200fbf80 	call	200fbf8 <__ltdf2>
 20075c0:	1003ee16 	blt	r2,zero,200857c <_dtoa_r+0x158c>
 20075c4:	b703f126 	beq	r22,fp,200858c <_dtoa_r+0x159c>
 20075c8:	8809883a 	mov	r4,r17
 20075cc:	a80b883a 	mov	r5,r21
 20075d0:	000d883a 	mov	r6,zero
 20075d4:	01d00934 	movhi	r7,16420
 20075d8:	20015c00 	call	20015c0 <__muldf3>
 20075dc:	000d883a 	mov	r6,zero
 20075e0:	01d00934 	movhi	r7,16420
 20075e4:	9009883a 	mov	r4,r18
 20075e8:	980b883a 	mov	r5,r19
 20075ec:	1023883a 	mov	r17,r2
 20075f0:	182b883a 	mov	r21,r3
 20075f4:	20015c00 	call	20015c0 <__muldf3>
 20075f8:	180b883a 	mov	r5,r3
 20075fc:	1009883a 	mov	r4,r2
 2007600:	1825883a 	mov	r18,r3
 2007604:	1027883a 	mov	r19,r2
 2007608:	2001b2c0 	call	2001b2c <__fixdfsi>
 200760c:	1009883a 	mov	r4,r2
 2007610:	1029883a 	mov	r20,r2
 2007614:	2001a580 	call	2001a58 <__floatsidf>
 2007618:	9809883a 	mov	r4,r19
 200761c:	900b883a 	mov	r5,r18
 2007620:	100d883a 	mov	r6,r2
 2007624:	180f883a 	mov	r7,r3
 2007628:	200fa180 	call	200fa18 <__subdf3>
 200762c:	a5000c04 	addi	r20,r20,48
 2007630:	b5000005 	stb	r20,0(r22)
 2007634:	1009883a 	mov	r4,r2
 2007638:	180b883a 	mov	r5,r3
 200763c:	880d883a 	mov	r6,r17
 2007640:	a80f883a 	mov	r7,r21
 2007644:	1025883a 	mov	r18,r2
 2007648:	1827883a 	mov	r19,r3
 200764c:	200fbf80 	call	200fbf8 <__ltdf2>
 2007650:	b5800044 	addi	r22,r22,1
 2007654:	0009883a 	mov	r4,zero
 2007658:	014ffc34 	movhi	r5,16368
 200765c:	900d883a 	mov	r6,r18
 2007660:	980f883a 	mov	r7,r19
 2007664:	103fd00e 	bge	r2,zero,20075a8 <__alt_mem_epcs_flash_controller+0xfdffe5a8>
 2007668:	d9001317 	ldw	r4,76(sp)
 200766c:	df001117 	ldw	fp,68(sp)
 2007670:	d9000615 	stw	r4,24(sp)
 2007674:	8009883a 	mov	r4,r16
 2007678:	e00b883a 	mov	r5,fp
 200767c:	2009b440 	call	2009b44 <_Bfree>
 2007680:	d9c00617 	ldw	r7,24(sp)
 2007684:	d8c02217 	ldw	r3,136(sp)
 2007688:	d9002417 	ldw	r4,144(sp)
 200768c:	b0000005 	stb	zero,0(r22)
 2007690:	38800044 	addi	r2,r7,1
 2007694:	18800015 	stw	r2,0(r3)
 2007698:	203e8426 	beq	r4,zero,20070ac <__alt_mem_epcs_flash_controller+0xfdffe0ac>
 200769c:	25800015 	stw	r22,0(r4)
 20076a0:	003e8206 	br	20070ac <__alt_mem_epcs_flash_controller+0xfdffe0ac>
 20076a4:	00800434 	movhi	r2,16
 20076a8:	10bfffc4 	addi	r2,r2,-1
 20076ac:	90a4703a 	and	r18,r18,r2
 20076b0:	903e901e 	bne	r18,zero,20070f4 <__alt_mem_epcs_flash_controller+0xfdffe0f4>
 20076b4:	05c08234 	movhi	r23,520
 20076b8:	bddd7704 	addi	r23,r23,30172
 20076bc:	003e8f06 	br	20070fc <__alt_mem_epcs_flash_controller+0xfdffe0fc>
 20076c0:	b8800204 	addi	r2,r23,8
 20076c4:	003e9206 	br	2007110 <__alt_mem_epcs_flash_controller+0xfdffe110>
 20076c8:	01400434 	movhi	r5,16
 20076cc:	297fffc4 	addi	r5,r5,-1
 20076d0:	894a703a 	and	r5,r17,r5
 20076d4:	d9000317 	ldw	r4,12(sp)
 20076d8:	294ffc34 	orhi	r5,r5,16368
 20076dc:	a53f0044 	addi	r20,r20,-1023
 20076e0:	dd400217 	ldw	r21,8(sp)
 20076e4:	d8000f15 	stw	zero,60(sp)
 20076e8:	003eb106 	br	20071b0 <__alt_mem_epcs_flash_controller+0xfdffe1b0>
 20076ec:	05c08234 	movhi	r23,520
 20076f0:	bddcc304 	addi	r23,r23,29452
 20076f4:	003e6d06 	br	20070ac <__alt_mem_epcs_flash_controller+0xfdffe0ac>
 20076f8:	d8000415 	stw	zero,16(sp)
 20076fc:	80001115 	stw	zero,68(r16)
 2007700:	8009883a 	mov	r4,r16
 2007704:	000b883a 	mov	r5,zero
 2007708:	2009a9c0 	call	2009a9c <_Balloc>
 200770c:	01ffffc4 	movi	r7,-1
 2007710:	102f883a 	mov	r23,r2
 2007714:	80801015 	stw	r2,64(r16)
 2007718:	00800044 	movi	r2,1
 200771c:	d9c00915 	stw	r7,36(sp)
 2007720:	d8002115 	stw	zero,132(sp)
 2007724:	d9c00e15 	stw	r7,56(sp)
 2007728:	d8800c15 	stw	r2,48(sp)
 200772c:	d8800117 	ldw	r2,4(sp)
 2007730:	10008b16 	blt	r2,zero,2007960 <_dtoa_r+0x970>
 2007734:	d9000617 	ldw	r4,24(sp)
 2007738:	00c00384 	movi	r3,14
 200773c:	19008816 	blt	r3,r4,2007960 <_dtoa_r+0x970>
 2007740:	200490fa 	slli	r2,r4,3
 2007744:	d9c02117 	ldw	r7,132(sp)
 2007748:	00c08234 	movhi	r3,520
 200774c:	18dd9f04 	addi	r3,r3,30332
 2007750:	1885883a 	add	r2,r3,r2
 2007754:	14800017 	ldw	r18,0(r2)
 2007758:	14c00117 	ldw	r19,4(r2)
 200775c:	3801c916 	blt	r7,zero,2007e84 <_dtoa_r+0xe94>
 2007760:	d9000317 	ldw	r4,12(sp)
 2007764:	900d883a 	mov	r6,r18
 2007768:	980f883a 	mov	r7,r19
 200776c:	880b883a 	mov	r5,r17
 2007770:	20018a40 	call	20018a4 <__divdf3>
 2007774:	180b883a 	mov	r5,r3
 2007778:	1009883a 	mov	r4,r2
 200777c:	2001b2c0 	call	2001b2c <__fixdfsi>
 2007780:	1009883a 	mov	r4,r2
 2007784:	102b883a 	mov	r21,r2
 2007788:	2001a580 	call	2001a58 <__floatsidf>
 200778c:	1009883a 	mov	r4,r2
 2007790:	180b883a 	mov	r5,r3
 2007794:	900d883a 	mov	r6,r18
 2007798:	980f883a 	mov	r7,r19
 200779c:	20015c00 	call	20015c0 <__muldf3>
 20077a0:	d9000317 	ldw	r4,12(sp)
 20077a4:	880b883a 	mov	r5,r17
 20077a8:	100d883a 	mov	r6,r2
 20077ac:	180f883a 	mov	r7,r3
 20077b0:	200fa180 	call	200fa18 <__subdf3>
 20077b4:	d9c00917 	ldw	r7,36(sp)
 20077b8:	1009883a 	mov	r4,r2
 20077bc:	a8800c04 	addi	r2,r21,48
 20077c0:	b8800005 	stb	r2,0(r23)
 20077c4:	01800044 	movi	r6,1
 20077c8:	180b883a 	mov	r5,r3
 20077cc:	2005883a 	mov	r2,r4
 20077d0:	bd800044 	addi	r22,r23,1
 20077d4:	39803726 	beq	r7,r6,20078b4 <_dtoa_r+0x8c4>
 20077d8:	000d883a 	mov	r6,zero
 20077dc:	01d00934 	movhi	r7,16420
 20077e0:	20015c00 	call	20015c0 <__muldf3>
 20077e4:	1009883a 	mov	r4,r2
 20077e8:	180b883a 	mov	r5,r3
 20077ec:	000d883a 	mov	r6,zero
 20077f0:	000f883a 	mov	r7,zero
 20077f4:	1029883a 	mov	r20,r2
 20077f8:	1823883a 	mov	r17,r3
 20077fc:	200fa780 	call	200fa78 <__eqdf2>
 2007800:	103f9c26 	beq	r2,zero,2007674 <__alt_mem_epcs_flash_controller+0xfdffe674>
 2007804:	dd400917 	ldw	r21,36(sp)
 2007808:	dc000415 	stw	r16,16(sp)
 200780c:	00000906 	br	2007834 <_dtoa_r+0x844>
 2007810:	20015c00 	call	20015c0 <__muldf3>
 2007814:	1009883a 	mov	r4,r2
 2007818:	180b883a 	mov	r5,r3
 200781c:	000d883a 	mov	r6,zero
 2007820:	000f883a 	mov	r7,zero
 2007824:	1029883a 	mov	r20,r2
 2007828:	1823883a 	mov	r17,r3
 200782c:	200fa780 	call	200fa78 <__eqdf2>
 2007830:	10022926 	beq	r2,zero,20080d8 <_dtoa_r+0x10e8>
 2007834:	900d883a 	mov	r6,r18
 2007838:	980f883a 	mov	r7,r19
 200783c:	a009883a 	mov	r4,r20
 2007840:	880b883a 	mov	r5,r17
 2007844:	20018a40 	call	20018a4 <__divdf3>
 2007848:	180b883a 	mov	r5,r3
 200784c:	1009883a 	mov	r4,r2
 2007850:	2001b2c0 	call	2001b2c <__fixdfsi>
 2007854:	1009883a 	mov	r4,r2
 2007858:	1021883a 	mov	r16,r2
 200785c:	2001a580 	call	2001a58 <__floatsidf>
 2007860:	1009883a 	mov	r4,r2
 2007864:	180b883a 	mov	r5,r3
 2007868:	900d883a 	mov	r6,r18
 200786c:	980f883a 	mov	r7,r19
 2007870:	20015c00 	call	20015c0 <__muldf3>
 2007874:	a009883a 	mov	r4,r20
 2007878:	880b883a 	mov	r5,r17
 200787c:	100d883a 	mov	r6,r2
 2007880:	180f883a 	mov	r7,r3
 2007884:	200fa180 	call	200fa18 <__subdf3>
 2007888:	82400c04 	addi	r9,r16,48
 200788c:	b2400005 	stb	r9,0(r22)
 2007890:	b5800044 	addi	r22,r22,1
 2007894:	b5d3c83a 	sub	r9,r22,r23
 2007898:	000d883a 	mov	r6,zero
 200789c:	01d00934 	movhi	r7,16420
 20078a0:	1009883a 	mov	r4,r2
 20078a4:	180b883a 	mov	r5,r3
 20078a8:	aa7fd91e 	bne	r21,r9,2007810 <__alt_mem_epcs_flash_controller+0xfdffe810>
 20078ac:	802b883a 	mov	r21,r16
 20078b0:	dc000417 	ldw	r16,16(sp)
 20078b4:	1009883a 	mov	r4,r2
 20078b8:	180b883a 	mov	r5,r3
 20078bc:	100d883a 	mov	r6,r2
 20078c0:	180f883a 	mov	r7,r3
 20078c4:	200f9c40 	call	200f9c4 <__adddf3>
 20078c8:	9009883a 	mov	r4,r18
 20078cc:	980b883a 	mov	r5,r19
 20078d0:	100d883a 	mov	r6,r2
 20078d4:	180f883a 	mov	r7,r3
 20078d8:	1023883a 	mov	r17,r2
 20078dc:	1829883a 	mov	r20,r3
 20078e0:	200fbf80 	call	200fbf8 <__ltdf2>
 20078e4:	10000816 	blt	r2,zero,2007908 <_dtoa_r+0x918>
 20078e8:	9009883a 	mov	r4,r18
 20078ec:	980b883a 	mov	r5,r19
 20078f0:	880d883a 	mov	r6,r17
 20078f4:	a00f883a 	mov	r7,r20
 20078f8:	200fad40 	call	200fad4 <__nedf2>
 20078fc:	103f5d1e 	bne	r2,zero,2007674 <__alt_mem_epcs_flash_controller+0xfdffe674>
 2007900:	ad40004c 	andi	r21,r21,1
 2007904:	a83f5b26 	beq	r21,zero,2007674 <__alt_mem_epcs_flash_controller+0xfdffe674>
 2007908:	b53fffc3 	ldbu	r20,-1(r22)
 200790c:	b0ffff84 	addi	r3,r22,-2
 2007910:	01400e44 	movi	r5,57
 2007914:	00000306 	br	2007924 <_dtoa_r+0x934>
 2007918:	1d000003 	ldbu	r20,0(r3)
 200791c:	102d883a 	mov	r22,r2
 2007920:	18ffffc4 	addi	r3,r3,-1
 2007924:	a1003fcc 	andi	r4,r20,255
 2007928:	2100201c 	xori	r4,r4,128
 200792c:	213fe004 	addi	r4,r4,-128
 2007930:	b0bfffc4 	addi	r2,r22,-1
 2007934:	2142ca1e 	bne	r4,r5,2008460 <_dtoa_r+0x1470>
 2007938:	b8bff71e 	bne	r23,r2,2007918 <__alt_mem_epcs_flash_controller+0xfdffe918>
 200793c:	d8800617 	ldw	r2,24(sp)
 2007940:	05000c44 	movi	r20,49
 2007944:	10800044 	addi	r2,r2,1
 2007948:	d8800615 	stw	r2,24(sp)
 200794c:	00800c04 	movi	r2,48
 2007950:	b8800005 	stb	r2,0(r23)
 2007954:	b805883a 	mov	r2,r23
 2007958:	15000005 	stb	r20,0(r2)
 200795c:	003f4506 	br	2007674 <__alt_mem_epcs_flash_controller+0xfdffe674>
 2007960:	d9c00c17 	ldw	r7,48(sp)
 2007964:	3800c926 	beq	r7,zero,2007c8c <_dtoa_r+0xc9c>
 2007968:	d9c00417 	ldw	r7,16(sp)
 200796c:	00c00044 	movi	r3,1
 2007970:	19c16c0e 	bge	r3,r7,2007f24 <_dtoa_r+0xf34>
 2007974:	d9000917 	ldw	r4,36(sp)
 2007978:	d9c00a17 	ldw	r7,40(sp)
 200797c:	24ffffc4 	addi	r19,r4,-1
 2007980:	3cc20716 	blt	r7,r19,20081a0 <_dtoa_r+0x11b0>
 2007984:	3ce7c83a 	sub	r19,r7,r19
 2007988:	d9c00917 	ldw	r7,36(sp)
 200798c:	3802ae16 	blt	r7,zero,2008448 <_dtoa_r+0x1458>
 2007990:	dc800817 	ldw	r18,32(sp)
 2007994:	d8800917 	ldw	r2,36(sp)
 2007998:	d8c00817 	ldw	r3,32(sp)
 200799c:	d9c00717 	ldw	r7,28(sp)
 20079a0:	8009883a 	mov	r4,r16
 20079a4:	1887883a 	add	r3,r3,r2
 20079a8:	388f883a 	add	r7,r7,r2
 20079ac:	01400044 	movi	r5,1
 20079b0:	d8c00815 	stw	r3,32(sp)
 20079b4:	d9c00715 	stw	r7,28(sp)
 20079b8:	2009ecc0 	call	2009ecc <__i2b>
 20079bc:	102b883a 	mov	r21,r2
 20079c0:	90000a26 	beq	r18,zero,20079ec <_dtoa_r+0x9fc>
 20079c4:	d8800717 	ldw	r2,28(sp)
 20079c8:	0080080e 	bge	zero,r2,20079ec <_dtoa_r+0x9fc>
 20079cc:	90812b16 	blt	r18,r2,2007e7c <_dtoa_r+0xe8c>
 20079d0:	d8c00817 	ldw	r3,32(sp)
 20079d4:	d9000717 	ldw	r4,28(sp)
 20079d8:	90a5c83a 	sub	r18,r18,r2
 20079dc:	1887c83a 	sub	r3,r3,r2
 20079e0:	2089c83a 	sub	r4,r4,r2
 20079e4:	d8c00815 	stw	r3,32(sp)
 20079e8:	d9000715 	stw	r4,28(sp)
 20079ec:	d9c00a17 	ldw	r7,40(sp)
 20079f0:	01c0140e 	bge	zero,r7,2007a44 <_dtoa_r+0xa54>
 20079f4:	d8800c17 	ldw	r2,48(sp)
 20079f8:	1001de26 	beq	r2,zero,2008174 <_dtoa_r+0x1184>
 20079fc:	04c00e0e 	bge	zero,r19,2007a38 <_dtoa_r+0xa48>
 2007a00:	a80b883a 	mov	r5,r21
 2007a04:	8009883a 	mov	r4,r16
 2007a08:	980d883a 	mov	r6,r19
 2007a0c:	200a1600 	call	200a160 <__pow5mult>
 2007a10:	e00d883a 	mov	r6,fp
 2007a14:	8009883a 	mov	r4,r16
 2007a18:	100b883a 	mov	r5,r2
 2007a1c:	102b883a 	mov	r21,r2
 2007a20:	2009f080 	call	2009f08 <__multiply>
 2007a24:	1029883a 	mov	r20,r2
 2007a28:	e00b883a 	mov	r5,fp
 2007a2c:	8009883a 	mov	r4,r16
 2007a30:	2009b440 	call	2009b44 <_Bfree>
 2007a34:	a039883a 	mov	fp,r20
 2007a38:	d8c00a17 	ldw	r3,40(sp)
 2007a3c:	1ccdc83a 	sub	r6,r3,r19
 2007a40:	3001291e 	bne	r6,zero,2007ee8 <_dtoa_r+0xef8>
 2007a44:	8009883a 	mov	r4,r16
 2007a48:	01400044 	movi	r5,1
 2007a4c:	2009ecc0 	call	2009ecc <__i2b>
 2007a50:	d9000b17 	ldw	r4,44(sp)
 2007a54:	1029883a 	mov	r20,r2
 2007a58:	0100050e 	bge	zero,r4,2007a70 <_dtoa_r+0xa80>
 2007a5c:	d9800b17 	ldw	r6,44(sp)
 2007a60:	8009883a 	mov	r4,r16
 2007a64:	100b883a 	mov	r5,r2
 2007a68:	200a1600 	call	200a160 <__pow5mult>
 2007a6c:	1029883a 	mov	r20,r2
 2007a70:	d9c00417 	ldw	r7,16(sp)
 2007a74:	00800044 	movi	r2,1
 2007a78:	11c0f00e 	bge	r2,r7,2007e3c <_dtoa_r+0xe4c>
 2007a7c:	0023883a 	mov	r17,zero
 2007a80:	d8800b17 	ldw	r2,44(sp)
 2007a84:	1001741e 	bne	r2,zero,2008058 <_dtoa_r+0x1068>
 2007a88:	00800044 	movi	r2,1
 2007a8c:	d8c00717 	ldw	r3,28(sp)
 2007a90:	10c5883a 	add	r2,r2,r3
 2007a94:	108007cc 	andi	r2,r2,31
 2007a98:	10008026 	beq	r2,zero,2007c9c <_dtoa_r+0xcac>
 2007a9c:	01000804 	movi	r4,32
 2007aa0:	2089c83a 	sub	r4,r4,r2
 2007aa4:	00c00104 	movi	r3,4
 2007aa8:	1902d00e 	bge	r3,r4,20085ec <_dtoa_r+0x15fc>
 2007aac:	d9000817 	ldw	r4,32(sp)
 2007ab0:	d9c00717 	ldw	r7,28(sp)
 2007ab4:	00c00704 	movi	r3,28
 2007ab8:	1885c83a 	sub	r2,r3,r2
 2007abc:	2089883a 	add	r4,r4,r2
 2007ac0:	388f883a 	add	r7,r7,r2
 2007ac4:	d9000815 	stw	r4,32(sp)
 2007ac8:	90a5883a 	add	r18,r18,r2
 2007acc:	d9c00715 	stw	r7,28(sp)
 2007ad0:	d9c00817 	ldw	r7,32(sp)
 2007ad4:	01c0050e 	bge	zero,r7,2007aec <_dtoa_r+0xafc>
 2007ad8:	e00b883a 	mov	r5,fp
 2007adc:	8009883a 	mov	r4,r16
 2007ae0:	380d883a 	mov	r6,r7
 2007ae4:	200a28c0 	call	200a28c <__lshift>
 2007ae8:	1039883a 	mov	fp,r2
 2007aec:	d8800717 	ldw	r2,28(sp)
 2007af0:	0080050e 	bge	zero,r2,2007b08 <_dtoa_r+0xb18>
 2007af4:	a00b883a 	mov	r5,r20
 2007af8:	8009883a 	mov	r4,r16
 2007afc:	100d883a 	mov	r6,r2
 2007b00:	200a28c0 	call	200a28c <__lshift>
 2007b04:	1029883a 	mov	r20,r2
 2007b08:	d8c00d17 	ldw	r3,52(sp)
 2007b0c:	1801401e 	bne	r3,zero,2008010 <_dtoa_r+0x1020>
 2007b10:	d8800917 	ldw	r2,36(sp)
 2007b14:	00815a0e 	bge	zero,r2,2008080 <_dtoa_r+0x1090>
 2007b18:	d8c00c17 	ldw	r3,48(sp)
 2007b1c:	18006f1e 	bne	r3,zero,2007cdc <_dtoa_r+0xcec>
 2007b20:	b823883a 	mov	r17,r23
 2007b24:	dc800917 	ldw	r18,36(sp)
 2007b28:	00000206 	br	2007b34 <_dtoa_r+0xb44>
 2007b2c:	2009b6c0 	call	2009b6c <__multadd>
 2007b30:	1039883a 	mov	fp,r2
 2007b34:	e009883a 	mov	r4,fp
 2007b38:	a00b883a 	mov	r5,r20
 2007b3c:	2006db40 	call	2006db4 <quorem>
 2007b40:	10800c04 	addi	r2,r2,48
 2007b44:	88800005 	stb	r2,0(r17)
 2007b48:	8c400044 	addi	r17,r17,1
 2007b4c:	8dc7c83a 	sub	r3,r17,r23
 2007b50:	8009883a 	mov	r4,r16
 2007b54:	e00b883a 	mov	r5,fp
 2007b58:	01800284 	movi	r6,10
 2007b5c:	000f883a 	mov	r7,zero
 2007b60:	1cbff216 	blt	r3,r18,2007b2c <__alt_mem_epcs_flash_controller+0xfdffeb2c>
 2007b64:	dd800917 	ldw	r22,36(sp)
 2007b68:	1007883a 	mov	r3,r2
 2007b6c:	05823a0e 	bge	zero,r22,2008458 <_dtoa_r+0x1468>
 2007b70:	bdad883a 	add	r22,r23,r22
 2007b74:	0023883a 	mov	r17,zero
 2007b78:	e00b883a 	mov	r5,fp
 2007b7c:	01800044 	movi	r6,1
 2007b80:	8009883a 	mov	r4,r16
 2007b84:	d8c01515 	stw	r3,84(sp)
 2007b88:	200a28c0 	call	200a28c <__lshift>
 2007b8c:	1009883a 	mov	r4,r2
 2007b90:	a00b883a 	mov	r5,r20
 2007b94:	1039883a 	mov	fp,r2
 2007b98:	200a3e80 	call	200a3e8 <__mcmp>
 2007b9c:	d8c01517 	ldw	r3,84(sp)
 2007ba0:	0080d60e 	bge	zero,r2,2007efc <_dtoa_r+0xf0c>
 2007ba4:	b13fffc3 	ldbu	r4,-1(r22)
 2007ba8:	b0ffff84 	addi	r3,r22,-2
 2007bac:	01800e44 	movi	r6,57
 2007bb0:	00000306 	br	2007bc0 <_dtoa_r+0xbd0>
 2007bb4:	19000003 	ldbu	r4,0(r3)
 2007bb8:	102d883a 	mov	r22,r2
 2007bbc:	18ffffc4 	addi	r3,r3,-1
 2007bc0:	21403fcc 	andi	r5,r4,255
 2007bc4:	2940201c 	xori	r5,r5,128
 2007bc8:	297fe004 	addi	r5,r5,-128
 2007bcc:	b0bfffc4 	addi	r2,r22,-1
 2007bd0:	2981a71e 	bne	r5,r6,2008270 <_dtoa_r+0x1280>
 2007bd4:	b8bff71e 	bne	r23,r2,2007bb4 <__alt_mem_epcs_flash_controller+0xfdffebb4>
 2007bd8:	d8800617 	ldw	r2,24(sp)
 2007bdc:	10800044 	addi	r2,r2,1
 2007be0:	d8800615 	stw	r2,24(sp)
 2007be4:	00800c44 	movi	r2,49
 2007be8:	b8800005 	stb	r2,0(r23)
 2007bec:	8009883a 	mov	r4,r16
 2007bf0:	a00b883a 	mov	r5,r20
 2007bf4:	2009b440 	call	2009b44 <_Bfree>
 2007bf8:	a83e9e26 	beq	r21,zero,2007674 <__alt_mem_epcs_flash_controller+0xfdffe674>
 2007bfc:	88000426 	beq	r17,zero,2007c10 <_dtoa_r+0xc20>
 2007c00:	8d400326 	beq	r17,r21,2007c10 <_dtoa_r+0xc20>
 2007c04:	8009883a 	mov	r4,r16
 2007c08:	880b883a 	mov	r5,r17
 2007c0c:	2009b440 	call	2009b44 <_Bfree>
 2007c10:	8009883a 	mov	r4,r16
 2007c14:	a80b883a 	mov	r5,r21
 2007c18:	2009b440 	call	2009b44 <_Bfree>
 2007c1c:	003e9506 	br	2007674 <__alt_mem_epcs_flash_controller+0xfdffe674>
 2007c20:	00c00044 	movi	r3,1
 2007c24:	d8c00d15 	stw	r3,52(sp)
 2007c28:	003d9f06 	br	20072a8 <__alt_mem_epcs_flash_controller+0xfdffe2a8>
 2007c2c:	d9000817 	ldw	r4,32(sp)
 2007c30:	d8800617 	ldw	r2,24(sp)
 2007c34:	d8000b15 	stw	zero,44(sp)
 2007c38:	2089c83a 	sub	r4,r4,r2
 2007c3c:	0087c83a 	sub	r3,zero,r2
 2007c40:	d9000815 	stw	r4,32(sp)
 2007c44:	d8c00a15 	stw	r3,40(sp)
 2007c48:	003da306 	br	20072d8 <__alt_mem_epcs_flash_controller+0xfdffe2d8>
 2007c4c:	0529c83a 	sub	r20,zero,r20
 2007c50:	dd000815 	stw	r20,32(sp)
 2007c54:	d8000715 	stw	zero,28(sp)
 2007c58:	003d9806 	br	20072bc <__alt_mem_epcs_flash_controller+0xfdffe2bc>
 2007c5c:	d9000617 	ldw	r4,24(sp)
 2007c60:	2001a580 	call	2001a58 <__floatsidf>
 2007c64:	1009883a 	mov	r4,r2
 2007c68:	180b883a 	mov	r5,r3
 2007c6c:	980d883a 	mov	r6,r19
 2007c70:	900f883a 	mov	r7,r18
 2007c74:	200fa780 	call	200fa78 <__eqdf2>
 2007c78:	103d7a26 	beq	r2,zero,2007264 <__alt_mem_epcs_flash_controller+0xfdffe264>
 2007c7c:	d8800617 	ldw	r2,24(sp)
 2007c80:	10bfffc4 	addi	r2,r2,-1
 2007c84:	d8800615 	stw	r2,24(sp)
 2007c88:	003d7606 	br	2007264 <__alt_mem_epcs_flash_controller+0xfdffe264>
 2007c8c:	dcc00a17 	ldw	r19,40(sp)
 2007c90:	dc800817 	ldw	r18,32(sp)
 2007c94:	002b883a 	mov	r21,zero
 2007c98:	003f4906 	br	20079c0 <__alt_mem_epcs_flash_controller+0xfdffe9c0>
 2007c9c:	00800704 	movi	r2,28
 2007ca0:	d8c00817 	ldw	r3,32(sp)
 2007ca4:	d9000717 	ldw	r4,28(sp)
 2007ca8:	90a5883a 	add	r18,r18,r2
 2007cac:	1887883a 	add	r3,r3,r2
 2007cb0:	2089883a 	add	r4,r4,r2
 2007cb4:	d8c00815 	stw	r3,32(sp)
 2007cb8:	d9000715 	stw	r4,28(sp)
 2007cbc:	003f8406 	br	2007ad0 <__alt_mem_epcs_flash_controller+0xfdffead0>
 2007cc0:	d9c00317 	ldw	r7,12(sp)
 2007cc4:	013efb84 	movi	r4,-1042
 2007cc8:	2509c83a 	sub	r4,r4,r20
 2007ccc:	3908983a 	sll	r4,r7,r4
 2007cd0:	003d3006 	br	2007194 <__alt_mem_epcs_flash_controller+0xfdffe194>
 2007cd4:	d8000d15 	stw	zero,52(sp)
 2007cd8:	003d7306 	br	20072a8 <__alt_mem_epcs_flash_controller+0xfdffe2a8>
 2007cdc:	0480050e 	bge	zero,r18,2007cf4 <_dtoa_r+0xd04>
 2007ce0:	a80b883a 	mov	r5,r21
 2007ce4:	8009883a 	mov	r4,r16
 2007ce8:	900d883a 	mov	r6,r18
 2007cec:	200a28c0 	call	200a28c <__lshift>
 2007cf0:	102b883a 	mov	r21,r2
 2007cf4:	8801611e 	bne	r17,zero,200827c <_dtoa_r+0x128c>
 2007cf8:	a827883a 	mov	r19,r21
 2007cfc:	d8c00317 	ldw	r3,12(sp)
 2007d00:	d9000917 	ldw	r4,36(sp)
 2007d04:	b8bfffc4 	addi	r2,r23,-1
 2007d08:	18c0004c 	andi	r3,r3,1
 2007d0c:	1105883a 	add	r2,r2,r4
 2007d10:	b825883a 	mov	r18,r23
 2007d14:	d8800515 	stw	r2,20(sp)
 2007d18:	a823883a 	mov	r17,r21
 2007d1c:	d8c00315 	stw	r3,12(sp)
 2007d20:	ddc00715 	stw	r23,28(sp)
 2007d24:	e009883a 	mov	r4,fp
 2007d28:	a00b883a 	mov	r5,r20
 2007d2c:	2006db40 	call	2006db4 <quorem>
 2007d30:	e009883a 	mov	r4,fp
 2007d34:	880b883a 	mov	r5,r17
 2007d38:	102d883a 	mov	r22,r2
 2007d3c:	200a3e80 	call	200a3e8 <__mcmp>
 2007d40:	980d883a 	mov	r6,r19
 2007d44:	8009883a 	mov	r4,r16
 2007d48:	a00b883a 	mov	r5,r20
 2007d4c:	102b883a 	mov	r21,r2
 2007d50:	200a4400 	call	200a440 <__mdiff>
 2007d54:	100d883a 	mov	r6,r2
 2007d58:	10800317 	ldw	r2,12(r2)
 2007d5c:	b5c00c04 	addi	r23,r22,48
 2007d60:	10008c26 	beq	r2,zero,2007f94 <_dtoa_r+0xfa4>
 2007d64:	8009883a 	mov	r4,r16
 2007d68:	300b883a 	mov	r5,r6
 2007d6c:	2009b440 	call	2009b44 <_Bfree>
 2007d70:	00800044 	movi	r2,1
 2007d74:	a8007116 	blt	r21,zero,2007f3c <_dtoa_r+0xf4c>
 2007d78:	a800041e 	bne	r21,zero,2007d8c <_dtoa_r+0xd9c>
 2007d7c:	d9c00417 	ldw	r7,16(sp)
 2007d80:	3800021e 	bne	r7,zero,2007d8c <_dtoa_r+0xd9c>
 2007d84:	d8c00317 	ldw	r3,12(sp)
 2007d88:	18006c26 	beq	r3,zero,2007f3c <_dtoa_r+0xf4c>
 2007d8c:	00814c16 	blt	zero,r2,20082c0 <_dtoa_r+0x12d0>
 2007d90:	d8c00517 	ldw	r3,20(sp)
 2007d94:	95400044 	addi	r21,r18,1
 2007d98:	95c00005 	stb	r23,0(r18)
 2007d9c:	a82d883a 	mov	r22,r21
 2007da0:	90c14d26 	beq	r18,r3,20082d8 <_dtoa_r+0x12e8>
 2007da4:	e00b883a 	mov	r5,fp
 2007da8:	8009883a 	mov	r4,r16
 2007dac:	01800284 	movi	r6,10
 2007db0:	000f883a 	mov	r7,zero
 2007db4:	2009b6c0 	call	2009b6c <__multadd>
 2007db8:	1039883a 	mov	fp,r2
 2007dbc:	8cc08b26 	beq	r17,r19,2007fec <_dtoa_r+0xffc>
 2007dc0:	880b883a 	mov	r5,r17
 2007dc4:	01800284 	movi	r6,10
 2007dc8:	000f883a 	mov	r7,zero
 2007dcc:	8009883a 	mov	r4,r16
 2007dd0:	2009b6c0 	call	2009b6c <__multadd>
 2007dd4:	980b883a 	mov	r5,r19
 2007dd8:	8009883a 	mov	r4,r16
 2007ddc:	01800284 	movi	r6,10
 2007de0:	000f883a 	mov	r7,zero
 2007de4:	1023883a 	mov	r17,r2
 2007de8:	2009b6c0 	call	2009b6c <__multadd>
 2007dec:	1027883a 	mov	r19,r2
 2007df0:	a825883a 	mov	r18,r21
 2007df4:	003fcb06 	br	2007d24 <__alt_mem_epcs_flash_controller+0xfdffed24>
 2007df8:	d9c00417 	ldw	r7,16(sp)
 2007dfc:	00800104 	movi	r2,4
 2007e00:	3880e426 	beq	r7,r2,2008194 <_dtoa_r+0x11a4>
 2007e04:	00800144 	movi	r2,5
 2007e08:	38be3c1e 	bne	r7,r2,20076fc <__alt_mem_epcs_flash_controller+0xfdffe6fc>
 2007e0c:	00c00044 	movi	r3,1
 2007e10:	d8c00c15 	stw	r3,48(sp)
 2007e14:	d9c02117 	ldw	r7,132(sp)
 2007e18:	d8800617 	ldw	r2,24(sp)
 2007e1c:	388f883a 	add	r7,r7,r2
 2007e20:	3c800044 	addi	r18,r7,1
 2007e24:	d9c00e15 	stw	r7,56(sp)
 2007e28:	dc800915 	stw	r18,36(sp)
 2007e2c:	04bd3e16 	blt	zero,r18,2007328 <__alt_mem_epcs_flash_controller+0xfdffe328>
 2007e30:	80001115 	stw	zero,68(r16)
 2007e34:	000b883a 	mov	r5,zero
 2007e38:	003d4606 	br	2007354 <__alt_mem_epcs_flash_controller+0xfdffe354>
 2007e3c:	d8c00317 	ldw	r3,12(sp)
 2007e40:	183f0e1e 	bne	r3,zero,2007a7c <__alt_mem_epcs_flash_controller+0xfdffea7c>
 2007e44:	00c00434 	movhi	r3,16
 2007e48:	18ffffc4 	addi	r3,r3,-1
 2007e4c:	88c6703a 	and	r3,r17,r3
 2007e50:	183f0a1e 	bne	r3,zero,2007a7c <__alt_mem_epcs_flash_controller+0xfdffea7c>
 2007e54:	8c5ffc2c 	andhi	r17,r17,32752
 2007e58:	883f0826 	beq	r17,zero,2007a7c <__alt_mem_epcs_flash_controller+0xfdffea7c>
 2007e5c:	d9000817 	ldw	r4,32(sp)
 2007e60:	d9c00717 	ldw	r7,28(sp)
 2007e64:	1023883a 	mov	r17,r2
 2007e68:	2089883a 	add	r4,r4,r2
 2007e6c:	388f883a 	add	r7,r7,r2
 2007e70:	d9000815 	stw	r4,32(sp)
 2007e74:	d9c00715 	stw	r7,28(sp)
 2007e78:	003f0106 	br	2007a80 <__alt_mem_epcs_flash_controller+0xfdffea80>
 2007e7c:	9005883a 	mov	r2,r18
 2007e80:	003ed306 	br	20079d0 <__alt_mem_epcs_flash_controller+0xfdffe9d0>
 2007e84:	d8800917 	ldw	r2,36(sp)
 2007e88:	00be3516 	blt	zero,r2,2007760 <__alt_mem_epcs_flash_controller+0xfdffe760>
 2007e8c:	1000b61e 	bne	r2,zero,2008168 <_dtoa_r+0x1178>
 2007e90:	9009883a 	mov	r4,r18
 2007e94:	980b883a 	mov	r5,r19
 2007e98:	000d883a 	mov	r6,zero
 2007e9c:	01d00534 	movhi	r7,16404
 2007ea0:	20015c00 	call	20015c0 <__muldf3>
 2007ea4:	d9800317 	ldw	r6,12(sp)
 2007ea8:	1009883a 	mov	r4,r2
 2007eac:	180b883a 	mov	r5,r3
 2007eb0:	880f883a 	mov	r7,r17
 2007eb4:	200fb940 	call	200fb94 <__gedf2>
 2007eb8:	0029883a 	mov	r20,zero
 2007ebc:	002b883a 	mov	r21,zero
 2007ec0:	10007e16 	blt	r2,zero,20080bc <_dtoa_r+0x10cc>
 2007ec4:	d8802117 	ldw	r2,132(sp)
 2007ec8:	b82d883a 	mov	r22,r23
 2007ecc:	0084303a 	nor	r2,zero,r2
 2007ed0:	d8800615 	stw	r2,24(sp)
 2007ed4:	8009883a 	mov	r4,r16
 2007ed8:	a00b883a 	mov	r5,r20
 2007edc:	2009b440 	call	2009b44 <_Bfree>
 2007ee0:	a83f4b1e 	bne	r21,zero,2007c10 <__alt_mem_epcs_flash_controller+0xfdffec10>
 2007ee4:	003de306 	br	2007674 <__alt_mem_epcs_flash_controller+0xfdffe674>
 2007ee8:	e00b883a 	mov	r5,fp
 2007eec:	8009883a 	mov	r4,r16
 2007ef0:	200a1600 	call	200a160 <__pow5mult>
 2007ef4:	1039883a 	mov	fp,r2
 2007ef8:	003ed206 	br	2007a44 <__alt_mem_epcs_flash_controller+0xfdffea44>
 2007efc:	1000021e 	bne	r2,zero,2007f08 <_dtoa_r+0xf18>
 2007f00:	18c0004c 	andi	r3,r3,1
 2007f04:	183f271e 	bne	r3,zero,2007ba4 <__alt_mem_epcs_flash_controller+0xfdffeba4>
 2007f08:	01000c04 	movi	r4,48
 2007f0c:	00000106 	br	2007f14 <_dtoa_r+0xf24>
 2007f10:	102d883a 	mov	r22,r2
 2007f14:	b0bfffc4 	addi	r2,r22,-1
 2007f18:	10c00007 	ldb	r3,0(r2)
 2007f1c:	193ffc26 	beq	r3,r4,2007f10 <__alt_mem_epcs_flash_controller+0xfdffef10>
 2007f20:	003f3206 	br	2007bec <__alt_mem_epcs_flash_controller+0xfdffebec>
 2007f24:	d8c00f17 	ldw	r3,60(sp)
 2007f28:	18015026 	beq	r3,zero,200846c <_dtoa_r+0x147c>
 2007f2c:	10810cc4 	addi	r2,r2,1075
 2007f30:	dcc00a17 	ldw	r19,40(sp)
 2007f34:	dc800817 	ldw	r18,32(sp)
 2007f38:	003e9706 	br	2007998 <__alt_mem_epcs_flash_controller+0xfdffe998>
 2007f3c:	b807883a 	mov	r3,r23
 2007f40:	182b883a 	mov	r21,r3
 2007f44:	ddc00717 	ldw	r23,28(sp)
 2007f48:	00800e0e 	bge	zero,r2,2007f84 <_dtoa_r+0xf94>
 2007f4c:	e00b883a 	mov	r5,fp
 2007f50:	01800044 	movi	r6,1
 2007f54:	8009883a 	mov	r4,r16
 2007f58:	d8c01515 	stw	r3,84(sp)
 2007f5c:	200a28c0 	call	200a28c <__lshift>
 2007f60:	1009883a 	mov	r4,r2
 2007f64:	a00b883a 	mov	r5,r20
 2007f68:	1039883a 	mov	fp,r2
 2007f6c:	200a3e80 	call	200a3e8 <__mcmp>
 2007f70:	d8c01517 	ldw	r3,84(sp)
 2007f74:	0081880e 	bge	zero,r2,2008598 <_dtoa_r+0x15a8>
 2007f78:	00800e44 	movi	r2,57
 2007f7c:	b0c00c44 	addi	r3,r22,49
 2007f80:	a8816326 	beq	r21,r2,2008510 <_dtoa_r+0x1520>
 2007f84:	90c00005 	stb	r3,0(r18)
 2007f88:	95800044 	addi	r22,r18,1
 2007f8c:	982b883a 	mov	r21,r19
 2007f90:	003f1606 	br	2007bec <__alt_mem_epcs_flash_controller+0xfdffebec>
 2007f94:	300b883a 	mov	r5,r6
 2007f98:	e009883a 	mov	r4,fp
 2007f9c:	d9801515 	stw	r6,84(sp)
 2007fa0:	200a3e80 	call	200a3e8 <__mcmp>
 2007fa4:	d9801517 	ldw	r6,84(sp)
 2007fa8:	8009883a 	mov	r4,r16
 2007fac:	d8801515 	stw	r2,84(sp)
 2007fb0:	300b883a 	mov	r5,r6
 2007fb4:	2009b440 	call	2009b44 <_Bfree>
 2007fb8:	d8801517 	ldw	r2,84(sp)
 2007fbc:	103f6d1e 	bne	r2,zero,2007d74 <__alt_mem_epcs_flash_controller+0xfdffed74>
 2007fc0:	d9c00417 	ldw	r7,16(sp)
 2007fc4:	383f6b1e 	bne	r7,zero,2007d74 <__alt_mem_epcs_flash_controller+0xfdffed74>
 2007fc8:	d8c00317 	ldw	r3,12(sp)
 2007fcc:	183f691e 	bne	r3,zero,2007d74 <__alt_mem_epcs_flash_controller+0xfdffed74>
 2007fd0:	b807883a 	mov	r3,r23
 2007fd4:	00800e44 	movi	r2,57
 2007fd8:	ddc00717 	ldw	r23,28(sp)
 2007fdc:	18814c26 	beq	r3,r2,2008510 <_dtoa_r+0x1520>
 2007fe0:	057fe80e 	bge	zero,r21,2007f84 <__alt_mem_epcs_flash_controller+0xfdffef84>
 2007fe4:	b0c00c44 	addi	r3,r22,49
 2007fe8:	003fe606 	br	2007f84 <__alt_mem_epcs_flash_controller+0xfdffef84>
 2007fec:	880b883a 	mov	r5,r17
 2007ff0:	8009883a 	mov	r4,r16
 2007ff4:	01800284 	movi	r6,10
 2007ff8:	000f883a 	mov	r7,zero
 2007ffc:	2009b6c0 	call	2009b6c <__multadd>
 2008000:	1023883a 	mov	r17,r2
 2008004:	1027883a 	mov	r19,r2
 2008008:	a825883a 	mov	r18,r21
 200800c:	003f4506 	br	2007d24 <__alt_mem_epcs_flash_controller+0xfdffed24>
 2008010:	e009883a 	mov	r4,fp
 2008014:	a00b883a 	mov	r5,r20
 2008018:	200a3e80 	call	200a3e8 <__mcmp>
 200801c:	103ebc0e 	bge	r2,zero,2007b10 <__alt_mem_epcs_flash_controller+0xfdffeb10>
 2008020:	e00b883a 	mov	r5,fp
 2008024:	8009883a 	mov	r4,r16
 2008028:	01800284 	movi	r6,10
 200802c:	000f883a 	mov	r7,zero
 2008030:	2009b6c0 	call	2009b6c <__multadd>
 2008034:	1039883a 	mov	fp,r2
 2008038:	d8800617 	ldw	r2,24(sp)
 200803c:	d8c00c17 	ldw	r3,48(sp)
 2008040:	10bfffc4 	addi	r2,r2,-1
 2008044:	d8800615 	stw	r2,24(sp)
 2008048:	1801571e 	bne	r3,zero,20085a8 <_dtoa_r+0x15b8>
 200804c:	d9c00e17 	ldw	r7,56(sp)
 2008050:	d9c00915 	stw	r7,36(sp)
 2008054:	003eae06 	br	2007b10 <__alt_mem_epcs_flash_controller+0xfdffeb10>
 2008058:	a0800417 	ldw	r2,16(r20)
 200805c:	10800104 	addi	r2,r2,4
 2008060:	1085883a 	add	r2,r2,r2
 2008064:	1085883a 	add	r2,r2,r2
 2008068:	a085883a 	add	r2,r20,r2
 200806c:	11000017 	ldw	r4,0(r2)
 2008070:	2009db40 	call	2009db4 <__hi0bits>
 2008074:	00c00804 	movi	r3,32
 2008078:	1885c83a 	sub	r2,r3,r2
 200807c:	003e8306 	br	2007a8c <__alt_mem_epcs_flash_controller+0xfdffea8c>
 2008080:	d9c00417 	ldw	r7,16(sp)
 2008084:	00800084 	movi	r2,2
 2008088:	11fea30e 	bge	r2,r7,2007b18 <__alt_mem_epcs_flash_controller+0xfdffeb18>
 200808c:	d8800917 	ldw	r2,36(sp)
 2008090:	103f8c1e 	bne	r2,zero,2007ec4 <__alt_mem_epcs_flash_controller+0xfdffeec4>
 2008094:	a00b883a 	mov	r5,r20
 2008098:	8009883a 	mov	r4,r16
 200809c:	01800144 	movi	r6,5
 20080a0:	000f883a 	mov	r7,zero
 20080a4:	2009b6c0 	call	2009b6c <__multadd>
 20080a8:	e009883a 	mov	r4,fp
 20080ac:	100b883a 	mov	r5,r2
 20080b0:	1029883a 	mov	r20,r2
 20080b4:	200a3e80 	call	200a3e8 <__mcmp>
 20080b8:	00bf820e 	bge	zero,r2,2007ec4 <__alt_mem_epcs_flash_controller+0xfdffeec4>
 20080bc:	00800c44 	movi	r2,49
 20080c0:	b8800005 	stb	r2,0(r23)
 20080c4:	d8800617 	ldw	r2,24(sp)
 20080c8:	bd800044 	addi	r22,r23,1
 20080cc:	10800044 	addi	r2,r2,1
 20080d0:	d8800615 	stw	r2,24(sp)
 20080d4:	003f7f06 	br	2007ed4 <__alt_mem_epcs_flash_controller+0xfdffeed4>
 20080d8:	dc000417 	ldw	r16,16(sp)
 20080dc:	003d6506 	br	2007674 <__alt_mem_epcs_flash_controller+0xfdffe674>
 20080e0:	9009883a 	mov	r4,r18
 20080e4:	2001a580 	call	2001a58 <__floatsidf>
 20080e8:	1009883a 	mov	r4,r2
 20080ec:	180b883a 	mov	r5,r3
 20080f0:	980d883a 	mov	r6,r19
 20080f4:	a00f883a 	mov	r7,r20
 20080f8:	20015c00 	call	20015c0 <__muldf3>
 20080fc:	1009883a 	mov	r4,r2
 2008100:	180b883a 	mov	r5,r3
 2008104:	000d883a 	mov	r6,zero
 2008108:	01d00734 	movhi	r7,16412
 200810c:	200f9c40 	call	200f9c4 <__adddf3>
 2008110:	057f3034 	movhi	r21,64704
 2008114:	1025883a 	mov	r18,r2
 2008118:	1d6b883a 	add	r21,r3,r21
 200811c:	9809883a 	mov	r4,r19
 2008120:	a00b883a 	mov	r5,r20
 2008124:	000d883a 	mov	r6,zero
 2008128:	01d00534 	movhi	r7,16404
 200812c:	200fa180 	call	200fa18 <__subdf3>
 2008130:	1009883a 	mov	r4,r2
 2008134:	180b883a 	mov	r5,r3
 2008138:	900d883a 	mov	r6,r18
 200813c:	a80f883a 	mov	r7,r21
 2008140:	1027883a 	mov	r19,r2
 2008144:	1829883a 	mov	r20,r3
 2008148:	200fb300 	call	200fb30 <__gtdf2>
 200814c:	00806616 	blt	zero,r2,20082e8 <_dtoa_r+0x12f8>
 2008150:	a9e0003c 	xorhi	r7,r21,32768
 2008154:	9809883a 	mov	r4,r19
 2008158:	a00b883a 	mov	r5,r20
 200815c:	900d883a 	mov	r6,r18
 2008160:	200fbf80 	call	200fbf8 <__ltdf2>
 2008164:	103d710e 	bge	r2,zero,200772c <__alt_mem_epcs_flash_controller+0xfdffe72c>
 2008168:	0029883a 	mov	r20,zero
 200816c:	002b883a 	mov	r21,zero
 2008170:	003f5406 	br	2007ec4 <__alt_mem_epcs_flash_controller+0xfdffeec4>
 2008174:	d9800a17 	ldw	r6,40(sp)
 2008178:	e00b883a 	mov	r5,fp
 200817c:	8009883a 	mov	r4,r16
 2008180:	200a1600 	call	200a160 <__pow5mult>
 2008184:	1039883a 	mov	fp,r2
 2008188:	003e2e06 	br	2007a44 <__alt_mem_epcs_flash_controller+0xfdffea44>
 200818c:	d8000c15 	stw	zero,48(sp)
 2008190:	003f2006 	br	2007e14 <__alt_mem_epcs_flash_controller+0xfdffee14>
 2008194:	00800044 	movi	r2,1
 2008198:	d8800c15 	stw	r2,48(sp)
 200819c:	003c5d06 	br	2007314 <__alt_mem_epcs_flash_controller+0xfdffe314>
 20081a0:	d8c00a17 	ldw	r3,40(sp)
 20081a4:	d9000b17 	ldw	r4,44(sp)
 20081a8:	dcc00a15 	stw	r19,40(sp)
 20081ac:	98c5c83a 	sub	r2,r19,r3
 20081b0:	2089883a 	add	r4,r4,r2
 20081b4:	d9000b15 	stw	r4,44(sp)
 20081b8:	0027883a 	mov	r19,zero
 20081bc:	003df206 	br	2007988 <__alt_mem_epcs_flash_controller+0xfdffe988>
 20081c0:	d9000317 	ldw	r4,12(sp)
 20081c4:	8829883a 	mov	r20,r17
 20081c8:	04800084 	movi	r18,2
 20081cc:	d9001015 	stw	r4,64(sp)
 20081d0:	003c8106 	br	20073d8 <__alt_mem_epcs_flash_controller+0xfdffe3d8>
 20081d4:	04800044 	movi	r18,1
 20081d8:	dc800e15 	stw	r18,56(sp)
 20081dc:	dc800915 	stw	r18,36(sp)
 20081e0:	dc802115 	stw	r18,132(sp)
 20081e4:	003f1206 	br	2007e30 <__alt_mem_epcs_flash_controller+0xfdffee30>
 20081e8:	d8800617 	ldw	r2,24(sp)
 20081ec:	00abc83a 	sub	r21,zero,r2
 20081f0:	a800a426 	beq	r21,zero,2008484 <_dtoa_r+0x1494>
 20081f4:	a88003cc 	andi	r2,r21,15
 20081f8:	100490fa 	slli	r2,r2,3
 20081fc:	00c08234 	movhi	r3,520
 2008200:	18dd9f04 	addi	r3,r3,30332
 2008204:	d9000317 	ldw	r4,12(sp)
 2008208:	1885883a 	add	r2,r3,r2
 200820c:	11800017 	ldw	r6,0(r2)
 2008210:	11c00117 	ldw	r7,4(r2)
 2008214:	a82bd13a 	srai	r21,r21,4
 2008218:	880b883a 	mov	r5,r17
 200821c:	20015c00 	call	20015c0 <__muldf3>
 2008220:	1027883a 	mov	r19,r2
 2008224:	1829883a 	mov	r20,r3
 2008228:	a800e826 	beq	r21,zero,20085cc <_dtoa_r+0x15dc>
 200822c:	05808234 	movhi	r22,520
 2008230:	b59d9504 	addi	r22,r22,30292
 2008234:	04800084 	movi	r18,2
 2008238:	a980004c 	andi	r6,r21,1
 200823c:	1009883a 	mov	r4,r2
 2008240:	a82bd07a 	srai	r21,r21,1
 2008244:	180b883a 	mov	r5,r3
 2008248:	30000426 	beq	r6,zero,200825c <_dtoa_r+0x126c>
 200824c:	b1800017 	ldw	r6,0(r22)
 2008250:	b1c00117 	ldw	r7,4(r22)
 2008254:	94800044 	addi	r18,r18,1
 2008258:	20015c00 	call	20015c0 <__muldf3>
 200825c:	b5800204 	addi	r22,r22,8
 2008260:	a83ff51e 	bne	r21,zero,2008238 <__alt_mem_epcs_flash_controller+0xfdfff238>
 2008264:	1027883a 	mov	r19,r2
 2008268:	1829883a 	mov	r20,r3
 200826c:	003c7306 	br	200743c <__alt_mem_epcs_flash_controller+0xfdffe43c>
 2008270:	21000044 	addi	r4,r4,1
 2008274:	11000005 	stb	r4,0(r2)
 2008278:	003e5c06 	br	2007bec <__alt_mem_epcs_flash_controller+0xfdffebec>
 200827c:	a9400117 	ldw	r5,4(r21)
 2008280:	8009883a 	mov	r4,r16
 2008284:	2009a9c0 	call	2009a9c <_Balloc>
 2008288:	a9800417 	ldw	r6,16(r21)
 200828c:	11000304 	addi	r4,r2,12
 2008290:	a9400304 	addi	r5,r21,12
 2008294:	31800084 	addi	r6,r6,2
 2008298:	318d883a 	add	r6,r6,r6
 200829c:	318d883a 	add	r6,r6,r6
 20082a0:	1023883a 	mov	r17,r2
 20082a4:	20097d00 	call	20097d0 <memcpy>
 20082a8:	8009883a 	mov	r4,r16
 20082ac:	880b883a 	mov	r5,r17
 20082b0:	01800044 	movi	r6,1
 20082b4:	200a28c0 	call	200a28c <__lshift>
 20082b8:	1027883a 	mov	r19,r2
 20082bc:	003e8f06 	br	2007cfc <__alt_mem_epcs_flash_controller+0xfdffecfc>
 20082c0:	b807883a 	mov	r3,r23
 20082c4:	00800e44 	movi	r2,57
 20082c8:	ddc00717 	ldw	r23,28(sp)
 20082cc:	18809026 	beq	r3,r2,2008510 <_dtoa_r+0x1520>
 20082d0:	18c00044 	addi	r3,r3,1
 20082d4:	003f2b06 	br	2007f84 <__alt_mem_epcs_flash_controller+0xfdffef84>
 20082d8:	b807883a 	mov	r3,r23
 20082dc:	982b883a 	mov	r21,r19
 20082e0:	ddc00717 	ldw	r23,28(sp)
 20082e4:	003e2406 	br	2007b78 <__alt_mem_epcs_flash_controller+0xfdffeb78>
 20082e8:	0029883a 	mov	r20,zero
 20082ec:	002b883a 	mov	r21,zero
 20082f0:	003f7206 	br	20080bc <__alt_mem_epcs_flash_controller+0xfdfff0bc>
 20082f4:	593fffc4 	addi	r4,r11,-1
 20082f8:	200490fa 	slli	r2,r4,3
 20082fc:	00c08234 	movhi	r3,520
 2008300:	18dd9f04 	addi	r3,r3,30332
 2008304:	d9001015 	stw	r4,64(sp)
 2008308:	1885883a 	add	r2,r3,r2
 200830c:	11000017 	ldw	r4,0(r2)
 2008310:	11400117 	ldw	r5,4(r2)
 2008314:	900d883a 	mov	r6,r18
 2008318:	a80f883a 	mov	r7,r21
 200831c:	dac01615 	stw	r11,88(sp)
 2008320:	20015c00 	call	20015c0 <__muldf3>
 2008324:	a00b883a 	mov	r5,r20
 2008328:	9809883a 	mov	r4,r19
 200832c:	d8c01215 	stw	r3,72(sp)
 2008330:	d8801115 	stw	r2,68(sp)
 2008334:	2001b2c0 	call	2001b2c <__fixdfsi>
 2008338:	1009883a 	mov	r4,r2
 200833c:	1025883a 	mov	r18,r2
 2008340:	2001a580 	call	2001a58 <__floatsidf>
 2008344:	9809883a 	mov	r4,r19
 2008348:	a00b883a 	mov	r5,r20
 200834c:	100d883a 	mov	r6,r2
 2008350:	180f883a 	mov	r7,r3
 2008354:	94800c04 	addi	r18,r18,48
 2008358:	200fa180 	call	200fa18 <__subdf3>
 200835c:	bc800005 	stb	r18,0(r23)
 2008360:	dac01617 	ldw	r11,88(sp)
 2008364:	102b883a 	mov	r21,r2
 2008368:	00800044 	movi	r2,1
 200836c:	bd800044 	addi	r22,r23,1
 2008370:	1815883a 	mov	r10,r3
 2008374:	58802226 	beq	r11,r2,2008400 <_dtoa_r+0x1410>
 2008378:	bad7883a 	add	r11,r23,r11
 200837c:	dc001415 	stw	r16,80(sp)
 2008380:	a805883a 	mov	r2,r21
 2008384:	b027883a 	mov	r19,r22
 2008388:	5821883a 	mov	r16,r11
 200838c:	882b883a 	mov	r21,r17
 2008390:	000d883a 	mov	r6,zero
 2008394:	01d00934 	movhi	r7,16420
 2008398:	1009883a 	mov	r4,r2
 200839c:	180b883a 	mov	r5,r3
 20083a0:	20015c00 	call	20015c0 <__muldf3>
 20083a4:	180b883a 	mov	r5,r3
 20083a8:	1009883a 	mov	r4,r2
 20083ac:	1829883a 	mov	r20,r3
 20083b0:	1023883a 	mov	r17,r2
 20083b4:	2001b2c0 	call	2001b2c <__fixdfsi>
 20083b8:	1009883a 	mov	r4,r2
 20083bc:	1025883a 	mov	r18,r2
 20083c0:	2001a580 	call	2001a58 <__floatsidf>
 20083c4:	8809883a 	mov	r4,r17
 20083c8:	a00b883a 	mov	r5,r20
 20083cc:	100d883a 	mov	r6,r2
 20083d0:	180f883a 	mov	r7,r3
 20083d4:	94800c04 	addi	r18,r18,48
 20083d8:	200fa180 	call	200fa18 <__subdf3>
 20083dc:	9cc00044 	addi	r19,r19,1
 20083e0:	9cbfffc5 	stb	r18,-1(r19)
 20083e4:	9c3fea1e 	bne	r19,r16,2008390 <__alt_mem_epcs_flash_controller+0xfdfff390>
 20083e8:	1815883a 	mov	r10,r3
 20083ec:	d8c01017 	ldw	r3,64(sp)
 20083f0:	dc001417 	ldw	r16,80(sp)
 20083f4:	a823883a 	mov	r17,r21
 20083f8:	b0ed883a 	add	r22,r22,r3
 20083fc:	102b883a 	mov	r21,r2
 2008400:	d9001117 	ldw	r4,68(sp)
 2008404:	d9401217 	ldw	r5,72(sp)
 2008408:	000d883a 	mov	r6,zero
 200840c:	01cff834 	movhi	r7,16352
 2008410:	da801515 	stw	r10,84(sp)
 2008414:	200f9c40 	call	200f9c4 <__adddf3>
 2008418:	da801517 	ldw	r10,84(sp)
 200841c:	1009883a 	mov	r4,r2
 2008420:	180b883a 	mov	r5,r3
 2008424:	500f883a 	mov	r7,r10
 2008428:	a80d883a 	mov	r6,r21
 200842c:	200fbf80 	call	200fbf8 <__ltdf2>
 2008430:	da801517 	ldw	r10,84(sp)
 2008434:	10003b0e 	bge	r2,zero,2008524 <_dtoa_r+0x1534>
 2008438:	d9c01317 	ldw	r7,76(sp)
 200843c:	b53fffc3 	ldbu	r20,-1(r22)
 2008440:	d9c00615 	stw	r7,24(sp)
 2008444:	003d3106 	br	200790c <__alt_mem_epcs_flash_controller+0xfdffe90c>
 2008448:	d8800817 	ldw	r2,32(sp)
 200844c:	11e5c83a 	sub	r18,r2,r7
 2008450:	0005883a 	mov	r2,zero
 2008454:	003d5006 	br	2007998 <__alt_mem_epcs_flash_controller+0xfdffe998>
 2008458:	05800044 	movi	r22,1
 200845c:	003dc406 	br	2007b70 <__alt_mem_epcs_flash_controller+0xfdffeb70>
 2008460:	a5000044 	addi	r20,r20,1
 2008464:	15000005 	stb	r20,0(r2)
 2008468:	003c8206 	br	2007674 <__alt_mem_epcs_flash_controller+0xfdffe674>
 200846c:	d8800217 	ldw	r2,8(sp)
 2008470:	00c00d84 	movi	r3,54
 2008474:	dcc00a17 	ldw	r19,40(sp)
 2008478:	1885c83a 	sub	r2,r3,r2
 200847c:	dc800817 	ldw	r18,32(sp)
 2008480:	003d4506 	br	2007998 <__alt_mem_epcs_flash_controller+0xfdffe998>
 2008484:	dcc00317 	ldw	r19,12(sp)
 2008488:	8829883a 	mov	r20,r17
 200848c:	04800084 	movi	r18,2
 2008490:	003bea06 	br	200743c <__alt_mem_epcs_flash_controller+0xfdffe43c>
 2008494:	d9000917 	ldw	r4,36(sp)
 2008498:	203f1126 	beq	r4,zero,20080e0 <__alt_mem_epcs_flash_controller+0xfdfff0e0>
 200849c:	d9c00e17 	ldw	r7,56(sp)
 20084a0:	01fca20e 	bge	zero,r7,200772c <__alt_mem_epcs_flash_controller+0xfdffe72c>
 20084a4:	a00b883a 	mov	r5,r20
 20084a8:	9809883a 	mov	r4,r19
 20084ac:	000d883a 	mov	r6,zero
 20084b0:	01d00934 	movhi	r7,16420
 20084b4:	20015c00 	call	20015c0 <__muldf3>
 20084b8:	91000044 	addi	r4,r18,1
 20084bc:	1027883a 	mov	r19,r2
 20084c0:	1829883a 	mov	r20,r3
 20084c4:	2001a580 	call	2001a58 <__floatsidf>
 20084c8:	9809883a 	mov	r4,r19
 20084cc:	a00b883a 	mov	r5,r20
 20084d0:	100d883a 	mov	r6,r2
 20084d4:	180f883a 	mov	r7,r3
 20084d8:	20015c00 	call	20015c0 <__muldf3>
 20084dc:	1009883a 	mov	r4,r2
 20084e0:	180b883a 	mov	r5,r3
 20084e4:	000d883a 	mov	r6,zero
 20084e8:	01d00734 	movhi	r7,16412
 20084ec:	200f9c40 	call	200f9c4 <__adddf3>
 20084f0:	1025883a 	mov	r18,r2
 20084f4:	d8800617 	ldw	r2,24(sp)
 20084f8:	057f3034 	movhi	r21,64704
 20084fc:	1d6b883a 	add	r21,r3,r21
 2008500:	10bfffc4 	addi	r2,r2,-1
 2008504:	d8801315 	stw	r2,76(sp)
 2008508:	dac00e17 	ldw	r11,56(sp)
 200850c:	003be706 	br	20074ac <__alt_mem_epcs_flash_controller+0xfdffe4ac>
 2008510:	01000e44 	movi	r4,57
 2008514:	91000005 	stb	r4,0(r18)
 2008518:	95800044 	addi	r22,r18,1
 200851c:	982b883a 	mov	r21,r19
 2008520:	003da106 	br	2007ba8 <__alt_mem_epcs_flash_controller+0xfdffeba8>
 2008524:	d9801117 	ldw	r6,68(sp)
 2008528:	d9c01217 	ldw	r7,72(sp)
 200852c:	0009883a 	mov	r4,zero
 2008530:	014ff834 	movhi	r5,16352
 2008534:	da801515 	stw	r10,84(sp)
 2008538:	200fa180 	call	200fa18 <__subdf3>
 200853c:	da801517 	ldw	r10,84(sp)
 2008540:	1009883a 	mov	r4,r2
 2008544:	180b883a 	mov	r5,r3
 2008548:	a80d883a 	mov	r6,r21
 200854c:	500f883a 	mov	r7,r10
 2008550:	200fb300 	call	200fb30 <__gtdf2>
 2008554:	00bc750e 	bge	zero,r2,200772c <__alt_mem_epcs_flash_controller+0xfdffe72c>
 2008558:	01000c04 	movi	r4,48
 200855c:	00000106 	br	2008564 <_dtoa_r+0x1574>
 2008560:	102d883a 	mov	r22,r2
 2008564:	b0bfffc4 	addi	r2,r22,-1
 2008568:	10c00007 	ldb	r3,0(r2)
 200856c:	193ffc26 	beq	r3,r4,2008560 <__alt_mem_epcs_flash_controller+0xfdfff560>
 2008570:	d8801317 	ldw	r2,76(sp)
 2008574:	d8800615 	stw	r2,24(sp)
 2008578:	003c3e06 	br	2007674 <__alt_mem_epcs_flash_controller+0xfdffe674>
 200857c:	d9001317 	ldw	r4,76(sp)
 2008580:	df001117 	ldw	fp,68(sp)
 2008584:	d9000615 	stw	r4,24(sp)
 2008588:	003ce006 	br	200790c <__alt_mem_epcs_flash_controller+0xfdffe90c>
 200858c:	df001117 	ldw	fp,68(sp)
 2008590:	dc401217 	ldw	r17,72(sp)
 2008594:	003c6506 	br	200772c <__alt_mem_epcs_flash_controller+0xfdffe72c>
 2008598:	103e7a1e 	bne	r2,zero,2007f84 <__alt_mem_epcs_flash_controller+0xfdffef84>
 200859c:	1880004c 	andi	r2,r3,1
 20085a0:	103e7826 	beq	r2,zero,2007f84 <__alt_mem_epcs_flash_controller+0xfdffef84>
 20085a4:	003e7406 	br	2007f78 <__alt_mem_epcs_flash_controller+0xfdffef78>
 20085a8:	8009883a 	mov	r4,r16
 20085ac:	a80b883a 	mov	r5,r21
 20085b0:	01800284 	movi	r6,10
 20085b4:	000f883a 	mov	r7,zero
 20085b8:	2009b6c0 	call	2009b6c <__multadd>
 20085bc:	d9000e17 	ldw	r4,56(sp)
 20085c0:	102b883a 	mov	r21,r2
 20085c4:	d9000915 	stw	r4,36(sp)
 20085c8:	003d5106 	br	2007b10 <__alt_mem_epcs_flash_controller+0xfdffeb10>
 20085cc:	04800084 	movi	r18,2
 20085d0:	003b9a06 	br	200743c <__alt_mem_epcs_flash_controller+0xfdffe43c>
 20085d4:	d8c01317 	ldw	r3,76(sp)
 20085d8:	d8c00615 	stw	r3,24(sp)
 20085dc:	003ccb06 	br	200790c <__alt_mem_epcs_flash_controller+0xfdffe90c>
 20085e0:	d8c01317 	ldw	r3,76(sp)
 20085e4:	d8c00615 	stw	r3,24(sp)
 20085e8:	003c2206 	br	2007674 <__alt_mem_epcs_flash_controller+0xfdffe674>
 20085ec:	20fd3826 	beq	r4,r3,2007ad0 <__alt_mem_epcs_flash_controller+0xfdffead0>
 20085f0:	00c00f04 	movi	r3,60
 20085f4:	1885c83a 	sub	r2,r3,r2
 20085f8:	003da906 	br	2007ca0 <__alt_mem_epcs_flash_controller+0xfdffeca0>
 20085fc:	000b883a 	mov	r5,zero
 2008600:	003b5406 	br	2007354 <__alt_mem_epcs_flash_controller+0xfdffe354>
 2008604:	04c00044 	movi	r19,1
 2008608:	003b3b06 	br	20072f8 <__alt_mem_epcs_flash_controller+0xfdffe2f8>

0200860c <_fclose_r>:
 200860c:	defffc04 	addi	sp,sp,-16
 2008610:	dc400115 	stw	r17,4(sp)
 2008614:	dc000015 	stw	r16,0(sp)
 2008618:	dfc00315 	stw	ra,12(sp)
 200861c:	dc800215 	stw	r18,8(sp)
 2008620:	2821883a 	mov	r16,r5
 2008624:	2023883a 	mov	r17,r4
 2008628:	28003426 	beq	r5,zero,20086fc <_fclose_r+0xf0>
 200862c:	20027780 	call	2002778 <__sfp_lock_acquire>
 2008630:	88000226 	beq	r17,zero,200863c <_fclose_r+0x30>
 2008634:	88800e17 	ldw	r2,56(r17)
 2008638:	10003826 	beq	r2,zero,200871c <_fclose_r+0x110>
 200863c:	8080030f 	ldh	r2,12(r16)
 2008640:	10002526 	beq	r2,zero,20086d8 <_fclose_r+0xcc>
 2008644:	8809883a 	mov	r4,r17
 2008648:	800b883a 	mov	r5,r16
 200864c:	20022b40 	call	20022b4 <_fflush_r>
 2008650:	1025883a 	mov	r18,r2
 2008654:	80800b17 	ldw	r2,44(r16)
 2008658:	10000426 	beq	r2,zero,200866c <_fclose_r+0x60>
 200865c:	81400717 	ldw	r5,28(r16)
 2008660:	8809883a 	mov	r4,r17
 2008664:	103ee83a 	callr	r2
 2008668:	10003516 	blt	r2,zero,2008740 <_fclose_r+0x134>
 200866c:	8080030b 	ldhu	r2,12(r16)
 2008670:	1080200c 	andi	r2,r2,128
 2008674:	10bfffcc 	andi	r2,r2,65535
 2008678:	10a0001c 	xori	r2,r2,32768
 200867c:	10a00004 	addi	r2,r2,-32768
 2008680:	10002b1e 	bne	r2,zero,2008730 <_fclose_r+0x124>
 2008684:	81400c17 	ldw	r5,48(r16)
 2008688:	28000526 	beq	r5,zero,20086a0 <_fclose_r+0x94>
 200868c:	80801004 	addi	r2,r16,64
 2008690:	28800226 	beq	r5,r2,200869c <_fclose_r+0x90>
 2008694:	8809883a 	mov	r4,r17
 2008698:	2008b140 	call	2008b14 <_free_r>
 200869c:	80000c15 	stw	zero,48(r16)
 20086a0:	81401117 	ldw	r5,68(r16)
 20086a4:	28000326 	beq	r5,zero,20086b4 <_fclose_r+0xa8>
 20086a8:	8809883a 	mov	r4,r17
 20086ac:	2008b140 	call	2008b14 <_free_r>
 20086b0:	80001115 	stw	zero,68(r16)
 20086b4:	8000030d 	sth	zero,12(r16)
 20086b8:	200277c0 	call	200277c <__sfp_lock_release>
 20086bc:	9005883a 	mov	r2,r18
 20086c0:	dfc00317 	ldw	ra,12(sp)
 20086c4:	dc800217 	ldw	r18,8(sp)
 20086c8:	dc400117 	ldw	r17,4(sp)
 20086cc:	dc000017 	ldw	r16,0(sp)
 20086d0:	dec00404 	addi	sp,sp,16
 20086d4:	f800283a 	ret
 20086d8:	200277c0 	call	200277c <__sfp_lock_release>
 20086dc:	0025883a 	mov	r18,zero
 20086e0:	9005883a 	mov	r2,r18
 20086e4:	dfc00317 	ldw	ra,12(sp)
 20086e8:	dc800217 	ldw	r18,8(sp)
 20086ec:	dc400117 	ldw	r17,4(sp)
 20086f0:	dc000017 	ldw	r16,0(sp)
 20086f4:	dec00404 	addi	sp,sp,16
 20086f8:	f800283a 	ret
 20086fc:	0025883a 	mov	r18,zero
 2008700:	9005883a 	mov	r2,r18
 2008704:	dfc00317 	ldw	ra,12(sp)
 2008708:	dc800217 	ldw	r18,8(sp)
 200870c:	dc400117 	ldw	r17,4(sp)
 2008710:	dc000017 	ldw	r16,0(sp)
 2008714:	dec00404 	addi	sp,sp,16
 2008718:	f800283a 	ret
 200871c:	8809883a 	mov	r4,r17
 2008720:	20025700 	call	2002570 <__sinit>
 2008724:	8080030f 	ldh	r2,12(r16)
 2008728:	103fc61e 	bne	r2,zero,2008644 <__alt_mem_epcs_flash_controller+0xfdfff644>
 200872c:	003fea06 	br	20086d8 <__alt_mem_epcs_flash_controller+0xfdfff6d8>
 2008730:	81400417 	ldw	r5,16(r16)
 2008734:	8809883a 	mov	r4,r17
 2008738:	2008b140 	call	2008b14 <_free_r>
 200873c:	003fd106 	br	2008684 <__alt_mem_epcs_flash_controller+0xfdfff684>
 2008740:	04bfffc4 	movi	r18,-1
 2008744:	003fc906 	br	200866c <__alt_mem_epcs_flash_controller+0xfdfff66c>

02008748 <fclose>:
 2008748:	00808274 	movhi	r2,521
 200874c:	10a55004 	addi	r2,r2,-27328
 2008750:	200b883a 	mov	r5,r4
 2008754:	11000017 	ldw	r4,0(r2)
 2008758:	200860c1 	jmpi	200860c <_fclose_r>

0200875c <_fread_r>:
 200875c:	defff504 	addi	sp,sp,-44
 2008760:	dd000515 	stw	r20,20(sp)
 2008764:	dcc00415 	stw	r19,16(sp)
 2008768:	2029883a 	mov	r20,r4
 200876c:	2827883a 	mov	r19,r5
 2008770:	3809883a 	mov	r4,r7
 2008774:	300b883a 	mov	r5,r6
 2008778:	ddc00815 	stw	r23,32(sp)
 200877c:	dd800715 	stw	r22,28(sp)
 2008780:	dd400615 	stw	r21,24(sp)
 2008784:	dc000115 	stw	r16,4(sp)
 2008788:	dfc00a15 	stw	ra,40(sp)
 200878c:	df000915 	stw	fp,36(sp)
 2008790:	dc800315 	stw	r18,12(sp)
 2008794:	dc400215 	stw	r17,8(sp)
 2008798:	302f883a 	mov	r23,r6
 200879c:	382b883a 	mov	r21,r7
 20087a0:	2001d200 	call	2001d20 <__mulsi3>
 20087a4:	102d883a 	mov	r22,r2
 20087a8:	dc000b17 	ldw	r16,44(sp)
 20087ac:	10002e26 	beq	r2,zero,2008868 <_fread_r+0x10c>
 20087b0:	a0000226 	beq	r20,zero,20087bc <_fread_r+0x60>
 20087b4:	a0800e17 	ldw	r2,56(r20)
 20087b8:	10006726 	beq	r2,zero,2008958 <_fread_r+0x1fc>
 20087bc:	84400117 	ldw	r17,4(r16)
 20087c0:	88002b16 	blt	r17,zero,2008870 <_fread_r+0x114>
 20087c4:	8080030b 	ldhu	r2,12(r16)
 20087c8:	8807883a 	mov	r3,r17
 20087cc:	1080008c 	andi	r2,r2,2
 20087d0:	10bfffcc 	andi	r2,r2,65535
 20087d4:	10a0001c 	xori	r2,r2,32768
 20087d8:	10a00004 	addi	r2,r2,-32768
 20087dc:	10002d1e 	bne	r2,zero,2008894 <_fread_r+0x138>
 20087e0:	b025883a 	mov	r18,r22
 20087e4:	00000106 	br	20087ec <_fread_r+0x90>
 20087e8:	84400117 	ldw	r17,4(r16)
 20087ec:	9809883a 	mov	r4,r19
 20087f0:	880d883a 	mov	r6,r17
 20087f4:	81400017 	ldw	r5,0(r16)
 20087f8:	8c805c2e 	bgeu	r17,r18,200896c <_fread_r+0x210>
 20087fc:	20097d00 	call	20097d0 <memcpy>
 2008800:	80800017 	ldw	r2,0(r16)
 2008804:	9c67883a 	add	r19,r19,r17
 2008808:	9465c83a 	sub	r18,r18,r17
 200880c:	1463883a 	add	r17,r2,r17
 2008810:	a009883a 	mov	r4,r20
 2008814:	800b883a 	mov	r5,r16
 2008818:	84400015 	stw	r17,0(r16)
 200881c:	200b1700 	call	200b170 <__srefill_r>
 2008820:	103ff126 	beq	r2,zero,20087e8 <__alt_mem_epcs_flash_controller+0xfdfff7e8>
 2008824:	b489c83a 	sub	r4,r22,r18
 2008828:	b80b883a 	mov	r5,r23
 200882c:	2001d100 	call	2001d10 <__udivsi3>
 2008830:	102b883a 	mov	r21,r2
 2008834:	a805883a 	mov	r2,r21
 2008838:	dfc00a17 	ldw	ra,40(sp)
 200883c:	df000917 	ldw	fp,36(sp)
 2008840:	ddc00817 	ldw	r23,32(sp)
 2008844:	dd800717 	ldw	r22,28(sp)
 2008848:	dd400617 	ldw	r21,24(sp)
 200884c:	dd000517 	ldw	r20,20(sp)
 2008850:	dcc00417 	ldw	r19,16(sp)
 2008854:	dc800317 	ldw	r18,12(sp)
 2008858:	dc400217 	ldw	r17,8(sp)
 200885c:	dc000117 	ldw	r16,4(sp)
 2008860:	dec00b04 	addi	sp,sp,44
 2008864:	f800283a 	ret
 2008868:	002b883a 	mov	r21,zero
 200886c:	003ff106 	br	2008834 <__alt_mem_epcs_flash_controller+0xfdfff834>
 2008870:	8080030b 	ldhu	r2,12(r16)
 2008874:	80000115 	stw	zero,4(r16)
 2008878:	0007883a 	mov	r3,zero
 200887c:	1080008c 	andi	r2,r2,2
 2008880:	10bfffcc 	andi	r2,r2,65535
 2008884:	10a0001c 	xori	r2,r2,32768
 2008888:	10a00004 	addi	r2,r2,-32768
 200888c:	0023883a 	mov	r17,zero
 2008890:	103fd326 	beq	r2,zero,20087e0 <__alt_mem_epcs_flash_controller+0xfdfff7e0>
 2008894:	1823883a 	mov	r17,r3
 2008898:	b0c0012e 	bgeu	r22,r3,20088a0 <_fread_r+0x144>
 200889c:	b023883a 	mov	r17,r22
 20088a0:	81400017 	ldw	r5,0(r16)
 20088a4:	9809883a 	mov	r4,r19
 20088a8:	880d883a 	mov	r6,r17
 20088ac:	20097d00 	call	20097d0 <memcpy>
 20088b0:	80800117 	ldw	r2,4(r16)
 20088b4:	84800017 	ldw	r18,0(r16)
 20088b8:	81400c17 	ldw	r5,48(r16)
 20088bc:	1445c83a 	sub	r2,r2,r17
 20088c0:	9465883a 	add	r18,r18,r17
 20088c4:	84800015 	stw	r18,0(r16)
 20088c8:	80800115 	stw	r2,4(r16)
 20088cc:	9c67883a 	add	r19,r19,r17
 20088d0:	b463c83a 	sub	r17,r22,r17
 20088d4:	28002e26 	beq	r5,zero,2008990 <_fread_r+0x234>
 20088d8:	883fd626 	beq	r17,zero,2008834 <__alt_mem_epcs_flash_controller+0xfdfff834>
 20088dc:	80801004 	addi	r2,r16,64
 20088e0:	28800326 	beq	r5,r2,20088f0 <_fread_r+0x194>
 20088e4:	a009883a 	mov	r4,r20
 20088e8:	2008b140 	call	2008b14 <_free_r>
 20088ec:	84800017 	ldw	r18,0(r16)
 20088f0:	80000c15 	stw	zero,48(r16)
 20088f4:	80c00517 	ldw	r3,20(r16)
 20088f8:	87000417 	ldw	fp,16(r16)
 20088fc:	d8c00015 	stw	r3,0(sp)
 2008900:	00000106 	br	2008908 <_fread_r+0x1ac>
 2008904:	883fcb26 	beq	r17,zero,2008834 <__alt_mem_epcs_flash_controller+0xfdfff834>
 2008908:	84c00415 	stw	r19,16(r16)
 200890c:	84400515 	stw	r17,20(r16)
 2008910:	84c00015 	stw	r19,0(r16)
 2008914:	a009883a 	mov	r4,r20
 2008918:	800b883a 	mov	r5,r16
 200891c:	200b1700 	call	200b170 <__srefill_r>
 2008920:	d8c00017 	ldw	r3,0(sp)
 2008924:	81000117 	ldw	r4,4(r16)
 2008928:	87000415 	stw	fp,16(r16)
 200892c:	80c00515 	stw	r3,20(r16)
 2008930:	84800015 	stw	r18,0(r16)
 2008934:	80000115 	stw	zero,4(r16)
 2008938:	8923c83a 	sub	r17,r17,r4
 200893c:	9927883a 	add	r19,r19,r4
 2008940:	103ff026 	beq	r2,zero,2008904 <__alt_mem_epcs_flash_controller+0xfdfff904>
 2008944:	b449c83a 	sub	r4,r22,r17
 2008948:	b80b883a 	mov	r5,r23
 200894c:	2001d100 	call	2001d10 <__udivsi3>
 2008950:	102b883a 	mov	r21,r2
 2008954:	003fb706 	br	2008834 <__alt_mem_epcs_flash_controller+0xfdfff834>
 2008958:	a009883a 	mov	r4,r20
 200895c:	20025700 	call	2002570 <__sinit>
 2008960:	84400117 	ldw	r17,4(r16)
 2008964:	883f970e 	bge	r17,zero,20087c4 <__alt_mem_epcs_flash_controller+0xfdfff7c4>
 2008968:	003fc106 	br	2008870 <__alt_mem_epcs_flash_controller+0xfdfff870>
 200896c:	900d883a 	mov	r6,r18
 2008970:	20097d00 	call	20097d0 <memcpy>
 2008974:	80800117 	ldw	r2,4(r16)
 2008978:	80c00017 	ldw	r3,0(r16)
 200897c:	1485c83a 	sub	r2,r2,r18
 2008980:	1ca5883a 	add	r18,r3,r18
 2008984:	80800115 	stw	r2,4(r16)
 2008988:	84800015 	stw	r18,0(r16)
 200898c:	003fa906 	br	2008834 <__alt_mem_epcs_flash_controller+0xfdfff834>
 2008990:	883fd81e 	bne	r17,zero,20088f4 <__alt_mem_epcs_flash_controller+0xfdfff8f4>
 2008994:	003fa706 	br	2008834 <__alt_mem_epcs_flash_controller+0xfdfff834>

02008998 <fread>:
 2008998:	00808274 	movhi	r2,521
 200899c:	10a55004 	addi	r2,r2,-27328
 20089a0:	2011883a 	mov	r8,r4
 20089a4:	11000017 	ldw	r4,0(r2)
 20089a8:	defffe04 	addi	sp,sp,-8
 20089ac:	2807883a 	mov	r3,r5
 20089b0:	3005883a 	mov	r2,r6
 20089b4:	d9c00015 	stw	r7,0(sp)
 20089b8:	400b883a 	mov	r5,r8
 20089bc:	180d883a 	mov	r6,r3
 20089c0:	100f883a 	mov	r7,r2
 20089c4:	dfc00115 	stw	ra,4(sp)
 20089c8:	200875c0 	call	200875c <_fread_r>
 20089cc:	dfc00117 	ldw	ra,4(sp)
 20089d0:	dec00204 	addi	sp,sp,8
 20089d4:	f800283a 	ret

020089d8 <_malloc_trim_r>:
 20089d8:	defffb04 	addi	sp,sp,-20
 20089dc:	dcc00315 	stw	r19,12(sp)
 20089e0:	dc800215 	stw	r18,8(sp)
 20089e4:	dc400115 	stw	r17,4(sp)
 20089e8:	dc000015 	stw	r16,0(sp)
 20089ec:	2827883a 	mov	r19,r5
 20089f0:	dfc00415 	stw	ra,16(sp)
 20089f4:	04408234 	movhi	r17,520
 20089f8:	8c5f5b04 	addi	r17,r17,32108
 20089fc:	2021883a 	mov	r16,r4
 2008a00:	20108dc0 	call	20108dc <__malloc_lock>
 2008a04:	88800217 	ldw	r2,8(r17)
 2008a08:	14800117 	ldw	r18,4(r2)
 2008a0c:	00bfff04 	movi	r2,-4
 2008a10:	90a4703a 	and	r18,r18,r2
 2008a14:	9083fbc4 	addi	r2,r18,4079
 2008a18:	14e7c83a 	sub	r19,r2,r19
 2008a1c:	9826d33a 	srli	r19,r19,12
 2008a20:	0083ffc4 	movi	r2,4095
 2008a24:	9cffffc4 	addi	r19,r19,-1
 2008a28:	9826933a 	slli	r19,r19,12
 2008a2c:	14c0060e 	bge	r2,r19,2008a48 <_malloc_trim_r+0x70>
 2008a30:	8009883a 	mov	r4,r16
 2008a34:	000b883a 	mov	r5,zero
 2008a38:	20032780 	call	2003278 <_sbrk_r>
 2008a3c:	88c00217 	ldw	r3,8(r17)
 2008a40:	1c87883a 	add	r3,r3,r18
 2008a44:	10c00a26 	beq	r2,r3,2008a70 <_malloc_trim_r+0x98>
 2008a48:	8009883a 	mov	r4,r16
 2008a4c:	20108fc0 	call	20108fc <__malloc_unlock>
 2008a50:	0005883a 	mov	r2,zero
 2008a54:	dfc00417 	ldw	ra,16(sp)
 2008a58:	dcc00317 	ldw	r19,12(sp)
 2008a5c:	dc800217 	ldw	r18,8(sp)
 2008a60:	dc400117 	ldw	r17,4(sp)
 2008a64:	dc000017 	ldw	r16,0(sp)
 2008a68:	dec00504 	addi	sp,sp,20
 2008a6c:	f800283a 	ret
 2008a70:	8009883a 	mov	r4,r16
 2008a74:	04cbc83a 	sub	r5,zero,r19
 2008a78:	20032780 	call	2003278 <_sbrk_r>
 2008a7c:	00ffffc4 	movi	r3,-1
 2008a80:	10c01326 	beq	r2,r3,2008ad0 <_malloc_trim_r+0xf8>
 2008a84:	00808274 	movhi	r2,521
 2008a88:	10acda04 	addi	r2,r2,-19608
 2008a8c:	11000017 	ldw	r4,0(r2)
 2008a90:	88c00217 	ldw	r3,8(r17)
 2008a94:	94e5c83a 	sub	r18,r18,r19
 2008a98:	94800054 	ori	r18,r18,1
 2008a9c:	24e7c83a 	sub	r19,r4,r19
 2008aa0:	1c800115 	stw	r18,4(r3)
 2008aa4:	8009883a 	mov	r4,r16
 2008aa8:	14c00015 	stw	r19,0(r2)
 2008aac:	20108fc0 	call	20108fc <__malloc_unlock>
 2008ab0:	00800044 	movi	r2,1
 2008ab4:	dfc00417 	ldw	ra,16(sp)
 2008ab8:	dcc00317 	ldw	r19,12(sp)
 2008abc:	dc800217 	ldw	r18,8(sp)
 2008ac0:	dc400117 	ldw	r17,4(sp)
 2008ac4:	dc000017 	ldw	r16,0(sp)
 2008ac8:	dec00504 	addi	sp,sp,20
 2008acc:	f800283a 	ret
 2008ad0:	8009883a 	mov	r4,r16
 2008ad4:	000b883a 	mov	r5,zero
 2008ad8:	20032780 	call	2003278 <_sbrk_r>
 2008adc:	88c00217 	ldw	r3,8(r17)
 2008ae0:	014003c4 	movi	r5,15
 2008ae4:	10c9c83a 	sub	r4,r2,r3
 2008ae8:	293fd70e 	bge	r5,r4,2008a48 <__alt_mem_epcs_flash_controller+0xfdfffa48>
 2008aec:	01408274 	movhi	r5,521
 2008af0:	29655104 	addi	r5,r5,-27324
 2008af4:	29400017 	ldw	r5,0(r5)
 2008af8:	21000054 	ori	r4,r4,1
 2008afc:	19000115 	stw	r4,4(r3)
 2008b00:	1145c83a 	sub	r2,r2,r5
 2008b04:	01408274 	movhi	r5,521
 2008b08:	296cda04 	addi	r5,r5,-19608
 2008b0c:	28800015 	stw	r2,0(r5)
 2008b10:	003fcd06 	br	2008a48 <__alt_mem_epcs_flash_controller+0xfdfffa48>

02008b14 <_free_r>:
 2008b14:	defffd04 	addi	sp,sp,-12
 2008b18:	dc400115 	stw	r17,4(sp)
 2008b1c:	dc000015 	stw	r16,0(sp)
 2008b20:	dfc00215 	stw	ra,8(sp)
 2008b24:	2821883a 	mov	r16,r5
 2008b28:	2023883a 	mov	r17,r4
 2008b2c:	28004b26 	beq	r5,zero,2008c5c <_free_r+0x148>
 2008b30:	20108dc0 	call	20108dc <__malloc_lock>
 2008b34:	823fff17 	ldw	r8,-4(r16)
 2008b38:	00bfff84 	movi	r2,-2
 2008b3c:	81bffe04 	addi	r6,r16,-8
 2008b40:	4084703a 	and	r2,r8,r2
 2008b44:	3087883a 	add	r3,r6,r2
 2008b48:	01408234 	movhi	r5,520
 2008b4c:	295f5b04 	addi	r5,r5,32108
 2008b50:	1a400117 	ldw	r9,4(r3)
 2008b54:	29000217 	ldw	r4,8(r5)
 2008b58:	01ffff04 	movi	r7,-4
 2008b5c:	49ce703a 	and	r7,r9,r7
 2008b60:	20c06526 	beq	r4,r3,2008cf8 <_free_r+0x1e4>
 2008b64:	19c00115 	stw	r7,4(r3)
 2008b68:	4200004c 	andi	r8,r8,1
 2008b6c:	40003026 	beq	r8,zero,2008c30 <_free_r+0x11c>
 2008b70:	0009883a 	mov	r4,zero
 2008b74:	19d1883a 	add	r8,r3,r7
 2008b78:	42000117 	ldw	r8,4(r8)
 2008b7c:	4200004c 	andi	r8,r8,1
 2008b80:	4000061e 	bne	r8,zero,2008b9c <_free_r+0x88>
 2008b84:	11c5883a 	add	r2,r2,r7
 2008b88:	19c00217 	ldw	r7,8(r3)
 2008b8c:	20004e26 	beq	r4,zero,2008cc8 <_free_r+0x1b4>
 2008b90:	18c00317 	ldw	r3,12(r3)
 2008b94:	38c00315 	stw	r3,12(r7)
 2008b98:	19c00215 	stw	r7,8(r3)
 2008b9c:	11c00054 	ori	r7,r2,1
 2008ba0:	3087883a 	add	r3,r6,r2
 2008ba4:	31c00115 	stw	r7,4(r6)
 2008ba8:	18800015 	stw	r2,0(r3)
 2008bac:	20001a1e 	bne	r4,zero,2008c18 <_free_r+0x104>
 2008bb0:	00c07fc4 	movi	r3,511
 2008bb4:	18802e2e 	bgeu	r3,r2,2008c70 <_free_r+0x15c>
 2008bb8:	1006d27a 	srli	r3,r2,9
 2008bbc:	01000104 	movi	r4,4
 2008bc0:	20c06636 	bltu	r4,r3,2008d5c <_free_r+0x248>
 2008bc4:	1008d1ba 	srli	r4,r2,6
 2008bc8:	21000e04 	addi	r4,r4,56
 2008bcc:	210f883a 	add	r7,r4,r4
 2008bd0:	39cf883a 	add	r7,r7,r7
 2008bd4:	39cf883a 	add	r7,r7,r7
 2008bd8:	29cf883a 	add	r7,r5,r7
 2008bdc:	38c00217 	ldw	r3,8(r7)
 2008be0:	01408234 	movhi	r5,520
 2008be4:	295f5b04 	addi	r5,r5,32108
 2008be8:	19c06126 	beq	r3,r7,2008d70 <_free_r+0x25c>
 2008bec:	013fff04 	movi	r4,-4
 2008bf0:	19400117 	ldw	r5,4(r3)
 2008bf4:	290a703a 	and	r5,r5,r4
 2008bf8:	1140022e 	bgeu	r2,r5,2008c04 <_free_r+0xf0>
 2008bfc:	18c00217 	ldw	r3,8(r3)
 2008c00:	38fffb1e 	bne	r7,r3,2008bf0 <__alt_mem_epcs_flash_controller+0xfdfffbf0>
 2008c04:	18800317 	ldw	r2,12(r3)
 2008c08:	30800315 	stw	r2,12(r6)
 2008c0c:	30c00215 	stw	r3,8(r6)
 2008c10:	11800215 	stw	r6,8(r2)
 2008c14:	19800315 	stw	r6,12(r3)
 2008c18:	8809883a 	mov	r4,r17
 2008c1c:	dfc00217 	ldw	ra,8(sp)
 2008c20:	dc400117 	ldw	r17,4(sp)
 2008c24:	dc000017 	ldw	r16,0(sp)
 2008c28:	dec00304 	addi	sp,sp,12
 2008c2c:	20108fc1 	jmpi	20108fc <__malloc_unlock>
 2008c30:	813ffe17 	ldw	r4,-8(r16)
 2008c34:	2a400204 	addi	r9,r5,8
 2008c38:	310dc83a 	sub	r6,r6,r4
 2008c3c:	32000217 	ldw	r8,8(r6)
 2008c40:	1105883a 	add	r2,r2,r4
 2008c44:	42404326 	beq	r8,r9,2008d54 <_free_r+0x240>
 2008c48:	32400317 	ldw	r9,12(r6)
 2008c4c:	0009883a 	mov	r4,zero
 2008c50:	42400315 	stw	r9,12(r8)
 2008c54:	4a000215 	stw	r8,8(r9)
 2008c58:	003fc606 	br	2008b74 <__alt_mem_epcs_flash_controller+0xfdfffb74>
 2008c5c:	dfc00217 	ldw	ra,8(sp)
 2008c60:	dc400117 	ldw	r17,4(sp)
 2008c64:	dc000017 	ldw	r16,0(sp)
 2008c68:	dec00304 	addi	sp,sp,12
 2008c6c:	f800283a 	ret
 2008c70:	1004d0fa 	srli	r2,r2,3
 2008c74:	02000044 	movi	r8,1
 2008c78:	29c00117 	ldw	r7,4(r5)
 2008c7c:	1087883a 	add	r3,r2,r2
 2008c80:	18c7883a 	add	r3,r3,r3
 2008c84:	1005d0ba 	srai	r2,r2,2
 2008c88:	18c7883a 	add	r3,r3,r3
 2008c8c:	28c7883a 	add	r3,r5,r3
 2008c90:	19000217 	ldw	r4,8(r3)
 2008c94:	4084983a 	sll	r2,r8,r2
 2008c98:	30c00315 	stw	r3,12(r6)
 2008c9c:	31000215 	stw	r4,8(r6)
 2008ca0:	11c4b03a 	or	r2,r2,r7
 2008ca4:	21800315 	stw	r6,12(r4)
 2008ca8:	8809883a 	mov	r4,r17
 2008cac:	28800115 	stw	r2,4(r5)
 2008cb0:	19800215 	stw	r6,8(r3)
 2008cb4:	dfc00217 	ldw	ra,8(sp)
 2008cb8:	dc400117 	ldw	r17,4(sp)
 2008cbc:	dc000017 	ldw	r16,0(sp)
 2008cc0:	dec00304 	addi	sp,sp,12
 2008cc4:	20108fc1 	jmpi	20108fc <__malloc_unlock>
 2008cc8:	02008234 	movhi	r8,520
 2008ccc:	421f5d04 	addi	r8,r8,32116
 2008cd0:	3a3faf1e 	bne	r7,r8,2008b90 <__alt_mem_epcs_flash_controller+0xfdfffb90>
 2008cd4:	29800515 	stw	r6,20(r5)
 2008cd8:	29800415 	stw	r6,16(r5)
 2008cdc:	11000054 	ori	r4,r2,1
 2008ce0:	3087883a 	add	r3,r6,r2
 2008ce4:	31c00315 	stw	r7,12(r6)
 2008ce8:	31c00215 	stw	r7,8(r6)
 2008cec:	31000115 	stw	r4,4(r6)
 2008cf0:	18800015 	stw	r2,0(r3)
 2008cf4:	003fc806 	br	2008c18 <__alt_mem_epcs_flash_controller+0xfdfffc18>
 2008cf8:	4200004c 	andi	r8,r8,1
 2008cfc:	3885883a 	add	r2,r7,r2
 2008d00:	4000071e 	bne	r8,zero,2008d20 <_free_r+0x20c>
 2008d04:	81fffe17 	ldw	r7,-8(r16)
 2008d08:	31cdc83a 	sub	r6,r6,r7
 2008d0c:	30c00317 	ldw	r3,12(r6)
 2008d10:	31000217 	ldw	r4,8(r6)
 2008d14:	11c5883a 	add	r2,r2,r7
 2008d18:	20c00315 	stw	r3,12(r4)
 2008d1c:	19000215 	stw	r4,8(r3)
 2008d20:	00c08274 	movhi	r3,521
 2008d24:	18e55204 	addi	r3,r3,-27320
 2008d28:	18c00017 	ldw	r3,0(r3)
 2008d2c:	11000054 	ori	r4,r2,1
 2008d30:	31000115 	stw	r4,4(r6)
 2008d34:	29800215 	stw	r6,8(r5)
 2008d38:	10ffb736 	bltu	r2,r3,2008c18 <__alt_mem_epcs_flash_controller+0xfdfffc18>
 2008d3c:	00808274 	movhi	r2,521
 2008d40:	10acc704 	addi	r2,r2,-19684
 2008d44:	11400017 	ldw	r5,0(r2)
 2008d48:	8809883a 	mov	r4,r17
 2008d4c:	20089d80 	call	20089d8 <_malloc_trim_r>
 2008d50:	003fb106 	br	2008c18 <__alt_mem_epcs_flash_controller+0xfdfffc18>
 2008d54:	01000044 	movi	r4,1
 2008d58:	003f8606 	br	2008b74 <__alt_mem_epcs_flash_controller+0xfdfffb74>
 2008d5c:	01000504 	movi	r4,20
 2008d60:	20c00b36 	bltu	r4,r3,2008d90 <_free_r+0x27c>
 2008d64:	190016c4 	addi	r4,r3,91
 2008d68:	210f883a 	add	r7,r4,r4
 2008d6c:	003f9806 	br	2008bd0 <__alt_mem_epcs_flash_controller+0xfdfffbd0>
 2008d70:	2009d0ba 	srai	r4,r4,2
 2008d74:	00800044 	movi	r2,1
 2008d78:	29c00117 	ldw	r7,4(r5)
 2008d7c:	1108983a 	sll	r4,r2,r4
 2008d80:	1805883a 	mov	r2,r3
 2008d84:	21c8b03a 	or	r4,r4,r7
 2008d88:	29000115 	stw	r4,4(r5)
 2008d8c:	003f9e06 	br	2008c08 <__alt_mem_epcs_flash_controller+0xfdfffc08>
 2008d90:	01001504 	movi	r4,84
 2008d94:	20c00436 	bltu	r4,r3,2008da8 <_free_r+0x294>
 2008d98:	1008d33a 	srli	r4,r2,12
 2008d9c:	21001b84 	addi	r4,r4,110
 2008da0:	210f883a 	add	r7,r4,r4
 2008da4:	003f8a06 	br	2008bd0 <__alt_mem_epcs_flash_controller+0xfdfffbd0>
 2008da8:	01005504 	movi	r4,340
 2008dac:	20c00436 	bltu	r4,r3,2008dc0 <_free_r+0x2ac>
 2008db0:	1008d3fa 	srli	r4,r2,15
 2008db4:	21001dc4 	addi	r4,r4,119
 2008db8:	210f883a 	add	r7,r4,r4
 2008dbc:	003f8406 	br	2008bd0 <__alt_mem_epcs_flash_controller+0xfdfffbd0>
 2008dc0:	01015504 	movi	r4,1364
 2008dc4:	20c00436 	bltu	r4,r3,2008dd8 <_free_r+0x2c4>
 2008dc8:	1008d4ba 	srli	r4,r2,18
 2008dcc:	21001f04 	addi	r4,r4,124
 2008dd0:	210f883a 	add	r7,r4,r4
 2008dd4:	003f7e06 	br	2008bd0 <__alt_mem_epcs_flash_controller+0xfdfffbd0>
 2008dd8:	01c03f04 	movi	r7,252
 2008ddc:	01001f84 	movi	r4,126
 2008de0:	003f7b06 	br	2008bd0 <__alt_mem_epcs_flash_controller+0xfdfffbd0>

02008de4 <__sfvwrite_r>:
 2008de4:	30800217 	ldw	r2,8(r6)
 2008de8:	defff504 	addi	sp,sp,-44
 2008dec:	dd400615 	stw	r21,24(sp)
 2008df0:	dd000515 	stw	r20,20(sp)
 2008df4:	dc000115 	stw	r16,4(sp)
 2008df8:	dfc00a15 	stw	ra,40(sp)
 2008dfc:	df000915 	stw	fp,36(sp)
 2008e00:	ddc00815 	stw	r23,32(sp)
 2008e04:	dd800715 	stw	r22,28(sp)
 2008e08:	dcc00415 	stw	r19,16(sp)
 2008e0c:	dc800315 	stw	r18,12(sp)
 2008e10:	dc400215 	stw	r17,8(sp)
 2008e14:	3029883a 	mov	r20,r6
 2008e18:	202b883a 	mov	r21,r4
 2008e1c:	2821883a 	mov	r16,r5
 2008e20:	10002126 	beq	r2,zero,2008ea8 <__sfvwrite_r+0xc4>
 2008e24:	2880030b 	ldhu	r2,12(r5)
 2008e28:	10c0020c 	andi	r3,r2,8
 2008e2c:	18ffffcc 	andi	r3,r3,65535
 2008e30:	18e0001c 	xori	r3,r3,32768
 2008e34:	18e00004 	addi	r3,r3,-32768
 2008e38:	18002826 	beq	r3,zero,2008edc <__sfvwrite_r+0xf8>
 2008e3c:	28c00417 	ldw	r3,16(r5)
 2008e40:	18002626 	beq	r3,zero,2008edc <__sfvwrite_r+0xf8>
 2008e44:	10c0008c 	andi	r3,r2,2
 2008e48:	18ffffcc 	andi	r3,r3,65535
 2008e4c:	18e0001c 	xori	r3,r3,32768
 2008e50:	18e00004 	addi	r3,r3,-32768
 2008e54:	a4400017 	ldw	r17,0(r20)
 2008e58:	18002b26 	beq	r3,zero,2008f08 <__sfvwrite_r+0x124>
 2008e5c:	0027883a 	mov	r19,zero
 2008e60:	0025883a 	mov	r18,zero
 2008e64:	05810004 	movi	r22,1024
 2008e68:	980d883a 	mov	r6,r19
 2008e6c:	a809883a 	mov	r4,r21
 2008e70:	90004f26 	beq	r18,zero,2008fb0 <__sfvwrite_r+0x1cc>
 2008e74:	900f883a 	mov	r7,r18
 2008e78:	81400717 	ldw	r5,28(r16)
 2008e7c:	b480012e 	bgeu	r22,r18,2008e84 <__sfvwrite_r+0xa0>
 2008e80:	01c10004 	movi	r7,1024
 2008e84:	80800917 	ldw	r2,36(r16)
 2008e88:	103ee83a 	callr	r2
 2008e8c:	0080540e 	bge	zero,r2,2008fe0 <__sfvwrite_r+0x1fc>
 2008e90:	a0c00217 	ldw	r3,8(r20)
 2008e94:	98a7883a 	add	r19,r19,r2
 2008e98:	90a5c83a 	sub	r18,r18,r2
 2008e9c:	1885c83a 	sub	r2,r3,r2
 2008ea0:	a0800215 	stw	r2,8(r20)
 2008ea4:	103ff01e 	bne	r2,zero,2008e68 <__alt_mem_epcs_flash_controller+0xfdfffe68>
 2008ea8:	0005883a 	mov	r2,zero
 2008eac:	dfc00a17 	ldw	ra,40(sp)
 2008eb0:	df000917 	ldw	fp,36(sp)
 2008eb4:	ddc00817 	ldw	r23,32(sp)
 2008eb8:	dd800717 	ldw	r22,28(sp)
 2008ebc:	dd400617 	ldw	r21,24(sp)
 2008ec0:	dd000517 	ldw	r20,20(sp)
 2008ec4:	dcc00417 	ldw	r19,16(sp)
 2008ec8:	dc800317 	ldw	r18,12(sp)
 2008ecc:	dc400217 	ldw	r17,8(sp)
 2008ed0:	dc000117 	ldw	r16,4(sp)
 2008ed4:	dec00b04 	addi	sp,sp,44
 2008ed8:	f800283a 	ret
 2008edc:	a809883a 	mov	r4,r21
 2008ee0:	800b883a 	mov	r5,r16
 2008ee4:	2006bdc0 	call	2006bdc <__swsetup_r>
 2008ee8:	1000f01e 	bne	r2,zero,20092ac <__sfvwrite_r+0x4c8>
 2008eec:	8080030b 	ldhu	r2,12(r16)
 2008ef0:	a4400017 	ldw	r17,0(r20)
 2008ef4:	10c0008c 	andi	r3,r2,2
 2008ef8:	18ffffcc 	andi	r3,r3,65535
 2008efc:	18e0001c 	xori	r3,r3,32768
 2008f00:	18e00004 	addi	r3,r3,-32768
 2008f04:	183fd51e 	bne	r3,zero,2008e5c <__alt_mem_epcs_flash_controller+0xfdfffe5c>
 2008f08:	10c0004c 	andi	r3,r2,1
 2008f0c:	002d883a 	mov	r22,zero
 2008f10:	1800381e 	bne	r3,zero,2008ff4 <__sfvwrite_r+0x210>
 2008f14:	0025883a 	mov	r18,zero
 2008f18:	90002126 	beq	r18,zero,2008fa0 <__sfvwrite_r+0x1bc>
 2008f1c:	10c0800c 	andi	r3,r2,512
 2008f20:	18ffffcc 	andi	r3,r3,65535
 2008f24:	18e0001c 	xori	r3,r3,32768
 2008f28:	18e00004 	addi	r3,r3,-32768
 2008f2c:	84c00217 	ldw	r19,8(r16)
 2008f30:	18006b26 	beq	r3,zero,20090e0 <__sfvwrite_r+0x2fc>
 2008f34:	980f883a 	mov	r7,r19
 2008f38:	94c08636 	bltu	r18,r19,2009154 <__sfvwrite_r+0x370>
 2008f3c:	10c1200c 	andi	r3,r2,1152
 2008f40:	18009f1e 	bne	r3,zero,20091c0 <__sfvwrite_r+0x3dc>
 2008f44:	81000017 	ldw	r4,0(r16)
 2008f48:	982f883a 	mov	r23,r19
 2008f4c:	9039883a 	mov	fp,r18
 2008f50:	9027883a 	mov	r19,r18
 2008f54:	380d883a 	mov	r6,r7
 2008f58:	b00b883a 	mov	r5,r22
 2008f5c:	d9c00015 	stw	r7,0(sp)
 2008f60:	20099100 	call	2009910 <memmove>
 2008f64:	d9c00017 	ldw	r7,0(sp)
 2008f68:	81000217 	ldw	r4,8(r16)
 2008f6c:	80800017 	ldw	r2,0(r16)
 2008f70:	25efc83a 	sub	r23,r4,r23
 2008f74:	11cf883a 	add	r7,r2,r7
 2008f78:	85c00215 	stw	r23,8(r16)
 2008f7c:	81c00015 	stw	r7,0(r16)
 2008f80:	a0800217 	ldw	r2,8(r20)
 2008f84:	b72d883a 	add	r22,r22,fp
 2008f88:	9725c83a 	sub	r18,r18,fp
 2008f8c:	14e7c83a 	sub	r19,r2,r19
 2008f90:	a4c00215 	stw	r19,8(r20)
 2008f94:	983fc426 	beq	r19,zero,2008ea8 <__alt_mem_epcs_flash_controller+0xfdfffea8>
 2008f98:	8080030b 	ldhu	r2,12(r16)
 2008f9c:	903fdf1e 	bne	r18,zero,2008f1c <__alt_mem_epcs_flash_controller+0xfdffff1c>
 2008fa0:	8d800017 	ldw	r22,0(r17)
 2008fa4:	8c800117 	ldw	r18,4(r17)
 2008fa8:	8c400204 	addi	r17,r17,8
 2008fac:	003fda06 	br	2008f18 <__alt_mem_epcs_flash_controller+0xfdffff18>
 2008fb0:	8cc00017 	ldw	r19,0(r17)
 2008fb4:	8c800117 	ldw	r18,4(r17)
 2008fb8:	8c400204 	addi	r17,r17,8
 2008fbc:	003faa06 	br	2008e68 <__alt_mem_epcs_flash_controller+0xfdfffe68>
 2008fc0:	200ab580 	call	200ab58 <_realloc_r>
 2008fc4:	102f883a 	mov	r23,r2
 2008fc8:	10009f1e 	bne	r2,zero,2009248 <__sfvwrite_r+0x464>
 2008fcc:	81400417 	ldw	r5,16(r16)
 2008fd0:	a809883a 	mov	r4,r21
 2008fd4:	2008b140 	call	2008b14 <_free_r>
 2008fd8:	00800304 	movi	r2,12
 2008fdc:	a8800015 	stw	r2,0(r21)
 2008fe0:	80c0030b 	ldhu	r3,12(r16)
 2008fe4:	00bfffc4 	movi	r2,-1
 2008fe8:	18c01014 	ori	r3,r3,64
 2008fec:	80c0030d 	sth	r3,12(r16)
 2008ff0:	003fae06 	br	2008eac <__alt_mem_epcs_flash_controller+0xfdfffeac>
 2008ff4:	0007883a 	mov	r3,zero
 2008ff8:	0039883a 	mov	fp,zero
 2008ffc:	0025883a 	mov	r18,zero
 2009000:	90001e26 	beq	r18,zero,200907c <__sfvwrite_r+0x298>
 2009004:	18006526 	beq	r3,zero,200919c <__sfvwrite_r+0x3b8>
 2009008:	b02f883a 	mov	r23,r22
 200900c:	9580012e 	bgeu	r18,r22,2009014 <__sfvwrite_r+0x230>
 2009010:	902f883a 	mov	r23,r18
 2009014:	81000017 	ldw	r4,0(r16)
 2009018:	80800417 	ldw	r2,16(r16)
 200901c:	84c00217 	ldw	r19,8(r16)
 2009020:	81c00517 	ldw	r7,20(r16)
 2009024:	1100022e 	bgeu	r2,r4,2009030 <__sfvwrite_r+0x24c>
 2009028:	99e7883a 	add	r19,r19,r7
 200902c:	9dc01816 	blt	r19,r23,2009090 <__sfvwrite_r+0x2ac>
 2009030:	b9c03b16 	blt	r23,r7,2009120 <__sfvwrite_r+0x33c>
 2009034:	80800917 	ldw	r2,36(r16)
 2009038:	81400717 	ldw	r5,28(r16)
 200903c:	a809883a 	mov	r4,r21
 2009040:	d8c00015 	stw	r3,0(sp)
 2009044:	e00d883a 	mov	r6,fp
 2009048:	103ee83a 	callr	r2
 200904c:	1027883a 	mov	r19,r2
 2009050:	d8c00017 	ldw	r3,0(sp)
 2009054:	00bfe20e 	bge	zero,r2,2008fe0 <__alt_mem_epcs_flash_controller+0xfdffffe0>
 2009058:	b4edc83a 	sub	r22,r22,r19
 200905c:	b0001a26 	beq	r22,zero,20090c8 <__sfvwrite_r+0x2e4>
 2009060:	a0800217 	ldw	r2,8(r20)
 2009064:	e4f9883a 	add	fp,fp,r19
 2009068:	94e5c83a 	sub	r18,r18,r19
 200906c:	14e7c83a 	sub	r19,r2,r19
 2009070:	a4c00215 	stw	r19,8(r20)
 2009074:	983f8c26 	beq	r19,zero,2008ea8 <__alt_mem_epcs_flash_controller+0xfdfffea8>
 2009078:	903fe21e 	bne	r18,zero,2009004 <__alt_mem_epcs_flash_controller+0xfe000004>
 200907c:	8f000017 	ldw	fp,0(r17)
 2009080:	8c800117 	ldw	r18,4(r17)
 2009084:	0007883a 	mov	r3,zero
 2009088:	8c400204 	addi	r17,r17,8
 200908c:	003fdc06 	br	2009000 <__alt_mem_epcs_flash_controller+0xfe000000>
 2009090:	e00b883a 	mov	r5,fp
 2009094:	980d883a 	mov	r6,r19
 2009098:	d8c00015 	stw	r3,0(sp)
 200909c:	20099100 	call	2009910 <memmove>
 20090a0:	80800017 	ldw	r2,0(r16)
 20090a4:	a809883a 	mov	r4,r21
 20090a8:	800b883a 	mov	r5,r16
 20090ac:	14c5883a 	add	r2,r2,r19
 20090b0:	80800015 	stw	r2,0(r16)
 20090b4:	20022b40 	call	20022b4 <_fflush_r>
 20090b8:	d8c00017 	ldw	r3,0(sp)
 20090bc:	103fc81e 	bne	r2,zero,2008fe0 <__alt_mem_epcs_flash_controller+0xfdffffe0>
 20090c0:	b4edc83a 	sub	r22,r22,r19
 20090c4:	b03fe61e 	bne	r22,zero,2009060 <__alt_mem_epcs_flash_controller+0xfe000060>
 20090c8:	a809883a 	mov	r4,r21
 20090cc:	800b883a 	mov	r5,r16
 20090d0:	20022b40 	call	20022b4 <_fflush_r>
 20090d4:	103fc21e 	bne	r2,zero,2008fe0 <__alt_mem_epcs_flash_controller+0xfdffffe0>
 20090d8:	0007883a 	mov	r3,zero
 20090dc:	003fe006 	br	2009060 <__alt_mem_epcs_flash_controller+0xfe000060>
 20090e0:	81000017 	ldw	r4,0(r16)
 20090e4:	80800417 	ldw	r2,16(r16)
 20090e8:	1100022e 	bgeu	r2,r4,20090f4 <__sfvwrite_r+0x310>
 20090ec:	9839883a 	mov	fp,r19
 20090f0:	9c806036 	bltu	r19,r18,2009274 <__sfvwrite_r+0x490>
 20090f4:	81c00517 	ldw	r7,20(r16)
 20090f8:	91c01c36 	bltu	r18,r7,200916c <__sfvwrite_r+0x388>
 20090fc:	80800917 	ldw	r2,36(r16)
 2009100:	81400717 	ldw	r5,28(r16)
 2009104:	a809883a 	mov	r4,r21
 2009108:	b00d883a 	mov	r6,r22
 200910c:	103ee83a 	callr	r2
 2009110:	1027883a 	mov	r19,r2
 2009114:	00bfb20e 	bge	zero,r2,2008fe0 <__alt_mem_epcs_flash_controller+0xfdffffe0>
 2009118:	1039883a 	mov	fp,r2
 200911c:	003f9806 	br	2008f80 <__alt_mem_epcs_flash_controller+0xfdffff80>
 2009120:	b80d883a 	mov	r6,r23
 2009124:	e00b883a 	mov	r5,fp
 2009128:	d8c00015 	stw	r3,0(sp)
 200912c:	20099100 	call	2009910 <memmove>
 2009130:	80800217 	ldw	r2,8(r16)
 2009134:	81000017 	ldw	r4,0(r16)
 2009138:	b827883a 	mov	r19,r23
 200913c:	15c5c83a 	sub	r2,r2,r23
 2009140:	25ef883a 	add	r23,r4,r23
 2009144:	80800215 	stw	r2,8(r16)
 2009148:	85c00015 	stw	r23,0(r16)
 200914c:	d8c00017 	ldw	r3,0(sp)
 2009150:	003fc106 	br	2009058 <__alt_mem_epcs_flash_controller+0xfe000058>
 2009154:	81000017 	ldw	r4,0(r16)
 2009158:	902f883a 	mov	r23,r18
 200915c:	9039883a 	mov	fp,r18
 2009160:	9027883a 	mov	r19,r18
 2009164:	900f883a 	mov	r7,r18
 2009168:	003f7a06 	br	2008f54 <__alt_mem_epcs_flash_controller+0xfdffff54>
 200916c:	b00b883a 	mov	r5,r22
 2009170:	900d883a 	mov	r6,r18
 2009174:	20099100 	call	2009910 <memmove>
 2009178:	80c00217 	ldw	r3,8(r16)
 200917c:	80800017 	ldw	r2,0(r16)
 2009180:	9027883a 	mov	r19,r18
 2009184:	1c87c83a 	sub	r3,r3,r18
 2009188:	1485883a 	add	r2,r2,r18
 200918c:	80c00215 	stw	r3,8(r16)
 2009190:	80800015 	stw	r2,0(r16)
 2009194:	9039883a 	mov	fp,r18
 2009198:	003f7906 	br	2008f80 <__alt_mem_epcs_flash_controller+0xfdffff80>
 200919c:	e009883a 	mov	r4,fp
 20091a0:	01400284 	movi	r5,10
 20091a4:	900d883a 	mov	r6,r18
 20091a8:	20096d80 	call	20096d8 <memchr>
 20091ac:	10003c26 	beq	r2,zero,20092a0 <__sfvwrite_r+0x4bc>
 20091b0:	15800044 	addi	r22,r2,1
 20091b4:	b72dc83a 	sub	r22,r22,fp
 20091b8:	00c00044 	movi	r3,1
 20091bc:	003f9206 	br	2009008 <__alt_mem_epcs_flash_controller+0xfe000008>
 20091c0:	81000517 	ldw	r4,20(r16)
 20091c4:	81400417 	ldw	r5,16(r16)
 20091c8:	80c00017 	ldw	r3,0(r16)
 20091cc:	210d883a 	add	r6,r4,r4
 20091d0:	3109883a 	add	r4,r6,r4
 20091d4:	2026d7fa 	srli	r19,r4,31
 20091d8:	1979c83a 	sub	fp,r3,r5
 20091dc:	e1800044 	addi	r6,fp,1
 20091e0:	9909883a 	add	r4,r19,r4
 20091e4:	2027d07a 	srai	r19,r4,1
 20091e8:	3489883a 	add	r4,r6,r18
 20091ec:	980d883a 	mov	r6,r19
 20091f0:	9900022e 	bgeu	r19,r4,20091fc <__sfvwrite_r+0x418>
 20091f4:	2027883a 	mov	r19,r4
 20091f8:	200d883a 	mov	r6,r4
 20091fc:	1081000c 	andi	r2,r2,1024
 2009200:	10bfffcc 	andi	r2,r2,65535
 2009204:	10a0001c 	xori	r2,r2,32768
 2009208:	10a00004 	addi	r2,r2,-32768
 200920c:	a809883a 	mov	r4,r21
 2009210:	103f6b26 	beq	r2,zero,2008fc0 <__alt_mem_epcs_flash_controller+0xfdffffc0>
 2009214:	300b883a 	mov	r5,r6
 2009218:	20029180 	call	2002918 <_malloc_r>
 200921c:	102f883a 	mov	r23,r2
 2009220:	103f6d26 	beq	r2,zero,2008fd8 <__alt_mem_epcs_flash_controller+0xfdffffd8>
 2009224:	81400417 	ldw	r5,16(r16)
 2009228:	1009883a 	mov	r4,r2
 200922c:	e00d883a 	mov	r6,fp
 2009230:	20097d00 	call	20097d0 <memcpy>
 2009234:	8080030b 	ldhu	r2,12(r16)
 2009238:	00fedfc4 	movi	r3,-1153
 200923c:	10c4703a 	and	r2,r2,r3
 2009240:	10802014 	ori	r2,r2,128
 2009244:	8080030d 	sth	r2,12(r16)
 2009248:	bf09883a 	add	r4,r23,fp
 200924c:	9f07c83a 	sub	r3,r19,fp
 2009250:	85c00415 	stw	r23,16(r16)
 2009254:	84c00515 	stw	r19,20(r16)
 2009258:	81000015 	stw	r4,0(r16)
 200925c:	902f883a 	mov	r23,r18
 2009260:	80c00215 	stw	r3,8(r16)
 2009264:	9039883a 	mov	fp,r18
 2009268:	9027883a 	mov	r19,r18
 200926c:	900f883a 	mov	r7,r18
 2009270:	003f3806 	br	2008f54 <__alt_mem_epcs_flash_controller+0xfdffff54>
 2009274:	b00b883a 	mov	r5,r22
 2009278:	980d883a 	mov	r6,r19
 200927c:	20099100 	call	2009910 <memmove>
 2009280:	80800017 	ldw	r2,0(r16)
 2009284:	a809883a 	mov	r4,r21
 2009288:	800b883a 	mov	r5,r16
 200928c:	14c5883a 	add	r2,r2,r19
 2009290:	80800015 	stw	r2,0(r16)
 2009294:	20022b40 	call	20022b4 <_fflush_r>
 2009298:	103f3926 	beq	r2,zero,2008f80 <__alt_mem_epcs_flash_controller+0xfdffff80>
 200929c:	003f5006 	br	2008fe0 <__alt_mem_epcs_flash_controller+0xfdffffe0>
 20092a0:	95800044 	addi	r22,r18,1
 20092a4:	00c00044 	movi	r3,1
 20092a8:	003f5706 	br	2009008 <__alt_mem_epcs_flash_controller+0xfe000008>
 20092ac:	80c0030b 	ldhu	r3,12(r16)
 20092b0:	00bfffc4 	movi	r2,-1
 20092b4:	18c01014 	ori	r3,r3,64
 20092b8:	80c0030d 	sth	r3,12(r16)
 20092bc:	00c00244 	movi	r3,9
 20092c0:	a8c00015 	stw	r3,0(r21)
 20092c4:	003ef906 	br	2008eac <__alt_mem_epcs_flash_controller+0xfdfffeac>

020092c8 <iswspace>:
 20092c8:	00803fc4 	movi	r2,255
 20092cc:	11000a36 	bltu	r2,r4,20092f8 <iswspace+0x30>
 20092d0:	00808274 	movhi	r2,521
 20092d4:	10a55304 	addi	r2,r2,-27316
 20092d8:	10800017 	ldw	r2,0(r2)
 20092dc:	1109883a 	add	r4,r2,r4
 20092e0:	20800003 	ldbu	r2,0(r4)
 20092e4:	1080020c 	andi	r2,r2,8
 20092e8:	10803fcc 	andi	r2,r2,255
 20092ec:	1080201c 	xori	r2,r2,128
 20092f0:	10bfe004 	addi	r2,r2,-128
 20092f4:	f800283a 	ret
 20092f8:	0005883a 	mov	r2,zero
 20092fc:	f800283a 	ret

02009300 <_setlocale_r>:
 2009300:	defffc04 	addi	sp,sp,-16
 2009304:	dc800215 	stw	r18,8(sp)
 2009308:	dc400115 	stw	r17,4(sp)
 200930c:	dc000015 	stw	r16,0(sp)
 2009310:	dfc00315 	stw	ra,12(sp)
 2009314:	3021883a 	mov	r16,r6
 2009318:	2023883a 	mov	r17,r4
 200931c:	2825883a 	mov	r18,r5
 2009320:	30001626 	beq	r6,zero,200937c <_setlocale_r+0x7c>
 2009324:	3009883a 	mov	r4,r6
 2009328:	01408234 	movhi	r5,520
 200932c:	295cb104 	addi	r5,r5,29380
 2009330:	200b5500 	call	200b550 <strcmp>
 2009334:	10000a1e 	bne	r2,zero,2009360 <_setlocale_r+0x60>
 2009338:	8c800c15 	stw	r18,48(r17)
 200933c:	8c000d15 	stw	r16,52(r17)
 2009340:	00808234 	movhi	r2,520
 2009344:	109cb104 	addi	r2,r2,29380
 2009348:	dfc00317 	ldw	ra,12(sp)
 200934c:	dc800217 	ldw	r18,8(sp)
 2009350:	dc400117 	ldw	r17,4(sp)
 2009354:	dc000017 	ldw	r16,0(sp)
 2009358:	dec00404 	addi	sp,sp,16
 200935c:	f800283a 	ret
 2009360:	8009883a 	mov	r4,r16
 2009364:	01408074 	movhi	r5,513
 2009368:	29514b04 	addi	r5,r5,17708
 200936c:	200b5500 	call	200b550 <strcmp>
 2009370:	103ff126 	beq	r2,zero,2009338 <__alt_mem_epcs_flash_controller+0xfe000338>
 2009374:	0005883a 	mov	r2,zero
 2009378:	003ff306 	br	2009348 <__alt_mem_epcs_flash_controller+0xfe000348>
 200937c:	00808234 	movhi	r2,520
 2009380:	109cb104 	addi	r2,r2,29380
 2009384:	dfc00317 	ldw	ra,12(sp)
 2009388:	dc800217 	ldw	r18,8(sp)
 200938c:	dc400117 	ldw	r17,4(sp)
 2009390:	dc000017 	ldw	r16,0(sp)
 2009394:	dec00404 	addi	sp,sp,16
 2009398:	f800283a 	ret

0200939c <__locale_charset>:
 200939c:	00808234 	movhi	r2,520
 20093a0:	109d7b04 	addi	r2,r2,30188
 20093a4:	f800283a 	ret

020093a8 <_localeconv_r>:
 20093a8:	00808234 	movhi	r2,520
 20093ac:	109d7f04 	addi	r2,r2,30204
 20093b0:	f800283a 	ret

020093b4 <setlocale>:
 20093b4:	00c08274 	movhi	r3,521
 20093b8:	18e55004 	addi	r3,r3,-27328
 20093bc:	2005883a 	mov	r2,r4
 20093c0:	19000017 	ldw	r4,0(r3)
 20093c4:	280d883a 	mov	r6,r5
 20093c8:	100b883a 	mov	r5,r2
 20093cc:	20093001 	jmpi	2009300 <_setlocale_r>

020093d0 <localeconv>:
 20093d0:	00808234 	movhi	r2,520
 20093d4:	109d7f04 	addi	r2,r2,30204
 20093d8:	f800283a 	ret

020093dc <_lseek_r>:
 20093dc:	defffd04 	addi	sp,sp,-12
 20093e0:	dc400115 	stw	r17,4(sp)
 20093e4:	dc000015 	stw	r16,0(sp)
 20093e8:	2023883a 	mov	r17,r4
 20093ec:	04008274 	movhi	r16,521
 20093f0:	842cc804 	addi	r16,r16,-19680
 20093f4:	2809883a 	mov	r4,r5
 20093f8:	300b883a 	mov	r5,r6
 20093fc:	380d883a 	mov	r6,r7
 2009400:	dfc00215 	stw	ra,8(sp)
 2009404:	80000015 	stw	zero,0(r16)
 2009408:	20107900 	call	2010790 <lseek>
 200940c:	00ffffc4 	movi	r3,-1
 2009410:	10c00526 	beq	r2,r3,2009428 <_lseek_r+0x4c>
 2009414:	dfc00217 	ldw	ra,8(sp)
 2009418:	dc400117 	ldw	r17,4(sp)
 200941c:	dc000017 	ldw	r16,0(sp)
 2009420:	dec00304 	addi	sp,sp,12
 2009424:	f800283a 	ret
 2009428:	80c00017 	ldw	r3,0(r16)
 200942c:	183ff926 	beq	r3,zero,2009414 <__alt_mem_epcs_flash_controller+0xfe000414>
 2009430:	88c00015 	stw	r3,0(r17)
 2009434:	dfc00217 	ldw	ra,8(sp)
 2009438:	dc400117 	ldw	r17,4(sp)
 200943c:	dc000017 	ldw	r16,0(sp)
 2009440:	dec00304 	addi	sp,sp,12
 2009444:	f800283a 	ret

02009448 <__smakebuf_r>:
 2009448:	2880030b 	ldhu	r2,12(r5)
 200944c:	deffed04 	addi	sp,sp,-76
 2009450:	dc401015 	stw	r17,64(sp)
 2009454:	10c0008c 	andi	r3,r2,2
 2009458:	18ffffcc 	andi	r3,r3,65535
 200945c:	18e0001c 	xori	r3,r3,32768
 2009460:	dc000f15 	stw	r16,60(sp)
 2009464:	dfc01215 	stw	ra,72(sp)
 2009468:	dc801115 	stw	r18,68(sp)
 200946c:	18e00004 	addi	r3,r3,-32768
 2009470:	2821883a 	mov	r16,r5
 2009474:	2023883a 	mov	r17,r4
 2009478:	1800381e 	bne	r3,zero,200955c <__smakebuf_r+0x114>
 200947c:	2940038f 	ldh	r5,14(r5)
 2009480:	28002d16 	blt	r5,zero,2009538 <__smakebuf_r+0xf0>
 2009484:	d80d883a 	mov	r6,sp
 2009488:	200dc000 	call	200dc00 <_fstat_r>
 200948c:	10002916 	blt	r2,zero,2009534 <__smakebuf_r+0xec>
 2009490:	d8800117 	ldw	r2,4(sp)
 2009494:	00e00014 	movui	r3,32768
 2009498:	10bc000c 	andi	r2,r2,61440
 200949c:	10c03c26 	beq	r2,r3,2009590 <__smakebuf_r+0x148>
 20094a0:	80c0030b 	ldhu	r3,12(r16)
 20094a4:	18c20014 	ori	r3,r3,2048
 20094a8:	80c0030d 	sth	r3,12(r16)
 20094ac:	00c80004 	movi	r3,8192
 20094b0:	10c00c1e 	bne	r2,r3,20094e4 <__smakebuf_r+0x9c>
 20094b4:	8140038f 	ldh	r5,14(r16)
 20094b8:	8809883a 	mov	r4,r17
 20094bc:	200e80c0 	call	200e80c <_isatty_r>
 20094c0:	10000826 	beq	r2,zero,20094e4 <__smakebuf_r+0x9c>
 20094c4:	80c0030b 	ldhu	r3,12(r16)
 20094c8:	808010c4 	addi	r2,r16,67
 20094cc:	80800015 	stw	r2,0(r16)
 20094d0:	18c00054 	ori	r3,r3,1
 20094d4:	80800415 	stw	r2,16(r16)
 20094d8:	00800044 	movi	r2,1
 20094dc:	80c0030d 	sth	r3,12(r16)
 20094e0:	80800515 	stw	r2,20(r16)
 20094e4:	04810004 	movi	r18,1024
 20094e8:	8809883a 	mov	r4,r17
 20094ec:	900b883a 	mov	r5,r18
 20094f0:	20029180 	call	2002918 <_malloc_r>
 20094f4:	10003026 	beq	r2,zero,20095b8 <__smakebuf_r+0x170>
 20094f8:	80c0030b 	ldhu	r3,12(r16)
 20094fc:	01008034 	movhi	r4,512
 2009500:	21093704 	addi	r4,r4,9436
 2009504:	89000f15 	stw	r4,60(r17)
 2009508:	18c02014 	ori	r3,r3,128
 200950c:	80c0030d 	sth	r3,12(r16)
 2009510:	80800015 	stw	r2,0(r16)
 2009514:	80800415 	stw	r2,16(r16)
 2009518:	84800515 	stw	r18,20(r16)
 200951c:	dfc01217 	ldw	ra,72(sp)
 2009520:	dc801117 	ldw	r18,68(sp)
 2009524:	dc401017 	ldw	r17,64(sp)
 2009528:	dc000f17 	ldw	r16,60(sp)
 200952c:	dec01304 	addi	sp,sp,76
 2009530:	f800283a 	ret
 2009534:	8080030b 	ldhu	r2,12(r16)
 2009538:	10c0200c 	andi	r3,r2,128
 200953c:	18ffffcc 	andi	r3,r3,65535
 2009540:	18e0001c 	xori	r3,r3,32768
 2009544:	18e00004 	addi	r3,r3,-32768
 2009548:	18000f1e 	bne	r3,zero,2009588 <__smakebuf_r+0x140>
 200954c:	04810004 	movi	r18,1024
 2009550:	10820014 	ori	r2,r2,2048
 2009554:	8080030d 	sth	r2,12(r16)
 2009558:	003fe306 	br	20094e8 <__alt_mem_epcs_flash_controller+0xfe0004e8>
 200955c:	288010c4 	addi	r2,r5,67
 2009560:	28800015 	stw	r2,0(r5)
 2009564:	28800415 	stw	r2,16(r5)
 2009568:	00800044 	movi	r2,1
 200956c:	28800515 	stw	r2,20(r5)
 2009570:	dfc01217 	ldw	ra,72(sp)
 2009574:	dc801117 	ldw	r18,68(sp)
 2009578:	dc401017 	ldw	r17,64(sp)
 200957c:	dc000f17 	ldw	r16,60(sp)
 2009580:	dec01304 	addi	sp,sp,76
 2009584:	f800283a 	ret
 2009588:	04801004 	movi	r18,64
 200958c:	003ff006 	br	2009550 <__alt_mem_epcs_flash_controller+0xfe000550>
 2009590:	81000a17 	ldw	r4,40(r16)
 2009594:	00c08034 	movhi	r3,512
 2009598:	18cd0904 	addi	r3,r3,13348
 200959c:	20ffc01e 	bne	r4,r3,20094a0 <__alt_mem_epcs_flash_controller+0xfe0004a0>
 20095a0:	8080030b 	ldhu	r2,12(r16)
 20095a4:	00c10004 	movi	r3,1024
 20095a8:	80c01315 	stw	r3,76(r16)
 20095ac:	10c4b03a 	or	r2,r2,r3
 20095b0:	8080030d 	sth	r2,12(r16)
 20095b4:	003fcb06 	br	20094e4 <__alt_mem_epcs_flash_controller+0xfe0004e4>
 20095b8:	8080030b 	ldhu	r2,12(r16)
 20095bc:	10c0800c 	andi	r3,r2,512
 20095c0:	18ffffcc 	andi	r3,r3,65535
 20095c4:	18e0001c 	xori	r3,r3,32768
 20095c8:	18e00004 	addi	r3,r3,-32768
 20095cc:	183fd31e 	bne	r3,zero,200951c <__alt_mem_epcs_flash_controller+0xfe00051c>
 20095d0:	10800094 	ori	r2,r2,2
 20095d4:	80c010c4 	addi	r3,r16,67
 20095d8:	8080030d 	sth	r2,12(r16)
 20095dc:	00800044 	movi	r2,1
 20095e0:	80c00015 	stw	r3,0(r16)
 20095e4:	80c00415 	stw	r3,16(r16)
 20095e8:	80800515 	stw	r2,20(r16)
 20095ec:	003fcb06 	br	200951c <__alt_mem_epcs_flash_controller+0xfe00051c>

020095f0 <_mbrtowc_r>:
 20095f0:	defffc04 	addi	sp,sp,-16
 20095f4:	dc000115 	stw	r16,4(sp)
 20095f8:	dc000417 	ldw	r16,16(sp)
 20095fc:	dc400215 	stw	r17,8(sp)
 2009600:	dfc00315 	stw	ra,12(sp)
 2009604:	dc000015 	stw	r16,0(sp)
 2009608:	2023883a 	mov	r17,r4
 200960c:	30000b26 	beq	r6,zero,200963c <_mbrtowc_r+0x4c>
 2009610:	20096940 	call	2009694 <_mbtowc_r>
 2009614:	00ffffc4 	movi	r3,-1
 2009618:	10c0031e 	bne	r2,r3,2009628 <_mbrtowc_r+0x38>
 200961c:	80000015 	stw	zero,0(r16)
 2009620:	00c02284 	movi	r3,138
 2009624:	88c00015 	stw	r3,0(r17)
 2009628:	dfc00317 	ldw	ra,12(sp)
 200962c:	dc400217 	ldw	r17,8(sp)
 2009630:	dc000117 	ldw	r16,4(sp)
 2009634:	dec00404 	addi	sp,sp,16
 2009638:	f800283a 	ret
 200963c:	000b883a 	mov	r5,zero
 2009640:	01808074 	movhi	r6,513
 2009644:	31914b04 	addi	r6,r6,17708
 2009648:	01c00044 	movi	r7,1
 200964c:	20096940 	call	2009694 <_mbtowc_r>
 2009650:	003ff006 	br	2009614 <__alt_mem_epcs_flash_controller+0xfe000614>

02009654 <mbrtowc>:
 2009654:	00808274 	movhi	r2,521
 2009658:	10a55004 	addi	r2,r2,-27328
 200965c:	2011883a 	mov	r8,r4
 2009660:	11000017 	ldw	r4,0(r2)
 2009664:	defffe04 	addi	sp,sp,-8
 2009668:	2807883a 	mov	r3,r5
 200966c:	3005883a 	mov	r2,r6
 2009670:	d9c00015 	stw	r7,0(sp)
 2009674:	400b883a 	mov	r5,r8
 2009678:	180d883a 	mov	r6,r3
 200967c:	100f883a 	mov	r7,r2
 2009680:	dfc00115 	stw	ra,4(sp)
 2009684:	20095f00 	call	20095f0 <_mbrtowc_r>
 2009688:	dfc00117 	ldw	ra,4(sp)
 200968c:	dec00204 	addi	sp,sp,8
 2009690:	f800283a 	ret

02009694 <_mbtowc_r>:
 2009694:	deffff04 	addi	sp,sp,-4
 2009698:	28000826 	beq	r5,zero,20096bc <_mbtowc_r+0x28>
 200969c:	30000926 	beq	r6,zero,20096c4 <_mbtowc_r+0x30>
 20096a0:	38000b26 	beq	r7,zero,20096d0 <_mbtowc_r+0x3c>
 20096a4:	30800003 	ldbu	r2,0(r6)
 20096a8:	28800015 	stw	r2,0(r5)
 20096ac:	30800003 	ldbu	r2,0(r6)
 20096b0:	1004c03a 	cmpne	r2,r2,zero
 20096b4:	dec00104 	addi	sp,sp,4
 20096b8:	f800283a 	ret
 20096bc:	d80b883a 	mov	r5,sp
 20096c0:	303ff71e 	bne	r6,zero,20096a0 <__alt_mem_epcs_flash_controller+0xfe0006a0>
 20096c4:	0005883a 	mov	r2,zero
 20096c8:	dec00104 	addi	sp,sp,4
 20096cc:	f800283a 	ret
 20096d0:	00bfff84 	movi	r2,-2
 20096d4:	003ff706 	br	20096b4 <__alt_mem_epcs_flash_controller+0xfe0006b4>

020096d8 <memchr>:
 20096d8:	008000c4 	movi	r2,3
 20096dc:	29403fcc 	andi	r5,r5,255
 20096e0:	1180282e 	bgeu	r2,r6,2009784 <memchr+0xac>
 20096e4:	2086703a 	and	r3,r4,r2
 20096e8:	1800351e 	bne	r3,zero,20097c0 <memchr+0xe8>
 20096ec:	2816923a 	slli	r11,r5,8
 20096f0:	2093883a 	add	r9,r4,r2
 20096f4:	22000084 	addi	r8,r4,2
 20096f8:	5957883a 	add	r11,r11,r5
 20096fc:	5816923a 	slli	r11,r11,8
 2009700:	20c00044 	addi	r3,r4,1
 2009704:	037fbff4 	movhi	r13,65279
 2009708:	6b7fbfc4 	addi	r13,r13,-257
 200970c:	5957883a 	add	r11,r11,r5
 2009710:	5816923a 	slli	r11,r11,8
 2009714:	03202074 	movhi	r12,32897
 2009718:	63202004 	addi	r12,r12,-32640
 200971c:	101d883a 	mov	r14,r2
 2009720:	5957883a 	add	r11,r11,r5
 2009724:	21c00017 	ldw	r7,0(r4)
 2009728:	31bfff04 	addi	r6,r6,-4
 200972c:	1805883a 	mov	r2,r3
 2009730:	3acef03a 	xor	r7,r7,r11
 2009734:	3b55883a 	add	r10,r7,r13
 2009738:	01ce303a 	nor	r7,zero,r7
 200973c:	51ce703a 	and	r7,r10,r7
 2009740:	3b0e703a 	and	r7,r7,r12
 2009744:	38000a26 	beq	r7,zero,2009770 <memchr+0x98>
 2009748:	21c00003 	ldbu	r7,0(r4)
 200974c:	39401e26 	beq	r7,r5,20097c8 <memchr+0xf0>
 2009750:	19c00003 	ldbu	r7,0(r3)
 2009754:	39401926 	beq	r7,r5,20097bc <memchr+0xe4>
 2009758:	41c00003 	ldbu	r7,0(r8)
 200975c:	4005883a 	mov	r2,r8
 2009760:	39401626 	beq	r7,r5,20097bc <memchr+0xe4>
 2009764:	49c00003 	ldbu	r7,0(r9)
 2009768:	4805883a 	mov	r2,r9
 200976c:	39401326 	beq	r7,r5,20097bc <memchr+0xe4>
 2009770:	21000104 	addi	r4,r4,4
 2009774:	4a400104 	addi	r9,r9,4
 2009778:	42000104 	addi	r8,r8,4
 200977c:	18c00104 	addi	r3,r3,4
 2009780:	71bfe836 	bltu	r14,r6,2009724 <__alt_mem_epcs_flash_controller+0xfe000724>
 2009784:	2005883a 	mov	r2,r4
 2009788:	30000a26 	beq	r6,zero,20097b4 <memchr+0xdc>
 200978c:	10c00003 	ldbu	r3,0(r2)
 2009790:	19400a26 	beq	r3,r5,20097bc <memchr+0xe4>
 2009794:	10c00044 	addi	r3,r2,1
 2009798:	118d883a 	add	r6,r2,r6
 200979c:	00000306 	br	20097ac <memchr+0xd4>
 20097a0:	11000003 	ldbu	r4,0(r2)
 20097a4:	18c00044 	addi	r3,r3,1
 20097a8:	21400426 	beq	r4,r5,20097bc <memchr+0xe4>
 20097ac:	1805883a 	mov	r2,r3
 20097b0:	19bffb1e 	bne	r3,r6,20097a0 <__alt_mem_epcs_flash_controller+0xfe0007a0>
 20097b4:	0005883a 	mov	r2,zero
 20097b8:	f800283a 	ret
 20097bc:	f800283a 	ret
 20097c0:	2005883a 	mov	r2,r4
 20097c4:	003ff106 	br	200978c <__alt_mem_epcs_flash_controller+0xfe00078c>
 20097c8:	2005883a 	mov	r2,r4
 20097cc:	f800283a 	ret

020097d0 <memcpy>:
 20097d0:	defffb04 	addi	sp,sp,-20
 20097d4:	dc000015 	stw	r16,0(sp)
 20097d8:	dfc00415 	stw	ra,16(sp)
 20097dc:	dcc00315 	stw	r19,12(sp)
 20097e0:	dc800215 	stw	r18,8(sp)
 20097e4:	dc400115 	stw	r17,4(sp)
 20097e8:	00c003c4 	movi	r3,15
 20097ec:	2021883a 	mov	r16,r4
 20097f0:	3005883a 	mov	r2,r6
 20097f4:	1980032e 	bgeu	r3,r6,2009804 <memcpy+0x34>
 20097f8:	2906b03a 	or	r3,r5,r4
 20097fc:	18c000cc 	andi	r3,r3,3
 2009800:	18001026 	beq	r3,zero,2009844 <memcpy+0x74>
 2009804:	8007883a 	mov	r3,r16
 2009808:	288f883a 	add	r7,r5,r2
 200980c:	10000526 	beq	r2,zero,2009824 <memcpy+0x54>
 2009810:	29800003 	ldbu	r6,0(r5)
 2009814:	18c00044 	addi	r3,r3,1
 2009818:	29400044 	addi	r5,r5,1
 200981c:	19bfffc5 	stb	r6,-1(r3)
 2009820:	29fffb1e 	bne	r5,r7,2009810 <__alt_mem_epcs_flash_controller+0xfe000810>
 2009824:	8005883a 	mov	r2,r16
 2009828:	dfc00417 	ldw	ra,16(sp)
 200982c:	dcc00317 	ldw	r19,12(sp)
 2009830:	dc800217 	ldw	r18,8(sp)
 2009834:	dc400117 	ldw	r17,4(sp)
 2009838:	dc000017 	ldw	r16,0(sp)
 200983c:	dec00504 	addi	sp,sp,20
 2009840:	f800283a 	ret
 2009844:	32bffc04 	addi	r10,r6,-16
 2009848:	5014d13a 	srli	r10,r10,4
 200984c:	20800404 	addi	r2,r4,16
 2009850:	2007883a 	mov	r3,r4
 2009854:	5008913a 	slli	r4,r10,4
 2009858:	280f883a 	mov	r7,r5
 200985c:	1105883a 	add	r2,r2,r4
 2009860:	3a000017 	ldw	r8,0(r7)
 2009864:	18c00404 	addi	r3,r3,16
 2009868:	39c00404 	addi	r7,r7,16
 200986c:	1a3ffc15 	stw	r8,-16(r3)
 2009870:	3a3ffd17 	ldw	r8,-12(r7)
 2009874:	1a3ffd15 	stw	r8,-12(r3)
 2009878:	3a3ffe17 	ldw	r8,-8(r7)
 200987c:	1a3ffe15 	stw	r8,-8(r3)
 2009880:	3a3fff17 	ldw	r8,-4(r7)
 2009884:	1a3fff15 	stw	r8,-4(r3)
 2009888:	18bff51e 	bne	r3,r2,2009860 <__alt_mem_epcs_flash_controller+0xfe000860>
 200988c:	52800044 	addi	r10,r10,1
 2009890:	5014913a 	slli	r10,r10,4
 2009894:	308003cc 	andi	r2,r6,15
 2009898:	010000c4 	movi	r4,3
 200989c:	8287883a 	add	r3,r16,r10
 20098a0:	2a95883a 	add	r10,r5,r10
 20098a4:	2080182e 	bgeu	r4,r2,2009908 <memcpy+0x138>
 20098a8:	147fff04 	addi	r17,r2,-4
 20098ac:	8808d0ba 	srli	r4,r17,2
 20098b0:	1a400104 	addi	r9,r3,4
 20098b4:	180d883a 	mov	r6,r3
 20098b8:	2105883a 	add	r2,r4,r4
 20098bc:	1085883a 	add	r2,r2,r2
 20098c0:	4893883a 	add	r9,r9,r2
 20098c4:	500f883a 	mov	r7,r10
 20098c8:	3a000017 	ldw	r8,0(r7)
 20098cc:	31800104 	addi	r6,r6,4
 20098d0:	39c00104 	addi	r7,r7,4
 20098d4:	323fff15 	stw	r8,-4(r6)
 20098d8:	327ffb1e 	bne	r6,r9,20098c8 <__alt_mem_epcs_flash_controller+0xfe0008c8>
 20098dc:	20800044 	addi	r2,r4,1
 20098e0:	1085883a 	add	r2,r2,r2
 20098e4:	1085883a 	add	r2,r2,r2
 20098e8:	017fff04 	movi	r5,-4
 20098ec:	18a5883a 	add	r18,r3,r2
 20098f0:	50a7883a 	add	r19,r10,r2
 20098f4:	2001d200 	call	2001d20 <__mulsi3>
 20098f8:	1445883a 	add	r2,r2,r17
 20098fc:	980b883a 	mov	r5,r19
 2009900:	9007883a 	mov	r3,r18
 2009904:	003fc006 	br	2009808 <__alt_mem_epcs_flash_controller+0xfe000808>
 2009908:	500b883a 	mov	r5,r10
 200990c:	003fbe06 	br	2009808 <__alt_mem_epcs_flash_controller+0xfe000808>

02009910 <memmove>:
 2009910:	defffb04 	addi	sp,sp,-20
 2009914:	dc000015 	stw	r16,0(sp)
 2009918:	dfc00415 	stw	ra,16(sp)
 200991c:	dcc00315 	stw	r19,12(sp)
 2009920:	dc800215 	stw	r18,8(sp)
 2009924:	dc400115 	stw	r17,4(sp)
 2009928:	2021883a 	mov	r16,r4
 200992c:	300f883a 	mov	r7,r6
 2009930:	2900122e 	bgeu	r5,r4,200997c <memmove+0x6c>
 2009934:	2987883a 	add	r3,r5,r6
 2009938:	20c0102e 	bgeu	r4,r3,200997c <memmove+0x6c>
 200993c:	218b883a 	add	r5,r4,r6
 2009940:	1989c83a 	sub	r4,r3,r6
 2009944:	30000526 	beq	r6,zero,200995c <memmove+0x4c>
 2009948:	18ffffc4 	addi	r3,r3,-1
 200994c:	18800003 	ldbu	r2,0(r3)
 2009950:	297fffc4 	addi	r5,r5,-1
 2009954:	28800005 	stb	r2,0(r5)
 2009958:	193ffb1e 	bne	r3,r4,2009948 <__alt_mem_epcs_flash_controller+0xfe000948>
 200995c:	8005883a 	mov	r2,r16
 2009960:	dfc00417 	ldw	ra,16(sp)
 2009964:	dcc00317 	ldw	r19,12(sp)
 2009968:	dc800217 	ldw	r18,8(sp)
 200996c:	dc400117 	ldw	r17,4(sp)
 2009970:	dc000017 	ldw	r16,0(sp)
 2009974:	dec00504 	addi	sp,sp,20
 2009978:	f800283a 	ret
 200997c:	008003c4 	movi	r2,15
 2009980:	1180422e 	bgeu	r2,r6,2009a8c <memmove+0x17c>
 2009984:	2c04b03a 	or	r2,r5,r16
 2009988:	108000cc 	andi	r2,r2,3
 200998c:	10003f1e 	bne	r2,zero,2009a8c <memmove+0x17c>
 2009990:	32bffc04 	addi	r10,r6,-16
 2009994:	5014d13a 	srli	r10,r10,4
 2009998:	81000404 	addi	r4,r16,16
 200999c:	8007883a 	mov	r3,r16
 20099a0:	5004913a 	slli	r2,r10,4
 20099a4:	280f883a 	mov	r7,r5
 20099a8:	2089883a 	add	r4,r4,r2
 20099ac:	38800017 	ldw	r2,0(r7)
 20099b0:	18c00404 	addi	r3,r3,16
 20099b4:	39c00404 	addi	r7,r7,16
 20099b8:	18bffc15 	stw	r2,-16(r3)
 20099bc:	38bffd17 	ldw	r2,-12(r7)
 20099c0:	18bffd15 	stw	r2,-12(r3)
 20099c4:	38bffe17 	ldw	r2,-8(r7)
 20099c8:	18bffe15 	stw	r2,-8(r3)
 20099cc:	38bfff17 	ldw	r2,-4(r7)
 20099d0:	18bfff15 	stw	r2,-4(r3)
 20099d4:	193ff51e 	bne	r3,r4,20099ac <__alt_mem_epcs_flash_controller+0xfe0009ac>
 20099d8:	52800044 	addi	r10,r10,1
 20099dc:	5014913a 	slli	r10,r10,4
 20099e0:	31c003cc 	andi	r7,r6,15
 20099e4:	008000c4 	movi	r2,3
 20099e8:	8287883a 	add	r3,r16,r10
 20099ec:	2a95883a 	add	r10,r5,r10
 20099f0:	11c0282e 	bgeu	r2,r7,2009a94 <memmove+0x184>
 20099f4:	3c7fff04 	addi	r17,r7,-4
 20099f8:	8808d0ba 	srli	r4,r17,2
 20099fc:	1a400104 	addi	r9,r3,4
 2009a00:	180d883a 	mov	r6,r3
 2009a04:	2105883a 	add	r2,r4,r4
 2009a08:	1085883a 	add	r2,r2,r2
 2009a0c:	4893883a 	add	r9,r9,r2
 2009a10:	5005883a 	mov	r2,r10
 2009a14:	12000017 	ldw	r8,0(r2)
 2009a18:	31800104 	addi	r6,r6,4
 2009a1c:	10800104 	addi	r2,r2,4
 2009a20:	323fff15 	stw	r8,-4(r6)
 2009a24:	327ffb1e 	bne	r6,r9,2009a14 <__alt_mem_epcs_flash_controller+0xfe000a14>
 2009a28:	20800044 	addi	r2,r4,1
 2009a2c:	1085883a 	add	r2,r2,r2
 2009a30:	1085883a 	add	r2,r2,r2
 2009a34:	017fff04 	movi	r5,-4
 2009a38:	18a5883a 	add	r18,r3,r2
 2009a3c:	50a7883a 	add	r19,r10,r2
 2009a40:	2001d200 	call	2001d20 <__mulsi3>
 2009a44:	144f883a 	add	r7,r2,r17
 2009a48:	980b883a 	mov	r5,r19
 2009a4c:	9007883a 	mov	r3,r18
 2009a50:	383fc226 	beq	r7,zero,200995c <__alt_mem_epcs_flash_controller+0xfe00095c>
 2009a54:	19cf883a 	add	r7,r3,r7
 2009a58:	29800003 	ldbu	r6,0(r5)
 2009a5c:	18c00044 	addi	r3,r3,1
 2009a60:	29400044 	addi	r5,r5,1
 2009a64:	19bfffc5 	stb	r6,-1(r3)
 2009a68:	19fffb1e 	bne	r3,r7,2009a58 <__alt_mem_epcs_flash_controller+0xfe000a58>
 2009a6c:	8005883a 	mov	r2,r16
 2009a70:	dfc00417 	ldw	ra,16(sp)
 2009a74:	dcc00317 	ldw	r19,12(sp)
 2009a78:	dc800217 	ldw	r18,8(sp)
 2009a7c:	dc400117 	ldw	r17,4(sp)
 2009a80:	dc000017 	ldw	r16,0(sp)
 2009a84:	dec00504 	addi	sp,sp,20
 2009a88:	f800283a 	ret
 2009a8c:	8007883a 	mov	r3,r16
 2009a90:	003fef06 	br	2009a50 <__alt_mem_epcs_flash_controller+0xfe000a50>
 2009a94:	500b883a 	mov	r5,r10
 2009a98:	003fed06 	br	2009a50 <__alt_mem_epcs_flash_controller+0xfe000a50>

02009a9c <_Balloc>:
 2009a9c:	20801317 	ldw	r2,76(r4)
 2009aa0:	defffc04 	addi	sp,sp,-16
 2009aa4:	dc400115 	stw	r17,4(sp)
 2009aa8:	dc000015 	stw	r16,0(sp)
 2009aac:	dfc00315 	stw	ra,12(sp)
 2009ab0:	dc800215 	stw	r18,8(sp)
 2009ab4:	2023883a 	mov	r17,r4
 2009ab8:	2821883a 	mov	r16,r5
 2009abc:	10000f26 	beq	r2,zero,2009afc <_Balloc+0x60>
 2009ac0:	8407883a 	add	r3,r16,r16
 2009ac4:	18c7883a 	add	r3,r3,r3
 2009ac8:	10c7883a 	add	r3,r2,r3
 2009acc:	18800017 	ldw	r2,0(r3)
 2009ad0:	10001126 	beq	r2,zero,2009b18 <_Balloc+0x7c>
 2009ad4:	11000017 	ldw	r4,0(r2)
 2009ad8:	19000015 	stw	r4,0(r3)
 2009adc:	10000415 	stw	zero,16(r2)
 2009ae0:	10000315 	stw	zero,12(r2)
 2009ae4:	dfc00317 	ldw	ra,12(sp)
 2009ae8:	dc800217 	ldw	r18,8(sp)
 2009aec:	dc400117 	ldw	r17,4(sp)
 2009af0:	dc000017 	ldw	r16,0(sp)
 2009af4:	dec00404 	addi	sp,sp,16
 2009af8:	f800283a 	ret
 2009afc:	01400104 	movi	r5,4
 2009b00:	01800404 	movi	r6,16
 2009b04:	200db340 	call	200db34 <_calloc_r>
 2009b08:	88801315 	stw	r2,76(r17)
 2009b0c:	103fec1e 	bne	r2,zero,2009ac0 <__alt_mem_epcs_flash_controller+0xfe000ac0>
 2009b10:	0005883a 	mov	r2,zero
 2009b14:	003ff306 	br	2009ae4 <__alt_mem_epcs_flash_controller+0xfe000ae4>
 2009b18:	01400044 	movi	r5,1
 2009b1c:	2c24983a 	sll	r18,r5,r16
 2009b20:	8809883a 	mov	r4,r17
 2009b24:	91800144 	addi	r6,r18,5
 2009b28:	318d883a 	add	r6,r6,r6
 2009b2c:	318d883a 	add	r6,r6,r6
 2009b30:	200db340 	call	200db34 <_calloc_r>
 2009b34:	103ff626 	beq	r2,zero,2009b10 <__alt_mem_epcs_flash_controller+0xfe000b10>
 2009b38:	14000115 	stw	r16,4(r2)
 2009b3c:	14800215 	stw	r18,8(r2)
 2009b40:	003fe606 	br	2009adc <__alt_mem_epcs_flash_controller+0xfe000adc>

02009b44 <_Bfree>:
 2009b44:	28000826 	beq	r5,zero,2009b68 <_Bfree+0x24>
 2009b48:	28c00117 	ldw	r3,4(r5)
 2009b4c:	20801317 	ldw	r2,76(r4)
 2009b50:	18c7883a 	add	r3,r3,r3
 2009b54:	18c7883a 	add	r3,r3,r3
 2009b58:	10c5883a 	add	r2,r2,r3
 2009b5c:	10c00017 	ldw	r3,0(r2)
 2009b60:	28c00015 	stw	r3,0(r5)
 2009b64:	11400015 	stw	r5,0(r2)
 2009b68:	f800283a 	ret

02009b6c <__multadd>:
 2009b6c:	defff604 	addi	sp,sp,-40
 2009b70:	dd400515 	stw	r21,20(sp)
 2009b74:	2d400417 	ldw	r21,16(r5)
 2009b78:	df000815 	stw	fp,32(sp)
 2009b7c:	ddc00715 	stw	r23,28(sp)
 2009b80:	dd800615 	stw	r22,24(sp)
 2009b84:	dd000415 	stw	r20,16(sp)
 2009b88:	dc400115 	stw	r17,4(sp)
 2009b8c:	dc000015 	stw	r16,0(sp)
 2009b90:	dfc00915 	stw	ra,36(sp)
 2009b94:	dcc00315 	stw	r19,12(sp)
 2009b98:	dc800215 	stw	r18,8(sp)
 2009b9c:	282d883a 	mov	r22,r5
 2009ba0:	202f883a 	mov	r23,r4
 2009ba4:	3029883a 	mov	r20,r6
 2009ba8:	3839883a 	mov	fp,r7
 2009bac:	2c000504 	addi	r16,r5,20
 2009bb0:	0023883a 	mov	r17,zero
 2009bb4:	84c00017 	ldw	r19,0(r16)
 2009bb8:	a00b883a 	mov	r5,r20
 2009bbc:	8c400044 	addi	r17,r17,1
 2009bc0:	993fffcc 	andi	r4,r19,65535
 2009bc4:	2001d200 	call	2001d20 <__mulsi3>
 2009bc8:	1725883a 	add	r18,r2,fp
 2009bcc:	9808d43a 	srli	r4,r19,16
 2009bd0:	9026d43a 	srli	r19,r18,16
 2009bd4:	a00b883a 	mov	r5,r20
 2009bd8:	2001d200 	call	2001d20 <__mulsi3>
 2009bdc:	988f883a 	add	r7,r19,r2
 2009be0:	3804943a 	slli	r2,r7,16
 2009be4:	94bfffcc 	andi	r18,r18,65535
 2009be8:	3838d43a 	srli	fp,r7,16
 2009bec:	14a5883a 	add	r18,r2,r18
 2009bf0:	84800015 	stw	r18,0(r16)
 2009bf4:	84000104 	addi	r16,r16,4
 2009bf8:	8d7fee16 	blt	r17,r21,2009bb4 <__alt_mem_epcs_flash_controller+0xfe000bb4>
 2009bfc:	e0000926 	beq	fp,zero,2009c24 <__multadd+0xb8>
 2009c00:	b0800217 	ldw	r2,8(r22)
 2009c04:	a880140e 	bge	r21,r2,2009c58 <__multadd+0xec>
 2009c08:	a8800144 	addi	r2,r21,5
 2009c0c:	1085883a 	add	r2,r2,r2
 2009c10:	1085883a 	add	r2,r2,r2
 2009c14:	b085883a 	add	r2,r22,r2
 2009c18:	ad400044 	addi	r21,r21,1
 2009c1c:	17000015 	stw	fp,0(r2)
 2009c20:	b5400415 	stw	r21,16(r22)
 2009c24:	b005883a 	mov	r2,r22
 2009c28:	dfc00917 	ldw	ra,36(sp)
 2009c2c:	df000817 	ldw	fp,32(sp)
 2009c30:	ddc00717 	ldw	r23,28(sp)
 2009c34:	dd800617 	ldw	r22,24(sp)
 2009c38:	dd400517 	ldw	r21,20(sp)
 2009c3c:	dd000417 	ldw	r20,16(sp)
 2009c40:	dcc00317 	ldw	r19,12(sp)
 2009c44:	dc800217 	ldw	r18,8(sp)
 2009c48:	dc400117 	ldw	r17,4(sp)
 2009c4c:	dc000017 	ldw	r16,0(sp)
 2009c50:	dec00a04 	addi	sp,sp,40
 2009c54:	f800283a 	ret
 2009c58:	b1400117 	ldw	r5,4(r22)
 2009c5c:	b809883a 	mov	r4,r23
 2009c60:	29400044 	addi	r5,r5,1
 2009c64:	2009a9c0 	call	2009a9c <_Balloc>
 2009c68:	b1800417 	ldw	r6,16(r22)
 2009c6c:	b1400304 	addi	r5,r22,12
 2009c70:	11000304 	addi	r4,r2,12
 2009c74:	31800084 	addi	r6,r6,2
 2009c78:	318d883a 	add	r6,r6,r6
 2009c7c:	318d883a 	add	r6,r6,r6
 2009c80:	1021883a 	mov	r16,r2
 2009c84:	20097d00 	call	20097d0 <memcpy>
 2009c88:	b0c00117 	ldw	r3,4(r22)
 2009c8c:	b8801317 	ldw	r2,76(r23)
 2009c90:	18c7883a 	add	r3,r3,r3
 2009c94:	18c7883a 	add	r3,r3,r3
 2009c98:	10c5883a 	add	r2,r2,r3
 2009c9c:	10c00017 	ldw	r3,0(r2)
 2009ca0:	b0c00015 	stw	r3,0(r22)
 2009ca4:	15800015 	stw	r22,0(r2)
 2009ca8:	802d883a 	mov	r22,r16
 2009cac:	003fd606 	br	2009c08 <__alt_mem_epcs_flash_controller+0xfe000c08>

02009cb0 <__s2b>:
 2009cb0:	defff904 	addi	sp,sp,-28
 2009cb4:	dd000415 	stw	r20,16(sp)
 2009cb8:	dc400115 	stw	r17,4(sp)
 2009cbc:	2829883a 	mov	r20,r5
 2009cc0:	2023883a 	mov	r17,r4
 2009cc4:	01400244 	movi	r5,9
 2009cc8:	39000204 	addi	r4,r7,8
 2009ccc:	dcc00315 	stw	r19,12(sp)
 2009cd0:	dc800215 	stw	r18,8(sp)
 2009cd4:	dfc00615 	stw	ra,24(sp)
 2009cd8:	dd400515 	stw	r21,20(sp)
 2009cdc:	dc000015 	stw	r16,0(sp)
 2009ce0:	3825883a 	mov	r18,r7
 2009ce4:	3027883a 	mov	r19,r6
 2009ce8:	2001c640 	call	2001c64 <__divsi3>
 2009cec:	00c00044 	movi	r3,1
 2009cf0:	000b883a 	mov	r5,zero
 2009cf4:	1880030e 	bge	r3,r2,2009d04 <__s2b+0x54>
 2009cf8:	18c7883a 	add	r3,r3,r3
 2009cfc:	29400044 	addi	r5,r5,1
 2009d00:	18bffd16 	blt	r3,r2,2009cf8 <__alt_mem_epcs_flash_controller+0xfe000cf8>
 2009d04:	8809883a 	mov	r4,r17
 2009d08:	2009a9c0 	call	2009a9c <_Balloc>
 2009d0c:	d8c00717 	ldw	r3,28(sp)
 2009d10:	10c00515 	stw	r3,20(r2)
 2009d14:	00c00044 	movi	r3,1
 2009d18:	10c00415 	stw	r3,16(r2)
 2009d1c:	00c00244 	movi	r3,9
 2009d20:	1cc0210e 	bge	r3,r19,2009da8 <__s2b+0xf8>
 2009d24:	a0eb883a 	add	r21,r20,r3
 2009d28:	a821883a 	mov	r16,r21
 2009d2c:	a4e9883a 	add	r20,r20,r19
 2009d30:	81c00007 	ldb	r7,0(r16)
 2009d34:	8809883a 	mov	r4,r17
 2009d38:	84000044 	addi	r16,r16,1
 2009d3c:	100b883a 	mov	r5,r2
 2009d40:	01800284 	movi	r6,10
 2009d44:	39fff404 	addi	r7,r7,-48
 2009d48:	2009b6c0 	call	2009b6c <__multadd>
 2009d4c:	853ff81e 	bne	r16,r20,2009d30 <__alt_mem_epcs_flash_controller+0xfe000d30>
 2009d50:	ace1883a 	add	r16,r21,r19
 2009d54:	843ffe04 	addi	r16,r16,-8
 2009d58:	9c800a0e 	bge	r19,r18,2009d84 <__s2b+0xd4>
 2009d5c:	94e5c83a 	sub	r18,r18,r19
 2009d60:	84a5883a 	add	r18,r16,r18
 2009d64:	81c00007 	ldb	r7,0(r16)
 2009d68:	8809883a 	mov	r4,r17
 2009d6c:	84000044 	addi	r16,r16,1
 2009d70:	100b883a 	mov	r5,r2
 2009d74:	01800284 	movi	r6,10
 2009d78:	39fff404 	addi	r7,r7,-48
 2009d7c:	2009b6c0 	call	2009b6c <__multadd>
 2009d80:	84bff81e 	bne	r16,r18,2009d64 <__alt_mem_epcs_flash_controller+0xfe000d64>
 2009d84:	dfc00617 	ldw	ra,24(sp)
 2009d88:	dd400517 	ldw	r21,20(sp)
 2009d8c:	dd000417 	ldw	r20,16(sp)
 2009d90:	dcc00317 	ldw	r19,12(sp)
 2009d94:	dc800217 	ldw	r18,8(sp)
 2009d98:	dc400117 	ldw	r17,4(sp)
 2009d9c:	dc000017 	ldw	r16,0(sp)
 2009da0:	dec00704 	addi	sp,sp,28
 2009da4:	f800283a 	ret
 2009da8:	a4000284 	addi	r16,r20,10
 2009dac:	1827883a 	mov	r19,r3
 2009db0:	003fe906 	br	2009d58 <__alt_mem_epcs_flash_controller+0xfe000d58>

02009db4 <__hi0bits>:
 2009db4:	20bfffec 	andhi	r2,r4,65535
 2009db8:	1000141e 	bne	r2,zero,2009e0c <__hi0bits+0x58>
 2009dbc:	2008943a 	slli	r4,r4,16
 2009dc0:	00800404 	movi	r2,16
 2009dc4:	20ffc02c 	andhi	r3,r4,65280
 2009dc8:	1800021e 	bne	r3,zero,2009dd4 <__hi0bits+0x20>
 2009dcc:	2008923a 	slli	r4,r4,8
 2009dd0:	10800204 	addi	r2,r2,8
 2009dd4:	20fc002c 	andhi	r3,r4,61440
 2009dd8:	1800021e 	bne	r3,zero,2009de4 <__hi0bits+0x30>
 2009ddc:	2008913a 	slli	r4,r4,4
 2009de0:	10800104 	addi	r2,r2,4
 2009de4:	20f0002c 	andhi	r3,r4,49152
 2009de8:	1800031e 	bne	r3,zero,2009df8 <__hi0bits+0x44>
 2009dec:	2109883a 	add	r4,r4,r4
 2009df0:	10800084 	addi	r2,r2,2
 2009df4:	2109883a 	add	r4,r4,r4
 2009df8:	20000316 	blt	r4,zero,2009e08 <__hi0bits+0x54>
 2009dfc:	2110002c 	andhi	r4,r4,16384
 2009e00:	2000041e 	bne	r4,zero,2009e14 <__hi0bits+0x60>
 2009e04:	00800804 	movi	r2,32
 2009e08:	f800283a 	ret
 2009e0c:	0005883a 	mov	r2,zero
 2009e10:	003fec06 	br	2009dc4 <__alt_mem_epcs_flash_controller+0xfe000dc4>
 2009e14:	10800044 	addi	r2,r2,1
 2009e18:	f800283a 	ret

02009e1c <__lo0bits>:
 2009e1c:	20c00017 	ldw	r3,0(r4)
 2009e20:	188001cc 	andi	r2,r3,7
 2009e24:	10000826 	beq	r2,zero,2009e48 <__lo0bits+0x2c>
 2009e28:	1880004c 	andi	r2,r3,1
 2009e2c:	1000211e 	bne	r2,zero,2009eb4 <__lo0bits+0x98>
 2009e30:	1880008c 	andi	r2,r3,2
 2009e34:	1000211e 	bne	r2,zero,2009ebc <__lo0bits+0xa0>
 2009e38:	1806d0ba 	srli	r3,r3,2
 2009e3c:	00800084 	movi	r2,2
 2009e40:	20c00015 	stw	r3,0(r4)
 2009e44:	f800283a 	ret
 2009e48:	18bfffcc 	andi	r2,r3,65535
 2009e4c:	10001326 	beq	r2,zero,2009e9c <__lo0bits+0x80>
 2009e50:	0005883a 	mov	r2,zero
 2009e54:	19403fcc 	andi	r5,r3,255
 2009e58:	2800021e 	bne	r5,zero,2009e64 <__lo0bits+0x48>
 2009e5c:	1806d23a 	srli	r3,r3,8
 2009e60:	10800204 	addi	r2,r2,8
 2009e64:	194003cc 	andi	r5,r3,15
 2009e68:	2800021e 	bne	r5,zero,2009e74 <__lo0bits+0x58>
 2009e6c:	1806d13a 	srli	r3,r3,4
 2009e70:	10800104 	addi	r2,r2,4
 2009e74:	194000cc 	andi	r5,r3,3
 2009e78:	2800021e 	bne	r5,zero,2009e84 <__lo0bits+0x68>
 2009e7c:	1806d0ba 	srli	r3,r3,2
 2009e80:	10800084 	addi	r2,r2,2
 2009e84:	1940004c 	andi	r5,r3,1
 2009e88:	2800081e 	bne	r5,zero,2009eac <__lo0bits+0x90>
 2009e8c:	1806d07a 	srli	r3,r3,1
 2009e90:	1800051e 	bne	r3,zero,2009ea8 <__lo0bits+0x8c>
 2009e94:	00800804 	movi	r2,32
 2009e98:	f800283a 	ret
 2009e9c:	1806d43a 	srli	r3,r3,16
 2009ea0:	00800404 	movi	r2,16
 2009ea4:	003feb06 	br	2009e54 <__alt_mem_epcs_flash_controller+0xfe000e54>
 2009ea8:	10800044 	addi	r2,r2,1
 2009eac:	20c00015 	stw	r3,0(r4)
 2009eb0:	f800283a 	ret
 2009eb4:	0005883a 	mov	r2,zero
 2009eb8:	f800283a 	ret
 2009ebc:	1806d07a 	srli	r3,r3,1
 2009ec0:	00800044 	movi	r2,1
 2009ec4:	20c00015 	stw	r3,0(r4)
 2009ec8:	f800283a 	ret

02009ecc <__i2b>:
 2009ecc:	defffd04 	addi	sp,sp,-12
 2009ed0:	dc000015 	stw	r16,0(sp)
 2009ed4:	04000044 	movi	r16,1
 2009ed8:	dc400115 	stw	r17,4(sp)
 2009edc:	2823883a 	mov	r17,r5
 2009ee0:	800b883a 	mov	r5,r16
 2009ee4:	dfc00215 	stw	ra,8(sp)
 2009ee8:	2009a9c0 	call	2009a9c <_Balloc>
 2009eec:	14400515 	stw	r17,20(r2)
 2009ef0:	14000415 	stw	r16,16(r2)
 2009ef4:	dfc00217 	ldw	ra,8(sp)
 2009ef8:	dc400117 	ldw	r17,4(sp)
 2009efc:	dc000017 	ldw	r16,0(sp)
 2009f00:	dec00304 	addi	sp,sp,12
 2009f04:	f800283a 	ret

02009f08 <__multiply>:
 2009f08:	defff004 	addi	sp,sp,-64
 2009f0c:	dc800815 	stw	r18,32(sp)
 2009f10:	dc400715 	stw	r17,28(sp)
 2009f14:	34800417 	ldw	r18,16(r6)
 2009f18:	2c400417 	ldw	r17,16(r5)
 2009f1c:	ddc00d15 	stw	r23,52(sp)
 2009f20:	dc000615 	stw	r16,24(sp)
 2009f24:	dfc00f15 	stw	ra,60(sp)
 2009f28:	df000e15 	stw	fp,56(sp)
 2009f2c:	dd800c15 	stw	r22,48(sp)
 2009f30:	dd400b15 	stw	r21,44(sp)
 2009f34:	dd000a15 	stw	r20,40(sp)
 2009f38:	dcc00915 	stw	r19,36(sp)
 2009f3c:	2821883a 	mov	r16,r5
 2009f40:	302f883a 	mov	r23,r6
 2009f44:	8c80050e 	bge	r17,r18,2009f5c <__multiply+0x54>
 2009f48:	8807883a 	mov	r3,r17
 2009f4c:	3021883a 	mov	r16,r6
 2009f50:	9023883a 	mov	r17,r18
 2009f54:	282f883a 	mov	r23,r5
 2009f58:	1825883a 	mov	r18,r3
 2009f5c:	80800217 	ldw	r2,8(r16)
 2009f60:	8c87883a 	add	r3,r17,r18
 2009f64:	d8c00115 	stw	r3,4(sp)
 2009f68:	81400117 	ldw	r5,4(r16)
 2009f6c:	10c0010e 	bge	r2,r3,2009f74 <__multiply+0x6c>
 2009f70:	29400044 	addi	r5,r5,1
 2009f74:	2009a9c0 	call	2009a9c <_Balloc>
 2009f78:	d8c00117 	ldw	r3,4(sp)
 2009f7c:	d8800515 	stw	r2,20(sp)
 2009f80:	14c00504 	addi	r19,r2,20
 2009f84:	1d400144 	addi	r21,r3,5
 2009f88:	ad6b883a 	add	r21,r21,r21
 2009f8c:	ad6b883a 	add	r21,r21,r21
 2009f90:	156b883a 	add	r21,r2,r21
 2009f94:	dd400215 	stw	r21,8(sp)
 2009f98:	9805883a 	mov	r2,r19
 2009f9c:	9d40042e 	bgeu	r19,r21,2009fb0 <__multiply+0xa8>
 2009fa0:	d8c00217 	ldw	r3,8(sp)
 2009fa4:	10000015 	stw	zero,0(r2)
 2009fa8:	10800104 	addi	r2,r2,4
 2009fac:	10fffc36 	bltu	r2,r3,2009fa0 <__alt_mem_epcs_flash_controller+0xfe000fa0>
 2009fb0:	94800144 	addi	r18,r18,5
 2009fb4:	94a5883a 	add	r18,r18,r18
 2009fb8:	94ad883a 	add	r22,r18,r18
 2009fbc:	8c400144 	addi	r17,r17,5
 2009fc0:	8c63883a 	add	r17,r17,r17
 2009fc4:	bdad883a 	add	r22,r23,r22
 2009fc8:	80c00504 	addi	r3,r16,20
 2009fcc:	8c63883a 	add	r17,r17,r17
 2009fd0:	bc800504 	addi	r18,r23,20
 2009fd4:	dd800315 	stw	r22,12(sp)
 2009fd8:	d8c00415 	stw	r3,16(sp)
 2009fdc:	dcc00015 	stw	r19,0(sp)
 2009fe0:	8463883a 	add	r17,r16,r17
 2009fe4:	9580412e 	bgeu	r18,r22,200a0ec <__multiply+0x1e4>
 2009fe8:	90800017 	ldw	r2,0(r18)
 2009fec:	173fffcc 	andi	fp,r2,65535
 2009ff0:	e0001a26 	beq	fp,zero,200a05c <__multiply+0x154>
 2009ff4:	dd000017 	ldw	r20,0(sp)
 2009ff8:	dd800417 	ldw	r22,16(sp)
 2009ffc:	002b883a 	mov	r21,zero
 200a000:	b4c00017 	ldw	r19,0(r22)
 200a004:	a4000017 	ldw	r16,0(r20)
 200a008:	e00b883a 	mov	r5,fp
 200a00c:	993fffcc 	andi	r4,r19,65535
 200a010:	2001d200 	call	2001d20 <__mulsi3>
 200a014:	9808d43a 	srli	r4,r19,16
 200a018:	817fffcc 	andi	r5,r16,65535
 200a01c:	1145883a 	add	r2,r2,r5
 200a020:	e00b883a 	mov	r5,fp
 200a024:	1567883a 	add	r19,r2,r21
 200a028:	8020d43a 	srli	r16,r16,16
 200a02c:	2001d200 	call	2001d20 <__mulsi3>
 200a030:	9808d43a 	srli	r4,r19,16
 200a034:	1405883a 	add	r2,r2,r16
 200a038:	a4c0000d 	sth	r19,0(r20)
 200a03c:	110f883a 	add	r7,r2,r4
 200a040:	a1c0008d 	sth	r7,2(r20)
 200a044:	b5800104 	addi	r22,r22,4
 200a048:	382ad43a 	srli	r21,r7,16
 200a04c:	a5000104 	addi	r20,r20,4
 200a050:	b47feb36 	bltu	r22,r17,200a000 <__alt_mem_epcs_flash_controller+0xfe001000>
 200a054:	a5400015 	stw	r21,0(r20)
 200a058:	90800017 	ldw	r2,0(r18)
 200a05c:	1038d43a 	srli	fp,r2,16
 200a060:	e0001c26 	beq	fp,zero,200a0d4 <__multiply+0x1cc>
 200a064:	d8c00017 	ldw	r3,0(sp)
 200a068:	dd000417 	ldw	r20,16(sp)
 200a06c:	002b883a 	mov	r21,zero
 200a070:	1d800017 	ldw	r22,0(r3)
 200a074:	182f883a 	mov	r23,r3
 200a078:	b021883a 	mov	r16,r22
 200a07c:	a4c00017 	ldw	r19,0(r20)
 200a080:	8020d43a 	srli	r16,r16,16
 200a084:	e00b883a 	mov	r5,fp
 200a088:	993fffcc 	andi	r4,r19,65535
 200a08c:	2001d200 	call	2001d20 <__mulsi3>
 200a090:	1405883a 	add	r2,r2,r16
 200a094:	9808d43a 	srli	r4,r19,16
 200a098:	156b883a 	add	r21,r2,r21
 200a09c:	bdc00104 	addi	r23,r23,4
 200a0a0:	bdbfff0d 	sth	r22,-4(r23)
 200a0a4:	bd7fff8d 	sth	r21,-2(r23)
 200a0a8:	bc000017 	ldw	r16,0(r23)
 200a0ac:	e00b883a 	mov	r5,fp
 200a0b0:	2001d200 	call	2001d20 <__mulsi3>
 200a0b4:	a80ed43a 	srli	r7,r21,16
 200a0b8:	813fffcc 	andi	r4,r16,65535
 200a0bc:	2085883a 	add	r2,r4,r2
 200a0c0:	11ed883a 	add	r22,r2,r7
 200a0c4:	a5000104 	addi	r20,r20,4
 200a0c8:	b02ad43a 	srli	r21,r22,16
 200a0cc:	a47feb36 	bltu	r20,r17,200a07c <__alt_mem_epcs_flash_controller+0xfe00107c>
 200a0d0:	bd800015 	stw	r22,0(r23)
 200a0d4:	d8c00017 	ldw	r3,0(sp)
 200a0d8:	94800104 	addi	r18,r18,4
 200a0dc:	18c00104 	addi	r3,r3,4
 200a0e0:	d8c00015 	stw	r3,0(sp)
 200a0e4:	d8c00317 	ldw	r3,12(sp)
 200a0e8:	90ffbf36 	bltu	r18,r3,2009fe8 <__alt_mem_epcs_flash_controller+0xfe000fe8>
 200a0ec:	d8c00117 	ldw	r3,4(sp)
 200a0f0:	00c00c0e 	bge	zero,r3,200a124 <__multiply+0x21c>
 200a0f4:	d8c00217 	ldw	r3,8(sp)
 200a0f8:	18bfff17 	ldw	r2,-4(r3)
 200a0fc:	1d7fff04 	addi	r21,r3,-4
 200a100:	10000326 	beq	r2,zero,200a110 <__multiply+0x208>
 200a104:	00000706 	br	200a124 <__multiply+0x21c>
 200a108:	a8800017 	ldw	r2,0(r21)
 200a10c:	1000051e 	bne	r2,zero,200a124 <__multiply+0x21c>
 200a110:	d8c00117 	ldw	r3,4(sp)
 200a114:	ad7fff04 	addi	r21,r21,-4
 200a118:	18ffffc4 	addi	r3,r3,-1
 200a11c:	d8c00115 	stw	r3,4(sp)
 200a120:	183ff91e 	bne	r3,zero,200a108 <__alt_mem_epcs_flash_controller+0xfe001108>
 200a124:	d8800517 	ldw	r2,20(sp)
 200a128:	d8c00117 	ldw	r3,4(sp)
 200a12c:	10c00415 	stw	r3,16(r2)
 200a130:	dfc00f17 	ldw	ra,60(sp)
 200a134:	df000e17 	ldw	fp,56(sp)
 200a138:	ddc00d17 	ldw	r23,52(sp)
 200a13c:	dd800c17 	ldw	r22,48(sp)
 200a140:	dd400b17 	ldw	r21,44(sp)
 200a144:	dd000a17 	ldw	r20,40(sp)
 200a148:	dcc00917 	ldw	r19,36(sp)
 200a14c:	dc800817 	ldw	r18,32(sp)
 200a150:	dc400717 	ldw	r17,28(sp)
 200a154:	dc000617 	ldw	r16,24(sp)
 200a158:	dec01004 	addi	sp,sp,64
 200a15c:	f800283a 	ret

0200a160 <__pow5mult>:
 200a160:	defffb04 	addi	sp,sp,-20
 200a164:	dcc00315 	stw	r19,12(sp)
 200a168:	dc800215 	stw	r18,8(sp)
 200a16c:	dc000015 	stw	r16,0(sp)
 200a170:	dfc00415 	stw	ra,16(sp)
 200a174:	dc400115 	stw	r17,4(sp)
 200a178:	308000cc 	andi	r2,r6,3
 200a17c:	3021883a 	mov	r16,r6
 200a180:	2027883a 	mov	r19,r4
 200a184:	2825883a 	mov	r18,r5
 200a188:	10002e1e 	bne	r2,zero,200a244 <__pow5mult+0xe4>
 200a18c:	8021d0ba 	srai	r16,r16,2
 200a190:	80001a26 	beq	r16,zero,200a1fc <__pow5mult+0x9c>
 200a194:	9c401217 	ldw	r17,72(r19)
 200a198:	8800061e 	bne	r17,zero,200a1b4 <__pow5mult+0x54>
 200a19c:	00003406 	br	200a270 <__pow5mult+0x110>
 200a1a0:	8021d07a 	srai	r16,r16,1
 200a1a4:	80001526 	beq	r16,zero,200a1fc <__pow5mult+0x9c>
 200a1a8:	88c00017 	ldw	r3,0(r17)
 200a1ac:	18001b26 	beq	r3,zero,200a21c <__pow5mult+0xbc>
 200a1b0:	1823883a 	mov	r17,r3
 200a1b4:	80c0004c 	andi	r3,r16,1
 200a1b8:	183ff926 	beq	r3,zero,200a1a0 <__alt_mem_epcs_flash_controller+0xfe0011a0>
 200a1bc:	900b883a 	mov	r5,r18
 200a1c0:	880d883a 	mov	r6,r17
 200a1c4:	9809883a 	mov	r4,r19
 200a1c8:	2009f080 	call	2009f08 <__multiply>
 200a1cc:	90001b26 	beq	r18,zero,200a23c <__pow5mult+0xdc>
 200a1d0:	91000117 	ldw	r4,4(r18)
 200a1d4:	98c01317 	ldw	r3,76(r19)
 200a1d8:	8021d07a 	srai	r16,r16,1
 200a1dc:	2109883a 	add	r4,r4,r4
 200a1e0:	2109883a 	add	r4,r4,r4
 200a1e4:	1907883a 	add	r3,r3,r4
 200a1e8:	19000017 	ldw	r4,0(r3)
 200a1ec:	91000015 	stw	r4,0(r18)
 200a1f0:	1c800015 	stw	r18,0(r3)
 200a1f4:	1025883a 	mov	r18,r2
 200a1f8:	803feb1e 	bne	r16,zero,200a1a8 <__alt_mem_epcs_flash_controller+0xfe0011a8>
 200a1fc:	9005883a 	mov	r2,r18
 200a200:	dfc00417 	ldw	ra,16(sp)
 200a204:	dcc00317 	ldw	r19,12(sp)
 200a208:	dc800217 	ldw	r18,8(sp)
 200a20c:	dc400117 	ldw	r17,4(sp)
 200a210:	dc000017 	ldw	r16,0(sp)
 200a214:	dec00504 	addi	sp,sp,20
 200a218:	f800283a 	ret
 200a21c:	880b883a 	mov	r5,r17
 200a220:	880d883a 	mov	r6,r17
 200a224:	9809883a 	mov	r4,r19
 200a228:	2009f080 	call	2009f08 <__multiply>
 200a22c:	88800015 	stw	r2,0(r17)
 200a230:	10000015 	stw	zero,0(r2)
 200a234:	1023883a 	mov	r17,r2
 200a238:	003fde06 	br	200a1b4 <__alt_mem_epcs_flash_controller+0xfe0011b4>
 200a23c:	1025883a 	mov	r18,r2
 200a240:	003fd706 	br	200a1a0 <__alt_mem_epcs_flash_controller+0xfe0011a0>
 200a244:	10bfffc4 	addi	r2,r2,-1
 200a248:	1085883a 	add	r2,r2,r2
 200a24c:	00c08234 	movhi	r3,520
 200a250:	18ddd104 	addi	r3,r3,30532
 200a254:	1085883a 	add	r2,r2,r2
 200a258:	1885883a 	add	r2,r3,r2
 200a25c:	11800017 	ldw	r6,0(r2)
 200a260:	000f883a 	mov	r7,zero
 200a264:	2009b6c0 	call	2009b6c <__multadd>
 200a268:	1025883a 	mov	r18,r2
 200a26c:	003fc706 	br	200a18c <__alt_mem_epcs_flash_controller+0xfe00118c>
 200a270:	9809883a 	mov	r4,r19
 200a274:	01409c44 	movi	r5,625
 200a278:	2009ecc0 	call	2009ecc <__i2b>
 200a27c:	98801215 	stw	r2,72(r19)
 200a280:	1023883a 	mov	r17,r2
 200a284:	10000015 	stw	zero,0(r2)
 200a288:	003fca06 	br	200a1b4 <__alt_mem_epcs_flash_controller+0xfe0011b4>

0200a28c <__lshift>:
 200a28c:	defff904 	addi	sp,sp,-28
 200a290:	dd400515 	stw	r21,20(sp)
 200a294:	dc400115 	stw	r17,4(sp)
 200a298:	2d400417 	ldw	r21,16(r5)
 200a29c:	3023d17a 	srai	r17,r6,5
 200a2a0:	28800217 	ldw	r2,8(r5)
 200a2a4:	dd000415 	stw	r20,16(sp)
 200a2a8:	8d6b883a 	add	r21,r17,r21
 200a2ac:	dcc00315 	stw	r19,12(sp)
 200a2b0:	dc800215 	stw	r18,8(sp)
 200a2b4:	dc000015 	stw	r16,0(sp)
 200a2b8:	dfc00615 	stw	ra,24(sp)
 200a2bc:	ac000044 	addi	r16,r21,1
 200a2c0:	2825883a 	mov	r18,r5
 200a2c4:	3029883a 	mov	r20,r6
 200a2c8:	2027883a 	mov	r19,r4
 200a2cc:	29400117 	ldw	r5,4(r5)
 200a2d0:	1400030e 	bge	r2,r16,200a2e0 <__lshift+0x54>
 200a2d4:	1085883a 	add	r2,r2,r2
 200a2d8:	29400044 	addi	r5,r5,1
 200a2dc:	143ffd16 	blt	r2,r16,200a2d4 <__alt_mem_epcs_flash_controller+0xfe0012d4>
 200a2e0:	9809883a 	mov	r4,r19
 200a2e4:	2009a9c0 	call	2009a9c <_Balloc>
 200a2e8:	10c00504 	addi	r3,r2,20
 200a2ec:	0440090e 	bge	zero,r17,200a314 <__lshift+0x88>
 200a2f0:	000f883a 	mov	r7,zero
 200a2f4:	18000015 	stw	zero,0(r3)
 200a2f8:	39c00044 	addi	r7,r7,1
 200a2fc:	18c00104 	addi	r3,r3,4
 200a300:	3c7ffc1e 	bne	r7,r17,200a2f4 <__alt_mem_epcs_flash_controller+0xfe0012f4>
 200a304:	38c00144 	addi	r3,r7,5
 200a308:	18c7883a 	add	r3,r3,r3
 200a30c:	18c7883a 	add	r3,r3,r3
 200a310:	10c7883a 	add	r3,r2,r3
 200a314:	92000417 	ldw	r8,16(r18)
 200a318:	a18007cc 	andi	r6,r20,31
 200a31c:	91c00504 	addi	r7,r18,20
 200a320:	42000144 	addi	r8,r8,5
 200a324:	4211883a 	add	r8,r8,r8
 200a328:	4211883a 	add	r8,r8,r8
 200a32c:	9211883a 	add	r8,r18,r8
 200a330:	30002226 	beq	r6,zero,200a3bc <__lshift+0x130>
 200a334:	02800804 	movi	r10,32
 200a338:	5195c83a 	sub	r10,r10,r6
 200a33c:	000b883a 	mov	r5,zero
 200a340:	3a400017 	ldw	r9,0(r7)
 200a344:	18c00104 	addi	r3,r3,4
 200a348:	39c00104 	addi	r7,r7,4
 200a34c:	4992983a 	sll	r9,r9,r6
 200a350:	2a4ab03a 	or	r5,r5,r9
 200a354:	197fff15 	stw	r5,-4(r3)
 200a358:	397fff17 	ldw	r5,-4(r7)
 200a35c:	2a8ad83a 	srl	r5,r5,r10
 200a360:	3a3ff736 	bltu	r7,r8,200a340 <__alt_mem_epcs_flash_controller+0xfe001340>
 200a364:	19400015 	stw	r5,0(r3)
 200a368:	28000126 	beq	r5,zero,200a370 <__lshift+0xe4>
 200a36c:	ac000084 	addi	r16,r21,2
 200a370:	91000117 	ldw	r4,4(r18)
 200a374:	98c01317 	ldw	r3,76(r19)
 200a378:	843fffc4 	addi	r16,r16,-1
 200a37c:	2109883a 	add	r4,r4,r4
 200a380:	2109883a 	add	r4,r4,r4
 200a384:	1907883a 	add	r3,r3,r4
 200a388:	19000017 	ldw	r4,0(r3)
 200a38c:	14000415 	stw	r16,16(r2)
 200a390:	91000015 	stw	r4,0(r18)
 200a394:	1c800015 	stw	r18,0(r3)
 200a398:	dfc00617 	ldw	ra,24(sp)
 200a39c:	dd400517 	ldw	r21,20(sp)
 200a3a0:	dd000417 	ldw	r20,16(sp)
 200a3a4:	dcc00317 	ldw	r19,12(sp)
 200a3a8:	dc800217 	ldw	r18,8(sp)
 200a3ac:	dc400117 	ldw	r17,4(sp)
 200a3b0:	dc000017 	ldw	r16,0(sp)
 200a3b4:	dec00704 	addi	sp,sp,28
 200a3b8:	f800283a 	ret
 200a3bc:	39400017 	ldw	r5,0(r7)
 200a3c0:	18c00104 	addi	r3,r3,4
 200a3c4:	39c00104 	addi	r7,r7,4
 200a3c8:	197fff15 	stw	r5,-4(r3)
 200a3cc:	3a3fe82e 	bgeu	r7,r8,200a370 <__alt_mem_epcs_flash_controller+0xfe001370>
 200a3d0:	39400017 	ldw	r5,0(r7)
 200a3d4:	18c00104 	addi	r3,r3,4
 200a3d8:	39c00104 	addi	r7,r7,4
 200a3dc:	197fff15 	stw	r5,-4(r3)
 200a3e0:	3a3ff636 	bltu	r7,r8,200a3bc <__alt_mem_epcs_flash_controller+0xfe0013bc>
 200a3e4:	003fe206 	br	200a370 <__alt_mem_epcs_flash_controller+0xfe001370>

0200a3e8 <__mcmp>:
 200a3e8:	20800417 	ldw	r2,16(r4)
 200a3ec:	28c00417 	ldw	r3,16(r5)
 200a3f0:	10c5c83a 	sub	r2,r2,r3
 200a3f4:	10000f1e 	bne	r2,zero,200a434 <__mcmp+0x4c>
 200a3f8:	18c00144 	addi	r3,r3,5
 200a3fc:	18c7883a 	add	r3,r3,r3
 200a400:	18c7883a 	add	r3,r3,r3
 200a404:	21c00504 	addi	r7,r4,20
 200a408:	28cb883a 	add	r5,r5,r3
 200a40c:	20c9883a 	add	r4,r4,r3
 200a410:	213fff04 	addi	r4,r4,-4
 200a414:	297fff04 	addi	r5,r5,-4
 200a418:	21800017 	ldw	r6,0(r4)
 200a41c:	28c00017 	ldw	r3,0(r5)
 200a420:	30c0021e 	bne	r6,r3,200a42c <__mcmp+0x44>
 200a424:	393ffa36 	bltu	r7,r4,200a410 <__alt_mem_epcs_flash_controller+0xfe001410>
 200a428:	f800283a 	ret
 200a42c:	30c00236 	bltu	r6,r3,200a438 <__mcmp+0x50>
 200a430:	00800044 	movi	r2,1
 200a434:	f800283a 	ret
 200a438:	00bfffc4 	movi	r2,-1
 200a43c:	f800283a 	ret

0200a440 <__mdiff>:
 200a440:	defffb04 	addi	sp,sp,-20
 200a444:	dc000015 	stw	r16,0(sp)
 200a448:	2821883a 	mov	r16,r5
 200a44c:	dc800215 	stw	r18,8(sp)
 200a450:	300b883a 	mov	r5,r6
 200a454:	2025883a 	mov	r18,r4
 200a458:	8009883a 	mov	r4,r16
 200a45c:	dc400115 	stw	r17,4(sp)
 200a460:	dfc00415 	stw	ra,16(sp)
 200a464:	dcc00315 	stw	r19,12(sp)
 200a468:	3023883a 	mov	r17,r6
 200a46c:	200a3e80 	call	200a3e8 <__mcmp>
 200a470:	10005026 	beq	r2,zero,200a5b4 <__mdiff+0x174>
 200a474:	10004a16 	blt	r2,zero,200a5a0 <__mdiff+0x160>
 200a478:	0027883a 	mov	r19,zero
 200a47c:	81400117 	ldw	r5,4(r16)
 200a480:	9009883a 	mov	r4,r18
 200a484:	2009a9c0 	call	2009a9c <_Balloc>
 200a488:	82400417 	ldw	r9,16(r16)
 200a48c:	89800417 	ldw	r6,16(r17)
 200a490:	14c00315 	stw	r19,12(r2)
 200a494:	4b800144 	addi	r14,r9,5
 200a498:	31800144 	addi	r6,r6,5
 200a49c:	739d883a 	add	r14,r14,r14
 200a4a0:	318d883a 	add	r6,r6,r6
 200a4a4:	739d883a 	add	r14,r14,r14
 200a4a8:	318d883a 	add	r6,r6,r6
 200a4ac:	81c00504 	addi	r7,r16,20
 200a4b0:	839d883a 	add	r14,r16,r14
 200a4b4:	8a000504 	addi	r8,r17,20
 200a4b8:	898d883a 	add	r6,r17,r6
 200a4bc:	10c00504 	addi	r3,r2,20
 200a4c0:	0009883a 	mov	r4,zero
 200a4c4:	3b000017 	ldw	r12,0(r7)
 200a4c8:	42c00017 	ldw	r11,0(r8)
 200a4cc:	42000104 	addi	r8,r8,4
 200a4d0:	62bfffcc 	andi	r10,r12,65535
 200a4d4:	5b7fffcc 	andi	r13,r11,65535
 200a4d8:	5109883a 	add	r4,r10,r4
 200a4dc:	2355c83a 	sub	r10,r4,r13
 200a4e0:	5816d43a 	srli	r11,r11,16
 200a4e4:	6008d43a 	srli	r4,r12,16
 200a4e8:	501bd43a 	srai	r13,r10,16
 200a4ec:	1a80000d 	sth	r10,0(r3)
 200a4f0:	22c9c83a 	sub	r4,r4,r11
 200a4f4:	2349883a 	add	r4,r4,r13
 200a4f8:	1900008d 	sth	r4,2(r3)
 200a4fc:	39c00104 	addi	r7,r7,4
 200a500:	2009d43a 	srai	r4,r4,16
 200a504:	18c00104 	addi	r3,r3,4
 200a508:	41bfee36 	bltu	r8,r6,200a4c4 <__alt_mem_epcs_flash_controller+0xfe0014c4>
 200a50c:	180b883a 	mov	r5,r3
 200a510:	3815883a 	mov	r10,r7
 200a514:	3b80132e 	bgeu	r7,r14,200a564 <__mdiff+0x124>
 200a518:	3a000017 	ldw	r8,0(r7)
 200a51c:	18c00104 	addi	r3,r3,4
 200a520:	39c00104 	addi	r7,r7,4
 200a524:	41bfffcc 	andi	r6,r8,65535
 200a528:	310d883a 	add	r6,r6,r4
 200a52c:	3009d43a 	srai	r4,r6,16
 200a530:	4010d43a 	srli	r8,r8,16
 200a534:	19bfff0d 	sth	r6,-4(r3)
 200a538:	2209883a 	add	r4,r4,r8
 200a53c:	193fff8d 	sth	r4,-2(r3)
 200a540:	2009d43a 	srai	r4,r4,16
 200a544:	3bbff436 	bltu	r7,r14,200a518 <__alt_mem_epcs_flash_controller+0xfe001518>
 200a548:	0286303a 	nor	r3,zero,r10
 200a54c:	1b87883a 	add	r3,r3,r14
 200a550:	1806d0ba 	srli	r3,r3,2
 200a554:	18c00044 	addi	r3,r3,1
 200a558:	18c7883a 	add	r3,r3,r3
 200a55c:	18c7883a 	add	r3,r3,r3
 200a560:	28c7883a 	add	r3,r5,r3
 200a564:	193fff17 	ldw	r4,-4(r3)
 200a568:	18ffff04 	addi	r3,r3,-4
 200a56c:	2000041e 	bne	r4,zero,200a580 <__mdiff+0x140>
 200a570:	18ffff04 	addi	r3,r3,-4
 200a574:	19000017 	ldw	r4,0(r3)
 200a578:	4a7fffc4 	addi	r9,r9,-1
 200a57c:	203ffc26 	beq	r4,zero,200a570 <__alt_mem_epcs_flash_controller+0xfe001570>
 200a580:	12400415 	stw	r9,16(r2)
 200a584:	dfc00417 	ldw	ra,16(sp)
 200a588:	dcc00317 	ldw	r19,12(sp)
 200a58c:	dc800217 	ldw	r18,8(sp)
 200a590:	dc400117 	ldw	r17,4(sp)
 200a594:	dc000017 	ldw	r16,0(sp)
 200a598:	dec00504 	addi	sp,sp,20
 200a59c:	f800283a 	ret
 200a5a0:	8005883a 	mov	r2,r16
 200a5a4:	04c00044 	movi	r19,1
 200a5a8:	8821883a 	mov	r16,r17
 200a5ac:	1023883a 	mov	r17,r2
 200a5b0:	003fb206 	br	200a47c <__alt_mem_epcs_flash_controller+0xfe00147c>
 200a5b4:	9009883a 	mov	r4,r18
 200a5b8:	000b883a 	mov	r5,zero
 200a5bc:	2009a9c0 	call	2009a9c <_Balloc>
 200a5c0:	00c00044 	movi	r3,1
 200a5c4:	10c00415 	stw	r3,16(r2)
 200a5c8:	10000515 	stw	zero,20(r2)
 200a5cc:	dfc00417 	ldw	ra,16(sp)
 200a5d0:	dcc00317 	ldw	r19,12(sp)
 200a5d4:	dc800217 	ldw	r18,8(sp)
 200a5d8:	dc400117 	ldw	r17,4(sp)
 200a5dc:	dc000017 	ldw	r16,0(sp)
 200a5e0:	dec00504 	addi	sp,sp,20
 200a5e4:	f800283a 	ret

0200a5e8 <__ulp>:
 200a5e8:	295ffc2c 	andhi	r5,r5,32752
 200a5ec:	00bf3034 	movhi	r2,64704
 200a5f0:	2887883a 	add	r3,r5,r2
 200a5f4:	00c0020e 	bge	zero,r3,200a600 <__ulp+0x18>
 200a5f8:	0005883a 	mov	r2,zero
 200a5fc:	f800283a 	ret
 200a600:	00c7c83a 	sub	r3,zero,r3
 200a604:	1805d53a 	srai	r2,r3,20
 200a608:	00c004c4 	movi	r3,19
 200a60c:	18800a0e 	bge	r3,r2,200a638 <__ulp+0x50>
 200a610:	01000c84 	movi	r4,50
 200a614:	0007883a 	mov	r3,zero
 200a618:	20800516 	blt	r4,r2,200a630 <__ulp+0x48>
 200a61c:	01000cc4 	movi	r4,51
 200a620:	2085c83a 	sub	r2,r4,r2
 200a624:	01000044 	movi	r4,1
 200a628:	2084983a 	sll	r2,r4,r2
 200a62c:	f800283a 	ret
 200a630:	00800044 	movi	r2,1
 200a634:	f800283a 	ret
 200a638:	00c00234 	movhi	r3,8
 200a63c:	1887d83a 	sra	r3,r3,r2
 200a640:	0005883a 	mov	r2,zero
 200a644:	f800283a 	ret

0200a648 <__b2d>:
 200a648:	defffa04 	addi	sp,sp,-24
 200a64c:	dc000015 	stw	r16,0(sp)
 200a650:	24000417 	ldw	r16,16(r4)
 200a654:	dc400115 	stw	r17,4(sp)
 200a658:	dcc00315 	stw	r19,12(sp)
 200a65c:	84000144 	addi	r16,r16,5
 200a660:	8421883a 	add	r16,r16,r16
 200a664:	8421883a 	add	r16,r16,r16
 200a668:	2421883a 	add	r16,r4,r16
 200a66c:	847fff17 	ldw	r17,-4(r16)
 200a670:	24c00504 	addi	r19,r4,20
 200a674:	dd000415 	stw	r20,16(sp)
 200a678:	8809883a 	mov	r4,r17
 200a67c:	dc800215 	stw	r18,8(sp)
 200a680:	2829883a 	mov	r20,r5
 200a684:	dfc00515 	stw	ra,20(sp)
 200a688:	2009db40 	call	2009db4 <__hi0bits>
 200a68c:	00c00804 	movi	r3,32
 200a690:	1887c83a 	sub	r3,r3,r2
 200a694:	a0c00015 	stw	r3,0(r20)
 200a698:	00c00284 	movi	r3,10
 200a69c:	84bfff04 	addi	r18,r16,-4
 200a6a0:	18801216 	blt	r3,r2,200a6ec <__b2d+0xa4>
 200a6a4:	010002c4 	movi	r4,11
 200a6a8:	2089c83a 	sub	r4,r4,r2
 200a6ac:	8906d83a 	srl	r3,r17,r4
 200a6b0:	18cffc34 	orhi	r3,r3,16368
 200a6b4:	9c80322e 	bgeu	r19,r18,200a780 <__b2d+0x138>
 200a6b8:	817ffe17 	ldw	r5,-8(r16)
 200a6bc:	2908d83a 	srl	r4,r5,r4
 200a6c0:	10800544 	addi	r2,r2,21
 200a6c4:	88a2983a 	sll	r17,r17,r2
 200a6c8:	2444b03a 	or	r2,r4,r17
 200a6cc:	dfc00517 	ldw	ra,20(sp)
 200a6d0:	dd000417 	ldw	r20,16(sp)
 200a6d4:	dcc00317 	ldw	r19,12(sp)
 200a6d8:	dc800217 	ldw	r18,8(sp)
 200a6dc:	dc400117 	ldw	r17,4(sp)
 200a6e0:	dc000017 	ldw	r16,0(sp)
 200a6e4:	dec00604 	addi	sp,sp,24
 200a6e8:	f800283a 	ret
 200a6ec:	9c801636 	bltu	r19,r18,200a748 <__b2d+0x100>
 200a6f0:	113ffd44 	addi	r4,r2,-11
 200a6f4:	000b883a 	mov	r5,zero
 200a6f8:	20001726 	beq	r4,zero,200a758 <__b2d+0x110>
 200a6fc:	00c00ac4 	movi	r3,43
 200a700:	1885c83a 	sub	r2,r3,r2
 200a704:	8906983a 	sll	r3,r17,r4
 200a708:	288cd83a 	srl	r6,r5,r2
 200a70c:	18cffc34 	orhi	r3,r3,16368
 200a710:	1986b03a 	or	r3,r3,r6
 200a714:	9c801c2e 	bgeu	r19,r18,200a788 <__b2d+0x140>
 200a718:	91bfff17 	ldw	r6,-4(r18)
 200a71c:	3084d83a 	srl	r2,r6,r2
 200a720:	2908983a 	sll	r4,r5,r4
 200a724:	1104b03a 	or	r2,r2,r4
 200a728:	dfc00517 	ldw	ra,20(sp)
 200a72c:	dd000417 	ldw	r20,16(sp)
 200a730:	dcc00317 	ldw	r19,12(sp)
 200a734:	dc800217 	ldw	r18,8(sp)
 200a738:	dc400117 	ldw	r17,4(sp)
 200a73c:	dc000017 	ldw	r16,0(sp)
 200a740:	dec00604 	addi	sp,sp,24
 200a744:	f800283a 	ret
 200a748:	113ffd44 	addi	r4,r2,-11
 200a74c:	84bffe04 	addi	r18,r16,-8
 200a750:	817ffe17 	ldw	r5,-8(r16)
 200a754:	203fe91e 	bne	r4,zero,200a6fc <__alt_mem_epcs_flash_controller+0xfe0016fc>
 200a758:	88cffc34 	orhi	r3,r17,16368
 200a75c:	2805883a 	mov	r2,r5
 200a760:	dfc00517 	ldw	ra,20(sp)
 200a764:	dd000417 	ldw	r20,16(sp)
 200a768:	dcc00317 	ldw	r19,12(sp)
 200a76c:	dc800217 	ldw	r18,8(sp)
 200a770:	dc400117 	ldw	r17,4(sp)
 200a774:	dc000017 	ldw	r16,0(sp)
 200a778:	dec00604 	addi	sp,sp,24
 200a77c:	f800283a 	ret
 200a780:	0009883a 	mov	r4,zero
 200a784:	003fce06 	br	200a6c0 <__alt_mem_epcs_flash_controller+0xfe0016c0>
 200a788:	0005883a 	mov	r2,zero
 200a78c:	003fe406 	br	200a720 <__alt_mem_epcs_flash_controller+0xfe001720>

0200a790 <__d2b>:
 200a790:	defff804 	addi	sp,sp,-32
 200a794:	dc400315 	stw	r17,12(sp)
 200a798:	3023883a 	mov	r17,r6
 200a79c:	dc800415 	stw	r18,16(sp)
 200a7a0:	8824907a 	slli	r18,r17,1
 200a7a4:	dcc00515 	stw	r19,20(sp)
 200a7a8:	2827883a 	mov	r19,r5
 200a7ac:	9024d57a 	srli	r18,r18,21
 200a7b0:	01400044 	movi	r5,1
 200a7b4:	dd000615 	stw	r20,24(sp)
 200a7b8:	dc000215 	stw	r16,8(sp)
 200a7bc:	dfc00715 	stw	ra,28(sp)
 200a7c0:	3829883a 	mov	r20,r7
 200a7c4:	2009a9c0 	call	2009a9c <_Balloc>
 200a7c8:	1021883a 	mov	r16,r2
 200a7cc:	00800434 	movhi	r2,16
 200a7d0:	10bfffc4 	addi	r2,r2,-1
 200a7d4:	88a2703a 	and	r17,r17,r2
 200a7d8:	90000126 	beq	r18,zero,200a7e0 <__d2b+0x50>
 200a7dc:	8c400434 	orhi	r17,r17,16
 200a7e0:	dc400015 	stw	r17,0(sp)
 200a7e4:	98002226 	beq	r19,zero,200a870 <__d2b+0xe0>
 200a7e8:	d9000104 	addi	r4,sp,4
 200a7ec:	dcc00115 	stw	r19,4(sp)
 200a7f0:	2009e1c0 	call	2009e1c <__lo0bits>
 200a7f4:	d8c00017 	ldw	r3,0(sp)
 200a7f8:	10002d1e 	bne	r2,zero,200a8b0 <__d2b+0x120>
 200a7fc:	d9000117 	ldw	r4,4(sp)
 200a800:	81000515 	stw	r4,20(r16)
 200a804:	1823003a 	cmpeq	r17,r3,zero
 200a808:	01000084 	movi	r4,2
 200a80c:	2463c83a 	sub	r17,r4,r17
 200a810:	80c00615 	stw	r3,24(r16)
 200a814:	84400415 	stw	r17,16(r16)
 200a818:	90001d1e 	bne	r18,zero,200a890 <__d2b+0x100>
 200a81c:	88c00104 	addi	r3,r17,4
 200a820:	18c7883a 	add	r3,r3,r3
 200a824:	18c7883a 	add	r3,r3,r3
 200a828:	80c7883a 	add	r3,r16,r3
 200a82c:	19000017 	ldw	r4,0(r3)
 200a830:	10bef384 	addi	r2,r2,-1074
 200a834:	a0800015 	stw	r2,0(r20)
 200a838:	2009db40 	call	2009db4 <__hi0bits>
 200a83c:	8822917a 	slli	r17,r17,5
 200a840:	d8c00817 	ldw	r3,32(sp)
 200a844:	8885c83a 	sub	r2,r17,r2
 200a848:	18800015 	stw	r2,0(r3)
 200a84c:	8005883a 	mov	r2,r16
 200a850:	dfc00717 	ldw	ra,28(sp)
 200a854:	dd000617 	ldw	r20,24(sp)
 200a858:	dcc00517 	ldw	r19,20(sp)
 200a85c:	dc800417 	ldw	r18,16(sp)
 200a860:	dc400317 	ldw	r17,12(sp)
 200a864:	dc000217 	ldw	r16,8(sp)
 200a868:	dec00804 	addi	sp,sp,32
 200a86c:	f800283a 	ret
 200a870:	d809883a 	mov	r4,sp
 200a874:	2009e1c0 	call	2009e1c <__lo0bits>
 200a878:	d8c00017 	ldw	r3,0(sp)
 200a87c:	04400044 	movi	r17,1
 200a880:	84400415 	stw	r17,16(r16)
 200a884:	80c00515 	stw	r3,20(r16)
 200a888:	10800804 	addi	r2,r2,32
 200a88c:	903fe326 	beq	r18,zero,200a81c <__alt_mem_epcs_flash_controller+0xfe00181c>
 200a890:	00c00d44 	movi	r3,53
 200a894:	94bef344 	addi	r18,r18,-1075
 200a898:	90a5883a 	add	r18,r18,r2
 200a89c:	1885c83a 	sub	r2,r3,r2
 200a8a0:	d8c00817 	ldw	r3,32(sp)
 200a8a4:	a4800015 	stw	r18,0(r20)
 200a8a8:	18800015 	stw	r2,0(r3)
 200a8ac:	003fe706 	br	200a84c <__alt_mem_epcs_flash_controller+0xfe00184c>
 200a8b0:	01000804 	movi	r4,32
 200a8b4:	2089c83a 	sub	r4,r4,r2
 200a8b8:	1908983a 	sll	r4,r3,r4
 200a8bc:	d9400117 	ldw	r5,4(sp)
 200a8c0:	1886d83a 	srl	r3,r3,r2
 200a8c4:	2148b03a 	or	r4,r4,r5
 200a8c8:	81000515 	stw	r4,20(r16)
 200a8cc:	d8c00015 	stw	r3,0(sp)
 200a8d0:	003fcc06 	br	200a804 <__alt_mem_epcs_flash_controller+0xfe001804>

0200a8d4 <__ratio>:
 200a8d4:	defff904 	addi	sp,sp,-28
 200a8d8:	dc400315 	stw	r17,12(sp)
 200a8dc:	2823883a 	mov	r17,r5
 200a8e0:	d9400104 	addi	r5,sp,4
 200a8e4:	dfc00615 	stw	ra,24(sp)
 200a8e8:	dcc00515 	stw	r19,20(sp)
 200a8ec:	dc800415 	stw	r18,16(sp)
 200a8f0:	2027883a 	mov	r19,r4
 200a8f4:	dc000215 	stw	r16,8(sp)
 200a8f8:	200a6480 	call	200a648 <__b2d>
 200a8fc:	8809883a 	mov	r4,r17
 200a900:	d80b883a 	mov	r5,sp
 200a904:	1025883a 	mov	r18,r2
 200a908:	1821883a 	mov	r16,r3
 200a90c:	200a6480 	call	200a648 <__b2d>
 200a910:	99400417 	ldw	r5,16(r19)
 200a914:	89000417 	ldw	r4,16(r17)
 200a918:	d9800117 	ldw	r6,4(sp)
 200a91c:	2909c83a 	sub	r4,r5,r4
 200a920:	d9400017 	ldw	r5,0(sp)
 200a924:	2008917a 	slli	r4,r4,5
 200a928:	314bc83a 	sub	r5,r6,r5
 200a92c:	290b883a 	add	r5,r5,r4
 200a930:	01400e0e 	bge	zero,r5,200a96c <__ratio+0x98>
 200a934:	280a953a 	slli	r5,r5,20
 200a938:	2c21883a 	add	r16,r5,r16
 200a93c:	9009883a 	mov	r4,r18
 200a940:	800b883a 	mov	r5,r16
 200a944:	100d883a 	mov	r6,r2
 200a948:	180f883a 	mov	r7,r3
 200a94c:	20018a40 	call	20018a4 <__divdf3>
 200a950:	dfc00617 	ldw	ra,24(sp)
 200a954:	dcc00517 	ldw	r19,20(sp)
 200a958:	dc800417 	ldw	r18,16(sp)
 200a95c:	dc400317 	ldw	r17,12(sp)
 200a960:	dc000217 	ldw	r16,8(sp)
 200a964:	dec00704 	addi	sp,sp,28
 200a968:	f800283a 	ret
 200a96c:	280a953a 	slli	r5,r5,20
 200a970:	1947c83a 	sub	r3,r3,r5
 200a974:	003ff106 	br	200a93c <__alt_mem_epcs_flash_controller+0xfe00193c>

0200a978 <_mprec_log10>:
 200a978:	defffe04 	addi	sp,sp,-8
 200a97c:	dc000015 	stw	r16,0(sp)
 200a980:	dfc00115 	stw	ra,4(sp)
 200a984:	008005c4 	movi	r2,23
 200a988:	2021883a 	mov	r16,r4
 200a98c:	11000d0e 	bge	r2,r4,200a9c4 <_mprec_log10+0x4c>
 200a990:	0005883a 	mov	r2,zero
 200a994:	00cffc34 	movhi	r3,16368
 200a998:	843fffc4 	addi	r16,r16,-1
 200a99c:	1009883a 	mov	r4,r2
 200a9a0:	180b883a 	mov	r5,r3
 200a9a4:	000d883a 	mov	r6,zero
 200a9a8:	01d00934 	movhi	r7,16420
 200a9ac:	20015c00 	call	20015c0 <__muldf3>
 200a9b0:	803ff91e 	bne	r16,zero,200a998 <__alt_mem_epcs_flash_controller+0xfe001998>
 200a9b4:	dfc00117 	ldw	ra,4(sp)
 200a9b8:	dc000017 	ldw	r16,0(sp)
 200a9bc:	dec00204 	addi	sp,sp,8
 200a9c0:	f800283a 	ret
 200a9c4:	202090fa 	slli	r16,r4,3
 200a9c8:	00808234 	movhi	r2,520
 200a9cc:	109d9f04 	addi	r2,r2,30332
 200a9d0:	1421883a 	add	r16,r2,r16
 200a9d4:	80800017 	ldw	r2,0(r16)
 200a9d8:	80c00117 	ldw	r3,4(r16)
 200a9dc:	dfc00117 	ldw	ra,4(sp)
 200a9e0:	dc000017 	ldw	r16,0(sp)
 200a9e4:	dec00204 	addi	sp,sp,8
 200a9e8:	f800283a 	ret

0200a9ec <__copybits>:
 200a9ec:	297fffc4 	addi	r5,r5,-1
 200a9f0:	31c00417 	ldw	r7,16(r6)
 200a9f4:	2811d17a 	srai	r8,r5,5
 200a9f8:	30800504 	addi	r2,r6,20
 200a9fc:	39c00144 	addi	r7,r7,5
 200aa00:	42000044 	addi	r8,r8,1
 200aa04:	39cf883a 	add	r7,r7,r7
 200aa08:	4211883a 	add	r8,r8,r8
 200aa0c:	39cf883a 	add	r7,r7,r7
 200aa10:	4211883a 	add	r8,r8,r8
 200aa14:	31cf883a 	add	r7,r6,r7
 200aa18:	2211883a 	add	r8,r4,r8
 200aa1c:	11c00d2e 	bgeu	r2,r7,200aa54 <__copybits+0x68>
 200aa20:	2007883a 	mov	r3,r4
 200aa24:	11400017 	ldw	r5,0(r2)
 200aa28:	18c00104 	addi	r3,r3,4
 200aa2c:	10800104 	addi	r2,r2,4
 200aa30:	197fff15 	stw	r5,-4(r3)
 200aa34:	11fffb36 	bltu	r2,r7,200aa24 <__alt_mem_epcs_flash_controller+0xfe001a24>
 200aa38:	3985c83a 	sub	r2,r7,r6
 200aa3c:	10bffac4 	addi	r2,r2,-21
 200aa40:	1004d0ba 	srli	r2,r2,2
 200aa44:	10800044 	addi	r2,r2,1
 200aa48:	1085883a 	add	r2,r2,r2
 200aa4c:	1085883a 	add	r2,r2,r2
 200aa50:	2089883a 	add	r4,r4,r2
 200aa54:	2200032e 	bgeu	r4,r8,200aa64 <__copybits+0x78>
 200aa58:	20000015 	stw	zero,0(r4)
 200aa5c:	21000104 	addi	r4,r4,4
 200aa60:	223ffd36 	bltu	r4,r8,200aa58 <__alt_mem_epcs_flash_controller+0xfe001a58>
 200aa64:	f800283a 	ret

0200aa68 <__any_on>:
 200aa68:	21800417 	ldw	r6,16(r4)
 200aa6c:	2805d17a 	srai	r2,r5,5
 200aa70:	20c00504 	addi	r3,r4,20
 200aa74:	30800f0e 	bge	r6,r2,200aab4 <__any_on+0x4c>
 200aa78:	3005883a 	mov	r2,r6
 200aa7c:	10800144 	addi	r2,r2,5
 200aa80:	1085883a 	add	r2,r2,r2
 200aa84:	1085883a 	add	r2,r2,r2
 200aa88:	2089883a 	add	r4,r4,r2
 200aa8c:	1900152e 	bgeu	r3,r4,200aae4 <__any_on+0x7c>
 200aa90:	20bfff17 	ldw	r2,-4(r4)
 200aa94:	213fff04 	addi	r4,r4,-4
 200aa98:	1000041e 	bne	r2,zero,200aaac <__any_on+0x44>
 200aa9c:	1900112e 	bgeu	r3,r4,200aae4 <__any_on+0x7c>
 200aaa0:	213fff04 	addi	r4,r4,-4
 200aaa4:	20800017 	ldw	r2,0(r4)
 200aaa8:	103ffc26 	beq	r2,zero,200aa9c <__alt_mem_epcs_flash_controller+0xfe001a9c>
 200aaac:	00800044 	movi	r2,1
 200aab0:	f800283a 	ret
 200aab4:	11bff10e 	bge	r2,r6,200aa7c <__alt_mem_epcs_flash_controller+0xfe001a7c>
 200aab8:	294007cc 	andi	r5,r5,31
 200aabc:	283fef26 	beq	r5,zero,200aa7c <__alt_mem_epcs_flash_controller+0xfe001a7c>
 200aac0:	11800144 	addi	r6,r2,5
 200aac4:	318d883a 	add	r6,r6,r6
 200aac8:	318d883a 	add	r6,r6,r6
 200aacc:	218d883a 	add	r6,r4,r6
 200aad0:	31800017 	ldw	r6,0(r6)
 200aad4:	314ed83a 	srl	r7,r6,r5
 200aad8:	394a983a 	sll	r5,r7,r5
 200aadc:	29bff31e 	bne	r5,r6,200aaac <__alt_mem_epcs_flash_controller+0xfe001aac>
 200aae0:	003fe606 	br	200aa7c <__alt_mem_epcs_flash_controller+0xfe001a7c>
 200aae4:	0005883a 	mov	r2,zero
 200aae8:	f800283a 	ret

0200aaec <_read_r>:
 200aaec:	defffd04 	addi	sp,sp,-12
 200aaf0:	dc400115 	stw	r17,4(sp)
 200aaf4:	dc000015 	stw	r16,0(sp)
 200aaf8:	2023883a 	mov	r17,r4
 200aafc:	04008274 	movhi	r16,521
 200ab00:	842cc804 	addi	r16,r16,-19680
 200ab04:	2809883a 	mov	r4,r5
 200ab08:	300b883a 	mov	r5,r6
 200ab0c:	380d883a 	mov	r6,r7
 200ab10:	dfc00215 	stw	ra,8(sp)
 200ab14:	80000015 	stw	zero,0(r16)
 200ab18:	201096c0 	call	201096c <read>
 200ab1c:	00ffffc4 	movi	r3,-1
 200ab20:	10c00526 	beq	r2,r3,200ab38 <_read_r+0x4c>
 200ab24:	dfc00217 	ldw	ra,8(sp)
 200ab28:	dc400117 	ldw	r17,4(sp)
 200ab2c:	dc000017 	ldw	r16,0(sp)
 200ab30:	dec00304 	addi	sp,sp,12
 200ab34:	f800283a 	ret
 200ab38:	80c00017 	ldw	r3,0(r16)
 200ab3c:	183ff926 	beq	r3,zero,200ab24 <__alt_mem_epcs_flash_controller+0xfe001b24>
 200ab40:	88c00015 	stw	r3,0(r17)
 200ab44:	dfc00217 	ldw	ra,8(sp)
 200ab48:	dc400117 	ldw	r17,4(sp)
 200ab4c:	dc000017 	ldw	r16,0(sp)
 200ab50:	dec00304 	addi	sp,sp,12
 200ab54:	f800283a 	ret

0200ab58 <_realloc_r>:
 200ab58:	defff504 	addi	sp,sp,-44
 200ab5c:	dd400615 	stw	r21,24(sp)
 200ab60:	dc800315 	stw	r18,12(sp)
 200ab64:	dc000115 	stw	r16,4(sp)
 200ab68:	dfc00a15 	stw	ra,40(sp)
 200ab6c:	df000915 	stw	fp,36(sp)
 200ab70:	ddc00815 	stw	r23,32(sp)
 200ab74:	dd800715 	stw	r22,28(sp)
 200ab78:	dd000515 	stw	r20,20(sp)
 200ab7c:	dcc00415 	stw	r19,16(sp)
 200ab80:	dc400215 	stw	r17,8(sp)
 200ab84:	2821883a 	mov	r16,r5
 200ab88:	202b883a 	mov	r21,r4
 200ab8c:	3025883a 	mov	r18,r6
 200ab90:	28009626 	beq	r5,zero,200adec <_realloc_r+0x294>
 200ab94:	20108dc0 	call	20108dc <__malloc_lock>
 200ab98:	80bfff17 	ldw	r2,-4(r16)
 200ab9c:	04ffff04 	movi	r19,-4
 200aba0:	90c002c4 	addi	r3,r18,11
 200aba4:	01000584 	movi	r4,22
 200aba8:	85bffe04 	addi	r22,r16,-8
 200abac:	14e6703a 	and	r19,r2,r19
 200abb0:	20c0372e 	bgeu	r4,r3,200ac90 <_realloc_r+0x138>
 200abb4:	047ffe04 	movi	r17,-8
 200abb8:	1c62703a 	and	r17,r3,r17
 200abbc:	8807883a 	mov	r3,r17
 200abc0:	88005a16 	blt	r17,zero,200ad2c <_realloc_r+0x1d4>
 200abc4:	8c805936 	bltu	r17,r18,200ad2c <_realloc_r+0x1d4>
 200abc8:	98c0340e 	bge	r19,r3,200ac9c <_realloc_r+0x144>
 200abcc:	07008234 	movhi	fp,520
 200abd0:	e71f5b04 	addi	fp,fp,32108
 200abd4:	e1400217 	ldw	r5,8(fp)
 200abd8:	b4c9883a 	add	r4,r22,r19
 200abdc:	29009026 	beq	r5,r4,200ae20 <_realloc_r+0x2c8>
 200abe0:	21800117 	ldw	r6,4(r4)
 200abe4:	01ffff84 	movi	r7,-2
 200abe8:	31ce703a 	and	r7,r6,r7
 200abec:	21cf883a 	add	r7,r4,r7
 200abf0:	39c00117 	ldw	r7,4(r7)
 200abf4:	39c0004c 	andi	r7,r7,1
 200abf8:	38004326 	beq	r7,zero,200ad08 <_realloc_r+0x1b0>
 200abfc:	000d883a 	mov	r6,zero
 200ac00:	0009883a 	mov	r4,zero
 200ac04:	1080004c 	andi	r2,r2,1
 200ac08:	10005a1e 	bne	r2,zero,200ad74 <_realloc_r+0x21c>
 200ac0c:	85fffe17 	ldw	r23,-8(r16)
 200ac10:	00bfff04 	movi	r2,-4
 200ac14:	b5efc83a 	sub	r23,r22,r23
 200ac18:	b9c00117 	ldw	r7,4(r23)
 200ac1c:	388e703a 	and	r7,r7,r2
 200ac20:	3ccf883a 	add	r7,r7,r19
 200ac24:	20005226 	beq	r4,zero,200ad70 <_realloc_r+0x218>
 200ac28:	31e9883a 	add	r20,r6,r7
 200ac2c:	2140c726 	beq	r4,r5,200af4c <_realloc_r+0x3f4>
 200ac30:	a0c04f16 	blt	r20,r3,200ad70 <_realloc_r+0x218>
 200ac34:	20800317 	ldw	r2,12(r4)
 200ac38:	20c00217 	ldw	r3,8(r4)
 200ac3c:	99bfff04 	addi	r6,r19,-4
 200ac40:	01000904 	movi	r4,36
 200ac44:	18800315 	stw	r2,12(r3)
 200ac48:	10c00215 	stw	r3,8(r2)
 200ac4c:	b8c00217 	ldw	r3,8(r23)
 200ac50:	b8800317 	ldw	r2,12(r23)
 200ac54:	bc800204 	addi	r18,r23,8
 200ac58:	18800315 	stw	r2,12(r3)
 200ac5c:	10c00215 	stw	r3,8(r2)
 200ac60:	2180ed36 	bltu	r4,r6,200b018 <_realloc_r+0x4c0>
 200ac64:	008004c4 	movi	r2,19
 200ac68:	11809b2e 	bgeu	r2,r6,200aed8 <_realloc_r+0x380>
 200ac6c:	80800017 	ldw	r2,0(r16)
 200ac70:	b8800215 	stw	r2,8(r23)
 200ac74:	80800117 	ldw	r2,4(r16)
 200ac78:	b8800315 	stw	r2,12(r23)
 200ac7c:	008006c4 	movi	r2,27
 200ac80:	1180f936 	bltu	r2,r6,200b068 <_realloc_r+0x510>
 200ac84:	b8800404 	addi	r2,r23,16
 200ac88:	80c00204 	addi	r3,r16,8
 200ac8c:	00009406 	br	200aee0 <_realloc_r+0x388>
 200ac90:	00c00404 	movi	r3,16
 200ac94:	1823883a 	mov	r17,r3
 200ac98:	003fca06 	br	200abc4 <__alt_mem_epcs_flash_controller+0xfe001bc4>
 200ac9c:	9829883a 	mov	r20,r19
 200aca0:	a447c83a 	sub	r3,r20,r17
 200aca4:	010003c4 	movi	r4,15
 200aca8:	1080004c 	andi	r2,r2,1
 200acac:	20c02336 	bltu	r4,r3,200ad3c <_realloc_r+0x1e4>
 200acb0:	1504b03a 	or	r2,r2,r20
 200acb4:	b0800115 	stw	r2,4(r22)
 200acb8:	b52d883a 	add	r22,r22,r20
 200acbc:	b0800117 	ldw	r2,4(r22)
 200acc0:	10800054 	ori	r2,r2,1
 200acc4:	b0800115 	stw	r2,4(r22)
 200acc8:	a809883a 	mov	r4,r21
 200accc:	20108fc0 	call	20108fc <__malloc_unlock>
 200acd0:	8025883a 	mov	r18,r16
 200acd4:	9005883a 	mov	r2,r18
 200acd8:	dfc00a17 	ldw	ra,40(sp)
 200acdc:	df000917 	ldw	fp,36(sp)
 200ace0:	ddc00817 	ldw	r23,32(sp)
 200ace4:	dd800717 	ldw	r22,28(sp)
 200ace8:	dd400617 	ldw	r21,24(sp)
 200acec:	dd000517 	ldw	r20,20(sp)
 200acf0:	dcc00417 	ldw	r19,16(sp)
 200acf4:	dc800317 	ldw	r18,12(sp)
 200acf8:	dc400217 	ldw	r17,8(sp)
 200acfc:	dc000117 	ldw	r16,4(sp)
 200ad00:	dec00b04 	addi	sp,sp,44
 200ad04:	f800283a 	ret
 200ad08:	01ffff04 	movi	r7,-4
 200ad0c:	31cc703a 	and	r6,r6,r7
 200ad10:	34e9883a 	add	r20,r6,r19
 200ad14:	a0ffbb16 	blt	r20,r3,200ac04 <__alt_mem_epcs_flash_controller+0xfe001c04>
 200ad18:	20c00317 	ldw	r3,12(r4)
 200ad1c:	21000217 	ldw	r4,8(r4)
 200ad20:	20c00315 	stw	r3,12(r4)
 200ad24:	19000215 	stw	r4,8(r3)
 200ad28:	003fdd06 	br	200aca0 <__alt_mem_epcs_flash_controller+0xfe001ca0>
 200ad2c:	00800304 	movi	r2,12
 200ad30:	a8800015 	stw	r2,0(r21)
 200ad34:	0025883a 	mov	r18,zero
 200ad38:	003fe606 	br	200acd4 <__alt_mem_epcs_flash_controller+0xfe001cd4>
 200ad3c:	1444b03a 	or	r2,r2,r17
 200ad40:	b0800115 	stw	r2,4(r22)
 200ad44:	b44b883a 	add	r5,r22,r17
 200ad48:	18800054 	ori	r2,r3,1
 200ad4c:	28800115 	stw	r2,4(r5)
 200ad50:	28c7883a 	add	r3,r5,r3
 200ad54:	18800117 	ldw	r2,4(r3)
 200ad58:	a809883a 	mov	r4,r21
 200ad5c:	29400204 	addi	r5,r5,8
 200ad60:	10800054 	ori	r2,r2,1
 200ad64:	18800115 	stw	r2,4(r3)
 200ad68:	2008b140 	call	2008b14 <_free_r>
 200ad6c:	003fd606 	br	200acc8 <__alt_mem_epcs_flash_controller+0xfe001cc8>
 200ad70:	38c0330e 	bge	r7,r3,200ae40 <_realloc_r+0x2e8>
 200ad74:	900b883a 	mov	r5,r18
 200ad78:	a809883a 	mov	r4,r21
 200ad7c:	20029180 	call	2002918 <_malloc_r>
 200ad80:	1025883a 	mov	r18,r2
 200ad84:	10001626 	beq	r2,zero,200ade0 <_realloc_r+0x288>
 200ad88:	80bfff17 	ldw	r2,-4(r16)
 200ad8c:	00ffff84 	movi	r3,-2
 200ad90:	913ffe04 	addi	r4,r18,-8
 200ad94:	10c6703a 	and	r3,r2,r3
 200ad98:	b0c7883a 	add	r3,r22,r3
 200ad9c:	20c09926 	beq	r4,r3,200b004 <_realloc_r+0x4ac>
 200ada0:	99bfff04 	addi	r6,r19,-4
 200ada4:	00800904 	movi	r2,36
 200ada8:	11806436 	bltu	r2,r6,200af3c <_realloc_r+0x3e4>
 200adac:	00c004c4 	movi	r3,19
 200adb0:	19804036 	bltu	r3,r6,200aeb4 <_realloc_r+0x35c>
 200adb4:	9005883a 	mov	r2,r18
 200adb8:	8007883a 	mov	r3,r16
 200adbc:	19000017 	ldw	r4,0(r3)
 200adc0:	11000015 	stw	r4,0(r2)
 200adc4:	19000117 	ldw	r4,4(r3)
 200adc8:	11000115 	stw	r4,4(r2)
 200adcc:	18c00217 	ldw	r3,8(r3)
 200add0:	10c00215 	stw	r3,8(r2)
 200add4:	a809883a 	mov	r4,r21
 200add8:	800b883a 	mov	r5,r16
 200addc:	2008b140 	call	2008b14 <_free_r>
 200ade0:	a809883a 	mov	r4,r21
 200ade4:	20108fc0 	call	20108fc <__malloc_unlock>
 200ade8:	003fba06 	br	200acd4 <__alt_mem_epcs_flash_controller+0xfe001cd4>
 200adec:	300b883a 	mov	r5,r6
 200adf0:	dfc00a17 	ldw	ra,40(sp)
 200adf4:	df000917 	ldw	fp,36(sp)
 200adf8:	ddc00817 	ldw	r23,32(sp)
 200adfc:	dd800717 	ldw	r22,28(sp)
 200ae00:	dd400617 	ldw	r21,24(sp)
 200ae04:	dd000517 	ldw	r20,20(sp)
 200ae08:	dcc00417 	ldw	r19,16(sp)
 200ae0c:	dc800317 	ldw	r18,12(sp)
 200ae10:	dc400217 	ldw	r17,8(sp)
 200ae14:	dc000117 	ldw	r16,4(sp)
 200ae18:	dec00b04 	addi	sp,sp,44
 200ae1c:	20029181 	jmpi	2002918 <_malloc_r>
 200ae20:	29800117 	ldw	r6,4(r5)
 200ae24:	013fff04 	movi	r4,-4
 200ae28:	89c00404 	addi	r7,r17,16
 200ae2c:	310c703a 	and	r6,r6,r4
 200ae30:	34c9883a 	add	r4,r6,r19
 200ae34:	21c0340e 	bge	r4,r7,200af08 <_realloc_r+0x3b0>
 200ae38:	2809883a 	mov	r4,r5
 200ae3c:	003f7106 	br	200ac04 <__alt_mem_epcs_flash_controller+0xfe001c04>
 200ae40:	b8800317 	ldw	r2,12(r23)
 200ae44:	b8c00217 	ldw	r3,8(r23)
 200ae48:	99bfff04 	addi	r6,r19,-4
 200ae4c:	01000904 	movi	r4,36
 200ae50:	18800315 	stw	r2,12(r3)
 200ae54:	10c00215 	stw	r3,8(r2)
 200ae58:	bc800204 	addi	r18,r23,8
 200ae5c:	21807836 	bltu	r4,r6,200b040 <_realloc_r+0x4e8>
 200ae60:	008004c4 	movi	r2,19
 200ae64:	1180732e 	bgeu	r2,r6,200b034 <_realloc_r+0x4dc>
 200ae68:	80800017 	ldw	r2,0(r16)
 200ae6c:	b8800215 	stw	r2,8(r23)
 200ae70:	80800117 	ldw	r2,4(r16)
 200ae74:	b8800315 	stw	r2,12(r23)
 200ae78:	008006c4 	movi	r2,27
 200ae7c:	11808936 	bltu	r2,r6,200b0a4 <_realloc_r+0x54c>
 200ae80:	b8800404 	addi	r2,r23,16
 200ae84:	80c00204 	addi	r3,r16,8
 200ae88:	19000017 	ldw	r4,0(r3)
 200ae8c:	9021883a 	mov	r16,r18
 200ae90:	3829883a 	mov	r20,r7
 200ae94:	11000015 	stw	r4,0(r2)
 200ae98:	19000117 	ldw	r4,4(r3)
 200ae9c:	b82d883a 	mov	r22,r23
 200aea0:	11000115 	stw	r4,4(r2)
 200aea4:	18c00217 	ldw	r3,8(r3)
 200aea8:	10c00215 	stw	r3,8(r2)
 200aeac:	b8800117 	ldw	r2,4(r23)
 200aeb0:	003f7b06 	br	200aca0 <__alt_mem_epcs_flash_controller+0xfe001ca0>
 200aeb4:	80c00017 	ldw	r3,0(r16)
 200aeb8:	90c00015 	stw	r3,0(r18)
 200aebc:	80c00117 	ldw	r3,4(r16)
 200aec0:	90c00115 	stw	r3,4(r18)
 200aec4:	00c006c4 	movi	r3,27
 200aec8:	19804636 	bltu	r3,r6,200afe4 <_realloc_r+0x48c>
 200aecc:	90800204 	addi	r2,r18,8
 200aed0:	80c00204 	addi	r3,r16,8
 200aed4:	003fb906 	br	200adbc <__alt_mem_epcs_flash_controller+0xfe001dbc>
 200aed8:	9005883a 	mov	r2,r18
 200aedc:	8007883a 	mov	r3,r16
 200aee0:	19000017 	ldw	r4,0(r3)
 200aee4:	9021883a 	mov	r16,r18
 200aee8:	b82d883a 	mov	r22,r23
 200aeec:	11000015 	stw	r4,0(r2)
 200aef0:	19000117 	ldw	r4,4(r3)
 200aef4:	11000115 	stw	r4,4(r2)
 200aef8:	18c00217 	ldw	r3,8(r3)
 200aefc:	10c00215 	stw	r3,8(r2)
 200af00:	b8800117 	ldw	r2,4(r23)
 200af04:	003f6606 	br	200aca0 <__alt_mem_epcs_flash_controller+0xfe001ca0>
 200af08:	2445c83a 	sub	r2,r4,r17
 200af0c:	b46d883a 	add	r22,r22,r17
 200af10:	10800054 	ori	r2,r2,1
 200af14:	b0800115 	stw	r2,4(r22)
 200af18:	80bfff17 	ldw	r2,-4(r16)
 200af1c:	a809883a 	mov	r4,r21
 200af20:	e5800215 	stw	r22,8(fp)
 200af24:	1080004c 	andi	r2,r2,1
 200af28:	88a2b03a 	or	r17,r17,r2
 200af2c:	847fff15 	stw	r17,-4(r16)
 200af30:	20108fc0 	call	20108fc <__malloc_unlock>
 200af34:	8025883a 	mov	r18,r16
 200af38:	003f6606 	br	200acd4 <__alt_mem_epcs_flash_controller+0xfe001cd4>
 200af3c:	9009883a 	mov	r4,r18
 200af40:	800b883a 	mov	r5,r16
 200af44:	20099100 	call	2009910 <memmove>
 200af48:	003fa206 	br	200add4 <__alt_mem_epcs_flash_controller+0xfe001dd4>
 200af4c:	88800404 	addi	r2,r17,16
 200af50:	a0bf8716 	blt	r20,r2,200ad70 <__alt_mem_epcs_flash_controller+0xfe001d70>
 200af54:	b8800317 	ldw	r2,12(r23)
 200af58:	b8c00217 	ldw	r3,8(r23)
 200af5c:	99bfff04 	addi	r6,r19,-4
 200af60:	01000904 	movi	r4,36
 200af64:	18800315 	stw	r2,12(r3)
 200af68:	10c00215 	stw	r3,8(r2)
 200af6c:	bc800204 	addi	r18,r23,8
 200af70:	21806536 	bltu	r4,r6,200b108 <_realloc_r+0x5b0>
 200af74:	008004c4 	movi	r2,19
 200af78:	1180592e 	bgeu	r2,r6,200b0e0 <_realloc_r+0x588>
 200af7c:	80800017 	ldw	r2,0(r16)
 200af80:	b8800215 	stw	r2,8(r23)
 200af84:	80800117 	ldw	r2,4(r16)
 200af88:	b8800315 	stw	r2,12(r23)
 200af8c:	008006c4 	movi	r2,27
 200af90:	11806136 	bltu	r2,r6,200b118 <_realloc_r+0x5c0>
 200af94:	b8800404 	addi	r2,r23,16
 200af98:	80c00204 	addi	r3,r16,8
 200af9c:	19000017 	ldw	r4,0(r3)
 200afa0:	11000015 	stw	r4,0(r2)
 200afa4:	19000117 	ldw	r4,4(r3)
 200afa8:	11000115 	stw	r4,4(r2)
 200afac:	18c00217 	ldw	r3,8(r3)
 200afb0:	10c00215 	stw	r3,8(r2)
 200afb4:	a447c83a 	sub	r3,r20,r17
 200afb8:	bc45883a 	add	r2,r23,r17
 200afbc:	18c00054 	ori	r3,r3,1
 200afc0:	10c00115 	stw	r3,4(r2)
 200afc4:	b8c00117 	ldw	r3,4(r23)
 200afc8:	e0800215 	stw	r2,8(fp)
 200afcc:	a809883a 	mov	r4,r21
 200afd0:	1880004c 	andi	r2,r3,1
 200afd4:	88a2b03a 	or	r17,r17,r2
 200afd8:	bc400115 	stw	r17,4(r23)
 200afdc:	20108fc0 	call	20108fc <__malloc_unlock>
 200afe0:	003f3c06 	br	200acd4 <__alt_mem_epcs_flash_controller+0xfe001cd4>
 200afe4:	80c00217 	ldw	r3,8(r16)
 200afe8:	90c00215 	stw	r3,8(r18)
 200afec:	80c00317 	ldw	r3,12(r16)
 200aff0:	90c00315 	stw	r3,12(r18)
 200aff4:	30802426 	beq	r6,r2,200b088 <_realloc_r+0x530>
 200aff8:	90800404 	addi	r2,r18,16
 200affc:	80c00404 	addi	r3,r16,16
 200b000:	003f6e06 	br	200adbc <__alt_mem_epcs_flash_controller+0xfe001dbc>
 200b004:	953fff17 	ldw	r20,-4(r18)
 200b008:	00ffff04 	movi	r3,-4
 200b00c:	a0e8703a 	and	r20,r20,r3
 200b010:	a4e9883a 	add	r20,r20,r19
 200b014:	003f2206 	br	200aca0 <__alt_mem_epcs_flash_controller+0xfe001ca0>
 200b018:	800b883a 	mov	r5,r16
 200b01c:	9009883a 	mov	r4,r18
 200b020:	20099100 	call	2009910 <memmove>
 200b024:	9021883a 	mov	r16,r18
 200b028:	b8800117 	ldw	r2,4(r23)
 200b02c:	b82d883a 	mov	r22,r23
 200b030:	003f1b06 	br	200aca0 <__alt_mem_epcs_flash_controller+0xfe001ca0>
 200b034:	9005883a 	mov	r2,r18
 200b038:	8007883a 	mov	r3,r16
 200b03c:	003f9206 	br	200ae88 <__alt_mem_epcs_flash_controller+0xfe001e88>
 200b040:	800b883a 	mov	r5,r16
 200b044:	9009883a 	mov	r4,r18
 200b048:	d9c00015 	stw	r7,0(sp)
 200b04c:	20099100 	call	2009910 <memmove>
 200b050:	d9c00017 	ldw	r7,0(sp)
 200b054:	9021883a 	mov	r16,r18
 200b058:	b8800117 	ldw	r2,4(r23)
 200b05c:	3829883a 	mov	r20,r7
 200b060:	b82d883a 	mov	r22,r23
 200b064:	003f0e06 	br	200aca0 <__alt_mem_epcs_flash_controller+0xfe001ca0>
 200b068:	80800217 	ldw	r2,8(r16)
 200b06c:	b8800415 	stw	r2,16(r23)
 200b070:	80800317 	ldw	r2,12(r16)
 200b074:	b8800515 	stw	r2,20(r23)
 200b078:	31001226 	beq	r6,r4,200b0c4 <_realloc_r+0x56c>
 200b07c:	b8800604 	addi	r2,r23,24
 200b080:	80c00404 	addi	r3,r16,16
 200b084:	003f9606 	br	200aee0 <__alt_mem_epcs_flash_controller+0xfe001ee0>
 200b088:	81000417 	ldw	r4,16(r16)
 200b08c:	90800604 	addi	r2,r18,24
 200b090:	80c00604 	addi	r3,r16,24
 200b094:	91000415 	stw	r4,16(r18)
 200b098:	81000517 	ldw	r4,20(r16)
 200b09c:	91000515 	stw	r4,20(r18)
 200b0a0:	003f4606 	br	200adbc <__alt_mem_epcs_flash_controller+0xfe001dbc>
 200b0a4:	80800217 	ldw	r2,8(r16)
 200b0a8:	b8800415 	stw	r2,16(r23)
 200b0ac:	80800317 	ldw	r2,12(r16)
 200b0b0:	b8800515 	stw	r2,20(r23)
 200b0b4:	31000d26 	beq	r6,r4,200b0ec <_realloc_r+0x594>
 200b0b8:	b8800604 	addi	r2,r23,24
 200b0bc:	80c00404 	addi	r3,r16,16
 200b0c0:	003f7106 	br	200ae88 <__alt_mem_epcs_flash_controller+0xfe001e88>
 200b0c4:	81000417 	ldw	r4,16(r16)
 200b0c8:	b8800804 	addi	r2,r23,32
 200b0cc:	80c00604 	addi	r3,r16,24
 200b0d0:	b9000615 	stw	r4,24(r23)
 200b0d4:	81000517 	ldw	r4,20(r16)
 200b0d8:	b9000715 	stw	r4,28(r23)
 200b0dc:	003f8006 	br	200aee0 <__alt_mem_epcs_flash_controller+0xfe001ee0>
 200b0e0:	9005883a 	mov	r2,r18
 200b0e4:	8007883a 	mov	r3,r16
 200b0e8:	003fac06 	br	200af9c <__alt_mem_epcs_flash_controller+0xfe001f9c>
 200b0ec:	81000417 	ldw	r4,16(r16)
 200b0f0:	b8800804 	addi	r2,r23,32
 200b0f4:	80c00604 	addi	r3,r16,24
 200b0f8:	b9000615 	stw	r4,24(r23)
 200b0fc:	81000517 	ldw	r4,20(r16)
 200b100:	b9000715 	stw	r4,28(r23)
 200b104:	003f6006 	br	200ae88 <__alt_mem_epcs_flash_controller+0xfe001e88>
 200b108:	9009883a 	mov	r4,r18
 200b10c:	800b883a 	mov	r5,r16
 200b110:	20099100 	call	2009910 <memmove>
 200b114:	003fa706 	br	200afb4 <__alt_mem_epcs_flash_controller+0xfe001fb4>
 200b118:	80800217 	ldw	r2,8(r16)
 200b11c:	b8800415 	stw	r2,16(r23)
 200b120:	80800317 	ldw	r2,12(r16)
 200b124:	b8800515 	stw	r2,20(r23)
 200b128:	31000326 	beq	r6,r4,200b138 <_realloc_r+0x5e0>
 200b12c:	b8800604 	addi	r2,r23,24
 200b130:	80c00404 	addi	r3,r16,16
 200b134:	003f9906 	br	200af9c <__alt_mem_epcs_flash_controller+0xfe001f9c>
 200b138:	81000417 	ldw	r4,16(r16)
 200b13c:	b8800804 	addi	r2,r23,32
 200b140:	80c00604 	addi	r3,r16,24
 200b144:	b9000615 	stw	r4,24(r23)
 200b148:	81000517 	ldw	r4,20(r16)
 200b14c:	b9000715 	stw	r4,28(r23)
 200b150:	003f9206 	br	200af9c <__alt_mem_epcs_flash_controller+0xfe001f9c>

0200b154 <lflush>:
 200b154:	20c0030b 	ldhu	r3,12(r4)
 200b158:	00800244 	movi	r2,9
 200b15c:	18c0024c 	andi	r3,r3,9
 200b160:	18800226 	beq	r3,r2,200b16c <lflush+0x18>
 200b164:	0005883a 	mov	r2,zero
 200b168:	f800283a 	ret
 200b16c:	200249c1 	jmpi	200249c <fflush>

0200b170 <__srefill_r>:
 200b170:	defffd04 	addi	sp,sp,-12
 200b174:	dc400115 	stw	r17,4(sp)
 200b178:	dc000015 	stw	r16,0(sp)
 200b17c:	dfc00215 	stw	ra,8(sp)
 200b180:	2023883a 	mov	r17,r4
 200b184:	2821883a 	mov	r16,r5
 200b188:	20000226 	beq	r4,zero,200b194 <__srefill_r+0x24>
 200b18c:	20800e17 	ldw	r2,56(r4)
 200b190:	10004426 	beq	r2,zero,200b2a4 <__srefill_r+0x134>
 200b194:	8080030b 	ldhu	r2,12(r16)
 200b198:	80000115 	stw	zero,4(r16)
 200b19c:	10c0080c 	andi	r3,r2,32
 200b1a0:	18ffffcc 	andi	r3,r3,65535
 200b1a4:	18e0001c 	xori	r3,r3,32768
 200b1a8:	18e00004 	addi	r3,r3,-32768
 200b1ac:	1800371e 	bne	r3,zero,200b28c <__srefill_r+0x11c>
 200b1b0:	10c0010c 	andi	r3,r2,4
 200b1b4:	18ffffcc 	andi	r3,r3,65535
 200b1b8:	18e0001c 	xori	r3,r3,32768
 200b1bc:	18e00004 	addi	r3,r3,-32768
 200b1c0:	18002226 	beq	r3,zero,200b24c <__srefill_r+0xdc>
 200b1c4:	81400c17 	ldw	r5,48(r16)
 200b1c8:	28000826 	beq	r5,zero,200b1ec <__srefill_r+0x7c>
 200b1cc:	80801004 	addi	r2,r16,64
 200b1d0:	28800226 	beq	r5,r2,200b1dc <__srefill_r+0x6c>
 200b1d4:	8809883a 	mov	r4,r17
 200b1d8:	2008b140 	call	2008b14 <_free_r>
 200b1dc:	80800f17 	ldw	r2,60(r16)
 200b1e0:	80000c15 	stw	zero,48(r16)
 200b1e4:	80800115 	stw	r2,4(r16)
 200b1e8:	1000401e 	bne	r2,zero,200b2ec <__srefill_r+0x17c>
 200b1ec:	80800417 	ldw	r2,16(r16)
 200b1f0:	10005026 	beq	r2,zero,200b334 <__srefill_r+0x1c4>
 200b1f4:	8080030b 	ldhu	r2,12(r16)
 200b1f8:	108000cc 	andi	r2,r2,3
 200b1fc:	10002b1e 	bne	r2,zero,200b2ac <__srefill_r+0x13c>
 200b200:	81800417 	ldw	r6,16(r16)
 200b204:	80800817 	ldw	r2,32(r16)
 200b208:	81400717 	ldw	r5,28(r16)
 200b20c:	81c00517 	ldw	r7,20(r16)
 200b210:	8809883a 	mov	r4,r17
 200b214:	81800015 	stw	r6,0(r16)
 200b218:	103ee83a 	callr	r2
 200b21c:	8100030b 	ldhu	r4,12(r16)
 200b220:	00f7ffc4 	movi	r3,-8193
 200b224:	80800115 	stw	r2,4(r16)
 200b228:	20c6703a 	and	r3,r4,r3
 200b22c:	80c0030d 	sth	r3,12(r16)
 200b230:	0080130e 	bge	zero,r2,200b280 <__srefill_r+0x110>
 200b234:	0005883a 	mov	r2,zero
 200b238:	dfc00217 	ldw	ra,8(sp)
 200b23c:	dc400117 	ldw	r17,4(sp)
 200b240:	dc000017 	ldw	r16,0(sp)
 200b244:	dec00304 	addi	sp,sp,12
 200b248:	f800283a 	ret
 200b24c:	10c0040c 	andi	r3,r2,16
 200b250:	18ffffcc 	andi	r3,r3,65535
 200b254:	18e0001c 	xori	r3,r3,32768
 200b258:	18e00004 	addi	r3,r3,-32768
 200b25c:	18003926 	beq	r3,zero,200b344 <__srefill_r+0x1d4>
 200b260:	10c0020c 	andi	r3,r2,8
 200b264:	18ffffcc 	andi	r3,r3,65535
 200b268:	18e0001c 	xori	r3,r3,32768
 200b26c:	18e00004 	addi	r3,r3,-32768
 200b270:	1800261e 	bne	r3,zero,200b30c <__srefill_r+0x19c>
 200b274:	10800114 	ori	r2,r2,4
 200b278:	8080030d 	sth	r2,12(r16)
 200b27c:	003fdb06 	br	200b1ec <__alt_mem_epcs_flash_controller+0xfe0021ec>
 200b280:	1000111e 	bne	r2,zero,200b2c8 <__srefill_r+0x158>
 200b284:	18c00814 	ori	r3,r3,32
 200b288:	80c0030d 	sth	r3,12(r16)
 200b28c:	00bfffc4 	movi	r2,-1
 200b290:	dfc00217 	ldw	ra,8(sp)
 200b294:	dc400117 	ldw	r17,4(sp)
 200b298:	dc000017 	ldw	r16,0(sp)
 200b29c:	dec00304 	addi	sp,sp,12
 200b2a0:	f800283a 	ret
 200b2a4:	20025700 	call	2002570 <__sinit>
 200b2a8:	003fba06 	br	200b194 <__alt_mem_epcs_flash_controller+0xfe002194>
 200b2ac:	00808274 	movhi	r2,521
 200b2b0:	10a54f04 	addi	r2,r2,-27332
 200b2b4:	11000017 	ldw	r4,0(r2)
 200b2b8:	01408074 	movhi	r5,513
 200b2bc:	296c5504 	addi	r5,r5,-20140
 200b2c0:	20027b80 	call	20027b8 <_fwalk>
 200b2c4:	003fce06 	br	200b200 <__alt_mem_epcs_flash_controller+0xfe002200>
 200b2c8:	18c01014 	ori	r3,r3,64
 200b2cc:	00bfffc4 	movi	r2,-1
 200b2d0:	80000115 	stw	zero,4(r16)
 200b2d4:	80c0030d 	sth	r3,12(r16)
 200b2d8:	dfc00217 	ldw	ra,8(sp)
 200b2dc:	dc400117 	ldw	r17,4(sp)
 200b2e0:	dc000017 	ldw	r16,0(sp)
 200b2e4:	dec00304 	addi	sp,sp,12
 200b2e8:	f800283a 	ret
 200b2ec:	80c00e17 	ldw	r3,56(r16)
 200b2f0:	0005883a 	mov	r2,zero
 200b2f4:	80c00015 	stw	r3,0(r16)
 200b2f8:	dfc00217 	ldw	ra,8(sp)
 200b2fc:	dc400117 	ldw	r17,4(sp)
 200b300:	dc000017 	ldw	r16,0(sp)
 200b304:	dec00304 	addi	sp,sp,12
 200b308:	f800283a 	ret
 200b30c:	8809883a 	mov	r4,r17
 200b310:	800b883a 	mov	r5,r16
 200b314:	20022b40 	call	20022b4 <_fflush_r>
 200b318:	103fdc1e 	bne	r2,zero,200b28c <__alt_mem_epcs_flash_controller+0xfe00228c>
 200b31c:	8080030b 	ldhu	r2,12(r16)
 200b320:	00fffdc4 	movi	r3,-9
 200b324:	80000215 	stw	zero,8(r16)
 200b328:	1884703a 	and	r2,r3,r2
 200b32c:	80000615 	stw	zero,24(r16)
 200b330:	003fd006 	br	200b274 <__alt_mem_epcs_flash_controller+0xfe002274>
 200b334:	8809883a 	mov	r4,r17
 200b338:	800b883a 	mov	r5,r16
 200b33c:	20094480 	call	2009448 <__smakebuf_r>
 200b340:	003fac06 	br	200b1f4 <__alt_mem_epcs_flash_controller+0xfe0021f4>
 200b344:	00c00244 	movi	r3,9
 200b348:	10801014 	ori	r2,r2,64
 200b34c:	88c00015 	stw	r3,0(r17)
 200b350:	8080030d 	sth	r2,12(r16)
 200b354:	00bfffc4 	movi	r2,-1
 200b358:	003fb706 	br	200b238 <__alt_mem_epcs_flash_controller+0xfe002238>

0200b35c <__isinfd>:
 200b35c:	0105c83a 	sub	r2,zero,r4
 200b360:	1108b03a 	or	r4,r2,r4
 200b364:	2004d7fa 	srli	r2,r4,31
 200b368:	00e00034 	movhi	r3,32768
 200b36c:	18ffffc4 	addi	r3,r3,-1
 200b370:	28ca703a 	and	r5,r5,r3
 200b374:	1144b03a 	or	r2,r2,r5
 200b378:	00dffc34 	movhi	r3,32752
 200b37c:	1885c83a 	sub	r2,r3,r2
 200b380:	0087c83a 	sub	r3,zero,r2
 200b384:	1884b03a 	or	r2,r3,r2
 200b388:	1005d7fa 	srai	r2,r2,31
 200b38c:	10800044 	addi	r2,r2,1
 200b390:	f800283a 	ret

0200b394 <__isnand>:
 200b394:	0105c83a 	sub	r2,zero,r4
 200b398:	1108b03a 	or	r4,r2,r4
 200b39c:	2004d7fa 	srli	r2,r4,31
 200b3a0:	00e00034 	movhi	r3,32768
 200b3a4:	18ffffc4 	addi	r3,r3,-1
 200b3a8:	28ca703a 	and	r5,r5,r3
 200b3ac:	1144b03a 	or	r2,r2,r5
 200b3b0:	00dffc34 	movhi	r3,32752
 200b3b4:	1885c83a 	sub	r2,r3,r2
 200b3b8:	1004d7fa 	srli	r2,r2,31
 200b3bc:	f800283a 	ret

0200b3c0 <__sccl>:
 200b3c0:	2a400003 	ldbu	r9,0(r5)
 200b3c4:	00801784 	movi	r2,94
 200b3c8:	48802626 	beq	r9,r2,200b464 <__sccl+0xa4>
 200b3cc:	28800044 	addi	r2,r5,1
 200b3d0:	0011883a 	mov	r8,zero
 200b3d4:	000b883a 	mov	r5,zero
 200b3d8:	0007883a 	mov	r3,zero
 200b3dc:	01c04004 	movi	r7,256
 200b3e0:	20cd883a 	add	r6,r4,r3
 200b3e4:	32000005 	stb	r8,0(r6)
 200b3e8:	18c00044 	addi	r3,r3,1
 200b3ec:	19fffc1e 	bne	r3,r7,200b3e0 <__alt_mem_epcs_flash_controller+0xfe0023e0>
 200b3f0:	48000f26 	beq	r9,zero,200b430 <__sccl+0x70>
 200b3f4:	01800044 	movi	r6,1
 200b3f8:	314dc83a 	sub	r6,r6,r5
 200b3fc:	02001744 	movi	r8,93
 200b400:	01400b44 	movi	r5,45
 200b404:	2247883a 	add	r3,r4,r9
 200b408:	19800005 	stb	r6,0(r3)
 200b40c:	10c00003 	ldbu	r3,0(r2)
 200b410:	11c00044 	addi	r7,r2,1
 200b414:	19400a26 	beq	r3,r5,200b440 <__sccl+0x80>
 200b418:	1a000726 	beq	r3,r8,200b438 <__sccl+0x78>
 200b41c:	1800011e 	bne	r3,zero,200b424 <__sccl+0x64>
 200b420:	f800283a 	ret
 200b424:	1813883a 	mov	r9,r3
 200b428:	3805883a 	mov	r2,r7
 200b42c:	003ff506 	br	200b404 <__alt_mem_epcs_flash_controller+0xfe002404>
 200b430:	10bfffc4 	addi	r2,r2,-1
 200b434:	f800283a 	ret
 200b438:	3805883a 	mov	r2,r7
 200b43c:	f800283a 	ret
 200b440:	10c00043 	ldbu	r3,1(r2)
 200b444:	1a000c26 	beq	r3,r8,200b478 <__sccl+0xb8>
 200b448:	1a400b16 	blt	r3,r9,200b478 <__sccl+0xb8>
 200b44c:	10800084 	addi	r2,r2,2
 200b450:	4a400044 	addi	r9,r9,1
 200b454:	224f883a 	add	r7,r4,r9
 200b458:	39800005 	stb	r6,0(r7)
 200b45c:	48fffc16 	blt	r9,r3,200b450 <__alt_mem_epcs_flash_controller+0xfe002450>
 200b460:	003fea06 	br	200b40c <__alt_mem_epcs_flash_controller+0xfe00240c>
 200b464:	2a400043 	ldbu	r9,1(r5)
 200b468:	28800084 	addi	r2,r5,2
 200b46c:	02000044 	movi	r8,1
 200b470:	01400044 	movi	r5,1
 200b474:	003fd806 	br	200b3d8 <__alt_mem_epcs_flash_controller+0xfe0023d8>
 200b478:	2813883a 	mov	r9,r5
 200b47c:	3805883a 	mov	r2,r7
 200b480:	003fe006 	br	200b404 <__alt_mem_epcs_flash_controller+0xfe002404>

0200b484 <nanf>:
 200b484:	009ff034 	movhi	r2,32704
 200b488:	f800283a 	ret

0200b48c <_sprintf_r>:
 200b48c:	deffe704 	addi	sp,sp,-100
 200b490:	2807883a 	mov	r3,r5
 200b494:	dfc01715 	stw	ra,92(sp)
 200b498:	d9c01815 	stw	r7,96(sp)
 200b49c:	00a00034 	movhi	r2,32768
 200b4a0:	10bfffc4 	addi	r2,r2,-1
 200b4a4:	02008204 	movi	r8,520
 200b4a8:	d8800215 	stw	r2,8(sp)
 200b4ac:	d8800515 	stw	r2,20(sp)
 200b4b0:	d80b883a 	mov	r5,sp
 200b4b4:	d9c01804 	addi	r7,sp,96
 200b4b8:	00bfffc4 	movi	r2,-1
 200b4bc:	d8c00015 	stw	r3,0(sp)
 200b4c0:	d8c00415 	stw	r3,16(sp)
 200b4c4:	da00030d 	sth	r8,12(sp)
 200b4c8:	d880038d 	sth	r2,14(sp)
 200b4cc:	20035480 	call	2003548 <___vfprintf_internal_r>
 200b4d0:	d8c00017 	ldw	r3,0(sp)
 200b4d4:	18000005 	stb	zero,0(r3)
 200b4d8:	dfc01717 	ldw	ra,92(sp)
 200b4dc:	dec01904 	addi	sp,sp,100
 200b4e0:	f800283a 	ret

0200b4e4 <sprintf>:
 200b4e4:	deffe604 	addi	sp,sp,-104
 200b4e8:	2007883a 	mov	r3,r4
 200b4ec:	dfc01715 	stw	ra,92(sp)
 200b4f0:	d9801815 	stw	r6,96(sp)
 200b4f4:	d9c01915 	stw	r7,100(sp)
 200b4f8:	00808274 	movhi	r2,521
 200b4fc:	10a55004 	addi	r2,r2,-27328
 200b500:	11000017 	ldw	r4,0(r2)
 200b504:	00a00034 	movhi	r2,32768
 200b508:	10bfffc4 	addi	r2,r2,-1
 200b50c:	280d883a 	mov	r6,r5
 200b510:	02008204 	movi	r8,520
 200b514:	d8800215 	stw	r2,8(sp)
 200b518:	d8800515 	stw	r2,20(sp)
 200b51c:	d80b883a 	mov	r5,sp
 200b520:	d9c01804 	addi	r7,sp,96
 200b524:	00bfffc4 	movi	r2,-1
 200b528:	d8c00015 	stw	r3,0(sp)
 200b52c:	d8c00415 	stw	r3,16(sp)
 200b530:	da00030d 	sth	r8,12(sp)
 200b534:	d880038d 	sth	r2,14(sp)
 200b538:	20035480 	call	2003548 <___vfprintf_internal_r>
 200b53c:	d8c00017 	ldw	r3,0(sp)
 200b540:	18000005 	stb	zero,0(r3)
 200b544:	dfc01717 	ldw	ra,92(sp)
 200b548:	dec01a04 	addi	sp,sp,104
 200b54c:	f800283a 	ret

0200b550 <strcmp>:
 200b550:	2904b03a 	or	r2,r5,r4
 200b554:	108000cc 	andi	r2,r2,3
 200b558:	1000171e 	bne	r2,zero,200b5b8 <strcmp+0x68>
 200b55c:	20800017 	ldw	r2,0(r4)
 200b560:	28c00017 	ldw	r3,0(r5)
 200b564:	10c0141e 	bne	r2,r3,200b5b8 <strcmp+0x68>
 200b568:	027fbff4 	movhi	r9,65279
 200b56c:	4a7fbfc4 	addi	r9,r9,-257
 200b570:	1247883a 	add	r3,r2,r9
 200b574:	0084303a 	nor	r2,zero,r2
 200b578:	1884703a 	and	r2,r3,r2
 200b57c:	02202074 	movhi	r8,32897
 200b580:	42202004 	addi	r8,r8,-32640
 200b584:	1204703a 	and	r2,r2,r8
 200b588:	10000226 	beq	r2,zero,200b594 <strcmp+0x44>
 200b58c:	00001706 	br	200b5ec <strcmp+0x9c>
 200b590:	3000161e 	bne	r6,zero,200b5ec <strcmp+0x9c>
 200b594:	21000104 	addi	r4,r4,4
 200b598:	20800017 	ldw	r2,0(r4)
 200b59c:	29400104 	addi	r5,r5,4
 200b5a0:	28c00017 	ldw	r3,0(r5)
 200b5a4:	124f883a 	add	r7,r2,r9
 200b5a8:	008c303a 	nor	r6,zero,r2
 200b5ac:	398c703a 	and	r6,r7,r6
 200b5b0:	320c703a 	and	r6,r6,r8
 200b5b4:	10fff626 	beq	r2,r3,200b590 <__alt_mem_epcs_flash_controller+0xfe002590>
 200b5b8:	20800007 	ldb	r2,0(r4)
 200b5bc:	1000051e 	bne	r2,zero,200b5d4 <strcmp+0x84>
 200b5c0:	00000606 	br	200b5dc <strcmp+0x8c>
 200b5c4:	21000044 	addi	r4,r4,1
 200b5c8:	20800007 	ldb	r2,0(r4)
 200b5cc:	29400044 	addi	r5,r5,1
 200b5d0:	10000226 	beq	r2,zero,200b5dc <strcmp+0x8c>
 200b5d4:	28c00007 	ldb	r3,0(r5)
 200b5d8:	10fffa26 	beq	r2,r3,200b5c4 <__alt_mem_epcs_flash_controller+0xfe0025c4>
 200b5dc:	20c00003 	ldbu	r3,0(r4)
 200b5e0:	28800003 	ldbu	r2,0(r5)
 200b5e4:	1885c83a 	sub	r2,r3,r2
 200b5e8:	f800283a 	ret
 200b5ec:	0005883a 	mov	r2,zero
 200b5f0:	f800283a 	ret

0200b5f4 <_strtod_r>:
 200b5f4:	deffdc04 	addi	sp,sp,-144
 200b5f8:	dc001a15 	stw	r16,104(sp)
 200b5fc:	d9400e15 	stw	r5,56(sp)
 200b600:	d9801115 	stw	r6,68(sp)
 200b604:	d9400c15 	stw	r5,48(sp)
 200b608:	2805883a 	mov	r2,r5
 200b60c:	dfc02315 	stw	ra,140(sp)
 200b610:	df002215 	stw	fp,136(sp)
 200b614:	ddc02115 	stw	r23,132(sp)
 200b618:	dd802015 	stw	r22,128(sp)
 200b61c:	dd401f15 	stw	r21,124(sp)
 200b620:	dd001e15 	stw	r20,120(sp)
 200b624:	dcc01d15 	stw	r19,116(sp)
 200b628:	dc801c15 	stw	r18,112(sp)
 200b62c:	dc401b15 	stw	r17,108(sp)
 200b630:	2021883a 	mov	r16,r4
 200b634:	d8000615 	stw	zero,24(sp)
 200b638:	d8000715 	stw	zero,28(sp)
 200b63c:	01400b44 	movi	r5,45
 200b640:	01808074 	movhi	r6,513
 200b644:	31ade604 	addi	r6,r6,-18536
 200b648:	10c00003 	ldbu	r3,0(r2)
 200b64c:	19003fcc 	andi	r4,r3,255
 200b650:	29004c2e 	bgeu	r5,r4,200b784 <_strtod_r+0x190>
 200b654:	1c803fcc 	andi	r18,r3,255
 200b658:	9480201c 	xori	r18,r18,128
 200b65c:	102d883a 	mov	r22,r2
 200b660:	d8001215 	stw	zero,72(sp)
 200b664:	94bfe004 	addi	r18,r18,-128
 200b668:	00800c04 	movi	r2,48
 200b66c:	9080f526 	beq	r18,r2,200ba44 <_strtod_r+0x450>
 200b670:	d8001315 	stw	zero,76(sp)
 200b674:	04c00bc4 	movi	r19,47
 200b678:	900f883a 	mov	r7,r18
 200b67c:	9c84770e 	bge	r19,r18,200c85c <_strtod_r+0x1268>
 200b680:	05c00e44 	movi	r23,57
 200b684:	bc847a16 	blt	r23,r18,200c870 <_strtod_r+0x127c>
 200b688:	0039883a 	mov	fp,zero
 200b68c:	b4400044 	addi	r17,r22,1
 200b690:	dd801015 	stw	r22,64(sp)
 200b694:	d8000f15 	stw	zero,60(sp)
 200b698:	e02d883a 	mov	r22,fp
 200b69c:	002b883a 	mov	r21,zero
 200b6a0:	8039883a 	mov	fp,r16
 200b6a4:	05000204 	movi	r20,8
 200b6a8:	0021883a 	mov	r16,zero
 200b6ac:	a5408c16 	blt	r20,r21,200b8e0 <_strtod_r+0x2ec>
 200b6b0:	b009883a 	mov	r4,r22
 200b6b4:	01400284 	movi	r5,10
 200b6b8:	2001d200 	call	2001d20 <__mulsi3>
 200b6bc:	1485883a 	add	r2,r2,r18
 200b6c0:	15bff404 	addi	r22,r2,-48
 200b6c4:	dc400c15 	stw	r17,48(sp)
 200b6c8:	8c800007 	ldb	r18,0(r17)
 200b6cc:	ad400044 	addi	r21,r21,1
 200b6d0:	880b883a 	mov	r5,r17
 200b6d4:	900f883a 	mov	r7,r18
 200b6d8:	9c808e0e 	bge	r19,r18,200b914 <_strtod_r+0x320>
 200b6dc:	8c400044 	addi	r17,r17,1
 200b6e0:	bcbff20e 	bge	r23,r18,200b6ac <__alt_mem_epcs_flash_controller+0xfe0026ac>
 200b6e4:	dc000f15 	stw	r16,60(sp)
 200b6e8:	e021883a 	mov	r16,fp
 200b6ec:	b039883a 	mov	fp,r22
 200b6f0:	dd801017 	ldw	r22,64(sp)
 200b6f4:	a827883a 	mov	r19,r21
 200b6f8:	dd801415 	stw	r22,80(sp)
 200b6fc:	000d883a 	mov	r6,zero
 200b700:	0029883a 	mov	r20,zero
 200b704:	d8001015 	stw	zero,64(sp)
 200b708:	00801944 	movi	r2,101
 200b70c:	3880dd26 	beq	r7,r2,200ba84 <_strtod_r+0x490>
 200b710:	00801144 	movi	r2,69
 200b714:	3880db26 	beq	r7,r2,200ba84 <_strtod_r+0x490>
 200b718:	0009883a 	mov	r4,zero
 200b71c:	a8011d1e 	bne	r21,zero,200bb94 <_strtod_r+0x5a0>
 200b720:	3001591e 	bne	r6,zero,200bc88 <_strtod_r+0x694>
 200b724:	d8c01317 	ldw	r3,76(sp)
 200b728:	1801571e 	bne	r3,zero,200bc88 <_strtod_r+0x694>
 200b72c:	d8c01017 	ldw	r3,64(sp)
 200b730:	1803081e 	bne	r3,zero,200c354 <_strtod_r+0xd60>
 200b734:	00801384 	movi	r2,78
 200b738:	38847e26 	beq	r7,r2,200c934 <_strtod_r+0x1340>
 200b73c:	11c47916 	blt	r2,r7,200c924 <_strtod_r+0x1330>
 200b740:	00801244 	movi	r2,73
 200b744:	3883031e 	bne	r7,r2,200c354 <_strtod_r+0xd60>
 200b748:	d8800c17 	ldw	r2,48(sp)
 200b74c:	01008234 	movhi	r4,520
 200b750:	211dd404 	addi	r4,r4,30544
 200b754:	01801004 	movi	r6,64
 200b758:	01c01684 	movi	r7,90
 200b75c:	21400007 	ldb	r5,0(r4)
 200b760:	21000044 	addi	r4,r4,1
 200b764:	2804b426 	beq	r5,zero,200ca38 <_strtod_r+0x1444>
 200b768:	10800044 	addi	r2,r2,1
 200b76c:	10c00007 	ldb	r3,0(r2)
 200b770:	30c0020e 	bge	r6,r3,200b77c <_strtod_r+0x188>
 200b774:	38c00116 	blt	r7,r3,200b77c <_strtod_r+0x188>
 200b778:	18c00804 	addi	r3,r3,32
 200b77c:	197ff726 	beq	r3,r5,200b75c <__alt_mem_epcs_flash_controller+0xfe00275c>
 200b780:	0002f406 	br	200c354 <_strtod_r+0xd60>
 200b784:	2109883a 	add	r4,r4,r4
 200b788:	2109883a 	add	r4,r4,r4
 200b78c:	2189883a 	add	r4,r4,r6
 200b790:	21000017 	ldw	r4,0(r4)
 200b794:	2000683a 	jmp	r4
 200b798:	0200b864 	muli	r8,zero,737
 200b79c:	0200b654 	movui	r8,729
 200b7a0:	0200b654 	movui	r8,729
 200b7a4:	0200b654 	movui	r8,729
 200b7a8:	0200b654 	movui	r8,729
 200b7ac:	0200b654 	movui	r8,729
 200b7b0:	0200b654 	movui	r8,729
 200b7b4:	0200b654 	movui	r8,729
 200b7b8:	0200b654 	movui	r8,729
 200b7bc:	0200b8c8 	cmpgei	r8,zero,739
 200b7c0:	0200b8c8 	cmpgei	r8,zero,739
 200b7c4:	0200b8c8 	cmpgei	r8,zero,739
 200b7c8:	0200b8c8 	cmpgei	r8,zero,739
 200b7cc:	0200b8c8 	cmpgei	r8,zero,739
 200b7d0:	0200b654 	movui	r8,729
 200b7d4:	0200b654 	movui	r8,729
 200b7d8:	0200b654 	movui	r8,729
 200b7dc:	0200b654 	movui	r8,729
 200b7e0:	0200b654 	movui	r8,729
 200b7e4:	0200b654 	movui	r8,729
 200b7e8:	0200b654 	movui	r8,729
 200b7ec:	0200b654 	movui	r8,729
 200b7f0:	0200b654 	movui	r8,729
 200b7f4:	0200b654 	movui	r8,729
 200b7f8:	0200b654 	movui	r8,729
 200b7fc:	0200b654 	movui	r8,729
 200b800:	0200b654 	movui	r8,729
 200b804:	0200b654 	movui	r8,729
 200b808:	0200b654 	movui	r8,729
 200b80c:	0200b654 	movui	r8,729
 200b810:	0200b654 	movui	r8,729
 200b814:	0200b654 	movui	r8,729
 200b818:	0200b8c8 	cmpgei	r8,zero,739
 200b81c:	0200b654 	movui	r8,729
 200b820:	0200b654 	movui	r8,729
 200b824:	0200b654 	movui	r8,729
 200b828:	0200b654 	movui	r8,729
 200b82c:	0200b654 	movui	r8,729
 200b830:	0200b654 	movui	r8,729
 200b834:	0200b654 	movui	r8,729
 200b838:	0200b654 	movui	r8,729
 200b83c:	0200b654 	movui	r8,729
 200b840:	0200b654 	movui	r8,729
 200b844:	0200b850 	cmplti	r8,zero,737
 200b848:	0200b654 	movui	r8,729
 200b84c:	0200b8d4 	movui	r8,739
 200b850:	d8001215 	stw	zero,72(sp)
 200b854:	15800044 	addi	r22,r2,1
 200b858:	dd800c15 	stw	r22,48(sp)
 200b85c:	14800047 	ldb	r18,1(r2)
 200b860:	903f811e 	bne	r18,zero,200b668 <__alt_mem_epcs_flash_controller+0xfe002668>
 200b864:	0005883a 	mov	r2,zero
 200b868:	0007883a 	mov	r3,zero
 200b86c:	d9400e17 	ldw	r5,56(sp)
 200b870:	d8001215 	stw	zero,72(sp)
 200b874:	d9400c15 	stw	r5,48(sp)
 200b878:	d9001117 	ldw	r4,68(sp)
 200b87c:	20000326 	beq	r4,zero,200b88c <_strtod_r+0x298>
 200b880:	d9000c17 	ldw	r4,48(sp)
 200b884:	d9401117 	ldw	r5,68(sp)
 200b888:	29000015 	stw	r4,0(r5)
 200b88c:	d9001217 	ldw	r4,72(sp)
 200b890:	20000126 	beq	r4,zero,200b898 <_strtod_r+0x2a4>
 200b894:	18e0003c 	xorhi	r3,r3,32768
 200b898:	dfc02317 	ldw	ra,140(sp)
 200b89c:	df002217 	ldw	fp,136(sp)
 200b8a0:	ddc02117 	ldw	r23,132(sp)
 200b8a4:	dd802017 	ldw	r22,128(sp)
 200b8a8:	dd401f17 	ldw	r21,124(sp)
 200b8ac:	dd001e17 	ldw	r20,120(sp)
 200b8b0:	dcc01d17 	ldw	r19,116(sp)
 200b8b4:	dc801c17 	ldw	r18,112(sp)
 200b8b8:	dc401b17 	ldw	r17,108(sp)
 200b8bc:	dc001a17 	ldw	r16,104(sp)
 200b8c0:	dec02404 	addi	sp,sp,144
 200b8c4:	f800283a 	ret
 200b8c8:	10800044 	addi	r2,r2,1
 200b8cc:	d8800c15 	stw	r2,48(sp)
 200b8d0:	003f5d06 	br	200b648 <__alt_mem_epcs_flash_controller+0xfe002648>
 200b8d4:	00c00044 	movi	r3,1
 200b8d8:	d8c01215 	stw	r3,72(sp)
 200b8dc:	003fdd06 	br	200b854 <__alt_mem_epcs_flash_controller+0xfe002854>
 200b8e0:	010003c4 	movi	r4,15
 200b8e4:	257f7716 	blt	r4,r21,200b6c4 <__alt_mem_epcs_flash_controller+0xfe0026c4>
 200b8e8:	8009883a 	mov	r4,r16
 200b8ec:	01400284 	movi	r5,10
 200b8f0:	2001d200 	call	2001d20 <__mulsi3>
 200b8f4:	dc400c15 	stw	r17,48(sp)
 200b8f8:	1485883a 	add	r2,r2,r18
 200b8fc:	8c800007 	ldb	r18,0(r17)
 200b900:	143ff404 	addi	r16,r2,-48
 200b904:	ad400044 	addi	r21,r21,1
 200b908:	880b883a 	mov	r5,r17
 200b90c:	900f883a 	mov	r7,r18
 200b910:	9cbf7216 	blt	r19,r18,200b6dc <__alt_mem_epcs_flash_controller+0xfe0026dc>
 200b914:	dc000f15 	stw	r16,60(sp)
 200b918:	e021883a 	mov	r16,fp
 200b91c:	b039883a 	mov	fp,r22
 200b920:	dd801017 	ldw	r22,64(sp)
 200b924:	00800b84 	movi	r2,46
 200b928:	9082561e 	bne	r18,r2,200c284 <_strtod_r+0xc90>
 200b92c:	28800044 	addi	r2,r5,1
 200b930:	d8800c15 	stw	r2,48(sp)
 200b934:	29c00047 	ldb	r7,1(r5)
 200b938:	a802611e 	bne	r21,zero,200c2c0 <_strtod_r+0xccc>
 200b93c:	00800c04 	movi	r2,48
 200b940:	3884161e 	bne	r7,r2,200c99c <_strtod_r+0x13a8>
 200b944:	00800044 	movi	r2,1
 200b948:	3809883a 	mov	r4,r7
 200b94c:	100d883a 	mov	r6,r2
 200b950:	10800044 	addi	r2,r2,1
 200b954:	2887883a 	add	r3,r5,r2
 200b958:	d8c00c15 	stw	r3,48(sp)
 200b95c:	2987883a 	add	r3,r5,r6
 200b960:	19c00047 	ldb	r7,1(r3)
 200b964:	393ff926 	beq	r7,r4,200b94c <__alt_mem_epcs_flash_controller+0xfe00294c>
 200b968:	38bff3c4 	addi	r2,r7,-49
 200b96c:	00c00204 	movi	r3,8
 200b970:	1882ad36 	bltu	r3,r2,200c428 <_strtod_r+0xe34>
 200b974:	d9400c17 	ldw	r5,48(sp)
 200b978:	3029883a 	mov	r20,r6
 200b97c:	002f883a 	mov	r23,zero
 200b980:	d9401415 	stw	r5,80(sp)
 200b984:	2823883a 	mov	r17,r5
 200b988:	01800044 	movi	r6,1
 200b98c:	3dbff404 	addi	r22,r7,-48
 200b990:	b0002826 	beq	r22,zero,200ba34 <_strtod_r+0x440>
 200b994:	00800044 	movi	r2,1
 200b998:	a1a9883a 	add	r20,r20,r6
 200b99c:	30844826 	beq	r6,r2,200cac0 <_strtod_r+0x14cc>
 200b9a0:	b9a7883a 	add	r19,r23,r6
 200b9a4:	dc401015 	stw	r17,64(sp)
 200b9a8:	e023883a 	mov	r17,fp
 200b9ac:	b039883a 	mov	fp,r22
 200b9b0:	802d883a 	mov	r22,r16
 200b9b4:	dc000f17 	ldw	r16,60(sp)
 200b9b8:	98ffffc4 	addi	r3,r19,-1
 200b9bc:	dd001615 	stw	r20,88(sp)
 200b9c0:	04800204 	movi	r18,8
 200b9c4:	d9801515 	stw	r6,84(sp)
 200b9c8:	b829883a 	mov	r20,r23
 200b9cc:	1827883a 	mov	r19,r3
 200b9d0:	a5000044 	addi	r20,r20,1
 200b9d4:	a17fffc4 	addi	r5,r20,-1
 200b9d8:	9142b916 	blt	r18,r5,200c4c0 <_strtod_r+0xecc>
 200b9dc:	8809883a 	mov	r4,r17
 200b9e0:	01400284 	movi	r5,10
 200b9e4:	2001d200 	call	2001d20 <__mulsi3>
 200b9e8:	1023883a 	mov	r17,r2
 200b9ec:	a4fff81e 	bne	r20,r19,200b9d0 <__alt_mem_epcs_flash_controller+0xfe0029d0>
 200b9f0:	d9801517 	ldw	r6,84(sp)
 200b9f4:	dc000f15 	stw	r16,60(sp)
 200b9f8:	dd001617 	ldw	r20,88(sp)
 200b9fc:	b021883a 	mov	r16,r22
 200ba00:	e02d883a 	mov	r22,fp
 200ba04:	8839883a 	mov	fp,r17
 200ba08:	dc401017 	ldw	r17,64(sp)
 200ba0c:	b985883a 	add	r2,r23,r6
 200ba10:	10bfffc4 	addi	r2,r2,-1
 200ba14:	00c00204 	movi	r3,8
 200ba18:	15c00044 	addi	r23,r2,1
 200ba1c:	1883d616 	blt	r3,r2,200c978 <_strtod_r+0x1384>
 200ba20:	e009883a 	mov	r4,fp
 200ba24:	01400284 	movi	r5,10
 200ba28:	2001d200 	call	2001d20 <__mulsi3>
 200ba2c:	15b9883a 	add	fp,r2,r22
 200ba30:	000d883a 	mov	r6,zero
 200ba34:	88800044 	addi	r2,r17,1
 200ba38:	d8800c15 	stw	r2,48(sp)
 200ba3c:	89c00047 	ldb	r7,1(r17)
 200ba40:	00022306 	br	200c2d0 <_strtod_r+0xcdc>
 200ba44:	b0800047 	ldb	r2,1(r22)
 200ba48:	01001604 	movi	r4,88
 200ba4c:	1102a326 	beq	r2,r4,200c4dc <_strtod_r+0xee8>
 200ba50:	01001e04 	movi	r4,120
 200ba54:	1102a126 	beq	r2,r4,200c4dc <_strtod_r+0xee8>
 200ba58:	b0800044 	addi	r2,r22,1
 200ba5c:	9009883a 	mov	r4,r18
 200ba60:	d8800c15 	stw	r2,48(sp)
 200ba64:	14800007 	ldb	r18,0(r2)
 200ba68:	102d883a 	mov	r22,r2
 200ba6c:	10800044 	addi	r2,r2,1
 200ba70:	913ffb26 	beq	r18,r4,200ba60 <__alt_mem_epcs_flash_controller+0xfe002a60>
 200ba74:	90022526 	beq	r18,zero,200c30c <_strtod_r+0xd18>
 200ba78:	00c00044 	movi	r3,1
 200ba7c:	d8c01315 	stw	r3,76(sp)
 200ba80:	003efc06 	br	200b674 <__alt_mem_epcs_flash_controller+0xfe002674>
 200ba84:	a800011e 	bne	r21,zero,200ba8c <_strtod_r+0x498>
 200ba88:	30023026 	beq	r6,zero,200c34c <_strtod_r+0xd58>
 200ba8c:	d9400c17 	ldw	r5,48(sp)
 200ba90:	28800044 	addi	r2,r5,1
 200ba94:	d8800c15 	stw	r2,48(sp)
 200ba98:	29c00047 	ldb	r7,1(r5)
 200ba9c:	d9400e15 	stw	r5,56(sp)
 200baa0:	00800ac4 	movi	r2,43
 200baa4:	38821026 	beq	r7,r2,200c2e8 <_strtod_r+0xcf4>
 200baa8:	00800b44 	movi	r2,45
 200baac:	38821426 	beq	r7,r2,200c300 <_strtod_r+0xd0c>
 200bab0:	d8001515 	stw	zero,84(sp)
 200bab4:	38bff404 	addi	r2,r7,-48
 200bab8:	00c00244 	movi	r3,9
 200babc:	1881fc36 	bltu	r3,r2,200c2b0 <_strtod_r+0xcbc>
 200bac0:	00800c04 	movi	r2,48
 200bac4:	3880071e 	bne	r7,r2,200bae4 <_strtod_r+0x4f0>
 200bac8:	d8800c17 	ldw	r2,48(sp)
 200bacc:	3807883a 	mov	r3,r7
 200bad0:	10800044 	addi	r2,r2,1
 200bad4:	d8800c15 	stw	r2,48(sp)
 200bad8:	11c00007 	ldb	r7,0(r2)
 200badc:	10800044 	addi	r2,r2,1
 200bae0:	38fffc26 	beq	r7,r3,200bad4 <__alt_mem_epcs_flash_controller+0xfe002ad4>
 200bae4:	38bff3c4 	addi	r2,r7,-49
 200bae8:	00c00204 	movi	r3,8
 200baec:	18bf0a36 	bltu	r3,r2,200b718 <__alt_mem_epcs_flash_controller+0xfe002718>
 200baf0:	d8c00c17 	ldw	r3,48(sp)
 200baf4:	393ff404 	addi	r4,r7,-48
 200baf8:	05c00bc4 	movi	r23,47
 200bafc:	18800044 	addi	r2,r3,1
 200bb00:	d8800c15 	stw	r2,48(sp)
 200bb04:	19c00047 	ldb	r7,1(r3)
 200bb08:	d8c01615 	stw	r3,88(sp)
 200bb0c:	b9c0160e 	bge	r23,r7,200bb68 <_strtod_r+0x574>
 200bb10:	00c00e44 	movi	r3,57
 200bb14:	19c01416 	blt	r3,r7,200bb68 <_strtod_r+0x574>
 200bb18:	d9401617 	ldw	r5,88(sp)
 200bb1c:	dc001715 	stw	r16,92(sp)
 200bb20:	1823883a 	mov	r17,r3
 200bb24:	2d800084 	addi	r22,r5,2
 200bb28:	3025883a 	mov	r18,r6
 200bb2c:	3821883a 	mov	r16,r7
 200bb30:	00000206 	br	200bb3c <_strtod_r+0x548>
 200bb34:	b5800044 	addi	r22,r22,1
 200bb38:	8c000816 	blt	r17,r16,200bb5c <_strtod_r+0x568>
 200bb3c:	01400284 	movi	r5,10
 200bb40:	2001d200 	call	2001d20 <__mulsi3>
 200bb44:	dd800c15 	stw	r22,48(sp)
 200bb48:	1405883a 	add	r2,r2,r16
 200bb4c:	b4000007 	ldb	r16,0(r22)
 200bb50:	113ff404 	addi	r4,r2,-48
 200bb54:	b005883a 	mov	r2,r22
 200bb58:	bc3ff616 	blt	r23,r16,200bb34 <__alt_mem_epcs_flash_controller+0xfe002b34>
 200bb5c:	800f883a 	mov	r7,r16
 200bb60:	dc001717 	ldw	r16,92(sp)
 200bb64:	900d883a 	mov	r6,r18
 200bb68:	d8c01617 	ldw	r3,88(sp)
 200bb6c:	10c5c83a 	sub	r2,r2,r3
 200bb70:	00c00204 	movi	r3,8
 200bb74:	18833716 	blt	r3,r2,200c854 <_strtod_r+0x1260>
 200bb78:	009387c4 	movi	r2,19999
 200bb7c:	1100010e 	bge	r2,r4,200bb84 <_strtod_r+0x590>
 200bb80:	1009883a 	mov	r4,r2
 200bb84:	d8c01517 	ldw	r3,84(sp)
 200bb88:	183ee426 	beq	r3,zero,200b71c <__alt_mem_epcs_flash_controller+0xfe00271c>
 200bb8c:	0109c83a 	sub	r4,zero,r4
 200bb90:	a83ee326 	beq	r21,zero,200b720 <__alt_mem_epcs_flash_controller+0xfe002720>
 200bb94:	2529c83a 	sub	r20,r4,r20
 200bb98:	dd001015 	stw	r20,64(sp)
 200bb9c:	9800011e 	bne	r19,zero,200bba4 <_strtod_r+0x5b0>
 200bba0:	a827883a 	mov	r19,r21
 200bba4:	00800404 	movi	r2,16
 200bba8:	a823883a 	mov	r17,r21
 200bbac:	1540010e 	bge	r2,r21,200bbb4 <_strtod_r+0x5c0>
 200bbb0:	1023883a 	mov	r17,r2
 200bbb4:	e009883a 	mov	r4,fp
 200bbb8:	200fd100 	call	200fd10 <__floatunsidf>
 200bbbc:	d8800615 	stw	r2,24(sp)
 200bbc0:	d8c00715 	stw	r3,28(sp)
 200bbc4:	01000244 	movi	r4,9
 200bbc8:	2440150e 	bge	r4,r17,200bc20 <_strtod_r+0x62c>
 200bbcc:	893ffdc4 	addi	r4,r17,-9
 200bbd0:	200890fa 	slli	r4,r4,3
 200bbd4:	180b883a 	mov	r5,r3
 200bbd8:	00c08234 	movhi	r3,520
 200bbdc:	18dd9f04 	addi	r3,r3,30332
 200bbe0:	1907883a 	add	r3,r3,r4
 200bbe4:	19800017 	ldw	r6,0(r3)
 200bbe8:	19c00117 	ldw	r7,4(r3)
 200bbec:	1009883a 	mov	r4,r2
 200bbf0:	20015c00 	call	20015c0 <__muldf3>
 200bbf4:	d9000f17 	ldw	r4,60(sp)
 200bbf8:	1025883a 	mov	r18,r2
 200bbfc:	1829883a 	mov	r20,r3
 200bc00:	200fd100 	call	200fd10 <__floatunsidf>
 200bc04:	9009883a 	mov	r4,r18
 200bc08:	a00b883a 	mov	r5,r20
 200bc0c:	100d883a 	mov	r6,r2
 200bc10:	180f883a 	mov	r7,r3
 200bc14:	200f9c40 	call	200f9c4 <__adddf3>
 200bc18:	d8800615 	stw	r2,24(sp)
 200bc1c:	d8c00715 	stw	r3,28(sp)
 200bc20:	008003c4 	movi	r2,15
 200bc24:	15401b16 	blt	r2,r21,200bc94 <_strtod_r+0x6a0>
 200bc28:	d8c01017 	ldw	r3,64(sp)
 200bc2c:	18001626 	beq	r3,zero,200bc88 <_strtod_r+0x694>
 200bc30:	d9001017 	ldw	r4,64(sp)
 200bc34:	01032e0e 	bge	zero,r4,200c8f0 <_strtod_r+0x12fc>
 200bc38:	00c00584 	movi	r3,22
 200bc3c:	19031016 	blt	r3,r4,200c880 <_strtod_r+0x128c>
 200bc40:	200490fa 	slli	r2,r4,3
 200bc44:	00c08234 	movhi	r3,520
 200bc48:	18dd9f04 	addi	r3,r3,30332
 200bc4c:	d9000617 	ldw	r4,24(sp)
 200bc50:	1885883a 	add	r2,r3,r2
 200bc54:	d9400717 	ldw	r5,28(sp)
 200bc58:	11800017 	ldw	r6,0(r2)
 200bc5c:	11c00117 	ldw	r7,4(r2)
 200bc60:	20015c00 	call	20015c0 <__muldf3>
 200bc64:	003f0406 	br	200b878 <__alt_mem_epcs_flash_controller+0xfe002878>
 200bc68:	00dffc34 	movhi	r3,32752
 200bc6c:	d8c00715 	stw	r3,28(sp)
 200bc70:	d8000615 	stw	zero,24(sp)
 200bc74:	1080020c 	andi	r2,r2,8
 200bc78:	10000326 	beq	r2,zero,200bc88 <_strtod_r+0x694>
 200bc7c:	d8800717 	ldw	r2,28(sp)
 200bc80:	10a00034 	orhi	r2,r2,32768
 200bc84:	d8800715 	stw	r2,28(sp)
 200bc88:	d8800617 	ldw	r2,24(sp)
 200bc8c:	d8c00717 	ldw	r3,28(sp)
 200bc90:	003ef906 	br	200b878 <__alt_mem_epcs_flash_controller+0xfe002878>
 200bc94:	d8801017 	ldw	r2,64(sp)
 200bc98:	ac63c83a 	sub	r17,r21,r17
 200bc9c:	1463883a 	add	r17,r2,r17
 200bca0:	0442a70e 	bge	zero,r17,200c740 <_strtod_r+0x114c>
 200bca4:	888003cc 	andi	r2,r17,15
 200bca8:	10000b26 	beq	r2,zero,200bcd8 <_strtod_r+0x6e4>
 200bcac:	100490fa 	slli	r2,r2,3
 200bcb0:	00c08234 	movhi	r3,520
 200bcb4:	18dd9f04 	addi	r3,r3,30332
 200bcb8:	d9000617 	ldw	r4,24(sp)
 200bcbc:	1885883a 	add	r2,r3,r2
 200bcc0:	d9400717 	ldw	r5,28(sp)
 200bcc4:	11800017 	ldw	r6,0(r2)
 200bcc8:	11c00117 	ldw	r7,4(r2)
 200bccc:	20015c00 	call	20015c0 <__muldf3>
 200bcd0:	d8800615 	stw	r2,24(sp)
 200bcd4:	d8c00715 	stw	r3,28(sp)
 200bcd8:	00bffc04 	movi	r2,-16
 200bcdc:	88a2703a 	and	r17,r17,r2
 200bce0:	8801a41e 	bne	r17,zero,200c374 <_strtod_r+0xd80>
 200bce4:	0029883a 	mov	r20,zero
 200bce8:	d9401417 	ldw	r5,80(sp)
 200bcec:	df000015 	stw	fp,0(sp)
 200bcf0:	8009883a 	mov	r4,r16
 200bcf4:	980d883a 	mov	r6,r19
 200bcf8:	a80f883a 	mov	r7,r21
 200bcfc:	2009cb00 	call	2009cb0 <__s2b>
 200bd00:	d8c01017 	ldw	r3,64(sp)
 200bd04:	102d883a 	mov	r22,r2
 200bd08:	b1000304 	addi	r4,r22,12
 200bd0c:	1805d7fa 	srai	r2,r3,31
 200bd10:	00f9c83a 	sub	fp,zero,r3
 200bd14:	d9001315 	stw	r4,76(sp)
 200bd18:	e0b8703a 	and	fp,fp,r2
 200bd1c:	df000e15 	stw	fp,56(sp)
 200bd20:	b1400117 	ldw	r5,4(r22)
 200bd24:	8009883a 	mov	r4,r16
 200bd28:	0027883a 	mov	r19,zero
 200bd2c:	2009a9c0 	call	2009a9c <_Balloc>
 200bd30:	b1800417 	ldw	r6,16(r22)
 200bd34:	d9401317 	ldw	r5,76(sp)
 200bd38:	11000304 	addi	r4,r2,12
 200bd3c:	31800084 	addi	r6,r6,2
 200bd40:	318d883a 	add	r6,r6,r6
 200bd44:	318d883a 	add	r6,r6,r6
 200bd48:	1025883a 	mov	r18,r2
 200bd4c:	20097d00 	call	20097d0 <memcpy>
 200bd50:	d9400617 	ldw	r5,24(sp)
 200bd54:	d9800717 	ldw	r6,28(sp)
 200bd58:	d8800a04 	addi	r2,sp,40
 200bd5c:	8009883a 	mov	r4,r16
 200bd60:	d9c00d04 	addi	r7,sp,52
 200bd64:	d8800015 	stw	r2,0(sp)
 200bd68:	200a7900 	call	200a790 <__d2b>
 200bd6c:	8009883a 	mov	r4,r16
 200bd70:	01400044 	movi	r5,1
 200bd74:	d8800b15 	stw	r2,44(sp)
 200bd78:	2009ecc0 	call	2009ecc <__i2b>
 200bd7c:	d8c01017 	ldw	r3,64(sp)
 200bd80:	1023883a 	mov	r17,r2
 200bd84:	00c0010e 	bge	zero,r3,200bd8c <_strtod_r+0x798>
 200bd88:	1827883a 	mov	r19,r3
 200bd8c:	d8800d17 	ldw	r2,52(sp)
 200bd90:	1000de16 	blt	r2,zero,200c10c <_strtod_r+0xb18>
 200bd94:	d9000e17 	ldw	r4,56(sp)
 200bd98:	9807883a 	mov	r3,r19
 200bd9c:	20af883a 	add	r23,r4,r2
 200bda0:	d9000a17 	ldw	r4,40(sp)
 200bda4:	1505c83a 	sub	r2,r2,r20
 200bda8:	017f00c4 	movi	r5,-1021
 200bdac:	110d883a 	add	r6,r2,r4
 200bdb0:	31409a0e 	bge	r6,r5,200c01c <_strtod_r+0xa28>
 200bdb4:	10810cc4 	addi	r2,r2,1075
 200bdb8:	b8b9883a 	add	fp,r23,r2
 200bdbc:	1885883a 	add	r2,r3,r2
 200bdc0:	152b883a 	add	r21,r2,r20
 200bdc4:	e005883a 	mov	r2,fp
 200bdc8:	bf00010e 	bge	r23,fp,200bdd0 <_strtod_r+0x7dc>
 200bdcc:	b805883a 	mov	r2,r23
 200bdd0:	a880010e 	bge	r21,r2,200bdd8 <_strtod_r+0x7e4>
 200bdd4:	a805883a 	mov	r2,r21
 200bdd8:	0080030e 	bge	zero,r2,200bde8 <_strtod_r+0x7f4>
 200bddc:	e0b9c83a 	sub	fp,fp,r2
 200bde0:	a8abc83a 	sub	r21,r21,r2
 200bde4:	b8afc83a 	sub	r23,r23,r2
 200bde8:	d9400e17 	ldw	r5,56(sp)
 200bdec:	28000f26 	beq	r5,zero,200be2c <_strtod_r+0x838>
 200bdf0:	280d883a 	mov	r6,r5
 200bdf4:	8009883a 	mov	r4,r16
 200bdf8:	880b883a 	mov	r5,r17
 200bdfc:	200a1600 	call	200a160 <__pow5mult>
 200be00:	d9800b17 	ldw	r6,44(sp)
 200be04:	8009883a 	mov	r4,r16
 200be08:	100b883a 	mov	r5,r2
 200be0c:	1023883a 	mov	r17,r2
 200be10:	2009f080 	call	2009f08 <__multiply>
 200be14:	d9400b17 	ldw	r5,44(sp)
 200be18:	8009883a 	mov	r4,r16
 200be1c:	d8801815 	stw	r2,96(sp)
 200be20:	2009b440 	call	2009b44 <_Bfree>
 200be24:	d8801817 	ldw	r2,96(sp)
 200be28:	d8800b15 	stw	r2,44(sp)
 200be2c:	0700050e 	bge	zero,fp,200be44 <_strtod_r+0x850>
 200be30:	d9400b17 	ldw	r5,44(sp)
 200be34:	8009883a 	mov	r4,r16
 200be38:	e00d883a 	mov	r6,fp
 200be3c:	200a28c0 	call	200a28c <__lshift>
 200be40:	d8800b15 	stw	r2,44(sp)
 200be44:	98000526 	beq	r19,zero,200be5c <_strtod_r+0x868>
 200be48:	900b883a 	mov	r5,r18
 200be4c:	8009883a 	mov	r4,r16
 200be50:	980d883a 	mov	r6,r19
 200be54:	200a1600 	call	200a160 <__pow5mult>
 200be58:	1025883a 	mov	r18,r2
 200be5c:	0540050e 	bge	zero,r21,200be74 <_strtod_r+0x880>
 200be60:	900b883a 	mov	r5,r18
 200be64:	8009883a 	mov	r4,r16
 200be68:	a80d883a 	mov	r6,r21
 200be6c:	200a28c0 	call	200a28c <__lshift>
 200be70:	1025883a 	mov	r18,r2
 200be74:	05c0050e 	bge	zero,r23,200be8c <_strtod_r+0x898>
 200be78:	880b883a 	mov	r5,r17
 200be7c:	8009883a 	mov	r4,r16
 200be80:	b80d883a 	mov	r6,r23
 200be84:	200a28c0 	call	200a28c <__lshift>
 200be88:	1023883a 	mov	r17,r2
 200be8c:	d9400b17 	ldw	r5,44(sp)
 200be90:	8009883a 	mov	r4,r16
 200be94:	900d883a 	mov	r6,r18
 200be98:	200a4400 	call	200a440 <__mdiff>
 200be9c:	1027883a 	mov	r19,r2
 200bea0:	10800317 	ldw	r2,12(r2)
 200bea4:	9809883a 	mov	r4,r19
 200bea8:	98000315 	stw	zero,12(r19)
 200beac:	880b883a 	mov	r5,r17
 200beb0:	d8800f15 	stw	r2,60(sp)
 200beb4:	200a3e80 	call	200a3e8 <__mcmp>
 200beb8:	1001cb16 	blt	r2,zero,200c5e8 <_strtod_r+0xff4>
 200bebc:	1001fa26 	beq	r2,zero,200c6a8 <_strtod_r+0x10b4>
 200bec0:	9809883a 	mov	r4,r19
 200bec4:	880b883a 	mov	r5,r17
 200bec8:	200a8d40 	call	200a8d4 <__ratio>
 200becc:	1009883a 	mov	r4,r2
 200bed0:	180b883a 	mov	r5,r3
 200bed4:	000d883a 	mov	r6,zero
 200bed8:	01d00034 	movhi	r7,16384
 200bedc:	102f883a 	mov	r23,r2
 200bee0:	1839883a 	mov	fp,r3
 200bee4:	200fc540 	call	200fc54 <__ledf2>
 200bee8:	00804f16 	blt	zero,r2,200c028 <_strtod_r+0xa34>
 200beec:	d9400f17 	ldw	r5,60(sp)
 200bef0:	28008926 	beq	r5,zero,200c118 <_strtod_r+0xb24>
 200bef4:	da400717 	ldw	r9,28(sp)
 200bef8:	05cffc34 	movhi	r23,16368
 200befc:	d8000815 	stw	zero,32(sp)
 200bf00:	ddc00915 	stw	r23,36(sp)
 200bf04:	002b883a 	mov	r21,zero
 200bf08:	4f1ffc2c 	andhi	fp,r9,32752
 200bf0c:	009ff834 	movhi	r2,32736
 200bf10:	e0805526 	beq	fp,r2,200c068 <_strtod_r+0xa74>
 200bf14:	a0001b26 	beq	r20,zero,200bf84 <_strtod_r+0x990>
 200bf18:	0081a834 	movhi	r2,1696
 200bf1c:	17001936 	bltu	r2,fp,200bf84 <_strtod_r+0x990>
 200bf20:	a809883a 	mov	r4,r21
 200bf24:	b80b883a 	mov	r5,r23
 200bf28:	01bff034 	movhi	r6,65472
 200bf2c:	01d07834 	movhi	r7,16864
 200bf30:	39ffffc4 	addi	r7,r7,-1
 200bf34:	200fc540 	call	200fc54 <__ledf2>
 200bf38:	00800d16 	blt	zero,r2,200bf70 <_strtod_r+0x97c>
 200bf3c:	a809883a 	mov	r4,r21
 200bf40:	b80b883a 	mov	r5,r23
 200bf44:	200e8700 	call	200e870 <__fixunsdfsi>
 200bf48:	1000d626 	beq	r2,zero,200c2a4 <_strtod_r+0xcb0>
 200bf4c:	1009883a 	mov	r4,r2
 200bf50:	200fd100 	call	200fd10 <__floatunsidf>
 200bf54:	102b883a 	mov	r21,r2
 200bf58:	182f883a 	mov	r23,r3
 200bf5c:	d9400f17 	ldw	r5,60(sp)
 200bf60:	2800ce1e 	bne	r5,zero,200c29c <_strtod_r+0xca8>
 200bf64:	b8a0003c 	xorhi	r2,r23,32768
 200bf68:	dd400815 	stw	r21,32(sp)
 200bf6c:	d8800915 	stw	r2,36(sp)
 200bf70:	d8c00917 	ldw	r3,36(sp)
 200bf74:	0081ac34 	movhi	r2,1712
 200bf78:	1885883a 	add	r2,r3,r2
 200bf7c:	1705c83a 	sub	r2,r2,fp
 200bf80:	d8800915 	stw	r2,36(sp)
 200bf84:	d9000617 	ldw	r4,24(sp)
 200bf88:	d9400717 	ldw	r5,28(sp)
 200bf8c:	200a5e80 	call	200a5e8 <__ulp>
 200bf90:	da800617 	ldw	r10,24(sp)
 200bf94:	da400717 	ldw	r9,28(sp)
 200bf98:	d9800817 	ldw	r6,32(sp)
 200bf9c:	d9c00917 	ldw	r7,36(sp)
 200bfa0:	1009883a 	mov	r4,r2
 200bfa4:	180b883a 	mov	r5,r3
 200bfa8:	da401915 	stw	r9,100(sp)
 200bfac:	da801815 	stw	r10,96(sp)
 200bfb0:	20015c00 	call	20015c0 <__muldf3>
 200bfb4:	da401917 	ldw	r9,100(sp)
 200bfb8:	da801817 	ldw	r10,96(sp)
 200bfbc:	100d883a 	mov	r6,r2
 200bfc0:	480b883a 	mov	r5,r9
 200bfc4:	5009883a 	mov	r4,r10
 200bfc8:	180f883a 	mov	r7,r3
 200bfcc:	200f9c40 	call	200f9c4 <__adddf3>
 200bfd0:	d8800615 	stw	r2,24(sp)
 200bfd4:	d8c00715 	stw	r3,28(sp)
 200bfd8:	1813883a 	mov	r9,r3
 200bfdc:	a000021e 	bne	r20,zero,200bfe8 <_strtod_r+0x9f4>
 200bfe0:	489ffc2c 	andhi	r2,r9,32752
 200bfe4:	e0807226 	beq	fp,r2,200c1b0 <_strtod_r+0xbbc>
 200bfe8:	d9400b17 	ldw	r5,44(sp)
 200bfec:	8009883a 	mov	r4,r16
 200bff0:	2009b440 	call	2009b44 <_Bfree>
 200bff4:	8009883a 	mov	r4,r16
 200bff8:	900b883a 	mov	r5,r18
 200bffc:	2009b440 	call	2009b44 <_Bfree>
 200c000:	8009883a 	mov	r4,r16
 200c004:	880b883a 	mov	r5,r17
 200c008:	2009b440 	call	2009b44 <_Bfree>
 200c00c:	8009883a 	mov	r4,r16
 200c010:	980b883a 	mov	r5,r19
 200c014:	2009b440 	call	2009b44 <_Bfree>
 200c018:	003f4106 	br	200bd20 <__alt_mem_epcs_flash_controller+0xfe002d20>
 200c01c:	00800d84 	movi	r2,54
 200c020:	1105c83a 	sub	r2,r2,r4
 200c024:	003f6406 	br	200bdb8 <__alt_mem_epcs_flash_controller+0xfe002db8>
 200c028:	b809883a 	mov	r4,r23
 200c02c:	e00b883a 	mov	r5,fp
 200c030:	000d883a 	mov	r6,zero
 200c034:	01cff834 	movhi	r7,16352
 200c038:	20015c00 	call	20015c0 <__muldf3>
 200c03c:	d9000f17 	ldw	r4,60(sp)
 200c040:	102b883a 	mov	r21,r2
 200c044:	182f883a 	mov	r23,r3
 200c048:	2000011e 	bne	r4,zero,200c050 <_strtod_r+0xa5c>
 200c04c:	18e0003c 	xorhi	r3,r3,32768
 200c050:	da400717 	ldw	r9,28(sp)
 200c054:	d8800815 	stw	r2,32(sp)
 200c058:	d8c00915 	stw	r3,36(sp)
 200c05c:	4f1ffc2c 	andhi	fp,r9,32752
 200c060:	009ff834 	movhi	r2,32736
 200c064:	e0bfab1e 	bne	fp,r2,200bf14 <__alt_mem_epcs_flash_controller+0xfe002f14>
 200c068:	d8800617 	ldw	r2,24(sp)
 200c06c:	00ff2c34 	movhi	r3,64688
 200c070:	48d3883a 	add	r9,r9,r3
 200c074:	1009883a 	mov	r4,r2
 200c078:	d8800415 	stw	r2,16(sp)
 200c07c:	d8800717 	ldw	r2,28(sp)
 200c080:	480b883a 	mov	r5,r9
 200c084:	da400715 	stw	r9,28(sp)
 200c088:	d8800515 	stw	r2,20(sp)
 200c08c:	200a5e80 	call	200a5e8 <__ulp>
 200c090:	da800617 	ldw	r10,24(sp)
 200c094:	da400717 	ldw	r9,28(sp)
 200c098:	d9800817 	ldw	r6,32(sp)
 200c09c:	d9c00917 	ldw	r7,36(sp)
 200c0a0:	1009883a 	mov	r4,r2
 200c0a4:	180b883a 	mov	r5,r3
 200c0a8:	da401915 	stw	r9,100(sp)
 200c0ac:	da801815 	stw	r10,96(sp)
 200c0b0:	20015c00 	call	20015c0 <__muldf3>
 200c0b4:	da801817 	ldw	r10,96(sp)
 200c0b8:	da401917 	ldw	r9,100(sp)
 200c0bc:	100d883a 	mov	r6,r2
 200c0c0:	5009883a 	mov	r4,r10
 200c0c4:	480b883a 	mov	r5,r9
 200c0c8:	180f883a 	mov	r7,r3
 200c0cc:	200f9c40 	call	200f9c4 <__adddf3>
 200c0d0:	d8800615 	stw	r2,24(sp)
 200c0d4:	015f2834 	movhi	r5,31904
 200c0d8:	297fffc4 	addi	r5,r5,-1
 200c0dc:	189ffc2c 	andhi	r2,r3,32752
 200c0e0:	2880642e 	bgeu	r5,r2,200c274 <_strtod_r+0xc80>
 200c0e4:	d8800517 	ldw	r2,20(sp)
 200c0e8:	00dffc34 	movhi	r3,32752
 200c0ec:	18ffffc4 	addi	r3,r3,-1
 200c0f0:	10c18526 	beq	r2,r3,200c708 <_strtod_r+0x1114>
 200c0f4:	011ffc34 	movhi	r4,32752
 200c0f8:	213fffc4 	addi	r4,r4,-1
 200c0fc:	00bfffc4 	movi	r2,-1
 200c100:	d9000715 	stw	r4,28(sp)
 200c104:	d8800615 	stw	r2,24(sp)
 200c108:	003fb706 	br	200bfe8 <__alt_mem_epcs_flash_controller+0xfe002fe8>
 200c10c:	9887c83a 	sub	r3,r19,r2
 200c110:	ddc00e17 	ldw	r23,56(sp)
 200c114:	003f2206 	br	200bda0 <__alt_mem_epcs_flash_controller+0xfe002da0>
 200c118:	d8800617 	ldw	r2,24(sp)
 200c11c:	10001a1e 	bne	r2,zero,200c188 <_strtod_r+0xb94>
 200c120:	da400717 	ldw	r9,28(sp)
 200c124:	00c00434 	movhi	r3,16
 200c128:	18ffffc4 	addi	r3,r3,-1
 200c12c:	48c4703a 	and	r2,r9,r3
 200c130:	1000191e 	bne	r2,zero,200c198 <_strtod_r+0xba4>
 200c134:	b809883a 	mov	r4,r23
 200c138:	e00b883a 	mov	r5,fp
 200c13c:	000d883a 	mov	r6,zero
 200c140:	01cffc34 	movhi	r7,16368
 200c144:	da401915 	stw	r9,100(sp)
 200c148:	200fbf80 	call	200fbf8 <__ltdf2>
 200c14c:	da401917 	ldw	r9,100(sp)
 200c150:	1001bb16 	blt	r2,zero,200c840 <_strtod_r+0x124c>
 200c154:	b809883a 	mov	r4,r23
 200c158:	e00b883a 	mov	r5,fp
 200c15c:	000d883a 	mov	r6,zero
 200c160:	01cff834 	movhi	r7,16352
 200c164:	20015c00 	call	20015c0 <__muldf3>
 200c168:	da401917 	ldw	r9,100(sp)
 200c16c:	182f883a 	mov	r23,r3
 200c170:	102b883a 	mov	r21,r2
 200c174:	1007883a 	mov	r3,r2
 200c178:	b8a0003c 	xorhi	r2,r23,32768
 200c17c:	d8c00815 	stw	r3,32(sp)
 200c180:	d8800915 	stw	r2,36(sp)
 200c184:	003f6006 	br	200bf08 <__alt_mem_epcs_flash_controller+0xfe002f08>
 200c188:	00c00044 	movi	r3,1
 200c18c:	da400717 	ldw	r9,28(sp)
 200c190:	10c0011e 	bne	r2,r3,200c198 <_strtod_r+0xba4>
 200c194:	4800c526 	beq	r9,zero,200c4ac <_strtod_r+0xeb8>
 200c198:	00affc34 	movhi	r2,49136
 200c19c:	d8000815 	stw	zero,32(sp)
 200c1a0:	d8800915 	stw	r2,36(sp)
 200c1a4:	002b883a 	mov	r21,zero
 200c1a8:	05cffc34 	movhi	r23,16368
 200c1ac:	003f5606 	br	200bf08 <__alt_mem_epcs_flash_controller+0xfe002f08>
 200c1b0:	b80b883a 	mov	r5,r23
 200c1b4:	a809883a 	mov	r4,r21
 200c1b8:	da401915 	stw	r9,100(sp)
 200c1bc:	2001b2c0 	call	2001b2c <__fixdfsi>
 200c1c0:	1009883a 	mov	r4,r2
 200c1c4:	2001a580 	call	2001a58 <__floatsidf>
 200c1c8:	b80b883a 	mov	r5,r23
 200c1cc:	a809883a 	mov	r4,r21
 200c1d0:	100d883a 	mov	r6,r2
 200c1d4:	180f883a 	mov	r7,r3
 200c1d8:	200fa180 	call	200fa18 <__subdf3>
 200c1dc:	102f883a 	mov	r23,r2
 200c1e0:	d8800f17 	ldw	r2,60(sp)
 200c1e4:	1839883a 	mov	fp,r3
 200c1e8:	da401917 	ldw	r9,100(sp)
 200c1ec:	1000021e 	bne	r2,zero,200c1f8 <_strtod_r+0xc04>
 200c1f0:	d8800617 	ldw	r2,24(sp)
 200c1f4:	10004826 	beq	r2,zero,200c318 <_strtod_r+0xd24>
 200c1f8:	b809883a 	mov	r4,r23
 200c1fc:	e00b883a 	mov	r5,fp
 200c200:	01a52834 	movhi	r6,38048
 200c204:	318d6544 	addi	r6,r6,13717
 200c208:	01cff834 	movhi	r7,16352
 200c20c:	39ffffc4 	addi	r7,r7,-1
 200c210:	200fbf80 	call	200fbf8 <__ltdf2>
 200c214:	10000716 	blt	r2,zero,200c234 <_strtod_r+0xc40>
 200c218:	b809883a 	mov	r4,r23
 200c21c:	e00b883a 	mov	r5,fp
 200c220:	018d6c34 	movhi	r6,13744
 200c224:	31b94d44 	addi	r6,r6,-6859
 200c228:	01cff834 	movhi	r7,16352
 200c22c:	200fb300 	call	200fb30 <__gtdf2>
 200c230:	00bf6d0e 	bge	zero,r2,200bfe8 <__alt_mem_epcs_flash_controller+0xfe002fe8>
 200c234:	d9400b17 	ldw	r5,44(sp)
 200c238:	8009883a 	mov	r4,r16
 200c23c:	2009b440 	call	2009b44 <_Bfree>
 200c240:	8009883a 	mov	r4,r16
 200c244:	900b883a 	mov	r5,r18
 200c248:	2009b440 	call	2009b44 <_Bfree>
 200c24c:	8009883a 	mov	r4,r16
 200c250:	880b883a 	mov	r5,r17
 200c254:	2009b440 	call	2009b44 <_Bfree>
 200c258:	8009883a 	mov	r4,r16
 200c25c:	b00b883a 	mov	r5,r22
 200c260:	2009b440 	call	2009b44 <_Bfree>
 200c264:	8009883a 	mov	r4,r16
 200c268:	980b883a 	mov	r5,r19
 200c26c:	2009b440 	call	2009b44 <_Bfree>
 200c270:	003e8506 	br	200bc88 <__alt_mem_epcs_flash_controller+0xfe002c88>
 200c274:	0240d434 	movhi	r9,848
 200c278:	1a53883a 	add	r9,r3,r9
 200c27c:	da400715 	stw	r9,28(sp)
 200c280:	003f5606 	br	200bfdc <__alt_mem_epcs_flash_controller+0xfe002fdc>
 200c284:	a827883a 	mov	r19,r21
 200c288:	dd801415 	stw	r22,80(sp)
 200c28c:	000d883a 	mov	r6,zero
 200c290:	0029883a 	mov	r20,zero
 200c294:	d8001015 	stw	zero,64(sp)
 200c298:	003d1d06 	br	200b710 <__alt_mem_epcs_flash_controller+0xfe002710>
 200c29c:	b805883a 	mov	r2,r23
 200c2a0:	003f3106 	br	200bf68 <__alt_mem_epcs_flash_controller+0xfe002f68>
 200c2a4:	002b883a 	mov	r21,zero
 200c2a8:	05cffc34 	movhi	r23,16368
 200c2ac:	003f2b06 	br	200bf5c <__alt_mem_epcs_flash_controller+0xfe002f5c>
 200c2b0:	d9400e17 	ldw	r5,56(sp)
 200c2b4:	0009883a 	mov	r4,zero
 200c2b8:	d9400c15 	stw	r5,48(sp)
 200c2bc:	003d1706 	br	200b71c <__alt_mem_epcs_flash_controller+0xfe00271c>
 200c2c0:	dd801415 	stw	r22,80(sp)
 200c2c4:	a82f883a 	mov	r23,r21
 200c2c8:	000d883a 	mov	r6,zero
 200c2cc:	0029883a 	mov	r20,zero
 200c2d0:	3dbff404 	addi	r22,r7,-48
 200c2d4:	00800244 	movi	r2,9
 200c2d8:	15802136 	bltu	r2,r22,200c360 <_strtod_r+0xd6c>
 200c2dc:	31800044 	addi	r6,r6,1
 200c2e0:	dc400c17 	ldw	r17,48(sp)
 200c2e4:	003daa06 	br	200b990 <__alt_mem_epcs_flash_controller+0xfe002990>
 200c2e8:	d8001515 	stw	zero,84(sp)
 200c2ec:	d9400e17 	ldw	r5,56(sp)
 200c2f0:	28800084 	addi	r2,r5,2
 200c2f4:	d8800c15 	stw	r2,48(sp)
 200c2f8:	29c00087 	ldb	r7,2(r5)
 200c2fc:	003ded06 	br	200bab4 <__alt_mem_epcs_flash_controller+0xfe002ab4>
 200c300:	00c00044 	movi	r3,1
 200c304:	d8c01515 	stw	r3,84(sp)
 200c308:	003ff806 	br	200c2ec <__alt_mem_epcs_flash_controller+0xfe0032ec>
 200c30c:	0005883a 	mov	r2,zero
 200c310:	0007883a 	mov	r3,zero
 200c314:	003d5806 	br	200b878 <__alt_mem_epcs_flash_controller+0xfe002878>
 200c318:	00c00434 	movhi	r3,16
 200c31c:	18ffffc4 	addi	r3,r3,-1
 200c320:	48d2703a 	and	r9,r9,r3
 200c324:	483fb41e 	bne	r9,zero,200c1f8 <__alt_mem_epcs_flash_controller+0xfe0031f8>
 200c328:	b809883a 	mov	r4,r23
 200c32c:	e00b883a 	mov	r5,fp
 200c330:	01a52834 	movhi	r6,38048
 200c334:	318d6544 	addi	r6,r6,13717
 200c338:	01cff434 	movhi	r7,16336
 200c33c:	39ffffc4 	addi	r7,r7,-1
 200c340:	200fbf80 	call	200fbf8 <__ltdf2>
 200c344:	103f280e 	bge	r2,zero,200bfe8 <__alt_mem_epcs_flash_controller+0xfe002fe8>
 200c348:	003fba06 	br	200c234 <__alt_mem_epcs_flash_controller+0xfe003234>
 200c34c:	d8c01317 	ldw	r3,76(sp)
 200c350:	183dce1e 	bne	r3,zero,200ba8c <__alt_mem_epcs_flash_controller+0xfe002a8c>
 200c354:	d8800617 	ldw	r2,24(sp)
 200c358:	d8c00717 	ldw	r3,28(sp)
 200c35c:	003d4306 	br	200b86c <__alt_mem_epcs_flash_controller+0xfe00286c>
 200c360:	00c00044 	movi	r3,1
 200c364:	a827883a 	mov	r19,r21
 200c368:	d8c01015 	stw	r3,64(sp)
 200c36c:	b82b883a 	mov	r21,r23
 200c370:	003ce506 	br	200b708 <__alt_mem_epcs_flash_controller+0xfe002708>
 200c374:	00804d04 	movi	r2,308
 200c378:	1440ec16 	blt	r2,r17,200c72c <_strtod_r+0x1138>
 200c37c:	8825d13a 	srai	r18,r17,4
 200c380:	05c00044 	movi	r23,1
 200c384:	bc81ca0e 	bge	r23,r18,200cab0 <_strtod_r+0x14bc>
 200c388:	d8800617 	ldw	r2,24(sp)
 200c38c:	d8c00717 	ldw	r3,28(sp)
 200c390:	05808234 	movhi	r22,520
 200c394:	b59d9504 	addi	r22,r22,30292
 200c398:	b029883a 	mov	r20,r22
 200c39c:	0023883a 	mov	r17,zero
 200c3a0:	9180004c 	andi	r6,r18,1
 200c3a4:	30000526 	beq	r6,zero,200c3bc <_strtod_r+0xdc8>
 200c3a8:	a1800017 	ldw	r6,0(r20)
 200c3ac:	a1c00117 	ldw	r7,4(r20)
 200c3b0:	1009883a 	mov	r4,r2
 200c3b4:	180b883a 	mov	r5,r3
 200c3b8:	20015c00 	call	20015c0 <__muldf3>
 200c3bc:	9025d07a 	srai	r18,r18,1
 200c3c0:	8c400044 	addi	r17,r17,1
 200c3c4:	a5000204 	addi	r20,r20,8
 200c3c8:	bcbff516 	blt	r23,r18,200c3a0 <__alt_mem_epcs_flash_controller+0xfe0033a0>
 200c3cc:	d8800615 	stw	r2,24(sp)
 200c3d0:	d8c00715 	stw	r3,28(sp)
 200c3d4:	880490fa 	slli	r2,r17,3
 200c3d8:	d9400717 	ldw	r5,28(sp)
 200c3dc:	d9000617 	ldw	r4,24(sp)
 200c3e0:	b0a3883a 	add	r17,r22,r2
 200c3e4:	89800017 	ldw	r6,0(r17)
 200c3e8:	89c00117 	ldw	r7,4(r17)
 200c3ec:	00bf2c34 	movhi	r2,64688
 200c3f0:	288b883a 	add	r5,r5,r2
 200c3f4:	20015c00 	call	20015c0 <__muldf3>
 200c3f8:	d8800615 	stw	r2,24(sp)
 200c3fc:	011f2834 	movhi	r4,31904
 200c400:	189ffc2c 	andhi	r2,r3,32752
 200c404:	2080c936 	bltu	r4,r2,200c72c <_strtod_r+0x1138>
 200c408:	011f2434 	movhi	r4,31888
 200c40c:	2081652e 	bgeu	r4,r2,200c9a4 <_strtod_r+0x13b0>
 200c410:	009ffc34 	movhi	r2,32752
 200c414:	10bfffc4 	addi	r2,r2,-1
 200c418:	d8800715 	stw	r2,28(sp)
 200c41c:	00bfffc4 	movi	r2,-1
 200c420:	d8800615 	stw	r2,24(sp)
 200c424:	003e2f06 	br	200bce4 <__alt_mem_epcs_flash_controller+0xfe002ce4>
 200c428:	00c00044 	movi	r3,1
 200c42c:	0027883a 	mov	r19,zero
 200c430:	dd801415 	stw	r22,80(sp)
 200c434:	0029883a 	mov	r20,zero
 200c438:	d8c01015 	stw	r3,64(sp)
 200c43c:	003cb206 	br	200b708 <__alt_mem_epcs_flash_controller+0xfe002708>
 200c440:	d8800717 	ldw	r2,28(sp)
 200c444:	00c00434 	movhi	r3,16
 200c448:	18ffffc4 	addi	r3,r3,-1
 200c44c:	10c6703a 	and	r3,r2,r3
 200c450:	1801471e 	bne	r3,zero,200c970 <_strtod_r+0x137c>
 200c454:	d8c00617 	ldw	r3,24(sp)
 200c458:	18007e26 	beq	r3,zero,200c654 <_strtod_r+0x1060>
 200c45c:	18c0004c 	andi	r3,r3,1
 200c460:	1800a726 	beq	r3,zero,200c700 <_strtod_r+0x110c>
 200c464:	ddc00617 	ldw	r23,24(sp)
 200c468:	dd400717 	ldw	r21,28(sp)
 200c46c:	b809883a 	mov	r4,r23
 200c470:	a80b883a 	mov	r5,r21
 200c474:	200a5e80 	call	200a5e8 <__ulp>
 200c478:	b809883a 	mov	r4,r23
 200c47c:	a80b883a 	mov	r5,r21
 200c480:	100d883a 	mov	r6,r2
 200c484:	180f883a 	mov	r7,r3
 200c488:	200fa180 	call	200fa18 <__subdf3>
 200c48c:	1009883a 	mov	r4,r2
 200c490:	180b883a 	mov	r5,r3
 200c494:	000d883a 	mov	r6,zero
 200c498:	000f883a 	mov	r7,zero
 200c49c:	d8800615 	stw	r2,24(sp)
 200c4a0:	d8c00715 	stw	r3,28(sp)
 200c4a4:	200fa780 	call	200fa78 <__eqdf2>
 200c4a8:	1000951e 	bne	r2,zero,200c700 <_strtod_r+0x110c>
 200c4ac:	d8000615 	stw	zero,24(sp)
 200c4b0:	d8000715 	stw	zero,28(sp)
 200c4b4:	00800884 	movi	r2,34
 200c4b8:	80800015 	stw	r2,0(r16)
 200c4bc:	003f5d06 	br	200c234 <__alt_mem_epcs_flash_controller+0xfe003234>
 200c4c0:	00800404 	movi	r2,16
 200c4c4:	153d4916 	blt	r2,r20,200b9ec <__alt_mem_epcs_flash_controller+0xfe0029ec>
 200c4c8:	8009883a 	mov	r4,r16
 200c4cc:	01400284 	movi	r5,10
 200c4d0:	2001d200 	call	2001d20 <__mulsi3>
 200c4d4:	1021883a 	mov	r16,r2
 200c4d8:	003d4406 	br	200b9ec <__alt_mem_epcs_flash_controller+0xfe0029ec>
 200c4dc:	d9001217 	ldw	r4,72(sp)
 200c4e0:	d8800b04 	addi	r2,sp,44
 200c4e4:	04c08274 	movhi	r19,521
 200c4e8:	9ce06004 	addi	r19,r19,-32384
 200c4ec:	d9000115 	stw	r4,4(sp)
 200c4f0:	d8800015 	stw	r2,0(sp)
 200c4f4:	8009883a 	mov	r4,r16
 200c4f8:	d9400c04 	addi	r5,sp,48
 200c4fc:	980d883a 	mov	r6,r19
 200c500:	d9c00a04 	addi	r7,sp,40
 200c504:	200de080 	call	200de08 <__gethex>
 200c508:	148001cc 	andi	r18,r2,7
 200c50c:	903dde26 	beq	r18,zero,200bc88 <__alt_mem_epcs_flash_controller+0xfe002c88>
 200c510:	00c00184 	movi	r3,6
 200c514:	90c0f226 	beq	r18,r3,200c8e0 <_strtod_r+0x12ec>
 200c518:	d9800b17 	ldw	r6,44(sp)
 200c51c:	30000826 	beq	r6,zero,200c540 <_strtod_r+0xf4c>
 200c520:	99400017 	ldw	r5,0(r19)
 200c524:	d9000204 	addi	r4,sp,8
 200c528:	d8801815 	stw	r2,96(sp)
 200c52c:	200a9ec0 	call	200a9ec <__copybits>
 200c530:	d9400b17 	ldw	r5,44(sp)
 200c534:	8009883a 	mov	r4,r16
 200c538:	2009b440 	call	2009b44 <_Bfree>
 200c53c:	d8801817 	ldw	r2,96(sp)
 200c540:	00c00184 	movi	r3,6
 200c544:	d9000a17 	ldw	r4,40(sp)
 200c548:	1cbdca36 	bltu	r3,r18,200bc74 <__alt_mem_epcs_flash_controller+0xfe002c74>
 200c54c:	94a5883a 	add	r18,r18,r18
 200c550:	94a5883a 	add	r18,r18,r18
 200c554:	00c08074 	movhi	r3,513
 200c558:	18f15a04 	addi	r3,r3,-15000
 200c55c:	90c7883a 	add	r3,r18,r3
 200c560:	18c00017 	ldw	r3,0(r3)
 200c564:	1800683a 	jmp	r3
 200c568:	0200c5dc 	xori	r8,zero,791
 200c56c:	0200c598 	cmpnei	r8,zero,790
 200c570:	0200c584 	movi	r8,790
 200c574:	0200bc68 	cmpgeui	r8,zero,753
 200c578:	0200c5c4 	movi	r8,791
 200c57c:	0200c598 	cmpnei	r8,zero,790
 200c580:	0200c5dc 	xori	r8,zero,791
 200c584:	d8c00217 	ldw	r3,8(sp)
 200c588:	d8c00615 	stw	r3,24(sp)
 200c58c:	d8c00317 	ldw	r3,12(sp)
 200c590:	d8c00715 	stw	r3,28(sp)
 200c594:	003db706 	br	200bc74 <__alt_mem_epcs_flash_controller+0xfe002c74>
 200c598:	21010cc4 	addi	r4,r4,1075
 200c59c:	d9400317 	ldw	r5,12(sp)
 200c5a0:	2008953a 	slli	r4,r4,20
 200c5a4:	00fffc34 	movhi	r3,65520
 200c5a8:	18ffffc4 	addi	r3,r3,-1
 200c5ac:	28c6703a 	and	r3,r5,r3
 200c5b0:	20c6b03a 	or	r3,r4,r3
 200c5b4:	d9000217 	ldw	r4,8(sp)
 200c5b8:	d8c00715 	stw	r3,28(sp)
 200c5bc:	d9000615 	stw	r4,24(sp)
 200c5c0:	003dac06 	br	200bc74 <__alt_mem_epcs_flash_controller+0xfe002c74>
 200c5c4:	00e00034 	movhi	r3,32768
 200c5c8:	18ffffc4 	addi	r3,r3,-1
 200c5cc:	d8c00715 	stw	r3,28(sp)
 200c5d0:	00ffffc4 	movi	r3,-1
 200c5d4:	d8c00615 	stw	r3,24(sp)
 200c5d8:	003da606 	br	200bc74 <__alt_mem_epcs_flash_controller+0xfe002c74>
 200c5dc:	d8000715 	stw	zero,28(sp)
 200c5e0:	d8000615 	stw	zero,24(sp)
 200c5e4:	003da306 	br	200bc74 <__alt_mem_epcs_flash_controller+0xfe002c74>
 200c5e8:	d8c00f17 	ldw	r3,60(sp)
 200c5ec:	1800441e 	bne	r3,zero,200c700 <_strtod_r+0x110c>
 200c5f0:	d8800617 	ldw	r2,24(sp)
 200c5f4:	1000421e 	bne	r2,zero,200c700 <_strtod_r+0x110c>
 200c5f8:	d8800717 	ldw	r2,28(sp)
 200c5fc:	00c00434 	movhi	r3,16
 200c600:	18ffffc4 	addi	r3,r3,-1
 200c604:	10c6703a 	and	r3,r2,r3
 200c608:	18003d1e 	bne	r3,zero,200c700 <_strtod_r+0x110c>
 200c60c:	109ffc2c 	andhi	r2,r2,32752
 200c610:	00c1ac34 	movhi	r3,1712
 200c614:	18803a2e 	bgeu	r3,r2,200c700 <_strtod_r+0x110c>
 200c618:	98800517 	ldw	r2,20(r19)
 200c61c:	1000031e 	bne	r2,zero,200c62c <_strtod_r+0x1038>
 200c620:	98800417 	ldw	r2,16(r19)
 200c624:	00c00044 	movi	r3,1
 200c628:	1880350e 	bge	r3,r2,200c700 <_strtod_r+0x110c>
 200c62c:	980b883a 	mov	r5,r19
 200c630:	8009883a 	mov	r4,r16
 200c634:	01800044 	movi	r6,1
 200c638:	200a28c0 	call	200a28c <__lshift>
 200c63c:	1009883a 	mov	r4,r2
 200c640:	880b883a 	mov	r5,r17
 200c644:	1027883a 	mov	r19,r2
 200c648:	200a3e80 	call	200a3e8 <__mcmp>
 200c64c:	00802c0e 	bge	zero,r2,200c700 <_strtod_r+0x110c>
 200c650:	d8800717 	ldw	r2,28(sp)
 200c654:	109ffc2c 	andhi	r2,r2,32752
 200c658:	a000ed26 	beq	r20,zero,200ca10 <_strtod_r+0x141c>
 200c65c:	00c1ac34 	movhi	r3,1712
 200c660:	1880eb36 	bltu	r3,r2,200ca10 <_strtod_r+0x141c>
 200c664:	00c0dc34 	movhi	r3,880
 200c668:	18bf902e 	bgeu	r3,r2,200c4ac <__alt_mem_epcs_flash_controller+0xfe0034ac>
 200c66c:	d9000617 	ldw	r4,24(sp)
 200c670:	d9400717 	ldw	r5,28(sp)
 200c674:	008e5434 	movhi	r2,14672
 200c678:	000d883a 	mov	r6,zero
 200c67c:	100f883a 	mov	r7,r2
 200c680:	d8800515 	stw	r2,20(sp)
 200c684:	d8000415 	stw	zero,16(sp)
 200c688:	20015c00 	call	20015c0 <__muldf3>
 200c68c:	d8800615 	stw	r2,24(sp)
 200c690:	d8c00715 	stw	r3,28(sp)
 200c694:	183ee71e 	bne	r3,zero,200c234 <__alt_mem_epcs_flash_controller+0xfe003234>
 200c698:	103ee61e 	bne	r2,zero,200c234 <__alt_mem_epcs_flash_controller+0xfe003234>
 200c69c:	00800884 	movi	r2,34
 200c6a0:	80800015 	stw	r2,0(r16)
 200c6a4:	003ee306 	br	200c234 <__alt_mem_epcs_flash_controller+0xfe003234>
 200c6a8:	d9000f17 	ldw	r4,60(sp)
 200c6ac:	203f6426 	beq	r4,zero,200c440 <__alt_mem_epcs_flash_controller+0xfe003440>
 200c6b0:	d8c00717 	ldw	r3,28(sp)
 200c6b4:	00800434 	movhi	r2,16
 200c6b8:	10bfffc4 	addi	r2,r2,-1
 200c6bc:	1888703a 	and	r4,r3,r2
 200c6c0:	2080bd26 	beq	r4,r2,200c9b8 <_strtod_r+0x13c4>
 200c6c4:	d8800617 	ldw	r2,24(sp)
 200c6c8:	1080004c 	andi	r2,r2,1
 200c6cc:	10000c26 	beq	r2,zero,200c700 <_strtod_r+0x110c>
 200c6d0:	ddc00617 	ldw	r23,24(sp)
 200c6d4:	dd400717 	ldw	r21,28(sp)
 200c6d8:	b809883a 	mov	r4,r23
 200c6dc:	a80b883a 	mov	r5,r21
 200c6e0:	200a5e80 	call	200a5e8 <__ulp>
 200c6e4:	b809883a 	mov	r4,r23
 200c6e8:	a80b883a 	mov	r5,r21
 200c6ec:	100d883a 	mov	r6,r2
 200c6f0:	180f883a 	mov	r7,r3
 200c6f4:	200f9c40 	call	200f9c4 <__adddf3>
 200c6f8:	d8800615 	stw	r2,24(sp)
 200c6fc:	d8c00715 	stw	r3,28(sp)
 200c700:	a03fda1e 	bne	r20,zero,200c66c <__alt_mem_epcs_flash_controller+0xfe00366c>
 200c704:	003ecb06 	br	200c234 <__alt_mem_epcs_flash_controller+0xfe003234>
 200c708:	d8c00417 	ldw	r3,16(sp)
 200c70c:	00bfffc4 	movi	r2,-1
 200c710:	18be781e 	bne	r3,r2,200c0f4 <__alt_mem_epcs_flash_controller+0xfe0030f4>
 200c714:	00800884 	movi	r2,34
 200c718:	80800015 	stw	r2,0(r16)
 200c71c:	009ffc34 	movhi	r2,32752
 200c720:	d8800715 	stw	r2,28(sp)
 200c724:	d8000615 	stw	zero,24(sp)
 200c728:	003ec206 	br	200c234 <__alt_mem_epcs_flash_controller+0xfe003234>
 200c72c:	00800884 	movi	r2,34
 200c730:	80800015 	stw	r2,0(r16)
 200c734:	00dffc34 	movhi	r3,32752
 200c738:	0005883a 	mov	r2,zero
 200c73c:	003c4e06 	br	200b878 <__alt_mem_epcs_flash_controller+0xfe002878>
 200c740:	883d6826 	beq	r17,zero,200bce4 <__alt_mem_epcs_flash_controller+0xfe002ce4>
 200c744:	0463c83a 	sub	r17,zero,r17
 200c748:	888003cc 	andi	r2,r17,15
 200c74c:	10000b26 	beq	r2,zero,200c77c <_strtod_r+0x1188>
 200c750:	100490fa 	slli	r2,r2,3
 200c754:	00c08234 	movhi	r3,520
 200c758:	18dd9f04 	addi	r3,r3,30332
 200c75c:	d9000617 	ldw	r4,24(sp)
 200c760:	1885883a 	add	r2,r3,r2
 200c764:	d9400717 	ldw	r5,28(sp)
 200c768:	11800017 	ldw	r6,0(r2)
 200c76c:	11c00117 	ldw	r7,4(r2)
 200c770:	20018a40 	call	20018a4 <__divdf3>
 200c774:	d8800615 	stw	r2,24(sp)
 200c778:	d8c00715 	stw	r3,28(sp)
 200c77c:	8823d13a 	srai	r17,r17,4
 200c780:	883d5826 	beq	r17,zero,200bce4 <__alt_mem_epcs_flash_controller+0xfe002ce4>
 200c784:	008007c4 	movi	r2,31
 200c788:	14402816 	blt	r2,r17,200c82c <_strtod_r+0x1238>
 200c78c:	8880040c 	andi	r2,r17,16
 200c790:	1000cf1e 	bne	r2,zero,200cad0 <_strtod_r+0x14dc>
 200c794:	0029883a 	mov	r20,zero
 200c798:	0440100e 	bge	zero,r17,200c7dc <_strtod_r+0x11e8>
 200c79c:	d8800617 	ldw	r2,24(sp)
 200c7a0:	d8c00717 	ldw	r3,28(sp)
 200c7a4:	04808234 	movhi	r18,520
 200c7a8:	949dd804 	addi	r18,r18,30560
 200c7ac:	8980004c 	andi	r6,r17,1
 200c7b0:	30000526 	beq	r6,zero,200c7c8 <_strtod_r+0x11d4>
 200c7b4:	91800017 	ldw	r6,0(r18)
 200c7b8:	91c00117 	ldw	r7,4(r18)
 200c7bc:	1009883a 	mov	r4,r2
 200c7c0:	180b883a 	mov	r5,r3
 200c7c4:	20015c00 	call	20015c0 <__muldf3>
 200c7c8:	8823d07a 	srai	r17,r17,1
 200c7cc:	94800204 	addi	r18,r18,8
 200c7d0:	883ff61e 	bne	r17,zero,200c7ac <__alt_mem_epcs_flash_controller+0xfe0037ac>
 200c7d4:	d8800615 	stw	r2,24(sp)
 200c7d8:	d8c00715 	stw	r3,28(sp)
 200c7dc:	a0000d26 	beq	r20,zero,200c814 <_strtod_r+0x1220>
 200c7e0:	d8c00717 	ldw	r3,28(sp)
 200c7e4:	01001ac4 	movi	r4,107
 200c7e8:	189ffc2c 	andhi	r2,r3,32752
 200c7ec:	1004d53a 	srli	r2,r2,20
 200c7f0:	2085c83a 	sub	r2,r4,r2
 200c7f4:	0080070e 	bge	zero,r2,200c814 <_strtod_r+0x1220>
 200c7f8:	010007c4 	movi	r4,31
 200c7fc:	2080c30e 	bge	r4,r2,200cb0c <_strtod_r+0x1518>
 200c800:	d8000615 	stw	zero,24(sp)
 200c804:	01000d04 	movi	r4,52
 200c808:	2080c60e 	bge	r4,r2,200cb24 <_strtod_r+0x1530>
 200c80c:	0080dc34 	movhi	r2,880
 200c810:	d8800715 	stw	r2,28(sp)
 200c814:	d9000617 	ldw	r4,24(sp)
 200c818:	d9400717 	ldw	r5,28(sp)
 200c81c:	000d883a 	mov	r6,zero
 200c820:	000f883a 	mov	r7,zero
 200c824:	200fa780 	call	200fa78 <__eqdf2>
 200c828:	103d2f1e 	bne	r2,zero,200bce8 <__alt_mem_epcs_flash_controller+0xfe002ce8>
 200c82c:	00800884 	movi	r2,34
 200c830:	80800015 	stw	r2,0(r16)
 200c834:	0007883a 	mov	r3,zero
 200c838:	0005883a 	mov	r2,zero
 200c83c:	003c0e06 	br	200b878 <__alt_mem_epcs_flash_controller+0xfe002878>
 200c840:	0007883a 	mov	r3,zero
 200c844:	00aff834 	movhi	r2,49120
 200c848:	002b883a 	mov	r21,zero
 200c84c:	05cff834 	movhi	r23,16352
 200c850:	003e4a06 	br	200c17c <__alt_mem_epcs_flash_controller+0xfe00317c>
 200c854:	011387c4 	movi	r4,19999
 200c858:	003cca06 	br	200bb84 <__alt_mem_epcs_flash_controller+0xfe002b84>
 200c85c:	b00b883a 	mov	r5,r22
 200c860:	d8000f15 	stw	zero,60(sp)
 200c864:	0039883a 	mov	fp,zero
 200c868:	002b883a 	mov	r21,zero
 200c86c:	003c2d06 	br	200b924 <__alt_mem_epcs_flash_controller+0xfe002924>
 200c870:	d8000f15 	stw	zero,60(sp)
 200c874:	0039883a 	mov	fp,zero
 200c878:	002b883a 	mov	r21,zero
 200c87c:	003b9d06 	br	200b6f4 <__alt_mem_epcs_flash_controller+0xfe0026f4>
 200c880:	d9401017 	ldw	r5,64(sp)
 200c884:	00c00944 	movi	r3,37
 200c888:	1d47c83a 	sub	r3,r3,r21
 200c88c:	197d0116 	blt	r3,r5,200bc94 <__alt_mem_epcs_flash_controller+0xfe002c94>
 200c890:	1563c83a 	sub	r17,r2,r21
 200c894:	880490fa 	slli	r2,r17,3
 200c898:	04008234 	movhi	r16,520
 200c89c:	841d9f04 	addi	r16,r16,30332
 200c8a0:	d9000617 	ldw	r4,24(sp)
 200c8a4:	8085883a 	add	r2,r16,r2
 200c8a8:	d9400717 	ldw	r5,28(sp)
 200c8ac:	11800017 	ldw	r6,0(r2)
 200c8b0:	11c00117 	ldw	r7,4(r2)
 200c8b4:	20015c00 	call	20015c0 <__muldf3>
 200c8b8:	d9001017 	ldw	r4,64(sp)
 200c8bc:	180b883a 	mov	r5,r3
 200c8c0:	244dc83a 	sub	r6,r4,r17
 200c8c4:	300c90fa 	slli	r6,r6,3
 200c8c8:	1009883a 	mov	r4,r2
 200c8cc:	81a1883a 	add	r16,r16,r6
 200c8d0:	81800017 	ldw	r6,0(r16)
 200c8d4:	81c00117 	ldw	r7,4(r16)
 200c8d8:	20015c00 	call	20015c0 <__muldf3>
 200c8dc:	003be606 	br	200b878 <__alt_mem_epcs_flash_controller+0xfe002878>
 200c8e0:	d9400e17 	ldw	r5,56(sp)
 200c8e4:	d8001215 	stw	zero,72(sp)
 200c8e8:	d9400c15 	stw	r5,48(sp)
 200c8ec:	003ce606 	br	200bc88 <__alt_mem_epcs_flash_controller+0xfe002c88>
 200c8f0:	d9401017 	ldw	r5,64(sp)
 200c8f4:	00bffa84 	movi	r2,-22
 200c8f8:	28bce616 	blt	r5,r2,200bc94 <__alt_mem_epcs_flash_controller+0xfe002c94>
 200c8fc:	280490fa 	slli	r2,r5,3
 200c900:	00c08234 	movhi	r3,520
 200c904:	18dd9f04 	addi	r3,r3,30332
 200c908:	d9000617 	ldw	r4,24(sp)
 200c90c:	1885c83a 	sub	r2,r3,r2
 200c910:	d9400717 	ldw	r5,28(sp)
 200c914:	11800017 	ldw	r6,0(r2)
 200c918:	11c00117 	ldw	r7,4(r2)
 200c91c:	20018a40 	call	20018a4 <__divdf3>
 200c920:	003bd506 	br	200b878 <__alt_mem_epcs_flash_controller+0xfe002878>
 200c924:	00801a44 	movi	r2,105
 200c928:	38bb8726 	beq	r7,r2,200b748 <__alt_mem_epcs_flash_controller+0xfe002748>
 200c92c:	00801b84 	movi	r2,110
 200c930:	38be881e 	bne	r7,r2,200c354 <__alt_mem_epcs_flash_controller+0xfe003354>
 200c934:	d8c00c17 	ldw	r3,48(sp)
 200c938:	01008234 	movhi	r4,520
 200c93c:	211dd704 	addi	r4,r4,30556
 200c940:	01801004 	movi	r6,64
 200c944:	01c01684 	movi	r7,90
 200c948:	21400007 	ldb	r5,0(r4)
 200c94c:	21000044 	addi	r4,r4,1
 200c950:	28004e26 	beq	r5,zero,200ca8c <_strtod_r+0x1498>
 200c954:	18c00044 	addi	r3,r3,1
 200c958:	18800007 	ldb	r2,0(r3)
 200c95c:	3080020e 	bge	r6,r2,200c968 <_strtod_r+0x1374>
 200c960:	38800116 	blt	r7,r2,200c968 <_strtod_r+0x1374>
 200c964:	10800804 	addi	r2,r2,32
 200c968:	117ff726 	beq	r2,r5,200c948 <__alt_mem_epcs_flash_controller+0xfe003948>
 200c96c:	003e7906 	br	200c354 <__alt_mem_epcs_flash_controller+0xfe003354>
 200c970:	d8c00617 	ldw	r3,24(sp)
 200c974:	003eb906 	br	200c45c <__alt_mem_epcs_flash_controller+0xfe00345c>
 200c978:	00800404 	movi	r2,16
 200c97c:	15c02216 	blt	r2,r23,200ca08 <_strtod_r+0x1414>
 200c980:	d9000f17 	ldw	r4,60(sp)
 200c984:	01400284 	movi	r5,10
 200c988:	2001d200 	call	2001d20 <__mulsi3>
 200c98c:	15ad883a 	add	r22,r2,r22
 200c990:	dd800f15 	stw	r22,60(sp)
 200c994:	000d883a 	mov	r6,zero
 200c998:	003c2606 	br	200ba34 <__alt_mem_epcs_flash_controller+0xfe002a34>
 200c99c:	000d883a 	mov	r6,zero
 200c9a0:	003bf106 	br	200b968 <__alt_mem_epcs_flash_controller+0xfe002968>
 200c9a4:	0080d434 	movhi	r2,848
 200c9a8:	1887883a 	add	r3,r3,r2
 200c9ac:	d8c00715 	stw	r3,28(sp)
 200c9b0:	0029883a 	mov	r20,zero
 200c9b4:	003ccc06 	br	200bce8 <__alt_mem_epcs_flash_controller+0xfe002ce8>
 200c9b8:	d8800617 	ldw	r2,24(sp)
 200c9bc:	a0001026 	beq	r20,zero,200ca00 <_strtod_r+0x140c>
 200c9c0:	191ffc2c 	andhi	r4,r3,32752
 200c9c4:	0141a834 	movhi	r5,1696
 200c9c8:	29000d36 	bltu	r5,r4,200ca00 <_strtod_r+0x140c>
 200c9cc:	2008d53a 	srli	r4,r4,20
 200c9d0:	01401ac4 	movi	r5,107
 200c9d4:	2909c83a 	sub	r4,r5,r4
 200c9d8:	017fffc4 	movi	r5,-1
 200c9dc:	2908983a 	sll	r4,r5,r4
 200c9e0:	113f391e 	bne	r2,r4,200c6c8 <__alt_mem_epcs_flash_controller+0xfe0036c8>
 200c9e4:	18dffc2c 	andhi	r3,r3,32752
 200c9e8:	00800434 	movhi	r2,16
 200c9ec:	1885883a 	add	r2,r3,r2
 200c9f0:	d8800715 	stw	r2,28(sp)
 200c9f4:	d8000615 	stw	zero,24(sp)
 200c9f8:	a03f1c1e 	bne	r20,zero,200c66c <__alt_mem_epcs_flash_controller+0xfe00366c>
 200c9fc:	003e0d06 	br	200c234 <__alt_mem_epcs_flash_controller+0xfe003234>
 200ca00:	013fffc4 	movi	r4,-1
 200ca04:	003ff606 	br	200c9e0 <__alt_mem_epcs_flash_controller+0xfe0039e0>
 200ca08:	000d883a 	mov	r6,zero
 200ca0c:	003c0906 	br	200ba34 <__alt_mem_epcs_flash_controller+0xfe002a34>
 200ca10:	00fffc34 	movhi	r3,65520
 200ca14:	10c5883a 	add	r2,r2,r3
 200ca18:	00c00434 	movhi	r3,16
 200ca1c:	18ffffc4 	addi	r3,r3,-1
 200ca20:	10c4b03a 	or	r2,r2,r3
 200ca24:	d8800715 	stw	r2,28(sp)
 200ca28:	00bfffc4 	movi	r2,-1
 200ca2c:	d8800615 	stw	r2,24(sp)
 200ca30:	a03f0e1e 	bne	r20,zero,200c66c <__alt_mem_epcs_flash_controller+0xfe00366c>
 200ca34:	003dff06 	br	200c234 <__alt_mem_epcs_flash_controller+0xfe003234>
 200ca38:	1011883a 	mov	r8,r2
 200ca3c:	d8800c15 	stw	r2,48(sp)
 200ca40:	01008234 	movhi	r4,520
 200ca44:	211dd504 	addi	r4,r4,30548
 200ca48:	01801004 	movi	r6,64
 200ca4c:	01c01684 	movi	r7,90
 200ca50:	21400007 	ldb	r5,0(r4)
 200ca54:	10800044 	addi	r2,r2,1
 200ca58:	21000044 	addi	r4,r4,1
 200ca5c:	28001a26 	beq	r5,zero,200cac8 <_strtod_r+0x14d4>
 200ca60:	10c00007 	ldb	r3,0(r2)
 200ca64:	30c0020e 	bge	r6,r3,200ca70 <_strtod_r+0x147c>
 200ca68:	38c00116 	blt	r7,r3,200ca70 <_strtod_r+0x147c>
 200ca6c:	18c00804 	addi	r3,r3,32
 200ca70:	197ff726 	beq	r3,r5,200ca50 <__alt_mem_epcs_flash_controller+0xfe003a50>
 200ca74:	40800044 	addi	r2,r8,1
 200ca78:	d8800c15 	stw	r2,48(sp)
 200ca7c:	009ffc34 	movhi	r2,32752
 200ca80:	d8800715 	stw	r2,28(sp)
 200ca84:	d8000615 	stw	zero,24(sp)
 200ca88:	003c7f06 	br	200bc88 <__alt_mem_epcs_flash_controller+0xfe002c88>
 200ca8c:	18800044 	addi	r2,r3,1
 200ca90:	d8800c15 	stw	r2,48(sp)
 200ca94:	18c00047 	ldb	r3,1(r3)
 200ca98:	00800a04 	movi	r2,40
 200ca9c:	18800e26 	beq	r3,r2,200cad8 <_strtod_r+0x14e4>
 200caa0:	00bffe34 	movhi	r2,65528
 200caa4:	d8800715 	stw	r2,28(sp)
 200caa8:	d8000615 	stw	zero,24(sp)
 200caac:	003c7606 	br	200bc88 <__alt_mem_epcs_flash_controller+0xfe002c88>
 200cab0:	0023883a 	mov	r17,zero
 200cab4:	05808234 	movhi	r22,520
 200cab8:	b59d9504 	addi	r22,r22,30292
 200cabc:	003e4506 	br	200c3d4 <__alt_mem_epcs_flash_controller+0xfe0033d4>
 200cac0:	b805883a 	mov	r2,r23
 200cac4:	003bd306 	br	200ba14 <__alt_mem_epcs_flash_controller+0xfe002a14>
 200cac8:	d8800c15 	stw	r2,48(sp)
 200cacc:	003feb06 	br	200ca7c <__alt_mem_epcs_flash_controller+0xfe003a7c>
 200cad0:	05001a84 	movi	r20,106
 200cad4:	003f3006 	br	200c798 <__alt_mem_epcs_flash_controller+0xfe003798>
 200cad8:	d9000c04 	addi	r4,sp,48
 200cadc:	01408274 	movhi	r5,521
 200cae0:	29606504 	addi	r5,r5,-32364
 200cae4:	d9800204 	addi	r6,sp,8
 200cae8:	200e5800 	call	200e580 <__hexnan>
 200caec:	00c00144 	movi	r3,5
 200caf0:	10ffeb1e 	bne	r2,r3,200caa0 <__alt_mem_epcs_flash_controller+0xfe003aa0>
 200caf4:	d8800317 	ldw	r2,12(sp)
 200caf8:	109ffc34 	orhi	r2,r2,32752
 200cafc:	d8800715 	stw	r2,28(sp)
 200cb00:	d8800217 	ldw	r2,8(sp)
 200cb04:	d8800615 	stw	r2,24(sp)
 200cb08:	003c5f06 	br	200bc88 <__alt_mem_epcs_flash_controller+0xfe002c88>
 200cb0c:	00ffffc4 	movi	r3,-1
 200cb10:	1884983a 	sll	r2,r3,r2
 200cb14:	d8c00617 	ldw	r3,24(sp)
 200cb18:	1884703a 	and	r2,r3,r2
 200cb1c:	d8800615 	stw	r2,24(sp)
 200cb20:	003f3c06 	br	200c814 <__alt_mem_epcs_flash_controller+0xfe003814>
 200cb24:	10bff804 	addi	r2,r2,-32
 200cb28:	013fffc4 	movi	r4,-1
 200cb2c:	2084983a 	sll	r2,r4,r2
 200cb30:	10c6703a 	and	r3,r2,r3
 200cb34:	d8c00715 	stw	r3,28(sp)
 200cb38:	003f3606 	br	200c814 <__alt_mem_epcs_flash_controller+0xfe003814>

0200cb3c <strtod>:
 200cb3c:	00c08274 	movhi	r3,521
 200cb40:	18e55004 	addi	r3,r3,-27328
 200cb44:	2005883a 	mov	r2,r4
 200cb48:	19000017 	ldw	r4,0(r3)
 200cb4c:	280d883a 	mov	r6,r5
 200cb50:	100b883a 	mov	r5,r2
 200cb54:	200b5f41 	jmpi	200b5f4 <_strtod_r>

0200cb58 <strtof>:
 200cb58:	defffb04 	addi	sp,sp,-20
 200cb5c:	dcc00315 	stw	r19,12(sp)
 200cb60:	04c08274 	movhi	r19,521
 200cb64:	9ce55004 	addi	r19,r19,-27328
 200cb68:	2005883a 	mov	r2,r4
 200cb6c:	99000017 	ldw	r4,0(r19)
 200cb70:	280d883a 	mov	r6,r5
 200cb74:	100b883a 	mov	r5,r2
 200cb78:	dfc00415 	stw	ra,16(sp)
 200cb7c:	dc800215 	stw	r18,8(sp)
 200cb80:	dc400115 	stw	r17,4(sp)
 200cb84:	dc000015 	stw	r16,0(sp)
 200cb88:	200b5f40 	call	200b5f4 <_strtod_r>
 200cb8c:	1009883a 	mov	r4,r2
 200cb90:	180b883a 	mov	r5,r3
 200cb94:	1025883a 	mov	r18,r2
 200cb98:	1823883a 	mov	r17,r3
 200cb9c:	200fcb00 	call	200fcb0 <__truncdfsf2>
 200cba0:	1009883a 	mov	r4,r2
 200cba4:	000b883a 	mov	r5,zero
 200cba8:	1021883a 	mov	r16,r2
 200cbac:	200f56c0 	call	200f56c <__nesf2>
 200cbb0:	1000111e 	bne	r2,zero,200cbf8 <strtof+0xa0>
 200cbb4:	9009883a 	mov	r4,r18
 200cbb8:	880b883a 	mov	r5,r17
 200cbbc:	000d883a 	mov	r6,zero
 200cbc0:	000f883a 	mov	r7,zero
 200cbc4:	200fad40 	call	200fad4 <__nedf2>
 200cbc8:	10000b26 	beq	r2,zero,200cbf8 <strtof+0xa0>
 200cbcc:	98800017 	ldw	r2,0(r19)
 200cbd0:	00c00884 	movi	r3,34
 200cbd4:	10c00015 	stw	r3,0(r2)
 200cbd8:	8005883a 	mov	r2,r16
 200cbdc:	dfc00417 	ldw	ra,16(sp)
 200cbe0:	dcc00317 	ldw	r19,12(sp)
 200cbe4:	dc800217 	ldw	r18,8(sp)
 200cbe8:	dc400117 	ldw	r17,4(sp)
 200cbec:	dc000017 	ldw	r16,0(sp)
 200cbf0:	dec00504 	addi	sp,sp,20
 200cbf4:	f800283a 	ret
 200cbf8:	8009883a 	mov	r4,r16
 200cbfc:	015fe034 	movhi	r5,32640
 200cc00:	297fffc4 	addi	r5,r5,-1
 200cc04:	200f5c00 	call	200f5c0 <__gtsf2>
 200cc08:	0080070e 	bge	zero,r2,200cc28 <strtof+0xd0>
 200cc0c:	9009883a 	mov	r4,r18
 200cc10:	880b883a 	mov	r5,r17
 200cc14:	01bfffc4 	movi	r6,-1
 200cc18:	01dffc34 	movhi	r7,32752
 200cc1c:	39ffffc4 	addi	r7,r7,-1
 200cc20:	200fb300 	call	200fb30 <__gtdf2>
 200cc24:	00bfe90e 	bge	zero,r2,200cbcc <__alt_mem_epcs_flash_controller+0xfe003bcc>
 200cc28:	8009883a 	mov	r4,r16
 200cc2c:	017fe034 	movhi	r5,65408
 200cc30:	297fffc4 	addi	r5,r5,-1
 200cc34:	200f61c0 	call	200f61c <__ltsf2>
 200cc38:	103fe70e 	bge	r2,zero,200cbd8 <__alt_mem_epcs_flash_controller+0xfe003bd8>
 200cc3c:	9009883a 	mov	r4,r18
 200cc40:	880b883a 	mov	r5,r17
 200cc44:	01bfffc4 	movi	r6,-1
 200cc48:	01fffc34 	movhi	r7,65520
 200cc4c:	39ffffc4 	addi	r7,r7,-1
 200cc50:	200fbf80 	call	200fbf8 <__ltdf2>
 200cc54:	103fdd0e 	bge	r2,zero,200cbcc <__alt_mem_epcs_flash_controller+0xfe003bcc>
 200cc58:	8005883a 	mov	r2,r16
 200cc5c:	dfc00417 	ldw	ra,16(sp)
 200cc60:	dcc00317 	ldw	r19,12(sp)
 200cc64:	dc800217 	ldw	r18,8(sp)
 200cc68:	dc400117 	ldw	r17,4(sp)
 200cc6c:	dc000017 	ldw	r16,0(sp)
 200cc70:	dec00504 	addi	sp,sp,20
 200cc74:	f800283a 	ret

0200cc78 <_strtol_r>:
 200cc78:	defff304 	addi	sp,sp,-52
 200cc7c:	00808274 	movhi	r2,521
 200cc80:	10a55304 	addi	r2,r2,-27316
 200cc84:	df000b15 	stw	fp,44(sp)
 200cc88:	17000017 	ldw	fp,0(r2)
 200cc8c:	ddc00a15 	stw	r23,40(sp)
 200cc90:	dd000715 	stw	r20,28(sp)
 200cc94:	dcc00615 	stw	r19,24(sp)
 200cc98:	dc000315 	stw	r16,12(sp)
 200cc9c:	dfc00c15 	stw	ra,48(sp)
 200cca0:	dd800915 	stw	r22,36(sp)
 200cca4:	dd400815 	stw	r21,32(sp)
 200cca8:	dc800515 	stw	r18,20(sp)
 200ccac:	dc400415 	stw	r17,16(sp)
 200ccb0:	2827883a 	mov	r19,r5
 200ccb4:	d9000215 	stw	r4,8(sp)
 200ccb8:	3029883a 	mov	r20,r6
 200ccbc:	382f883a 	mov	r23,r7
 200ccc0:	2821883a 	mov	r16,r5
 200ccc4:	84400007 	ldb	r17,0(r16)
 200ccc8:	84000044 	addi	r16,r16,1
 200cccc:	e445883a 	add	r2,fp,r17
 200ccd0:	10800003 	ldbu	r2,0(r2)
 200ccd4:	1080020c 	andi	r2,r2,8
 200ccd8:	10803fcc 	andi	r2,r2,255
 200ccdc:	1080201c 	xori	r2,r2,128
 200cce0:	10bfe004 	addi	r2,r2,-128
 200cce4:	103ff71e 	bne	r2,zero,200ccc4 <__alt_mem_epcs_flash_controller+0xfe003cc4>
 200cce8:	00800b44 	movi	r2,45
 200ccec:	88806a26 	beq	r17,r2,200ce98 <_strtol_r+0x220>
 200ccf0:	00800ac4 	movi	r2,43
 200ccf4:	88806d26 	beq	r17,r2,200ceac <_strtol_r+0x234>
 200ccf8:	d8000015 	stw	zero,0(sp)
 200ccfc:	b800481e 	bne	r23,zero,200ce20 <_strtol_r+0x1a8>
 200cd00:	00800c04 	movi	r2,48
 200cd04:	88804a26 	beq	r17,r2,200ce30 <_strtol_r+0x1b8>
 200cd08:	05c00284 	movi	r23,10
 200cd0c:	b825883a 	mov	r18,r23
 200cd10:	d8c00017 	ldw	r3,0(sp)
 200cd14:	00a00034 	movhi	r2,32768
 200cd18:	900b883a 	mov	r5,r18
 200cd1c:	182b003a 	cmpeq	r21,r3,zero
 200cd20:	156bc83a 	sub	r21,r2,r21
 200cd24:	a809883a 	mov	r4,r21
 200cd28:	2001d180 	call	2001d18 <__umodsi3>
 200cd2c:	a809883a 	mov	r4,r21
 200cd30:	900b883a 	mov	r5,r18
 200cd34:	d8800115 	stw	r2,4(sp)
 200cd38:	2001d100 	call	2001d10 <__udivsi3>
 200cd3c:	e447883a 	add	r3,fp,r17
 200cd40:	18c00003 	ldbu	r3,0(r3)
 200cd44:	102b883a 	mov	r21,r2
 200cd48:	000d883a 	mov	r6,zero
 200cd4c:	1940010c 	andi	r5,r3,4
 200cd50:	29403fcc 	andi	r5,r5,255
 200cd54:	2940201c 	xori	r5,r5,128
 200cd58:	297fe004 	addi	r5,r5,-128
 200cd5c:	0009883a 	mov	r4,zero
 200cd60:	05bfffc4 	movi	r22,-1
 200cd64:	28001226 	beq	r5,zero,200cdb0 <_strtol_r+0x138>
 200cd68:	8c7ff404 	addi	r17,r17,-48
 200cd6c:	8dc0170e 	bge	r17,r23,200cdcc <_strtol_r+0x154>
 200cd70:	35800626 	beq	r6,r22,200cd8c <_strtol_r+0x114>
 200cd74:	a9003a36 	bltu	r21,r4,200ce60 <_strtol_r+0x1e8>
 200cd78:	25403726 	beq	r4,r21,200ce58 <_strtol_r+0x1e0>
 200cd7c:	900b883a 	mov	r5,r18
 200cd80:	2001d200 	call	2001d20 <__mulsi3>
 200cd84:	8889883a 	add	r4,r17,r2
 200cd88:	01800044 	movi	r6,1
 200cd8c:	84400007 	ldb	r17,0(r16)
 200cd90:	84000044 	addi	r16,r16,1
 200cd94:	e447883a 	add	r3,fp,r17
 200cd98:	18c00003 	ldbu	r3,0(r3)
 200cd9c:	1940010c 	andi	r5,r3,4
 200cda0:	29403fcc 	andi	r5,r5,255
 200cda4:	2940201c 	xori	r5,r5,128
 200cda8:	297fe004 	addi	r5,r5,-128
 200cdac:	283fee1e 	bne	r5,zero,200cd68 <__alt_mem_epcs_flash_controller+0xfe003d68>
 200cdb0:	188000cc 	andi	r2,r3,3
 200cdb4:	10000526 	beq	r2,zero,200cdcc <_strtol_r+0x154>
 200cdb8:	18c0004c 	andi	r3,r3,1
 200cdbc:	18002a26 	beq	r3,zero,200ce68 <_strtol_r+0x1f0>
 200cdc0:	00800dc4 	movi	r2,55
 200cdc4:	88a3c83a 	sub	r17,r17,r2
 200cdc8:	8dffe916 	blt	r17,r23,200cd70 <__alt_mem_epcs_flash_controller+0xfe003d70>
 200cdcc:	00bfffc4 	movi	r2,-1
 200cdd0:	d8c00017 	ldw	r3,0(sp)
 200cdd4:	30802726 	beq	r6,r2,200ce74 <_strtol_r+0x1fc>
 200cdd8:	18000126 	beq	r3,zero,200cde0 <_strtol_r+0x168>
 200cddc:	0109c83a 	sub	r4,zero,r4
 200cde0:	2005883a 	mov	r2,r4
 200cde4:	a0000226 	beq	r20,zero,200cdf0 <_strtol_r+0x178>
 200cde8:	3000291e 	bne	r6,zero,200ce90 <_strtol_r+0x218>
 200cdec:	a4c00015 	stw	r19,0(r20)
 200cdf0:	dfc00c17 	ldw	ra,48(sp)
 200cdf4:	df000b17 	ldw	fp,44(sp)
 200cdf8:	ddc00a17 	ldw	r23,40(sp)
 200cdfc:	dd800917 	ldw	r22,36(sp)
 200ce00:	dd400817 	ldw	r21,32(sp)
 200ce04:	dd000717 	ldw	r20,28(sp)
 200ce08:	dcc00617 	ldw	r19,24(sp)
 200ce0c:	dc800517 	ldw	r18,20(sp)
 200ce10:	dc400417 	ldw	r17,16(sp)
 200ce14:	dc000317 	ldw	r16,12(sp)
 200ce18:	dec00d04 	addi	sp,sp,52
 200ce1c:	f800283a 	ret
 200ce20:	00800404 	movi	r2,16
 200ce24:	b8bfb91e 	bne	r23,r2,200cd0c <__alt_mem_epcs_flash_controller+0xfe003d0c>
 200ce28:	00800c04 	movi	r2,48
 200ce2c:	88bfb71e 	bne	r17,r2,200cd0c <__alt_mem_epcs_flash_controller+0xfe003d0c>
 200ce30:	80800007 	ldb	r2,0(r16)
 200ce34:	00c01e04 	movi	r3,120
 200ce38:	10c02026 	beq	r2,r3,200cebc <_strtol_r+0x244>
 200ce3c:	00c01604 	movi	r3,88
 200ce40:	10c01e26 	beq	r2,r3,200cebc <_strtol_r+0x244>
 200ce44:	b800221e 	bne	r23,zero,200ced0 <_strtol_r+0x258>
 200ce48:	04800204 	movi	r18,8
 200ce4c:	04400c04 	movi	r17,48
 200ce50:	902f883a 	mov	r23,r18
 200ce54:	003fae06 	br	200cd10 <__alt_mem_epcs_flash_controller+0xfe003d10>
 200ce58:	d8800117 	ldw	r2,4(sp)
 200ce5c:	147fc70e 	bge	r2,r17,200cd7c <__alt_mem_epcs_flash_controller+0xfe003d7c>
 200ce60:	01bfffc4 	movi	r6,-1
 200ce64:	003fc906 	br	200cd8c <__alt_mem_epcs_flash_controller+0xfe003d8c>
 200ce68:	008015c4 	movi	r2,87
 200ce6c:	88a3c83a 	sub	r17,r17,r2
 200ce70:	003fd506 	br	200cdc8 <__alt_mem_epcs_flash_controller+0xfe003dc8>
 200ce74:	d9000217 	ldw	r4,8(sp)
 200ce78:	1805003a 	cmpeq	r2,r3,zero
 200ce7c:	00c00884 	movi	r3,34
 200ce80:	20c00015 	stw	r3,0(r4)
 200ce84:	00e00034 	movhi	r3,32768
 200ce88:	1885c83a 	sub	r2,r3,r2
 200ce8c:	a03fd826 	beq	r20,zero,200cdf0 <__alt_mem_epcs_flash_controller+0xfe003df0>
 200ce90:	84ffffc4 	addi	r19,r16,-1
 200ce94:	003fd506 	br	200cdec <__alt_mem_epcs_flash_controller+0xfe003dec>
 200ce98:	00c00044 	movi	r3,1
 200ce9c:	84400007 	ldb	r17,0(r16)
 200cea0:	d8c00015 	stw	r3,0(sp)
 200cea4:	80e1883a 	add	r16,r16,r3
 200cea8:	003f9406 	br	200ccfc <__alt_mem_epcs_flash_controller+0xfe003cfc>
 200ceac:	84400007 	ldb	r17,0(r16)
 200ceb0:	d8000015 	stw	zero,0(sp)
 200ceb4:	84000044 	addi	r16,r16,1
 200ceb8:	003f9006 	br	200ccfc <__alt_mem_epcs_flash_controller+0xfe003cfc>
 200cebc:	04800404 	movi	r18,16
 200cec0:	84400047 	ldb	r17,1(r16)
 200cec4:	902f883a 	mov	r23,r18
 200cec8:	84000084 	addi	r16,r16,2
 200cecc:	003f9006 	br	200cd10 <__alt_mem_epcs_flash_controller+0xfe003d10>
 200ced0:	b825883a 	mov	r18,r23
 200ced4:	04400c04 	movi	r17,48
 200ced8:	003f8d06 	br	200cd10 <__alt_mem_epcs_flash_controller+0xfe003d10>

0200cedc <strtol>:
 200cedc:	00808274 	movhi	r2,521
 200cee0:	10a55004 	addi	r2,r2,-27328
 200cee4:	2007883a 	mov	r3,r4
 200cee8:	11000017 	ldw	r4,0(r2)
 200ceec:	2805883a 	mov	r2,r5
 200cef0:	300f883a 	mov	r7,r6
 200cef4:	180b883a 	mov	r5,r3
 200cef8:	100d883a 	mov	r6,r2
 200cefc:	200cc781 	jmpi	200cc78 <_strtol_r>

0200cf00 <_strtoll_r>:
 200cf00:	defff004 	addi	sp,sp,-64
 200cf04:	00808274 	movhi	r2,521
 200cf08:	10a55304 	addi	r2,r2,-27316
 200cf0c:	ddc00d15 	stw	r23,52(sp)
 200cf10:	15c00017 	ldw	r23,0(r2)
 200cf14:	df000e15 	stw	fp,56(sp)
 200cf18:	dc000615 	stw	r16,24(sp)
 200cf1c:	dfc00f15 	stw	ra,60(sp)
 200cf20:	dd800c15 	stw	r22,48(sp)
 200cf24:	dd400b15 	stw	r21,44(sp)
 200cf28:	dd000a15 	stw	r20,40(sp)
 200cf2c:	dcc00915 	stw	r19,36(sp)
 200cf30:	dc800815 	stw	r18,32(sp)
 200cf34:	dc400715 	stw	r17,28(sp)
 200cf38:	d9400015 	stw	r5,0(sp)
 200cf3c:	d9000415 	stw	r4,16(sp)
 200cf40:	d9800115 	stw	r6,4(sp)
 200cf44:	3839883a 	mov	fp,r7
 200cf48:	2821883a 	mov	r16,r5
 200cf4c:	82000007 	ldb	r8,0(r16)
 200cf50:	84000044 	addi	r16,r16,1
 200cf54:	ba05883a 	add	r2,r23,r8
 200cf58:	10800003 	ldbu	r2,0(r2)
 200cf5c:	1080020c 	andi	r2,r2,8
 200cf60:	10803fcc 	andi	r2,r2,255
 200cf64:	1080201c 	xori	r2,r2,128
 200cf68:	10bfe004 	addi	r2,r2,-128
 200cf6c:	103ff71e 	bne	r2,zero,200cf4c <__alt_mem_epcs_flash_controller+0xfe003f4c>
 200cf70:	00800b44 	movi	r2,45
 200cf74:	40807a26 	beq	r8,r2,200d160 <_strtoll_r+0x260>
 200cf78:	00800ac4 	movi	r2,43
 200cf7c:	40808826 	beq	r8,r2,200d1a0 <_strtoll_r+0x2a0>
 200cf80:	d8000215 	stw	zero,8(sp)
 200cf84:	e000061e 	bne	fp,zero,200cfa0 <_strtoll_r+0xa0>
 200cf88:	00800c04 	movi	r2,48
 200cf8c:	40808b26 	beq	r8,r2,200d1bc <_strtoll_r+0x2bc>
 200cf90:	04800284 	movi	r18,10
 200cf94:	0027883a 	mov	r19,zero
 200cf98:	9039883a 	mov	fp,r18
 200cf9c:	00000406 	br	200cfb0 <_strtoll_r+0xb0>
 200cfa0:	00800404 	movi	r2,16
 200cfa4:	e0809926 	beq	fp,r2,200d20c <_strtoll_r+0x30c>
 200cfa8:	e027d7fa 	srai	r19,fp,31
 200cfac:	e025883a 	mov	r18,fp
 200cfb0:	d9000217 	ldw	r4,8(sp)
 200cfb4:	20006226 	beq	r4,zero,200d140 <_strtoll_r+0x240>
 200cfb8:	002b883a 	mov	r21,zero
 200cfbc:	04600034 	movhi	r17,32768
 200cfc0:	a809883a 	mov	r4,r21
 200cfc4:	880b883a 	mov	r5,r17
 200cfc8:	900d883a 	mov	r6,r18
 200cfcc:	980f883a 	mov	r7,r19
 200cfd0:	da000515 	stw	r8,20(sp)
 200cfd4:	200ef440 	call	200ef44 <__umoddi3>
 200cfd8:	a809883a 	mov	r4,r21
 200cfdc:	880b883a 	mov	r5,r17
 200cfe0:	900d883a 	mov	r6,r18
 200cfe4:	980f883a 	mov	r7,r19
 200cfe8:	d8800315 	stw	r2,12(sp)
 200cfec:	200e8f40 	call	200e8f4 <__udivdi3>
 200cff0:	da000517 	ldw	r8,20(sp)
 200cff4:	182b883a 	mov	r21,r3
 200cff8:	1023883a 	mov	r17,r2
 200cffc:	ba0d883a 	add	r6,r23,r8
 200d000:	31800003 	ldbu	r6,0(r6)
 200d004:	0007883a 	mov	r3,zero
 200d008:	0009883a 	mov	r4,zero
 200d00c:	3240010c 	andi	r9,r6,4
 200d010:	4a403fcc 	andi	r9,r9,255
 200d014:	4a40201c 	xori	r9,r9,128
 200d018:	4a7fe004 	addi	r9,r9,-128
 200d01c:	000b883a 	mov	r5,zero
 200d020:	05bfffc4 	movi	r22,-1
 200d024:	48001026 	beq	r9,zero,200d068 <_strtoll_r+0x168>
 200d028:	453ff404 	addi	r20,r8,-48
 200d02c:	a700150e 	bge	r20,fp,200d084 <_strtoll_r+0x184>
 200d030:	1d800426 	beq	r3,r22,200d044 <_strtoll_r+0x144>
 200d034:	a9400236 	bltu	r21,r5,200d040 <_strtoll_r+0x140>
 200d038:	2d402e1e 	bne	r5,r21,200d0f4 <_strtoll_r+0x1f4>
 200d03c:	89002d2e 	bgeu	r17,r4,200d0f4 <_strtoll_r+0x1f4>
 200d040:	00ffffc4 	movi	r3,-1
 200d044:	82000007 	ldb	r8,0(r16)
 200d048:	84000044 	addi	r16,r16,1
 200d04c:	ba0d883a 	add	r6,r23,r8
 200d050:	31800003 	ldbu	r6,0(r6)
 200d054:	3240010c 	andi	r9,r6,4
 200d058:	4a403fcc 	andi	r9,r9,255
 200d05c:	4a40201c 	xori	r9,r9,128
 200d060:	4a7fe004 	addi	r9,r9,-128
 200d064:	483ff01e 	bne	r9,zero,200d028 <__alt_mem_epcs_flash_controller+0xfe004028>
 200d068:	308000cc 	andi	r2,r6,3
 200d06c:	10000526 	beq	r2,zero,200d084 <_strtoll_r+0x184>
 200d070:	3180004c 	andi	r6,r6,1
 200d074:	30002b26 	beq	r6,zero,200d124 <_strtoll_r+0x224>
 200d078:	00800dc4 	movi	r2,55
 200d07c:	40a9c83a 	sub	r20,r8,r2
 200d080:	a73feb16 	blt	r20,fp,200d030 <__alt_mem_epcs_flash_controller+0xfe004030>
 200d084:	00bfffc4 	movi	r2,-1
 200d088:	18803a26 	beq	r3,r2,200d174 <_strtoll_r+0x274>
 200d08c:	d8800217 	ldw	r2,8(sp)
 200d090:	10000426 	beq	r2,zero,200d0a4 <_strtoll_r+0x1a4>
 200d094:	0109c83a 	sub	r4,zero,r4
 200d098:	2004c03a 	cmpne	r2,r4,zero
 200d09c:	014bc83a 	sub	r5,zero,r5
 200d0a0:	288bc83a 	sub	r5,r5,r2
 200d0a4:	d8800117 	ldw	r2,4(sp)
 200d0a8:	10004f26 	beq	r2,zero,200d1e8 <_strtoll_r+0x2e8>
 200d0ac:	2005883a 	mov	r2,r4
 200d0b0:	1800271e 	bne	r3,zero,200d150 <_strtoll_r+0x250>
 200d0b4:	2807883a 	mov	r3,r5
 200d0b8:	d9400017 	ldw	r5,0(sp)
 200d0bc:	d9000117 	ldw	r4,4(sp)
 200d0c0:	21400015 	stw	r5,0(r4)
 200d0c4:	dfc00f17 	ldw	ra,60(sp)
 200d0c8:	df000e17 	ldw	fp,56(sp)
 200d0cc:	ddc00d17 	ldw	r23,52(sp)
 200d0d0:	dd800c17 	ldw	r22,48(sp)
 200d0d4:	dd400b17 	ldw	r21,44(sp)
 200d0d8:	dd000a17 	ldw	r20,40(sp)
 200d0dc:	dcc00917 	ldw	r19,36(sp)
 200d0e0:	dc800817 	ldw	r18,32(sp)
 200d0e4:	dc400717 	ldw	r17,28(sp)
 200d0e8:	dc000617 	ldw	r16,24(sp)
 200d0ec:	dec01004 	addi	sp,sp,64
 200d0f0:	f800283a 	ret
 200d0f4:	24400e26 	beq	r4,r17,200d130 <_strtoll_r+0x230>
 200d0f8:	900d883a 	mov	r6,r18
 200d0fc:	980f883a 	mov	r7,r19
 200d100:	2001d480 	call	2001d48 <__muldi3>
 200d104:	a00dd7fa 	srai	r6,r20,31
 200d108:	a085883a 	add	r2,r20,r2
 200d10c:	1511803a 	cmpltu	r8,r2,r20
 200d110:	30c7883a 	add	r3,r6,r3
 200d114:	40cb883a 	add	r5,r8,r3
 200d118:	1009883a 	mov	r4,r2
 200d11c:	00c00044 	movi	r3,1
 200d120:	003fc806 	br	200d044 <__alt_mem_epcs_flash_controller+0xfe004044>
 200d124:	008015c4 	movi	r2,87
 200d128:	40a9c83a 	sub	r20,r8,r2
 200d12c:	003fd406 	br	200d080 <__alt_mem_epcs_flash_controller+0xfe004080>
 200d130:	2d7ff11e 	bne	r5,r21,200d0f8 <__alt_mem_epcs_flash_controller+0xfe0040f8>
 200d134:	d8800317 	ldw	r2,12(sp)
 200d138:	153fc116 	blt	r2,r20,200d040 <__alt_mem_epcs_flash_controller+0xfe004040>
 200d13c:	003fee06 	br	200d0f8 <__alt_mem_epcs_flash_controller+0xfe0040f8>
 200d140:	057fffc4 	movi	r21,-1
 200d144:	04600034 	movhi	r17,32768
 200d148:	8c7fffc4 	addi	r17,r17,-1
 200d14c:	003f9c06 	br	200cfc0 <__alt_mem_epcs_flash_controller+0xfe003fc0>
 200d150:	2807883a 	mov	r3,r5
 200d154:	843fffc4 	addi	r16,r16,-1
 200d158:	dc000015 	stw	r16,0(sp)
 200d15c:	003fd606 	br	200d0b8 <__alt_mem_epcs_flash_controller+0xfe0040b8>
 200d160:	00800044 	movi	r2,1
 200d164:	82000007 	ldb	r8,0(r16)
 200d168:	d8800215 	stw	r2,8(sp)
 200d16c:	80a1883a 	add	r16,r16,r2
 200d170:	003f8406 	br	200cf84 <__alt_mem_epcs_flash_controller+0xfe003f84>
 200d174:	d9000217 	ldw	r4,8(sp)
 200d178:	20000d1e 	bne	r4,zero,200d1b0 <_strtoll_r+0x2b0>
 200d17c:	1805883a 	mov	r2,r3
 200d180:	00e00034 	movhi	r3,32768
 200d184:	18ffffc4 	addi	r3,r3,-1
 200d188:	d9400417 	ldw	r5,16(sp)
 200d18c:	01000884 	movi	r4,34
 200d190:	29000015 	stw	r4,0(r5)
 200d194:	d9000117 	ldw	r4,4(sp)
 200d198:	203fee1e 	bne	r4,zero,200d154 <__alt_mem_epcs_flash_controller+0xfe004154>
 200d19c:	003fc906 	br	200d0c4 <__alt_mem_epcs_flash_controller+0xfe0040c4>
 200d1a0:	82000007 	ldb	r8,0(r16)
 200d1a4:	d8000215 	stw	zero,8(sp)
 200d1a8:	84000044 	addi	r16,r16,1
 200d1ac:	003f7506 	br	200cf84 <__alt_mem_epcs_flash_controller+0xfe003f84>
 200d1b0:	0005883a 	mov	r2,zero
 200d1b4:	00e00034 	movhi	r3,32768
 200d1b8:	003ff306 	br	200d188 <__alt_mem_epcs_flash_controller+0xfe004188>
 200d1bc:	80800007 	ldb	r2,0(r16)
 200d1c0:	00c01e04 	movi	r3,120
 200d1c4:	10c00b26 	beq	r2,r3,200d1f4 <_strtoll_r+0x2f4>
 200d1c8:	00c01604 	movi	r3,88
 200d1cc:	10c00926 	beq	r2,r3,200d1f4 <_strtoll_r+0x2f4>
 200d1d0:	e000131e 	bne	fp,zero,200d220 <_strtoll_r+0x320>
 200d1d4:	04800204 	movi	r18,8
 200d1d8:	0027883a 	mov	r19,zero
 200d1dc:	02000c04 	movi	r8,48
 200d1e0:	9039883a 	mov	fp,r18
 200d1e4:	003f7206 	br	200cfb0 <__alt_mem_epcs_flash_controller+0xfe003fb0>
 200d1e8:	2005883a 	mov	r2,r4
 200d1ec:	2807883a 	mov	r3,r5
 200d1f0:	003fb406 	br	200d0c4 <__alt_mem_epcs_flash_controller+0xfe0040c4>
 200d1f4:	04800404 	movi	r18,16
 200d1f8:	82000047 	ldb	r8,1(r16)
 200d1fc:	0027883a 	mov	r19,zero
 200d200:	84000084 	addi	r16,r16,2
 200d204:	9039883a 	mov	fp,r18
 200d208:	003f6906 	br	200cfb0 <__alt_mem_epcs_flash_controller+0xfe003fb0>
 200d20c:	00800c04 	movi	r2,48
 200d210:	40bfea26 	beq	r8,r2,200d1bc <__alt_mem_epcs_flash_controller+0xfe0041bc>
 200d214:	e025883a 	mov	r18,fp
 200d218:	0027883a 	mov	r19,zero
 200d21c:	003f6406 	br	200cfb0 <__alt_mem_epcs_flash_controller+0xfe003fb0>
 200d220:	e025883a 	mov	r18,fp
 200d224:	e027d7fa 	srai	r19,fp,31
 200d228:	02000c04 	movi	r8,48
 200d22c:	003f6006 	br	200cfb0 <__alt_mem_epcs_flash_controller+0xfe003fb0>

0200d230 <_strtoul_r>:
 200d230:	defff304 	addi	sp,sp,-52
 200d234:	00808274 	movhi	r2,521
 200d238:	10a55304 	addi	r2,r2,-27316
 200d23c:	df000b15 	stw	fp,44(sp)
 200d240:	17000017 	ldw	fp,0(r2)
 200d244:	ddc00a15 	stw	r23,40(sp)
 200d248:	dd000715 	stw	r20,28(sp)
 200d24c:	dcc00615 	stw	r19,24(sp)
 200d250:	dc000315 	stw	r16,12(sp)
 200d254:	dfc00c15 	stw	ra,48(sp)
 200d258:	dd800915 	stw	r22,36(sp)
 200d25c:	dd400815 	stw	r21,32(sp)
 200d260:	dc800515 	stw	r18,20(sp)
 200d264:	dc400415 	stw	r17,16(sp)
 200d268:	2827883a 	mov	r19,r5
 200d26c:	d9000215 	stw	r4,8(sp)
 200d270:	3029883a 	mov	r20,r6
 200d274:	382f883a 	mov	r23,r7
 200d278:	2821883a 	mov	r16,r5
 200d27c:	84400007 	ldb	r17,0(r16)
 200d280:	84000044 	addi	r16,r16,1
 200d284:	e445883a 	add	r2,fp,r17
 200d288:	10800003 	ldbu	r2,0(r2)
 200d28c:	1080020c 	andi	r2,r2,8
 200d290:	10803fcc 	andi	r2,r2,255
 200d294:	1080201c 	xori	r2,r2,128
 200d298:	10bfe004 	addi	r2,r2,-128
 200d29c:	103ff71e 	bne	r2,zero,200d27c <__alt_mem_epcs_flash_controller+0xfe00427c>
 200d2a0:	00800b44 	movi	r2,45
 200d2a4:	88805e26 	beq	r17,r2,200d420 <_strtoul_r+0x1f0>
 200d2a8:	00800ac4 	movi	r2,43
 200d2ac:	88806126 	beq	r17,r2,200d434 <_strtoul_r+0x204>
 200d2b0:	d8000115 	stw	zero,4(sp)
 200d2b4:	b800091e 	bne	r23,zero,200d2dc <_strtoul_r+0xac>
 200d2b8:	00800c04 	movi	r2,48
 200d2bc:	88806326 	beq	r17,r2,200d44c <_strtoul_r+0x21c>
 200d2c0:	05c00284 	movi	r23,10
 200d2c4:	00800144 	movi	r2,5
 200d2c8:	d8800015 	stw	r2,0(sp)
 200d2cc:	058666b4 	movhi	r22,6554
 200d2d0:	b5a66644 	addi	r22,r22,-26215
 200d2d4:	b825883a 	mov	r18,r23
 200d2d8:	00000b06 	br	200d308 <_strtoul_r+0xd8>
 200d2dc:	00800404 	movi	r2,16
 200d2e0:	b8805826 	beq	r23,r2,200d444 <_strtoul_r+0x214>
 200d2e4:	013fffc4 	movi	r4,-1
 200d2e8:	b80b883a 	mov	r5,r23
 200d2ec:	2001d100 	call	2001d10 <__udivsi3>
 200d2f0:	013fffc4 	movi	r4,-1
 200d2f4:	b80b883a 	mov	r5,r23
 200d2f8:	102d883a 	mov	r22,r2
 200d2fc:	2001d180 	call	2001d18 <__umodsi3>
 200d300:	d8800015 	stw	r2,0(sp)
 200d304:	b825883a 	mov	r18,r23
 200d308:	e447883a 	add	r3,fp,r17
 200d30c:	18c00003 	ldbu	r3,0(r3)
 200d310:	0011883a 	mov	r8,zero
 200d314:	0009883a 	mov	r4,zero
 200d318:	1980010c 	andi	r6,r3,4
 200d31c:	31803fcc 	andi	r6,r6,255
 200d320:	3180201c 	xori	r6,r6,128
 200d324:	31bfe004 	addi	r6,r6,-128
 200d328:	057fffc4 	movi	r21,-1
 200d32c:	30001226 	beq	r6,zero,200d378 <_strtoul_r+0x148>
 200d330:	8c7ff404 	addi	r17,r17,-48
 200d334:	8dc0170e 	bge	r17,r23,200d394 <_strtoul_r+0x164>
 200d338:	45400626 	beq	r8,r21,200d354 <_strtoul_r+0x124>
 200d33c:	b1002c36 	bltu	r22,r4,200d3f0 <_strtoul_r+0x1c0>
 200d340:	25802926 	beq	r4,r22,200d3e8 <_strtoul_r+0x1b8>
 200d344:	900b883a 	mov	r5,r18
 200d348:	2001d200 	call	2001d20 <__mulsi3>
 200d34c:	8889883a 	add	r4,r17,r2
 200d350:	02000044 	movi	r8,1
 200d354:	84400007 	ldb	r17,0(r16)
 200d358:	84000044 	addi	r16,r16,1
 200d35c:	e447883a 	add	r3,fp,r17
 200d360:	18c00003 	ldbu	r3,0(r3)
 200d364:	1980010c 	andi	r6,r3,4
 200d368:	31803fcc 	andi	r6,r6,255
 200d36c:	3180201c 	xori	r6,r6,128
 200d370:	31bfe004 	addi	r6,r6,-128
 200d374:	303fee1e 	bne	r6,zero,200d330 <__alt_mem_epcs_flash_controller+0xfe004330>
 200d378:	188000cc 	andi	r2,r3,3
 200d37c:	10000526 	beq	r2,zero,200d394 <_strtoul_r+0x164>
 200d380:	18c0004c 	andi	r3,r3,1
 200d384:	18001c26 	beq	r3,zero,200d3f8 <_strtoul_r+0x1c8>
 200d388:	00800dc4 	movi	r2,55
 200d38c:	88a3c83a 	sub	r17,r17,r2
 200d390:	8dffe916 	blt	r17,r23,200d338 <__alt_mem_epcs_flash_controller+0xfe004338>
 200d394:	00bfffc4 	movi	r2,-1
 200d398:	40801a26 	beq	r8,r2,200d404 <_strtoul_r+0x1d4>
 200d39c:	d8c00117 	ldw	r3,4(sp)
 200d3a0:	18000126 	beq	r3,zero,200d3a8 <_strtoul_r+0x178>
 200d3a4:	0109c83a 	sub	r4,zero,r4
 200d3a8:	a0000226 	beq	r20,zero,200d3b4 <_strtoul_r+0x184>
 200d3ac:	40001a1e 	bne	r8,zero,200d418 <_strtoul_r+0x1e8>
 200d3b0:	a4c00015 	stw	r19,0(r20)
 200d3b4:	2005883a 	mov	r2,r4
 200d3b8:	dfc00c17 	ldw	ra,48(sp)
 200d3bc:	df000b17 	ldw	fp,44(sp)
 200d3c0:	ddc00a17 	ldw	r23,40(sp)
 200d3c4:	dd800917 	ldw	r22,36(sp)
 200d3c8:	dd400817 	ldw	r21,32(sp)
 200d3cc:	dd000717 	ldw	r20,28(sp)
 200d3d0:	dcc00617 	ldw	r19,24(sp)
 200d3d4:	dc800517 	ldw	r18,20(sp)
 200d3d8:	dc400417 	ldw	r17,16(sp)
 200d3dc:	dc000317 	ldw	r16,12(sp)
 200d3e0:	dec00d04 	addi	sp,sp,52
 200d3e4:	f800283a 	ret
 200d3e8:	d8800017 	ldw	r2,0(sp)
 200d3ec:	147fd50e 	bge	r2,r17,200d344 <__alt_mem_epcs_flash_controller+0xfe004344>
 200d3f0:	023fffc4 	movi	r8,-1
 200d3f4:	003fd706 	br	200d354 <__alt_mem_epcs_flash_controller+0xfe004354>
 200d3f8:	008015c4 	movi	r2,87
 200d3fc:	88a3c83a 	sub	r17,r17,r2
 200d400:	003fe306 	br	200d390 <__alt_mem_epcs_flash_controller+0xfe004390>
 200d404:	d8c00217 	ldw	r3,8(sp)
 200d408:	00800884 	movi	r2,34
 200d40c:	4009883a 	mov	r4,r8
 200d410:	18800015 	stw	r2,0(r3)
 200d414:	a03fe726 	beq	r20,zero,200d3b4 <__alt_mem_epcs_flash_controller+0xfe0043b4>
 200d418:	84ffffc4 	addi	r19,r16,-1
 200d41c:	003fe406 	br	200d3b0 <__alt_mem_epcs_flash_controller+0xfe0043b0>
 200d420:	00c00044 	movi	r3,1
 200d424:	84400007 	ldb	r17,0(r16)
 200d428:	d8c00115 	stw	r3,4(sp)
 200d42c:	80e1883a 	add	r16,r16,r3
 200d430:	003fa006 	br	200d2b4 <__alt_mem_epcs_flash_controller+0xfe0042b4>
 200d434:	84400007 	ldb	r17,0(r16)
 200d438:	d8000115 	stw	zero,4(sp)
 200d43c:	84000044 	addi	r16,r16,1
 200d440:	003f9c06 	br	200d2b4 <__alt_mem_epcs_flash_controller+0xfe0042b4>
 200d444:	00800c04 	movi	r2,48
 200d448:	88bfa61e 	bne	r17,r2,200d2e4 <__alt_mem_epcs_flash_controller+0xfe0042e4>
 200d44c:	80800007 	ldb	r2,0(r16)
 200d450:	00c01e04 	movi	r3,120
 200d454:	10c00b26 	beq	r2,r3,200d484 <_strtoul_r+0x254>
 200d458:	00c01604 	movi	r3,88
 200d45c:	10c00926 	beq	r2,r3,200d484 <_strtoul_r+0x254>
 200d460:	b800111e 	bne	r23,zero,200d4a8 <_strtoul_r+0x278>
 200d464:	04800204 	movi	r18,8
 200d468:	008001c4 	movi	r2,7
 200d46c:	d8800015 	stw	r2,0(sp)
 200d470:	05880034 	movhi	r22,8192
 200d474:	b5bfffc4 	addi	r22,r22,-1
 200d478:	04400c04 	movi	r17,48
 200d47c:	902f883a 	mov	r23,r18
 200d480:	003fa106 	br	200d308 <__alt_mem_epcs_flash_controller+0xfe004308>
 200d484:	04800404 	movi	r18,16
 200d488:	008003c4 	movi	r2,15
 200d48c:	84400047 	ldb	r17,1(r16)
 200d490:	d8800015 	stw	r2,0(sp)
 200d494:	84000084 	addi	r16,r16,2
 200d498:	05840034 	movhi	r22,4096
 200d49c:	b5bfffc4 	addi	r22,r22,-1
 200d4a0:	902f883a 	mov	r23,r18
 200d4a4:	003f9806 	br	200d308 <__alt_mem_epcs_flash_controller+0xfe004308>
 200d4a8:	013fffc4 	movi	r4,-1
 200d4ac:	b80b883a 	mov	r5,r23
 200d4b0:	2001d100 	call	2001d10 <__udivsi3>
 200d4b4:	013fffc4 	movi	r4,-1
 200d4b8:	b80b883a 	mov	r5,r23
 200d4bc:	102d883a 	mov	r22,r2
 200d4c0:	2001d180 	call	2001d18 <__umodsi3>
 200d4c4:	d8800015 	stw	r2,0(sp)
 200d4c8:	b825883a 	mov	r18,r23
 200d4cc:	04400c04 	movi	r17,48
 200d4d0:	003f8d06 	br	200d308 <__alt_mem_epcs_flash_controller+0xfe004308>

0200d4d4 <strtoul>:
 200d4d4:	00808274 	movhi	r2,521
 200d4d8:	10a55004 	addi	r2,r2,-27328
 200d4dc:	2007883a 	mov	r3,r4
 200d4e0:	11000017 	ldw	r4,0(r2)
 200d4e4:	2805883a 	mov	r2,r5
 200d4e8:	300f883a 	mov	r7,r6
 200d4ec:	180b883a 	mov	r5,r3
 200d4f0:	100d883a 	mov	r6,r2
 200d4f4:	200d2301 	jmpi	200d230 <_strtoul_r>

0200d4f8 <_strtoull_r>:
 200d4f8:	defff004 	addi	sp,sp,-64
 200d4fc:	00808274 	movhi	r2,521
 200d500:	10a55304 	addi	r2,r2,-27316
 200d504:	dd800c15 	stw	r22,48(sp)
 200d508:	15800017 	ldw	r22,0(r2)
 200d50c:	df000e15 	stw	fp,56(sp)
 200d510:	dc000615 	stw	r16,24(sp)
 200d514:	dfc00f15 	stw	ra,60(sp)
 200d518:	ddc00d15 	stw	r23,52(sp)
 200d51c:	dd400b15 	stw	r21,44(sp)
 200d520:	dd000a15 	stw	r20,40(sp)
 200d524:	dcc00915 	stw	r19,36(sp)
 200d528:	dc800815 	stw	r18,32(sp)
 200d52c:	dc400715 	stw	r17,28(sp)
 200d530:	d9400015 	stw	r5,0(sp)
 200d534:	d9000415 	stw	r4,16(sp)
 200d538:	d9800115 	stw	r6,4(sp)
 200d53c:	3839883a 	mov	fp,r7
 200d540:	2821883a 	mov	r16,r5
 200d544:	82000007 	ldb	r8,0(r16)
 200d548:	84000044 	addi	r16,r16,1
 200d54c:	b205883a 	add	r2,r22,r8
 200d550:	10800003 	ldbu	r2,0(r2)
 200d554:	1080020c 	andi	r2,r2,8
 200d558:	10803fcc 	andi	r2,r2,255
 200d55c:	1080201c 	xori	r2,r2,128
 200d560:	10bfe004 	addi	r2,r2,-128
 200d564:	103ff71e 	bne	r2,zero,200d544 <__alt_mem_epcs_flash_controller+0xfe004544>
 200d568:	00800b44 	movi	r2,45
 200d56c:	40807e26 	beq	r8,r2,200d768 <_strtoull_r+0x270>
 200d570:	00800ac4 	movi	r2,43
 200d574:	40808126 	beq	r8,r2,200d77c <_strtoull_r+0x284>
 200d578:	d8000315 	stw	zero,12(sp)
 200d57c:	e0000c1e 	bne	fp,zero,200d5b0 <_strtoull_r+0xb8>
 200d580:	00800c04 	movi	r2,48
 200d584:	40808126 	beq	r8,r2,200d78c <_strtoull_r+0x294>
 200d588:	04c00284 	movi	r19,10
 200d58c:	00800144 	movi	r2,5
 200d590:	d8800215 	stw	r2,8(sp)
 200d594:	046666b4 	movhi	r17,39322
 200d598:	8c666644 	addi	r17,r17,-26215
 200d59c:	05c666b4 	movhi	r23,6554
 200d5a0:	bde66644 	addi	r23,r23,-26215
 200d5a4:	0025883a 	mov	r18,zero
 200d5a8:	9839883a 	mov	fp,r19
 200d5ac:	00001306 	br	200d5fc <_strtoull_r+0x104>
 200d5b0:	00800404 	movi	r2,16
 200d5b4:	e0809026 	beq	fp,r2,200d7f8 <_strtoull_r+0x300>
 200d5b8:	e025d7fa 	srai	r18,fp,31
 200d5bc:	013fffc4 	movi	r4,-1
 200d5c0:	200b883a 	mov	r5,r4
 200d5c4:	e00d883a 	mov	r6,fp
 200d5c8:	900f883a 	mov	r7,r18
 200d5cc:	da000515 	stw	r8,20(sp)
 200d5d0:	200e8f40 	call	200e8f4 <__udivdi3>
 200d5d4:	013fffc4 	movi	r4,-1
 200d5d8:	200b883a 	mov	r5,r4
 200d5dc:	e00d883a 	mov	r6,fp
 200d5e0:	900f883a 	mov	r7,r18
 200d5e4:	1023883a 	mov	r17,r2
 200d5e8:	182f883a 	mov	r23,r3
 200d5ec:	200ef440 	call	200ef44 <__umoddi3>
 200d5f0:	da000517 	ldw	r8,20(sp)
 200d5f4:	d8800215 	stw	r2,8(sp)
 200d5f8:	e027883a 	mov	r19,fp
 200d5fc:	b20d883a 	add	r6,r22,r8
 200d600:	32400003 	ldbu	r9,0(r6)
 200d604:	0007883a 	mov	r3,zero
 200d608:	0009883a 	mov	r4,zero
 200d60c:	4a80010c 	andi	r10,r9,4
 200d610:	52803fcc 	andi	r10,r10,255
 200d614:	5280201c 	xori	r10,r10,128
 200d618:	52bfe004 	addi	r10,r10,-128
 200d61c:	000b883a 	mov	r5,zero
 200d620:	057fffc4 	movi	r21,-1
 200d624:	50001026 	beq	r10,zero,200d668 <_strtoull_r+0x170>
 200d628:	453ff404 	addi	r20,r8,-48
 200d62c:	a700150e 	bge	r20,fp,200d684 <_strtoull_r+0x18c>
 200d630:	1d400426 	beq	r3,r21,200d644 <_strtoull_r+0x14c>
 200d634:	b9400236 	bltu	r23,r5,200d640 <_strtoull_r+0x148>
 200d638:	2dc0301e 	bne	r5,r23,200d6fc <_strtoull_r+0x204>
 200d63c:	89002f2e 	bgeu	r17,r4,200d6fc <_strtoull_r+0x204>
 200d640:	00ffffc4 	movi	r3,-1
 200d644:	82000007 	ldb	r8,0(r16)
 200d648:	84000044 	addi	r16,r16,1
 200d64c:	b20d883a 	add	r6,r22,r8
 200d650:	32400003 	ldbu	r9,0(r6)
 200d654:	4a80010c 	andi	r10,r9,4
 200d658:	52803fcc 	andi	r10,r10,255
 200d65c:	5280201c 	xori	r10,r10,128
 200d660:	52bfe004 	addi	r10,r10,-128
 200d664:	503ff01e 	bne	r10,zero,200d628 <__alt_mem_epcs_flash_controller+0xfe004628>
 200d668:	488000cc 	andi	r2,r9,3
 200d66c:	10000526 	beq	r2,zero,200d684 <_strtoull_r+0x18c>
 200d670:	4a40004c 	andi	r9,r9,1
 200d674:	48002d26 	beq	r9,zero,200d72c <_strtoull_r+0x234>
 200d678:	00800dc4 	movi	r2,55
 200d67c:	40a9c83a 	sub	r20,r8,r2
 200d680:	a73feb16 	blt	r20,fp,200d630 <__alt_mem_epcs_flash_controller+0xfe004630>
 200d684:	00bfffc4 	movi	r2,-1
 200d688:	18802f26 	beq	r3,r2,200d748 <_strtoull_r+0x250>
 200d68c:	d8800317 	ldw	r2,12(sp)
 200d690:	10000426 	beq	r2,zero,200d6a4 <_strtoull_r+0x1ac>
 200d694:	0109c83a 	sub	r4,zero,r4
 200d698:	2004c03a 	cmpne	r2,r4,zero
 200d69c:	014bc83a 	sub	r5,zero,r5
 200d6a0:	288bc83a 	sub	r5,r5,r2
 200d6a4:	d8800117 	ldw	r2,4(sp)
 200d6a8:	10000626 	beq	r2,zero,200d6c4 <_strtoull_r+0x1cc>
 200d6ac:	18000226 	beq	r3,zero,200d6b8 <_strtoull_r+0x1c0>
 200d6b0:	843fffc4 	addi	r16,r16,-1
 200d6b4:	dc000015 	stw	r16,0(sp)
 200d6b8:	d8800017 	ldw	r2,0(sp)
 200d6bc:	d8c00117 	ldw	r3,4(sp)
 200d6c0:	18800015 	stw	r2,0(r3)
 200d6c4:	2005883a 	mov	r2,r4
 200d6c8:	2807883a 	mov	r3,r5
 200d6cc:	dfc00f17 	ldw	ra,60(sp)
 200d6d0:	df000e17 	ldw	fp,56(sp)
 200d6d4:	ddc00d17 	ldw	r23,52(sp)
 200d6d8:	dd800c17 	ldw	r22,48(sp)
 200d6dc:	dd400b17 	ldw	r21,44(sp)
 200d6e0:	dd000a17 	ldw	r20,40(sp)
 200d6e4:	dcc00917 	ldw	r19,36(sp)
 200d6e8:	dc800817 	ldw	r18,32(sp)
 200d6ec:	dc400717 	ldw	r17,28(sp)
 200d6f0:	dc000617 	ldw	r16,24(sp)
 200d6f4:	dec01004 	addi	sp,sp,64
 200d6f8:	f800283a 	ret
 200d6fc:	24400e26 	beq	r4,r17,200d738 <_strtoull_r+0x240>
 200d700:	980d883a 	mov	r6,r19
 200d704:	900f883a 	mov	r7,r18
 200d708:	2001d480 	call	2001d48 <__muldi3>
 200d70c:	a00dd7fa 	srai	r6,r20,31
 200d710:	a085883a 	add	r2,r20,r2
 200d714:	1511803a 	cmpltu	r8,r2,r20
 200d718:	30c7883a 	add	r3,r6,r3
 200d71c:	40cb883a 	add	r5,r8,r3
 200d720:	1009883a 	mov	r4,r2
 200d724:	00c00044 	movi	r3,1
 200d728:	003fc606 	br	200d644 <__alt_mem_epcs_flash_controller+0xfe004644>
 200d72c:	008015c4 	movi	r2,87
 200d730:	40a9c83a 	sub	r20,r8,r2
 200d734:	003fd206 	br	200d680 <__alt_mem_epcs_flash_controller+0xfe004680>
 200d738:	2dfff11e 	bne	r5,r23,200d700 <__alt_mem_epcs_flash_controller+0xfe004700>
 200d73c:	d8800217 	ldw	r2,8(sp)
 200d740:	153fbf16 	blt	r2,r20,200d640 <__alt_mem_epcs_flash_controller+0xfe004640>
 200d744:	003fee06 	br	200d700 <__alt_mem_epcs_flash_controller+0xfe004700>
 200d748:	d9000417 	ldw	r4,16(sp)
 200d74c:	00800884 	movi	r2,34
 200d750:	180b883a 	mov	r5,r3
 200d754:	20800015 	stw	r2,0(r4)
 200d758:	d8800117 	ldw	r2,4(sp)
 200d75c:	1809883a 	mov	r4,r3
 200d760:	103fd31e 	bne	r2,zero,200d6b0 <__alt_mem_epcs_flash_controller+0xfe0046b0>
 200d764:	003fd706 	br	200d6c4 <__alt_mem_epcs_flash_controller+0xfe0046c4>
 200d768:	00800044 	movi	r2,1
 200d76c:	82000007 	ldb	r8,0(r16)
 200d770:	d8800315 	stw	r2,12(sp)
 200d774:	80a1883a 	add	r16,r16,r2
 200d778:	003f8006 	br	200d57c <__alt_mem_epcs_flash_controller+0xfe00457c>
 200d77c:	82000007 	ldb	r8,0(r16)
 200d780:	d8000315 	stw	zero,12(sp)
 200d784:	84000044 	addi	r16,r16,1
 200d788:	003f7c06 	br	200d57c <__alt_mem_epcs_flash_controller+0xfe00457c>
 200d78c:	80800007 	ldb	r2,0(r16)
 200d790:	00c01e04 	movi	r3,120
 200d794:	10c00d26 	beq	r2,r3,200d7cc <_strtoull_r+0x2d4>
 200d798:	00c01604 	movi	r3,88
 200d79c:	10c00b26 	beq	r2,r3,200d7cc <_strtoull_r+0x2d4>
 200d7a0:	e000291e 	bne	fp,zero,200d848 <_strtoull_r+0x350>
 200d7a4:	04c00204 	movi	r19,8
 200d7a8:	008001c4 	movi	r2,7
 200d7ac:	d8800215 	stw	r2,8(sp)
 200d7b0:	047fffc4 	movi	r17,-1
 200d7b4:	05c80034 	movhi	r23,8192
 200d7b8:	bdffffc4 	addi	r23,r23,-1
 200d7bc:	0025883a 	mov	r18,zero
 200d7c0:	02000c04 	movi	r8,48
 200d7c4:	9839883a 	mov	fp,r19
 200d7c8:	003f8c06 	br	200d5fc <__alt_mem_epcs_flash_controller+0xfe0045fc>
 200d7cc:	04c00404 	movi	r19,16
 200d7d0:	008003c4 	movi	r2,15
 200d7d4:	82000047 	ldb	r8,1(r16)
 200d7d8:	d8800215 	stw	r2,8(sp)
 200d7dc:	84000084 	addi	r16,r16,2
 200d7e0:	047fffc4 	movi	r17,-1
 200d7e4:	05c40034 	movhi	r23,4096
 200d7e8:	bdffffc4 	addi	r23,r23,-1
 200d7ec:	0025883a 	mov	r18,zero
 200d7f0:	9839883a 	mov	fp,r19
 200d7f4:	003f8106 	br	200d5fc <__alt_mem_epcs_flash_controller+0xfe0045fc>
 200d7f8:	00800c04 	movi	r2,48
 200d7fc:	40bfe326 	beq	r8,r2,200d78c <__alt_mem_epcs_flash_controller+0xfe00478c>
 200d800:	013fffc4 	movi	r4,-1
 200d804:	200b883a 	mov	r5,r4
 200d808:	e00d883a 	mov	r6,fp
 200d80c:	000f883a 	mov	r7,zero
 200d810:	da000515 	stw	r8,20(sp)
 200d814:	200e8f40 	call	200e8f4 <__udivdi3>
 200d818:	013fffc4 	movi	r4,-1
 200d81c:	200b883a 	mov	r5,r4
 200d820:	e00d883a 	mov	r6,fp
 200d824:	000f883a 	mov	r7,zero
 200d828:	1023883a 	mov	r17,r2
 200d82c:	182f883a 	mov	r23,r3
 200d830:	200ef440 	call	200ef44 <__umoddi3>
 200d834:	d8800215 	stw	r2,8(sp)
 200d838:	e027883a 	mov	r19,fp
 200d83c:	0025883a 	mov	r18,zero
 200d840:	da000517 	ldw	r8,20(sp)
 200d844:	003f6d06 	br	200d5fc <__alt_mem_epcs_flash_controller+0xfe0045fc>
 200d848:	e025d7fa 	srai	r18,fp,31
 200d84c:	013fffc4 	movi	r4,-1
 200d850:	200b883a 	mov	r5,r4
 200d854:	e00d883a 	mov	r6,fp
 200d858:	900f883a 	mov	r7,r18
 200d85c:	200e8f40 	call	200e8f4 <__udivdi3>
 200d860:	013fffc4 	movi	r4,-1
 200d864:	200b883a 	mov	r5,r4
 200d868:	e00d883a 	mov	r6,fp
 200d86c:	900f883a 	mov	r7,r18
 200d870:	1023883a 	mov	r17,r2
 200d874:	182f883a 	mov	r23,r3
 200d878:	200ef440 	call	200ef44 <__umoddi3>
 200d87c:	d8800215 	stw	r2,8(sp)
 200d880:	e027883a 	mov	r19,fp
 200d884:	02000c04 	movi	r8,48
 200d888:	003f5c06 	br	200d5fc <__alt_mem_epcs_flash_controller+0xfe0045fc>

0200d88c <__submore>:
 200d88c:	defffa04 	addi	sp,sp,-24
 200d890:	dc000015 	stw	r16,0(sp)
 200d894:	2821883a 	mov	r16,r5
 200d898:	29400c17 	ldw	r5,48(r5)
 200d89c:	dfc00515 	stw	ra,20(sp)
 200d8a0:	dd000415 	stw	r20,16(sp)
 200d8a4:	dcc00315 	stw	r19,12(sp)
 200d8a8:	dc800215 	stw	r18,8(sp)
 200d8ac:	dc400115 	stw	r17,4(sp)
 200d8b0:	80801004 	addi	r2,r16,64
 200d8b4:	28801726 	beq	r5,r2,200d914 <__submore+0x88>
 200d8b8:	84400d17 	ldw	r17,52(r16)
 200d8bc:	8c67883a 	add	r19,r17,r17
 200d8c0:	980d883a 	mov	r6,r19
 200d8c4:	200ab580 	call	200ab58 <_realloc_r>
 200d8c8:	1025883a 	mov	r18,r2
 200d8cc:	10002926 	beq	r2,zero,200d974 <__submore+0xe8>
 200d8d0:	1469883a 	add	r20,r2,r17
 200d8d4:	a009883a 	mov	r4,r20
 200d8d8:	100b883a 	mov	r5,r2
 200d8dc:	880d883a 	mov	r6,r17
 200d8e0:	20097d00 	call	20097d0 <memcpy>
 200d8e4:	0005883a 	mov	r2,zero
 200d8e8:	85000015 	stw	r20,0(r16)
 200d8ec:	84800c15 	stw	r18,48(r16)
 200d8f0:	84c00d15 	stw	r19,52(r16)
 200d8f4:	dfc00517 	ldw	ra,20(sp)
 200d8f8:	dd000417 	ldw	r20,16(sp)
 200d8fc:	dcc00317 	ldw	r19,12(sp)
 200d900:	dc800217 	ldw	r18,8(sp)
 200d904:	dc400117 	ldw	r17,4(sp)
 200d908:	dc000017 	ldw	r16,0(sp)
 200d90c:	dec00604 	addi	sp,sp,24
 200d910:	f800283a 	ret
 200d914:	04410004 	movi	r17,1024
 200d918:	880b883a 	mov	r5,r17
 200d91c:	20029180 	call	2002918 <_malloc_r>
 200d920:	1007883a 	mov	r3,r2
 200d924:	10001326 	beq	r2,zero,200d974 <__submore+0xe8>
 200d928:	80801083 	ldbu	r2,66(r16)
 200d92c:	80c00c15 	stw	r3,48(r16)
 200d930:	84400d15 	stw	r17,52(r16)
 200d934:	1880ffc5 	stb	r2,1023(r3)
 200d938:	81401043 	ldbu	r5,65(r16)
 200d93c:	1900ff44 	addi	r4,r3,1021
 200d940:	0005883a 	mov	r2,zero
 200d944:	1940ff85 	stb	r5,1022(r3)
 200d948:	81401003 	ldbu	r5,64(r16)
 200d94c:	1940ff45 	stb	r5,1021(r3)
 200d950:	81000015 	stw	r4,0(r16)
 200d954:	dfc00517 	ldw	ra,20(sp)
 200d958:	dd000417 	ldw	r20,16(sp)
 200d95c:	dcc00317 	ldw	r19,12(sp)
 200d960:	dc800217 	ldw	r18,8(sp)
 200d964:	dc400117 	ldw	r17,4(sp)
 200d968:	dc000017 	ldw	r16,0(sp)
 200d96c:	dec00604 	addi	sp,sp,24
 200d970:	f800283a 	ret
 200d974:	00bfffc4 	movi	r2,-1
 200d978:	003fde06 	br	200d8f4 <__alt_mem_epcs_flash_controller+0xfe0048f4>

0200d97c <_ungetc_r>:
 200d97c:	defffc04 	addi	sp,sp,-16
 200d980:	dc800215 	stw	r18,8(sp)
 200d984:	dc400115 	stw	r17,4(sp)
 200d988:	dc000015 	stw	r16,0(sp)
 200d98c:	dfc00315 	stw	ra,12(sp)
 200d990:	00bfffc4 	movi	r2,-1
 200d994:	2825883a 	mov	r18,r5
 200d998:	2023883a 	mov	r17,r4
 200d99c:	3021883a 	mov	r16,r6
 200d9a0:	28803026 	beq	r5,r2,200da64 <_ungetc_r+0xe8>
 200d9a4:	20000226 	beq	r4,zero,200d9b0 <_ungetc_r+0x34>
 200d9a8:	20800e17 	ldw	r2,56(r4)
 200d9ac:	10002f26 	beq	r2,zero,200da6c <_ungetc_r+0xf0>
 200d9b0:	80c0030b 	ldhu	r3,12(r16)
 200d9b4:	00bff7c4 	movi	r2,-33
 200d9b8:	1900010c 	andi	r4,r3,4
 200d9bc:	213fffcc 	andi	r4,r4,65535
 200d9c0:	1884703a 	and	r2,r3,r2
 200d9c4:	2120001c 	xori	r4,r4,32768
 200d9c8:	8080030d 	sth	r2,12(r16)
 200d9cc:	21200004 	addi	r4,r4,-32768
 200d9d0:	20000c1e 	bne	r4,zero,200da04 <_ungetc_r+0x88>
 200d9d4:	1900040c 	andi	r4,r3,16
 200d9d8:	213fffcc 	andi	r4,r4,65535
 200d9dc:	2120001c 	xori	r4,r4,32768
 200d9e0:	21200004 	addi	r4,r4,-32768
 200d9e4:	20001f26 	beq	r4,zero,200da64 <_ungetc_r+0xe8>
 200d9e8:	18c0020c 	andi	r3,r3,8
 200d9ec:	18ffffcc 	andi	r3,r3,65535
 200d9f0:	18e0001c 	xori	r3,r3,32768
 200d9f4:	18e00004 	addi	r3,r3,-32768
 200d9f8:	1800371e 	bne	r3,zero,200dad8 <_ungetc_r+0x15c>
 200d9fc:	10800114 	ori	r2,r2,4
 200da00:	8080030d 	sth	r2,12(r16)
 200da04:	80800c17 	ldw	r2,48(r16)
 200da08:	94803fcc 	andi	r18,r18,255
 200da0c:	10001926 	beq	r2,zero,200da74 <_ungetc_r+0xf8>
 200da10:	80c00117 	ldw	r3,4(r16)
 200da14:	80800d17 	ldw	r2,52(r16)
 200da18:	18800e0e 	bge	r3,r2,200da54 <_ungetc_r+0xd8>
 200da1c:	80800017 	ldw	r2,0(r16)
 200da20:	10ffffc4 	addi	r3,r2,-1
 200da24:	80c00015 	stw	r3,0(r16)
 200da28:	14bfffc5 	stb	r18,-1(r2)
 200da2c:	80800117 	ldw	r2,4(r16)
 200da30:	10800044 	addi	r2,r2,1
 200da34:	80800115 	stw	r2,4(r16)
 200da38:	9005883a 	mov	r2,r18
 200da3c:	dfc00317 	ldw	ra,12(sp)
 200da40:	dc800217 	ldw	r18,8(sp)
 200da44:	dc400117 	ldw	r17,4(sp)
 200da48:	dc000017 	ldw	r16,0(sp)
 200da4c:	dec00404 	addi	sp,sp,16
 200da50:	f800283a 	ret
 200da54:	8809883a 	mov	r4,r17
 200da58:	800b883a 	mov	r5,r16
 200da5c:	200d88c0 	call	200d88c <__submore>
 200da60:	103fee26 	beq	r2,zero,200da1c <__alt_mem_epcs_flash_controller+0xfe004a1c>
 200da64:	04bfffc4 	movi	r18,-1
 200da68:	003ff306 	br	200da38 <__alt_mem_epcs_flash_controller+0xfe004a38>
 200da6c:	20025700 	call	2002570 <__sinit>
 200da70:	003fcf06 	br	200d9b0 <__alt_mem_epcs_flash_controller+0xfe0049b0>
 200da74:	80c00417 	ldw	r3,16(r16)
 200da78:	80800017 	ldw	r2,0(r16)
 200da7c:	18000326 	beq	r3,zero,200da8c <_ungetc_r+0x110>
 200da80:	1880022e 	bgeu	r3,r2,200da8c <_ungetc_r+0x110>
 200da84:	10ffffc3 	ldbu	r3,-1(r2)
 200da88:	1c801d26 	beq	r3,r18,200db00 <_ungetc_r+0x184>
 200da8c:	81400117 	ldw	r5,4(r16)
 200da90:	80800e15 	stw	r2,56(r16)
 200da94:	008000c4 	movi	r2,3
 200da98:	80800d15 	stw	r2,52(r16)
 200da9c:	00800044 	movi	r2,1
 200daa0:	81001004 	addi	r4,r16,64
 200daa4:	80c01084 	addi	r3,r16,66
 200daa8:	80800115 	stw	r2,4(r16)
 200daac:	9005883a 	mov	r2,r18
 200dab0:	81400f15 	stw	r5,60(r16)
 200dab4:	81000c15 	stw	r4,48(r16)
 200dab8:	84801085 	stb	r18,66(r16)
 200dabc:	80c00015 	stw	r3,0(r16)
 200dac0:	dfc00317 	ldw	ra,12(sp)
 200dac4:	dc800217 	ldw	r18,8(sp)
 200dac8:	dc400117 	ldw	r17,4(sp)
 200dacc:	dc000017 	ldw	r16,0(sp)
 200dad0:	dec00404 	addi	sp,sp,16
 200dad4:	f800283a 	ret
 200dad8:	8809883a 	mov	r4,r17
 200dadc:	800b883a 	mov	r5,r16
 200dae0:	20022b40 	call	20022b4 <_fflush_r>
 200dae4:	103fdf1e 	bne	r2,zero,200da64 <__alt_mem_epcs_flash_controller+0xfe004a64>
 200dae8:	8080030b 	ldhu	r2,12(r16)
 200daec:	00fffdc4 	movi	r3,-9
 200daf0:	80000215 	stw	zero,8(r16)
 200daf4:	1884703a 	and	r2,r3,r2
 200daf8:	80000615 	stw	zero,24(r16)
 200dafc:	003fbf06 	br	200d9fc <__alt_mem_epcs_flash_controller+0xfe0049fc>
 200db00:	80c00117 	ldw	r3,4(r16)
 200db04:	10bfffc4 	addi	r2,r2,-1
 200db08:	80800015 	stw	r2,0(r16)
 200db0c:	18800044 	addi	r2,r3,1
 200db10:	80800115 	stw	r2,4(r16)
 200db14:	003fc806 	br	200da38 <__alt_mem_epcs_flash_controller+0xfe004a38>

0200db18 <ungetc>:
 200db18:	00c08274 	movhi	r3,521
 200db1c:	18e55004 	addi	r3,r3,-27328
 200db20:	2005883a 	mov	r2,r4
 200db24:	19000017 	ldw	r4,0(r3)
 200db28:	280d883a 	mov	r6,r5
 200db2c:	100b883a 	mov	r5,r2
 200db30:	200d97c1 	jmpi	200d97c <_ungetc_r>

0200db34 <_calloc_r>:
 200db34:	defffe04 	addi	sp,sp,-8
 200db38:	dc000015 	stw	r16,0(sp)
 200db3c:	2021883a 	mov	r16,r4
 200db40:	3009883a 	mov	r4,r6
 200db44:	dfc00115 	stw	ra,4(sp)
 200db48:	2001d200 	call	2001d20 <__mulsi3>
 200db4c:	8009883a 	mov	r4,r16
 200db50:	100b883a 	mov	r5,r2
 200db54:	20029180 	call	2002918 <_malloc_r>
 200db58:	1021883a 	mov	r16,r2
 200db5c:	10000c26 	beq	r2,zero,200db90 <_calloc_r+0x5c>
 200db60:	11bfff17 	ldw	r6,-4(r2)
 200db64:	00ffff04 	movi	r3,-4
 200db68:	00800904 	movi	r2,36
 200db6c:	30cc703a 	and	r6,r6,r3
 200db70:	30cd883a 	add	r6,r6,r3
 200db74:	11801436 	bltu	r2,r6,200dbc8 <_calloc_r+0x94>
 200db78:	00c004c4 	movi	r3,19
 200db7c:	19800936 	bltu	r3,r6,200dba4 <_calloc_r+0x70>
 200db80:	8005883a 	mov	r2,r16
 200db84:	10000015 	stw	zero,0(r2)
 200db88:	10000115 	stw	zero,4(r2)
 200db8c:	10000215 	stw	zero,8(r2)
 200db90:	8005883a 	mov	r2,r16
 200db94:	dfc00117 	ldw	ra,4(sp)
 200db98:	dc000017 	ldw	r16,0(sp)
 200db9c:	dec00204 	addi	sp,sp,8
 200dba0:	f800283a 	ret
 200dba4:	80000015 	stw	zero,0(r16)
 200dba8:	80000115 	stw	zero,4(r16)
 200dbac:	00c006c4 	movi	r3,27
 200dbb0:	19800d2e 	bgeu	r3,r6,200dbe8 <_calloc_r+0xb4>
 200dbb4:	80000215 	stw	zero,8(r16)
 200dbb8:	80000315 	stw	zero,12(r16)
 200dbbc:	30800c26 	beq	r6,r2,200dbf0 <_calloc_r+0xbc>
 200dbc0:	80800404 	addi	r2,r16,16
 200dbc4:	003fef06 	br	200db84 <__alt_mem_epcs_flash_controller+0xfe004b84>
 200dbc8:	8009883a 	mov	r4,r16
 200dbcc:	000b883a 	mov	r5,zero
 200dbd0:	200309c0 	call	200309c <memset>
 200dbd4:	8005883a 	mov	r2,r16
 200dbd8:	dfc00117 	ldw	ra,4(sp)
 200dbdc:	dc000017 	ldw	r16,0(sp)
 200dbe0:	dec00204 	addi	sp,sp,8
 200dbe4:	f800283a 	ret
 200dbe8:	80800204 	addi	r2,r16,8
 200dbec:	003fe506 	br	200db84 <__alt_mem_epcs_flash_controller+0xfe004b84>
 200dbf0:	80000415 	stw	zero,16(r16)
 200dbf4:	80000515 	stw	zero,20(r16)
 200dbf8:	80800604 	addi	r2,r16,24
 200dbfc:	003fe106 	br	200db84 <__alt_mem_epcs_flash_controller+0xfe004b84>

0200dc00 <_fstat_r>:
 200dc00:	defffd04 	addi	sp,sp,-12
 200dc04:	dc400115 	stw	r17,4(sp)
 200dc08:	dc000015 	stw	r16,0(sp)
 200dc0c:	2023883a 	mov	r17,r4
 200dc10:	04008274 	movhi	r16,521
 200dc14:	842cc804 	addi	r16,r16,-19680
 200dc18:	2809883a 	mov	r4,r5
 200dc1c:	300b883a 	mov	r5,r6
 200dc20:	dfc00215 	stw	ra,8(sp)
 200dc24:	80000015 	stw	zero,0(r16)
 200dc28:	20104b00 	call	20104b0 <fstat>
 200dc2c:	00ffffc4 	movi	r3,-1
 200dc30:	10c00526 	beq	r2,r3,200dc48 <_fstat_r+0x48>
 200dc34:	dfc00217 	ldw	ra,8(sp)
 200dc38:	dc400117 	ldw	r17,4(sp)
 200dc3c:	dc000017 	ldw	r16,0(sp)
 200dc40:	dec00304 	addi	sp,sp,12
 200dc44:	f800283a 	ret
 200dc48:	80c00017 	ldw	r3,0(r16)
 200dc4c:	183ff926 	beq	r3,zero,200dc34 <__alt_mem_epcs_flash_controller+0xfe004c34>
 200dc50:	88c00015 	stw	r3,0(r17)
 200dc54:	dfc00217 	ldw	ra,8(sp)
 200dc58:	dc400117 	ldw	r17,4(sp)
 200dc5c:	dc000017 	ldw	r16,0(sp)
 200dc60:	dec00304 	addi	sp,sp,12
 200dc64:	f800283a 	ret

0200dc68 <rshift>:
 200dc68:	2805d17a 	srai	r2,r5,5
 200dc6c:	20c00417 	ldw	r3,16(r4)
 200dc70:	22800504 	addi	r10,r4,20
 200dc74:	10c0270e 	bge	r2,r3,200dd14 <rshift+0xac>
 200dc78:	19800144 	addi	r6,r3,5
 200dc7c:	12c00144 	addi	r11,r2,5
 200dc80:	318d883a 	add	r6,r6,r6
 200dc84:	5ad7883a 	add	r11,r11,r11
 200dc88:	318d883a 	add	r6,r6,r6
 200dc8c:	5ad7883a 	add	r11,r11,r11
 200dc90:	294007cc 	andi	r5,r5,31
 200dc94:	218d883a 	add	r6,r4,r6
 200dc98:	22d7883a 	add	r11,r4,r11
 200dc9c:	28002026 	beq	r5,zero,200dd20 <rshift+0xb8>
 200dca0:	59c00017 	ldw	r7,0(r11)
 200dca4:	02400804 	movi	r9,32
 200dca8:	58800104 	addi	r2,r11,4
 200dcac:	4953c83a 	sub	r9,r9,r5
 200dcb0:	394ed83a 	srl	r7,r7,r5
 200dcb4:	11802e2e 	bgeu	r2,r6,200dd70 <rshift+0x108>
 200dcb8:	5007883a 	mov	r3,r10
 200dcbc:	12000017 	ldw	r8,0(r2)
 200dcc0:	18c00104 	addi	r3,r3,4
 200dcc4:	10800104 	addi	r2,r2,4
 200dcc8:	4250983a 	sll	r8,r8,r9
 200dccc:	3a0eb03a 	or	r7,r7,r8
 200dcd0:	19ffff15 	stw	r7,-4(r3)
 200dcd4:	11ffff17 	ldw	r7,-4(r2)
 200dcd8:	394ed83a 	srl	r7,r7,r5
 200dcdc:	11bff736 	bltu	r2,r6,200dcbc <__alt_mem_epcs_flash_controller+0xfe004cbc>
 200dce0:	32c5c83a 	sub	r2,r6,r11
 200dce4:	10bffec4 	addi	r2,r2,-5
 200dce8:	1004d0ba 	srli	r2,r2,2
 200dcec:	10800184 	addi	r2,r2,6
 200dcf0:	1085883a 	add	r2,r2,r2
 200dcf4:	1085883a 	add	r2,r2,r2
 200dcf8:	2085883a 	add	r2,r4,r2
 200dcfc:	11c00015 	stw	r7,0(r2)
 200dd00:	38001626 	beq	r7,zero,200dd5c <rshift+0xf4>
 200dd04:	10800104 	addi	r2,r2,4
 200dd08:	1295c83a 	sub	r10,r2,r10
 200dd0c:	5015d0ba 	srai	r10,r10,2
 200dd10:	00001406 	br	200dd64 <rshift+0xfc>
 200dd14:	20000415 	stw	zero,16(r4)
 200dd18:	20000515 	stw	zero,20(r4)
 200dd1c:	f800283a 	ret
 200dd20:	59bffc2e 	bgeu	r11,r6,200dd14 <__alt_mem_epcs_flash_controller+0xfe004d14>
 200dd24:	5007883a 	mov	r3,r10
 200dd28:	5805883a 	mov	r2,r11
 200dd2c:	11400017 	ldw	r5,0(r2)
 200dd30:	18c00104 	addi	r3,r3,4
 200dd34:	10800104 	addi	r2,r2,4
 200dd38:	197fff15 	stw	r5,-4(r3)
 200dd3c:	11bffb36 	bltu	r2,r6,200dd2c <__alt_mem_epcs_flash_controller+0xfe004d2c>
 200dd40:	02c4303a 	nor	r2,zero,r11
 200dd44:	1185883a 	add	r2,r2,r6
 200dd48:	1004d0ba 	srli	r2,r2,2
 200dd4c:	10800184 	addi	r2,r2,6
 200dd50:	1085883a 	add	r2,r2,r2
 200dd54:	1085883a 	add	r2,r2,r2
 200dd58:	2085883a 	add	r2,r4,r2
 200dd5c:	1295c83a 	sub	r10,r2,r10
 200dd60:	5015d0ba 	srai	r10,r10,2
 200dd64:	22800415 	stw	r10,16(r4)
 200dd68:	503feb26 	beq	r10,zero,200dd18 <__alt_mem_epcs_flash_controller+0xfe004d18>
 200dd6c:	f800283a 	ret
 200dd70:	5005883a 	mov	r2,r10
 200dd74:	003fe106 	br	200dcfc <__alt_mem_epcs_flash_controller+0xfe004cfc>

0200dd78 <__hexdig_init>:
 200dd78:	01408234 	movhi	r5,520
 200dd7c:	295de644 	addi	r5,r5,30617
 200dd80:	01000404 	movi	r4,16
 200dd84:	00c00c04 	movi	r3,48
 200dd88:	00808274 	movhi	r2,521
 200dd8c:	10ace404 	addi	r2,r2,-19568
 200dd90:	29800003 	ldbu	r6,0(r5)
 200dd94:	10c7883a 	add	r3,r2,r3
 200dd98:	19000005 	stb	r4,0(r3)
 200dd9c:	29400044 	addi	r5,r5,1
 200dda0:	3007883a 	mov	r3,r6
 200dda4:	21000044 	addi	r4,r4,1
 200dda8:	303ff91e 	bne	r6,zero,200dd90 <__alt_mem_epcs_flash_controller+0xfe004d90>
 200ddac:	01408234 	movhi	r5,520
 200ddb0:	295de444 	addi	r5,r5,30609
 200ddb4:	01000684 	movi	r4,26
 200ddb8:	00c01844 	movi	r3,97
 200ddbc:	29800003 	ldbu	r6,0(r5)
 200ddc0:	10c7883a 	add	r3,r2,r3
 200ddc4:	19000005 	stb	r4,0(r3)
 200ddc8:	29400044 	addi	r5,r5,1
 200ddcc:	3007883a 	mov	r3,r6
 200ddd0:	21000044 	addi	r4,r4,1
 200ddd4:	303ff91e 	bne	r6,zero,200ddbc <__alt_mem_epcs_flash_controller+0xfe004dbc>
 200ddd8:	01408234 	movhi	r5,520
 200dddc:	295de244 	addi	r5,r5,30601
 200dde0:	01000684 	movi	r4,26
 200dde4:	00c01044 	movi	r3,65
 200dde8:	29800003 	ldbu	r6,0(r5)
 200ddec:	10c7883a 	add	r3,r2,r3
 200ddf0:	19000005 	stb	r4,0(r3)
 200ddf4:	29400044 	addi	r5,r5,1
 200ddf8:	3007883a 	mov	r3,r6
 200ddfc:	21000044 	addi	r4,r4,1
 200de00:	303ff91e 	bne	r6,zero,200dde8 <__alt_mem_epcs_flash_controller+0xfe004de8>
 200de04:	f800283a 	ret

0200de08 <__gethex>:
 200de08:	defff204 	addi	sp,sp,-56
 200de0c:	dc800615 	stw	r18,24(sp)
 200de10:	04808274 	movhi	r18,521
 200de14:	94ace404 	addi	r18,r18,-19568
 200de18:	90800c03 	ldbu	r2,48(r18)
 200de1c:	dd400915 	stw	r21,36(sp)
 200de20:	dc400515 	stw	r17,20(sp)
 200de24:	dfc00d15 	stw	ra,52(sp)
 200de28:	df000c15 	stw	fp,48(sp)
 200de2c:	ddc00b15 	stw	r23,44(sp)
 200de30:	dd800a15 	stw	r22,40(sp)
 200de34:	dd000815 	stw	r20,32(sp)
 200de38:	dcc00715 	stw	r19,28(sp)
 200de3c:	dc000415 	stw	r16,16(sp)
 200de40:	d9000115 	stw	r4,4(sp)
 200de44:	d9c00215 	stw	r7,8(sp)
 200de48:	282b883a 	mov	r21,r5
 200de4c:	3023883a 	mov	r17,r6
 200de50:	1000b926 	beq	r2,zero,200e138 <__gethex+0x330>
 200de54:	a9000017 	ldw	r4,0(r21)
 200de58:	00800c04 	movi	r2,48
 200de5c:	20c00083 	ldbu	r3,2(r4)
 200de60:	24c00084 	addi	r19,r4,2
 200de64:	1881601e 	bne	r3,r2,200e3e8 <__gethex+0x5e0>
 200de68:	017fff84 	movi	r5,-2
 200de6c:	208000c4 	addi	r2,r4,3
 200de70:	290bc83a 	sub	r5,r5,r4
 200de74:	1809883a 	mov	r4,r3
 200de78:	28b9883a 	add	fp,r5,r2
 200de7c:	1027883a 	mov	r19,r2
 200de80:	10800044 	addi	r2,r2,1
 200de84:	10ffffc3 	ldbu	r3,-1(r2)
 200de88:	193ffb26 	beq	r3,r4,200de78 <__alt_mem_epcs_flash_controller+0xfe004e78>
 200de8c:	90c5883a 	add	r2,r18,r3
 200de90:	10800003 	ldbu	r2,0(r2)
 200de94:	01408274 	movhi	r5,521
 200de98:	296ce404 	addi	r5,r5,-19568
 200de9c:	10002b26 	beq	r2,zero,200df4c <__gethex+0x144>
 200dea0:	98800003 	ldbu	r2,0(r19)
 200dea4:	0009883a 	mov	r4,zero
 200dea8:	288b883a 	add	r5,r5,r2
 200deac:	28c00003 	ldbu	r3,0(r5)
 200deb0:	18016826 	beq	r3,zero,200e454 <__gethex+0x64c>
 200deb4:	9821883a 	mov	r16,r19
 200deb8:	84000044 	addi	r16,r16,1
 200debc:	80800003 	ldbu	r2,0(r16)
 200dec0:	9087883a 	add	r3,r18,r2
 200dec4:	18c00003 	ldbu	r3,0(r3)
 200dec8:	183ffb1e 	bne	r3,zero,200deb8 <__alt_mem_epcs_flash_controller+0xfe004eb8>
 200decc:	d8000015 	stw	zero,0(sp)
 200ded0:	00c00b84 	movi	r3,46
 200ded4:	10c0f226 	beq	r2,r3,200e2a0 <__gethex+0x498>
 200ded8:	80800003 	ldbu	r2,0(r16)
 200dedc:	20014426 	beq	r4,zero,200e3f0 <__gethex+0x5e8>
 200dee0:	8109c83a 	sub	r4,r16,r4
 200dee4:	2109883a 	add	r4,r4,r4
 200dee8:	2109883a 	add	r4,r4,r4
 200deec:	0129c83a 	sub	r20,zero,r4
 200def0:	00c01404 	movi	r3,80
 200def4:	10c01e26 	beq	r2,r3,200df70 <__gethex+0x168>
 200def8:	00c01c04 	movi	r3,112
 200defc:	10c01c26 	beq	r2,r3,200df70 <__gethex+0x168>
 200df00:	d8c00017 	ldw	r3,0(sp)
 200df04:	802d883a 	mov	r22,r16
 200df08:	ad800015 	stw	r22,0(r21)
 200df0c:	18004026 	beq	r3,zero,200e010 <__gethex+0x208>
 200df10:	e001061e 	bne	fp,zero,200e32c <__gethex+0x524>
 200df14:	04000184 	movi	r16,6
 200df18:	8005883a 	mov	r2,r16
 200df1c:	dfc00d17 	ldw	ra,52(sp)
 200df20:	df000c17 	ldw	fp,48(sp)
 200df24:	ddc00b17 	ldw	r23,44(sp)
 200df28:	dd800a17 	ldw	r22,40(sp)
 200df2c:	dd400917 	ldw	r21,36(sp)
 200df30:	dd000817 	ldw	r20,32(sp)
 200df34:	dcc00717 	ldw	r19,28(sp)
 200df38:	dc800617 	ldw	r18,24(sp)
 200df3c:	dc400517 	ldw	r17,20(sp)
 200df40:	dc000417 	ldw	r16,16(sp)
 200df44:	dec00e04 	addi	sp,sp,56
 200df48:	f800283a 	ret
 200df4c:	00800b84 	movi	r2,46
 200df50:	1880d626 	beq	r3,r2,200e2ac <__gethex+0x4a4>
 200df54:	98800003 	ldbu	r2,0(r19)
 200df58:	00c00044 	movi	r3,1
 200df5c:	d8c00015 	stw	r3,0(sp)
 200df60:	00c01404 	movi	r3,80
 200df64:	9821883a 	mov	r16,r19
 200df68:	0029883a 	mov	r20,zero
 200df6c:	10ffe21e 	bne	r2,r3,200def8 <__alt_mem_epcs_flash_controller+0xfe004ef8>
 200df70:	80800043 	ldbu	r2,1(r16)
 200df74:	00c00ac4 	movi	r3,43
 200df78:	10c0f326 	beq	r2,r3,200e348 <__gethex+0x540>
 200df7c:	00c00b44 	movi	r3,45
 200df80:	10c0ec26 	beq	r2,r3,200e334 <__gethex+0x52c>
 200df84:	80c00044 	addi	r3,r16,1
 200df88:	d8000315 	stw	zero,12(sp)
 200df8c:	9085883a 	add	r2,r18,r2
 200df90:	11000003 	ldbu	r4,0(r2)
 200df94:	203fda26 	beq	r4,zero,200df00 <__alt_mem_epcs_flash_controller+0xfe004f00>
 200df98:	01800644 	movi	r6,25
 200df9c:	313fd816 	blt	r6,r4,200df00 <__alt_mem_epcs_flash_controller+0xfe004f00>
 200dfa0:	18800043 	ldbu	r2,1(r3)
 200dfa4:	01408274 	movhi	r5,521
 200dfa8:	296ce404 	addi	r5,r5,-19568
 200dfac:	213ffc04 	addi	r4,r4,-16
 200dfb0:	2885883a 	add	r2,r5,r2
 200dfb4:	15c00003 	ldbu	r23,0(r2)
 200dfb8:	1d800044 	addi	r22,r3,1
 200dfbc:	b8000d26 	beq	r23,zero,200dff4 <__gethex+0x1ec>
 200dfc0:	35c0030e 	bge	r6,r23,200dfd0 <__gethex+0x1c8>
 200dfc4:	00000b06 	br	200dff4 <__gethex+0x1ec>
 200dfc8:	00800644 	movi	r2,25
 200dfcc:	15c00916 	blt	r2,r23,200dff4 <__gethex+0x1ec>
 200dfd0:	01400284 	movi	r5,10
 200dfd4:	2001d200 	call	2001d20 <__mulsi3>
 200dfd8:	b5800044 	addi	r22,r22,1
 200dfdc:	b1400003 	ldbu	r5,0(r22)
 200dfe0:	15c5883a 	add	r2,r2,r23
 200dfe4:	113ffc04 	addi	r4,r2,-16
 200dfe8:	914b883a 	add	r5,r18,r5
 200dfec:	2dc00003 	ldbu	r23,0(r5)
 200dff0:	b83ff51e 	bne	r23,zero,200dfc8 <__alt_mem_epcs_flash_controller+0xfe004fc8>
 200dff4:	d8c00317 	ldw	r3,12(sp)
 200dff8:	18000126 	beq	r3,zero,200e000 <__gethex+0x1f8>
 200dffc:	0109c83a 	sub	r4,zero,r4
 200e000:	d8c00017 	ldw	r3,0(sp)
 200e004:	ad800015 	stw	r22,0(r21)
 200e008:	a129883a 	add	r20,r20,r4
 200e00c:	183fc01e 	bne	r3,zero,200df10 <__alt_mem_epcs_flash_controller+0xfe004f10>
 200e010:	84c5c83a 	sub	r2,r16,r19
 200e014:	10bfffc4 	addi	r2,r2,-1
 200e018:	00c001c4 	movi	r3,7
 200e01c:	000b883a 	mov	r5,zero
 200e020:	1880030e 	bge	r3,r2,200e030 <__gethex+0x228>
 200e024:	1005d07a 	srai	r2,r2,1
 200e028:	29400044 	addi	r5,r5,1
 200e02c:	18bffd16 	blt	r3,r2,200e024 <__alt_mem_epcs_flash_controller+0xfe005024>
 200e030:	d9000117 	ldw	r4,4(sp)
 200e034:	2009a9c0 	call	2009a9c <_Balloc>
 200e038:	102d883a 	mov	r22,r2
 200e03c:	15400504 	addi	r21,r2,20
 200e040:	9c001b2e 	bgeu	r19,r16,200e0b0 <__gethex+0x2a8>
 200e044:	843fffc4 	addi	r16,r16,-1
 200e048:	98bfffc4 	addi	r2,r19,-1
 200e04c:	a80b883a 	mov	r5,r21
 200e050:	0009883a 	mov	r4,zero
 200e054:	0007883a 	mov	r3,zero
 200e058:	02800b84 	movi	r10,46
 200e05c:	02c00804 	movi	r11,32
 200e060:	00000806 	br	200e084 <__gethex+0x27c>
 200e064:	18c00104 	addi	r3,r3,4
 200e068:	918d883a 	add	r6,r18,r6
 200e06c:	32400003 	ldbu	r9,0(r6)
 200e070:	4a4003cc 	andi	r9,r9,15
 200e074:	49ce983a 	sll	r7,r9,r7
 200e078:	21c8b03a 	or	r4,r4,r7
 200e07c:	843fffc4 	addi	r16,r16,-1
 200e080:	80800d26 	beq	r16,r2,200e0b8 <__gethex+0x2b0>
 200e084:	81800003 	ldbu	r6,0(r16)
 200e088:	180f883a 	mov	r7,r3
 200e08c:	32bffb26 	beq	r6,r10,200e07c <__alt_mem_epcs_flash_controller+0xfe00507c>
 200e090:	1afff41e 	bne	r3,r11,200e064 <__alt_mem_epcs_flash_controller+0xfe005064>
 200e094:	29000015 	stw	r4,0(r5)
 200e098:	81800003 	ldbu	r6,0(r16)
 200e09c:	0009883a 	mov	r4,zero
 200e0a0:	000f883a 	mov	r7,zero
 200e0a4:	29400104 	addi	r5,r5,4
 200e0a8:	00c00104 	movi	r3,4
 200e0ac:	003fee06 	br	200e068 <__alt_mem_epcs_flash_controller+0xfe005068>
 200e0b0:	a80b883a 	mov	r5,r21
 200e0b4:	0009883a 	mov	r4,zero
 200e0b8:	28c00104 	addi	r3,r5,4
 200e0bc:	1d47c83a 	sub	r3,r3,r21
 200e0c0:	1807d0ba 	srai	r3,r3,2
 200e0c4:	29000015 	stw	r4,0(r5)
 200e0c8:	1820917a 	slli	r16,r3,5
 200e0cc:	b0c00415 	stw	r3,16(r22)
 200e0d0:	2009db40 	call	2009db4 <__hi0bits>
 200e0d4:	8dc00017 	ldw	r23,0(r17)
 200e0d8:	8085c83a 	sub	r2,r16,r2
 200e0dc:	b8809c16 	blt	r23,r2,200e350 <__gethex+0x548>
 200e0e0:	15c0b716 	blt	r2,r23,200e3c0 <__gethex+0x5b8>
 200e0e4:	0039883a 	mov	fp,zero
 200e0e8:	88c00217 	ldw	r3,8(r17)
 200e0ec:	1d006516 	blt	r3,r20,200e284 <__gethex+0x47c>
 200e0f0:	88800117 	ldw	r2,4(r17)
 200e0f4:	a080830e 	bge	r20,r2,200e304 <__gethex+0x4fc>
 200e0f8:	1529c83a 	sub	r20,r2,r20
 200e0fc:	a5c01016 	blt	r20,r23,200e140 <__gethex+0x338>
 200e100:	88c00317 	ldw	r3,12(r17)
 200e104:	01000084 	movi	r4,2
 200e108:	1900c726 	beq	r3,r4,200e428 <__gethex+0x620>
 200e10c:	010000c4 	movi	r4,3
 200e110:	1900f026 	beq	r3,r4,200e4d4 <__gethex+0x6cc>
 200e114:	01000044 	movi	r4,1
 200e118:	1900e626 	beq	r3,r4,200e4b4 <__gethex+0x6ac>
 200e11c:	d9000117 	ldw	r4,4(sp)
 200e120:	b00b883a 	mov	r5,r22
 200e124:	04001404 	movi	r16,80
 200e128:	2009b440 	call	2009b44 <_Bfree>
 200e12c:	d8c00e17 	ldw	r3,56(sp)
 200e130:	18000015 	stw	zero,0(r3)
 200e134:	003f7806 	br	200df18 <__alt_mem_epcs_flash_controller+0xfe004f18>
 200e138:	200dd780 	call	200dd78 <__hexdig_init>
 200e13c:	003f4506 	br	200de54 <__alt_mem_epcs_flash_controller+0xfe004e54>
 200e140:	a43fffc4 	addi	r16,r20,-1
 200e144:	e000b21e 	bne	fp,zero,200e410 <__gethex+0x608>
 200e148:	0400040e 	bge	zero,r16,200e15c <__gethex+0x354>
 200e14c:	b009883a 	mov	r4,r22
 200e150:	800b883a 	mov	r5,r16
 200e154:	200aa680 	call	200aa68 <__any_on>
 200e158:	1039883a 	mov	fp,r2
 200e15c:	8005d17a 	srai	r2,r16,5
 200e160:	00c00044 	movi	r3,1
 200e164:	840007cc 	andi	r16,r16,31
 200e168:	1085883a 	add	r2,r2,r2
 200e16c:	1085883a 	add	r2,r2,r2
 200e170:	a885883a 	add	r2,r21,r2
 200e174:	1c06983a 	sll	r3,r3,r16
 200e178:	10800017 	ldw	r2,0(r2)
 200e17c:	1884703a 	and	r2,r3,r2
 200e180:	10000126 	beq	r2,zero,200e188 <__gethex+0x380>
 200e184:	e7000094 	ori	fp,fp,2
 200e188:	a00b883a 	mov	r5,r20
 200e18c:	b009883a 	mov	r4,r22
 200e190:	200dc680 	call	200dc68 <rshift>
 200e194:	bd2fc83a 	sub	r23,r23,r20
 200e198:	8d000117 	ldw	r20,4(r17)
 200e19c:	04000084 	movi	r16,2
 200e1a0:	e0005d26 	beq	fp,zero,200e318 <__gethex+0x510>
 200e1a4:	88800317 	ldw	r2,12(r17)
 200e1a8:	00c00084 	movi	r3,2
 200e1ac:	10c0b026 	beq	r2,r3,200e470 <__gethex+0x668>
 200e1b0:	00c000c4 	movi	r3,3
 200e1b4:	10c05526 	beq	r2,r3,200e30c <__gethex+0x504>
 200e1b8:	00c00044 	movi	r3,1
 200e1bc:	10c0551e 	bne	r2,r3,200e314 <__gethex+0x50c>
 200e1c0:	e080008c 	andi	r2,fp,2
 200e1c4:	10005326 	beq	r2,zero,200e314 <__gethex+0x50c>
 200e1c8:	a8800017 	ldw	r2,0(r21)
 200e1cc:	e084b03a 	or	r2,fp,r2
 200e1d0:	10c4703a 	and	r2,r2,r3
 200e1d4:	10004f26 	beq	r2,zero,200e314 <__gethex+0x50c>
 200e1d8:	b7000417 	ldw	fp,16(r22)
 200e1dc:	00ffffc4 	movi	r3,-1
 200e1e0:	e1000144 	addi	r4,fp,5
 200e1e4:	2109883a 	add	r4,r4,r4
 200e1e8:	2109883a 	add	r4,r4,r4
 200e1ec:	b109883a 	add	r4,r22,r4
 200e1f0:	a8800017 	ldw	r2,0(r21)
 200e1f4:	10c0ba1e 	bne	r2,r3,200e4e0 <__gethex+0x6d8>
 200e1f8:	a8000015 	stw	zero,0(r21)
 200e1fc:	ad400104 	addi	r21,r21,4
 200e200:	a93ffb36 	bltu	r21,r4,200e1f0 <__alt_mem_epcs_flash_controller+0xfe0051f0>
 200e204:	b0800217 	ldw	r2,8(r22)
 200e208:	e080bd0e 	bge	fp,r2,200e500 <__gethex+0x6f8>
 200e20c:	e005883a 	mov	r2,fp
 200e210:	10c00144 	addi	r3,r2,5
 200e214:	18c7883a 	add	r3,r3,r3
 200e218:	18c7883a 	add	r3,r3,r3
 200e21c:	b0c7883a 	add	r3,r22,r3
 200e220:	10800044 	addi	r2,r2,1
 200e224:	01000044 	movi	r4,1
 200e228:	19000015 	stw	r4,0(r3)
 200e22c:	b0800415 	stw	r2,16(r22)
 200e230:	00800084 	movi	r2,2
 200e234:	8080ad26 	beq	r16,r2,200e4ec <__gethex+0x6e4>
 200e238:	b0800417 	ldw	r2,16(r22)
 200e23c:	e0800b16 	blt	fp,r2,200e26c <__gethex+0x464>
 200e240:	bdc007cc 	andi	r23,r23,31
 200e244:	b8008626 	beq	r23,zero,200e460 <__gethex+0x658>
 200e248:	e7000104 	addi	fp,fp,4
 200e24c:	e739883a 	add	fp,fp,fp
 200e250:	e739883a 	add	fp,fp,fp
 200e254:	b705883a 	add	r2,r22,fp
 200e258:	11000017 	ldw	r4,0(r2)
 200e25c:	2009db40 	call	2009db4 <__hi0bits>
 200e260:	00c00804 	movi	r3,32
 200e264:	1defc83a 	sub	r23,r3,r23
 200e268:	15c07d0e 	bge	r2,r23,200e460 <__gethex+0x658>
 200e26c:	b009883a 	mov	r4,r22
 200e270:	01400044 	movi	r5,1
 200e274:	200dc680 	call	200dc68 <rshift>
 200e278:	88800217 	ldw	r2,8(r17)
 200e27c:	a5000044 	addi	r20,r20,1
 200e280:	1500770e 	bge	r2,r20,200e460 <__gethex+0x658>
 200e284:	d9000117 	ldw	r4,4(sp)
 200e288:	b00b883a 	mov	r5,r22
 200e28c:	040028c4 	movi	r16,163
 200e290:	2009b440 	call	2009b44 <_Bfree>
 200e294:	d8800e17 	ldw	r2,56(sp)
 200e298:	10000015 	stw	zero,0(r2)
 200e29c:	003f1e06 	br	200df18 <__alt_mem_epcs_flash_controller+0xfe004f18>
 200e2a0:	20007826 	beq	r4,zero,200e484 <__gethex+0x67c>
 200e2a4:	80800003 	ldbu	r2,0(r16)
 200e2a8:	003f0d06 	br	200dee0 <__alt_mem_epcs_flash_controller+0xfe004ee0>
 200e2ac:	98800043 	ldbu	r2,1(r19)
 200e2b0:	9c000044 	addi	r16,r19,1
 200e2b4:	288b883a 	add	r5,r5,r2
 200e2b8:	28c00003 	ldbu	r3,0(r5)
 200e2bc:	18005026 	beq	r3,zero,200e400 <__gethex+0x5f8>
 200e2c0:	00c00c04 	movi	r3,48
 200e2c4:	10c0541e 	bne	r2,r3,200e418 <__gethex+0x610>
 200e2c8:	800d883a 	mov	r6,r16
 200e2cc:	1007883a 	mov	r3,r2
 200e2d0:	31800044 	addi	r6,r6,1
 200e2d4:	30800003 	ldbu	r2,0(r6)
 200e2d8:	10fffd26 	beq	r2,r3,200e2d0 <__alt_mem_epcs_flash_controller+0xfe0052d0>
 200e2dc:	9087883a 	add	r3,r18,r2
 200e2e0:	18c00003 	ldbu	r3,0(r3)
 200e2e4:	3027883a 	mov	r19,r6
 200e2e8:	18004c1e 	bne	r3,zero,200e41c <__gethex+0x614>
 200e2ec:	00c00044 	movi	r3,1
 200e2f0:	8009883a 	mov	r4,r16
 200e2f4:	d8c00015 	stw	r3,0(sp)
 200e2f8:	1839883a 	mov	fp,r3
 200e2fc:	3021883a 	mov	r16,r6
 200e300:	003ef306 	br	200ded0 <__alt_mem_epcs_flash_controller+0xfe004ed0>
 200e304:	04000044 	movi	r16,1
 200e308:	003fa506 	br	200e1a0 <__alt_mem_epcs_flash_controller+0xfe0051a0>
 200e30c:	d8800f17 	ldw	r2,60(sp)
 200e310:	103fb11e 	bne	r2,zero,200e1d8 <__alt_mem_epcs_flash_controller+0xfe0051d8>
 200e314:	84000414 	ori	r16,r16,16
 200e318:	d8800e17 	ldw	r2,56(sp)
 200e31c:	d8c00217 	ldw	r3,8(sp)
 200e320:	15800015 	stw	r22,0(r2)
 200e324:	1d000015 	stw	r20,0(r3)
 200e328:	003efb06 	br	200df18 <__alt_mem_epcs_flash_controller+0xfe004f18>
 200e32c:	0021883a 	mov	r16,zero
 200e330:	003ef906 	br	200df18 <__alt_mem_epcs_flash_controller+0xfe004f18>
 200e334:	00c00044 	movi	r3,1
 200e338:	d8c00315 	stw	r3,12(sp)
 200e33c:	80800083 	ldbu	r2,2(r16)
 200e340:	80c00084 	addi	r3,r16,2
 200e344:	003f1106 	br	200df8c <__alt_mem_epcs_flash_controller+0xfe004f8c>
 200e348:	d8000315 	stw	zero,12(sp)
 200e34c:	003ffb06 	br	200e33c <__alt_mem_epcs_flash_controller+0xfe00533c>
 200e350:	15e1c83a 	sub	r16,r2,r23
 200e354:	b009883a 	mov	r4,r22
 200e358:	800b883a 	mov	r5,r16
 200e35c:	200aa680 	call	200aa68 <__any_on>
 200e360:	10002526 	beq	r2,zero,200e3f8 <__gethex+0x5f0>
 200e364:	80bfffc4 	addi	r2,r16,-1
 200e368:	1007d17a 	srai	r3,r2,5
 200e36c:	110007cc 	andi	r4,r2,31
 200e370:	07000044 	movi	fp,1
 200e374:	18c00144 	addi	r3,r3,5
 200e378:	18c7883a 	add	r3,r3,r3
 200e37c:	18c7883a 	add	r3,r3,r3
 200e380:	b0c7883a 	add	r3,r22,r3
 200e384:	e108983a 	sll	r4,fp,r4
 200e388:	18c00017 	ldw	r3,0(r3)
 200e38c:	20c6703a 	and	r3,r4,r3
 200e390:	18000626 	beq	r3,zero,200e3ac <__gethex+0x5a4>
 200e394:	e080340e 	bge	fp,r2,200e468 <__gethex+0x660>
 200e398:	b009883a 	mov	r4,r22
 200e39c:	817fff84 	addi	r5,r16,-2
 200e3a0:	200aa680 	call	200aa68 <__any_on>
 200e3a4:	10003026 	beq	r2,zero,200e468 <__gethex+0x660>
 200e3a8:	070000c4 	movi	fp,3
 200e3ac:	b009883a 	mov	r4,r22
 200e3b0:	800b883a 	mov	r5,r16
 200e3b4:	200dc680 	call	200dc68 <rshift>
 200e3b8:	a429883a 	add	r20,r20,r16
 200e3bc:	003f4a06 	br	200e0e8 <__alt_mem_epcs_flash_controller+0xfe0050e8>
 200e3c0:	d9000117 	ldw	r4,4(sp)
 200e3c4:	b8a1c83a 	sub	r16,r23,r2
 200e3c8:	b00b883a 	mov	r5,r22
 200e3cc:	800d883a 	mov	r6,r16
 200e3d0:	200a28c0 	call	200a28c <__lshift>
 200e3d4:	102d883a 	mov	r22,r2
 200e3d8:	a429c83a 	sub	r20,r20,r16
 200e3dc:	15400504 	addi	r21,r2,20
 200e3e0:	0039883a 	mov	fp,zero
 200e3e4:	003f4006 	br	200e0e8 <__alt_mem_epcs_flash_controller+0xfe0050e8>
 200e3e8:	0039883a 	mov	fp,zero
 200e3ec:	003ea706 	br	200de8c <__alt_mem_epcs_flash_controller+0xfe004e8c>
 200e3f0:	0029883a 	mov	r20,zero
 200e3f4:	003ebe06 	br	200def0 <__alt_mem_epcs_flash_controller+0xfe004ef0>
 200e3f8:	0039883a 	mov	fp,zero
 200e3fc:	003feb06 	br	200e3ac <__alt_mem_epcs_flash_controller+0xfe0053ac>
 200e400:	00c00044 	movi	r3,1
 200e404:	0029883a 	mov	r20,zero
 200e408:	d8c00015 	stw	r3,0(sp)
 200e40c:	003eb806 	br	200def0 <__alt_mem_epcs_flash_controller+0xfe004ef0>
 200e410:	07000044 	movi	fp,1
 200e414:	003f5106 	br	200e15c <__alt_mem_epcs_flash_controller+0xfe00515c>
 200e418:	8027883a 	mov	r19,r16
 200e41c:	8009883a 	mov	r4,r16
 200e420:	07000044 	movi	fp,1
 200e424:	003ea306 	br	200deb4 <__alt_mem_epcs_flash_controller+0xfe004eb4>
 200e428:	d8c00f17 	ldw	r3,60(sp)
 200e42c:	183f3b1e 	bne	r3,zero,200e11c <__alt_mem_epcs_flash_controller+0xfe00511c>
 200e430:	d8c00217 	ldw	r3,8(sp)
 200e434:	04001884 	movi	r16,98
 200e438:	18800015 	stw	r2,0(r3)
 200e43c:	00800044 	movi	r2,1
 200e440:	b0800415 	stw	r2,16(r22)
 200e444:	a8800015 	stw	r2,0(r21)
 200e448:	d8800e17 	ldw	r2,56(sp)
 200e44c:	15800015 	stw	r22,0(r2)
 200e450:	003eb106 	br	200df18 <__alt_mem_epcs_flash_controller+0xfe004f18>
 200e454:	9821883a 	mov	r16,r19
 200e458:	d8000015 	stw	zero,0(sp)
 200e45c:	003e9c06 	br	200ded0 <__alt_mem_epcs_flash_controller+0xfe004ed0>
 200e460:	04000844 	movi	r16,33
 200e464:	003fac06 	br	200e318 <__alt_mem_epcs_flash_controller+0xfe005318>
 200e468:	07000084 	movi	fp,2
 200e46c:	003fcf06 	br	200e3ac <__alt_mem_epcs_flash_controller+0xfe0053ac>
 200e470:	d8c00f17 	ldw	r3,60(sp)
 200e474:	00800044 	movi	r2,1
 200e478:	10c5c83a 	sub	r2,r2,r3
 200e47c:	103fa526 	beq	r2,zero,200e314 <__alt_mem_epcs_flash_controller+0xfe005314>
 200e480:	003f5506 	br	200e1d8 <__alt_mem_epcs_flash_controller+0xfe0051d8>
 200e484:	80800043 	ldbu	r2,1(r16)
 200e488:	81000044 	addi	r4,r16,1
 200e48c:	2021883a 	mov	r16,r4
 200e490:	9087883a 	add	r3,r18,r2
 200e494:	18c00003 	ldbu	r3,0(r3)
 200e498:	183e9026 	beq	r3,zero,200dedc <__alt_mem_epcs_flash_controller+0xfe004edc>
 200e49c:	84000044 	addi	r16,r16,1
 200e4a0:	80800003 	ldbu	r2,0(r16)
 200e4a4:	9087883a 	add	r3,r18,r2
 200e4a8:	18c00003 	ldbu	r3,0(r3)
 200e4ac:	183ffb1e 	bne	r3,zero,200e49c <__alt_mem_epcs_flash_controller+0xfe00549c>
 200e4b0:	003e8a06 	br	200dedc <__alt_mem_epcs_flash_controller+0xfe004edc>
 200e4b4:	a5ff191e 	bne	r20,r23,200e11c <__alt_mem_epcs_flash_controller+0xfe00511c>
 200e4b8:	1dffdd0e 	bge	r3,r23,200e430 <__alt_mem_epcs_flash_controller+0xfe005430>
 200e4bc:	b009883a 	mov	r4,r22
 200e4c0:	b97fffc4 	addi	r5,r23,-1
 200e4c4:	200aa680 	call	200aa68 <__any_on>
 200e4c8:	103f1426 	beq	r2,zero,200e11c <__alt_mem_epcs_flash_controller+0xfe00511c>
 200e4cc:	88800117 	ldw	r2,4(r17)
 200e4d0:	003fd706 	br	200e430 <__alt_mem_epcs_flash_controller+0xfe005430>
 200e4d4:	d8c00f17 	ldw	r3,60(sp)
 200e4d8:	183f1026 	beq	r3,zero,200e11c <__alt_mem_epcs_flash_controller+0xfe00511c>
 200e4dc:	003fd406 	br	200e430 <__alt_mem_epcs_flash_controller+0xfe005430>
 200e4e0:	10800044 	addi	r2,r2,1
 200e4e4:	a8800015 	stw	r2,0(r21)
 200e4e8:	003f5106 	br	200e230 <__alt_mem_epcs_flash_controller+0xfe005230>
 200e4ec:	88800017 	ldw	r2,0(r17)
 200e4f0:	10bfffc4 	addi	r2,r2,-1
 200e4f4:	15c01426 	beq	r2,r23,200e548 <__gethex+0x740>
 200e4f8:	04000884 	movi	r16,34
 200e4fc:	003f8606 	br	200e318 <__alt_mem_epcs_flash_controller+0xfe005318>
 200e500:	b1400117 	ldw	r5,4(r22)
 200e504:	d9000117 	ldw	r4,4(sp)
 200e508:	29400044 	addi	r5,r5,1
 200e50c:	2009a9c0 	call	2009a9c <_Balloc>
 200e510:	b1800417 	ldw	r6,16(r22)
 200e514:	b1400304 	addi	r5,r22,12
 200e518:	11000304 	addi	r4,r2,12
 200e51c:	31800084 	addi	r6,r6,2
 200e520:	318d883a 	add	r6,r6,r6
 200e524:	318d883a 	add	r6,r6,r6
 200e528:	102b883a 	mov	r21,r2
 200e52c:	20097d00 	call	20097d0 <memcpy>
 200e530:	d9000117 	ldw	r4,4(sp)
 200e534:	b00b883a 	mov	r5,r22
 200e538:	a82d883a 	mov	r22,r21
 200e53c:	2009b440 	call	2009b44 <_Bfree>
 200e540:	a8800417 	ldw	r2,16(r21)
 200e544:	003f3206 	br	200e210 <__alt_mem_epcs_flash_controller+0xfe005210>
 200e548:	b805d17a 	srai	r2,r23,5
 200e54c:	04000044 	movi	r16,1
 200e550:	bdc007cc 	andi	r23,r23,31
 200e554:	10800144 	addi	r2,r2,5
 200e558:	1085883a 	add	r2,r2,r2
 200e55c:	1085883a 	add	r2,r2,r2
 200e560:	b085883a 	add	r2,r22,r2
 200e564:	10800017 	ldw	r2,0(r2)
 200e568:	85e0983a 	sll	r16,r16,r23
 200e56c:	80a0703a 	and	r16,r16,r2
 200e570:	8020c03a 	cmpne	r16,r16,zero
 200e574:	00800884 	movi	r2,34
 200e578:	1421c83a 	sub	r16,r2,r16
 200e57c:	003f6606 	br	200e318 <__alt_mem_epcs_flash_controller+0xfe005318>

0200e580 <__hexnan>:
 200e580:	defff604 	addi	sp,sp,-40
 200e584:	dc000315 	stw	r16,12(sp)
 200e588:	04008274 	movhi	r16,521
 200e58c:	842ce404 	addi	r16,r16,-19568
 200e590:	80800c03 	ldbu	r2,48(r16)
 200e594:	dfc00915 	stw	ra,36(sp)
 200e598:	dd400815 	stw	r21,32(sp)
 200e59c:	dd000715 	stw	r20,28(sp)
 200e5a0:	dcc00615 	stw	r19,24(sp)
 200e5a4:	dc800515 	stw	r18,20(sp)
 200e5a8:	dc400415 	stw	r17,16(sp)
 200e5ac:	10006c26 	beq	r2,zero,200e760 <__hexnan+0x1e0>
 200e5b0:	2d000017 	ldw	r20,0(r5)
 200e5b4:	a025d17a 	srai	r18,r20,5
 200e5b8:	a50007cc 	andi	r20,r20,31
 200e5bc:	94a5883a 	add	r18,r18,r18
 200e5c0:	94a5883a 	add	r18,r18,r18
 200e5c4:	34a5883a 	add	r18,r6,r18
 200e5c8:	a0000126 	beq	r20,zero,200e5d0 <__hexnan+0x50>
 200e5cc:	94800104 	addi	r18,r18,4
 200e5d0:	20c00017 	ldw	r3,0(r4)
 200e5d4:	903fff15 	stw	zero,-4(r18)
 200e5d8:	947fff04 	addi	r17,r18,-4
 200e5dc:	18800043 	ldbu	r2,1(r3)
 200e5e0:	8817883a 	mov	r11,r17
 200e5e4:	880b883a 	mov	r5,r17
 200e5e8:	0011883a 	mov	r8,zero
 200e5ec:	001b883a 	mov	r13,zero
 200e5f0:	0015883a 	mov	r10,zero
 200e5f4:	03c00204 	movi	r15,8
 200e5f8:	03800804 	movi	r14,32
 200e5fc:	04c001c4 	movi	r19,7
 200e600:	10001b26 	beq	r2,zero,200e670 <__hexnan+0xf0>
 200e604:	808f883a 	add	r7,r16,r2
 200e608:	39c00003 	ldbu	r7,0(r7)
 200e60c:	3a403fcc 	andi	r9,r7,255
 200e610:	4800301e 	bne	r9,zero,200e6d4 <__hexnan+0x154>
 200e614:	70804636 	bltu	r14,r2,200e730 <__hexnan+0x1b0>
 200e618:	6a80120e 	bge	r13,r10,200e664 <__hexnan+0xe4>
 200e61c:	2ac00f2e 	bgeu	r5,r11,200e65c <__hexnan+0xdc>
 200e620:	9a000e16 	blt	r19,r8,200e65c <__hexnan+0xdc>
 200e624:	7a11c83a 	sub	r8,r15,r8
 200e628:	4211883a 	add	r8,r8,r8
 200e62c:	29c00017 	ldw	r7,0(r5)
 200e630:	4211883a 	add	r8,r8,r8
 200e634:	722bc83a 	sub	r21,r14,r8
 200e638:	2805883a 	mov	r2,r5
 200e63c:	12400117 	ldw	r9,4(r2)
 200e640:	10800104 	addi	r2,r2,4
 200e644:	4d58983a 	sll	r12,r9,r21
 200e648:	3b18b03a 	or	r12,r7,r12
 200e64c:	4a0ed83a 	srl	r7,r9,r8
 200e650:	133fff15 	stw	r12,-4(r2)
 200e654:	11c00015 	stw	r7,0(r2)
 200e658:	12fff836 	bltu	r2,r11,200e63c <__alt_mem_epcs_flash_controller+0xfe00563c>
 200e65c:	31402d36 	bltu	r6,r5,200e714 <__hexnan+0x194>
 200e660:	02000204 	movi	r8,8
 200e664:	18c00044 	addi	r3,r3,1
 200e668:	18800043 	ldbu	r2,1(r3)
 200e66c:	103fe51e 	bne	r2,zero,200e604 <__alt_mem_epcs_flash_controller+0xfe005604>
 200e670:	50003126 	beq	r10,zero,200e738 <__hexnan+0x1b8>
 200e674:	2ac0022e 	bgeu	r5,r11,200e680 <__hexnan+0x100>
 200e678:	008001c4 	movi	r2,7
 200e67c:	1200520e 	bge	r2,r8,200e7c8 <__hexnan+0x248>
 200e680:	31403f2e 	bgeu	r6,r5,200e780 <__hexnan+0x200>
 200e684:	3005883a 	mov	r2,r6
 200e688:	28c00017 	ldw	r3,0(r5)
 200e68c:	10800104 	addi	r2,r2,4
 200e690:	29400104 	addi	r5,r5,4
 200e694:	10ffff15 	stw	r3,-4(r2)
 200e698:	897ffb2e 	bgeu	r17,r5,200e688 <__alt_mem_epcs_flash_controller+0xfe005688>
 200e69c:	10000015 	stw	zero,0(r2)
 200e6a0:	10800104 	addi	r2,r2,4
 200e6a4:	88bffd2e 	bgeu	r17,r2,200e69c <__alt_mem_epcs_flash_controller+0xfe00569c>
 200e6a8:	90bfff17 	ldw	r2,-4(r18)
 200e6ac:	1000071e 	bne	r2,zero,200e6cc <__hexnan+0x14c>
 200e6b0:	34403c26 	beq	r6,r17,200e7a4 <__hexnan+0x224>
 200e6b4:	8805883a 	mov	r2,r17
 200e6b8:	00000106 	br	200e6c0 <__hexnan+0x140>
 200e6bc:	30803a26 	beq	r6,r2,200e7a8 <__hexnan+0x228>
 200e6c0:	10bfff04 	addi	r2,r2,-4
 200e6c4:	10c00017 	ldw	r3,0(r2)
 200e6c8:	183ffc26 	beq	r3,zero,200e6bc <__alt_mem_epcs_flash_controller+0xfe0056bc>
 200e6cc:	00800144 	movi	r2,5
 200e6d0:	00001a06 	br	200e73c <__hexnan+0x1bc>
 200e6d4:	42000044 	addi	r8,r8,1
 200e6d8:	52800044 	addi	r10,r10,1
 200e6dc:	7a000716 	blt	r15,r8,200e6fc <__hexnan+0x17c>
 200e6e0:	28800017 	ldw	r2,0(r5)
 200e6e4:	1004913a 	slli	r2,r2,4
 200e6e8:	39c003cc 	andi	r7,r7,15
 200e6ec:	11ceb03a 	or	r7,r2,r7
 200e6f0:	29c00015 	stw	r7,0(r5)
 200e6f4:	18c00044 	addi	r3,r3,1
 200e6f8:	003fdb06 	br	200e668 <__alt_mem_epcs_flash_controller+0xfe005668>
 200e6fc:	317fd92e 	bgeu	r6,r5,200e664 <__alt_mem_epcs_flash_controller+0xfe005664>
 200e700:	283fff15 	stw	zero,-4(r5)
 200e704:	0005883a 	mov	r2,zero
 200e708:	297fff04 	addi	r5,r5,-4
 200e70c:	02000044 	movi	r8,1
 200e710:	003ff506 	br	200e6e8 <__alt_mem_epcs_flash_controller+0xfe0056e8>
 200e714:	283fff15 	stw	zero,-4(r5)
 200e718:	297fff04 	addi	r5,r5,-4
 200e71c:	501b883a 	mov	r13,r10
 200e720:	2817883a 	mov	r11,r5
 200e724:	0011883a 	mov	r8,zero
 200e728:	18c00044 	addi	r3,r3,1
 200e72c:	003fce06 	br	200e668 <__alt_mem_epcs_flash_controller+0xfe005668>
 200e730:	01c00a44 	movi	r7,41
 200e734:	11c02026 	beq	r2,r7,200e7b8 <__hexnan+0x238>
 200e738:	00800104 	movi	r2,4
 200e73c:	dfc00917 	ldw	ra,36(sp)
 200e740:	dd400817 	ldw	r21,32(sp)
 200e744:	dd000717 	ldw	r20,28(sp)
 200e748:	dcc00617 	ldw	r19,24(sp)
 200e74c:	dc800517 	ldw	r18,20(sp)
 200e750:	dc400417 	ldw	r17,16(sp)
 200e754:	dc000317 	ldw	r16,12(sp)
 200e758:	dec00a04 	addi	sp,sp,40
 200e75c:	f800283a 	ret
 200e760:	d9000015 	stw	r4,0(sp)
 200e764:	d9400115 	stw	r5,4(sp)
 200e768:	d9800215 	stw	r6,8(sp)
 200e76c:	200dd780 	call	200dd78 <__hexdig_init>
 200e770:	d9800217 	ldw	r6,8(sp)
 200e774:	d9400117 	ldw	r5,4(sp)
 200e778:	d9000017 	ldw	r4,0(sp)
 200e77c:	003f8c06 	br	200e5b0 <__alt_mem_epcs_flash_controller+0xfe0055b0>
 200e780:	a03fc926 	beq	r20,zero,200e6a8 <__alt_mem_epcs_flash_controller+0xfe0056a8>
 200e784:	00800804 	movi	r2,32
 200e788:	1529c83a 	sub	r20,r2,r20
 200e78c:	00ffffc4 	movi	r3,-1
 200e790:	90bfff17 	ldw	r2,-4(r18)
 200e794:	1d06d83a 	srl	r3,r3,r20
 200e798:	1884703a 	and	r2,r3,r2
 200e79c:	90bfff15 	stw	r2,-4(r18)
 200e7a0:	003fc206 	br	200e6ac <__alt_mem_epcs_flash_controller+0xfe0056ac>
 200e7a4:	3005883a 	mov	r2,r6
 200e7a8:	00c00044 	movi	r3,1
 200e7ac:	10c00015 	stw	r3,0(r2)
 200e7b0:	00800144 	movi	r2,5
 200e7b4:	003fe106 	br	200e73c <__alt_mem_epcs_flash_controller+0xfe00573c>
 200e7b8:	503fdf26 	beq	r10,zero,200e738 <__alt_mem_epcs_flash_controller+0xfe005738>
 200e7bc:	18c00084 	addi	r3,r3,2
 200e7c0:	20c00015 	stw	r3,0(r4)
 200e7c4:	003fab06 	br	200e674 <__alt_mem_epcs_flash_controller+0xfe005674>
 200e7c8:	00800204 	movi	r2,8
 200e7cc:	1211c83a 	sub	r8,r2,r8
 200e7d0:	4211883a 	add	r8,r8,r8
 200e7d4:	28c00017 	ldw	r3,0(r5)
 200e7d8:	4211883a 	add	r8,r8,r8
 200e7dc:	02400804 	movi	r9,32
 200e7e0:	4a13c83a 	sub	r9,r9,r8
 200e7e4:	2805883a 	mov	r2,r5
 200e7e8:	11000117 	ldw	r4,4(r2)
 200e7ec:	10800104 	addi	r2,r2,4
 200e7f0:	224e983a 	sll	r7,r4,r9
 200e7f4:	19ceb03a 	or	r7,r3,r7
 200e7f8:	2206d83a 	srl	r3,r4,r8
 200e7fc:	11ffff15 	stw	r7,-4(r2)
 200e800:	10c00015 	stw	r3,0(r2)
 200e804:	12fff836 	bltu	r2,r11,200e7e8 <__alt_mem_epcs_flash_controller+0xfe0057e8>
 200e808:	003f9d06 	br	200e680 <__alt_mem_epcs_flash_controller+0xfe005680>

0200e80c <_isatty_r>:
 200e80c:	defffd04 	addi	sp,sp,-12
 200e810:	dc400115 	stw	r17,4(sp)
 200e814:	dc000015 	stw	r16,0(sp)
 200e818:	2023883a 	mov	r17,r4
 200e81c:	04008274 	movhi	r16,521
 200e820:	842cc804 	addi	r16,r16,-19680
 200e824:	2809883a 	mov	r4,r5
 200e828:	dfc00215 	stw	ra,8(sp)
 200e82c:	80000015 	stw	zero,0(r16)
 200e830:	20105b00 	call	20105b0 <isatty>
 200e834:	00ffffc4 	movi	r3,-1
 200e838:	10c00526 	beq	r2,r3,200e850 <_isatty_r+0x44>
 200e83c:	dfc00217 	ldw	ra,8(sp)
 200e840:	dc400117 	ldw	r17,4(sp)
 200e844:	dc000017 	ldw	r16,0(sp)
 200e848:	dec00304 	addi	sp,sp,12
 200e84c:	f800283a 	ret
 200e850:	80c00017 	ldw	r3,0(r16)
 200e854:	183ff926 	beq	r3,zero,200e83c <__alt_mem_epcs_flash_controller+0xfe00583c>
 200e858:	88c00015 	stw	r3,0(r17)
 200e85c:	dfc00217 	ldw	ra,8(sp)
 200e860:	dc400117 	ldw	r17,4(sp)
 200e864:	dc000017 	ldw	r16,0(sp)
 200e868:	dec00304 	addi	sp,sp,12
 200e86c:	f800283a 	ret

0200e870 <__fixunsdfsi>:
 200e870:	defffd04 	addi	sp,sp,-12
 200e874:	000d883a 	mov	r6,zero
 200e878:	01d07834 	movhi	r7,16864
 200e87c:	dc400115 	stw	r17,4(sp)
 200e880:	dc000015 	stw	r16,0(sp)
 200e884:	dfc00215 	stw	ra,8(sp)
 200e888:	2023883a 	mov	r17,r4
 200e88c:	2821883a 	mov	r16,r5
 200e890:	200fb940 	call	200fb94 <__gedf2>
 200e894:	1000080e 	bge	r2,zero,200e8b8 <__fixunsdfsi+0x48>
 200e898:	8809883a 	mov	r4,r17
 200e89c:	800b883a 	mov	r5,r16
 200e8a0:	2001b2c0 	call	2001b2c <__fixdfsi>
 200e8a4:	dfc00217 	ldw	ra,8(sp)
 200e8a8:	dc400117 	ldw	r17,4(sp)
 200e8ac:	dc000017 	ldw	r16,0(sp)
 200e8b0:	dec00304 	addi	sp,sp,12
 200e8b4:	f800283a 	ret
 200e8b8:	000d883a 	mov	r6,zero
 200e8bc:	01d07834 	movhi	r7,16864
 200e8c0:	8809883a 	mov	r4,r17
 200e8c4:	800b883a 	mov	r5,r16
 200e8c8:	200fa180 	call	200fa18 <__subdf3>
 200e8cc:	180b883a 	mov	r5,r3
 200e8d0:	1009883a 	mov	r4,r2
 200e8d4:	2001b2c0 	call	2001b2c <__fixdfsi>
 200e8d8:	00e00034 	movhi	r3,32768
 200e8dc:	10c5883a 	add	r2,r2,r3
 200e8e0:	dfc00217 	ldw	ra,8(sp)
 200e8e4:	dc400117 	ldw	r17,4(sp)
 200e8e8:	dc000017 	ldw	r16,0(sp)
 200e8ec:	dec00304 	addi	sp,sp,12
 200e8f0:	f800283a 	ret

0200e8f4 <__udivdi3>:
 200e8f4:	defff504 	addi	sp,sp,-44
 200e8f8:	dd000515 	stw	r20,20(sp)
 200e8fc:	dcc00415 	stw	r19,16(sp)
 200e900:	dc800315 	stw	r18,12(sp)
 200e904:	dc400215 	stw	r17,8(sp)
 200e908:	dc000115 	stw	r16,4(sp)
 200e90c:	dfc00a15 	stw	ra,40(sp)
 200e910:	df000915 	stw	fp,36(sp)
 200e914:	ddc00815 	stw	r23,32(sp)
 200e918:	dd800715 	stw	r22,28(sp)
 200e91c:	dd400615 	stw	r21,24(sp)
 200e920:	2025883a 	mov	r18,r4
 200e924:	2823883a 	mov	r17,r5
 200e928:	3021883a 	mov	r16,r6
 200e92c:	2027883a 	mov	r19,r4
 200e930:	2829883a 	mov	r20,r5
 200e934:	3800451e 	bne	r7,zero,200ea4c <__udivdi3+0x158>
 200e938:	2980652e 	bgeu	r5,r6,200ead0 <__udivdi3+0x1dc>
 200e93c:	00bfffd4 	movui	r2,65535
 200e940:	1180b436 	bltu	r2,r6,200ec14 <__udivdi3+0x320>
 200e944:	00803fc4 	movi	r2,255
 200e948:	11816636 	bltu	r2,r6,200eee4 <__udivdi3+0x5f0>
 200e94c:	0005883a 	mov	r2,zero
 200e950:	0007883a 	mov	r3,zero
 200e954:	3084d83a 	srl	r2,r6,r2
 200e958:	01008234 	movhi	r4,520
 200e95c:	211c7104 	addi	r4,r4,29124
 200e960:	2085883a 	add	r2,r4,r2
 200e964:	10800003 	ldbu	r2,0(r2)
 200e968:	10c7883a 	add	r3,r2,r3
 200e96c:	00800804 	movi	r2,32
 200e970:	10c5c83a 	sub	r2,r2,r3
 200e974:	10000526 	beq	r2,zero,200e98c <__udivdi3+0x98>
 200e978:	88a2983a 	sll	r17,r17,r2
 200e97c:	90c6d83a 	srl	r3,r18,r3
 200e980:	30a0983a 	sll	r16,r6,r2
 200e984:	90a6983a 	sll	r19,r18,r2
 200e988:	88e8b03a 	or	r20,r17,r3
 200e98c:	8022d43a 	srli	r17,r16,16
 200e990:	a009883a 	mov	r4,r20
 200e994:	857fffcc 	andi	r21,r16,65535
 200e998:	880b883a 	mov	r5,r17
 200e99c:	2001d180 	call	2001d18 <__umodsi3>
 200e9a0:	a009883a 	mov	r4,r20
 200e9a4:	880b883a 	mov	r5,r17
 200e9a8:	102d883a 	mov	r22,r2
 200e9ac:	2001d100 	call	2001d10 <__udivsi3>
 200e9b0:	1009883a 	mov	r4,r2
 200e9b4:	a80b883a 	mov	r5,r21
 200e9b8:	1025883a 	mov	r18,r2
 200e9bc:	2001d200 	call	2001d20 <__mulsi3>
 200e9c0:	1009883a 	mov	r4,r2
 200e9c4:	b006943a 	slli	r3,r22,16
 200e9c8:	9804d43a 	srli	r2,r19,16
 200e9cc:	1886b03a 	or	r3,r3,r2
 200e9d0:	1900052e 	bgeu	r3,r4,200e9e8 <__udivdi3+0xf4>
 200e9d4:	1c07883a 	add	r3,r3,r16
 200e9d8:	90bfffc4 	addi	r2,r18,-1
 200e9dc:	1c000136 	bltu	r3,r16,200e9e4 <__udivdi3+0xf0>
 200e9e0:	19015536 	bltu	r3,r4,200ef38 <__udivdi3+0x644>
 200e9e4:	1025883a 	mov	r18,r2
 200e9e8:	1929c83a 	sub	r20,r3,r4
 200e9ec:	880b883a 	mov	r5,r17
 200e9f0:	a009883a 	mov	r4,r20
 200e9f4:	2001d180 	call	2001d18 <__umodsi3>
 200e9f8:	102d883a 	mov	r22,r2
 200e9fc:	880b883a 	mov	r5,r17
 200ea00:	a009883a 	mov	r4,r20
 200ea04:	b02c943a 	slli	r22,r22,16
 200ea08:	2001d100 	call	2001d10 <__udivsi3>
 200ea0c:	1009883a 	mov	r4,r2
 200ea10:	a80b883a 	mov	r5,r21
 200ea14:	9cffffcc 	andi	r19,r19,65535
 200ea18:	1023883a 	mov	r17,r2
 200ea1c:	b4e6b03a 	or	r19,r22,r19
 200ea20:	2001d200 	call	2001d20 <__mulsi3>
 200ea24:	9880052e 	bgeu	r19,r2,200ea3c <__udivdi3+0x148>
 200ea28:	9c27883a 	add	r19,r19,r16
 200ea2c:	88ffffc4 	addi	r3,r17,-1
 200ea30:	9c011436 	bltu	r19,r16,200ee84 <__udivdi3+0x590>
 200ea34:	9881132e 	bgeu	r19,r2,200ee84 <__udivdi3+0x590>
 200ea38:	8c7fff84 	addi	r17,r17,-2
 200ea3c:	9004943a 	slli	r2,r18,16
 200ea40:	0007883a 	mov	r3,zero
 200ea44:	8884b03a 	or	r2,r17,r2
 200ea48:	00001506 	br	200eaa0 <__udivdi3+0x1ac>
 200ea4c:	29c06a36 	bltu	r5,r7,200ebf8 <__udivdi3+0x304>
 200ea50:	00bfffd4 	movui	r2,65535
 200ea54:	11c06a2e 	bgeu	r2,r7,200ec00 <__udivdi3+0x30c>
 200ea58:	00804034 	movhi	r2,256
 200ea5c:	10bfffc4 	addi	r2,r2,-1
 200ea60:	11c11436 	bltu	r2,r7,200eeb4 <__udivdi3+0x5c0>
 200ea64:	00c00404 	movi	r3,16
 200ea68:	180b883a 	mov	r5,r3
 200ea6c:	38c6d83a 	srl	r3,r7,r3
 200ea70:	01008234 	movhi	r4,520
 200ea74:	211c7104 	addi	r4,r4,29124
 200ea78:	04000804 	movi	r16,32
 200ea7c:	20c7883a 	add	r3,r4,r3
 200ea80:	18800003 	ldbu	r2,0(r3)
 200ea84:	1145883a 	add	r2,r2,r5
 200ea88:	80a1c83a 	sub	r16,r16,r2
 200ea8c:	80006e1e 	bne	r16,zero,200ec48 <__udivdi3+0x354>
 200ea90:	0007883a 	mov	r3,zero
 200ea94:	3c406a36 	bltu	r7,r17,200ec40 <__udivdi3+0x34c>
 200ea98:	9180692e 	bgeu	r18,r6,200ec40 <__udivdi3+0x34c>
 200ea9c:	0005883a 	mov	r2,zero
 200eaa0:	dfc00a17 	ldw	ra,40(sp)
 200eaa4:	df000917 	ldw	fp,36(sp)
 200eaa8:	ddc00817 	ldw	r23,32(sp)
 200eaac:	dd800717 	ldw	r22,28(sp)
 200eab0:	dd400617 	ldw	r21,24(sp)
 200eab4:	dd000517 	ldw	r20,20(sp)
 200eab8:	dcc00417 	ldw	r19,16(sp)
 200eabc:	dc800317 	ldw	r18,12(sp)
 200eac0:	dc400217 	ldw	r17,8(sp)
 200eac4:	dc000117 	ldw	r16,4(sp)
 200eac8:	dec00b04 	addi	sp,sp,44
 200eacc:	f800283a 	ret
 200ead0:	3000041e 	bne	r6,zero,200eae4 <__udivdi3+0x1f0>
 200ead4:	01000044 	movi	r4,1
 200ead8:	000b883a 	mov	r5,zero
 200eadc:	2001d100 	call	2001d10 <__udivsi3>
 200eae0:	1021883a 	mov	r16,r2
 200eae4:	00bfffd4 	movui	r2,65535
 200eae8:	1400502e 	bgeu	r2,r16,200ec2c <__udivdi3+0x338>
 200eaec:	00804034 	movhi	r2,256
 200eaf0:	10bfffc4 	addi	r2,r2,-1
 200eaf4:	1400f536 	bltu	r2,r16,200eecc <__udivdi3+0x5d8>
 200eaf8:	00800404 	movi	r2,16
 200eafc:	1007883a 	mov	r3,r2
 200eb00:	8084d83a 	srl	r2,r16,r2
 200eb04:	01008234 	movhi	r4,520
 200eb08:	211c7104 	addi	r4,r4,29124
 200eb0c:	2085883a 	add	r2,r4,r2
 200eb10:	10800003 	ldbu	r2,0(r2)
 200eb14:	10c7883a 	add	r3,r2,r3
 200eb18:	00800804 	movi	r2,32
 200eb1c:	10c5c83a 	sub	r2,r2,r3
 200eb20:	1000a01e 	bne	r2,zero,200eda4 <__udivdi3+0x4b0>
 200eb24:	8028d43a 	srli	r20,r16,16
 200eb28:	8c23c83a 	sub	r17,r17,r16
 200eb2c:	857fffcc 	andi	r21,r16,65535
 200eb30:	00c00044 	movi	r3,1
 200eb34:	8809883a 	mov	r4,r17
 200eb38:	a00b883a 	mov	r5,r20
 200eb3c:	d8c00015 	stw	r3,0(sp)
 200eb40:	2001d180 	call	2001d18 <__umodsi3>
 200eb44:	8809883a 	mov	r4,r17
 200eb48:	a00b883a 	mov	r5,r20
 200eb4c:	102d883a 	mov	r22,r2
 200eb50:	2001d100 	call	2001d10 <__udivsi3>
 200eb54:	1009883a 	mov	r4,r2
 200eb58:	a80b883a 	mov	r5,r21
 200eb5c:	1025883a 	mov	r18,r2
 200eb60:	2001d200 	call	2001d20 <__mulsi3>
 200eb64:	1009883a 	mov	r4,r2
 200eb68:	b00c943a 	slli	r6,r22,16
 200eb6c:	9804d43a 	srli	r2,r19,16
 200eb70:	d8c00017 	ldw	r3,0(sp)
 200eb74:	308cb03a 	or	r6,r6,r2
 200eb78:	3100052e 	bgeu	r6,r4,200eb90 <__udivdi3+0x29c>
 200eb7c:	340d883a 	add	r6,r6,r16
 200eb80:	90bfffc4 	addi	r2,r18,-1
 200eb84:	34000136 	bltu	r6,r16,200eb8c <__udivdi3+0x298>
 200eb88:	3100e836 	bltu	r6,r4,200ef2c <__udivdi3+0x638>
 200eb8c:	1025883a 	mov	r18,r2
 200eb90:	3123c83a 	sub	r17,r6,r4
 200eb94:	8809883a 	mov	r4,r17
 200eb98:	a00b883a 	mov	r5,r20
 200eb9c:	d8c00015 	stw	r3,0(sp)
 200eba0:	2001d180 	call	2001d18 <__umodsi3>
 200eba4:	102d883a 	mov	r22,r2
 200eba8:	8809883a 	mov	r4,r17
 200ebac:	a00b883a 	mov	r5,r20
 200ebb0:	b02c943a 	slli	r22,r22,16
 200ebb4:	2001d100 	call	2001d10 <__udivsi3>
 200ebb8:	1009883a 	mov	r4,r2
 200ebbc:	a80b883a 	mov	r5,r21
 200ebc0:	9cffffcc 	andi	r19,r19,65535
 200ebc4:	1023883a 	mov	r17,r2
 200ebc8:	b4e6b03a 	or	r19,r22,r19
 200ebcc:	2001d200 	call	2001d20 <__mulsi3>
 200ebd0:	d8c00017 	ldw	r3,0(sp)
 200ebd4:	9880052e 	bgeu	r19,r2,200ebec <__udivdi3+0x2f8>
 200ebd8:	9c27883a 	add	r19,r19,r16
 200ebdc:	893fffc4 	addi	r4,r17,-1
 200ebe0:	9c00aa36 	bltu	r19,r16,200ee8c <__udivdi3+0x598>
 200ebe4:	9880a92e 	bgeu	r19,r2,200ee8c <__udivdi3+0x598>
 200ebe8:	8c7fff84 	addi	r17,r17,-2
 200ebec:	9004943a 	slli	r2,r18,16
 200ebf0:	8884b03a 	or	r2,r17,r2
 200ebf4:	003faa06 	br	200eaa0 <__alt_mem_epcs_flash_controller+0xfe005aa0>
 200ebf8:	0007883a 	mov	r3,zero
 200ebfc:	003fa706 	br	200ea9c <__alt_mem_epcs_flash_controller+0xfe005a9c>
 200ec00:	00803fc4 	movi	r2,255
 200ec04:	11c0ae36 	bltu	r2,r7,200eec0 <__udivdi3+0x5cc>
 200ec08:	0007883a 	mov	r3,zero
 200ec0c:	000b883a 	mov	r5,zero
 200ec10:	003f9606 	br	200ea6c <__alt_mem_epcs_flash_controller+0xfe005a6c>
 200ec14:	00804034 	movhi	r2,256
 200ec18:	10bfffc4 	addi	r2,r2,-1
 200ec1c:	1180ae36 	bltu	r2,r6,200eed8 <__udivdi3+0x5e4>
 200ec20:	00800404 	movi	r2,16
 200ec24:	1007883a 	mov	r3,r2
 200ec28:	003f4a06 	br	200e954 <__alt_mem_epcs_flash_controller+0xfe005954>
 200ec2c:	00803fc4 	movi	r2,255
 200ec30:	1400af36 	bltu	r2,r16,200eef0 <__udivdi3+0x5fc>
 200ec34:	0005883a 	mov	r2,zero
 200ec38:	0007883a 	mov	r3,zero
 200ec3c:	003fb006 	br	200eb00 <__alt_mem_epcs_flash_controller+0xfe005b00>
 200ec40:	00800044 	movi	r2,1
 200ec44:	003f9606 	br	200eaa0 <__alt_mem_epcs_flash_controller+0xfe005aa0>
 200ec48:	3c0e983a 	sll	r7,r7,r16
 200ec4c:	3086d83a 	srl	r3,r6,r2
 200ec50:	88aed83a 	srl	r23,r17,r2
 200ec54:	9084d83a 	srl	r2,r18,r2
 200ec58:	38e6b03a 	or	r19,r7,r3
 200ec5c:	9828d43a 	srli	r20,r19,16
 200ec60:	8c22983a 	sll	r17,r17,r16
 200ec64:	b809883a 	mov	r4,r23
 200ec68:	a00b883a 	mov	r5,r20
 200ec6c:	342a983a 	sll	r21,r6,r16
 200ec70:	88a2b03a 	or	r17,r17,r2
 200ec74:	2001d180 	call	2001d18 <__umodsi3>
 200ec78:	b809883a 	mov	r4,r23
 200ec7c:	a00b883a 	mov	r5,r20
 200ec80:	1039883a 	mov	fp,r2
 200ec84:	9dbfffcc 	andi	r22,r19,65535
 200ec88:	2001d100 	call	2001d10 <__udivsi3>
 200ec8c:	1009883a 	mov	r4,r2
 200ec90:	b00b883a 	mov	r5,r22
 200ec94:	102f883a 	mov	r23,r2
 200ec98:	2001d200 	call	2001d20 <__mulsi3>
 200ec9c:	1009883a 	mov	r4,r2
 200eca0:	e00e943a 	slli	r7,fp,16
 200eca4:	8804d43a 	srli	r2,r17,16
 200eca8:	388eb03a 	or	r7,r7,r2
 200ecac:	3900042e 	bgeu	r7,r4,200ecc0 <__udivdi3+0x3cc>
 200ecb0:	3ccf883a 	add	r7,r7,r19
 200ecb4:	b8bfffc4 	addi	r2,r23,-1
 200ecb8:	3cc0942e 	bgeu	r7,r19,200ef0c <__udivdi3+0x618>
 200ecbc:	102f883a 	mov	r23,r2
 200ecc0:	3939c83a 	sub	fp,r7,r4
 200ecc4:	a00b883a 	mov	r5,r20
 200ecc8:	e009883a 	mov	r4,fp
 200eccc:	2001d180 	call	2001d18 <__umodsi3>
 200ecd0:	a00b883a 	mov	r5,r20
 200ecd4:	e009883a 	mov	r4,fp
 200ecd8:	d8800015 	stw	r2,0(sp)
 200ecdc:	2001d100 	call	2001d10 <__udivsi3>
 200ece0:	1009883a 	mov	r4,r2
 200ece4:	b00b883a 	mov	r5,r22
 200ece8:	1029883a 	mov	r20,r2
 200ecec:	2001d200 	call	2001d20 <__mulsi3>
 200ecf0:	d8c00017 	ldw	r3,0(sp)
 200ecf4:	8c7fffcc 	andi	r17,r17,65535
 200ecf8:	1806943a 	slli	r3,r3,16
 200ecfc:	1c46b03a 	or	r3,r3,r17
 200ed00:	1880042e 	bgeu	r3,r2,200ed14 <__udivdi3+0x420>
 200ed04:	1cc7883a 	add	r3,r3,r19
 200ed08:	a13fffc4 	addi	r4,r20,-1
 200ed0c:	1cc07b2e 	bgeu	r3,r19,200eefc <__udivdi3+0x608>
 200ed10:	2029883a 	mov	r20,r4
 200ed14:	b82e943a 	slli	r23,r23,16
 200ed18:	a822d43a 	srli	r17,r21,16
 200ed1c:	ad7fffcc 	andi	r21,r21,65535
 200ed20:	a5e8b03a 	or	r20,r20,r23
 200ed24:	a5bfffcc 	andi	r22,r20,65535
 200ed28:	b009883a 	mov	r4,r22
 200ed2c:	a80b883a 	mov	r5,r21
 200ed30:	18afc83a 	sub	r23,r3,r2
 200ed34:	a026d43a 	srli	r19,r20,16
 200ed38:	2001d200 	call	2001d20 <__mulsi3>
 200ed3c:	b009883a 	mov	r4,r22
 200ed40:	880b883a 	mov	r5,r17
 200ed44:	1039883a 	mov	fp,r2
 200ed48:	2001d200 	call	2001d20 <__mulsi3>
 200ed4c:	a80b883a 	mov	r5,r21
 200ed50:	9809883a 	mov	r4,r19
 200ed54:	102d883a 	mov	r22,r2
 200ed58:	2001d200 	call	2001d20 <__mulsi3>
 200ed5c:	9809883a 	mov	r4,r19
 200ed60:	880b883a 	mov	r5,r17
 200ed64:	102b883a 	mov	r21,r2
 200ed68:	2001d200 	call	2001d20 <__mulsi3>
 200ed6c:	100b883a 	mov	r5,r2
 200ed70:	e004d43a 	srli	r2,fp,16
 200ed74:	ad89883a 	add	r4,r21,r22
 200ed78:	2089883a 	add	r4,r4,r2
 200ed7c:	2540022e 	bgeu	r4,r21,200ed88 <__udivdi3+0x494>
 200ed80:	00800074 	movhi	r2,1
 200ed84:	288b883a 	add	r5,r5,r2
 200ed88:	2004d43a 	srli	r2,r4,16
 200ed8c:	288b883a 	add	r5,r5,r2
 200ed90:	b9404536 	bltu	r23,r5,200eea8 <__udivdi3+0x5b4>
 200ed94:	b9403f26 	beq	r23,r5,200ee94 <__udivdi3+0x5a0>
 200ed98:	a005883a 	mov	r2,r20
 200ed9c:	0007883a 	mov	r3,zero
 200eda0:	003f3f06 	br	200eaa0 <__alt_mem_epcs_flash_controller+0xfe005aa0>
 200eda4:	80a0983a 	sll	r16,r16,r2
 200eda8:	88eed83a 	srl	r23,r17,r3
 200edac:	90c6d83a 	srl	r3,r18,r3
 200edb0:	8028d43a 	srli	r20,r16,16
 200edb4:	88a2983a 	sll	r17,r17,r2
 200edb8:	b809883a 	mov	r4,r23
 200edbc:	a00b883a 	mov	r5,r20
 200edc0:	88ecb03a 	or	r22,r17,r3
 200edc4:	90a6983a 	sll	r19,r18,r2
 200edc8:	2001d180 	call	2001d18 <__umodsi3>
 200edcc:	b809883a 	mov	r4,r23
 200edd0:	a00b883a 	mov	r5,r20
 200edd4:	1023883a 	mov	r17,r2
 200edd8:	857fffcc 	andi	r21,r16,65535
 200eddc:	2001d100 	call	2001d10 <__udivsi3>
 200ede0:	1009883a 	mov	r4,r2
 200ede4:	a80b883a 	mov	r5,r21
 200ede8:	102f883a 	mov	r23,r2
 200edec:	2001d200 	call	2001d20 <__mulsi3>
 200edf0:	1009883a 	mov	r4,r2
 200edf4:	880a943a 	slli	r5,r17,16
 200edf8:	b004d43a 	srli	r2,r22,16
 200edfc:	288ab03a 	or	r5,r5,r2
 200ee00:	2900062e 	bgeu	r5,r4,200ee1c <__udivdi3+0x528>
 200ee04:	2c0b883a 	add	r5,r5,r16
 200ee08:	b8bfffc4 	addi	r2,r23,-1
 200ee0c:	2c004536 	bltu	r5,r16,200ef24 <__udivdi3+0x630>
 200ee10:	2900442e 	bgeu	r5,r4,200ef24 <__udivdi3+0x630>
 200ee14:	bdffff84 	addi	r23,r23,-2
 200ee18:	2c0b883a 	add	r5,r5,r16
 200ee1c:	2925c83a 	sub	r18,r5,r4
 200ee20:	9009883a 	mov	r4,r18
 200ee24:	a00b883a 	mov	r5,r20
 200ee28:	2001d180 	call	2001d18 <__umodsi3>
 200ee2c:	1023883a 	mov	r17,r2
 200ee30:	9009883a 	mov	r4,r18
 200ee34:	a00b883a 	mov	r5,r20
 200ee38:	8822943a 	slli	r17,r17,16
 200ee3c:	2001d100 	call	2001d10 <__udivsi3>
 200ee40:	1009883a 	mov	r4,r2
 200ee44:	a80b883a 	mov	r5,r21
 200ee48:	b5bfffcc 	andi	r22,r22,65535
 200ee4c:	1025883a 	mov	r18,r2
 200ee50:	8da2b03a 	or	r17,r17,r22
 200ee54:	2001d200 	call	2001d20 <__mulsi3>
 200ee58:	8880062e 	bgeu	r17,r2,200ee74 <__udivdi3+0x580>
 200ee5c:	8c23883a 	add	r17,r17,r16
 200ee60:	90ffffc4 	addi	r3,r18,-1
 200ee64:	8c002d36 	bltu	r17,r16,200ef1c <__udivdi3+0x628>
 200ee68:	88802c2e 	bgeu	r17,r2,200ef1c <__udivdi3+0x628>
 200ee6c:	94bfff84 	addi	r18,r18,-2
 200ee70:	8c23883a 	add	r17,r17,r16
 200ee74:	b806943a 	slli	r3,r23,16
 200ee78:	88a3c83a 	sub	r17,r17,r2
 200ee7c:	90c6b03a 	or	r3,r18,r3
 200ee80:	003f2c06 	br	200eb34 <__alt_mem_epcs_flash_controller+0xfe005b34>
 200ee84:	1823883a 	mov	r17,r3
 200ee88:	003eec06 	br	200ea3c <__alt_mem_epcs_flash_controller+0xfe005a3c>
 200ee8c:	2023883a 	mov	r17,r4
 200ee90:	003f5606 	br	200ebec <__alt_mem_epcs_flash_controller+0xfe005bec>
 200ee94:	2008943a 	slli	r4,r4,16
 200ee98:	9420983a 	sll	r16,r18,r16
 200ee9c:	e73fffcc 	andi	fp,fp,65535
 200eea0:	2709883a 	add	r4,r4,fp
 200eea4:	813fbc2e 	bgeu	r16,r4,200ed98 <__alt_mem_epcs_flash_controller+0xfe005d98>
 200eea8:	a0bfffc4 	addi	r2,r20,-1
 200eeac:	0007883a 	mov	r3,zero
 200eeb0:	003efb06 	br	200eaa0 <__alt_mem_epcs_flash_controller+0xfe005aa0>
 200eeb4:	00c00604 	movi	r3,24
 200eeb8:	180b883a 	mov	r5,r3
 200eebc:	003eeb06 	br	200ea6c <__alt_mem_epcs_flash_controller+0xfe005a6c>
 200eec0:	00c00204 	movi	r3,8
 200eec4:	180b883a 	mov	r5,r3
 200eec8:	003ee806 	br	200ea6c <__alt_mem_epcs_flash_controller+0xfe005a6c>
 200eecc:	00800604 	movi	r2,24
 200eed0:	1007883a 	mov	r3,r2
 200eed4:	003f0a06 	br	200eb00 <__alt_mem_epcs_flash_controller+0xfe005b00>
 200eed8:	00800604 	movi	r2,24
 200eedc:	1007883a 	mov	r3,r2
 200eee0:	003e9c06 	br	200e954 <__alt_mem_epcs_flash_controller+0xfe005954>
 200eee4:	00800204 	movi	r2,8
 200eee8:	1007883a 	mov	r3,r2
 200eeec:	003e9906 	br	200e954 <__alt_mem_epcs_flash_controller+0xfe005954>
 200eef0:	00800204 	movi	r2,8
 200eef4:	1007883a 	mov	r3,r2
 200eef8:	003f0106 	br	200eb00 <__alt_mem_epcs_flash_controller+0xfe005b00>
 200eefc:	18bf842e 	bgeu	r3,r2,200ed10 <__alt_mem_epcs_flash_controller+0xfe005d10>
 200ef00:	a53fff84 	addi	r20,r20,-2
 200ef04:	1cc7883a 	add	r3,r3,r19
 200ef08:	003f8206 	br	200ed14 <__alt_mem_epcs_flash_controller+0xfe005d14>
 200ef0c:	393f6b2e 	bgeu	r7,r4,200ecbc <__alt_mem_epcs_flash_controller+0xfe005cbc>
 200ef10:	bdffff84 	addi	r23,r23,-2
 200ef14:	3ccf883a 	add	r7,r7,r19
 200ef18:	003f6906 	br	200ecc0 <__alt_mem_epcs_flash_controller+0xfe005cc0>
 200ef1c:	1825883a 	mov	r18,r3
 200ef20:	003fd406 	br	200ee74 <__alt_mem_epcs_flash_controller+0xfe005e74>
 200ef24:	102f883a 	mov	r23,r2
 200ef28:	003fbc06 	br	200ee1c <__alt_mem_epcs_flash_controller+0xfe005e1c>
 200ef2c:	94bfff84 	addi	r18,r18,-2
 200ef30:	340d883a 	add	r6,r6,r16
 200ef34:	003f1606 	br	200eb90 <__alt_mem_epcs_flash_controller+0xfe005b90>
 200ef38:	94bfff84 	addi	r18,r18,-2
 200ef3c:	1c07883a 	add	r3,r3,r16
 200ef40:	003ea906 	br	200e9e8 <__alt_mem_epcs_flash_controller+0xfe0059e8>

0200ef44 <__umoddi3>:
 200ef44:	defff304 	addi	sp,sp,-52
 200ef48:	dd000715 	stw	r20,28(sp)
 200ef4c:	dcc00615 	stw	r19,24(sp)
 200ef50:	dc800515 	stw	r18,20(sp)
 200ef54:	dc400415 	stw	r17,16(sp)
 200ef58:	dc000315 	stw	r16,12(sp)
 200ef5c:	dfc00c15 	stw	ra,48(sp)
 200ef60:	df000b15 	stw	fp,44(sp)
 200ef64:	ddc00a15 	stw	r23,40(sp)
 200ef68:	dd800915 	stw	r22,36(sp)
 200ef6c:	dd400815 	stw	r21,32(sp)
 200ef70:	2025883a 	mov	r18,r4
 200ef74:	2823883a 	mov	r17,r5
 200ef78:	3021883a 	mov	r16,r6
 200ef7c:	2027883a 	mov	r19,r4
 200ef80:	2829883a 	mov	r20,r5
 200ef84:	38003a1e 	bne	r7,zero,200f070 <__umoddi3+0x12c>
 200ef88:	2980522e 	bgeu	r5,r6,200f0d4 <__umoddi3+0x190>
 200ef8c:	00bfffd4 	movui	r2,65535
 200ef90:	1180a436 	bltu	r2,r6,200f224 <__umoddi3+0x2e0>
 200ef94:	00803fc4 	movi	r2,255
 200ef98:	11816036 	bltu	r2,r6,200f51c <__umoddi3+0x5d8>
 200ef9c:	0005883a 	mov	r2,zero
 200efa0:	0009883a 	mov	r4,zero
 200efa4:	3084d83a 	srl	r2,r6,r2
 200efa8:	00c08234 	movhi	r3,520
 200efac:	18dc7104 	addi	r3,r3,29124
 200efb0:	05400804 	movi	r21,32
 200efb4:	1885883a 	add	r2,r3,r2
 200efb8:	10800003 	ldbu	r2,0(r2)
 200efbc:	1109883a 	add	r4,r2,r4
 200efc0:	a92bc83a 	sub	r21,r21,r4
 200efc4:	a8010e26 	beq	r21,zero,200f400 <__umoddi3+0x4bc>
 200efc8:	8d62983a 	sll	r17,r17,r21
 200efcc:	9108d83a 	srl	r4,r18,r4
 200efd0:	3560983a 	sll	r16,r6,r21
 200efd4:	9566983a 	sll	r19,r18,r21
 200efd8:	8928b03a 	or	r20,r17,r4
 200efdc:	8022d43a 	srli	r17,r16,16
 200efe0:	a009883a 	mov	r4,r20
 200efe4:	84bfffcc 	andi	r18,r16,65535
 200efe8:	880b883a 	mov	r5,r17
 200efec:	2001d180 	call	2001d18 <__umodsi3>
 200eff0:	a009883a 	mov	r4,r20
 200eff4:	880b883a 	mov	r5,r17
 200eff8:	102d883a 	mov	r22,r2
 200effc:	2001d100 	call	2001d10 <__udivsi3>
 200f000:	1009883a 	mov	r4,r2
 200f004:	900b883a 	mov	r5,r18
 200f008:	2001d200 	call	2001d20 <__mulsi3>
 200f00c:	1009883a 	mov	r4,r2
 200f010:	b006943a 	slli	r3,r22,16
 200f014:	9804d43a 	srli	r2,r19,16
 200f018:	1886b03a 	or	r3,r3,r2
 200f01c:	1900042e 	bgeu	r3,r4,200f030 <__umoddi3+0xec>
 200f020:	1c07883a 	add	r3,r3,r16
 200f024:	1c000236 	bltu	r3,r16,200f030 <__umoddi3+0xec>
 200f028:	1900012e 	bgeu	r3,r4,200f030 <__umoddi3+0xec>
 200f02c:	1c07883a 	add	r3,r3,r16
 200f030:	1929c83a 	sub	r20,r3,r4
 200f034:	a009883a 	mov	r4,r20
 200f038:	880b883a 	mov	r5,r17
 200f03c:	2001d180 	call	2001d18 <__umodsi3>
 200f040:	102d883a 	mov	r22,r2
 200f044:	a009883a 	mov	r4,r20
 200f048:	880b883a 	mov	r5,r17
 200f04c:	b02c943a 	slli	r22,r22,16
 200f050:	2001d100 	call	2001d10 <__udivsi3>
 200f054:	1009883a 	mov	r4,r2
 200f058:	900b883a 	mov	r5,r18
 200f05c:	9cffffcc 	andi	r19,r19,65535
 200f060:	2001d200 	call	2001d20 <__mulsi3>
 200f064:	b4e6b03a 	or	r19,r22,r19
 200f068:	9880572e 	bgeu	r19,r2,200f1c8 <__umoddi3+0x284>
 200f06c:	00005206 	br	200f1b8 <__umoddi3+0x274>
 200f070:	29c05936 	bltu	r5,r7,200f1d8 <__umoddi3+0x294>
 200f074:	00bfffd4 	movui	r2,65535
 200f078:	11c0652e 	bgeu	r2,r7,200f210 <__umoddi3+0x2cc>
 200f07c:	00804034 	movhi	r2,256
 200f080:	10bfffc4 	addi	r2,r2,-1
 200f084:	11c11936 	bltu	r2,r7,200f4ec <__umoddi3+0x5a8>
 200f088:	00c00404 	movi	r3,16
 200f08c:	1827883a 	mov	r19,r3
 200f090:	38c6d83a 	srl	r3,r7,r3
 200f094:	01008234 	movhi	r4,520
 200f098:	211c7104 	addi	r4,r4,29124
 200f09c:	04000804 	movi	r16,32
 200f0a0:	20c7883a 	add	r3,r4,r3
 200f0a4:	18800003 	ldbu	r2,0(r3)
 200f0a8:	14e7883a 	add	r19,r2,r19
 200f0ac:	84e1c83a 	sub	r16,r16,r19
 200f0b0:	8000671e 	bne	r16,zero,200f250 <__umoddi3+0x30c>
 200f0b4:	3c400136 	bltu	r7,r17,200f0bc <__umoddi3+0x178>
 200f0b8:	91812536 	bltu	r18,r6,200f550 <__umoddi3+0x60c>
 200f0bc:	9185c83a 	sub	r2,r18,r6
 200f0c0:	89e3c83a 	sub	r17,r17,r7
 200f0c4:	90a5803a 	cmpltu	r18,r18,r2
 200f0c8:	8ca9c83a 	sub	r20,r17,r18
 200f0cc:	a007883a 	mov	r3,r20
 200f0d0:	00004306 	br	200f1e0 <__umoddi3+0x29c>
 200f0d4:	3000041e 	bne	r6,zero,200f0e8 <__umoddi3+0x1a4>
 200f0d8:	01000044 	movi	r4,1
 200f0dc:	000b883a 	mov	r5,zero
 200f0e0:	2001d100 	call	2001d10 <__udivsi3>
 200f0e4:	1021883a 	mov	r16,r2
 200f0e8:	00bfffd4 	movui	r2,65535
 200f0ec:	1400532e 	bgeu	r2,r16,200f23c <__umoddi3+0x2f8>
 200f0f0:	00804034 	movhi	r2,256
 200f0f4:	10bfffc4 	addi	r2,r2,-1
 200f0f8:	14010536 	bltu	r2,r16,200f510 <__umoddi3+0x5cc>
 200f0fc:	00800404 	movi	r2,16
 200f100:	1007883a 	mov	r3,r2
 200f104:	8084d83a 	srl	r2,r16,r2
 200f108:	01008234 	movhi	r4,520
 200f10c:	211c7104 	addi	r4,r4,29124
 200f110:	05400804 	movi	r21,32
 200f114:	2085883a 	add	r2,r4,r2
 200f118:	10800003 	ldbu	r2,0(r2)
 200f11c:	10c7883a 	add	r3,r2,r3
 200f120:	a8ebc83a 	sub	r21,r21,r3
 200f124:	a800b81e 	bne	r21,zero,200f408 <__umoddi3+0x4c4>
 200f128:	8028d43a 	srli	r20,r16,16
 200f12c:	8c23c83a 	sub	r17,r17,r16
 200f130:	85bfffcc 	andi	r22,r16,65535
 200f134:	8809883a 	mov	r4,r17
 200f138:	a00b883a 	mov	r5,r20
 200f13c:	2001d180 	call	2001d18 <__umodsi3>
 200f140:	8809883a 	mov	r4,r17
 200f144:	a00b883a 	mov	r5,r20
 200f148:	1025883a 	mov	r18,r2
 200f14c:	2001d100 	call	2001d10 <__udivsi3>
 200f150:	1009883a 	mov	r4,r2
 200f154:	b00b883a 	mov	r5,r22
 200f158:	2001d200 	call	2001d20 <__mulsi3>
 200f15c:	1009883a 	mov	r4,r2
 200f160:	9006943a 	slli	r3,r18,16
 200f164:	9804d43a 	srli	r2,r19,16
 200f168:	1886b03a 	or	r3,r3,r2
 200f16c:	1900032e 	bgeu	r3,r4,200f17c <__umoddi3+0x238>
 200f170:	1c07883a 	add	r3,r3,r16
 200f174:	1c000136 	bltu	r3,r16,200f17c <__umoddi3+0x238>
 200f178:	1900f336 	bltu	r3,r4,200f548 <__umoddi3+0x604>
 200f17c:	1923c83a 	sub	r17,r3,r4
 200f180:	8809883a 	mov	r4,r17
 200f184:	a00b883a 	mov	r5,r20
 200f188:	2001d180 	call	2001d18 <__umodsi3>
 200f18c:	102f883a 	mov	r23,r2
 200f190:	8809883a 	mov	r4,r17
 200f194:	a00b883a 	mov	r5,r20
 200f198:	b82e943a 	slli	r23,r23,16
 200f19c:	2001d100 	call	2001d10 <__udivsi3>
 200f1a0:	1009883a 	mov	r4,r2
 200f1a4:	b00b883a 	mov	r5,r22
 200f1a8:	9cffffcc 	andi	r19,r19,65535
 200f1ac:	2001d200 	call	2001d20 <__mulsi3>
 200f1b0:	bce6b03a 	or	r19,r23,r19
 200f1b4:	9880042e 	bgeu	r19,r2,200f1c8 <__umoddi3+0x284>
 200f1b8:	9c27883a 	add	r19,r19,r16
 200f1bc:	9c000236 	bltu	r19,r16,200f1c8 <__umoddi3+0x284>
 200f1c0:	9880012e 	bgeu	r19,r2,200f1c8 <__umoddi3+0x284>
 200f1c4:	9c27883a 	add	r19,r19,r16
 200f1c8:	9885c83a 	sub	r2,r19,r2
 200f1cc:	1544d83a 	srl	r2,r2,r21
 200f1d0:	0007883a 	mov	r3,zero
 200f1d4:	00000206 	br	200f1e0 <__umoddi3+0x29c>
 200f1d8:	2005883a 	mov	r2,r4
 200f1dc:	2807883a 	mov	r3,r5
 200f1e0:	dfc00c17 	ldw	ra,48(sp)
 200f1e4:	df000b17 	ldw	fp,44(sp)
 200f1e8:	ddc00a17 	ldw	r23,40(sp)
 200f1ec:	dd800917 	ldw	r22,36(sp)
 200f1f0:	dd400817 	ldw	r21,32(sp)
 200f1f4:	dd000717 	ldw	r20,28(sp)
 200f1f8:	dcc00617 	ldw	r19,24(sp)
 200f1fc:	dc800517 	ldw	r18,20(sp)
 200f200:	dc400417 	ldw	r17,16(sp)
 200f204:	dc000317 	ldw	r16,12(sp)
 200f208:	dec00d04 	addi	sp,sp,52
 200f20c:	f800283a 	ret
 200f210:	00803fc4 	movi	r2,255
 200f214:	11c0b236 	bltu	r2,r7,200f4e0 <__umoddi3+0x59c>
 200f218:	0007883a 	mov	r3,zero
 200f21c:	0027883a 	mov	r19,zero
 200f220:	003f9b06 	br	200f090 <__alt_mem_epcs_flash_controller+0xfe006090>
 200f224:	00804034 	movhi	r2,256
 200f228:	10bfffc4 	addi	r2,r2,-1
 200f22c:	1180b236 	bltu	r2,r6,200f4f8 <__umoddi3+0x5b4>
 200f230:	00800404 	movi	r2,16
 200f234:	1009883a 	mov	r4,r2
 200f238:	003f5a06 	br	200efa4 <__alt_mem_epcs_flash_controller+0xfe005fa4>
 200f23c:	00803fc4 	movi	r2,255
 200f240:	1400b036 	bltu	r2,r16,200f504 <__umoddi3+0x5c0>
 200f244:	0005883a 	mov	r2,zero
 200f248:	0007883a 	mov	r3,zero
 200f24c:	003fad06 	br	200f104 <__alt_mem_epcs_flash_controller+0xfe006104>
 200f250:	34c4d83a 	srl	r2,r6,r19
 200f254:	3c0e983a 	sll	r7,r7,r16
 200f258:	8cf8d83a 	srl	fp,r17,r19
 200f25c:	8c22983a 	sll	r17,r17,r16
 200f260:	38a8b03a 	or	r20,r7,r2
 200f264:	a02ad43a 	srli	r21,r20,16
 200f268:	94c4d83a 	srl	r2,r18,r19
 200f26c:	e009883a 	mov	r4,fp
 200f270:	a80b883a 	mov	r5,r21
 200f274:	342c983a 	sll	r22,r6,r16
 200f278:	88a2b03a 	or	r17,r17,r2
 200f27c:	2001d180 	call	2001d18 <__umodsi3>
 200f280:	e009883a 	mov	r4,fp
 200f284:	a80b883a 	mov	r5,r21
 200f288:	a5ffffcc 	andi	r23,r20,65535
 200f28c:	d8800215 	stw	r2,8(sp)
 200f290:	2001d100 	call	2001d10 <__udivsi3>
 200f294:	1009883a 	mov	r4,r2
 200f298:	b80b883a 	mov	r5,r23
 200f29c:	1039883a 	mov	fp,r2
 200f2a0:	2001d200 	call	2001d20 <__mulsi3>
 200f2a4:	d8c00217 	ldw	r3,8(sp)
 200f2a8:	1009883a 	mov	r4,r2
 200f2ac:	8804d43a 	srli	r2,r17,16
 200f2b0:	1806943a 	slli	r3,r3,16
 200f2b4:	9424983a 	sll	r18,r18,r16
 200f2b8:	1886b03a 	or	r3,r3,r2
 200f2bc:	1900042e 	bgeu	r3,r4,200f2d0 <__umoddi3+0x38c>
 200f2c0:	1d07883a 	add	r3,r3,r20
 200f2c4:	e0bfffc4 	addi	r2,fp,-1
 200f2c8:	1d009b2e 	bgeu	r3,r20,200f538 <__umoddi3+0x5f4>
 200f2cc:	1039883a 	mov	fp,r2
 200f2d0:	1907c83a 	sub	r3,r3,r4
 200f2d4:	1809883a 	mov	r4,r3
 200f2d8:	a80b883a 	mov	r5,r21
 200f2dc:	d8c00215 	stw	r3,8(sp)
 200f2e0:	2001d180 	call	2001d18 <__umodsi3>
 200f2e4:	d8c00217 	ldw	r3,8(sp)
 200f2e8:	a80b883a 	mov	r5,r21
 200f2ec:	d8800015 	stw	r2,0(sp)
 200f2f0:	1809883a 	mov	r4,r3
 200f2f4:	2001d100 	call	2001d10 <__udivsi3>
 200f2f8:	1009883a 	mov	r4,r2
 200f2fc:	b80b883a 	mov	r5,r23
 200f300:	102b883a 	mov	r21,r2
 200f304:	2001d200 	call	2001d20 <__mulsi3>
 200f308:	d9c00017 	ldw	r7,0(sp)
 200f30c:	8c7fffcc 	andi	r17,r17,65535
 200f310:	380e943a 	slli	r7,r7,16
 200f314:	3c4eb03a 	or	r7,r7,r17
 200f318:	3880042e 	bgeu	r7,r2,200f32c <__umoddi3+0x3e8>
 200f31c:	3d0f883a 	add	r7,r7,r20
 200f320:	a8ffffc4 	addi	r3,r21,-1
 200f324:	3d00802e 	bgeu	r7,r20,200f528 <__umoddi3+0x5e4>
 200f328:	182b883a 	mov	r21,r3
 200f32c:	e038943a 	slli	fp,fp,16
 200f330:	b010d43a 	srli	r8,r22,16
 200f334:	b1bfffcc 	andi	r6,r22,65535
 200f338:	af2ab03a 	or	r21,r21,fp
 200f33c:	a82ed43a 	srli	r23,r21,16
 200f340:	ad7fffcc 	andi	r21,r21,65535
 200f344:	300b883a 	mov	r5,r6
 200f348:	a809883a 	mov	r4,r21
 200f34c:	38a3c83a 	sub	r17,r7,r2
 200f350:	d9800115 	stw	r6,4(sp)
 200f354:	da000015 	stw	r8,0(sp)
 200f358:	2001d200 	call	2001d20 <__mulsi3>
 200f35c:	da000017 	ldw	r8,0(sp)
 200f360:	a809883a 	mov	r4,r21
 200f364:	1039883a 	mov	fp,r2
 200f368:	400b883a 	mov	r5,r8
 200f36c:	da000215 	stw	r8,8(sp)
 200f370:	2001d200 	call	2001d20 <__mulsi3>
 200f374:	d9800117 	ldw	r6,4(sp)
 200f378:	b809883a 	mov	r4,r23
 200f37c:	d8800015 	stw	r2,0(sp)
 200f380:	300b883a 	mov	r5,r6
 200f384:	2001d200 	call	2001d20 <__mulsi3>
 200f388:	d8c00217 	ldw	r3,8(sp)
 200f38c:	b809883a 	mov	r4,r23
 200f390:	102b883a 	mov	r21,r2
 200f394:	180b883a 	mov	r5,r3
 200f398:	2001d200 	call	2001d20 <__mulsi3>
 200f39c:	d9c00017 	ldw	r7,0(sp)
 200f3a0:	1007883a 	mov	r3,r2
 200f3a4:	e004d43a 	srli	r2,fp,16
 200f3a8:	a9c9883a 	add	r4,r21,r7
 200f3ac:	2089883a 	add	r4,r4,r2
 200f3b0:	2540022e 	bgeu	r4,r21,200f3bc <__umoddi3+0x478>
 200f3b4:	00800074 	movhi	r2,1
 200f3b8:	1887883a 	add	r3,r3,r2
 200f3bc:	2004d43a 	srli	r2,r4,16
 200f3c0:	2008943a 	slli	r4,r4,16
 200f3c4:	e73fffcc 	andi	fp,fp,65535
 200f3c8:	1887883a 	add	r3,r3,r2
 200f3cc:	2709883a 	add	r4,r4,fp
 200f3d0:	88c03d36 	bltu	r17,r3,200f4c8 <__umoddi3+0x584>
 200f3d4:	88c06126 	beq	r17,r3,200f55c <__umoddi3+0x618>
 200f3d8:	88c7c83a 	sub	r3,r17,r3
 200f3dc:	202d883a 	mov	r22,r4
 200f3e0:	95adc83a 	sub	r22,r18,r22
 200f3e4:	95a5803a 	cmpltu	r18,r18,r22
 200f3e8:	1c87c83a 	sub	r3,r3,r18
 200f3ec:	1cc4983a 	sll	r2,r3,r19
 200f3f0:	b42cd83a 	srl	r22,r22,r16
 200f3f4:	1c06d83a 	srl	r3,r3,r16
 200f3f8:	1584b03a 	or	r2,r2,r22
 200f3fc:	003f7806 	br	200f1e0 <__alt_mem_epcs_flash_controller+0xfe0061e0>
 200f400:	002b883a 	mov	r21,zero
 200f404:	003ef506 	br	200efdc <__alt_mem_epcs_flash_controller+0xfe005fdc>
 200f408:	8560983a 	sll	r16,r16,r21
 200f40c:	88e6d83a 	srl	r19,r17,r3
 200f410:	90c6d83a 	srl	r3,r18,r3
 200f414:	8028d43a 	srli	r20,r16,16
 200f418:	8d62983a 	sll	r17,r17,r21
 200f41c:	9809883a 	mov	r4,r19
 200f420:	a00b883a 	mov	r5,r20
 200f424:	88eeb03a 	or	r23,r17,r3
 200f428:	2001d180 	call	2001d18 <__umodsi3>
 200f42c:	9809883a 	mov	r4,r19
 200f430:	a00b883a 	mov	r5,r20
 200f434:	1023883a 	mov	r17,r2
 200f438:	85bfffcc 	andi	r22,r16,65535
 200f43c:	2001d100 	call	2001d10 <__udivsi3>
 200f440:	1009883a 	mov	r4,r2
 200f444:	b00b883a 	mov	r5,r22
 200f448:	2001d200 	call	2001d20 <__mulsi3>
 200f44c:	1007883a 	mov	r3,r2
 200f450:	8808943a 	slli	r4,r17,16
 200f454:	b804d43a 	srli	r2,r23,16
 200f458:	9566983a 	sll	r19,r18,r21
 200f45c:	2088b03a 	or	r4,r4,r2
 200f460:	20c0042e 	bgeu	r4,r3,200f474 <__umoddi3+0x530>
 200f464:	2409883a 	add	r4,r4,r16
 200f468:	24000236 	bltu	r4,r16,200f474 <__umoddi3+0x530>
 200f46c:	20c0012e 	bgeu	r4,r3,200f474 <__umoddi3+0x530>
 200f470:	2409883a 	add	r4,r4,r16
 200f474:	20e5c83a 	sub	r18,r4,r3
 200f478:	9009883a 	mov	r4,r18
 200f47c:	a00b883a 	mov	r5,r20
 200f480:	2001d180 	call	2001d18 <__umodsi3>
 200f484:	1023883a 	mov	r17,r2
 200f488:	9009883a 	mov	r4,r18
 200f48c:	a00b883a 	mov	r5,r20
 200f490:	8822943a 	slli	r17,r17,16
 200f494:	2001d100 	call	2001d10 <__udivsi3>
 200f498:	1009883a 	mov	r4,r2
 200f49c:	b00b883a 	mov	r5,r22
 200f4a0:	bdffffcc 	andi	r23,r23,65535
 200f4a4:	2001d200 	call	2001d20 <__mulsi3>
 200f4a8:	8de2b03a 	or	r17,r17,r23
 200f4ac:	8880042e 	bgeu	r17,r2,200f4c0 <__umoddi3+0x57c>
 200f4b0:	8c23883a 	add	r17,r17,r16
 200f4b4:	8c000236 	bltu	r17,r16,200f4c0 <__umoddi3+0x57c>
 200f4b8:	8880012e 	bgeu	r17,r2,200f4c0 <__umoddi3+0x57c>
 200f4bc:	8c23883a 	add	r17,r17,r16
 200f4c0:	88a3c83a 	sub	r17,r17,r2
 200f4c4:	003f1b06 	br	200f134 <__alt_mem_epcs_flash_controller+0xfe006134>
 200f4c8:	25adc83a 	sub	r22,r4,r22
 200f4cc:	1d07c83a 	sub	r3,r3,r20
 200f4d0:	2589803a 	cmpltu	r4,r4,r22
 200f4d4:	1907c83a 	sub	r3,r3,r4
 200f4d8:	88c7c83a 	sub	r3,r17,r3
 200f4dc:	003fc006 	br	200f3e0 <__alt_mem_epcs_flash_controller+0xfe0063e0>
 200f4e0:	00c00204 	movi	r3,8
 200f4e4:	1827883a 	mov	r19,r3
 200f4e8:	003ee906 	br	200f090 <__alt_mem_epcs_flash_controller+0xfe006090>
 200f4ec:	00c00604 	movi	r3,24
 200f4f0:	1827883a 	mov	r19,r3
 200f4f4:	003ee606 	br	200f090 <__alt_mem_epcs_flash_controller+0xfe006090>
 200f4f8:	00800604 	movi	r2,24
 200f4fc:	1009883a 	mov	r4,r2
 200f500:	003ea806 	br	200efa4 <__alt_mem_epcs_flash_controller+0xfe005fa4>
 200f504:	00800204 	movi	r2,8
 200f508:	1007883a 	mov	r3,r2
 200f50c:	003efd06 	br	200f104 <__alt_mem_epcs_flash_controller+0xfe006104>
 200f510:	00800604 	movi	r2,24
 200f514:	1007883a 	mov	r3,r2
 200f518:	003efa06 	br	200f104 <__alt_mem_epcs_flash_controller+0xfe006104>
 200f51c:	00800204 	movi	r2,8
 200f520:	1009883a 	mov	r4,r2
 200f524:	003e9f06 	br	200efa4 <__alt_mem_epcs_flash_controller+0xfe005fa4>
 200f528:	38bf7f2e 	bgeu	r7,r2,200f328 <__alt_mem_epcs_flash_controller+0xfe006328>
 200f52c:	ad7fff84 	addi	r21,r21,-2
 200f530:	3d0f883a 	add	r7,r7,r20
 200f534:	003f7d06 	br	200f32c <__alt_mem_epcs_flash_controller+0xfe00632c>
 200f538:	193f642e 	bgeu	r3,r4,200f2cc <__alt_mem_epcs_flash_controller+0xfe0062cc>
 200f53c:	e73fff84 	addi	fp,fp,-2
 200f540:	1d07883a 	add	r3,r3,r20
 200f544:	003f6206 	br	200f2d0 <__alt_mem_epcs_flash_controller+0xfe0062d0>
 200f548:	1c07883a 	add	r3,r3,r16
 200f54c:	003f0b06 	br	200f17c <__alt_mem_epcs_flash_controller+0xfe00617c>
 200f550:	9005883a 	mov	r2,r18
 200f554:	a007883a 	mov	r3,r20
 200f558:	003f2106 	br	200f1e0 <__alt_mem_epcs_flash_controller+0xfe0061e0>
 200f55c:	913fda36 	bltu	r18,r4,200f4c8 <__alt_mem_epcs_flash_controller+0xfe0064c8>
 200f560:	202d883a 	mov	r22,r4
 200f564:	0007883a 	mov	r3,zero
 200f568:	003f9d06 	br	200f3e0 <__alt_mem_epcs_flash_controller+0xfe0063e0>

0200f56c <__nesf2>:
 200f56c:	defff504 	addi	sp,sp,-44
 200f570:	d9000915 	stw	r4,36(sp)
 200f574:	d9400815 	stw	r5,32(sp)
 200f578:	d9000904 	addi	r4,sp,36
 200f57c:	d9400404 	addi	r5,sp,16
 200f580:	dfc00a15 	stw	ra,40(sp)
 200f584:	200fe2c0 	call	200fe2c <__unpack_f>
 200f588:	d9000804 	addi	r4,sp,32
 200f58c:	d80b883a 	mov	r5,sp
 200f590:	200fe2c0 	call	200fe2c <__unpack_f>
 200f594:	d8c00417 	ldw	r3,16(sp)
 200f598:	00800044 	movi	r2,1
 200f59c:	10c0052e 	bgeu	r2,r3,200f5b4 <__nesf2+0x48>
 200f5a0:	d8c00017 	ldw	r3,0(sp)
 200f5a4:	10c0032e 	bgeu	r2,r3,200f5b4 <__nesf2+0x48>
 200f5a8:	d9000404 	addi	r4,sp,16
 200f5ac:	d80b883a 	mov	r5,sp
 200f5b0:	200fef40 	call	200fef4 <__fpcmp_parts_f>
 200f5b4:	dfc00a17 	ldw	ra,40(sp)
 200f5b8:	dec00b04 	addi	sp,sp,44
 200f5bc:	f800283a 	ret

0200f5c0 <__gtsf2>:
 200f5c0:	defff504 	addi	sp,sp,-44
 200f5c4:	d9000915 	stw	r4,36(sp)
 200f5c8:	d9400815 	stw	r5,32(sp)
 200f5cc:	d9000904 	addi	r4,sp,36
 200f5d0:	d9400404 	addi	r5,sp,16
 200f5d4:	dfc00a15 	stw	ra,40(sp)
 200f5d8:	200fe2c0 	call	200fe2c <__unpack_f>
 200f5dc:	d9000804 	addi	r4,sp,32
 200f5e0:	d80b883a 	mov	r5,sp
 200f5e4:	200fe2c0 	call	200fe2c <__unpack_f>
 200f5e8:	d8c00417 	ldw	r3,16(sp)
 200f5ec:	00800044 	movi	r2,1
 200f5f0:	10c0082e 	bgeu	r2,r3,200f614 <__gtsf2+0x54>
 200f5f4:	d8c00017 	ldw	r3,0(sp)
 200f5f8:	10c0062e 	bgeu	r2,r3,200f614 <__gtsf2+0x54>
 200f5fc:	d9000404 	addi	r4,sp,16
 200f600:	d80b883a 	mov	r5,sp
 200f604:	200fef40 	call	200fef4 <__fpcmp_parts_f>
 200f608:	dfc00a17 	ldw	ra,40(sp)
 200f60c:	dec00b04 	addi	sp,sp,44
 200f610:	f800283a 	ret
 200f614:	00bfffc4 	movi	r2,-1
 200f618:	003ffb06 	br	200f608 <__alt_mem_epcs_flash_controller+0xfe006608>

0200f61c <__ltsf2>:
 200f61c:	defff504 	addi	sp,sp,-44
 200f620:	d9000915 	stw	r4,36(sp)
 200f624:	d9400815 	stw	r5,32(sp)
 200f628:	d9000904 	addi	r4,sp,36
 200f62c:	d9400404 	addi	r5,sp,16
 200f630:	dfc00a15 	stw	ra,40(sp)
 200f634:	200fe2c0 	call	200fe2c <__unpack_f>
 200f638:	d9000804 	addi	r4,sp,32
 200f63c:	d80b883a 	mov	r5,sp
 200f640:	200fe2c0 	call	200fe2c <__unpack_f>
 200f644:	d8c00417 	ldw	r3,16(sp)
 200f648:	00800044 	movi	r2,1
 200f64c:	10c0052e 	bgeu	r2,r3,200f664 <__ltsf2+0x48>
 200f650:	d8c00017 	ldw	r3,0(sp)
 200f654:	10c0032e 	bgeu	r2,r3,200f664 <__ltsf2+0x48>
 200f658:	d9000404 	addi	r4,sp,16
 200f65c:	d80b883a 	mov	r5,sp
 200f660:	200fef40 	call	200fef4 <__fpcmp_parts_f>
 200f664:	dfc00a17 	ldw	ra,40(sp)
 200f668:	dec00b04 	addi	sp,sp,44
 200f66c:	f800283a 	ret

0200f670 <_fpadd_parts>:
 200f670:	2005883a 	mov	r2,r4
 200f674:	21000017 	ldw	r4,0(r4)
 200f678:	01c00044 	movi	r7,1
 200f67c:	3900622e 	bgeu	r7,r4,200f808 <_fpadd_parts+0x198>
 200f680:	28c00017 	ldw	r3,0(r5)
 200f684:	38c05f2e 	bgeu	r7,r3,200f804 <_fpadd_parts+0x194>
 200f688:	01c00104 	movi	r7,4
 200f68c:	21c0c626 	beq	r4,r7,200f9a8 <_fpadd_parts+0x338>
 200f690:	19c05c26 	beq	r3,r7,200f804 <_fpadd_parts+0x194>
 200f694:	01c00084 	movi	r7,2
 200f698:	19c06b26 	beq	r3,r7,200f848 <_fpadd_parts+0x1d8>
 200f69c:	21c05926 	beq	r4,r7,200f804 <_fpadd_parts+0x194>
 200f6a0:	11c00217 	ldw	r7,8(r2)
 200f6a4:	2ac00217 	ldw	r11,8(r5)
 200f6a8:	13000317 	ldw	r12,12(r2)
 200f6ac:	13400417 	ldw	r13,16(r2)
 200f6b0:	3ac9c83a 	sub	r4,r7,r11
 200f6b4:	2a000317 	ldw	r8,12(r5)
 200f6b8:	2a400417 	ldw	r9,16(r5)
 200f6bc:	2015883a 	mov	r10,r4
 200f6c0:	20007516 	blt	r4,zero,200f898 <_fpadd_parts+0x228>
 200f6c4:	00c00fc4 	movi	r3,63
 200f6c8:	1a805016 	blt	r3,r10,200f80c <_fpadd_parts+0x19c>
 200f6cc:	0100870e 	bge	zero,r4,200f8ec <_fpadd_parts+0x27c>
 200f6d0:	50fff804 	addi	r3,r10,-32
 200f6d4:	18009916 	blt	r3,zero,200f93c <_fpadd_parts+0x2cc>
 200f6d8:	48d6d83a 	srl	r11,r9,r3
 200f6dc:	001d883a 	mov	r14,zero
 200f6e0:	18009e16 	blt	r3,zero,200f95c <_fpadd_parts+0x2ec>
 200f6e4:	01000044 	movi	r4,1
 200f6e8:	20c6983a 	sll	r3,r4,r3
 200f6ec:	0015883a 	mov	r10,zero
 200f6f0:	513fffc4 	addi	r4,r10,-1
 200f6f4:	2295403a 	cmpgeu	r10,r4,r10
 200f6f8:	1a87c83a 	sub	r3,r3,r10
 200f6fc:	1a52703a 	and	r9,r3,r9
 200f700:	2210703a 	and	r8,r4,r8
 200f704:	4250b03a 	or	r8,r8,r9
 200f708:	4010c03a 	cmpne	r8,r8,zero
 200f70c:	42d0b03a 	or	r8,r8,r11
 200f710:	7013883a 	mov	r9,r14
 200f714:	11000117 	ldw	r4,4(r2)
 200f718:	28800117 	ldw	r2,4(r5)
 200f71c:	20804126 	beq	r4,r2,200f824 <_fpadd_parts+0x1b4>
 200f720:	20006326 	beq	r4,zero,200f8b0 <_fpadd_parts+0x240>
 200f724:	4305c83a 	sub	r2,r8,r12
 200f728:	4091803a 	cmpltu	r8,r8,r2
 200f72c:	4b47c83a 	sub	r3,r9,r13
 200f730:	1a07c83a 	sub	r3,r3,r8
 200f734:	18006316 	blt	r3,zero,200f8c4 <_fpadd_parts+0x254>
 200f738:	30000115 	stw	zero,4(r6)
 200f73c:	31c00215 	stw	r7,8(r6)
 200f740:	30800315 	stw	r2,12(r6)
 200f744:	30c00415 	stw	r3,16(r6)
 200f748:	11ffffc4 	addi	r7,r2,-1
 200f74c:	388b403a 	cmpgeu	r5,r7,r2
 200f750:	194bc83a 	sub	r5,r3,r5
 200f754:	01040034 	movhi	r4,4096
 200f758:	213fffc4 	addi	r4,r4,-1
 200f75c:	21401736 	bltu	r4,r5,200f7bc <_fpadd_parts+0x14c>
 200f760:	29008226 	beq	r5,r4,200f96c <_fpadd_parts+0x2fc>
 200f764:	31400217 	ldw	r5,8(r6)
 200f768:	02840034 	movhi	r10,4096
 200f76c:	52bfffc4 	addi	r10,r10,-1
 200f770:	033fff84 	movi	r12,-2
 200f774:	297fffc4 	addi	r5,r5,-1
 200f778:	00000106 	br	200f780 <_fpadd_parts+0x110>
 200f77c:	3a804a26 	beq	r7,r10,200f8a8 <_fpadd_parts+0x238>
 200f780:	1089883a 	add	r4,r2,r2
 200f784:	2091803a 	cmpltu	r8,r4,r2
 200f788:	18c7883a 	add	r3,r3,r3
 200f78c:	227fffc4 	addi	r9,r4,-1
 200f790:	40d1883a 	add	r8,r8,r3
 200f794:	490f403a 	cmpgeu	r7,r9,r4
 200f798:	41cfc83a 	sub	r7,r8,r7
 200f79c:	2817883a 	mov	r11,r5
 200f7a0:	2005883a 	mov	r2,r4
 200f7a4:	4007883a 	mov	r3,r8
 200f7a8:	297fffc4 	addi	r5,r5,-1
 200f7ac:	51fff32e 	bgeu	r10,r7,200f77c <__alt_mem_epcs_flash_controller+0xfe00677c>
 200f7b0:	31000315 	stw	r4,12(r6)
 200f7b4:	32000415 	stw	r8,16(r6)
 200f7b8:	32c00215 	stw	r11,8(r6)
 200f7bc:	010000c4 	movi	r4,3
 200f7c0:	31000015 	stw	r4,0(r6)
 200f7c4:	01080034 	movhi	r4,8192
 200f7c8:	213fffc4 	addi	r4,r4,-1
 200f7cc:	20c00b2e 	bgeu	r4,r3,200f7fc <_fpadd_parts+0x18c>
 200f7d0:	180e97fa 	slli	r7,r3,31
 200f7d4:	1008d07a 	srli	r4,r2,1
 200f7d8:	31400217 	ldw	r5,8(r6)
 200f7dc:	1806d07a 	srli	r3,r3,1
 200f7e0:	1080004c 	andi	r2,r2,1
 200f7e4:	3908b03a 	or	r4,r7,r4
 200f7e8:	1108b03a 	or	r4,r2,r4
 200f7ec:	29400044 	addi	r5,r5,1
 200f7f0:	31000315 	stw	r4,12(r6)
 200f7f4:	30c00415 	stw	r3,16(r6)
 200f7f8:	31400215 	stw	r5,8(r6)
 200f7fc:	3005883a 	mov	r2,r6
 200f800:	f800283a 	ret
 200f804:	2805883a 	mov	r2,r5
 200f808:	f800283a 	ret
 200f80c:	59c01e0e 	bge	r11,r7,200f888 <_fpadd_parts+0x218>
 200f810:	11000117 	ldw	r4,4(r2)
 200f814:	28800117 	ldw	r2,4(r5)
 200f818:	0011883a 	mov	r8,zero
 200f81c:	0013883a 	mov	r9,zero
 200f820:	20bfbf1e 	bne	r4,r2,200f720 <__alt_mem_epcs_flash_controller+0xfe006720>
 200f824:	4305883a 	add	r2,r8,r12
 200f828:	1207803a 	cmpltu	r3,r2,r8
 200f82c:	4b53883a 	add	r9,r9,r13
 200f830:	1a47883a 	add	r3,r3,r9
 200f834:	31000115 	stw	r4,4(r6)
 200f838:	31c00215 	stw	r7,8(r6)
 200f83c:	30800315 	stw	r2,12(r6)
 200f840:	30c00415 	stw	r3,16(r6)
 200f844:	003fdd06 	br	200f7bc <__alt_mem_epcs_flash_controller+0xfe0067bc>
 200f848:	20ffef1e 	bne	r4,r3,200f808 <__alt_mem_epcs_flash_controller+0xfe006808>
 200f84c:	31000015 	stw	r4,0(r6)
 200f850:	10c00117 	ldw	r3,4(r2)
 200f854:	30c00115 	stw	r3,4(r6)
 200f858:	10c00217 	ldw	r3,8(r2)
 200f85c:	11000117 	ldw	r4,4(r2)
 200f860:	29400117 	ldw	r5,4(r5)
 200f864:	30c00215 	stw	r3,8(r6)
 200f868:	10c00317 	ldw	r3,12(r2)
 200f86c:	2908703a 	and	r4,r5,r4
 200f870:	30c00315 	stw	r3,12(r6)
 200f874:	10c00417 	ldw	r3,16(r2)
 200f878:	31000115 	stw	r4,4(r6)
 200f87c:	3005883a 	mov	r2,r6
 200f880:	30c00415 	stw	r3,16(r6)
 200f884:	f800283a 	ret
 200f888:	580f883a 	mov	r7,r11
 200f88c:	0019883a 	mov	r12,zero
 200f890:	001b883a 	mov	r13,zero
 200f894:	003f9f06 	br	200f714 <__alt_mem_epcs_flash_controller+0xfe006714>
 200f898:	0115c83a 	sub	r10,zero,r4
 200f89c:	00c00fc4 	movi	r3,63
 200f8a0:	1abfda16 	blt	r3,r10,200f80c <__alt_mem_epcs_flash_controller+0xfe00680c>
 200f8a4:	003f8906 	br	200f6cc <__alt_mem_epcs_flash_controller+0xfe0066cc>
 200f8a8:	627fb52e 	bgeu	r12,r9,200f780 <__alt_mem_epcs_flash_controller+0xfe006780>
 200f8ac:	003fc006 	br	200f7b0 <__alt_mem_epcs_flash_controller+0xfe0067b0>
 200f8b0:	6205c83a 	sub	r2,r12,r8
 200f8b4:	6099803a 	cmpltu	r12,r12,r2
 200f8b8:	6a47c83a 	sub	r3,r13,r9
 200f8bc:	1b07c83a 	sub	r3,r3,r12
 200f8c0:	183f9d0e 	bge	r3,zero,200f738 <__alt_mem_epcs_flash_controller+0xfe006738>
 200f8c4:	0085c83a 	sub	r2,zero,r2
 200f8c8:	1008c03a 	cmpne	r4,r2,zero
 200f8cc:	00c7c83a 	sub	r3,zero,r3
 200f8d0:	1907c83a 	sub	r3,r3,r4
 200f8d4:	01000044 	movi	r4,1
 200f8d8:	31000115 	stw	r4,4(r6)
 200f8dc:	31c00215 	stw	r7,8(r6)
 200f8e0:	30800315 	stw	r2,12(r6)
 200f8e4:	30c00415 	stw	r3,16(r6)
 200f8e8:	003f9706 	br	200f748 <__alt_mem_epcs_flash_controller+0xfe006748>
 200f8ec:	203f8926 	beq	r4,zero,200f714 <__alt_mem_epcs_flash_controller+0xfe006714>
 200f8f0:	50fff804 	addi	r3,r10,-32
 200f8f4:	3a8f883a 	add	r7,r7,r10
 200f8f8:	18002316 	blt	r3,zero,200f988 <_fpadd_parts+0x318>
 200f8fc:	68d6d83a 	srl	r11,r13,r3
 200f900:	001d883a 	mov	r14,zero
 200f904:	18001c16 	blt	r3,zero,200f978 <_fpadd_parts+0x308>
 200f908:	01000044 	movi	r4,1
 200f90c:	20c6983a 	sll	r3,r4,r3
 200f910:	0015883a 	mov	r10,zero
 200f914:	513fffc4 	addi	r4,r10,-1
 200f918:	2295403a 	cmpgeu	r10,r4,r10
 200f91c:	1a87c83a 	sub	r3,r3,r10
 200f920:	1b5a703a 	and	r13,r3,r13
 200f924:	2318703a 	and	r12,r4,r12
 200f928:	6358b03a 	or	r12,r12,r13
 200f92c:	6018c03a 	cmpne	r12,r12,zero
 200f930:	62d8b03a 	or	r12,r12,r11
 200f934:	701b883a 	mov	r13,r14
 200f938:	003f7606 	br	200f714 <__alt_mem_epcs_flash_controller+0xfe006714>
 200f93c:	4808907a 	slli	r4,r9,1
 200f940:	02c007c4 	movi	r11,31
 200f944:	5a97c83a 	sub	r11,r11,r10
 200f948:	22c8983a 	sll	r4,r4,r11
 200f94c:	4296d83a 	srl	r11,r8,r10
 200f950:	4a9cd83a 	srl	r14,r9,r10
 200f954:	22d6b03a 	or	r11,r4,r11
 200f958:	003f6106 	br	200f6e0 <__alt_mem_epcs_flash_controller+0xfe0066e0>
 200f95c:	00c00044 	movi	r3,1
 200f960:	1a94983a 	sll	r10,r3,r10
 200f964:	0007883a 	mov	r3,zero
 200f968:	003f6106 	br	200f6f0 <__alt_mem_epcs_flash_controller+0xfe0066f0>
 200f96c:	013fff84 	movi	r4,-2
 200f970:	21ff7c2e 	bgeu	r4,r7,200f764 <__alt_mem_epcs_flash_controller+0xfe006764>
 200f974:	003f9106 	br	200f7bc <__alt_mem_epcs_flash_controller+0xfe0067bc>
 200f978:	00c00044 	movi	r3,1
 200f97c:	1a94983a 	sll	r10,r3,r10
 200f980:	0007883a 	mov	r3,zero
 200f984:	003fe306 	br	200f914 <__alt_mem_epcs_flash_controller+0xfe006914>
 200f988:	6816907a 	slli	r11,r13,1
 200f98c:	010007c4 	movi	r4,31
 200f990:	2289c83a 	sub	r4,r4,r10
 200f994:	5908983a 	sll	r4,r11,r4
 200f998:	6296d83a 	srl	r11,r12,r10
 200f99c:	6a9cd83a 	srl	r14,r13,r10
 200f9a0:	22d6b03a 	or	r11,r4,r11
 200f9a4:	003fd706 	br	200f904 <__alt_mem_epcs_flash_controller+0xfe006904>
 200f9a8:	193f971e 	bne	r3,r4,200f808 <__alt_mem_epcs_flash_controller+0xfe006808>
 200f9ac:	11000117 	ldw	r4,4(r2)
 200f9b0:	28c00117 	ldw	r3,4(r5)
 200f9b4:	20ff9426 	beq	r4,r3,200f808 <__alt_mem_epcs_flash_controller+0xfe006808>
 200f9b8:	00808234 	movhi	r2,520
 200f9bc:	109c6c04 	addi	r2,r2,29104
 200f9c0:	f800283a 	ret

0200f9c4 <__adddf3>:
 200f9c4:	deffec04 	addi	sp,sp,-80
 200f9c8:	d9001115 	stw	r4,68(sp)
 200f9cc:	d9401215 	stw	r5,72(sp)
 200f9d0:	d9001104 	addi	r4,sp,68
 200f9d4:	d9400a04 	addi	r5,sp,40
 200f9d8:	dfc01315 	stw	ra,76(sp)
 200f9dc:	d9c01015 	stw	r7,64(sp)
 200f9e0:	d9800f15 	stw	r6,60(sp)
 200f9e4:	20021280 	call	2002128 <__unpack_d>
 200f9e8:	d9000f04 	addi	r4,sp,60
 200f9ec:	d9400504 	addi	r5,sp,20
 200f9f0:	20021280 	call	2002128 <__unpack_d>
 200f9f4:	d9000a04 	addi	r4,sp,40
 200f9f8:	d9400504 	addi	r5,sp,20
 200f9fc:	d80d883a 	mov	r6,sp
 200fa00:	200f6700 	call	200f670 <_fpadd_parts>
 200fa04:	1009883a 	mov	r4,r2
 200fa08:	2001f040 	call	2001f04 <__pack_d>
 200fa0c:	dfc01317 	ldw	ra,76(sp)
 200fa10:	dec01404 	addi	sp,sp,80
 200fa14:	f800283a 	ret

0200fa18 <__subdf3>:
 200fa18:	deffec04 	addi	sp,sp,-80
 200fa1c:	d9001115 	stw	r4,68(sp)
 200fa20:	d9401215 	stw	r5,72(sp)
 200fa24:	d9001104 	addi	r4,sp,68
 200fa28:	d9400a04 	addi	r5,sp,40
 200fa2c:	dfc01315 	stw	ra,76(sp)
 200fa30:	d9c01015 	stw	r7,64(sp)
 200fa34:	d9800f15 	stw	r6,60(sp)
 200fa38:	20021280 	call	2002128 <__unpack_d>
 200fa3c:	d9000f04 	addi	r4,sp,60
 200fa40:	d9400504 	addi	r5,sp,20
 200fa44:	20021280 	call	2002128 <__unpack_d>
 200fa48:	d8800617 	ldw	r2,24(sp)
 200fa4c:	d9000a04 	addi	r4,sp,40
 200fa50:	d9400504 	addi	r5,sp,20
 200fa54:	d80d883a 	mov	r6,sp
 200fa58:	1080005c 	xori	r2,r2,1
 200fa5c:	d8800615 	stw	r2,24(sp)
 200fa60:	200f6700 	call	200f670 <_fpadd_parts>
 200fa64:	1009883a 	mov	r4,r2
 200fa68:	2001f040 	call	2001f04 <__pack_d>
 200fa6c:	dfc01317 	ldw	ra,76(sp)
 200fa70:	dec01404 	addi	sp,sp,80
 200fa74:	f800283a 	ret

0200fa78 <__eqdf2>:
 200fa78:	defff104 	addi	sp,sp,-60
 200fa7c:	d9000c15 	stw	r4,48(sp)
 200fa80:	d9400d15 	stw	r5,52(sp)
 200fa84:	d9000c04 	addi	r4,sp,48
 200fa88:	d9400504 	addi	r5,sp,20
 200fa8c:	dfc00e15 	stw	ra,56(sp)
 200fa90:	d9800a15 	stw	r6,40(sp)
 200fa94:	d9c00b15 	stw	r7,44(sp)
 200fa98:	20021280 	call	2002128 <__unpack_d>
 200fa9c:	d9000a04 	addi	r4,sp,40
 200faa0:	d80b883a 	mov	r5,sp
 200faa4:	20021280 	call	2002128 <__unpack_d>
 200faa8:	d8c00517 	ldw	r3,20(sp)
 200faac:	00800044 	movi	r2,1
 200fab0:	10c0052e 	bgeu	r2,r3,200fac8 <__eqdf2+0x50>
 200fab4:	d8c00017 	ldw	r3,0(sp)
 200fab8:	10c0032e 	bgeu	r2,r3,200fac8 <__eqdf2+0x50>
 200fabc:	d9000504 	addi	r4,sp,20
 200fac0:	d80b883a 	mov	r5,sp
 200fac4:	200ffdc0 	call	200ffdc <__fpcmp_parts_d>
 200fac8:	dfc00e17 	ldw	ra,56(sp)
 200facc:	dec00f04 	addi	sp,sp,60
 200fad0:	f800283a 	ret

0200fad4 <__nedf2>:
 200fad4:	defff104 	addi	sp,sp,-60
 200fad8:	d9000c15 	stw	r4,48(sp)
 200fadc:	d9400d15 	stw	r5,52(sp)
 200fae0:	d9000c04 	addi	r4,sp,48
 200fae4:	d9400504 	addi	r5,sp,20
 200fae8:	dfc00e15 	stw	ra,56(sp)
 200faec:	d9800a15 	stw	r6,40(sp)
 200faf0:	d9c00b15 	stw	r7,44(sp)
 200faf4:	20021280 	call	2002128 <__unpack_d>
 200faf8:	d9000a04 	addi	r4,sp,40
 200fafc:	d80b883a 	mov	r5,sp
 200fb00:	20021280 	call	2002128 <__unpack_d>
 200fb04:	d8c00517 	ldw	r3,20(sp)
 200fb08:	00800044 	movi	r2,1
 200fb0c:	10c0052e 	bgeu	r2,r3,200fb24 <__nedf2+0x50>
 200fb10:	d8c00017 	ldw	r3,0(sp)
 200fb14:	10c0032e 	bgeu	r2,r3,200fb24 <__nedf2+0x50>
 200fb18:	d9000504 	addi	r4,sp,20
 200fb1c:	d80b883a 	mov	r5,sp
 200fb20:	200ffdc0 	call	200ffdc <__fpcmp_parts_d>
 200fb24:	dfc00e17 	ldw	ra,56(sp)
 200fb28:	dec00f04 	addi	sp,sp,60
 200fb2c:	f800283a 	ret

0200fb30 <__gtdf2>:
 200fb30:	defff104 	addi	sp,sp,-60
 200fb34:	d9000c15 	stw	r4,48(sp)
 200fb38:	d9400d15 	stw	r5,52(sp)
 200fb3c:	d9000c04 	addi	r4,sp,48
 200fb40:	d9400504 	addi	r5,sp,20
 200fb44:	dfc00e15 	stw	ra,56(sp)
 200fb48:	d9800a15 	stw	r6,40(sp)
 200fb4c:	d9c00b15 	stw	r7,44(sp)
 200fb50:	20021280 	call	2002128 <__unpack_d>
 200fb54:	d9000a04 	addi	r4,sp,40
 200fb58:	d80b883a 	mov	r5,sp
 200fb5c:	20021280 	call	2002128 <__unpack_d>
 200fb60:	d8c00517 	ldw	r3,20(sp)
 200fb64:	00800044 	movi	r2,1
 200fb68:	10c0082e 	bgeu	r2,r3,200fb8c <__gtdf2+0x5c>
 200fb6c:	d8c00017 	ldw	r3,0(sp)
 200fb70:	10c0062e 	bgeu	r2,r3,200fb8c <__gtdf2+0x5c>
 200fb74:	d9000504 	addi	r4,sp,20
 200fb78:	d80b883a 	mov	r5,sp
 200fb7c:	200ffdc0 	call	200ffdc <__fpcmp_parts_d>
 200fb80:	dfc00e17 	ldw	ra,56(sp)
 200fb84:	dec00f04 	addi	sp,sp,60
 200fb88:	f800283a 	ret
 200fb8c:	00bfffc4 	movi	r2,-1
 200fb90:	003ffb06 	br	200fb80 <__alt_mem_epcs_flash_controller+0xfe006b80>

0200fb94 <__gedf2>:
 200fb94:	defff104 	addi	sp,sp,-60
 200fb98:	d9000c15 	stw	r4,48(sp)
 200fb9c:	d9400d15 	stw	r5,52(sp)
 200fba0:	d9000c04 	addi	r4,sp,48
 200fba4:	d9400504 	addi	r5,sp,20
 200fba8:	dfc00e15 	stw	ra,56(sp)
 200fbac:	d9800a15 	stw	r6,40(sp)
 200fbb0:	d9c00b15 	stw	r7,44(sp)
 200fbb4:	20021280 	call	2002128 <__unpack_d>
 200fbb8:	d9000a04 	addi	r4,sp,40
 200fbbc:	d80b883a 	mov	r5,sp
 200fbc0:	20021280 	call	2002128 <__unpack_d>
 200fbc4:	d8c00517 	ldw	r3,20(sp)
 200fbc8:	00800044 	movi	r2,1
 200fbcc:	10c0082e 	bgeu	r2,r3,200fbf0 <__gedf2+0x5c>
 200fbd0:	d8c00017 	ldw	r3,0(sp)
 200fbd4:	10c0062e 	bgeu	r2,r3,200fbf0 <__gedf2+0x5c>
 200fbd8:	d9000504 	addi	r4,sp,20
 200fbdc:	d80b883a 	mov	r5,sp
 200fbe0:	200ffdc0 	call	200ffdc <__fpcmp_parts_d>
 200fbe4:	dfc00e17 	ldw	ra,56(sp)
 200fbe8:	dec00f04 	addi	sp,sp,60
 200fbec:	f800283a 	ret
 200fbf0:	00bfffc4 	movi	r2,-1
 200fbf4:	003ffb06 	br	200fbe4 <__alt_mem_epcs_flash_controller+0xfe006be4>

0200fbf8 <__ltdf2>:
 200fbf8:	defff104 	addi	sp,sp,-60
 200fbfc:	d9000c15 	stw	r4,48(sp)
 200fc00:	d9400d15 	stw	r5,52(sp)
 200fc04:	d9000c04 	addi	r4,sp,48
 200fc08:	d9400504 	addi	r5,sp,20
 200fc0c:	dfc00e15 	stw	ra,56(sp)
 200fc10:	d9800a15 	stw	r6,40(sp)
 200fc14:	d9c00b15 	stw	r7,44(sp)
 200fc18:	20021280 	call	2002128 <__unpack_d>
 200fc1c:	d9000a04 	addi	r4,sp,40
 200fc20:	d80b883a 	mov	r5,sp
 200fc24:	20021280 	call	2002128 <__unpack_d>
 200fc28:	d8c00517 	ldw	r3,20(sp)
 200fc2c:	00800044 	movi	r2,1
 200fc30:	10c0052e 	bgeu	r2,r3,200fc48 <__ltdf2+0x50>
 200fc34:	d8c00017 	ldw	r3,0(sp)
 200fc38:	10c0032e 	bgeu	r2,r3,200fc48 <__ltdf2+0x50>
 200fc3c:	d9000504 	addi	r4,sp,20
 200fc40:	d80b883a 	mov	r5,sp
 200fc44:	200ffdc0 	call	200ffdc <__fpcmp_parts_d>
 200fc48:	dfc00e17 	ldw	ra,56(sp)
 200fc4c:	dec00f04 	addi	sp,sp,60
 200fc50:	f800283a 	ret

0200fc54 <__ledf2>:
 200fc54:	defff104 	addi	sp,sp,-60
 200fc58:	d9000c15 	stw	r4,48(sp)
 200fc5c:	d9400d15 	stw	r5,52(sp)
 200fc60:	d9000c04 	addi	r4,sp,48
 200fc64:	d9400504 	addi	r5,sp,20
 200fc68:	dfc00e15 	stw	ra,56(sp)
 200fc6c:	d9800a15 	stw	r6,40(sp)
 200fc70:	d9c00b15 	stw	r7,44(sp)
 200fc74:	20021280 	call	2002128 <__unpack_d>
 200fc78:	d9000a04 	addi	r4,sp,40
 200fc7c:	d80b883a 	mov	r5,sp
 200fc80:	20021280 	call	2002128 <__unpack_d>
 200fc84:	d8c00517 	ldw	r3,20(sp)
 200fc88:	00800044 	movi	r2,1
 200fc8c:	10c0052e 	bgeu	r2,r3,200fca4 <__ledf2+0x50>
 200fc90:	d8c00017 	ldw	r3,0(sp)
 200fc94:	10c0032e 	bgeu	r2,r3,200fca4 <__ledf2+0x50>
 200fc98:	d9000504 	addi	r4,sp,20
 200fc9c:	d80b883a 	mov	r5,sp
 200fca0:	200ffdc0 	call	200ffdc <__fpcmp_parts_d>
 200fca4:	dfc00e17 	ldw	ra,56(sp)
 200fca8:	dec00f04 	addi	sp,sp,60
 200fcac:	f800283a 	ret

0200fcb0 <__truncdfsf2>:
 200fcb0:	defff804 	addi	sp,sp,-32
 200fcb4:	d9000515 	stw	r4,20(sp)
 200fcb8:	d9400615 	stw	r5,24(sp)
 200fcbc:	d9000504 	addi	r4,sp,20
 200fcc0:	d80b883a 	mov	r5,sp
 200fcc4:	dfc00715 	stw	ra,28(sp)
 200fcc8:	20021280 	call	2002128 <__unpack_d>
 200fccc:	d8800317 	ldw	r2,12(sp)
 200fcd0:	d8c00417 	ldw	r3,16(sp)
 200fcd4:	01100034 	movhi	r4,16384
 200fcd8:	213fffc4 	addi	r4,r4,-1
 200fcdc:	100ed7ba 	srli	r7,r2,30
 200fce0:	180690ba 	slli	r3,r3,2
 200fce4:	1104703a 	and	r2,r2,r4
 200fce8:	19ceb03a 	or	r7,r3,r7
 200fcec:	10000126 	beq	r2,zero,200fcf4 <__truncdfsf2+0x44>
 200fcf0:	39c00054 	ori	r7,r7,1
 200fcf4:	d9000017 	ldw	r4,0(sp)
 200fcf8:	d9400117 	ldw	r5,4(sp)
 200fcfc:	d9800217 	ldw	r6,8(sp)
 200fd00:	200ffb00 	call	200ffb0 <__make_fp>
 200fd04:	dfc00717 	ldw	ra,28(sp)
 200fd08:	dec00804 	addi	sp,sp,32
 200fd0c:	f800283a 	ret

0200fd10 <__floatunsidf>:
 200fd10:	defff904 	addi	sp,sp,-28
 200fd14:	dc000515 	stw	r16,20(sp)
 200fd18:	dfc00615 	stw	ra,24(sp)
 200fd1c:	d8000115 	stw	zero,4(sp)
 200fd20:	2021883a 	mov	r16,r4
 200fd24:	20001726 	beq	r4,zero,200fd84 <__floatunsidf+0x74>
 200fd28:	008000c4 	movi	r2,3
 200fd2c:	d8800015 	stw	r2,0(sp)
 200fd30:	00800f04 	movi	r2,60
 200fd34:	d8800215 	stw	r2,8(sp)
 200fd38:	2001e580 	call	2001e58 <__clzsi2>
 200fd3c:	10c00744 	addi	r3,r2,29
 200fd40:	18001816 	blt	r3,zero,200fda4 <__floatunsidf+0x94>
 200fd44:	18002d26 	beq	r3,zero,200fdfc <__floatunsidf+0xec>
 200fd48:	113fff44 	addi	r4,r2,-3
 200fd4c:	20002e16 	blt	r4,zero,200fe08 <__floatunsidf+0xf8>
 200fd50:	8108983a 	sll	r4,r16,r4
 200fd54:	0021883a 	mov	r16,zero
 200fd58:	014007c4 	movi	r5,31
 200fd5c:	2885c83a 	sub	r2,r5,r2
 200fd60:	dc000315 	stw	r16,12(sp)
 200fd64:	d9000415 	stw	r4,16(sp)
 200fd68:	d8800215 	stw	r2,8(sp)
 200fd6c:	d809883a 	mov	r4,sp
 200fd70:	2001f040 	call	2001f04 <__pack_d>
 200fd74:	dfc00617 	ldw	ra,24(sp)
 200fd78:	dc000517 	ldw	r16,20(sp)
 200fd7c:	dec00704 	addi	sp,sp,28
 200fd80:	f800283a 	ret
 200fd84:	00800084 	movi	r2,2
 200fd88:	d809883a 	mov	r4,sp
 200fd8c:	d8800015 	stw	r2,0(sp)
 200fd90:	2001f040 	call	2001f04 <__pack_d>
 200fd94:	dfc00617 	ldw	ra,24(sp)
 200fd98:	dc000517 	ldw	r16,20(sp)
 200fd9c:	dec00704 	addi	sp,sp,28
 200fda0:	f800283a 	ret
 200fda4:	00c7c83a 	sub	r3,zero,r3
 200fda8:	193ff804 	addi	r4,r3,-32
 200fdac:	20001c16 	blt	r4,zero,200fe20 <__floatunsidf+0x110>
 200fdb0:	000b883a 	mov	r5,zero
 200fdb4:	2009d7fa 	srai	r4,r4,31
 200fdb8:	80c6d83a 	srl	r3,r16,r3
 200fdbc:	297fffc4 	addi	r5,r5,-1
 200fdc0:	2c20703a 	and	r16,r5,r16
 200fdc4:	8020c03a 	cmpne	r16,r16,zero
 200fdc8:	1906703a 	and	r3,r3,r4
 200fdcc:	010007c4 	movi	r4,31
 200fdd0:	80c6b03a 	or	r3,r16,r3
 200fdd4:	2085c83a 	sub	r2,r4,r2
 200fdd8:	d809883a 	mov	r4,sp
 200fddc:	d8c00315 	stw	r3,12(sp)
 200fde0:	d8000415 	stw	zero,16(sp)
 200fde4:	d8800215 	stw	r2,8(sp)
 200fde8:	2001f040 	call	2001f04 <__pack_d>
 200fdec:	dfc00617 	ldw	ra,24(sp)
 200fdf0:	dc000517 	ldw	r16,20(sp)
 200fdf4:	dec00704 	addi	sp,sp,28
 200fdf8:	f800283a 	ret
 200fdfc:	dc000315 	stw	r16,12(sp)
 200fe00:	d8000415 	stw	zero,16(sp)
 200fe04:	003fd906 	br	200fd6c <__alt_mem_epcs_flash_controller+0xfe006d6c>
 200fe08:	800ad07a 	srli	r5,r16,1
 200fe0c:	010007c4 	movi	r4,31
 200fe10:	20c9c83a 	sub	r4,r4,r3
 200fe14:	2908d83a 	srl	r4,r5,r4
 200fe18:	80e0983a 	sll	r16,r16,r3
 200fe1c:	003fce06 	br	200fd58 <__alt_mem_epcs_flash_controller+0xfe006d58>
 200fe20:	01400044 	movi	r5,1
 200fe24:	28ca983a 	sll	r5,r5,r3
 200fe28:	003fe206 	br	200fdb4 <__alt_mem_epcs_flash_controller+0xfe006db4>

0200fe2c <__unpack_f>:
 200fe2c:	20c00017 	ldw	r3,0(r4)
 200fe30:	00802034 	movhi	r2,128
 200fe34:	10bfffc4 	addi	r2,r2,-1
 200fe38:	1808d5fa 	srli	r4,r3,23
 200fe3c:	180cd7fa 	srli	r6,r3,31
 200fe40:	1884703a 	and	r2,r3,r2
 200fe44:	21003fcc 	andi	r4,r4,255
 200fe48:	29800115 	stw	r6,4(r5)
 200fe4c:	2000111e 	bne	r4,zero,200fe94 <__unpack_f+0x68>
 200fe50:	10001a26 	beq	r2,zero,200febc <__unpack_f+0x90>
 200fe54:	00ffe084 	movi	r3,-126
 200fe58:	100491fa 	slli	r2,r2,7
 200fe5c:	28c00215 	stw	r3,8(r5)
 200fe60:	00c000c4 	movi	r3,3
 200fe64:	28c00015 	stw	r3,0(r5)
 200fe68:	01900034 	movhi	r6,16384
 200fe6c:	31bfffc4 	addi	r6,r6,-1
 200fe70:	30801036 	bltu	r6,r2,200feb4 <__unpack_f+0x88>
 200fe74:	00ffe044 	movi	r3,-127
 200fe78:	1085883a 	add	r2,r2,r2
 200fe7c:	1809883a 	mov	r4,r3
 200fe80:	18ffffc4 	addi	r3,r3,-1
 200fe84:	30bffc2e 	bgeu	r6,r2,200fe78 <__alt_mem_epcs_flash_controller+0xfe006e78>
 200fe88:	29000215 	stw	r4,8(r5)
 200fe8c:	28800315 	stw	r2,12(r5)
 200fe90:	f800283a 	ret
 200fe94:	01803fc4 	movi	r6,255
 200fe98:	21800b26 	beq	r4,r6,200fec8 <__unpack_f+0x9c>
 200fe9c:	100491fa 	slli	r2,r2,7
 200fea0:	213fe044 	addi	r4,r4,-127
 200fea4:	00c000c4 	movi	r3,3
 200fea8:	10900034 	orhi	r2,r2,16384
 200feac:	29000215 	stw	r4,8(r5)
 200feb0:	28c00015 	stw	r3,0(r5)
 200feb4:	28800315 	stw	r2,12(r5)
 200feb8:	f800283a 	ret
 200febc:	00800084 	movi	r2,2
 200fec0:	28800015 	stw	r2,0(r5)
 200fec4:	f800283a 	ret
 200fec8:	10000526 	beq	r2,zero,200fee0 <__unpack_f+0xb4>
 200fecc:	18c0042c 	andhi	r3,r3,16
 200fed0:	18000626 	beq	r3,zero,200feec <__unpack_f+0xc0>
 200fed4:	00c00044 	movi	r3,1
 200fed8:	28c00015 	stw	r3,0(r5)
 200fedc:	003ff506 	br	200feb4 <__alt_mem_epcs_flash_controller+0xfe006eb4>
 200fee0:	00800104 	movi	r2,4
 200fee4:	28800015 	stw	r2,0(r5)
 200fee8:	f800283a 	ret
 200feec:	28000015 	stw	zero,0(r5)
 200fef0:	003ff006 	br	200feb4 <__alt_mem_epcs_flash_controller+0xfe006eb4>

0200fef4 <__fpcmp_parts_f>:
 200fef4:	20c00017 	ldw	r3,0(r4)
 200fef8:	00800044 	movi	r2,1
 200fefc:	10c0172e 	bgeu	r2,r3,200ff5c <__fpcmp_parts_f+0x68>
 200ff00:	29800017 	ldw	r6,0(r5)
 200ff04:	1180152e 	bgeu	r2,r6,200ff5c <__fpcmp_parts_f+0x68>
 200ff08:	01c00104 	movi	r7,4
 200ff0c:	19c02326 	beq	r3,r7,200ff9c <__fpcmp_parts_f+0xa8>
 200ff10:	31c00926 	beq	r6,r7,200ff38 <__fpcmp_parts_f+0x44>
 200ff14:	01c00084 	movi	r7,2
 200ff18:	19c00626 	beq	r3,r7,200ff34 <__fpcmp_parts_f+0x40>
 200ff1c:	31c01126 	beq	r6,r7,200ff64 <__fpcmp_parts_f+0x70>
 200ff20:	20c00117 	ldw	r3,4(r4)
 200ff24:	29800117 	ldw	r6,4(r5)
 200ff28:	19801226 	beq	r3,r6,200ff74 <__fpcmp_parts_f+0x80>
 200ff2c:	1800041e 	bne	r3,zero,200ff40 <__fpcmp_parts_f+0x4c>
 200ff30:	f800283a 	ret
 200ff34:	30c01526 	beq	r6,r3,200ff8c <__fpcmp_parts_f+0x98>
 200ff38:	28800117 	ldw	r2,4(r5)
 200ff3c:	1000071e 	bne	r2,zero,200ff5c <__fpcmp_parts_f+0x68>
 200ff40:	00bfffc4 	movi	r2,-1
 200ff44:	f800283a 	ret
 200ff48:	39801216 	blt	r7,r6,200ff94 <__fpcmp_parts_f+0xa0>
 200ff4c:	21000317 	ldw	r4,12(r4)
 200ff50:	28800317 	ldw	r2,12(r5)
 200ff54:	11000c2e 	bgeu	r2,r4,200ff88 <__fpcmp_parts_f+0x94>
 200ff58:	183ff91e 	bne	r3,zero,200ff40 <__alt_mem_epcs_flash_controller+0xfe006f40>
 200ff5c:	00800044 	movi	r2,1
 200ff60:	f800283a 	ret
 200ff64:	20800117 	ldw	r2,4(r4)
 200ff68:	103ff51e 	bne	r2,zero,200ff40 <__alt_mem_epcs_flash_controller+0xfe006f40>
 200ff6c:	00800044 	movi	r2,1
 200ff70:	f800283a 	ret
 200ff74:	21c00217 	ldw	r7,8(r4)
 200ff78:	29800217 	ldw	r6,8(r5)
 200ff7c:	31fff20e 	bge	r6,r7,200ff48 <__alt_mem_epcs_flash_controller+0xfe006f48>
 200ff80:	183fef1e 	bne	r3,zero,200ff40 <__alt_mem_epcs_flash_controller+0xfe006f40>
 200ff84:	f800283a 	ret
 200ff88:	20800236 	bltu	r4,r2,200ff94 <__fpcmp_parts_f+0xa0>
 200ff8c:	0005883a 	mov	r2,zero
 200ff90:	f800283a 	ret
 200ff94:	183fea26 	beq	r3,zero,200ff40 <__alt_mem_epcs_flash_controller+0xfe006f40>
 200ff98:	003ff006 	br	200ff5c <__alt_mem_epcs_flash_controller+0xfe006f5c>
 200ff9c:	30fff11e 	bne	r6,r3,200ff64 <__alt_mem_epcs_flash_controller+0xfe006f64>
 200ffa0:	28c00117 	ldw	r3,4(r5)
 200ffa4:	20800117 	ldw	r2,4(r4)
 200ffa8:	1885c83a 	sub	r2,r3,r2
 200ffac:	f800283a 	ret

0200ffb0 <__make_fp>:
 200ffb0:	defffb04 	addi	sp,sp,-20
 200ffb4:	d9000015 	stw	r4,0(sp)
 200ffb8:	d809883a 	mov	r4,sp
 200ffbc:	dfc00415 	stw	ra,16(sp)
 200ffc0:	d9400115 	stw	r5,4(sp)
 200ffc4:	d9800215 	stw	r6,8(sp)
 200ffc8:	d9c00315 	stw	r7,12(sp)
 200ffcc:	20100ac0 	call	20100ac <__pack_f>
 200ffd0:	dfc00417 	ldw	ra,16(sp)
 200ffd4:	dec00504 	addi	sp,sp,20
 200ffd8:	f800283a 	ret

0200ffdc <__fpcmp_parts_d>:
 200ffdc:	20c00017 	ldw	r3,0(r4)
 200ffe0:	00800044 	movi	r2,1
 200ffe4:	10c0142e 	bgeu	r2,r3,2010038 <__fpcmp_parts_d+0x5c>
 200ffe8:	29800017 	ldw	r6,0(r5)
 200ffec:	1180122e 	bgeu	r2,r6,2010038 <__fpcmp_parts_d+0x5c>
 200fff0:	01c00104 	movi	r7,4
 200fff4:	19c02826 	beq	r3,r7,2010098 <__fpcmp_parts_d+0xbc>
 200fff8:	31c00926 	beq	r6,r7,2010020 <__fpcmp_parts_d+0x44>
 200fffc:	01c00084 	movi	r7,2
 2010000:	19c00626 	beq	r3,r7,201001c <__fpcmp_parts_d+0x40>
 2010004:	31c00a26 	beq	r6,r7,2010030 <__fpcmp_parts_d+0x54>
 2010008:	20c00117 	ldw	r3,4(r4)
 201000c:	29800117 	ldw	r6,4(r5)
 2010010:	19800b26 	beq	r3,r6,2010040 <__fpcmp_parts_d+0x64>
 2010014:	1800041e 	bne	r3,zero,2010028 <__fpcmp_parts_d+0x4c>
 2010018:	f800283a 	ret
 201001c:	30c01a26 	beq	r6,r3,2010088 <__fpcmp_parts_d+0xac>
 2010020:	28800117 	ldw	r2,4(r5)
 2010024:	1000041e 	bne	r2,zero,2010038 <__fpcmp_parts_d+0x5c>
 2010028:	00bfffc4 	movi	r2,-1
 201002c:	f800283a 	ret
 2010030:	20800117 	ldw	r2,4(r4)
 2010034:	103ffc1e 	bne	r2,zero,2010028 <__alt_mem_epcs_flash_controller+0xfe007028>
 2010038:	00800044 	movi	r2,1
 201003c:	f800283a 	ret
 2010040:	21c00217 	ldw	r7,8(r4)
 2010044:	29800217 	ldw	r6,8(r5)
 2010048:	31c0020e 	bge	r6,r7,2010054 <__fpcmp_parts_d+0x78>
 201004c:	183ff61e 	bne	r3,zero,2010028 <__alt_mem_epcs_flash_controller+0xfe007028>
 2010050:	f800283a 	ret
 2010054:	39800a16 	blt	r7,r6,2010080 <__fpcmp_parts_d+0xa4>
 2010058:	20800417 	ldw	r2,16(r4)
 201005c:	29800417 	ldw	r6,16(r5)
 2010060:	21c00317 	ldw	r7,12(r4)
 2010064:	29000317 	ldw	r4,12(r5)
 2010068:	30800936 	bltu	r6,r2,2010090 <__fpcmp_parts_d+0xb4>
 201006c:	1180011e 	bne	r2,r6,2010074 <__fpcmp_parts_d+0x98>
 2010070:	21c00736 	bltu	r4,r7,2010090 <__fpcmp_parts_d+0xb4>
 2010074:	11800236 	bltu	r2,r6,2010080 <__fpcmp_parts_d+0xa4>
 2010078:	3080031e 	bne	r6,r2,2010088 <__fpcmp_parts_d+0xac>
 201007c:	3900022e 	bgeu	r7,r4,2010088 <__fpcmp_parts_d+0xac>
 2010080:	183fe926 	beq	r3,zero,2010028 <__alt_mem_epcs_flash_controller+0xfe007028>
 2010084:	003fec06 	br	2010038 <__alt_mem_epcs_flash_controller+0xfe007038>
 2010088:	0005883a 	mov	r2,zero
 201008c:	f800283a 	ret
 2010090:	183fe926 	beq	r3,zero,2010038 <__alt_mem_epcs_flash_controller+0xfe007038>
 2010094:	003fe406 	br	2010028 <__alt_mem_epcs_flash_controller+0xfe007028>
 2010098:	30ffe51e 	bne	r6,r3,2010030 <__alt_mem_epcs_flash_controller+0xfe007030>
 201009c:	28c00117 	ldw	r3,4(r5)
 20100a0:	20800117 	ldw	r2,4(r4)
 20100a4:	1885c83a 	sub	r2,r3,r2
 20100a8:	f800283a 	ret

020100ac <__pack_f>:
 20100ac:	21400017 	ldw	r5,0(r4)
 20100b0:	01800044 	movi	r6,1
 20100b4:	20c00317 	ldw	r3,12(r4)
 20100b8:	21c00117 	ldw	r7,4(r4)
 20100bc:	3140282e 	bgeu	r6,r5,2010160 <__pack_f+0xb4>
 20100c0:	00800104 	movi	r2,4
 20100c4:	28802326 	beq	r5,r2,2010154 <__pack_f+0xa8>
 20100c8:	00800084 	movi	r2,2
 20100cc:	28800f26 	beq	r5,r2,201010c <__pack_f+0x60>
 20100d0:	18000e26 	beq	r3,zero,201010c <__pack_f+0x60>
 20100d4:	21000217 	ldw	r4,8(r4)
 20100d8:	00bfe084 	movi	r2,-126
 20100dc:	20802616 	blt	r4,r2,2010178 <__pack_f+0xcc>
 20100e0:	00801fc4 	movi	r2,127
 20100e4:	11001b16 	blt	r2,r4,2010154 <__pack_f+0xa8>
 20100e8:	188a703a 	and	r5,r3,r2
 20100ec:	00801004 	movi	r2,64
 20100f0:	28801126 	beq	r5,r2,2010138 <__pack_f+0x8c>
 20100f4:	18c00fc4 	addi	r3,r3,63
 20100f8:	18001316 	blt	r3,zero,2010148 <__pack_f+0x9c>
 20100fc:	21001fc4 	addi	r4,r4,127
 2010100:	180690ba 	slli	r3,r3,2
 2010104:	1806d27a 	srli	r3,r3,9
 2010108:	00000206 	br	2010114 <__pack_f+0x68>
 201010c:	0009883a 	mov	r4,zero
 2010110:	0007883a 	mov	r3,zero
 2010114:	21003fcc 	andi	r4,r4,255
 2010118:	200895fa 	slli	r4,r4,23
 201011c:	380a97fa 	slli	r5,r7,31
 2010120:	00802034 	movhi	r2,128
 2010124:	10bfffc4 	addi	r2,r2,-1
 2010128:	1886703a 	and	r3,r3,r2
 201012c:	1904b03a 	or	r2,r3,r4
 2010130:	1144b03a 	or	r2,r2,r5
 2010134:	f800283a 	ret
 2010138:	1880200c 	andi	r2,r3,128
 201013c:	103fee26 	beq	r2,zero,20100f8 <__alt_mem_epcs_flash_controller+0xfe0070f8>
 2010140:	18c01004 	addi	r3,r3,64
 2010144:	183fed0e 	bge	r3,zero,20100fc <__alt_mem_epcs_flash_controller+0xfe0070fc>
 2010148:	1806d07a 	srli	r3,r3,1
 201014c:	21002004 	addi	r4,r4,128
 2010150:	003feb06 	br	2010100 <__alt_mem_epcs_flash_controller+0xfe007100>
 2010154:	013fffc4 	movi	r4,-1
 2010158:	0007883a 	mov	r3,zero
 201015c:	003fed06 	br	2010114 <__alt_mem_epcs_flash_controller+0xfe007114>
 2010160:	18c00434 	orhi	r3,r3,16
 2010164:	00802034 	movhi	r2,128
 2010168:	10bfffc4 	addi	r2,r2,-1
 201016c:	1886703a 	and	r3,r3,r2
 2010170:	013fffc4 	movi	r4,-1
 2010174:	003fe706 	br	2010114 <__alt_mem_epcs_flash_controller+0xfe007114>
 2010178:	1105c83a 	sub	r2,r2,r4
 201017c:	01000644 	movi	r4,25
 2010180:	20801216 	blt	r4,r2,20101cc <__pack_f+0x120>
 2010184:	3088983a 	sll	r4,r6,r2
 2010188:	1884d83a 	srl	r2,r3,r2
 201018c:	213fffc4 	addi	r4,r4,-1
 2010190:	20c6703a 	and	r3,r4,r3
 2010194:	1806c03a 	cmpne	r3,r3,zero
 2010198:	1884b03a 	or	r2,r3,r2
 201019c:	11001fcc 	andi	r4,r2,127
 20101a0:	00c01004 	movi	r3,64
 20101a4:	20c00a1e 	bne	r4,r3,20101d0 <__pack_f+0x124>
 20101a8:	10c0200c 	andi	r3,r2,128
 20101ac:	18000126 	beq	r3,zero,20101b4 <__pack_f+0x108>
 20101b0:	10801004 	addi	r2,r2,64
 20101b4:	100690ba 	slli	r3,r2,2
 20101b8:	01100034 	movhi	r4,16384
 20101bc:	1105403a 	cmpgeu	r2,r2,r4
 20101c0:	1806d27a 	srli	r3,r3,9
 20101c4:	1009883a 	mov	r4,r2
 20101c8:	003fd206 	br	2010114 <__alt_mem_epcs_flash_controller+0xfe007114>
 20101cc:	0005883a 	mov	r2,zero
 20101d0:	10800fc4 	addi	r2,r2,63
 20101d4:	003ff706 	br	20101b4 <__alt_mem_epcs_flash_controller+0xfe0071b4>

020101d8 <alt_alarm_start>:
 */ 

int alt_alarm_start (alt_alarm* alarm, alt_u32 nticks,
                     alt_u32 (*callback) (void* context),
                     void* context)
{
 20101d8:	defff504 	addi	sp,sp,-44
 20101dc:	df000a15 	stw	fp,40(sp)
 20101e0:	df000a04 	addi	fp,sp,40
 20101e4:	e13ffc15 	stw	r4,-16(fp)
 20101e8:	e17ffd15 	stw	r5,-12(fp)
 20101ec:	e1bffe15 	stw	r6,-8(fp)
 20101f0:	e1ffff15 	stw	r7,-4(fp)
  alt_irq_context irq_context;
  alt_u32 current_nticks = 0;
 20101f4:	e03ff615 	stw	zero,-40(fp)
 * Obtain the system clock rate in ticks/s. 
 */

static ALT_INLINE alt_u32 ALT_ALWAYS_INLINE alt_ticks_per_second (void)
{
  return _alt_tick_rate;
 20101f8:	00808274 	movhi	r2,521
 20101fc:	10accf04 	addi	r2,r2,-19652
 2010200:	10800017 	ldw	r2,0(r2)
  
  if (alt_ticks_per_second ())
 2010204:	10003f26 	beq	r2,zero,2010304 <alt_alarm_start+0x12c>
  {
    if (alarm)
 2010208:	e0bffc17 	ldw	r2,-16(fp)
 201020c:	10003b26 	beq	r2,zero,20102fc <alt_alarm_start+0x124>
    {
      alarm->callback = callback;
 2010210:	e0bffc17 	ldw	r2,-16(fp)
 2010214:	e0fffe17 	ldw	r3,-8(fp)
 2010218:	10c00315 	stw	r3,12(r2)
      alarm->context  = context;
 201021c:	e0bffc17 	ldw	r2,-16(fp)
 2010220:	e0ffff17 	ldw	r3,-4(fp)
 2010224:	10c00515 	stw	r3,20(r2)
static ALT_INLINE alt_irq_context ALT_ALWAYS_INLINE 
       alt_irq_disable_all (void)
{
  alt_irq_context context;

  NIOS2_READ_STATUS (context);
 2010228:	0005303a 	rdctl	r2,status
 201022c:	e0bff815 	stw	r2,-32(fp)

  NIOS2_WRITE_STATUS (context & ~NIOS2_STATUS_PIE_MSK);
 2010230:	e0fff817 	ldw	r3,-32(fp)
 2010234:	00bfff84 	movi	r2,-2
 2010238:	1884703a 	and	r2,r3,r2
 201023c:	1001703a 	wrctl	status,r2
  
  return context;
 2010240:	e0bff817 	ldw	r2,-32(fp)
 
      irq_context = alt_irq_disable_all ();
 2010244:	e0bff715 	stw	r2,-36(fp)
 * alt_nticks() returns the elapsed number of system clock ticks since reset.
 */

static ALT_INLINE alt_u32 ALT_ALWAYS_INLINE alt_nticks (void)
{
  return _alt_nticks;
 2010248:	00808274 	movhi	r2,521
 201024c:	10acd004 	addi	r2,r2,-19648
 2010250:	10800017 	ldw	r2,0(r2)
      
      current_nticks = alt_nticks();
 2010254:	e0bff615 	stw	r2,-40(fp)
      
      alarm->time = nticks + current_nticks + 1; 
 2010258:	e0fffd17 	ldw	r3,-12(fp)
 201025c:	e0bff617 	ldw	r2,-40(fp)
 2010260:	1885883a 	add	r2,r3,r2
 2010264:	10c00044 	addi	r3,r2,1
 2010268:	e0bffc17 	ldw	r2,-16(fp)
 201026c:	10c00215 	stw	r3,8(r2)
      /* 
       * If the desired alarm time causes a roll-over, set the rollover
       * flag. This will prevent the subsequent tick event from causing
       * an alarm too early.
       */
      if(alarm->time < current_nticks)
 2010270:	e0bffc17 	ldw	r2,-16(fp)
 2010274:	10c00217 	ldw	r3,8(r2)
 2010278:	e0bff617 	ldw	r2,-40(fp)
 201027c:	1880042e 	bgeu	r3,r2,2010290 <alt_alarm_start+0xb8>
      {
        alarm->rollover = 1;
 2010280:	e0bffc17 	ldw	r2,-16(fp)
 2010284:	00c00044 	movi	r3,1
 2010288:	10c00405 	stb	r3,16(r2)
 201028c:	00000206 	br	2010298 <alt_alarm_start+0xc0>
      }
      else
      {
        alarm->rollover = 0;
 2010290:	e0bffc17 	ldw	r2,-16(fp)
 2010294:	10000405 	stb	zero,16(r2)
      }
    
      alt_llist_insert (&alt_alarm_list, &alarm->llist);
 2010298:	e0bffc17 	ldw	r2,-16(fp)
 201029c:	00c08274 	movhi	r3,521
 20102a0:	18e55c04 	addi	r3,r3,-27280
 20102a4:	e0fff915 	stw	r3,-28(fp)
 20102a8:	e0bffa15 	stw	r2,-24(fp)
 */

static ALT_INLINE void ALT_ALWAYS_INLINE alt_llist_insert(alt_llist* list, 
                alt_llist* entry)
{
  entry->previous = list;
 20102ac:	e0bffa17 	ldw	r2,-24(fp)
 20102b0:	e0fff917 	ldw	r3,-28(fp)
 20102b4:	10c00115 	stw	r3,4(r2)
  entry->next     = list->next;
 20102b8:	e0bff917 	ldw	r2,-28(fp)
 20102bc:	10c00017 	ldw	r3,0(r2)
 20102c0:	e0bffa17 	ldw	r2,-24(fp)
 20102c4:	10c00015 	stw	r3,0(r2)

  list->next->previous = entry;
 20102c8:	e0bff917 	ldw	r2,-28(fp)
 20102cc:	10800017 	ldw	r2,0(r2)
 20102d0:	e0fffa17 	ldw	r3,-24(fp)
 20102d4:	10c00115 	stw	r3,4(r2)
  list->next           = entry;
 20102d8:	e0bff917 	ldw	r2,-28(fp)
 20102dc:	e0fffa17 	ldw	r3,-24(fp)
 20102e0:	10c00015 	stw	r3,0(r2)
 20102e4:	e0bff717 	ldw	r2,-36(fp)
 20102e8:	e0bffb15 	stw	r2,-20(fp)
  status &= ~NIOS2_STATUS_PIE_MSK;
  status |= (context & NIOS2_STATUS_PIE_MSK);
  
  NIOS2_WRITE_STATUS (status);
#else
  NIOS2_WRITE_STATUS (context);
 20102ec:	e0bffb17 	ldw	r2,-20(fp)
 20102f0:	1001703a 	wrctl	status,r2
      alt_irq_enable_all (irq_context);

      return 0;
 20102f4:	0005883a 	mov	r2,zero
 20102f8:	00000306 	br	2010308 <alt_alarm_start+0x130>
    }
    else
    {
      return -EINVAL;
 20102fc:	00bffa84 	movi	r2,-22
 2010300:	00000106 	br	2010308 <alt_alarm_start+0x130>
    }
  }
  else
  {
    return -ENOTSUP;
 2010304:	00bfde84 	movi	r2,-134
  }
}
 2010308:	e037883a 	mov	sp,fp
 201030c:	df000017 	ldw	fp,0(sp)
 2010310:	dec00104 	addi	sp,sp,4
 2010314:	f800283a 	ret

02010318 <alt_get_errno>:
#undef errno

extern int errno;

static ALT_INLINE int* alt_get_errno(void)
{
 2010318:	defffe04 	addi	sp,sp,-8
 201031c:	dfc00115 	stw	ra,4(sp)
 2010320:	df000015 	stw	fp,0(sp)
 2010324:	d839883a 	mov	fp,sp
  return ((alt_errno) ? alt_errno() : &errno);
 2010328:	00808274 	movhi	r2,521
 201032c:	10a55a04 	addi	r2,r2,-27288
 2010330:	10800017 	ldw	r2,0(r2)
 2010334:	10000526 	beq	r2,zero,201034c <alt_get_errno+0x34>
 2010338:	00808274 	movhi	r2,521
 201033c:	10a55a04 	addi	r2,r2,-27288
 2010340:	10800017 	ldw	r2,0(r2)
 2010344:	103ee83a 	callr	r2
 2010348:	00000206 	br	2010354 <alt_get_errno+0x3c>
 201034c:	00808274 	movhi	r2,521
 2010350:	10acc804 	addi	r2,r2,-19680
}
 2010354:	e037883a 	mov	sp,fp
 2010358:	dfc00117 	ldw	ra,4(sp)
 201035c:	df000017 	ldw	fp,0(sp)
 2010360:	dec00204 	addi	sp,sp,8
 2010364:	f800283a 	ret

02010368 <close>:
 *
 * ALT_CLOSE is mapped onto the close() system call in alt_syscall.h
 */
 
int ALT_CLOSE (int fildes)
{
 2010368:	defffb04 	addi	sp,sp,-20
 201036c:	dfc00415 	stw	ra,16(sp)
 2010370:	df000315 	stw	fp,12(sp)
 2010374:	df000304 	addi	fp,sp,12
 2010378:	e13fff15 	stw	r4,-4(fp)
   * A common error case is that when the file descriptor was created, the call
   * to open() failed resulting in a negative file descriptor. This is trapped
   * below so that we don't try and process an invalid file descriptor.
   */

  fd = (fildes < 0) ? NULL : &alt_fd_list[fildes];
 201037c:	e0bfff17 	ldw	r2,-4(fp)
 2010380:	10000716 	blt	r2,zero,20103a0 <close+0x38>
 2010384:	e13fff17 	ldw	r4,-4(fp)
 2010388:	01400304 	movi	r5,12
 201038c:	2001d200 	call	2001d20 <__mulsi3>
 2010390:	00c08274 	movhi	r3,521
 2010394:	18e07404 	addi	r3,r3,-32304
 2010398:	10c5883a 	add	r2,r2,r3
 201039c:	00000106 	br	20103a4 <close+0x3c>
 20103a0:	0005883a 	mov	r2,zero
 20103a4:	e0bffd15 	stw	r2,-12(fp)

  if (fd)
 20103a8:	e0bffd17 	ldw	r2,-12(fp)
 20103ac:	10001826 	beq	r2,zero,2010410 <close+0xa8>
    /*
     * If the associated file system/device has a close function, call it so 
     * that any necessary cleanup code can run.
     */

    rval = (fd->dev->close) ? fd->dev->close(fd) : 0;
 20103b0:	e0bffd17 	ldw	r2,-12(fp)
 20103b4:	10800017 	ldw	r2,0(r2)
 20103b8:	10800417 	ldw	r2,16(r2)
 20103bc:	10000626 	beq	r2,zero,20103d8 <close+0x70>
 20103c0:	e0bffd17 	ldw	r2,-12(fp)
 20103c4:	10800017 	ldw	r2,0(r2)
 20103c8:	10800417 	ldw	r2,16(r2)
 20103cc:	e13ffd17 	ldw	r4,-12(fp)
 20103d0:	103ee83a 	callr	r2
 20103d4:	00000106 	br	20103dc <close+0x74>
 20103d8:	0005883a 	mov	r2,zero
 20103dc:	e0bffe15 	stw	r2,-8(fp)

    /* Free the file descriptor structure and return. */

    alt_release_fd (fildes);
 20103e0:	e13fff17 	ldw	r4,-4(fp)
 20103e4:	2010a600 	call	2010a60 <alt_release_fd>
    if (rval < 0)
 20103e8:	e0bffe17 	ldw	r2,-8(fp)
 20103ec:	1000060e 	bge	r2,zero,2010408 <close+0xa0>
    {
      ALT_ERRNO = -rval;
 20103f0:	20103180 	call	2010318 <alt_get_errno>
 20103f4:	e0fffe17 	ldw	r3,-8(fp)
 20103f8:	00c7c83a 	sub	r3,zero,r3
 20103fc:	10c00015 	stw	r3,0(r2)
      return -1;
 2010400:	00bfffc4 	movi	r2,-1
 2010404:	00000606 	br	2010420 <close+0xb8>
    }
    return 0;
 2010408:	0005883a 	mov	r2,zero
 201040c:	00000406 	br	2010420 <close+0xb8>
  }
  else
  {
    ALT_ERRNO = EBADFD;
 2010410:	20103180 	call	2010318 <alt_get_errno>
 2010414:	00c01444 	movi	r3,81
 2010418:	10c00015 	stw	r3,0(r2)
    return -1;
 201041c:	00bfffc4 	movi	r2,-1
  }
}
 2010420:	e037883a 	mov	sp,fp
 2010424:	dfc00117 	ldw	ra,4(sp)
 2010428:	df000017 	ldw	fp,0(sp)
 201042c:	dec00204 	addi	sp,sp,8
 2010430:	f800283a 	ret

02010434 <alt_dev_null_write>:
 * by the alt_dev_null device. It simple discards all data passed to it, and
 * indicates that the data has been successfully transmitted.
 */

static int alt_dev_null_write (alt_fd* fd, const char* ptr, int len)
{
 2010434:	defffc04 	addi	sp,sp,-16
 2010438:	df000315 	stw	fp,12(sp)
 201043c:	df000304 	addi	fp,sp,12
 2010440:	e13ffd15 	stw	r4,-12(fp)
 2010444:	e17ffe15 	stw	r5,-8(fp)
 2010448:	e1bfff15 	stw	r6,-4(fp)
  return len;
 201044c:	e0bfff17 	ldw	r2,-4(fp)
}
 2010450:	e037883a 	mov	sp,fp
 2010454:	df000017 	ldw	fp,0(sp)
 2010458:	dec00104 	addi	sp,sp,4
 201045c:	f800283a 	ret

02010460 <alt_get_errno>:
#undef errno

extern int errno;

static ALT_INLINE int* alt_get_errno(void)
{
 2010460:	defffe04 	addi	sp,sp,-8
 2010464:	dfc00115 	stw	ra,4(sp)
 2010468:	df000015 	stw	fp,0(sp)
 201046c:	d839883a 	mov	fp,sp
  return ((alt_errno) ? alt_errno() : &errno);
 2010470:	00808274 	movhi	r2,521
 2010474:	10a55a04 	addi	r2,r2,-27288
 2010478:	10800017 	ldw	r2,0(r2)
 201047c:	10000526 	beq	r2,zero,2010494 <alt_get_errno+0x34>
 2010480:	00808274 	movhi	r2,521
 2010484:	10a55a04 	addi	r2,r2,-27288
 2010488:	10800017 	ldw	r2,0(r2)
 201048c:	103ee83a 	callr	r2
 2010490:	00000206 	br	201049c <alt_get_errno+0x3c>
 2010494:	00808274 	movhi	r2,521
 2010498:	10acc804 	addi	r2,r2,-19680
}
 201049c:	e037883a 	mov	sp,fp
 20104a0:	dfc00117 	ldw	ra,4(sp)
 20104a4:	df000017 	ldw	fp,0(sp)
 20104a8:	dec00204 	addi	sp,sp,8
 20104ac:	f800283a 	ret

020104b0 <fstat>:
}

#else /* !ALT_USE_DIRECT_DRIVERS */

int ALT_FSTAT (int file, struct stat *st)
{
 20104b0:	defffb04 	addi	sp,sp,-20
 20104b4:	dfc00415 	stw	ra,16(sp)
 20104b8:	df000315 	stw	fp,12(sp)
 20104bc:	df000304 	addi	fp,sp,12
 20104c0:	e13ffe15 	stw	r4,-8(fp)
 20104c4:	e17fff15 	stw	r5,-4(fp)
   * A common error case is that when the file descriptor was created, the call
   * to open() failed resulting in a negative file descriptor. This is trapped
   * below so that we don't try and process an invalid file descriptor.
   */

  fd = (file < 0) ? NULL : &alt_fd_list[file];
 20104c8:	e0bffe17 	ldw	r2,-8(fp)
 20104cc:	10000716 	blt	r2,zero,20104ec <fstat+0x3c>
 20104d0:	e13ffe17 	ldw	r4,-8(fp)
 20104d4:	01400304 	movi	r5,12
 20104d8:	2001d200 	call	2001d20 <__mulsi3>
 20104dc:	00c08274 	movhi	r3,521
 20104e0:	18e07404 	addi	r3,r3,-32304
 20104e4:	10c5883a 	add	r2,r2,r3
 20104e8:	00000106 	br	20104f0 <fstat+0x40>
 20104ec:	0005883a 	mov	r2,zero
 20104f0:	e0bffd15 	stw	r2,-12(fp)
  
  if (fd)
 20104f4:	e0bffd17 	ldw	r2,-12(fp)
 20104f8:	10001026 	beq	r2,zero,201053c <fstat+0x8c>
  {
    /* Call the drivers fstat() function to fill out the "st" structure. */

    if (fd->dev->fstat)
 20104fc:	e0bffd17 	ldw	r2,-12(fp)
 2010500:	10800017 	ldw	r2,0(r2)
 2010504:	10800817 	ldw	r2,32(r2)
 2010508:	10000726 	beq	r2,zero,2010528 <fstat+0x78>
    {
      return fd->dev->fstat(fd, st);
 201050c:	e0bffd17 	ldw	r2,-12(fp)
 2010510:	10800017 	ldw	r2,0(r2)
 2010514:	10800817 	ldw	r2,32(r2)
 2010518:	e13ffd17 	ldw	r4,-12(fp)
 201051c:	e17fff17 	ldw	r5,-4(fp)
 2010520:	103ee83a 	callr	r2
 2010524:	00000906 	br	201054c <fstat+0x9c>
     * device.
     */
 
    else
    {
      st->st_mode = _IFCHR;
 2010528:	e0bfff17 	ldw	r2,-4(fp)
 201052c:	00c80004 	movi	r3,8192
 2010530:	10c00115 	stw	r3,4(r2)
      return 0;
 2010534:	0005883a 	mov	r2,zero
 2010538:	00000406 	br	201054c <fstat+0x9c>
    }
  }
  else
  {
    ALT_ERRNO = EBADFD;
 201053c:	20104600 	call	2010460 <alt_get_errno>
 2010540:	00c01444 	movi	r3,81
 2010544:	10c00015 	stw	r3,0(r2)
    return -1;
 2010548:	00bfffc4 	movi	r2,-1
  }
}
 201054c:	e037883a 	mov	sp,fp
 2010550:	dfc00117 	ldw	ra,4(sp)
 2010554:	df000017 	ldw	fp,0(sp)
 2010558:	dec00204 	addi	sp,sp,8
 201055c:	f800283a 	ret

02010560 <alt_get_errno>:
#undef errno

extern int errno;

static ALT_INLINE int* alt_get_errno(void)
{
 2010560:	defffe04 	addi	sp,sp,-8
 2010564:	dfc00115 	stw	ra,4(sp)
 2010568:	df000015 	stw	fp,0(sp)
 201056c:	d839883a 	mov	fp,sp
  return ((alt_errno) ? alt_errno() : &errno);
 2010570:	00808274 	movhi	r2,521
 2010574:	10a55a04 	addi	r2,r2,-27288
 2010578:	10800017 	ldw	r2,0(r2)
 201057c:	10000526 	beq	r2,zero,2010594 <alt_get_errno+0x34>
 2010580:	00808274 	movhi	r2,521
 2010584:	10a55a04 	addi	r2,r2,-27288
 2010588:	10800017 	ldw	r2,0(r2)
 201058c:	103ee83a 	callr	r2
 2010590:	00000206 	br	201059c <alt_get_errno+0x3c>
 2010594:	00808274 	movhi	r2,521
 2010598:	10acc804 	addi	r2,r2,-19680
}
 201059c:	e037883a 	mov	sp,fp
 20105a0:	dfc00117 	ldw	ra,4(sp)
 20105a4:	df000017 	ldw	fp,0(sp)
 20105a8:	dec00204 	addi	sp,sp,8
 20105ac:	f800283a 	ret

020105b0 <isatty>:
 *
 * ALT_ISATTY is mapped onto the isatty() system call in alt_syscall.h
 */
 
int ALT_ISATTY (int file)
{
 20105b0:	deffed04 	addi	sp,sp,-76
 20105b4:	dfc01215 	stw	ra,72(sp)
 20105b8:	df001115 	stw	fp,68(sp)
 20105bc:	df001104 	addi	fp,sp,68
 20105c0:	e13fff15 	stw	r4,-4(fp)
   * A common error case is that when the file descriptor was created, the call
   * to open() failed resulting in a negative file descriptor. This is trapped
   * below so that we don't try and process an invalid file descriptor.
   */

  fd = (file < 0) ? NULL : &alt_fd_list[file];
 20105c4:	e0bfff17 	ldw	r2,-4(fp)
 20105c8:	10000716 	blt	r2,zero,20105e8 <isatty+0x38>
 20105cc:	e13fff17 	ldw	r4,-4(fp)
 20105d0:	01400304 	movi	r5,12
 20105d4:	2001d200 	call	2001d20 <__mulsi3>
 20105d8:	00c08274 	movhi	r3,521
 20105dc:	18e07404 	addi	r3,r3,-32304
 20105e0:	10c5883a 	add	r2,r2,r3
 20105e4:	00000106 	br	20105ec <isatty+0x3c>
 20105e8:	0005883a 	mov	r2,zero
 20105ec:	e0bfef15 	stw	r2,-68(fp)
  
  if (fd)
 20105f0:	e0bfef17 	ldw	r2,-68(fp)
 20105f4:	10000e26 	beq	r2,zero,2010630 <isatty+0x80>
    /*
     * If a device driver does not provide an fstat() function, then it is 
     * treated as a terminal device by default.
     */

    if (!fd->dev->fstat)
 20105f8:	e0bfef17 	ldw	r2,-68(fp)
 20105fc:	10800017 	ldw	r2,0(r2)
 2010600:	10800817 	ldw	r2,32(r2)
 2010604:	1000021e 	bne	r2,zero,2010610 <isatty+0x60>
    {
      return 1;
 2010608:	00800044 	movi	r2,1
 201060c:	00000c06 	br	2010640 <isatty+0x90>
     * this is called so that the device can identify itself.
     */ 

    else
    {
      fstat (file, &stat);
 2010610:	e0bff004 	addi	r2,fp,-64
 2010614:	e13fff17 	ldw	r4,-4(fp)
 2010618:	100b883a 	mov	r5,r2
 201061c:	20104b00 	call	20104b0 <fstat>
      return (stat.st_mode == _IFCHR) ? 1 : 0;
 2010620:	e0bff117 	ldw	r2,-60(fp)
 2010624:	10880020 	cmpeqi	r2,r2,8192
 2010628:	10803fcc 	andi	r2,r2,255
 201062c:	00000406 	br	2010640 <isatty+0x90>
    }
  }
  else
  {
    ALT_ERRNO = EBADFD;
 2010630:	20105600 	call	2010560 <alt_get_errno>
 2010634:	00c01444 	movi	r3,81
 2010638:	10c00015 	stw	r3,0(r2)
    return 0;
 201063c:	0005883a 	mov	r2,zero
  }
}
 2010640:	e037883a 	mov	sp,fp
 2010644:	dfc00117 	ldw	ra,4(sp)
 2010648:	df000017 	ldw	fp,0(sp)
 201064c:	dec00204 	addi	sp,sp,8
 2010650:	f800283a 	ret

02010654 <alt_load_section>:
 */

static void ALT_INLINE alt_load_section (alt_u32* from, 
                                         alt_u32* to, 
                                         alt_u32* end)
{
 2010654:	defffc04 	addi	sp,sp,-16
 2010658:	df000315 	stw	fp,12(sp)
 201065c:	df000304 	addi	fp,sp,12
 2010660:	e13ffd15 	stw	r4,-12(fp)
 2010664:	e17ffe15 	stw	r5,-8(fp)
 2010668:	e1bfff15 	stw	r6,-4(fp)
  if (to != from)
 201066c:	e0fffe17 	ldw	r3,-8(fp)
 2010670:	e0bffd17 	ldw	r2,-12(fp)
 2010674:	18800e26 	beq	r3,r2,20106b0 <alt_load_section+0x5c>
  {
    while( to != end )
 2010678:	00000a06 	br	20106a4 <alt_load_section+0x50>
    {
      *to++ = *from++;
 201067c:	e0bffd17 	ldw	r2,-12(fp)
 2010680:	10c00017 	ldw	r3,0(r2)
 2010684:	e0bffe17 	ldw	r2,-8(fp)
 2010688:	10c00015 	stw	r3,0(r2)
 201068c:	e0bffe17 	ldw	r2,-8(fp)
 2010690:	10800104 	addi	r2,r2,4
 2010694:	e0bffe15 	stw	r2,-8(fp)
 2010698:	e0bffd17 	ldw	r2,-12(fp)
 201069c:	10800104 	addi	r2,r2,4
 20106a0:	e0bffd15 	stw	r2,-12(fp)
                                         alt_u32* to, 
                                         alt_u32* end)
{
  if (to != from)
  {
    while( to != end )
 20106a4:	e0fffe17 	ldw	r3,-8(fp)
 20106a8:	e0bfff17 	ldw	r2,-4(fp)
 20106ac:	18bff31e 	bne	r3,r2,201067c <__alt_mem_epcs_flash_controller+0xfe00767c>
    {
      *to++ = *from++;
    }
  }
}
 20106b0:	e037883a 	mov	sp,fp
 20106b4:	df000017 	ldw	fp,0(sp)
 20106b8:	dec00104 	addi	sp,sp,4
 20106bc:	f800283a 	ret

020106c0 <alt_load>:
 * there is no bootloader, so this application is responsible for loading to
 * RAM any sections that are required.
 */  

void alt_load (void)
{
 20106c0:	defffe04 	addi	sp,sp,-8
 20106c4:	dfc00115 	stw	ra,4(sp)
 20106c8:	df000015 	stw	fp,0(sp)
 20106cc:	d839883a 	mov	fp,sp
  /* 
   * Copy the .rwdata section. 
   */

  alt_load_section (&__flash_rwdata_start, 
 20106d0:	01008274 	movhi	r4,521
 20106d4:	21256104 	addi	r4,r4,-27260
 20106d8:	01408234 	movhi	r5,520
 20106dc:	295dfe04 	addi	r5,r5,30712
 20106e0:	01808274 	movhi	r6,521
 20106e4:	31a56104 	addi	r6,r6,-27260
 20106e8:	20106540 	call	2010654 <alt_load_section>

  /*
   * Copy the exception handler.
   */

  alt_load_section (&__flash_exceptions_start, 
 20106ec:	01008034 	movhi	r4,512
 20106f0:	21000804 	addi	r4,r4,32
 20106f4:	01408034 	movhi	r5,512
 20106f8:	29400804 	addi	r5,r5,32
 20106fc:	01808034 	movhi	r6,512
 2010700:	31806e04 	addi	r6,r6,440
 2010704:	20106540 	call	2010654 <alt_load_section>

  /*
   * Copy the .rodata section.
   */

  alt_load_section (&__flash_rodata_start, 
 2010708:	01008074 	movhi	r4,513
 201070c:	21114604 	addi	r4,r4,17688
 2010710:	01408074 	movhi	r5,513
 2010714:	29514604 	addi	r5,r5,17688
 2010718:	01808234 	movhi	r6,520
 201071c:	319dfe04 	addi	r6,r6,30712
 2010720:	20106540 	call	2010654 <alt_load_section>
  
  /*
   * Now ensure that the caches are in synch.
   */
  
  alt_dcache_flush_all();
 2010724:	20133540 	call	2013354 <alt_dcache_flush_all>
  alt_icache_flush_all();
 2010728:	20135d00 	call	20135d0 <alt_icache_flush_all>
}
 201072c:	e037883a 	mov	sp,fp
 2010730:	dfc00117 	ldw	ra,4(sp)
 2010734:	df000017 	ldw	fp,0(sp)
 2010738:	dec00204 	addi	sp,sp,8
 201073c:	f800283a 	ret

02010740 <alt_get_errno>:
#undef errno

extern int errno;

static ALT_INLINE int* alt_get_errno(void)
{
 2010740:	defffe04 	addi	sp,sp,-8
 2010744:	dfc00115 	stw	ra,4(sp)
 2010748:	df000015 	stw	fp,0(sp)
 201074c:	d839883a 	mov	fp,sp
  return ((alt_errno) ? alt_errno() : &errno);
 2010750:	00808274 	movhi	r2,521
 2010754:	10a55a04 	addi	r2,r2,-27288
 2010758:	10800017 	ldw	r2,0(r2)
 201075c:	10000526 	beq	r2,zero,2010774 <alt_get_errno+0x34>
 2010760:	00808274 	movhi	r2,521
 2010764:	10a55a04 	addi	r2,r2,-27288
 2010768:	10800017 	ldw	r2,0(r2)
 201076c:	103ee83a 	callr	r2
 2010770:	00000206 	br	201077c <alt_get_errno+0x3c>
 2010774:	00808274 	movhi	r2,521
 2010778:	10acc804 	addi	r2,r2,-19680
}
 201077c:	e037883a 	mov	sp,fp
 2010780:	dfc00117 	ldw	ra,4(sp)
 2010784:	df000017 	ldw	fp,0(sp)
 2010788:	dec00204 	addi	sp,sp,8
 201078c:	f800283a 	ret

02010790 <lseek>:
 * ALT_LSEEK is mapped onto the lseek() system call in alt_syscall.h
 *
 */

off_t ALT_LSEEK (int file, off_t ptr, int dir)
{
 2010790:	defff904 	addi	sp,sp,-28
 2010794:	dfc00615 	stw	ra,24(sp)
 2010798:	df000515 	stw	fp,20(sp)
 201079c:	df000504 	addi	fp,sp,20
 20107a0:	e13ffd15 	stw	r4,-12(fp)
 20107a4:	e17ffe15 	stw	r5,-8(fp)
 20107a8:	e1bfff15 	stw	r6,-4(fp)
  alt_fd* fd;
  off_t   rc = 0; 
 20107ac:	e03ffb15 	stw	zero,-20(fp)
   * A common error case is that when the file descriptor was created, the call
   * to open() failed resulting in a negative file descriptor. This is trapped
   * below so that we don't try and process an invalid file descriptor.
   */

  fd = (file < 0) ? NULL : &alt_fd_list[file];
 20107b0:	e0bffd17 	ldw	r2,-12(fp)
 20107b4:	10000716 	blt	r2,zero,20107d4 <lseek+0x44>
 20107b8:	e13ffd17 	ldw	r4,-12(fp)
 20107bc:	01400304 	movi	r5,12
 20107c0:	2001d200 	call	2001d20 <__mulsi3>
 20107c4:	00c08274 	movhi	r3,521
 20107c8:	18e07404 	addi	r3,r3,-32304
 20107cc:	10c5883a 	add	r2,r2,r3
 20107d0:	00000106 	br	20107d8 <lseek+0x48>
 20107d4:	0005883a 	mov	r2,zero
 20107d8:	e0bffc15 	stw	r2,-16(fp)
  
  if (fd) 
 20107dc:	e0bffc17 	ldw	r2,-16(fp)
 20107e0:	10001026 	beq	r2,zero,2010824 <lseek+0x94>
    /*
     * If the device driver provides an implementation of the lseek() function,
     * then call that to process the request.
     */
 
    if (fd->dev->lseek)
 20107e4:	e0bffc17 	ldw	r2,-16(fp)
 20107e8:	10800017 	ldw	r2,0(r2)
 20107ec:	10800717 	ldw	r2,28(r2)
 20107f0:	10000926 	beq	r2,zero,2010818 <lseek+0x88>
    {
      rc = fd->dev->lseek(fd, ptr, dir);
 20107f4:	e0bffc17 	ldw	r2,-16(fp)
 20107f8:	10800017 	ldw	r2,0(r2)
 20107fc:	10800717 	ldw	r2,28(r2)
 2010800:	e13ffc17 	ldw	r4,-16(fp)
 2010804:	e17ffe17 	ldw	r5,-8(fp)
 2010808:	e1bfff17 	ldw	r6,-4(fp)
 201080c:	103ee83a 	callr	r2
 2010810:	e0bffb15 	stw	r2,-20(fp)
 2010814:	00000506 	br	201082c <lseek+0x9c>
     * Otherwise return an error.
     */

    else
    {
      rc = -ENOTSUP;
 2010818:	00bfde84 	movi	r2,-134
 201081c:	e0bffb15 	stw	r2,-20(fp)
 2010820:	00000206 	br	201082c <lseek+0x9c>
    }
  }
  else  
  {
    rc = -EBADFD;
 2010824:	00bfebc4 	movi	r2,-81
 2010828:	e0bffb15 	stw	r2,-20(fp)
  }

  if (rc < 0)
 201082c:	e0bffb17 	ldw	r2,-20(fp)
 2010830:	1000060e 	bge	r2,zero,201084c <lseek+0xbc>
  {
    ALT_ERRNO = -rc;
 2010834:	20107400 	call	2010740 <alt_get_errno>
 2010838:	e0fffb17 	ldw	r3,-20(fp)
 201083c:	00c7c83a 	sub	r3,zero,r3
 2010840:	10c00015 	stw	r3,0(r2)
    rc = -1;
 2010844:	00bfffc4 	movi	r2,-1
 2010848:	e0bffb15 	stw	r2,-20(fp)
  }

  return rc;
 201084c:	e0bffb17 	ldw	r2,-20(fp)
}
 2010850:	e037883a 	mov	sp,fp
 2010854:	dfc00117 	ldw	ra,4(sp)
 2010858:	df000017 	ldw	fp,0(sp)
 201085c:	dec00204 	addi	sp,sp,8
 2010860:	f800283a 	ret

02010864 <alt_main>:
 * devices/filesystems/components in the system; and call the entry point for
 * the users application, i.e. main().
 */

void alt_main (void)
{
 2010864:	defffd04 	addi	sp,sp,-12
 2010868:	dfc00215 	stw	ra,8(sp)
 201086c:	df000115 	stw	fp,4(sp)
 2010870:	df000104 	addi	fp,sp,4
#endif

  /* ALT LOG - please see HAL/sys/alt_log_printf.h for details */
  ALT_LOG_PRINT_BOOT("[alt_main.c] Entering alt_main, calling alt_irq_init.\r\n");
  /* Initialize the interrupt controller. */
  alt_irq_init (NULL);
 2010874:	0009883a 	mov	r4,zero
 2010878:	2010ea40 	call	2010ea4 <alt_irq_init>

  /* Initialize the operating system */
  ALT_LOG_PRINT_BOOT("[alt_main.c] Done alt_irq_init, calling alt_os_init.\r\n");
  ALT_OS_INIT();
 201087c:	0001883a 	nop
  ALT_LOG_PRINT_BOOT("[alt_main.c] Done OS Init, calling alt_sem_create.\r\n");
  ALT_SEM_CREATE (&alt_fd_list_lock, 1);

  /* Initialize the device drivers/software components. */
  ALT_LOG_PRINT_BOOT("[alt_main.c] Calling alt_sys_init.\r\n");
  alt_sys_init();
 2010880:	2010ed80 	call	2010ed8 <alt_sys_init>
   * devices be present (not equal to /dev/null) and if direct drivers
   * aren't being used.
   */

    ALT_LOG_PRINT_BOOT("[alt_main.c] Redirecting IO.\r\n");
    alt_io_redirect(ALT_STDOUT, ALT_STDIN, ALT_STDERR);
 2010884:	01008234 	movhi	r4,520
 2010888:	211dec04 	addi	r4,r4,30640
 201088c:	01408234 	movhi	r5,520
 2010890:	295dec04 	addi	r5,r5,30640
 2010894:	01808234 	movhi	r6,520
 2010898:	319dec04 	addi	r6,r6,30640
 201089c:	20139940 	call	2013994 <alt_io_redirect>
  /* 
   * Call the C++ constructors 
   */

  ALT_LOG_PRINT_BOOT("[alt_main.c] Calling C++ constructors.\r\n");
  _do_ctors ();
 20108a0:	20134600 	call	2013460 <_do_ctors>
   * redefined as _exit()). This is in the interest of reducing code footprint,
   * in that the atexit() overhead is removed when it's not needed.
   */

  ALT_LOG_PRINT_BOOT("[alt_main.c] Calling atexit.\r\n");
  atexit (_do_dtors);
 20108a4:	01008074 	movhi	r4,513
 20108a8:	210d2f04 	addi	r4,r4,13500
 20108ac:	20141440 	call	2014144 <atexit>
  ALT_LOG_PRINT_BOOT("[alt_main.c] Calling main.\r\n");

#ifdef ALT_NO_EXIT
  main (alt_argc, alt_argv, alt_envp);
#else
  result = main (alt_argc, alt_argv, alt_envp);
 20108b0:	d1277d17 	ldw	r4,-25100(gp)
 20108b4:	d0e77e17 	ldw	r3,-25096(gp)
 20108b8:	d0a77f17 	ldw	r2,-25092(gp)
 20108bc:	180b883a 	mov	r5,r3
 20108c0:	100d883a 	mov	r6,r2
 20108c4:	200150c0 	call	200150c <main>
 20108c8:	e0bfff15 	stw	r2,-4(fp)
  close(STDOUT_FILENO);
 20108cc:	01000044 	movi	r4,1
 20108d0:	20103680 	call	2010368 <close>
  exit (result);
 20108d4:	e13fff17 	ldw	r4,-4(fp)
 20108d8:	20141580 	call	2014158 <exit>

020108dc <__malloc_lock>:
 * configuration is single threaded, so there is nothing to do here. Note that 
 * this requires that malloc is never called by an interrupt service routine.
 */

void __malloc_lock ( struct _reent *_r )
{
 20108dc:	defffe04 	addi	sp,sp,-8
 20108e0:	df000115 	stw	fp,4(sp)
 20108e4:	df000104 	addi	fp,sp,4
 20108e8:	e13fff15 	stw	r4,-4(fp)
}
 20108ec:	e037883a 	mov	sp,fp
 20108f0:	df000017 	ldw	fp,0(sp)
 20108f4:	dec00104 	addi	sp,sp,4
 20108f8:	f800283a 	ret

020108fc <__malloc_unlock>:
/*
 *
 */

void __malloc_unlock ( struct _reent *_r )
{
 20108fc:	defffe04 	addi	sp,sp,-8
 2010900:	df000115 	stw	fp,4(sp)
 2010904:	df000104 	addi	fp,sp,4
 2010908:	e13fff15 	stw	r4,-4(fp)
}
 201090c:	e037883a 	mov	sp,fp
 2010910:	df000017 	ldw	fp,0(sp)
 2010914:	dec00104 	addi	sp,sp,4
 2010918:	f800283a 	ret

0201091c <alt_get_errno>:
#undef errno

extern int errno;

static ALT_INLINE int* alt_get_errno(void)
{
 201091c:	defffe04 	addi	sp,sp,-8
 2010920:	dfc00115 	stw	ra,4(sp)
 2010924:	df000015 	stw	fp,0(sp)
 2010928:	d839883a 	mov	fp,sp
  return ((alt_errno) ? alt_errno() : &errno);
 201092c:	00808274 	movhi	r2,521
 2010930:	10a55a04 	addi	r2,r2,-27288
 2010934:	10800017 	ldw	r2,0(r2)
 2010938:	10000526 	beq	r2,zero,2010950 <alt_get_errno+0x34>
 201093c:	00808274 	movhi	r2,521
 2010940:	10a55a04 	addi	r2,r2,-27288
 2010944:	10800017 	ldw	r2,0(r2)
 2010948:	103ee83a 	callr	r2
 201094c:	00000206 	br	2010958 <alt_get_errno+0x3c>
 2010950:	00808274 	movhi	r2,521
 2010954:	10acc804 	addi	r2,r2,-19680
}
 2010958:	e037883a 	mov	sp,fp
 201095c:	dfc00117 	ldw	ra,4(sp)
 2010960:	df000017 	ldw	fp,0(sp)
 2010964:	dec00204 	addi	sp,sp,8
 2010968:	f800283a 	ret

0201096c <read>:
}

#else /* !ALT_USE_DIRECT_DRIVERS */

int ALT_READ (int file, void *ptr, size_t len)
{
 201096c:	defff904 	addi	sp,sp,-28
 2010970:	dfc00615 	stw	ra,24(sp)
 2010974:	df000515 	stw	fp,20(sp)
 2010978:	df000504 	addi	fp,sp,20
 201097c:	e13ffd15 	stw	r4,-12(fp)
 2010980:	e17ffe15 	stw	r5,-8(fp)
 2010984:	e1bfff15 	stw	r6,-4(fp)
   * A common error case is that when the file descriptor was created, the call
   * to open() failed resulting in a negative file descriptor. This is trapped
   * below so that we don't try and process an invalid file descriptor.
   */

  fd = (file < 0) ? NULL : &alt_fd_list[file];
 2010988:	e0bffd17 	ldw	r2,-12(fp)
 201098c:	10000716 	blt	r2,zero,20109ac <read+0x40>
 2010990:	e13ffd17 	ldw	r4,-12(fp)
 2010994:	01400304 	movi	r5,12
 2010998:	2001d200 	call	2001d20 <__mulsi3>
 201099c:	00c08274 	movhi	r3,521
 20109a0:	18e07404 	addi	r3,r3,-32304
 20109a4:	10c5883a 	add	r2,r2,r3
 20109a8:	00000106 	br	20109b0 <read+0x44>
 20109ac:	0005883a 	mov	r2,zero
 20109b0:	e0bffb15 	stw	r2,-20(fp)
  
  if (fd)
 20109b4:	e0bffb17 	ldw	r2,-20(fp)
 20109b8:	10002026 	beq	r2,zero,2010a3c <read+0xd0>
     * If the file has not been opened with read access, or if the driver does
     * not provide an implementation of read(), generate an error. Otherwise
     * call the drivers read() function to process the request.
     */

    if (((fd->fd_flags & O_ACCMODE) != O_WRONLY) && 
 20109bc:	e0bffb17 	ldw	r2,-20(fp)
 20109c0:	10800217 	ldw	r2,8(r2)
 20109c4:	108000cc 	andi	r2,r2,3
 20109c8:	10800060 	cmpeqi	r2,r2,1
 20109cc:	1000171e 	bne	r2,zero,2010a2c <read+0xc0>
        (fd->dev->read))
 20109d0:	e0bffb17 	ldw	r2,-20(fp)
 20109d4:	10800017 	ldw	r2,0(r2)
 20109d8:	10800517 	ldw	r2,20(r2)
     * If the file has not been opened with read access, or if the driver does
     * not provide an implementation of read(), generate an error. Otherwise
     * call the drivers read() function to process the request.
     */

    if (((fd->fd_flags & O_ACCMODE) != O_WRONLY) && 
 20109dc:	10001326 	beq	r2,zero,2010a2c <read+0xc0>
        (fd->dev->read))
      {
        if ((rval = fd->dev->read(fd, ptr, len)) < 0)
 20109e0:	e0bffb17 	ldw	r2,-20(fp)
 20109e4:	10800017 	ldw	r2,0(r2)
 20109e8:	10c00517 	ldw	r3,20(r2)
 20109ec:	e0bfff17 	ldw	r2,-4(fp)
 20109f0:	e13ffb17 	ldw	r4,-20(fp)
 20109f4:	e17ffe17 	ldw	r5,-8(fp)
 20109f8:	100d883a 	mov	r6,r2
 20109fc:	183ee83a 	callr	r3
 2010a00:	e0bffc15 	stw	r2,-16(fp)
 2010a04:	e0bffc17 	ldw	r2,-16(fp)
 2010a08:	1000060e 	bge	r2,zero,2010a24 <read+0xb8>
        {
          ALT_ERRNO = -rval;
 2010a0c:	201091c0 	call	201091c <alt_get_errno>
 2010a10:	e0fffc17 	ldw	r3,-16(fp)
 2010a14:	00c7c83a 	sub	r3,zero,r3
 2010a18:	10c00015 	stw	r3,0(r2)
          return -1;
 2010a1c:	00bfffc4 	movi	r2,-1
 2010a20:	00000a06 	br	2010a4c <read+0xe0>
        }
        return rval;
 2010a24:	e0bffc17 	ldw	r2,-16(fp)
 2010a28:	00000806 	br	2010a4c <read+0xe0>
      }
      else
      {
        ALT_ERRNO = EACCES;
 2010a2c:	201091c0 	call	201091c <alt_get_errno>
 2010a30:	00c00344 	movi	r3,13
 2010a34:	10c00015 	stw	r3,0(r2)
 2010a38:	00000306 	br	2010a48 <read+0xdc>
      }
    }
  else
  {
    ALT_ERRNO = EBADFD;
 2010a3c:	201091c0 	call	201091c <alt_get_errno>
 2010a40:	00c01444 	movi	r3,81
 2010a44:	10c00015 	stw	r3,0(r2)
  }
  return -1;
 2010a48:	00bfffc4 	movi	r2,-1
}
 2010a4c:	e037883a 	mov	sp,fp
 2010a50:	dfc00117 	ldw	ra,4(sp)
 2010a54:	df000017 	ldw	fp,0(sp)
 2010a58:	dec00204 	addi	sp,sp,8
 2010a5c:	f800283a 	ret

02010a60 <alt_release_fd>:
 * File descriptors correcponding to standard in, standard out and standard 
 * error cannont be released backed to the pool. They are always reserved.
 */

void alt_release_fd (int fd)
{
 2010a60:	defffc04 	addi	sp,sp,-16
 2010a64:	dfc00315 	stw	ra,12(sp)
 2010a68:	df000215 	stw	fp,8(sp)
 2010a6c:	dc000115 	stw	r16,4(sp)
 2010a70:	df000104 	addi	fp,sp,4
 2010a74:	e13fff15 	stw	r4,-4(fp)
  if (fd > 2)
 2010a78:	e0bfff17 	ldw	r2,-4(fp)
 2010a7c:	108000d0 	cmplti	r2,r2,3
 2010a80:	1000111e 	bne	r2,zero,2010ac8 <alt_release_fd+0x68>
  {
    alt_fd_list[fd].fd_flags = 0;
 2010a84:	04008274 	movhi	r16,521
 2010a88:	84207404 	addi	r16,r16,-32304
 2010a8c:	e0bfff17 	ldw	r2,-4(fp)
 2010a90:	1009883a 	mov	r4,r2
 2010a94:	01400304 	movi	r5,12
 2010a98:	2001d200 	call	2001d20 <__mulsi3>
 2010a9c:	8085883a 	add	r2,r16,r2
 2010aa0:	10800204 	addi	r2,r2,8
 2010aa4:	10000015 	stw	zero,0(r2)
    alt_fd_list[fd].dev      = 0;
 2010aa8:	04008274 	movhi	r16,521
 2010aac:	84207404 	addi	r16,r16,-32304
 2010ab0:	e0bfff17 	ldw	r2,-4(fp)
 2010ab4:	1009883a 	mov	r4,r2
 2010ab8:	01400304 	movi	r5,12
 2010abc:	2001d200 	call	2001d20 <__mulsi3>
 2010ac0:	8085883a 	add	r2,r16,r2
 2010ac4:	10000015 	stw	zero,0(r2)
  }
}
 2010ac8:	e037883a 	mov	sp,fp
 2010acc:	dfc00217 	ldw	ra,8(sp)
 2010ad0:	df000117 	ldw	fp,4(sp)
 2010ad4:	dc000017 	ldw	r16,0(sp)
 2010ad8:	dec00304 	addi	sp,sp,12
 2010adc:	f800283a 	ret

02010ae0 <sbrk>:
#endif
 
caddr_t ALT_SBRK (int incr) __attribute__ ((no_instrument_function ));

caddr_t ALT_SBRK (int incr)
{ 
 2010ae0:	defff904 	addi	sp,sp,-28
 2010ae4:	df000615 	stw	fp,24(sp)
 2010ae8:	df000604 	addi	fp,sp,24
 2010aec:	e13fff15 	stw	r4,-4(fp)
static ALT_INLINE alt_irq_context ALT_ALWAYS_INLINE 
       alt_irq_disable_all (void)
{
  alt_irq_context context;

  NIOS2_READ_STATUS (context);
 2010af0:	0005303a 	rdctl	r2,status
 2010af4:	e0bffc15 	stw	r2,-16(fp)

  NIOS2_WRITE_STATUS (context & ~NIOS2_STATUS_PIE_MSK);
 2010af8:	e0fffc17 	ldw	r3,-16(fp)
 2010afc:	00bfff84 	movi	r2,-2
 2010b00:	1884703a 	and	r2,r3,r2
 2010b04:	1001703a 	wrctl	status,r2
  
  return context;
 2010b08:	e0bffc17 	ldw	r2,-16(fp)
  alt_irq_context context;
  char *prev_heap_end; 

  context = alt_irq_disable_all();
 2010b0c:	e0bffa15 	stw	r2,-24(fp)

  /* Always return data aligned on a word boundary */
  heap_end = (char *)(((unsigned int)heap_end + 3) & ~3);
 2010b10:	d0a00c17 	ldw	r2,-32720(gp)
 2010b14:	10c000c4 	addi	r3,r2,3
 2010b18:	00bfff04 	movi	r2,-4
 2010b1c:	1884703a 	and	r2,r3,r2
 2010b20:	d0a00c15 	stw	r2,-32720(gp)
  if (((heap_end + incr) - __alt_heap_start) > ALT_MAX_HEAP_BYTES) {
    alt_irq_enable_all(context);
    return (caddr_t)-1;
  }
#else
  if ((heap_end + incr) > __alt_heap_limit) {
 2010b24:	d0e00c17 	ldw	r3,-32720(gp)
 2010b28:	e0bfff17 	ldw	r2,-4(fp)
 2010b2c:	1885883a 	add	r2,r3,r2
 2010b30:	00c10034 	movhi	r3,1024
 2010b34:	18c00004 	addi	r3,r3,0
 2010b38:	1880062e 	bgeu	r3,r2,2010b54 <sbrk+0x74>
 2010b3c:	e0bffa17 	ldw	r2,-24(fp)
 2010b40:	e0bffd15 	stw	r2,-12(fp)
  status &= ~NIOS2_STATUS_PIE_MSK;
  status |= (context & NIOS2_STATUS_PIE_MSK);
  
  NIOS2_WRITE_STATUS (status);
#else
  NIOS2_WRITE_STATUS (context);
 2010b44:	e0bffd17 	ldw	r2,-12(fp)
 2010b48:	1001703a 	wrctl	status,r2
    alt_irq_enable_all(context);
    return (caddr_t)-1;
 2010b4c:	00bfffc4 	movi	r2,-1
 2010b50:	00000b06 	br	2010b80 <sbrk+0xa0>
  }
#endif

  prev_heap_end = heap_end; 
 2010b54:	d0a00c17 	ldw	r2,-32720(gp)
 2010b58:	e0bffb15 	stw	r2,-20(fp)
  heap_end += incr; 
 2010b5c:	d0e00c17 	ldw	r3,-32720(gp)
 2010b60:	e0bfff17 	ldw	r2,-4(fp)
 2010b64:	1885883a 	add	r2,r3,r2
 2010b68:	d0a00c15 	stw	r2,-32720(gp)
 2010b6c:	e0bffa17 	ldw	r2,-24(fp)
 2010b70:	e0bffe15 	stw	r2,-8(fp)
 2010b74:	e0bffe17 	ldw	r2,-8(fp)
 2010b78:	1001703a 	wrctl	status,r2

#endif

  alt_irq_enable_all(context);

  return (caddr_t) prev_heap_end; 
 2010b7c:	e0bffb17 	ldw	r2,-20(fp)
} 
 2010b80:	e037883a 	mov	sp,fp
 2010b84:	df000017 	ldw	fp,0(sp)
 2010b88:	dec00104 	addi	sp,sp,4
 2010b8c:	f800283a 	ret

02010b90 <alt_alarm_stop>:
 * alarms. Alternatively an alarm can unregister itself by returning zero when 
 * the alarm executes.
 */

void alt_alarm_stop (alt_alarm* alarm)
{
 2010b90:	defffa04 	addi	sp,sp,-24
 2010b94:	df000515 	stw	fp,20(sp)
 2010b98:	df000504 	addi	fp,sp,20
 2010b9c:	e13fff15 	stw	r4,-4(fp)
static ALT_INLINE alt_irq_context ALT_ALWAYS_INLINE 
       alt_irq_disable_all (void)
{
  alt_irq_context context;

  NIOS2_READ_STATUS (context);
 2010ba0:	0005303a 	rdctl	r2,status
 2010ba4:	e0bffc15 	stw	r2,-16(fp)

  NIOS2_WRITE_STATUS (context & ~NIOS2_STATUS_PIE_MSK);
 2010ba8:	e0fffc17 	ldw	r3,-16(fp)
 2010bac:	00bfff84 	movi	r2,-2
 2010bb0:	1884703a 	and	r2,r3,r2
 2010bb4:	1001703a 	wrctl	status,r2
  
  return context;
 2010bb8:	e0bffc17 	ldw	r2,-16(fp)
  alt_irq_context irq_context;

  irq_context = alt_irq_disable_all();
 2010bbc:	e0bffb15 	stw	r2,-20(fp)
  alt_llist_remove (&alarm->llist);
 2010bc0:	e0bfff17 	ldw	r2,-4(fp)
 2010bc4:	e0bffd15 	stw	r2,-12(fp)
 * input argument is the element to remove.
 */
     
static ALT_INLINE void ALT_ALWAYS_INLINE alt_llist_remove(alt_llist* entry)
{
  entry->next->previous = entry->previous;
 2010bc8:	e0bffd17 	ldw	r2,-12(fp)
 2010bcc:	10800017 	ldw	r2,0(r2)
 2010bd0:	e0fffd17 	ldw	r3,-12(fp)
 2010bd4:	18c00117 	ldw	r3,4(r3)
 2010bd8:	10c00115 	stw	r3,4(r2)
  entry->previous->next = entry->next;
 2010bdc:	e0bffd17 	ldw	r2,-12(fp)
 2010be0:	10800117 	ldw	r2,4(r2)
 2010be4:	e0fffd17 	ldw	r3,-12(fp)
 2010be8:	18c00017 	ldw	r3,0(r3)
 2010bec:	10c00015 	stw	r3,0(r2)
  /* 
   * Set the entry to point to itself, so that any further calls to
   * alt_llist_remove() are harmless.
   */

  entry->previous = entry;
 2010bf0:	e0bffd17 	ldw	r2,-12(fp)
 2010bf4:	e0fffd17 	ldw	r3,-12(fp)
 2010bf8:	10c00115 	stw	r3,4(r2)
  entry->next     = entry;
 2010bfc:	e0bffd17 	ldw	r2,-12(fp)
 2010c00:	e0fffd17 	ldw	r3,-12(fp)
 2010c04:	10c00015 	stw	r3,0(r2)
 2010c08:	e0bffb17 	ldw	r2,-20(fp)
 2010c0c:	e0bffe15 	stw	r2,-8(fp)
  status &= ~NIOS2_STATUS_PIE_MSK;
  status |= (context & NIOS2_STATUS_PIE_MSK);
  
  NIOS2_WRITE_STATUS (status);
#else
  NIOS2_WRITE_STATUS (context);
 2010c10:	e0bffe17 	ldw	r2,-8(fp)
 2010c14:	1001703a 	wrctl	status,r2
  alt_irq_enable_all (irq_context);
}
 2010c18:	e037883a 	mov	sp,fp
 2010c1c:	df000017 	ldw	fp,0(sp)
 2010c20:	dec00104 	addi	sp,sp,4
 2010c24:	f800283a 	ret

02010c28 <alt_tick>:
 * 
 * alt_tick() is expected to run at interrupt level.
 */

void alt_tick (void)
{
 2010c28:	defffb04 	addi	sp,sp,-20
 2010c2c:	dfc00415 	stw	ra,16(sp)
 2010c30:	df000315 	stw	fp,12(sp)
 2010c34:	df000304 	addi	fp,sp,12
  alt_alarm* next;
  alt_alarm* alarm = (alt_alarm*) alt_alarm_list.next;
 2010c38:	d0a00d17 	ldw	r2,-32716(gp)
 2010c3c:	e0bffd15 	stw	r2,-12(fp)

  alt_u32    next_callback;

  /* update the tick counter */

  _alt_nticks++;
 2010c40:	d0a78117 	ldw	r2,-25084(gp)
 2010c44:	10800044 	addi	r2,r2,1
 2010c48:	d0a78115 	stw	r2,-25084(gp)

  /* process the registered callbacks */

  while (alarm != (alt_alarm*) &alt_alarm_list)
 2010c4c:	00002e06 	br	2010d08 <alt_tick+0xe0>
  {
    next = (alt_alarm*) alarm->llist.next;
 2010c50:	e0bffd17 	ldw	r2,-12(fp)
 2010c54:	10800017 	ldw	r2,0(r2)
 2010c58:	e0bffe15 	stw	r2,-8(fp)
    /* 
     * Upon the tick-counter rolling over it is safe to clear the 
     * roll-over flag; once the flag is cleared this (or subsequnt)
     * tick events are enabled to generate an alarm event. 
     */
    if ((alarm->rollover) && (_alt_nticks == 0))
 2010c5c:	e0bffd17 	ldw	r2,-12(fp)
 2010c60:	10800403 	ldbu	r2,16(r2)
 2010c64:	10803fcc 	andi	r2,r2,255
 2010c68:	10000426 	beq	r2,zero,2010c7c <alt_tick+0x54>
 2010c6c:	d0a78117 	ldw	r2,-25084(gp)
 2010c70:	1000021e 	bne	r2,zero,2010c7c <alt_tick+0x54>
    {
      alarm->rollover = 0;
 2010c74:	e0bffd17 	ldw	r2,-12(fp)
 2010c78:	10000405 	stb	zero,16(r2)
    }
    
    /* if the alarm period has expired, make the callback */    
    if ((alarm->time <= _alt_nticks) && (alarm->rollover == 0))
 2010c7c:	e0bffd17 	ldw	r2,-12(fp)
 2010c80:	10800217 	ldw	r2,8(r2)
 2010c84:	d0e78117 	ldw	r3,-25084(gp)
 2010c88:	18801d36 	bltu	r3,r2,2010d00 <alt_tick+0xd8>
 2010c8c:	e0bffd17 	ldw	r2,-12(fp)
 2010c90:	10800403 	ldbu	r2,16(r2)
 2010c94:	10803fcc 	andi	r2,r2,255
 2010c98:	1000191e 	bne	r2,zero,2010d00 <alt_tick+0xd8>
    {
      next_callback = alarm->callback (alarm->context);
 2010c9c:	e0bffd17 	ldw	r2,-12(fp)
 2010ca0:	10c00317 	ldw	r3,12(r2)
 2010ca4:	e0bffd17 	ldw	r2,-12(fp)
 2010ca8:	10800517 	ldw	r2,20(r2)
 2010cac:	1009883a 	mov	r4,r2
 2010cb0:	183ee83a 	callr	r3
 2010cb4:	e0bfff15 	stw	r2,-4(fp)

      /* deactivate the alarm if the return value is zero */

      if (next_callback == 0)
 2010cb8:	e0bfff17 	ldw	r2,-4(fp)
 2010cbc:	1000031e 	bne	r2,zero,2010ccc <alt_tick+0xa4>
      {
        alt_alarm_stop (alarm);
 2010cc0:	e13ffd17 	ldw	r4,-12(fp)
 2010cc4:	2010b900 	call	2010b90 <alt_alarm_stop>
 2010cc8:	00000d06 	br	2010d00 <alt_tick+0xd8>
      }
      else
      {
        alarm->time += next_callback;
 2010ccc:	e0bffd17 	ldw	r2,-12(fp)
 2010cd0:	10c00217 	ldw	r3,8(r2)
 2010cd4:	e0bfff17 	ldw	r2,-4(fp)
 2010cd8:	1887883a 	add	r3,r3,r2
 2010cdc:	e0bffd17 	ldw	r2,-12(fp)
 2010ce0:	10c00215 	stw	r3,8(r2)
        /* 
         * If the desired alarm time causes a roll-over, set the rollover
         * flag. This will prevent the subsequent tick event from causing
         * an alarm too early.
         */
        if(alarm->time < _alt_nticks)
 2010ce4:	e0bffd17 	ldw	r2,-12(fp)
 2010ce8:	10c00217 	ldw	r3,8(r2)
 2010cec:	d0a78117 	ldw	r2,-25084(gp)
 2010cf0:	1880032e 	bgeu	r3,r2,2010d00 <alt_tick+0xd8>
        {
          alarm->rollover = 1;
 2010cf4:	e0bffd17 	ldw	r2,-12(fp)
 2010cf8:	00c00044 	movi	r3,1
 2010cfc:	10c00405 	stb	r3,16(r2)
        }
      }
    }
    alarm = next;
 2010d00:	e0bffe17 	ldw	r2,-8(fp)
 2010d04:	e0bffd15 	stw	r2,-12(fp)

  _alt_nticks++;

  /* process the registered callbacks */

  while (alarm != (alt_alarm*) &alt_alarm_list)
 2010d08:	e0fffd17 	ldw	r3,-12(fp)
 2010d0c:	d0a00d04 	addi	r2,gp,-32716
 2010d10:	18bfcf1e 	bne	r3,r2,2010c50 <__alt_mem_epcs_flash_controller+0xfe007c50>

  /* 
   * Update the operating system specific timer facilities.
   */

  ALT_OS_TIME_TICK();
 2010d14:	0001883a 	nop
}
 2010d18:	e037883a 	mov	sp,fp
 2010d1c:	dfc00117 	ldw	ra,4(sp)
 2010d20:	df000017 	ldw	fp,0(sp)
 2010d24:	dec00204 	addi	sp,sp,8
 2010d28:	f800283a 	ret

02010d2c <alt_get_errno>:
#undef errno

extern int errno;

static ALT_INLINE int* alt_get_errno(void)
{
 2010d2c:	defffe04 	addi	sp,sp,-8
 2010d30:	dfc00115 	stw	ra,4(sp)
 2010d34:	df000015 	stw	fp,0(sp)
 2010d38:	d839883a 	mov	fp,sp
  return ((alt_errno) ? alt_errno() : &errno);
 2010d3c:	00808274 	movhi	r2,521
 2010d40:	10a55a04 	addi	r2,r2,-27288
 2010d44:	10800017 	ldw	r2,0(r2)
 2010d48:	10000526 	beq	r2,zero,2010d60 <alt_get_errno+0x34>
 2010d4c:	00808274 	movhi	r2,521
 2010d50:	10a55a04 	addi	r2,r2,-27288
 2010d54:	10800017 	ldw	r2,0(r2)
 2010d58:	103ee83a 	callr	r2
 2010d5c:	00000206 	br	2010d68 <alt_get_errno+0x3c>
 2010d60:	00808274 	movhi	r2,521
 2010d64:	10acc804 	addi	r2,r2,-19680
}
 2010d68:	e037883a 	mov	sp,fp
 2010d6c:	dfc00117 	ldw	ra,4(sp)
 2010d70:	df000017 	ldw	fp,0(sp)
 2010d74:	dec00204 	addi	sp,sp,8
 2010d78:	f800283a 	ret

02010d7c <write>:
}

#else /* !ALT_USE_DIRECT_DRIVERS */

int ALT_WRITE (int file, const void *ptr, size_t len)
{
 2010d7c:	defff904 	addi	sp,sp,-28
 2010d80:	dfc00615 	stw	ra,24(sp)
 2010d84:	df000515 	stw	fp,20(sp)
 2010d88:	df000504 	addi	fp,sp,20
 2010d8c:	e13ffd15 	stw	r4,-12(fp)
 2010d90:	e17ffe15 	stw	r5,-8(fp)
 2010d94:	e1bfff15 	stw	r6,-4(fp)
   * A common error case is that when the file descriptor was created, the call
   * to open() failed resulting in a negative file descriptor. This is trapped
   * below so that we don't try and process an invalid file descriptor.
   */

  fd = (file < 0) ? NULL : &alt_fd_list[file];
 2010d98:	e0bffd17 	ldw	r2,-12(fp)
 2010d9c:	10000716 	blt	r2,zero,2010dbc <write+0x40>
 2010da0:	e13ffd17 	ldw	r4,-12(fp)
 2010da4:	01400304 	movi	r5,12
 2010da8:	2001d200 	call	2001d20 <__mulsi3>
 2010dac:	00c08274 	movhi	r3,521
 2010db0:	18e07404 	addi	r3,r3,-32304
 2010db4:	10c5883a 	add	r2,r2,r3
 2010db8:	00000106 	br	2010dc0 <write+0x44>
 2010dbc:	0005883a 	mov	r2,zero
 2010dc0:	e0bffb15 	stw	r2,-20(fp)
  
  if (fd)
 2010dc4:	e0bffb17 	ldw	r2,-20(fp)
 2010dc8:	10001f26 	beq	r2,zero,2010e48 <write+0xcc>
     * If the file has not been opened with write access, or if the driver does
     * not provide an implementation of write(), generate an error. Otherwise
     * call the drivers write() function to process the request.
     */

    if (((fd->fd_flags & O_ACCMODE) != O_RDONLY) && fd->dev->write)
 2010dcc:	e0bffb17 	ldw	r2,-20(fp)
 2010dd0:	10800217 	ldw	r2,8(r2)
 2010dd4:	108000cc 	andi	r2,r2,3
 2010dd8:	10001726 	beq	r2,zero,2010e38 <write+0xbc>
 2010ddc:	e0bffb17 	ldw	r2,-20(fp)
 2010de0:	10800017 	ldw	r2,0(r2)
 2010de4:	10800617 	ldw	r2,24(r2)
 2010de8:	10001326 	beq	r2,zero,2010e38 <write+0xbc>
    {
      
      /* ALT_LOG - see altera_hal/HAL/inc/sys/alt_log_printf.h */
      ALT_LOG_WRITE_FUNCTION(ptr,len);

      if ((rval = fd->dev->write(fd, ptr, len)) < 0)
 2010dec:	e0bffb17 	ldw	r2,-20(fp)
 2010df0:	10800017 	ldw	r2,0(r2)
 2010df4:	10c00617 	ldw	r3,24(r2)
 2010df8:	e0bfff17 	ldw	r2,-4(fp)
 2010dfc:	e13ffb17 	ldw	r4,-20(fp)
 2010e00:	e17ffe17 	ldw	r5,-8(fp)
 2010e04:	100d883a 	mov	r6,r2
 2010e08:	183ee83a 	callr	r3
 2010e0c:	e0bffc15 	stw	r2,-16(fp)
 2010e10:	e0bffc17 	ldw	r2,-16(fp)
 2010e14:	1000060e 	bge	r2,zero,2010e30 <write+0xb4>
      {
        ALT_ERRNO = -rval;
 2010e18:	2010d2c0 	call	2010d2c <alt_get_errno>
 2010e1c:	e0fffc17 	ldw	r3,-16(fp)
 2010e20:	00c7c83a 	sub	r3,zero,r3
 2010e24:	10c00015 	stw	r3,0(r2)
        return -1;
 2010e28:	00bfffc4 	movi	r2,-1
 2010e2c:	00000a06 	br	2010e58 <write+0xdc>
      }
      return rval;
 2010e30:	e0bffc17 	ldw	r2,-16(fp)
 2010e34:	00000806 	br	2010e58 <write+0xdc>
    }
    else
    {
      ALT_ERRNO = EACCES;
 2010e38:	2010d2c0 	call	2010d2c <alt_get_errno>
 2010e3c:	00c00344 	movi	r3,13
 2010e40:	10c00015 	stw	r3,0(r2)
 2010e44:	00000306 	br	2010e54 <write+0xd8>
    }
  }
  else  
  {
    ALT_ERRNO = EBADFD;
 2010e48:	2010d2c0 	call	2010d2c <alt_get_errno>
 2010e4c:	00c01444 	movi	r3,81
 2010e50:	10c00015 	stw	r3,0(r2)
  }
  return -1;
 2010e54:	00bfffc4 	movi	r2,-1
}
 2010e58:	e037883a 	mov	sp,fp
 2010e5c:	dfc00117 	ldw	ra,4(sp)
 2010e60:	df000017 	ldw	fp,0(sp)
 2010e64:	dec00204 	addi	sp,sp,8
 2010e68:	f800283a 	ret

02010e6c <alt_dev_reg>:
 */

extern int alt_fs_reg  (alt_dev* dev); 

static ALT_INLINE int alt_dev_reg (alt_dev* dev)
{
 2010e6c:	defffd04 	addi	sp,sp,-12
 2010e70:	dfc00215 	stw	ra,8(sp)
 2010e74:	df000115 	stw	fp,4(sp)
 2010e78:	df000104 	addi	fp,sp,4
 2010e7c:	e13fff15 	stw	r4,-4(fp)
  extern alt_llist alt_dev_list;

  return alt_dev_llist_insert ((alt_dev_llist*) dev, &alt_dev_list);
 2010e80:	e13fff17 	ldw	r4,-4(fp)
 2010e84:	01408274 	movhi	r5,521
 2010e88:	29655704 	addi	r5,r5,-27300
 2010e8c:	20133c00 	call	20133c0 <alt_dev_llist_insert>
}
 2010e90:	e037883a 	mov	sp,fp
 2010e94:	dfc00117 	ldw	ra,4(sp)
 2010e98:	df000017 	ldw	fp,0(sp)
 2010e9c:	dec00204 	addi	sp,sp,8
 2010ea0:	f800283a 	ret

02010ea4 <alt_irq_init>:
 * The "base" parameter is ignored and only
 * present for backwards-compatibility.
 */

void alt_irq_init ( const void* base )
{
 2010ea4:	defffd04 	addi	sp,sp,-12
 2010ea8:	dfc00215 	stw	ra,8(sp)
 2010eac:	df000115 	stw	fp,4(sp)
 2010eb0:	df000104 	addi	fp,sp,4
 2010eb4:	e13fff15 	stw	r4,-4(fp)
    ALTERA_NIOS2_QSYS_IRQ_INIT ( CPU, cpu);
 2010eb8:	2013ca40 	call	2013ca4 <altera_nios2_qsys_irq_init>
 * alt_irq_cpu_enable_interrupts() enables the CPU to start taking interrupts.
 */
static ALT_INLINE void ALT_ALWAYS_INLINE 
       alt_irq_cpu_enable_interrupts ()
{
    NIOS2_WRITE_STATUS(NIOS2_STATUS_PIE_MSK
 2010ebc:	00800044 	movi	r2,1
 2010ec0:	1001703a 	wrctl	status,r2
    alt_irq_cpu_enable_interrupts();
}
 2010ec4:	e037883a 	mov	sp,fp
 2010ec8:	dfc00117 	ldw	ra,4(sp)
 2010ecc:	df000017 	ldw	fp,0(sp)
 2010ed0:	dec00204 	addi	sp,sp,8
 2010ed4:	f800283a 	ret

02010ed8 <alt_sys_init>:
 * Initialize the non-interrupt controller devices.
 * Called after alt_irq_init().
 */

void alt_sys_init( void )
{
 2010ed8:	defffe04 	addi	sp,sp,-8
 2010edc:	dfc00115 	stw	ra,4(sp)
 2010ee0:	df000015 	stw	fp,0(sp)
 2010ee4:	d839883a 	mov	fp,sp
    ALTERA_AVALON_TIMER_INIT ( SYS_CLK_TIMER, sys_clk_timer);
 2010ee8:	01010074 	movhi	r4,1025
 2010eec:	21280804 	addi	r4,r4,-24544
 2010ef0:	000b883a 	mov	r5,zero
 2010ef4:	000d883a 	mov	r6,zero
 2010ef8:	01c0fa04 	movi	r7,1000
 2010efc:	20123c80 	call	20123c8 <alt_avalon_timer_sc_init>
    ALTERA_AVALON_TIMER_INIT ( TIMER_0, timer_0);
    ALTERA_AVALON_EPCS_FLASH_CONTROLLER_INIT ( EPCS_FLASH_CONTROLLER, epcs_flash_controller);
 2010f00:	01008274 	movhi	r4,521
 2010f04:	2120d404 	addi	r4,r4,-31920
 2010f08:	2010f9c0 	call	2010f9c <alt_epcs_flash_init>
    ALTERA_AVALON_JTAG_UART_INIT ( JTAG_UART, jtag_uart);
 2010f0c:	01008274 	movhi	r4,521
 2010f10:	21211004 	addi	r4,r4,-31680
 2010f14:	000b883a 	mov	r5,zero
 2010f18:	01800084 	movi	r6,2
 2010f1c:	2011a580 	call	2011a58 <altera_avalon_jtag_uart_init>
 2010f20:	01008274 	movhi	r4,521
 2010f24:	21210604 	addi	r4,r4,-31720
 2010f28:	2010e6c0 	call	2010e6c <alt_dev_reg>
    ALTERA_AVALON_SYSID_QSYS_INIT ( SYSID, sysid);
 2010f2c:	0001883a 	nop
    ALTERA_AVALON_UART_INIT ( UART_0, uart_0);
 2010f30:	01008274 	movhi	r4,521
 2010f34:	21252804 	addi	r4,r4,-27488
 2010f38:	000b883a 	mov	r5,zero
 2010f3c:	01800104 	movi	r6,4
 2010f40:	20125600 	call	2012560 <altera_avalon_uart_init>
 2010f44:	01008274 	movhi	r4,521
 2010f48:	21251e04 	addi	r4,r4,-27528
 2010f4c:	2010e6c0 	call	2010e6c <alt_dev_reg>
}
 2010f50:	e037883a 	mov	sp,fp
 2010f54:	dfc00117 	ldw	ra,4(sp)
 2010f58:	df000017 	ldw	fp,0(sp)
 2010f5c:	dec00204 	addi	sp,sp,8
 2010f60:	f800283a 	ret

02010f64 <alt_flash_device_register>:

typedef struct alt_flash_dev alt_flash_dev; 
typedef alt_flash_dev alt_flash_fd;

static ALT_INLINE int alt_flash_device_register( alt_flash_fd* fd)
{
 2010f64:	defffd04 	addi	sp,sp,-12
 2010f68:	dfc00215 	stw	ra,8(sp)
 2010f6c:	df000115 	stw	fp,4(sp)
 2010f70:	df000104 	addi	fp,sp,4
 2010f74:	e13fff15 	stw	r4,-4(fp)
  extern alt_llist alt_flash_dev_list;

  return alt_dev_llist_insert ((alt_dev_llist*) fd, &alt_flash_dev_list);
 2010f78:	e13fff17 	ldw	r4,-4(fp)
 2010f7c:	01408274 	movhi	r5,521
 2010f80:	29655e04 	addi	r5,r5,-27272
 2010f84:	20133c00 	call	20133c0 <alt_dev_llist_insert>
}
 2010f88:	e037883a 	mov	sp,fp
 2010f8c:	dfc00117 	ldw	ra,4(sp)
 2010f90:	df000017 	ldw	fp,0(sp)
 2010f94:	dec00204 	addi	sp,sp,8
 2010f98:	f800283a 	ret

02010f9c <alt_epcs_flash_init>:
/*
 * alt_epcs_flash_init
 *
 */
int alt_epcs_flash_init(alt_flash_epcs_dev* flash)
{
 2010f9c:	defffc04 	addi	sp,sp,-16
 2010fa0:	dfc00315 	stw	ra,12(sp)
 2010fa4:	df000215 	stw	fp,8(sp)
 2010fa8:	df000204 	addi	fp,sp,8
 2010fac:	e13fff15 	stw	r4,-4(fp)
  int ret_code = 0;
 2010fb0:	e03ffe15 	stw	zero,-8(fp)

  /* Set up function pointers and/or data structures as needed. */
  ret_code = alt_epcs_flash_query(flash);
 2010fb4:	e13fff17 	ldw	r4,-4(fp)
 2010fb8:	2010ff00 	call	2010ff0 <alt_epcs_flash_query>
 2010fbc:	e0bffe15 	stw	r2,-8(fp)
  */

  /*
  *  Register this device as a valid flash device type
  */
  if (!ret_code)
 2010fc0:	e0bffe17 	ldw	r2,-8(fp)
 2010fc4:	1000041e 	bne	r2,zero,2010fd8 <alt_epcs_flash_init+0x3c>
    ret_code = alt_flash_device_register(&(flash->dev));
 2010fc8:	e0bfff17 	ldw	r2,-4(fp)
 2010fcc:	1009883a 	mov	r4,r2
 2010fd0:	2010f640 	call	2010f64 <alt_flash_device_register>
 2010fd4:	e0bffe15 	stw	r2,-8(fp)

  return ret_code;
 2010fd8:	e0bffe17 	ldw	r2,-8(fp)
}
 2010fdc:	e037883a 	mov	sp,fp
 2010fe0:	dfc00117 	ldw	ra,4(sp)
 2010fe4:	df000017 	ldw	fp,0(sp)
 2010fe8:	dec00204 	addi	sp,sp,8
 2010fec:	f800283a 	ret

02010ff0 <alt_epcs_flash_query>:


static int alt_epcs_flash_query(alt_flash_epcs_dev* flash)
{
 2010ff0:	defffc04 	addi	sp,sp,-16
 2010ff4:	dfc00315 	stw	ra,12(sp)
 2010ff8:	df000215 	stw	fp,8(sp)
 2010ffc:	df000204 	addi	fp,sp,8
 2011000:	e13fff15 	stw	r4,-4(fp)
  int ret_code = 0;
 2011004:	e03ffe15 	stw	zero,-8(fp)
   * reset the device, or whatever, to ensure that
   * it's in a known working state.
  */
  
  /* Disable 4-bytes address mode. */
  flash->four_bytes_mode = 0;
 2011008:	e0bfff17 	ldw	r2,-4(fp)
 201100c:	10003115 	stw	zero,196(r2)
  
  /* Send the RES command sequence */
  flash->silicon_id =
    epcs_read_electronic_signature(flash->register_base);
 2011010:	e0bfff17 	ldw	r2,-4(fp)
 2011014:	10802d17 	ldw	r2,180(r2)
 2011018:	1009883a 	mov	r4,r2
 201101c:	20131bc0 	call	20131bc <epcs_read_electronic_signature>
  
  /* Disable 4-bytes address mode. */
  flash->four_bytes_mode = 0;
  
  /* Send the RES command sequence */
  flash->silicon_id =
 2011020:	10c03fcc 	andi	r3,r2,255
 2011024:	e0bfff17 	ldw	r2,-4(fp)
 2011028:	10c02f15 	stw	r3,188(r2)
    epcs_read_electronic_signature(flash->register_base);

  /* Fill in all device-specific parameters. */
  if (flash->silicon_id == 0x16) /* EPCS64 */
 201102c:	e0bfff17 	ldw	r2,-4(fp)
 2011030:	10802f17 	ldw	r2,188(r2)
 2011034:	10800598 	cmpnei	r2,r2,22
 2011038:	10000a1e 	bne	r2,zero,2011064 <alt_epcs_flash_query+0x74>
  {
    flash->dev.region_info[0].region_size = 64 * 1024 * 1024 / 8;
 201103c:	e0bfff17 	ldw	r2,-4(fp)
 2011040:	00c02034 	movhi	r3,128
 2011044:	10c00e15 	stw	r3,56(r2)
    flash->dev.region_info[0].number_of_blocks = 128;
 2011048:	e0bfff17 	ldw	r2,-4(fp)
 201104c:	00c02004 	movi	r3,128
 2011050:	10c00f15 	stw	r3,60(r2)
    flash->dev.region_info[0].block_size = 65536;
 2011054:	e0bfff17 	ldw	r2,-4(fp)
 2011058:	00c00074 	movhi	r3,1
 201105c:	10c01015 	stw	r3,64(r2)
 2011060:	00007306 	br	2011230 <alt_epcs_flash_query+0x240>
  }
  else if (flash->silicon_id == 0x14) /* EPCS16 */
 2011064:	e0bfff17 	ldw	r2,-4(fp)
 2011068:	10802f17 	ldw	r2,188(r2)
 201106c:	10800518 	cmpnei	r2,r2,20
 2011070:	10000a1e 	bne	r2,zero,201109c <alt_epcs_flash_query+0xac>
  {
    flash->dev.region_info[0].region_size = 16 * 1024 * 1024 / 8;
 2011074:	e0bfff17 	ldw	r2,-4(fp)
 2011078:	00c00834 	movhi	r3,32
 201107c:	10c00e15 	stw	r3,56(r2)
    flash->dev.region_info[0].number_of_blocks = 32;
 2011080:	e0bfff17 	ldw	r2,-4(fp)
 2011084:	00c00804 	movi	r3,32
 2011088:	10c00f15 	stw	r3,60(r2)
    flash->dev.region_info[0].block_size = 65536;
 201108c:	e0bfff17 	ldw	r2,-4(fp)
 2011090:	00c00074 	movhi	r3,1
 2011094:	10c01015 	stw	r3,64(r2)
 2011098:	00006506 	br	2011230 <alt_epcs_flash_query+0x240>
  }
  else if (flash->silicon_id == 0x13) /* EPCS8 */
 201109c:	e0bfff17 	ldw	r2,-4(fp)
 20110a0:	10802f17 	ldw	r2,188(r2)
 20110a4:	108004d8 	cmpnei	r2,r2,19
 20110a8:	10000a1e 	bne	r2,zero,20110d4 <alt_epcs_flash_query+0xe4>
  {
    flash->dev.region_info[0].region_size = 8 * 1024 * 1024 / 8;
 20110ac:	e0bfff17 	ldw	r2,-4(fp)
 20110b0:	00c00434 	movhi	r3,16
 20110b4:	10c00e15 	stw	r3,56(r2)
    flash->dev.region_info[0].number_of_blocks = 16;
 20110b8:	e0bfff17 	ldw	r2,-4(fp)
 20110bc:	00c00404 	movi	r3,16
 20110c0:	10c00f15 	stw	r3,60(r2)
    flash->dev.region_info[0].block_size = 65536;
 20110c4:	e0bfff17 	ldw	r2,-4(fp)
 20110c8:	00c00074 	movhi	r3,1
 20110cc:	10c01015 	stw	r3,64(r2)
 20110d0:	00005706 	br	2011230 <alt_epcs_flash_query+0x240>
  }
  else if (flash->silicon_id == 0x12) /* EPCS4 */
 20110d4:	e0bfff17 	ldw	r2,-4(fp)
 20110d8:	10802f17 	ldw	r2,188(r2)
 20110dc:	10800498 	cmpnei	r2,r2,18
 20110e0:	10000a1e 	bne	r2,zero,201110c <alt_epcs_flash_query+0x11c>
  {
    flash->dev.region_info[0].region_size = 4 * 1024 * 1024 / 8;
 20110e4:	e0bfff17 	ldw	r2,-4(fp)
 20110e8:	00c00234 	movhi	r3,8
 20110ec:	10c00e15 	stw	r3,56(r2)
    flash->dev.region_info[0].number_of_blocks = 8;
 20110f0:	e0bfff17 	ldw	r2,-4(fp)
 20110f4:	00c00204 	movi	r3,8
 20110f8:	10c00f15 	stw	r3,60(r2)
    flash->dev.region_info[0].block_size = 65536;
 20110fc:	e0bfff17 	ldw	r2,-4(fp)
 2011100:	00c00074 	movhi	r3,1
 2011104:	10c01015 	stw	r3,64(r2)
 2011108:	00004906 	br	2011230 <alt_epcs_flash_query+0x240>
  }
  else if (flash->silicon_id == 0x10) /* EPCS1 */
 201110c:	e0bfff17 	ldw	r2,-4(fp)
 2011110:	10802f17 	ldw	r2,188(r2)
 2011114:	10800418 	cmpnei	r2,r2,16
 2011118:	10000a1e 	bne	r2,zero,2011144 <alt_epcs_flash_query+0x154>
  {
    flash->dev.region_info[0].region_size = 1 * 1024 * 1024 / 8;
 201111c:	e0bfff17 	ldw	r2,-4(fp)
 2011120:	00c000b4 	movhi	r3,2
 2011124:	10c00e15 	stw	r3,56(r2)
    flash->dev.region_info[0].number_of_blocks = 4;
 2011128:	e0bfff17 	ldw	r2,-4(fp)
 201112c:	00c00104 	movi	r3,4
 2011130:	10c00f15 	stw	r3,60(r2)
    flash->dev.region_info[0].block_size = 32768;
 2011134:	e0bfff17 	ldw	r2,-4(fp)
 2011138:	00e00014 	movui	r3,32768
 201113c:	10c01015 	stw	r3,64(r2)
 2011140:	00003b06 	br	2011230 <alt_epcs_flash_query+0x240>
  {
    /* 
     * Read electronic signature doesn't work for the EPCS128; try 
     * the "Read Device ID" command" before giving up.
     */
    flash->silicon_id = epcs_read_device_id(flash->register_base);
 2011144:	e0bfff17 	ldw	r2,-4(fp)
 2011148:	10802d17 	ldw	r2,180(r2)
 201114c:	1009883a 	mov	r4,r2
 2011150:	20132240 	call	2013224 <epcs_read_device_id>
 2011154:	e0ffff17 	ldw	r3,-4(fp)
 2011158:	18802f15 	stw	r2,188(r3)
    /*
     * Last byte is the density ID. Note the difference between
     * EPCS128 and EPCQ128 -- arranged differently, though the 
     * least significant byte of each is '0x18'.
     */
    if((flash->silicon_id & 0xFFFFFF) == 0x20BA18) /* EPCQ128 */
 201115c:	e0bfff17 	ldw	r2,-4(fp)
 2011160:	10c02f17 	ldw	r3,188(r2)
 2011164:	00804034 	movhi	r2,256
 2011168:	10bfffc4 	addi	r2,r2,-1
 201116c:	1886703a 	and	r3,r3,r2
 2011170:	00800874 	movhi	r2,33
 2011174:	10ae8604 	addi	r2,r2,-17896
 2011178:	18800a1e 	bne	r3,r2,20111a4 <alt_epcs_flash_query+0x1b4>
    {
      flash->dev.region_info[0].region_size = 128 * 1024 * 1024 / 8;
 201117c:	e0bfff17 	ldw	r2,-4(fp)
 2011180:	00c04034 	movhi	r3,256
 2011184:	10c00e15 	stw	r3,56(r2)
      flash->dev.region_info[0].number_of_blocks = 256; /* number of sectors */
 2011188:	e0bfff17 	ldw	r2,-4(fp)
 201118c:	00c04004 	movi	r3,256
 2011190:	10c00f15 	stw	r3,60(r2)
      flash->dev.region_info[0].block_size = 65536;  /* sector size */
 2011194:	e0bfff17 	ldw	r2,-4(fp)
 2011198:	00c00074 	movhi	r3,1
 201119c:	10c01015 	stw	r3,64(r2)
 20111a0:	00002306 	br	2011230 <alt_epcs_flash_query+0x240>
    }
    else if((flash->silicon_id & 0xFF) == 0x18) /* EPCS128 */
 20111a4:	e0bfff17 	ldw	r2,-4(fp)
 20111a8:	10802f17 	ldw	r2,188(r2)
 20111ac:	10803fcc 	andi	r2,r2,255
 20111b0:	10800618 	cmpnei	r2,r2,24
 20111b4:	10000a1e 	bne	r2,zero,20111e0 <alt_epcs_flash_query+0x1f0>
    {
      flash->dev.region_info[0].region_size = 128 * 1024 * 1024 / 8;
 20111b8:	e0bfff17 	ldw	r2,-4(fp)
 20111bc:	00c04034 	movhi	r3,256
 20111c0:	10c00e15 	stw	r3,56(r2)
      flash->dev.region_info[0].number_of_blocks = 64;
 20111c4:	e0bfff17 	ldw	r2,-4(fp)
 20111c8:	00c01004 	movi	r3,64
 20111cc:	10c00f15 	stw	r3,60(r2)
      flash->dev.region_info[0].block_size = 262144;
 20111d0:	e0bfff17 	ldw	r2,-4(fp)
 20111d4:	00c00134 	movhi	r3,4
 20111d8:	10c01015 	stw	r3,64(r2)
 20111dc:	00001406 	br	2011230 <alt_epcs_flash_query+0x240>
    }
    else if((flash->silicon_id & 0xFF ) == 0x19) /* EPCQ256 */
 20111e0:	e0bfff17 	ldw	r2,-4(fp)
 20111e4:	10802f17 	ldw	r2,188(r2)
 20111e8:	10803fcc 	andi	r2,r2,255
 20111ec:	10800658 	cmpnei	r2,r2,25
 20111f0:	10000d1e 	bne	r2,zero,2011228 <alt_epcs_flash_query+0x238>
    {
      flash->dev.region_info[0].region_size = 256 * 1024 * 1024 / 8;
 20111f4:	e0bfff17 	ldw	r2,-4(fp)
 20111f8:	00c08034 	movhi	r3,512
 20111fc:	10c00e15 	stw	r3,56(r2)
      flash->dev.region_info[0].number_of_blocks = 512; /* number of sectors */
 2011200:	e0bfff17 	ldw	r2,-4(fp)
 2011204:	00c08004 	movi	r3,512
 2011208:	10c00f15 	stw	r3,60(r2)
      flash->dev.region_info[0].block_size = 65536;  /* sector size */
 201120c:	e0bfff17 	ldw	r2,-4(fp)
 2011210:	00c00074 	movhi	r3,1
 2011214:	10c01015 	stw	r3,64(r2)
       * must first be programmed into the device, though. To complicate things, 
       * other Altera IP expects the chip to be in 3 byte address mode when they 
       * start using it. To be nice, we'll place the device into 4-byte address mode
       * when we need to, and take it back out when we're done.
       */
      flash->four_bytes_mode = 1;
 2011218:	e0bfff17 	ldw	r2,-4(fp)
 201121c:	00c00044 	movi	r3,1
 2011220:	10c03115 	stw	r3,196(r2)
 2011224:	00000206 	br	2011230 <alt_epcs_flash_query+0x240>
    }
    else 
    {
      ret_code = -ENODEV; /* No known device found! */
 2011228:	00bffb44 	movi	r2,-19
 201122c:	e0bffe15 	stw	r2,-8(fp)
    }
  }
  
  flash->size_in_bytes = flash->dev.region_info[0].region_size;
 2011230:	e0bfff17 	ldw	r2,-4(fp)
 2011234:	10800e17 	ldw	r2,56(r2)
 2011238:	1007883a 	mov	r3,r2
 201123c:	e0bfff17 	ldw	r2,-4(fp)
 2011240:	10c02e15 	stw	r3,184(r2)
  flash->dev.number_of_regions = 1;
 2011244:	e0bfff17 	ldw	r2,-4(fp)
 2011248:	00c00044 	movi	r3,1
 201124c:	10c00c15 	stw	r3,48(r2)
  flash->dev.region_info[0].offset = 0;
 2011250:	e0bfff17 	ldw	r2,-4(fp)
 2011254:	10000d15 	stw	zero,52(r2)
  flash->page_size = 256;
 2011258:	e0bfff17 	ldw	r2,-4(fp)
 201125c:	00c04004 	movi	r3,256
 2011260:	10c03015 	stw	r3,192(r2)

  /* Consider clearing all BP bits here. */
  return ret_code;
 2011264:	e0bffe17 	ldw	r2,-8(fp)
}
 2011268:	e037883a 	mov	sp,fp
 201126c:	dfc00117 	ldw	ra,4(sp)
 2011270:	df000017 	ldw	fp,0(sp)
 2011274:	dec00204 	addi	sp,sp,8
 2011278:	f800283a 	ret

0201127c <alt_epcs_flash_memcmp>:
  alt_flash_dev* flash_info,
  const void* src_buffer,
  int offset,
  size_t n
)
{
 201127c:	deffee04 	addi	sp,sp,-72
 2011280:	dfc01115 	stw	ra,68(sp)
 2011284:	df001015 	stw	fp,64(sp)
 2011288:	df001004 	addi	fp,sp,64
 201128c:	e13ffc15 	stw	r4,-16(fp)
 2011290:	e17ffd15 	stw	r5,-12(fp)
 2011294:	e1bffe15 	stw	r6,-8(fp)
 2011298:	e1ffff15 	stw	r7,-4(fp)
  /*
   * Compare chunks of memory at a time, for better serial-flash
   * read efficiency.
   */
  alt_u8 chunk_buffer[32];
  const int chunk_size = sizeof(chunk_buffer) / sizeof(*chunk_buffer);
 201129c:	00800804 	movi	r2,32
 20112a0:	e0bff115 	stw	r2,-60(fp)
  int current_offset = 0;
 20112a4:	e03ff015 	stw	zero,-64(fp)

  while (n > 0)
 20112a8:	00002606 	br	2011344 <alt_epcs_flash_memcmp+0xc8>
  {
    int this_chunk_size = n > chunk_size ? chunk_size : n;
 20112ac:	e0bff117 	ldw	r2,-60(fp)
 20112b0:	e0ffff17 	ldw	r3,-4(fp)
 20112b4:	1880012e 	bgeu	r3,r2,20112bc <alt_epcs_flash_memcmp+0x40>
 20112b8:	1805883a 	mov	r2,r3
 20112bc:	e0bff215 	stw	r2,-56(fp)
    int this_chunk_cmp;

    if (
      alt_epcs_flash_read(
 20112c0:	e0fffe17 	ldw	r3,-8(fp)
 20112c4:	e0bff017 	ldw	r2,-64(fp)
 20112c8:	1887883a 	add	r3,r3,r2
 20112cc:	e0bff404 	addi	r2,fp,-48
 20112d0:	e13ffc17 	ldw	r4,-16(fp)
 20112d4:	180b883a 	mov	r5,r3
 20112d8:	100d883a 	mov	r6,r2
 20112dc:	e1fff217 	ldw	r7,-56(fp)
 20112e0:	201185c0 	call	201185c <alt_epcs_flash_read>
  while (n > 0)
  {
    int this_chunk_size = n > chunk_size ? chunk_size : n;
    int this_chunk_cmp;

    if (
 20112e4:	1000020e 	bge	r2,zero,20112f0 <alt_epcs_flash_memcmp+0x74>
    {
      /*
      * If the read fails, I'm not sure what the appropriate action is.
      * Compare success seems wrong, so make it compare fail.
      */
      return -1;
 20112e8:	00bfffc4 	movi	r2,-1
 20112ec:	00001806 	br	2011350 <alt_epcs_flash_memcmp+0xd4>
    }

    /* Compare this chunk against the source memory buffer. */
    this_chunk_cmp = memcmp(&((unsigned char*)(src_buffer))[current_offset], chunk_buffer, this_chunk_size);
 20112f0:	e0bff017 	ldw	r2,-64(fp)
 20112f4:	e0fffd17 	ldw	r3,-12(fp)
 20112f8:	1889883a 	add	r4,r3,r2
 20112fc:	e0bff217 	ldw	r2,-56(fp)
 2011300:	e0fff404 	addi	r3,fp,-48
 2011304:	180b883a 	mov	r5,r3
 2011308:	100d883a 	mov	r6,r2
 201130c:	20141900 	call	2014190 <memcmp>
 2011310:	e0bff315 	stw	r2,-52(fp)
    if (this_chunk_cmp)
 2011314:	e0bff317 	ldw	r2,-52(fp)
 2011318:	10000226 	beq	r2,zero,2011324 <alt_epcs_flash_memcmp+0xa8>
    {
      return this_chunk_cmp;
 201131c:	e0bff317 	ldw	r2,-52(fp)
 2011320:	00000b06 	br	2011350 <alt_epcs_flash_memcmp+0xd4>
    }

    n -= this_chunk_size;
 2011324:	e0bff217 	ldw	r2,-56(fp)
 2011328:	e0ffff17 	ldw	r3,-4(fp)
 201132c:	1885c83a 	sub	r2,r3,r2
 2011330:	e0bfff15 	stw	r2,-4(fp)
    current_offset += this_chunk_size;
 2011334:	e0fff017 	ldw	r3,-64(fp)
 2011338:	e0bff217 	ldw	r2,-56(fp)
 201133c:	1885883a 	add	r2,r3,r2
 2011340:	e0bff015 	stw	r2,-64(fp)
   */
  alt_u8 chunk_buffer[32];
  const int chunk_size = sizeof(chunk_buffer) / sizeof(*chunk_buffer);
  int current_offset = 0;

  while (n > 0)
 2011344:	e0bfff17 	ldw	r2,-4(fp)
 2011348:	103fd81e 	bne	r2,zero,20112ac <__alt_mem_epcs_flash_controller+0xfe0082ac>
  }

  /*
   * If execution made it to this point, compare is successful.
   */
  return 0;
 201134c:	0005883a 	mov	r2,zero
}
 2011350:	e037883a 	mov	sp,fp
 2011354:	dfc00117 	ldw	ra,4(sp)
 2011358:	df000017 	ldw	fp,0(sp)
 201135c:	dec00204 	addi	sp,sp,8
 2011360:	f800283a 	ret

02011364 <alt_epcs_flash_write>:
 * large buffer to tie up in our programming library, when not all users will
 * want that functionality.
 */
int alt_epcs_flash_write(alt_flash_dev* flash_info, int offset,
                          const void* src_addr, int length)
{
 2011364:	defff404 	addi	sp,sp,-48
 2011368:	dfc00b15 	stw	ra,44(sp)
 201136c:	df000a15 	stw	fp,40(sp)
 2011370:	df000a04 	addi	fp,sp,40
 2011374:	e13ffc15 	stw	r4,-16(fp)
 2011378:	e17ffd15 	stw	r5,-12(fp)
 201137c:	e1bffe15 	stw	r6,-8(fp)
 2011380:	e1ffff15 	stw	r7,-4(fp)
  int         ret_code = 0;
 2011384:	e03ff715 	stw	zero,-36(fp)
  int         current_offset;

  /*
   * First and foremost which sectors are affected?
   */
  for(i = 0; i < flash_info->number_of_regions; i++)
 2011388:	e03ff815 	stw	zero,-32(fp)
 201138c:	00008306 	br	201159c <alt_epcs_flash_write+0x238>
  {
    /* Is it in this erase block region?*/
    if((offset >= flash_info->region_info[i].offset) &&
 2011390:	e0fffc17 	ldw	r3,-16(fp)
 2011394:	e0bff817 	ldw	r2,-32(fp)
 2011398:	1004913a 	slli	r2,r2,4
 201139c:	1885883a 	add	r2,r3,r2
 20113a0:	10800d04 	addi	r2,r2,52
 20113a4:	10800017 	ldw	r2,0(r2)
 20113a8:	e0fffd17 	ldw	r3,-12(fp)
 20113ac:	18807816 	blt	r3,r2,2011590 <alt_epcs_flash_write+0x22c>
      (offset < (flash_info->region_info[i].offset +
 20113b0:	e0fffc17 	ldw	r3,-16(fp)
 20113b4:	e0bff817 	ldw	r2,-32(fp)
 20113b8:	1004913a 	slli	r2,r2,4
 20113bc:	1885883a 	add	r2,r3,r2
 20113c0:	10800d04 	addi	r2,r2,52
 20113c4:	10c00017 	ldw	r3,0(r2)
      flash_info->region_info[i].region_size)))
 20113c8:	e13ffc17 	ldw	r4,-16(fp)
 20113cc:	e0bff817 	ldw	r2,-32(fp)
 20113d0:	1004913a 	slli	r2,r2,4
 20113d4:	2085883a 	add	r2,r4,r2
 20113d8:	10800e04 	addi	r2,r2,56
 20113dc:	10800017 	ldw	r2,0(r2)
   */
  for(i = 0; i < flash_info->number_of_regions; i++)
  {
    /* Is it in this erase block region?*/
    if((offset >= flash_info->region_info[i].offset) &&
      (offset < (flash_info->region_info[i].offset +
 20113e0:	1885883a 	add	r2,r3,r2
   * First and foremost which sectors are affected?
   */
  for(i = 0; i < flash_info->number_of_regions; i++)
  {
    /* Is it in this erase block region?*/
    if((offset >= flash_info->region_info[i].offset) &&
 20113e4:	e0fffd17 	ldw	r3,-12(fp)
 20113e8:	1880690e 	bge	r3,r2,2011590 <alt_epcs_flash_write+0x22c>
      (offset < (flash_info->region_info[i].offset +
      flash_info->region_info[i].region_size)))
    {
      current_offset = flash_info->region_info[i].offset;
 20113ec:	e0fffc17 	ldw	r3,-16(fp)
 20113f0:	e0bff817 	ldw	r2,-32(fp)
 20113f4:	1004913a 	slli	r2,r2,4
 20113f8:	1885883a 	add	r2,r3,r2
 20113fc:	10800d04 	addi	r2,r2,52
 2011400:	10800017 	ldw	r2,0(r2)
 2011404:	e0bffa15 	stw	r2,-24(fp)

      for(j=0;j<flash_info->region_info[i].number_of_blocks;j++)
 2011408:	e03ff915 	stw	zero,-28(fp)
 201140c:	00005806 	br	2011570 <alt_epcs_flash_write+0x20c>
      {
        if ((offset >= current_offset ) &&
 2011410:	e0fffd17 	ldw	r3,-12(fp)
 2011414:	e0bffa17 	ldw	r2,-24(fp)
 2011418:	18804916 	blt	r3,r2,2011540 <alt_epcs_flash_write+0x1dc>
            (offset < (current_offset +
            flash_info->region_info[i].block_size)))
 201141c:	e0fffc17 	ldw	r3,-16(fp)
 2011420:	e0bff817 	ldw	r2,-32(fp)
 2011424:	10800104 	addi	r2,r2,4
 2011428:	1004913a 	slli	r2,r2,4
 201142c:	1885883a 	add	r2,r3,r2
 2011430:	10c00017 	ldw	r3,0(r2)
      current_offset = flash_info->region_info[i].offset;

      for(j=0;j<flash_info->region_info[i].number_of_blocks;j++)
      {
        if ((offset >= current_offset ) &&
            (offset < (current_offset +
 2011434:	e0bffa17 	ldw	r2,-24(fp)
 2011438:	1885883a 	add	r2,r3,r2
    {
      current_offset = flash_info->region_info[i].offset;

      for(j=0;j<flash_info->region_info[i].number_of_blocks;j++)
      {
        if ((offset >= current_offset ) &&
 201143c:	e0fffd17 	ldw	r3,-12(fp)
 2011440:	18803f0e 	bge	r3,r2,2011540 <alt_epcs_flash_write+0x1dc>
        {
          /*
           * Check if the contents of the block are different
           * from the data we wish to put there
           */
          data_to_write = ( current_offset + flash_info->region_info[i].block_size
 2011444:	e0fffc17 	ldw	r3,-16(fp)
 2011448:	e0bff817 	ldw	r2,-32(fp)
 201144c:	10800104 	addi	r2,r2,4
 2011450:	1004913a 	slli	r2,r2,4
 2011454:	1885883a 	add	r2,r3,r2
 2011458:	10c00017 	ldw	r3,0(r2)
 201145c:	e0bffa17 	ldw	r2,-24(fp)
 2011460:	1887883a 	add	r3,r3,r2
 2011464:	e0bffd17 	ldw	r2,-12(fp)
 2011468:	1885c83a 	sub	r2,r3,r2
 201146c:	e0bffb15 	stw	r2,-20(fp)
                            - offset);
          data_to_write = MIN(data_to_write, length);
 2011470:	e0fffb17 	ldw	r3,-20(fp)
 2011474:	e0bfff17 	ldw	r2,-4(fp)
 2011478:	1880010e 	bge	r3,r2,2011480 <alt_epcs_flash_write+0x11c>
 201147c:	1805883a 	mov	r2,r3
 2011480:	e0bffb15 	stw	r2,-20(fp)

          if(alt_epcs_flash_memcmp(flash_info, src_addr, offset, data_to_write))
 2011484:	e0bffb17 	ldw	r2,-20(fp)
 2011488:	e13ffc17 	ldw	r4,-16(fp)
 201148c:	e17ffe17 	ldw	r5,-8(fp)
 2011490:	e1bffd17 	ldw	r6,-12(fp)
 2011494:	100f883a 	mov	r7,r2
 2011498:	201127c0 	call	201127c <alt_epcs_flash_memcmp>
 201149c:	10001226 	beq	r2,zero,20114e8 <alt_epcs_flash_write+0x184>
          {
            ret_code = (*flash_info->erase_block)(flash_info, current_offset);
 20114a0:	e0bffc17 	ldw	r2,-16(fp)
 20114a4:	10800817 	ldw	r2,32(r2)
 20114a8:	e13ffc17 	ldw	r4,-16(fp)
 20114ac:	e17ffa17 	ldw	r5,-24(fp)
 20114b0:	103ee83a 	callr	r2
 20114b4:	e0bff715 	stw	r2,-36(fp)

            if (!ret_code)
 20114b8:	e0bff717 	ldw	r2,-36(fp)
 20114bc:	10000a1e 	bne	r2,zero,20114e8 <alt_epcs_flash_write+0x184>
            {
              ret_code = (*flash_info->write_block)(
 20114c0:	e0bffc17 	ldw	r2,-16(fp)
 20114c4:	10800917 	ldw	r2,36(r2)
 20114c8:	e0fffb17 	ldw	r3,-20(fp)
 20114cc:	d8c00015 	stw	r3,0(sp)
 20114d0:	e13ffc17 	ldw	r4,-16(fp)
 20114d4:	e17ffa17 	ldw	r5,-24(fp)
 20114d8:	e1bffd17 	ldw	r6,-12(fp)
 20114dc:	e1fffe17 	ldw	r7,-8(fp)
 20114e0:	103ee83a 	callr	r2
 20114e4:	e0bff715 	stw	r2,-36(fp)
                                                  data_to_write);
            }
          }

          /* Was this the last block? */
          if ((length == data_to_write) || ret_code)
 20114e8:	e0ffff17 	ldw	r3,-4(fp)
 20114ec:	e0bffb17 	ldw	r2,-20(fp)
 20114f0:	18802e26 	beq	r3,r2,20115ac <alt_epcs_flash_write+0x248>
 20114f4:	e0bff717 	ldw	r2,-36(fp)
 20114f8:	10002c1e 	bne	r2,zero,20115ac <alt_epcs_flash_write+0x248>
          {
            goto finished;
          }

          length -= data_to_write;
 20114fc:	e0ffff17 	ldw	r3,-4(fp)
 2011500:	e0bffb17 	ldw	r2,-20(fp)
 2011504:	1885c83a 	sub	r2,r3,r2
 2011508:	e0bfff15 	stw	r2,-4(fp)
          offset = current_offset + flash_info->region_info[i].block_size;
 201150c:	e0fffc17 	ldw	r3,-16(fp)
 2011510:	e0bff817 	ldw	r2,-32(fp)
 2011514:	10800104 	addi	r2,r2,4
 2011518:	1004913a 	slli	r2,r2,4
 201151c:	1885883a 	add	r2,r3,r2
 2011520:	10c00017 	ldw	r3,0(r2)
 2011524:	e0bffa17 	ldw	r2,-24(fp)
 2011528:	1885883a 	add	r2,r3,r2
 201152c:	e0bffd15 	stw	r2,-12(fp)
          src_addr = (alt_u8*)src_addr + data_to_write;
 2011530:	e0bffb17 	ldw	r2,-20(fp)
 2011534:	e0fffe17 	ldw	r3,-8(fp)
 2011538:	1885883a 	add	r2,r3,r2
 201153c:	e0bffe15 	stw	r2,-8(fp)
        }
        current_offset += flash_info->region_info[i].block_size;
 2011540:	e0fffc17 	ldw	r3,-16(fp)
 2011544:	e0bff817 	ldw	r2,-32(fp)
 2011548:	10800104 	addi	r2,r2,4
 201154c:	1004913a 	slli	r2,r2,4
 2011550:	1885883a 	add	r2,r3,r2
 2011554:	10800017 	ldw	r2,0(r2)
 2011558:	e0fffa17 	ldw	r3,-24(fp)
 201155c:	1885883a 	add	r2,r3,r2
 2011560:	e0bffa15 	stw	r2,-24(fp)
      (offset < (flash_info->region_info[i].offset +
      flash_info->region_info[i].region_size)))
    {
      current_offset = flash_info->region_info[i].offset;

      for(j=0;j<flash_info->region_info[i].number_of_blocks;j++)
 2011564:	e0bff917 	ldw	r2,-28(fp)
 2011568:	10800044 	addi	r2,r2,1
 201156c:	e0bff915 	stw	r2,-28(fp)
 2011570:	e0fffc17 	ldw	r3,-16(fp)
 2011574:	e0bff817 	ldw	r2,-32(fp)
 2011578:	1004913a 	slli	r2,r2,4
 201157c:	1885883a 	add	r2,r3,r2
 2011580:	10800f04 	addi	r2,r2,60
 2011584:	10800017 	ldw	r2,0(r2)
 2011588:	e0fff917 	ldw	r3,-28(fp)
 201158c:	18bfa016 	blt	r3,r2,2011410 <__alt_mem_epcs_flash_controller+0xfe008410>
  int         current_offset;

  /*
   * First and foremost which sectors are affected?
   */
  for(i = 0; i < flash_info->number_of_regions; i++)
 2011590:	e0bff817 	ldw	r2,-32(fp)
 2011594:	10800044 	addi	r2,r2,1
 2011598:	e0bff815 	stw	r2,-32(fp)
 201159c:	e0bffc17 	ldw	r2,-16(fp)
 20115a0:	10800c17 	ldw	r2,48(r2)
 20115a4:	e0fff817 	ldw	r3,-32(fp)
 20115a8:	18bf7916 	blt	r3,r2,2011390 <__alt_mem_epcs_flash_controller+0xfe008390>
      }
    }
  }

finished:
  return ret_code;
 20115ac:	e0bff717 	ldw	r2,-36(fp)
}
 20115b0:	e037883a 	mov	sp,fp
 20115b4:	dfc00117 	ldw	ra,4(sp)
 20115b8:	df000017 	ldw	fp,0(sp)
 20115bc:	dec00204 	addi	sp,sp,8
 20115c0:	f800283a 	ret

020115c4 <alt_epcs_flash_get_info>:
 *
 *  Pass the table of erase blocks to the user
 */
int alt_epcs_flash_get_info(alt_flash_fd* fd, flash_region** info,
                            int* number_of_regions)
{
 20115c4:	defffa04 	addi	sp,sp,-24
 20115c8:	df000515 	stw	fp,20(sp)
 20115cc:	df000504 	addi	fp,sp,20
 20115d0:	e13ffd15 	stw	r4,-12(fp)
 20115d4:	e17ffe15 	stw	r5,-8(fp)
 20115d8:	e1bfff15 	stw	r6,-4(fp)
  int ret_code = 0;
 20115dc:	e03ffb15 	stw	zero,-20(fp)

  alt_flash_dev* flash = (alt_flash_dev*)fd;
 20115e0:	e0bffd17 	ldw	r2,-12(fp)
 20115e4:	e0bffc15 	stw	r2,-16(fp)

  *number_of_regions = flash->number_of_regions;
 20115e8:	e0bffc17 	ldw	r2,-16(fp)
 20115ec:	10c00c17 	ldw	r3,48(r2)
 20115f0:	e0bfff17 	ldw	r2,-4(fp)
 20115f4:	10c00015 	stw	r3,0(r2)

  if (!flash->number_of_regions)
 20115f8:	e0bffc17 	ldw	r2,-16(fp)
 20115fc:	10800c17 	ldw	r2,48(r2)
 2011600:	1000031e 	bne	r2,zero,2011610 <alt_epcs_flash_get_info+0x4c>
  {
    ret_code = -EIO;
 2011604:	00bffec4 	movi	r2,-5
 2011608:	e0bffb15 	stw	r2,-20(fp)
 201160c:	00000b06 	br	201163c <alt_epcs_flash_get_info+0x78>
  }
  else if (flash->number_of_regions > ALT_MAX_NUMBER_OF_FLASH_REGIONS)
 2011610:	e0bffc17 	ldw	r2,-16(fp)
 2011614:	10800c17 	ldw	r2,48(r2)
 2011618:	10800250 	cmplti	r2,r2,9
 201161c:	1000031e 	bne	r2,zero,201162c <alt_epcs_flash_get_info+0x68>
  {
    ret_code = -ENOMEM;
 2011620:	00bffd04 	movi	r2,-12
 2011624:	e0bffb15 	stw	r2,-20(fp)
 2011628:	00000406 	br	201163c <alt_epcs_flash_get_info+0x78>
  }
  else
  {
    *info = &flash->region_info[0];
 201162c:	e0bffc17 	ldw	r2,-16(fp)
 2011630:	10c00d04 	addi	r3,r2,52
 2011634:	e0bffe17 	ldw	r2,-8(fp)
 2011638:	10c00015 	stw	r3,0(r2)
  }

  return ret_code;
 201163c:	e0bffb17 	ldw	r2,-20(fp)
}
 2011640:	e037883a 	mov	sp,fp
 2011644:	df000017 	ldw	fp,0(sp)
 2011648:	dec00104 	addi	sp,sp,4
 201164c:	f800283a 	ret

02011650 <alt_epcs_test_address>:


/* This might be a candidate for optimization.  Precompute the last-address? */
static ALT_INLINE int alt_epcs_test_address(alt_flash_dev* flash_info, int offset)
{
 2011650:	defff904 	addi	sp,sp,-28
 2011654:	df000615 	stw	fp,24(sp)
 2011658:	df000604 	addi	fp,sp,24
 201165c:	e13ffe15 	stw	r4,-8(fp)
 2011660:	e17fff15 	stw	r5,-4(fp)
  int ret_code = 0;
 2011664:	e03ffa15 	stw	zero,-24(fp)
  /* Error checking:
   * if the block offset is outside of the memory, return -EIO.
   */
  alt_flash_epcs_dev *f = (alt_flash_epcs_dev*)flash_info;
 2011668:	e0bffe17 	ldw	r2,-8(fp)
 201166c:	e0bffb15 	stw	r2,-20(fp)

  const alt_u32 last_region_index = f->dev.number_of_regions - 1;
 2011670:	e0bffb17 	ldw	r2,-20(fp)
 2011674:	10800c17 	ldw	r2,48(r2)
 2011678:	10bfffc4 	addi	r2,r2,-1
 201167c:	e0bffc15 	stw	r2,-16(fp)
  alt_u32 last_device_address =
    -1 +
    f->dev.region_info[last_region_index].offset +
 2011680:	e0fffb17 	ldw	r3,-20(fp)
 2011684:	e0bffc17 	ldw	r2,-16(fp)
 2011688:	1004913a 	slli	r2,r2,4
 201168c:	1885883a 	add	r2,r3,r2
 2011690:	10800d04 	addi	r2,r2,52
 2011694:	10800017 	ldw	r2,0(r2)
   */
  alt_flash_epcs_dev *f = (alt_flash_epcs_dev*)flash_info;

  const alt_u32 last_region_index = f->dev.number_of_regions - 1;
  alt_u32 last_device_address =
    -1 +
 2011698:	10ffffc4 	addi	r3,r2,-1
    f->dev.region_info[last_region_index].offset +
    f->dev.region_info[last_region_index].region_size;
 201169c:	e13ffb17 	ldw	r4,-20(fp)
 20116a0:	e0bffc17 	ldw	r2,-16(fp)
 20116a4:	1004913a 	slli	r2,r2,4
 20116a8:	2085883a 	add	r2,r4,r2
 20116ac:	10800e04 	addi	r2,r2,56
 20116b0:	10800017 	ldw	r2,0(r2)
  alt_flash_epcs_dev *f = (alt_flash_epcs_dev*)flash_info;

  const alt_u32 last_region_index = f->dev.number_of_regions - 1;
  alt_u32 last_device_address =
    -1 +
    f->dev.region_info[last_region_index].offset +
 20116b4:	1885883a 	add	r2,r3,r2
   * if the block offset is outside of the memory, return -EIO.
   */
  alt_flash_epcs_dev *f = (alt_flash_epcs_dev*)flash_info;

  const alt_u32 last_region_index = f->dev.number_of_regions - 1;
  alt_u32 last_device_address =
 20116b8:	e0bffd15 	stw	r2,-12(fp)
    -1 +
    f->dev.region_info[last_region_index].offset +
    f->dev.region_info[last_region_index].region_size;

  if (offset > last_device_address)
 20116bc:	e0bfff17 	ldw	r2,-4(fp)
 20116c0:	e0fffd17 	ldw	r3,-12(fp)
 20116c4:	1880022e 	bgeu	r3,r2,20116d0 <alt_epcs_test_address+0x80>
  {
    /* Someone tried to erase a block outside of this device's range. */
    ret_code = -EIO;
 20116c8:	00bffec4 	movi	r2,-5
 20116cc:	e0bffa15 	stw	r2,-24(fp)
  }
  return ret_code;
 20116d0:	e0bffa17 	ldw	r2,-24(fp)
}
 20116d4:	e037883a 	mov	sp,fp
 20116d8:	df000017 	ldw	fp,0(sp)
 20116dc:	dec00104 	addi	sp,sp,4
 20116e0:	f800283a 	ret

020116e4 <alt_epcs_flash_erase_block>:
 *
 * Erase the selected erase block ("sector erase", from the POV
 * of the EPCS data sheet).
 */
int alt_epcs_flash_erase_block(alt_flash_dev* flash_info, int block_offset)
{
 20116e4:	defffa04 	addi	sp,sp,-24
 20116e8:	dfc00515 	stw	ra,20(sp)
 20116ec:	df000415 	stw	fp,16(sp)
 20116f0:	df000404 	addi	fp,sp,16
 20116f4:	e13ffe15 	stw	r4,-8(fp)
 20116f8:	e17fff15 	stw	r5,-4(fp)
  int ret_code = 0;
 20116fc:	e03ffc15 	stw	zero,-16(fp)
  alt_flash_epcs_dev *f = (alt_flash_epcs_dev*)flash_info;
 2011700:	e0bffe17 	ldw	r2,-8(fp)
 2011704:	e0bffd15 	stw	r2,-12(fp)

  ret_code = alt_epcs_test_address(flash_info, block_offset);
 2011708:	e13ffe17 	ldw	r4,-8(fp)
 201170c:	e17fff17 	ldw	r5,-4(fp)
 2011710:	20116500 	call	2011650 <alt_epcs_test_address>
 2011714:	e0bffc15 	stw	r2,-16(fp)

  if (ret_code >= 0)
 2011718:	e0bffc17 	ldw	r2,-16(fp)
 201171c:	10000816 	blt	r2,zero,2011740 <alt_epcs_flash_erase_block+0x5c>
  {
    /* Send the Sector Erase command, whose 3 address bytes are anywhere
     * within the chosen sector.
     */
    epcs_sector_erase(f->register_base, block_offset, f->four_bytes_mode);
 2011720:	e0bffd17 	ldw	r2,-12(fp)
 2011724:	11002d17 	ldw	r4,180(r2)
 2011728:	e0ffff17 	ldw	r3,-4(fp)
 201172c:	e0bffd17 	ldw	r2,-12(fp)
 2011730:	10803117 	ldw	r2,196(r2)
 2011734:	180b883a 	mov	r5,r3
 2011738:	100d883a 	mov	r6,r2
 201173c:	2012dfc0 	call	2012dfc <epcs_sector_erase>
  }
  return ret_code;
 2011740:	e0bffc17 	ldw	r2,-16(fp)
}
 2011744:	e037883a 	mov	sp,fp
 2011748:	dfc00117 	ldw	ra,4(sp)
 201174c:	df000017 	ldw	fp,0(sp)
 2011750:	dec00204 	addi	sp,sp,8
 2011754:	f800283a 	ret

02011758 <alt_epcs_flash_write_block>:
 * function type compatibility.
 */
int alt_epcs_flash_write_block(alt_flash_dev* flash_info, int block_offset,
                                      int data_offset, const void* data,
                                      int length)
{
 2011758:	defff404 	addi	sp,sp,-48
 201175c:	dfc00b15 	stw	ra,44(sp)
 2011760:	df000a15 	stw	fp,40(sp)
 2011764:	df000a04 	addi	fp,sp,40
 2011768:	e13ffc15 	stw	r4,-16(fp)
 201176c:	e17ffd15 	stw	r5,-12(fp)
 2011770:	e1bffe15 	stw	r6,-8(fp)
 2011774:	e1ffff15 	stw	r7,-4(fp)
  int ret_code;
  alt_flash_epcs_dev *f = (alt_flash_epcs_dev*)flash_info;
 2011778:	e0bffc17 	ldw	r2,-16(fp)
 201177c:	e0bff815 	stw	r2,-32(fp)

  int buffer_offset = 0;
 2011780:	e03ff715 	stw	zero,-36(fp)
  int length_of_current_write;
  ret_code = alt_epcs_test_address(flash_info, data_offset);
 2011784:	e13ffc17 	ldw	r4,-16(fp)
 2011788:	e17ffe17 	ldw	r5,-8(fp)
 201178c:	20116500 	call	2011650 <alt_epcs_test_address>
 2011790:	e0bff915 	stw	r2,-28(fp)

  if (ret_code >= 0)
 2011794:	e0bff917 	ldw	r2,-28(fp)
 2011798:	10002a16 	blt	r2,zero,2011844 <alt_epcs_flash_write_block+0xec>
  {

    /* "Block" writes must be broken up into the page writes that
     * the device understands.  Partial page writes are allowed.
     */
    while (length)
 201179c:	00002706 	br	201183c <alt_epcs_flash_write_block+0xe4>
    {
      int next_page_start = (data_offset + f->page_size) & ~(f->page_size - 1);
 20117a0:	e0bff817 	ldw	r2,-32(fp)
 20117a4:	10c03017 	ldw	r3,192(r2)
 20117a8:	e0bffe17 	ldw	r2,-8(fp)
 20117ac:	1887883a 	add	r3,r3,r2
 20117b0:	e0bff817 	ldw	r2,-32(fp)
 20117b4:	10803017 	ldw	r2,192(r2)
 20117b8:	0085c83a 	sub	r2,zero,r2
 20117bc:	1884703a 	and	r2,r3,r2
 20117c0:	e0bffa15 	stw	r2,-24(fp)
      length_of_current_write = MIN(length, next_page_start - data_offset);
 20117c4:	e0fffa17 	ldw	r3,-24(fp)
 20117c8:	e0bffe17 	ldw	r2,-8(fp)
 20117cc:	1885c83a 	sub	r2,r3,r2
 20117d0:	e0c00217 	ldw	r3,8(fp)
 20117d4:	1880010e 	bge	r3,r2,20117dc <alt_epcs_flash_write_block+0x84>
 20117d8:	1805883a 	mov	r2,r3
 20117dc:	e0bffb15 	stw	r2,-20(fp)

      epcs_write_buffer(f->register_base, data_offset, &((const alt_u8*)data)[buffer_offset], length_of_current_write,
 20117e0:	e0bff817 	ldw	r2,-32(fp)
 20117e4:	10c02d17 	ldw	r3,180(r2)
 20117e8:	e0bff717 	ldw	r2,-36(fp)
 20117ec:	e13fff17 	ldw	r4,-4(fp)
 20117f0:	2085883a 	add	r2,r4,r2
          f->four_bytes_mode);
 20117f4:	e13ff817 	ldw	r4,-32(fp)
    while (length)
    {
      int next_page_start = (data_offset + f->page_size) & ~(f->page_size - 1);
      length_of_current_write = MIN(length, next_page_start - data_offset);

      epcs_write_buffer(f->register_base, data_offset, &((const alt_u8*)data)[buffer_offset], length_of_current_write,
 20117f8:	21003117 	ldw	r4,196(r4)
 20117fc:	d9000015 	stw	r4,0(sp)
 2011800:	1809883a 	mov	r4,r3
 2011804:	e17ffe17 	ldw	r5,-8(fp)
 2011808:	100d883a 	mov	r6,r2
 201180c:	e1fffb17 	ldw	r7,-20(fp)
 2011810:	20130a00 	call	20130a0 <epcs_write_buffer>
          f->four_bytes_mode);

      length -= length_of_current_write;
 2011814:	e0c00217 	ldw	r3,8(fp)
 2011818:	e0bffb17 	ldw	r2,-20(fp)
 201181c:	1885c83a 	sub	r2,r3,r2
 2011820:	e0800215 	stw	r2,8(fp)
      buffer_offset += length_of_current_write;
 2011824:	e0fff717 	ldw	r3,-36(fp)
 2011828:	e0bffb17 	ldw	r2,-20(fp)
 201182c:	1885883a 	add	r2,r3,r2
 2011830:	e0bff715 	stw	r2,-36(fp)
      data_offset = next_page_start;
 2011834:	e0bffa17 	ldw	r2,-24(fp)
 2011838:	e0bffe15 	stw	r2,-8(fp)
  {

    /* "Block" writes must be broken up into the page writes that
     * the device understands.  Partial page writes are allowed.
     */
    while (length)
 201183c:	e0800217 	ldw	r2,8(fp)
 2011840:	103fd71e 	bne	r2,zero,20117a0 <__alt_mem_epcs_flash_controller+0xfe0087a0>
      length -= length_of_current_write;
      buffer_offset += length_of_current_write;
      data_offset = next_page_start;
    }
  }
  return ret_code;
 2011844:	e0bff917 	ldw	r2,-28(fp)
}
 2011848:	e037883a 	mov	sp,fp
 201184c:	dfc00117 	ldw	ra,4(sp)
 2011850:	df000017 	ldw	fp,0(sp)
 2011854:	dec00204 	addi	sp,sp,8
 2011858:	f800283a 	ret

0201185c <alt_epcs_flash_read>:
 *  to the beginning.  Reads that start beyond the end of the memory are
 *  flagged as errors with EIO (is there a better error code?).
 */
int alt_epcs_flash_read(alt_flash_dev* flash_info, int offset,
                        void* dest_addr, int length)
{
 201185c:	defff704 	addi	sp,sp,-36
 2011860:	dfc00815 	stw	ra,32(sp)
 2011864:	df000715 	stw	fp,28(sp)
 2011868:	df000704 	addi	fp,sp,28
 201186c:	e13ffc15 	stw	r4,-16(fp)
 2011870:	e17ffd15 	stw	r5,-12(fp)
 2011874:	e1bffe15 	stw	r6,-8(fp)
 2011878:	e1ffff15 	stw	r7,-4(fp)
  int ret_code = 0;
 201187c:	e03ffa15 	stw	zero,-24(fp)

  alt_flash_epcs_dev *f = (alt_flash_epcs_dev*)flash_info;
 2011880:	e0bffc17 	ldw	r2,-16(fp)
 2011884:	e0bffb15 	stw	r2,-20(fp)

  ret_code = alt_epcs_test_address(flash_info, offset);
 2011888:	e13ffc17 	ldw	r4,-16(fp)
 201188c:	e17ffd17 	ldw	r5,-12(fp)
 2011890:	20116500 	call	2011650 <alt_epcs_test_address>
 2011894:	e0bffa15 	stw	r2,-24(fp)

  if (ret_code >= 0)
 2011898:	e0bffa17 	ldw	r2,-24(fp)
 201189c:	10000f16 	blt	r2,zero,20118dc <alt_epcs_flash_read+0x80>
  {
    ret_code = epcs_read_buffer(f->register_base, offset, dest_addr, length,
 20118a0:	e0bffb17 	ldw	r2,-20(fp)
 20118a4:	10802d17 	ldw	r2,180(r2)
                                f->four_bytes_mode);
 20118a8:	e0fffb17 	ldw	r3,-20(fp)

  ret_code = alt_epcs_test_address(flash_info, offset);

  if (ret_code >= 0)
  {
    ret_code = epcs_read_buffer(f->register_base, offset, dest_addr, length,
 20118ac:	18c03117 	ldw	r3,196(r3)
 20118b0:	d8c00015 	stw	r3,0(sp)
 20118b4:	1009883a 	mov	r4,r2
 20118b8:	e17ffd17 	ldw	r5,-12(fp)
 20118bc:	e1bffe17 	ldw	r6,-8(fp)
 20118c0:	e1ffff17 	ldw	r7,-4(fp)
 20118c4:	2012ef40 	call	2012ef4 <epcs_read_buffer>
 20118c8:	e0bffa15 	stw	r2,-24(fp)
                                f->four_bytes_mode);

    /* epcs_read_buffer returns the number of buffers read, but
     * alt_epcs_flash_read returns 0 on success, <0 on failure.
     */
    if (ret_code == length)
 20118cc:	e0fffa17 	ldw	r3,-24(fp)
 20118d0:	e0bfff17 	ldw	r2,-4(fp)
 20118d4:	1880011e 	bne	r3,r2,20118dc <alt_epcs_flash_read+0x80>
    {
      ret_code = 0;
 20118d8:	e03ffa15 	stw	zero,-24(fp)
    }
  }
  return ret_code;
 20118dc:	e0bffa17 	ldw	r2,-24(fp)
}
 20118e0:	e037883a 	mov	sp,fp
 20118e4:	dfc00117 	ldw	ra,4(sp)
 20118e8:	df000017 	ldw	fp,0(sp)
 20118ec:	dec00204 	addi	sp,sp,8
 20118f0:	f800283a 	ret

020118f4 <altera_avalon_jtag_uart_read_fd>:
 *
 */

int 
altera_avalon_jtag_uart_read_fd(alt_fd* fd, char* buffer, int space)
{
 20118f4:	defffa04 	addi	sp,sp,-24
 20118f8:	dfc00515 	stw	ra,20(sp)
 20118fc:	df000415 	stw	fp,16(sp)
 2011900:	df000404 	addi	fp,sp,16
 2011904:	e13ffd15 	stw	r4,-12(fp)
 2011908:	e17ffe15 	stw	r5,-8(fp)
 201190c:	e1bfff15 	stw	r6,-4(fp)
    altera_avalon_jtag_uart_dev* dev = (altera_avalon_jtag_uart_dev*) fd->dev; 
 2011910:	e0bffd17 	ldw	r2,-12(fp)
 2011914:	10800017 	ldw	r2,0(r2)
 2011918:	e0bffc15 	stw	r2,-16(fp)

    return altera_avalon_jtag_uart_read(&dev->state, buffer, space,
 201191c:	e0bffc17 	ldw	r2,-16(fp)
 2011920:	10c00a04 	addi	r3,r2,40
      fd->fd_flags);
 2011924:	e0bffd17 	ldw	r2,-12(fp)
int 
altera_avalon_jtag_uart_read_fd(alt_fd* fd, char* buffer, int space)
{
    altera_avalon_jtag_uart_dev* dev = (altera_avalon_jtag_uart_dev*) fd->dev; 

    return altera_avalon_jtag_uart_read(&dev->state, buffer, space,
 2011928:	10800217 	ldw	r2,8(r2)
 201192c:	1809883a 	mov	r4,r3
 2011930:	e17ffe17 	ldw	r5,-8(fp)
 2011934:	e1bfff17 	ldw	r6,-4(fp)
 2011938:	100f883a 	mov	r7,r2
 201193c:	2011f1c0 	call	2011f1c <altera_avalon_jtag_uart_read>
      fd->fd_flags);
}
 2011940:	e037883a 	mov	sp,fp
 2011944:	dfc00117 	ldw	ra,4(sp)
 2011948:	df000017 	ldw	fp,0(sp)
 201194c:	dec00204 	addi	sp,sp,8
 2011950:	f800283a 	ret

02011954 <altera_avalon_jtag_uart_write_fd>:

int 
altera_avalon_jtag_uart_write_fd(alt_fd* fd, const char* buffer, int space)
{
 2011954:	defffa04 	addi	sp,sp,-24
 2011958:	dfc00515 	stw	ra,20(sp)
 201195c:	df000415 	stw	fp,16(sp)
 2011960:	df000404 	addi	fp,sp,16
 2011964:	e13ffd15 	stw	r4,-12(fp)
 2011968:	e17ffe15 	stw	r5,-8(fp)
 201196c:	e1bfff15 	stw	r6,-4(fp)
    altera_avalon_jtag_uart_dev* dev = (altera_avalon_jtag_uart_dev*) fd->dev; 
 2011970:	e0bffd17 	ldw	r2,-12(fp)
 2011974:	10800017 	ldw	r2,0(r2)
 2011978:	e0bffc15 	stw	r2,-16(fp)

    return altera_avalon_jtag_uart_write(&dev->state, buffer, space,
 201197c:	e0bffc17 	ldw	r2,-16(fp)
 2011980:	10c00a04 	addi	r3,r2,40
      fd->fd_flags);
 2011984:	e0bffd17 	ldw	r2,-12(fp)
int 
altera_avalon_jtag_uart_write_fd(alt_fd* fd, const char* buffer, int space)
{
    altera_avalon_jtag_uart_dev* dev = (altera_avalon_jtag_uart_dev*) fd->dev; 

    return altera_avalon_jtag_uart_write(&dev->state, buffer, space,
 2011988:	10800217 	ldw	r2,8(r2)
 201198c:	1809883a 	mov	r4,r3
 2011990:	e17ffe17 	ldw	r5,-8(fp)
 2011994:	e1bfff17 	ldw	r6,-4(fp)
 2011998:	100f883a 	mov	r7,r2
 201199c:	20121340 	call	2012134 <altera_avalon_jtag_uart_write>
      fd->fd_flags);
}
 20119a0:	e037883a 	mov	sp,fp
 20119a4:	dfc00117 	ldw	ra,4(sp)
 20119a8:	df000017 	ldw	fp,0(sp)
 20119ac:	dec00204 	addi	sp,sp,8
 20119b0:	f800283a 	ret

020119b4 <altera_avalon_jtag_uart_close_fd>:

#ifndef ALTERA_AVALON_JTAG_UART_SMALL

int 
altera_avalon_jtag_uart_close_fd(alt_fd* fd)
{
 20119b4:	defffc04 	addi	sp,sp,-16
 20119b8:	dfc00315 	stw	ra,12(sp)
 20119bc:	df000215 	stw	fp,8(sp)
 20119c0:	df000204 	addi	fp,sp,8
 20119c4:	e13fff15 	stw	r4,-4(fp)
    altera_avalon_jtag_uart_dev* dev = (altera_avalon_jtag_uart_dev*) fd->dev; 
 20119c8:	e0bfff17 	ldw	r2,-4(fp)
 20119cc:	10800017 	ldw	r2,0(r2)
 20119d0:	e0bffe15 	stw	r2,-8(fp)

    return altera_avalon_jtag_uart_close(&dev->state, fd->fd_flags);
 20119d4:	e0bffe17 	ldw	r2,-8(fp)
 20119d8:	10c00a04 	addi	r3,r2,40
 20119dc:	e0bfff17 	ldw	r2,-4(fp)
 20119e0:	10800217 	ldw	r2,8(r2)
 20119e4:	1809883a 	mov	r4,r3
 20119e8:	100b883a 	mov	r5,r2
 20119ec:	2011dc00 	call	2011dc0 <altera_avalon_jtag_uart_close>
}
 20119f0:	e037883a 	mov	sp,fp
 20119f4:	dfc00117 	ldw	ra,4(sp)
 20119f8:	df000017 	ldw	fp,0(sp)
 20119fc:	dec00204 	addi	sp,sp,8
 2011a00:	f800283a 	ret

02011a04 <altera_avalon_jtag_uart_ioctl_fd>:

int 
altera_avalon_jtag_uart_ioctl_fd(alt_fd* fd, int req, void* arg)
{
 2011a04:	defffa04 	addi	sp,sp,-24
 2011a08:	dfc00515 	stw	ra,20(sp)
 2011a0c:	df000415 	stw	fp,16(sp)
 2011a10:	df000404 	addi	fp,sp,16
 2011a14:	e13ffd15 	stw	r4,-12(fp)
 2011a18:	e17ffe15 	stw	r5,-8(fp)
 2011a1c:	e1bfff15 	stw	r6,-4(fp)
    altera_avalon_jtag_uart_dev* dev = (altera_avalon_jtag_uart_dev*) fd->dev;
 2011a20:	e0bffd17 	ldw	r2,-12(fp)
 2011a24:	10800017 	ldw	r2,0(r2)
 2011a28:	e0bffc15 	stw	r2,-16(fp)

    return altera_avalon_jtag_uart_ioctl(&dev->state, req, arg);
 2011a2c:	e0bffc17 	ldw	r2,-16(fp)
 2011a30:	10800a04 	addi	r2,r2,40
 2011a34:	1009883a 	mov	r4,r2
 2011a38:	e17ffe17 	ldw	r5,-8(fp)
 2011a3c:	e1bfff17 	ldw	r6,-4(fp)
 2011a40:	2011e280 	call	2011e28 <altera_avalon_jtag_uart_ioctl>
}
 2011a44:	e037883a 	mov	sp,fp
 2011a48:	dfc00117 	ldw	ra,4(sp)
 2011a4c:	df000017 	ldw	fp,0(sp)
 2011a50:	dec00204 	addi	sp,sp,8
 2011a54:	f800283a 	ret

02011a58 <altera_avalon_jtag_uart_init>:
 * Return 1 on sucessful IRQ register and 0 on failure.
 */

void altera_avalon_jtag_uart_init(altera_avalon_jtag_uart_state* sp, 
                                  int irq_controller_id, int irq)
{
 2011a58:	defffa04 	addi	sp,sp,-24
 2011a5c:	dfc00515 	stw	ra,20(sp)
 2011a60:	df000415 	stw	fp,16(sp)
 2011a64:	df000404 	addi	fp,sp,16
 2011a68:	e13ffd15 	stw	r4,-12(fp)
 2011a6c:	e17ffe15 	stw	r5,-8(fp)
 2011a70:	e1bfff15 	stw	r6,-4(fp)
  ALT_FLAG_CREATE(&sp->events, 0);
  ALT_SEM_CREATE(&sp->read_lock, 1);
  ALT_SEM_CREATE(&sp->write_lock, 1);

  /* enable read interrupts at the device */
  sp->irq_enable = ALTERA_AVALON_JTAG_UART_CONTROL_RE_MSK;
 2011a74:	e0bffd17 	ldw	r2,-12(fp)
 2011a78:	00c00044 	movi	r3,1
 2011a7c:	10c00815 	stw	r3,32(r2)

  IOWR_ALTERA_AVALON_JTAG_UART_CONTROL(sp->base, sp->irq_enable); 
 2011a80:	e0bffd17 	ldw	r2,-12(fp)
 2011a84:	10800017 	ldw	r2,0(r2)
 2011a88:	10800104 	addi	r2,r2,4
 2011a8c:	e0fffd17 	ldw	r3,-12(fp)
 2011a90:	18c00817 	ldw	r3,32(r3)
 2011a94:	10c00035 	stwio	r3,0(r2)
  
  /* register the interrupt handler */
#ifdef ALT_ENHANCED_INTERRUPT_API_PRESENT
  alt_ic_isr_register(irq_controller_id, irq, altera_avalon_jtag_uart_irq, 
 2011a98:	e0fffe17 	ldw	r3,-8(fp)
 2011a9c:	e0bfff17 	ldw	r2,-4(fp)
 2011aa0:	d8000015 	stw	zero,0(sp)
 2011aa4:	1809883a 	mov	r4,r3
 2011aa8:	100b883a 	mov	r5,r2
 2011aac:	01808074 	movhi	r6,513
 2011ab0:	3186c604 	addi	r6,r6,6936
 2011ab4:	e1fffd17 	ldw	r7,-12(fp)
 2011ab8:	20135ec0 	call	20135ec <alt_ic_isr_register>
#else
  alt_irq_register(irq, sp, altera_avalon_jtag_uart_irq);
#endif  

  /* Register an alarm to go off every second to check for presence of host */
  sp->host_inactive = 0;
 2011abc:	e0bffd17 	ldw	r2,-12(fp)
 2011ac0:	10000915 	stw	zero,36(r2)

  if (alt_alarm_start(&sp->alarm, alt_ticks_per_second(), 
 2011ac4:	e0bffd17 	ldw	r2,-12(fp)
 2011ac8:	10c00204 	addi	r3,r2,8
 * Obtain the system clock rate in ticks/s. 
 */

static ALT_INLINE alt_u32 ALT_ALWAYS_INLINE alt_ticks_per_second (void)
{
  return _alt_tick_rate;
 2011acc:	00808274 	movhi	r2,521
 2011ad0:	10accf04 	addi	r2,r2,-19652
 2011ad4:	10800017 	ldw	r2,0(r2)
 2011ad8:	1809883a 	mov	r4,r3
 2011adc:	100b883a 	mov	r5,r2
 2011ae0:	01808074 	movhi	r6,513
 2011ae4:	31874704 	addi	r6,r6,7452
 2011ae8:	e1fffd17 	ldw	r7,-12(fp)
 2011aec:	20101d80 	call	20101d8 <alt_alarm_start>
 2011af0:	1000040e 	bge	r2,zero,2011b04 <altera_avalon_jtag_uart_init+0xac>
    &altera_avalon_jtag_uart_timeout, sp) < 0)
  {
    /* If we can't set the alarm then record "don't know if host present" 
     * and behave as though the host is present.
     */
    sp->timeout = INT_MAX;
 2011af4:	e0bffd17 	ldw	r2,-12(fp)
 2011af8:	00e00034 	movhi	r3,32768
 2011afc:	18ffffc4 	addi	r3,r3,-1
 2011b00:	10c00115 	stw	r3,4(r2)
  }

  /* ALT_LOG - see altera_hal/HAL/inc/sys/alt_log_printf.h */ 
  ALT_LOG_JTAG_UART_ALARM_REGISTER(sp, sp->base);
}
 2011b04:	e037883a 	mov	sp,fp
 2011b08:	dfc00117 	ldw	ra,4(sp)
 2011b0c:	df000017 	ldw	fp,0(sp)
 2011b10:	dec00204 	addi	sp,sp,8
 2011b14:	f800283a 	ret

02011b18 <altera_avalon_jtag_uart_irq>:
#ifdef ALT_ENHANCED_INTERRUPT_API_PRESENT
static void altera_avalon_jtag_uart_irq(void* context)
#else
static void altera_avalon_jtag_uart_irq(void* context, alt_u32 id)
#endif
{
 2011b18:	defff804 	addi	sp,sp,-32
 2011b1c:	df000715 	stw	fp,28(sp)
 2011b20:	df000704 	addi	fp,sp,28
 2011b24:	e13fff15 	stw	r4,-4(fp)
  altera_avalon_jtag_uart_state* sp = (altera_avalon_jtag_uart_state*) context;
 2011b28:	e0bfff17 	ldw	r2,-4(fp)
 2011b2c:	e0bffb15 	stw	r2,-20(fp)
  unsigned int base = sp->base;
 2011b30:	e0bffb17 	ldw	r2,-20(fp)
 2011b34:	10800017 	ldw	r2,0(r2)
 2011b38:	e0bffc15 	stw	r2,-16(fp)
 2011b3c:	00000106 	br	2011b44 <altera_avalon_jtag_uart_irq+0x2c>
        
        /* Dummy read to ensure IRQ is cleared prior to ISR completion */
        IORD_ALTERA_AVALON_JTAG_UART_CONTROL(base);
      }
    }
  }
 2011b40:	0001883a 	nop
  /* ALT_LOG - see altera_hal/HAL/inc/sys/alt_log_printf.h */ 
  ALT_LOG_JTAG_UART_ISR_FUNCTION(base, sp);

  for ( ; ; )
  {
    unsigned int control = IORD_ALTERA_AVALON_JTAG_UART_CONTROL(base);
 2011b44:	e0bffc17 	ldw	r2,-16(fp)
 2011b48:	10800104 	addi	r2,r2,4
 2011b4c:	10800037 	ldwio	r2,0(r2)
 2011b50:	e0bffd15 	stw	r2,-12(fp)

    /* Return once nothing more to do */
    if ((control & (ALTERA_AVALON_JTAG_UART_CONTROL_RI_MSK | ALTERA_AVALON_JTAG_UART_CONTROL_WI_MSK)) == 0)
 2011b54:	e0bffd17 	ldw	r2,-12(fp)
 2011b58:	1080c00c 	andi	r2,r2,768
 2011b5c:	10006a26 	beq	r2,zero,2011d08 <altera_avalon_jtag_uart_irq+0x1f0>
      break;

    if (control & ALTERA_AVALON_JTAG_UART_CONTROL_RI_MSK)
 2011b60:	e0bffd17 	ldw	r2,-12(fp)
 2011b64:	1080400c 	andi	r2,r2,256
 2011b68:	10003326 	beq	r2,zero,2011c38 <altera_avalon_jtag_uart_irq+0x120>
    {
      /* process a read irq.  Start by assuming that there is data in the
       * receive FIFO (otherwise why would we have been interrupted?)
       */
      unsigned int data = 1 << ALTERA_AVALON_JTAG_UART_DATA_RAVAIL_OFST;
 2011b6c:	00800074 	movhi	r2,1
 2011b70:	e0bff915 	stw	r2,-28(fp)
      for ( ; ; )
      {
        /* Check whether there is space in the buffer.  If not then we must not
         * read any characters from the buffer as they will be lost.
         */
        unsigned int next = (sp->rx_in + 1) % ALTERA_AVALON_JTAG_UART_BUF_LEN;
 2011b74:	e0bffb17 	ldw	r2,-20(fp)
 2011b78:	10800a17 	ldw	r2,40(r2)
 2011b7c:	10800044 	addi	r2,r2,1
 2011b80:	1081ffcc 	andi	r2,r2,2047
 2011b84:	e0bffe15 	stw	r2,-8(fp)
        if (next == sp->rx_out)
 2011b88:	e0bffb17 	ldw	r2,-20(fp)
 2011b8c:	10c00b17 	ldw	r3,44(r2)
 2011b90:	e0bffe17 	ldw	r2,-8(fp)
 2011b94:	18801426 	beq	r3,r2,2011be8 <altera_avalon_jtag_uart_irq+0xd0>
          break;

        /* Try to remove a character from the FIFO and find out whether there
         * are any more characters remaining.
         */
        data = IORD_ALTERA_AVALON_JTAG_UART_DATA(base);
 2011b98:	e0bffc17 	ldw	r2,-16(fp)
 2011b9c:	10800037 	ldwio	r2,0(r2)
 2011ba0:	e0bff915 	stw	r2,-28(fp)
        
        if ((data & ALTERA_AVALON_JTAG_UART_DATA_RVALID_MSK) == 0)
 2011ba4:	e0bff917 	ldw	r2,-28(fp)
 2011ba8:	10a0000c 	andi	r2,r2,32768
 2011bac:	10001026 	beq	r2,zero,2011bf0 <altera_avalon_jtag_uart_irq+0xd8>
          break;

        sp->rx_buf[sp->rx_in] = (data & ALTERA_AVALON_JTAG_UART_DATA_DATA_MSK) >> ALTERA_AVALON_JTAG_UART_DATA_DATA_OFST;
 2011bb0:	e0bffb17 	ldw	r2,-20(fp)
 2011bb4:	10800a17 	ldw	r2,40(r2)
 2011bb8:	e0fff917 	ldw	r3,-28(fp)
 2011bbc:	e13ffb17 	ldw	r4,-20(fp)
 2011bc0:	2085883a 	add	r2,r4,r2
 2011bc4:	10800e04 	addi	r2,r2,56
 2011bc8:	10c00005 	stb	r3,0(r2)
        sp->rx_in = (sp->rx_in + 1) % ALTERA_AVALON_JTAG_UART_BUF_LEN;
 2011bcc:	e0bffb17 	ldw	r2,-20(fp)
 2011bd0:	10800a17 	ldw	r2,40(r2)
 2011bd4:	10800044 	addi	r2,r2,1
 2011bd8:	10c1ffcc 	andi	r3,r2,2047
 2011bdc:	e0bffb17 	ldw	r2,-20(fp)
 2011be0:	10c00a15 	stw	r3,40(r2)

        /* Post an event to notify jtag_uart_read that a character has been read */
        ALT_FLAG_POST (sp->events, ALT_JTAG_UART_READ_RDY, OS_FLAG_SET);
      }
 2011be4:	003fe306 	br	2011b74 <__alt_mem_epcs_flash_controller+0xfe008b74>
        /* Check whether there is space in the buffer.  If not then we must not
         * read any characters from the buffer as they will be lost.
         */
        unsigned int next = (sp->rx_in + 1) % ALTERA_AVALON_JTAG_UART_BUF_LEN;
        if (next == sp->rx_out)
          break;
 2011be8:	0001883a 	nop
 2011bec:	00000106 	br	2011bf4 <altera_avalon_jtag_uart_irq+0xdc>
         * are any more characters remaining.
         */
        data = IORD_ALTERA_AVALON_JTAG_UART_DATA(base);
        
        if ((data & ALTERA_AVALON_JTAG_UART_DATA_RVALID_MSK) == 0)
          break;
 2011bf0:	0001883a 	nop

        /* Post an event to notify jtag_uart_read that a character has been read */
        ALT_FLAG_POST (sp->events, ALT_JTAG_UART_READ_RDY, OS_FLAG_SET);
      }

      if (data & ALTERA_AVALON_JTAG_UART_DATA_RAVAIL_MSK)
 2011bf4:	e0bff917 	ldw	r2,-28(fp)
 2011bf8:	10bfffec 	andhi	r2,r2,65535
 2011bfc:	10000e26 	beq	r2,zero,2011c38 <altera_avalon_jtag_uart_irq+0x120>
      {
        /* If there is still data available here then the buffer is full 
         * so turn off receive interrupts until some space becomes available.
         */
        sp->irq_enable &= ~ALTERA_AVALON_JTAG_UART_CONTROL_RE_MSK;
 2011c00:	e0bffb17 	ldw	r2,-20(fp)
 2011c04:	10c00817 	ldw	r3,32(r2)
 2011c08:	00bfff84 	movi	r2,-2
 2011c0c:	1886703a 	and	r3,r3,r2
 2011c10:	e0bffb17 	ldw	r2,-20(fp)
 2011c14:	10c00815 	stw	r3,32(r2)
        IOWR_ALTERA_AVALON_JTAG_UART_CONTROL(base, sp->irq_enable);
 2011c18:	e0bffc17 	ldw	r2,-16(fp)
 2011c1c:	10800104 	addi	r2,r2,4
 2011c20:	e0fffb17 	ldw	r3,-20(fp)
 2011c24:	18c00817 	ldw	r3,32(r3)
 2011c28:	10c00035 	stwio	r3,0(r2)
        
        /* Dummy read to ensure IRQ is cleared prior to ISR completion */
        IORD_ALTERA_AVALON_JTAG_UART_CONTROL(base);
 2011c2c:	e0bffc17 	ldw	r2,-16(fp)
 2011c30:	10800104 	addi	r2,r2,4
 2011c34:	10800037 	ldwio	r2,0(r2)
      }
    }

    if (control & ALTERA_AVALON_JTAG_UART_CONTROL_WI_MSK)
 2011c38:	e0bffd17 	ldw	r2,-12(fp)
 2011c3c:	1080800c 	andi	r2,r2,512
 2011c40:	103fbf26 	beq	r2,zero,2011b40 <__alt_mem_epcs_flash_controller+0xfe008b40>
    {
      /* process a write irq */
      unsigned int space = (control & ALTERA_AVALON_JTAG_UART_CONTROL_WSPACE_MSK) >> ALTERA_AVALON_JTAG_UART_CONTROL_WSPACE_OFST;
 2011c44:	e0bffd17 	ldw	r2,-12(fp)
 2011c48:	1004d43a 	srli	r2,r2,16
 2011c4c:	e0bffa15 	stw	r2,-24(fp)

      while (space > 0 && sp->tx_out != sp->tx_in)
 2011c50:	00001406 	br	2011ca4 <altera_avalon_jtag_uart_irq+0x18c>
      {
        IOWR_ALTERA_AVALON_JTAG_UART_DATA(base, sp->tx_buf[sp->tx_out]);
 2011c54:	e0bffc17 	ldw	r2,-16(fp)
 2011c58:	e0fffb17 	ldw	r3,-20(fp)
 2011c5c:	18c00d17 	ldw	r3,52(r3)
 2011c60:	e13ffb17 	ldw	r4,-20(fp)
 2011c64:	20c7883a 	add	r3,r4,r3
 2011c68:	18c20e04 	addi	r3,r3,2104
 2011c6c:	18c00003 	ldbu	r3,0(r3)
 2011c70:	18c03fcc 	andi	r3,r3,255
 2011c74:	18c0201c 	xori	r3,r3,128
 2011c78:	18ffe004 	addi	r3,r3,-128
 2011c7c:	10c00035 	stwio	r3,0(r2)

        sp->tx_out = (sp->tx_out + 1) % ALTERA_AVALON_JTAG_UART_BUF_LEN;
 2011c80:	e0bffb17 	ldw	r2,-20(fp)
 2011c84:	10800d17 	ldw	r2,52(r2)
 2011c88:	10800044 	addi	r2,r2,1
 2011c8c:	10c1ffcc 	andi	r3,r2,2047
 2011c90:	e0bffb17 	ldw	r2,-20(fp)
 2011c94:	10c00d15 	stw	r3,52(r2)

        /* Post an event to notify jtag_uart_write that a character has been written */
        ALT_FLAG_POST (sp->events, ALT_JTAG_UART_WRITE_RDY, OS_FLAG_SET);

        space--;
 2011c98:	e0bffa17 	ldw	r2,-24(fp)
 2011c9c:	10bfffc4 	addi	r2,r2,-1
 2011ca0:	e0bffa15 	stw	r2,-24(fp)
    if (control & ALTERA_AVALON_JTAG_UART_CONTROL_WI_MSK)
    {
      /* process a write irq */
      unsigned int space = (control & ALTERA_AVALON_JTAG_UART_CONTROL_WSPACE_MSK) >> ALTERA_AVALON_JTAG_UART_CONTROL_WSPACE_OFST;

      while (space > 0 && sp->tx_out != sp->tx_in)
 2011ca4:	e0bffa17 	ldw	r2,-24(fp)
 2011ca8:	10000526 	beq	r2,zero,2011cc0 <altera_avalon_jtag_uart_irq+0x1a8>
 2011cac:	e0bffb17 	ldw	r2,-20(fp)
 2011cb0:	10c00d17 	ldw	r3,52(r2)
 2011cb4:	e0bffb17 	ldw	r2,-20(fp)
 2011cb8:	10800c17 	ldw	r2,48(r2)
 2011cbc:	18bfe51e 	bne	r3,r2,2011c54 <__alt_mem_epcs_flash_controller+0xfe008c54>
        ALT_FLAG_POST (sp->events, ALT_JTAG_UART_WRITE_RDY, OS_FLAG_SET);

        space--;
      }

      if (space > 0)
 2011cc0:	e0bffa17 	ldw	r2,-24(fp)
 2011cc4:	103f9e26 	beq	r2,zero,2011b40 <__alt_mem_epcs_flash_controller+0xfe008b40>
      {
        /* If we don't have any more data available then turn off the TX interrupt */
        sp->irq_enable &= ~ALTERA_AVALON_JTAG_UART_CONTROL_WE_MSK;
 2011cc8:	e0bffb17 	ldw	r2,-20(fp)
 2011ccc:	10c00817 	ldw	r3,32(r2)
 2011cd0:	00bfff44 	movi	r2,-3
 2011cd4:	1886703a 	and	r3,r3,r2
 2011cd8:	e0bffb17 	ldw	r2,-20(fp)
 2011cdc:	10c00815 	stw	r3,32(r2)
        IOWR_ALTERA_AVALON_JTAG_UART_CONTROL(sp->base, sp->irq_enable);
 2011ce0:	e0bffb17 	ldw	r2,-20(fp)
 2011ce4:	10800017 	ldw	r2,0(r2)
 2011ce8:	10800104 	addi	r2,r2,4
 2011cec:	e0fffb17 	ldw	r3,-20(fp)
 2011cf0:	18c00817 	ldw	r3,32(r3)
 2011cf4:	10c00035 	stwio	r3,0(r2)
        
        /* Dummy read to ensure IRQ is cleared prior to ISR completion */
        IORD_ALTERA_AVALON_JTAG_UART_CONTROL(base);
 2011cf8:	e0bffc17 	ldw	r2,-16(fp)
 2011cfc:	10800104 	addi	r2,r2,4
 2011d00:	10800037 	ldwio	r2,0(r2)
      }
    }
  }
 2011d04:	003f8e06 	br	2011b40 <__alt_mem_epcs_flash_controller+0xfe008b40>
  {
    unsigned int control = IORD_ALTERA_AVALON_JTAG_UART_CONTROL(base);

    /* Return once nothing more to do */
    if ((control & (ALTERA_AVALON_JTAG_UART_CONTROL_RI_MSK | ALTERA_AVALON_JTAG_UART_CONTROL_WI_MSK)) == 0)
      break;
 2011d08:	0001883a 	nop
        /* Dummy read to ensure IRQ is cleared prior to ISR completion */
        IORD_ALTERA_AVALON_JTAG_UART_CONTROL(base);
      }
    }
  }
}
 2011d0c:	e037883a 	mov	sp,fp
 2011d10:	df000017 	ldw	fp,0(sp)
 2011d14:	dec00104 	addi	sp,sp,4
 2011d18:	f800283a 	ret

02011d1c <altera_avalon_jtag_uart_timeout>:
 * Timeout routine is called every second
 */

static alt_u32 
altera_avalon_jtag_uart_timeout(void* context) 
{
 2011d1c:	defffc04 	addi	sp,sp,-16
 2011d20:	df000315 	stw	fp,12(sp)
 2011d24:	df000304 	addi	fp,sp,12
 2011d28:	e13fff15 	stw	r4,-4(fp)
  altera_avalon_jtag_uart_state* sp = (altera_avalon_jtag_uart_state *) context;
 2011d2c:	e0bfff17 	ldw	r2,-4(fp)
 2011d30:	e0bffd15 	stw	r2,-12(fp)

  unsigned int control = IORD_ALTERA_AVALON_JTAG_UART_CONTROL(sp->base);
 2011d34:	e0bffd17 	ldw	r2,-12(fp)
 2011d38:	10800017 	ldw	r2,0(r2)
 2011d3c:	10800104 	addi	r2,r2,4
 2011d40:	10800037 	ldwio	r2,0(r2)
 2011d44:	e0bffe15 	stw	r2,-8(fp)

  if (control & ALTERA_AVALON_JTAG_UART_CONTROL_AC_MSK)
 2011d48:	e0bffe17 	ldw	r2,-8(fp)
 2011d4c:	1081000c 	andi	r2,r2,1024
 2011d50:	10000a26 	beq	r2,zero,2011d7c <altera_avalon_jtag_uart_timeout+0x60>
  {
    IOWR_ALTERA_AVALON_JTAG_UART_CONTROL(sp->base, sp->irq_enable | ALTERA_AVALON_JTAG_UART_CONTROL_AC_MSK);
 2011d54:	e0bffd17 	ldw	r2,-12(fp)
 2011d58:	10800017 	ldw	r2,0(r2)
 2011d5c:	10800104 	addi	r2,r2,4
 2011d60:	e0fffd17 	ldw	r3,-12(fp)
 2011d64:	18c00817 	ldw	r3,32(r3)
 2011d68:	18c10014 	ori	r3,r3,1024
 2011d6c:	10c00035 	stwio	r3,0(r2)
    sp->host_inactive = 0;
 2011d70:	e0bffd17 	ldw	r2,-12(fp)
 2011d74:	10000915 	stw	zero,36(r2)
 2011d78:	00000a06 	br	2011da4 <altera_avalon_jtag_uart_timeout+0x88>
  }
  else if (sp->host_inactive < INT_MAX - 2) {
 2011d7c:	e0bffd17 	ldw	r2,-12(fp)
 2011d80:	10800917 	ldw	r2,36(r2)
 2011d84:	00e00034 	movhi	r3,32768
 2011d88:	18ffff04 	addi	r3,r3,-4
 2011d8c:	18800536 	bltu	r3,r2,2011da4 <altera_avalon_jtag_uart_timeout+0x88>
    sp->host_inactive++;
 2011d90:	e0bffd17 	ldw	r2,-12(fp)
 2011d94:	10800917 	ldw	r2,36(r2)
 2011d98:	10c00044 	addi	r3,r2,1
 2011d9c:	e0bffd17 	ldw	r2,-12(fp)
 2011da0:	10c00915 	stw	r3,36(r2)
 2011da4:	00808274 	movhi	r2,521
 2011da8:	10accf04 	addi	r2,r2,-19652
 2011dac:	10800017 	ldw	r2,0(r2)
      ALT_FLAG_POST (sp->events, ALT_JTAG_UART_TIMEOUT, OS_FLAG_SET);
    }
  }

  return alt_ticks_per_second();
}
 2011db0:	e037883a 	mov	sp,fp
 2011db4:	df000017 	ldw	fp,0(sp)
 2011db8:	dec00104 	addi	sp,sp,4
 2011dbc:	f800283a 	ret

02011dc0 <altera_avalon_jtag_uart_close>:
 * The close routine is not implemented for the small driver; instead it will
 * map to null. This is because the small driver simply waits while characters
 * are transmitted; there is no interrupt-serviced buffer to empty 
 */
int altera_avalon_jtag_uart_close(altera_avalon_jtag_uart_state* sp, int flags)
{
 2011dc0:	defffd04 	addi	sp,sp,-12
 2011dc4:	df000215 	stw	fp,8(sp)
 2011dc8:	df000204 	addi	fp,sp,8
 2011dcc:	e13ffe15 	stw	r4,-8(fp)
 2011dd0:	e17fff15 	stw	r5,-4(fp)
  /* 
   * Wait for all transmit data to be emptied by the JTAG UART ISR, or
   * for a host-inactivity timeout, in which case transmit data will be lost
   */
  while ( (sp->tx_out != sp->tx_in) && (sp->host_inactive < sp->timeout) ) {
 2011dd4:	00000506 	br	2011dec <altera_avalon_jtag_uart_close+0x2c>
    if (flags & O_NONBLOCK) {
 2011dd8:	e0bfff17 	ldw	r2,-4(fp)
 2011ddc:	1090000c 	andi	r2,r2,16384
 2011de0:	10000226 	beq	r2,zero,2011dec <altera_avalon_jtag_uart_close+0x2c>
      return -EWOULDBLOCK; 
 2011de4:	00bffd44 	movi	r2,-11
 2011de8:	00000b06 	br	2011e18 <altera_avalon_jtag_uart_close+0x58>
{
  /* 
   * Wait for all transmit data to be emptied by the JTAG UART ISR, or
   * for a host-inactivity timeout, in which case transmit data will be lost
   */
  while ( (sp->tx_out != sp->tx_in) && (sp->host_inactive < sp->timeout) ) {
 2011dec:	e0bffe17 	ldw	r2,-8(fp)
 2011df0:	10c00d17 	ldw	r3,52(r2)
 2011df4:	e0bffe17 	ldw	r2,-8(fp)
 2011df8:	10800c17 	ldw	r2,48(r2)
 2011dfc:	18800526 	beq	r3,r2,2011e14 <altera_avalon_jtag_uart_close+0x54>
 2011e00:	e0bffe17 	ldw	r2,-8(fp)
 2011e04:	10c00917 	ldw	r3,36(r2)
 2011e08:	e0bffe17 	ldw	r2,-8(fp)
 2011e0c:	10800117 	ldw	r2,4(r2)
 2011e10:	18bff136 	bltu	r3,r2,2011dd8 <__alt_mem_epcs_flash_controller+0xfe008dd8>
    if (flags & O_NONBLOCK) {
      return -EWOULDBLOCK; 
    }
  }

  return 0;
 2011e14:	0005883a 	mov	r2,zero
}
 2011e18:	e037883a 	mov	sp,fp
 2011e1c:	df000017 	ldw	fp,0(sp)
 2011e20:	dec00104 	addi	sp,sp,4
 2011e24:	f800283a 	ret

02011e28 <altera_avalon_jtag_uart_ioctl>:
/* ----------------------------------------------------------- */

int 
altera_avalon_jtag_uart_ioctl(altera_avalon_jtag_uart_state* sp, int req,
  void* arg)
{
 2011e28:	defffa04 	addi	sp,sp,-24
 2011e2c:	df000515 	stw	fp,20(sp)
 2011e30:	df000504 	addi	fp,sp,20
 2011e34:	e13ffd15 	stw	r4,-12(fp)
 2011e38:	e17ffe15 	stw	r5,-8(fp)
 2011e3c:	e1bfff15 	stw	r6,-4(fp)
  int rc = -ENOTTY;
 2011e40:	00bff9c4 	movi	r2,-25
 2011e44:	e0bffb15 	stw	r2,-20(fp)

  switch (req)
 2011e48:	e0bffe17 	ldw	r2,-8(fp)
 2011e4c:	10da8060 	cmpeqi	r3,r2,27137
 2011e50:	1800031e 	bne	r3,zero,2011e60 <altera_avalon_jtag_uart_ioctl+0x38>
 2011e54:	109a80a0 	cmpeqi	r2,r2,27138
 2011e58:	1000181e 	bne	r2,zero,2011ebc <altera_avalon_jtag_uart_ioctl+0x94>
 2011e5c:	00002606 	br	2011ef8 <altera_avalon_jtag_uart_ioctl+0xd0>
  {
  case TIOCSTIMEOUT:
    /* Set the time to wait until assuming host is not connected */
    if (sp->timeout != INT_MAX)
 2011e60:	e0bffd17 	ldw	r2,-12(fp)
 2011e64:	10c00117 	ldw	r3,4(r2)
 2011e68:	00a00034 	movhi	r2,32768
 2011e6c:	10bfffc4 	addi	r2,r2,-1
 2011e70:	18802226 	beq	r3,r2,2011efc <altera_avalon_jtag_uart_ioctl+0xd4>
    {
      int timeout = *((int *)arg);
 2011e74:	e0bfff17 	ldw	r2,-4(fp)
 2011e78:	10800017 	ldw	r2,0(r2)
 2011e7c:	e0bffc15 	stw	r2,-16(fp)
      sp->timeout = (timeout >= 2 && timeout < INT_MAX) ? timeout : INT_MAX - 1;
 2011e80:	e0bffc17 	ldw	r2,-16(fp)
 2011e84:	10800090 	cmplti	r2,r2,2
 2011e88:	1000061e 	bne	r2,zero,2011ea4 <altera_avalon_jtag_uart_ioctl+0x7c>
 2011e8c:	e0fffc17 	ldw	r3,-16(fp)
 2011e90:	00a00034 	movhi	r2,32768
 2011e94:	10bfffc4 	addi	r2,r2,-1
 2011e98:	18800226 	beq	r3,r2,2011ea4 <altera_avalon_jtag_uart_ioctl+0x7c>
 2011e9c:	e0bffc17 	ldw	r2,-16(fp)
 2011ea0:	00000206 	br	2011eac <altera_avalon_jtag_uart_ioctl+0x84>
 2011ea4:	00a00034 	movhi	r2,32768
 2011ea8:	10bfff84 	addi	r2,r2,-2
 2011eac:	e0fffd17 	ldw	r3,-12(fp)
 2011eb0:	18800115 	stw	r2,4(r3)
      rc = 0;
 2011eb4:	e03ffb15 	stw	zero,-20(fp)
    }
    break;
 2011eb8:	00001006 	br	2011efc <altera_avalon_jtag_uart_ioctl+0xd4>

  case TIOCGCONNECTED:
    /* Find out whether host is connected */
    if (sp->timeout != INT_MAX)
 2011ebc:	e0bffd17 	ldw	r2,-12(fp)
 2011ec0:	10c00117 	ldw	r3,4(r2)
 2011ec4:	00a00034 	movhi	r2,32768
 2011ec8:	10bfffc4 	addi	r2,r2,-1
 2011ecc:	18800d26 	beq	r3,r2,2011f04 <altera_avalon_jtag_uart_ioctl+0xdc>
    {
      *((int *)arg) = (sp->host_inactive < sp->timeout) ? 1 : 0;
 2011ed0:	e0bffd17 	ldw	r2,-12(fp)
 2011ed4:	10c00917 	ldw	r3,36(r2)
 2011ed8:	e0bffd17 	ldw	r2,-12(fp)
 2011edc:	10800117 	ldw	r2,4(r2)
 2011ee0:	1885803a 	cmpltu	r2,r3,r2
 2011ee4:	10c03fcc 	andi	r3,r2,255
 2011ee8:	e0bfff17 	ldw	r2,-4(fp)
 2011eec:	10c00015 	stw	r3,0(r2)
      rc = 0;
 2011ef0:	e03ffb15 	stw	zero,-20(fp)
    }
    break;
 2011ef4:	00000306 	br	2011f04 <altera_avalon_jtag_uart_ioctl+0xdc>

  default:
    break;
 2011ef8:	00000306 	br	2011f08 <altera_avalon_jtag_uart_ioctl+0xe0>
    {
      int timeout = *((int *)arg);
      sp->timeout = (timeout >= 2 && timeout < INT_MAX) ? timeout : INT_MAX - 1;
      rc = 0;
    }
    break;
 2011efc:	0001883a 	nop
 2011f00:	00000106 	br	2011f08 <altera_avalon_jtag_uart_ioctl+0xe0>
    if (sp->timeout != INT_MAX)
    {
      *((int *)arg) = (sp->host_inactive < sp->timeout) ? 1 : 0;
      rc = 0;
    }
    break;
 2011f04:	0001883a 	nop

  default:
    break;
  }

  return rc;
 2011f08:	e0bffb17 	ldw	r2,-20(fp)
}
 2011f0c:	e037883a 	mov	sp,fp
 2011f10:	df000017 	ldw	fp,0(sp)
 2011f14:	dec00104 	addi	sp,sp,4
 2011f18:	f800283a 	ret

02011f1c <altera_avalon_jtag_uart_read>:
/* ----------------------------------------------------------- */

int 
altera_avalon_jtag_uart_read(altera_avalon_jtag_uart_state* sp, 
  char * buffer, int space, int flags)
{
 2011f1c:	defff304 	addi	sp,sp,-52
 2011f20:	dfc00c15 	stw	ra,48(sp)
 2011f24:	df000b15 	stw	fp,44(sp)
 2011f28:	df000b04 	addi	fp,sp,44
 2011f2c:	e13ffc15 	stw	r4,-16(fp)
 2011f30:	e17ffd15 	stw	r5,-12(fp)
 2011f34:	e1bffe15 	stw	r6,-8(fp)
 2011f38:	e1ffff15 	stw	r7,-4(fp)
  char * ptr = buffer;
 2011f3c:	e0bffd17 	ldw	r2,-12(fp)
 2011f40:	e0bff515 	stw	r2,-44(fp)
   * When running in a multi threaded environment, obtain the "read_lock"
   * semaphore. This ensures that reading from the device is thread-safe.
   */
  ALT_SEM_PEND (sp->read_lock, 0);

  while (space > 0)
 2011f44:	00004706 	br	2012064 <altera_avalon_jtag_uart_read+0x148>
    unsigned int in, out;

    /* Read as much data as possible */
    do
    {
      in  = sp->rx_in;
 2011f48:	e0bffc17 	ldw	r2,-16(fp)
 2011f4c:	10800a17 	ldw	r2,40(r2)
 2011f50:	e0bff715 	stw	r2,-36(fp)
      out = sp->rx_out;
 2011f54:	e0bffc17 	ldw	r2,-16(fp)
 2011f58:	10800b17 	ldw	r2,44(r2)
 2011f5c:	e0bff815 	stw	r2,-32(fp)

      if (in >= out)
 2011f60:	e0fff717 	ldw	r3,-36(fp)
 2011f64:	e0bff817 	ldw	r2,-32(fp)
 2011f68:	18800536 	bltu	r3,r2,2011f80 <altera_avalon_jtag_uart_read+0x64>
        n = in - out;
 2011f6c:	e0fff717 	ldw	r3,-36(fp)
 2011f70:	e0bff817 	ldw	r2,-32(fp)
 2011f74:	1885c83a 	sub	r2,r3,r2
 2011f78:	e0bff615 	stw	r2,-40(fp)
 2011f7c:	00000406 	br	2011f90 <altera_avalon_jtag_uart_read+0x74>
      else
        n = ALTERA_AVALON_JTAG_UART_BUF_LEN - out;
 2011f80:	00c20004 	movi	r3,2048
 2011f84:	e0bff817 	ldw	r2,-32(fp)
 2011f88:	1885c83a 	sub	r2,r3,r2
 2011f8c:	e0bff615 	stw	r2,-40(fp)

      if (n == 0)
 2011f90:	e0bff617 	ldw	r2,-40(fp)
 2011f94:	10001e26 	beq	r2,zero,2012010 <altera_avalon_jtag_uart_read+0xf4>
        break; /* No more data available */

      if (n > space)
 2011f98:	e0fffe17 	ldw	r3,-8(fp)
 2011f9c:	e0bff617 	ldw	r2,-40(fp)
 2011fa0:	1880022e 	bgeu	r3,r2,2011fac <altera_avalon_jtag_uart_read+0x90>
        n = space;
 2011fa4:	e0bffe17 	ldw	r2,-8(fp)
 2011fa8:	e0bff615 	stw	r2,-40(fp)

      memcpy(ptr, sp->rx_buf + out, n);
 2011fac:	e0bff817 	ldw	r2,-32(fp)
 2011fb0:	10800e04 	addi	r2,r2,56
 2011fb4:	e0fffc17 	ldw	r3,-16(fp)
 2011fb8:	1885883a 	add	r2,r3,r2
 2011fbc:	e13ff517 	ldw	r4,-44(fp)
 2011fc0:	100b883a 	mov	r5,r2
 2011fc4:	e1bff617 	ldw	r6,-40(fp)
 2011fc8:	20097d00 	call	20097d0 <memcpy>
      ptr   += n;
 2011fcc:	e0fff517 	ldw	r3,-44(fp)
 2011fd0:	e0bff617 	ldw	r2,-40(fp)
 2011fd4:	1885883a 	add	r2,r3,r2
 2011fd8:	e0bff515 	stw	r2,-44(fp)
      space -= n;
 2011fdc:	e0fffe17 	ldw	r3,-8(fp)
 2011fe0:	e0bff617 	ldw	r2,-40(fp)
 2011fe4:	1885c83a 	sub	r2,r3,r2
 2011fe8:	e0bffe15 	stw	r2,-8(fp)

      sp->rx_out = (out + n) % ALTERA_AVALON_JTAG_UART_BUF_LEN;
 2011fec:	e0fff817 	ldw	r3,-32(fp)
 2011ff0:	e0bff617 	ldw	r2,-40(fp)
 2011ff4:	1885883a 	add	r2,r3,r2
 2011ff8:	10c1ffcc 	andi	r3,r2,2047
 2011ffc:	e0bffc17 	ldw	r2,-16(fp)
 2012000:	10c00b15 	stw	r3,44(r2)
    }
    while (space > 0);
 2012004:	e0bffe17 	ldw	r2,-8(fp)
 2012008:	00bfcf16 	blt	zero,r2,2011f48 <__alt_mem_epcs_flash_controller+0xfe008f48>
 201200c:	00000106 	br	2012014 <altera_avalon_jtag_uart_read+0xf8>
        n = in - out;
      else
        n = ALTERA_AVALON_JTAG_UART_BUF_LEN - out;

      if (n == 0)
        break; /* No more data available */
 2012010:	0001883a 	nop
      sp->rx_out = (out + n) % ALTERA_AVALON_JTAG_UART_BUF_LEN;
    }
    while (space > 0);

    /* If we read any data then return it */
    if (ptr != buffer)
 2012014:	e0fff517 	ldw	r3,-44(fp)
 2012018:	e0bffd17 	ldw	r2,-12(fp)
 201201c:	1880141e 	bne	r3,r2,2012070 <altera_avalon_jtag_uart_read+0x154>
      break;

    /* If in non-blocking mode then return error */
    if (flags & O_NONBLOCK)
 2012020:	e0bfff17 	ldw	r2,-4(fp)
 2012024:	1090000c 	andi	r2,r2,16384
 2012028:	1000131e 	bne	r2,zero,2012078 <altera_avalon_jtag_uart_read+0x15c>
      while (in == sp->rx_in && sp->host_inactive < sp->timeout)
        ;
    }
#else
    /* No OS: Always spin */
    while (in == sp->rx_in && sp->host_inactive < sp->timeout)
 201202c:	0001883a 	nop
 2012030:	e0bffc17 	ldw	r2,-16(fp)
 2012034:	10c00a17 	ldw	r3,40(r2)
 2012038:	e0bff717 	ldw	r2,-36(fp)
 201203c:	1880051e 	bne	r3,r2,2012054 <altera_avalon_jtag_uart_read+0x138>
 2012040:	e0bffc17 	ldw	r2,-16(fp)
 2012044:	10c00917 	ldw	r3,36(r2)
 2012048:	e0bffc17 	ldw	r2,-16(fp)
 201204c:	10800117 	ldw	r2,4(r2)
 2012050:	18bff736 	bltu	r3,r2,2012030 <__alt_mem_epcs_flash_controller+0xfe009030>
      ;
#endif /* __ucosii__ */

    if (in == sp->rx_in)
 2012054:	e0bffc17 	ldw	r2,-16(fp)
 2012058:	10c00a17 	ldw	r3,40(r2)
 201205c:	e0bff717 	ldw	r2,-36(fp)
 2012060:	18800726 	beq	r3,r2,2012080 <altera_avalon_jtag_uart_read+0x164>
   * When running in a multi threaded environment, obtain the "read_lock"
   * semaphore. This ensures that reading from the device is thread-safe.
   */
  ALT_SEM_PEND (sp->read_lock, 0);

  while (space > 0)
 2012064:	e0bffe17 	ldw	r2,-8(fp)
 2012068:	00bfb716 	blt	zero,r2,2011f48 <__alt_mem_epcs_flash_controller+0xfe008f48>
 201206c:	00000506 	br	2012084 <altera_avalon_jtag_uart_read+0x168>
    }
    while (space > 0);

    /* If we read any data then return it */
    if (ptr != buffer)
      break;
 2012070:	0001883a 	nop
 2012074:	00000306 	br	2012084 <altera_avalon_jtag_uart_read+0x168>

    /* If in non-blocking mode then return error */
    if (flags & O_NONBLOCK)
      break;
 2012078:	0001883a 	nop
 201207c:	00000106 	br	2012084 <altera_avalon_jtag_uart_read+0x168>
    while (in == sp->rx_in && sp->host_inactive < sp->timeout)
      ;
#endif /* __ucosii__ */

    if (in == sp->rx_in)
      break;
 2012080:	0001883a 	nop
   * semaphore so that other threads can access the buffer.
   */

  ALT_SEM_POST (sp->read_lock);

  if (ptr != buffer)
 2012084:	e0fff517 	ldw	r3,-44(fp)
 2012088:	e0bffd17 	ldw	r2,-12(fp)
 201208c:	18801726 	beq	r3,r2,20120ec <altera_avalon_jtag_uart_read+0x1d0>
static ALT_INLINE alt_irq_context ALT_ALWAYS_INLINE 
       alt_irq_disable_all (void)
{
  alt_irq_context context;

  NIOS2_READ_STATUS (context);
 2012090:	0005303a 	rdctl	r2,status
 2012094:	e0bffa15 	stw	r2,-24(fp)

  NIOS2_WRITE_STATUS (context & ~NIOS2_STATUS_PIE_MSK);
 2012098:	e0fffa17 	ldw	r3,-24(fp)
 201209c:	00bfff84 	movi	r2,-2
 20120a0:	1884703a 	and	r2,r3,r2
 20120a4:	1001703a 	wrctl	status,r2
  
  return context;
 20120a8:	e0bffa17 	ldw	r2,-24(fp)
  {
    /* If we read any data then there is space in the buffer so enable interrupts */
    context = alt_irq_disable_all();
 20120ac:	e0bff915 	stw	r2,-28(fp)
    sp->irq_enable |= ALTERA_AVALON_JTAG_UART_CONTROL_RE_MSK;
 20120b0:	e0bffc17 	ldw	r2,-16(fp)
 20120b4:	10800817 	ldw	r2,32(r2)
 20120b8:	10c00054 	ori	r3,r2,1
 20120bc:	e0bffc17 	ldw	r2,-16(fp)
 20120c0:	10c00815 	stw	r3,32(r2)
    IOWR_ALTERA_AVALON_JTAG_UART_CONTROL(sp->base, sp->irq_enable);
 20120c4:	e0bffc17 	ldw	r2,-16(fp)
 20120c8:	10800017 	ldw	r2,0(r2)
 20120cc:	10800104 	addi	r2,r2,4
 20120d0:	e0fffc17 	ldw	r3,-16(fp)
 20120d4:	18c00817 	ldw	r3,32(r3)
 20120d8:	10c00035 	stwio	r3,0(r2)
 20120dc:	e0bff917 	ldw	r2,-28(fp)
 20120e0:	e0bffb15 	stw	r2,-20(fp)
  status &= ~NIOS2_STATUS_PIE_MSK;
  status |= (context & NIOS2_STATUS_PIE_MSK);
  
  NIOS2_WRITE_STATUS (status);
#else
  NIOS2_WRITE_STATUS (context);
 20120e4:	e0bffb17 	ldw	r2,-20(fp)
 20120e8:	1001703a 	wrctl	status,r2
    alt_irq_enable_all(context);
  }

  if (ptr != buffer)
 20120ec:	e0fff517 	ldw	r3,-44(fp)
 20120f0:	e0bffd17 	ldw	r2,-12(fp)
 20120f4:	18800426 	beq	r3,r2,2012108 <altera_avalon_jtag_uart_read+0x1ec>
    return ptr - buffer;
 20120f8:	e0fff517 	ldw	r3,-44(fp)
 20120fc:	e0bffd17 	ldw	r2,-12(fp)
 2012100:	1885c83a 	sub	r2,r3,r2
 2012104:	00000606 	br	2012120 <altera_avalon_jtag_uart_read+0x204>
  else if (flags & O_NONBLOCK)
 2012108:	e0bfff17 	ldw	r2,-4(fp)
 201210c:	1090000c 	andi	r2,r2,16384
 2012110:	10000226 	beq	r2,zero,201211c <altera_avalon_jtag_uart_read+0x200>
    return -EWOULDBLOCK;
 2012114:	00bffd44 	movi	r2,-11
 2012118:	00000106 	br	2012120 <altera_avalon_jtag_uart_read+0x204>
  else
    return -EIO;
 201211c:	00bffec4 	movi	r2,-5
}
 2012120:	e037883a 	mov	sp,fp
 2012124:	dfc00117 	ldw	ra,4(sp)
 2012128:	df000017 	ldw	fp,0(sp)
 201212c:	dec00204 	addi	sp,sp,8
 2012130:	f800283a 	ret

02012134 <altera_avalon_jtag_uart_write>:
/* ----------------------------------------------------------- */

int 
altera_avalon_jtag_uart_write(altera_avalon_jtag_uart_state* sp, 
  const char * ptr, int count, int flags)
{
 2012134:	defff304 	addi	sp,sp,-52
 2012138:	dfc00c15 	stw	ra,48(sp)
 201213c:	df000b15 	stw	fp,44(sp)
 2012140:	df000b04 	addi	fp,sp,44
 2012144:	e13ffc15 	stw	r4,-16(fp)
 2012148:	e17ffd15 	stw	r5,-12(fp)
 201214c:	e1bffe15 	stw	r6,-8(fp)
 2012150:	e1ffff15 	stw	r7,-4(fp)
  /* Remove warning at optimisation level 03 by seting out to 0 */
  unsigned int in, out=0;
 2012154:	e03ff515 	stw	zero,-44(fp)
  unsigned int n;
  alt_irq_context context;

  const char * start = ptr;
 2012158:	e0bffd17 	ldw	r2,-12(fp)
 201215c:	e0bff715 	stw	r2,-36(fp)
  ALT_SEM_PEND (sp->write_lock, 0);

  do
  {
    /* Copy as much as we can into the transmit buffer */
    while (count > 0)
 2012160:	00003706 	br	2012240 <altera_avalon_jtag_uart_write+0x10c>
    {
      /* We need a stable value of the out pointer to calculate the space available */
      in  = sp->tx_in;
 2012164:	e0bffc17 	ldw	r2,-16(fp)
 2012168:	10800c17 	ldw	r2,48(r2)
 201216c:	e0bff815 	stw	r2,-32(fp)
      out = sp->tx_out;
 2012170:	e0bffc17 	ldw	r2,-16(fp)
 2012174:	10800d17 	ldw	r2,52(r2)
 2012178:	e0bff515 	stw	r2,-44(fp)

      if (in < out)
 201217c:	e0fff817 	ldw	r3,-32(fp)
 2012180:	e0bff517 	ldw	r2,-44(fp)
 2012184:	1880062e 	bgeu	r3,r2,20121a0 <altera_avalon_jtag_uart_write+0x6c>
        n = out - 1 - in;
 2012188:	e0fff517 	ldw	r3,-44(fp)
 201218c:	e0bff817 	ldw	r2,-32(fp)
 2012190:	1885c83a 	sub	r2,r3,r2
 2012194:	10bfffc4 	addi	r2,r2,-1
 2012198:	e0bff615 	stw	r2,-40(fp)
 201219c:	00000b06 	br	20121cc <altera_avalon_jtag_uart_write+0x98>
      else if (out > 0)
 20121a0:	e0bff517 	ldw	r2,-44(fp)
 20121a4:	10000526 	beq	r2,zero,20121bc <altera_avalon_jtag_uart_write+0x88>
        n = ALTERA_AVALON_JTAG_UART_BUF_LEN - in;
 20121a8:	00c20004 	movi	r3,2048
 20121ac:	e0bff817 	ldw	r2,-32(fp)
 20121b0:	1885c83a 	sub	r2,r3,r2
 20121b4:	e0bff615 	stw	r2,-40(fp)
 20121b8:	00000406 	br	20121cc <altera_avalon_jtag_uart_write+0x98>
      else
        n = ALTERA_AVALON_JTAG_UART_BUF_LEN - 1 - in;
 20121bc:	00c1ffc4 	movi	r3,2047
 20121c0:	e0bff817 	ldw	r2,-32(fp)
 20121c4:	1885c83a 	sub	r2,r3,r2
 20121c8:	e0bff615 	stw	r2,-40(fp)

      if (n == 0)
 20121cc:	e0bff617 	ldw	r2,-40(fp)
 20121d0:	10001e26 	beq	r2,zero,201224c <altera_avalon_jtag_uart_write+0x118>
        break;

      if (n > count)
 20121d4:	e0fffe17 	ldw	r3,-8(fp)
 20121d8:	e0bff617 	ldw	r2,-40(fp)
 20121dc:	1880022e 	bgeu	r3,r2,20121e8 <altera_avalon_jtag_uart_write+0xb4>
        n = count;
 20121e0:	e0bffe17 	ldw	r2,-8(fp)
 20121e4:	e0bff615 	stw	r2,-40(fp)

      memcpy(sp->tx_buf + in, ptr, n);
 20121e8:	e0bff817 	ldw	r2,-32(fp)
 20121ec:	10820e04 	addi	r2,r2,2104
 20121f0:	e0fffc17 	ldw	r3,-16(fp)
 20121f4:	1885883a 	add	r2,r3,r2
 20121f8:	1009883a 	mov	r4,r2
 20121fc:	e17ffd17 	ldw	r5,-12(fp)
 2012200:	e1bff617 	ldw	r6,-40(fp)
 2012204:	20097d00 	call	20097d0 <memcpy>
      ptr   += n;
 2012208:	e0fffd17 	ldw	r3,-12(fp)
 201220c:	e0bff617 	ldw	r2,-40(fp)
 2012210:	1885883a 	add	r2,r3,r2
 2012214:	e0bffd15 	stw	r2,-12(fp)
      count -= n;
 2012218:	e0fffe17 	ldw	r3,-8(fp)
 201221c:	e0bff617 	ldw	r2,-40(fp)
 2012220:	1885c83a 	sub	r2,r3,r2
 2012224:	e0bffe15 	stw	r2,-8(fp)

      sp->tx_in = (in + n) % ALTERA_AVALON_JTAG_UART_BUF_LEN;
 2012228:	e0fff817 	ldw	r3,-32(fp)
 201222c:	e0bff617 	ldw	r2,-40(fp)
 2012230:	1885883a 	add	r2,r3,r2
 2012234:	10c1ffcc 	andi	r3,r2,2047
 2012238:	e0bffc17 	ldw	r2,-16(fp)
 201223c:	10c00c15 	stw	r3,48(r2)
  ALT_SEM_PEND (sp->write_lock, 0);

  do
  {
    /* Copy as much as we can into the transmit buffer */
    while (count > 0)
 2012240:	e0bffe17 	ldw	r2,-8(fp)
 2012244:	00bfc716 	blt	zero,r2,2012164 <__alt_mem_epcs_flash_controller+0xfe009164>
 2012248:	00000106 	br	2012250 <altera_avalon_jtag_uart_write+0x11c>
        n = ALTERA_AVALON_JTAG_UART_BUF_LEN - in;
      else
        n = ALTERA_AVALON_JTAG_UART_BUF_LEN - 1 - in;

      if (n == 0)
        break;
 201224c:	0001883a 	nop
static ALT_INLINE alt_irq_context ALT_ALWAYS_INLINE 
       alt_irq_disable_all (void)
{
  alt_irq_context context;

  NIOS2_READ_STATUS (context);
 2012250:	0005303a 	rdctl	r2,status
 2012254:	e0bffa15 	stw	r2,-24(fp)

  NIOS2_WRITE_STATUS (context & ~NIOS2_STATUS_PIE_MSK);
 2012258:	e0fffa17 	ldw	r3,-24(fp)
 201225c:	00bfff84 	movi	r2,-2
 2012260:	1884703a 	and	r2,r3,r2
 2012264:	1001703a 	wrctl	status,r2
  
  return context;
 2012268:	e0bffa17 	ldw	r2,-24(fp)
     * to enable interrupts if there is no space left in the FIFO
     *
     * For now kick the interrupt routine every time to make it transmit 
     * the data 
     */
    context = alt_irq_disable_all();
 201226c:	e0bff915 	stw	r2,-28(fp)
    sp->irq_enable |= ALTERA_AVALON_JTAG_UART_CONTROL_WE_MSK;
 2012270:	e0bffc17 	ldw	r2,-16(fp)
 2012274:	10800817 	ldw	r2,32(r2)
 2012278:	10c00094 	ori	r3,r2,2
 201227c:	e0bffc17 	ldw	r2,-16(fp)
 2012280:	10c00815 	stw	r3,32(r2)
    IOWR_ALTERA_AVALON_JTAG_UART_CONTROL(sp->base, sp->irq_enable);
 2012284:	e0bffc17 	ldw	r2,-16(fp)
 2012288:	10800017 	ldw	r2,0(r2)
 201228c:	10800104 	addi	r2,r2,4
 2012290:	e0fffc17 	ldw	r3,-16(fp)
 2012294:	18c00817 	ldw	r3,32(r3)
 2012298:	10c00035 	stwio	r3,0(r2)
 201229c:	e0bff917 	ldw	r2,-28(fp)
 20122a0:	e0bffb15 	stw	r2,-20(fp)
  status &= ~NIOS2_STATUS_PIE_MSK;
  status |= (context & NIOS2_STATUS_PIE_MSK);
  
  NIOS2_WRITE_STATUS (status);
#else
  NIOS2_WRITE_STATUS (context);
 20122a4:	e0bffb17 	ldw	r2,-20(fp)
 20122a8:	1001703a 	wrctl	status,r2
    /* 
     * If there is any data left then either return now or block until 
     * some has been sent 
     */
    /* consider: test whether there is anything there while doing this and delay for at most 2s. */
    if (count > 0)
 20122ac:	e0bffe17 	ldw	r2,-8(fp)
 20122b0:	0080100e 	bge	zero,r2,20122f4 <altera_avalon_jtag_uart_write+0x1c0>
    {
      if (flags & O_NONBLOCK)
 20122b4:	e0bfff17 	ldw	r2,-4(fp)
 20122b8:	1090000c 	andi	r2,r2,16384
 20122bc:	1000101e 	bne	r2,zero,2012300 <altera_avalon_jtag_uart_write+0x1cc>
      /*
       * No OS present: Always wait for data to be removed from buffer.  Once
       * the interrupt routine has removed some data then we will be able to
       * insert some more.
       */
      while (out == sp->tx_out && sp->host_inactive < sp->timeout)
 20122c0:	0001883a 	nop
 20122c4:	e0bffc17 	ldw	r2,-16(fp)
 20122c8:	10c00d17 	ldw	r3,52(r2)
 20122cc:	e0bff517 	ldw	r2,-44(fp)
 20122d0:	1880051e 	bne	r3,r2,20122e8 <altera_avalon_jtag_uart_write+0x1b4>
 20122d4:	e0bffc17 	ldw	r2,-16(fp)
 20122d8:	10c00917 	ldw	r3,36(r2)
 20122dc:	e0bffc17 	ldw	r2,-16(fp)
 20122e0:	10800117 	ldw	r2,4(r2)
 20122e4:	18bff736 	bltu	r3,r2,20122c4 <__alt_mem_epcs_flash_controller+0xfe0092c4>
        ;
#endif /* __ucosii__ */

      if  (sp->host_inactive)
 20122e8:	e0bffc17 	ldw	r2,-16(fp)
 20122ec:	10800917 	ldw	r2,36(r2)
 20122f0:	1000051e 	bne	r2,zero,2012308 <altera_avalon_jtag_uart_write+0x1d4>
         break;
    }
  }
  while (count > 0);
 20122f4:	e0bffe17 	ldw	r2,-8(fp)
 20122f8:	00bfd116 	blt	zero,r2,2012240 <__alt_mem_epcs_flash_controller+0xfe009240>
 20122fc:	00000306 	br	201230c <altera_avalon_jtag_uart_write+0x1d8>
     */
    /* consider: test whether there is anything there while doing this and delay for at most 2s. */
    if (count > 0)
    {
      if (flags & O_NONBLOCK)
        break;
 2012300:	0001883a 	nop
 2012304:	00000106 	br	201230c <altera_avalon_jtag_uart_write+0x1d8>
      while (out == sp->tx_out && sp->host_inactive < sp->timeout)
        ;
#endif /* __ucosii__ */

      if  (sp->host_inactive)
         break;
 2012308:	0001883a 	nop
   * Now that access to the circular buffer is complete, release the write
   * semaphore so that other threads can access the buffer.
   */
  ALT_SEM_POST (sp->write_lock);

  if (ptr != start)
 201230c:	e0fffd17 	ldw	r3,-12(fp)
 2012310:	e0bff717 	ldw	r2,-36(fp)
 2012314:	18800426 	beq	r3,r2,2012328 <altera_avalon_jtag_uart_write+0x1f4>
    return ptr - start;
 2012318:	e0fffd17 	ldw	r3,-12(fp)
 201231c:	e0bff717 	ldw	r2,-36(fp)
 2012320:	1885c83a 	sub	r2,r3,r2
 2012324:	00000606 	br	2012340 <altera_avalon_jtag_uart_write+0x20c>
  else if (flags & O_NONBLOCK)
 2012328:	e0bfff17 	ldw	r2,-4(fp)
 201232c:	1090000c 	andi	r2,r2,16384
 2012330:	10000226 	beq	r2,zero,201233c <altera_avalon_jtag_uart_write+0x208>
    return -EWOULDBLOCK;
 2012334:	00bffd44 	movi	r2,-11
 2012338:	00000106 	br	2012340 <altera_avalon_jtag_uart_write+0x20c>
    sp->tx_out = sp->tx_in = 0;
    return ptr - start + count;
  }
#endif
  else
    return -EIO; /* Host not connected */
 201233c:	00bffec4 	movi	r2,-5
}
 2012340:	e037883a 	mov	sp,fp
 2012344:	dfc00117 	ldw	ra,4(sp)
 2012348:	df000017 	ldw	fp,0(sp)
 201234c:	dec00204 	addi	sp,sp,8
 2012350:	f800283a 	ret

02012354 <alt_avalon_timer_sc_irq>:
#ifdef ALT_ENHANCED_INTERRUPT_API_PRESENT
static void alt_avalon_timer_sc_irq (void* base)
#else
static void alt_avalon_timer_sc_irq (void* base, alt_u32 id)
#endif
{
 2012354:	defffa04 	addi	sp,sp,-24
 2012358:	dfc00515 	stw	ra,20(sp)
 201235c:	df000415 	stw	fp,16(sp)
 2012360:	df000404 	addi	fp,sp,16
 2012364:	e13fff15 	stw	r4,-4(fp)
  alt_irq_context cpu_sr;
  
  /* clear the interrupt */
  IOWR_ALTERA_AVALON_TIMER_STATUS (base, 0);
 2012368:	0007883a 	mov	r3,zero
 201236c:	e0bfff17 	ldw	r2,-4(fp)
 2012370:	10c00035 	stwio	r3,0(r2)
  /* 
   * Dummy read to ensure IRQ is negated before the ISR returns.
   * The control register is read because reading the status
   * register has side-effects per the register map documentation.
   */
  IORD_ALTERA_AVALON_TIMER_CONTROL (base);
 2012374:	e0bfff17 	ldw	r2,-4(fp)
 2012378:	10800104 	addi	r2,r2,4
 201237c:	10800037 	ldwio	r2,0(r2)
static ALT_INLINE alt_irq_context ALT_ALWAYS_INLINE 
       alt_irq_disable_all (void)
{
  alt_irq_context context;

  NIOS2_READ_STATUS (context);
 2012380:	0005303a 	rdctl	r2,status
 2012384:	e0bffd15 	stw	r2,-12(fp)

  NIOS2_WRITE_STATUS (context & ~NIOS2_STATUS_PIE_MSK);
 2012388:	e0fffd17 	ldw	r3,-12(fp)
 201238c:	00bfff84 	movi	r2,-2
 2012390:	1884703a 	and	r2,r3,r2
 2012394:	1001703a 	wrctl	status,r2
  
  return context;
 2012398:	e0bffd17 	ldw	r2,-12(fp)

  /* 
   * Notify the system of a clock tick. disable interrupts 
   * during this time to safely support ISR preemption
   */
  cpu_sr = alt_irq_disable_all();
 201239c:	e0bffc15 	stw	r2,-16(fp)
  alt_tick ();
 20123a0:	2010c280 	call	2010c28 <alt_tick>
 20123a4:	e0bffc17 	ldw	r2,-16(fp)
 20123a8:	e0bffe15 	stw	r2,-8(fp)
  status &= ~NIOS2_STATUS_PIE_MSK;
  status |= (context & NIOS2_STATUS_PIE_MSK);
  
  NIOS2_WRITE_STATUS (status);
#else
  NIOS2_WRITE_STATUS (context);
 20123ac:	e0bffe17 	ldw	r2,-8(fp)
 20123b0:	1001703a 	wrctl	status,r2
  alt_irq_enable_all(cpu_sr);
}
 20123b4:	e037883a 	mov	sp,fp
 20123b8:	dfc00117 	ldw	ra,4(sp)
 20123bc:	df000017 	ldw	fp,0(sp)
 20123c0:	dec00204 	addi	sp,sp,8
 20123c4:	f800283a 	ret

020123c8 <alt_avalon_timer_sc_init>:
 * auto-generated alt_sys_init() function.
 */

void alt_avalon_timer_sc_init (void* base, alt_u32 irq_controller_id, 
                                alt_u32 irq, alt_u32 freq)
{
 20123c8:	defff804 	addi	sp,sp,-32
 20123cc:	dfc00715 	stw	ra,28(sp)
 20123d0:	df000615 	stw	fp,24(sp)
 20123d4:	df000604 	addi	fp,sp,24
 20123d8:	e13ffc15 	stw	r4,-16(fp)
 20123dc:	e17ffd15 	stw	r5,-12(fp)
 20123e0:	e1bffe15 	stw	r6,-8(fp)
 20123e4:	e1ffff15 	stw	r7,-4(fp)
 20123e8:	e0bfff17 	ldw	r2,-4(fp)
 20123ec:	e0bffb15 	stw	r2,-20(fp)
 * in order to initialise the value of the clock frequency.
 */

static ALT_INLINE int ALT_ALWAYS_INLINE alt_sysclk_init (alt_u32 nticks)
{
  if (! _alt_tick_rate)
 20123f0:	00808274 	movhi	r2,521
 20123f4:	10accf04 	addi	r2,r2,-19652
 20123f8:	10800017 	ldw	r2,0(r2)
 20123fc:	1000041e 	bne	r2,zero,2012410 <alt_avalon_timer_sc_init+0x48>
  {
    _alt_tick_rate = nticks;
 2012400:	00808274 	movhi	r2,521
 2012404:	10accf04 	addi	r2,r2,-19652
 2012408:	e0fffb17 	ldw	r3,-20(fp)
 201240c:	10c00015 	stw	r3,0(r2)
  
  alt_sysclk_init (freq);
  
  /* set to free running mode */
  
  IOWR_ALTERA_AVALON_TIMER_CONTROL (base, 
 2012410:	e0bffc17 	ldw	r2,-16(fp)
 2012414:	10800104 	addi	r2,r2,4
 2012418:	00c001c4 	movi	r3,7
 201241c:	10c00035 	stwio	r3,0(r2)
            ALTERA_AVALON_TIMER_CONTROL_CONT_MSK |
            ALTERA_AVALON_TIMER_CONTROL_START_MSK);

  /* register the interrupt handler, and enable the interrupt */
#ifdef ALT_ENHANCED_INTERRUPT_API_PRESENT
  alt_ic_isr_register(irq_controller_id, irq, alt_avalon_timer_sc_irq, 
 2012420:	d8000015 	stw	zero,0(sp)
 2012424:	e13ffd17 	ldw	r4,-12(fp)
 2012428:	e17ffe17 	ldw	r5,-8(fp)
 201242c:	01808074 	movhi	r6,513
 2012430:	3188d504 	addi	r6,r6,9044
 2012434:	e1fffc17 	ldw	r7,-16(fp)
 2012438:	20135ec0 	call	20135ec <alt_ic_isr_register>
                      base, NULL);
#else
  alt_irq_register (irq, base, alt_avalon_timer_sc_irq);
#endif  
}
 201243c:	e037883a 	mov	sp,fp
 2012440:	dfc00117 	ldw	ra,4(sp)
 2012444:	df000017 	ldw	fp,0(sp)
 2012448:	dec00204 	addi	sp,sp,8
 201244c:	f800283a 	ret

02012450 <altera_avalon_uart_read_fd>:
 *
 */

int 
altera_avalon_uart_read_fd(alt_fd* fd, char* buffer, int space)
{
 2012450:	defffa04 	addi	sp,sp,-24
 2012454:	dfc00515 	stw	ra,20(sp)
 2012458:	df000415 	stw	fp,16(sp)
 201245c:	df000404 	addi	fp,sp,16
 2012460:	e13ffd15 	stw	r4,-12(fp)
 2012464:	e17ffe15 	stw	r5,-8(fp)
 2012468:	e1bfff15 	stw	r6,-4(fp)
    altera_avalon_uart_dev* dev = (altera_avalon_uart_dev*) fd->dev; 
 201246c:	e0bffd17 	ldw	r2,-12(fp)
 2012470:	10800017 	ldw	r2,0(r2)
 2012474:	e0bffc15 	stw	r2,-16(fp)

    return altera_avalon_uart_read(&dev->state, buffer, space,
 2012478:	e0bffc17 	ldw	r2,-16(fp)
 201247c:	10c00a04 	addi	r3,r2,40
      fd->fd_flags);
 2012480:	e0bffd17 	ldw	r2,-12(fp)
int 
altera_avalon_uart_read_fd(alt_fd* fd, char* buffer, int space)
{
    altera_avalon_uart_dev* dev = (altera_avalon_uart_dev*) fd->dev; 

    return altera_avalon_uart_read(&dev->state, buffer, space,
 2012484:	10800217 	ldw	r2,8(r2)
 2012488:	1809883a 	mov	r4,r3
 201248c:	e17ffe17 	ldw	r5,-8(fp)
 2012490:	e1bfff17 	ldw	r6,-4(fp)
 2012494:	100f883a 	mov	r7,r2
 2012498:	20129580 	call	2012958 <altera_avalon_uart_read>
      fd->fd_flags);
}
 201249c:	e037883a 	mov	sp,fp
 20124a0:	dfc00117 	ldw	ra,4(sp)
 20124a4:	df000017 	ldw	fp,0(sp)
 20124a8:	dec00204 	addi	sp,sp,8
 20124ac:	f800283a 	ret

020124b0 <altera_avalon_uart_write_fd>:

int 
altera_avalon_uart_write_fd(alt_fd* fd, const char* buffer, int space)
{
 20124b0:	defffa04 	addi	sp,sp,-24
 20124b4:	dfc00515 	stw	ra,20(sp)
 20124b8:	df000415 	stw	fp,16(sp)
 20124bc:	df000404 	addi	fp,sp,16
 20124c0:	e13ffd15 	stw	r4,-12(fp)
 20124c4:	e17ffe15 	stw	r5,-8(fp)
 20124c8:	e1bfff15 	stw	r6,-4(fp)
    altera_avalon_uart_dev* dev = (altera_avalon_uart_dev*) fd->dev; 
 20124cc:	e0bffd17 	ldw	r2,-12(fp)
 20124d0:	10800017 	ldw	r2,0(r2)
 20124d4:	e0bffc15 	stw	r2,-16(fp)

    return altera_avalon_uart_write(&dev->state, buffer, space,
 20124d8:	e0bffc17 	ldw	r2,-16(fp)
 20124dc:	10c00a04 	addi	r3,r2,40
      fd->fd_flags);
 20124e0:	e0bffd17 	ldw	r2,-12(fp)
int 
altera_avalon_uart_write_fd(alt_fd* fd, const char* buffer, int space)
{
    altera_avalon_uart_dev* dev = (altera_avalon_uart_dev*) fd->dev; 

    return altera_avalon_uart_write(&dev->state, buffer, space,
 20124e4:	10800217 	ldw	r2,8(r2)
 20124e8:	1809883a 	mov	r4,r3
 20124ec:	e17ffe17 	ldw	r5,-8(fp)
 20124f0:	e1bfff17 	ldw	r6,-4(fp)
 20124f4:	100f883a 	mov	r7,r2
 20124f8:	2012b880 	call	2012b88 <altera_avalon_uart_write>
      fd->fd_flags);
}
 20124fc:	e037883a 	mov	sp,fp
 2012500:	dfc00117 	ldw	ra,4(sp)
 2012504:	df000017 	ldw	fp,0(sp)
 2012508:	dec00204 	addi	sp,sp,8
 201250c:	f800283a 	ret

02012510 <altera_avalon_uart_close_fd>:

#endif /* ALTERA_AVALON_UART_USE_IOCTL */

int 
altera_avalon_uart_close_fd(alt_fd* fd)
{
 2012510:	defffc04 	addi	sp,sp,-16
 2012514:	dfc00315 	stw	ra,12(sp)
 2012518:	df000215 	stw	fp,8(sp)
 201251c:	df000204 	addi	fp,sp,8
 2012520:	e13fff15 	stw	r4,-4(fp)
    altera_avalon_uart_dev* dev = (altera_avalon_uart_dev*) fd->dev; 
 2012524:	e0bfff17 	ldw	r2,-4(fp)
 2012528:	10800017 	ldw	r2,0(r2)
 201252c:	e0bffe15 	stw	r2,-8(fp)

    return altera_avalon_uart_close(&dev->state, fd->fd_flags);
 2012530:	e0bffe17 	ldw	r2,-8(fp)
 2012534:	10c00a04 	addi	r3,r2,40
 2012538:	e0bfff17 	ldw	r2,-4(fp)
 201253c:	10800217 	ldw	r2,8(r2)
 2012540:	1809883a 	mov	r4,r3
 2012544:	100b883a 	mov	r5,r2
 2012548:	20128b40 	call	20128b4 <altera_avalon_uart_close>
}
 201254c:	e037883a 	mov	sp,fp
 2012550:	dfc00117 	ldw	ra,4(sp)
 2012554:	df000017 	ldw	fp,0(sp)
 2012558:	dec00204 	addi	sp,sp,8
 201255c:	f800283a 	ret

02012560 <altera_avalon_uart_init>:
  alt_u32 status);

void 
altera_avalon_uart_init(altera_avalon_uart_state* sp, 
  alt_u32 irq_controller_id,  alt_u32 irq)
{
 2012560:	defff804 	addi	sp,sp,-32
 2012564:	dfc00715 	stw	ra,28(sp)
 2012568:	df000615 	stw	fp,24(sp)
 201256c:	df000604 	addi	fp,sp,24
 2012570:	e13ffd15 	stw	r4,-12(fp)
 2012574:	e17ffe15 	stw	r5,-8(fp)
 2012578:	e1bfff15 	stw	r6,-4(fp)
  void* base = sp->base;
 201257c:	e0bffd17 	ldw	r2,-12(fp)
 2012580:	10800017 	ldw	r2,0(r2)
 2012584:	e0bffb15 	stw	r2,-20(fp)
 * HAL.
 */

static ALT_INLINE int ALT_ALWAYS_INLINE alt_no_error (void)
{
  return 0;
 2012588:	0005883a 	mov	r2,zero
   * Initialise the read and write flags and the semaphores used to 
   * protect access to the circular buffers when running in a multi-threaded
   * environment.
   */
  error = ALT_FLAG_CREATE (&sp->events, 0)    || 
          ALT_SEM_CREATE (&sp->read_lock, 1)  ||
 201258c:	1000041e 	bne	r2,zero,20125a0 <altera_avalon_uart_init+0x40>
 2012590:	0005883a 	mov	r2,zero
  /* 
   * Initialise the read and write flags and the semaphores used to 
   * protect access to the circular buffers when running in a multi-threaded
   * environment.
   */
  error = ALT_FLAG_CREATE (&sp->events, 0)    || 
 2012594:	1000021e 	bne	r2,zero,20125a0 <altera_avalon_uart_init+0x40>
 2012598:	0005883a 	mov	r2,zero
          ALT_SEM_CREATE (&sp->read_lock, 1)  ||
 201259c:	10000226 	beq	r2,zero,20125a8 <altera_avalon_uart_init+0x48>
 20125a0:	00800044 	movi	r2,1
 20125a4:	00000106 	br	20125ac <altera_avalon_uart_init+0x4c>
 20125a8:	0005883a 	mov	r2,zero
  /* 
   * Initialise the read and write flags and the semaphores used to 
   * protect access to the circular buffers when running in a multi-threaded
   * environment.
   */
  error = ALT_FLAG_CREATE (&sp->events, 0)    || 
 20125ac:	e0bffc15 	stw	r2,-16(fp)
          ALT_SEM_CREATE (&sp->read_lock, 1)  ||
          ALT_SEM_CREATE (&sp->write_lock, 1);

  if (!error)
 20125b0:	e0bffc17 	ldw	r2,-16(fp)
 20125b4:	10000f1e 	bne	r2,zero,20125f4 <altera_avalon_uart_init+0x94>
  {
    /* enable interrupts at the device */
    sp->ctrl = ALTERA_AVALON_UART_CONTROL_RTS_MSK  |
 20125b8:	e0bffd17 	ldw	r2,-12(fp)
 20125bc:	00c32004 	movi	r3,3200
 20125c0:	10c00115 	stw	r3,4(r2)
                ALTERA_AVALON_UART_CONTROL_RRDY_MSK |
                ALTERA_AVALON_UART_CONTROL_DCTS_MSK;

    IOWR_ALTERA_AVALON_UART_CONTROL(base, sp->ctrl); 
 20125c4:	e0bffb17 	ldw	r2,-20(fp)
 20125c8:	10800304 	addi	r2,r2,12
 20125cc:	e0fffd17 	ldw	r3,-12(fp)
 20125d0:	18c00117 	ldw	r3,4(r3)
 20125d4:	10c00035 	stwio	r3,0(r2)
  
    /* register the interrupt handler */
#ifdef ALT_ENHANCED_INTERRUPT_API_PRESENT
    alt_ic_isr_register(irq_controller_id, irq, altera_avalon_uart_irq, sp, 
 20125d8:	d8000015 	stw	zero,0(sp)
 20125dc:	e13ffe17 	ldw	r4,-8(fp)
 20125e0:	e17fff17 	ldw	r5,-4(fp)
 20125e4:	01808074 	movhi	r6,513
 20125e8:	31898204 	addi	r6,r6,9736
 20125ec:	e1fffd17 	ldw	r7,-12(fp)
 20125f0:	20135ec0 	call	20135ec <alt_ic_isr_register>
      0x0);
#else
    alt_irq_register (irq, sp, altera_avalon_uart_irq);
#endif  
  }
}
 20125f4:	e037883a 	mov	sp,fp
 20125f8:	dfc00117 	ldw	ra,4(sp)
 20125fc:	df000017 	ldw	fp,0(sp)
 2012600:	dec00204 	addi	sp,sp,8
 2012604:	f800283a 	ret

02012608 <altera_avalon_uart_irq>:
#ifdef ALT_ENHANCED_INTERRUPT_API_PRESENT
static void altera_avalon_uart_irq(void* context)
#else
static void altera_avalon_uart_irq(void* context, alt_u32 id)
#endif
{
 2012608:	defffa04 	addi	sp,sp,-24
 201260c:	dfc00515 	stw	ra,20(sp)
 2012610:	df000415 	stw	fp,16(sp)
 2012614:	df000404 	addi	fp,sp,16
 2012618:	e13fff15 	stw	r4,-4(fp)
  alt_u32 status;

  altera_avalon_uart_state* sp = (altera_avalon_uart_state*) context;
 201261c:	e0bfff17 	ldw	r2,-4(fp)
 2012620:	e0bffc15 	stw	r2,-16(fp)
  void* base               = sp->base;
 2012624:	e0bffc17 	ldw	r2,-16(fp)
 2012628:	10800017 	ldw	r2,0(r2)
 201262c:	e0bffd15 	stw	r2,-12(fp)
  /*
   * Read the status register in order to determine the cause of the
   * interrupt.
   */

  status = IORD_ALTERA_AVALON_UART_STATUS(base);
 2012630:	e0bffd17 	ldw	r2,-12(fp)
 2012634:	10800204 	addi	r2,r2,8
 2012638:	10800037 	ldwio	r2,0(r2)
 201263c:	e0bffe15 	stw	r2,-8(fp)

  /* Clear any error flags set at the device */
  IOWR_ALTERA_AVALON_UART_STATUS(base, 0);
 2012640:	e0bffd17 	ldw	r2,-12(fp)
 2012644:	10800204 	addi	r2,r2,8
 2012648:	0007883a 	mov	r3,zero
 201264c:	10c00035 	stwio	r3,0(r2)

  /* Dummy read to ensure IRQ is negated before ISR returns */
  IORD_ALTERA_AVALON_UART_STATUS(base);
 2012650:	e0bffd17 	ldw	r2,-12(fp)
 2012654:	10800204 	addi	r2,r2,8
 2012658:	10800037 	ldwio	r2,0(r2)
  
  /* process a read irq */
  if (status & ALTERA_AVALON_UART_STATUS_RRDY_MSK)
 201265c:	e0bffe17 	ldw	r2,-8(fp)
 2012660:	1080200c 	andi	r2,r2,128
 2012664:	10000326 	beq	r2,zero,2012674 <altera_avalon_uart_irq+0x6c>
  {
    altera_avalon_uart_rxirq(sp, status);
 2012668:	e13ffc17 	ldw	r4,-16(fp)
 201266c:	e17ffe17 	ldw	r5,-8(fp)
 2012670:	20126a00 	call	20126a0 <altera_avalon_uart_rxirq>
  }

  /* process a write irq */
  if (status & (ALTERA_AVALON_UART_STATUS_TRDY_MSK | 
 2012674:	e0bffe17 	ldw	r2,-8(fp)
 2012678:	1081100c 	andi	r2,r2,1088
 201267c:	10000326 	beq	r2,zero,201268c <altera_avalon_uart_irq+0x84>
                  ALTERA_AVALON_UART_STATUS_DCTS_MSK))
  {
    altera_avalon_uart_txirq(sp, status);
 2012680:	e13ffc17 	ldw	r4,-16(fp)
 2012684:	e17ffe17 	ldw	r5,-8(fp)
 2012688:	20127780 	call	2012778 <altera_avalon_uart_txirq>
  }
  

}
 201268c:	e037883a 	mov	sp,fp
 2012690:	dfc00117 	ldw	ra,4(sp)
 2012694:	df000017 	ldw	fp,0(sp)
 2012698:	dec00204 	addi	sp,sp,8
 201269c:	f800283a 	ret

020126a0 <altera_avalon_uart_rxirq>:
 * the receive circular buffer, and sets the apropriate flags to indicate 
 * that there is data ready to be processed.
 */
static void 
altera_avalon_uart_rxirq(altera_avalon_uart_state* sp, alt_u32 status)
{
 20126a0:	defffc04 	addi	sp,sp,-16
 20126a4:	df000315 	stw	fp,12(sp)
 20126a8:	df000304 	addi	fp,sp,12
 20126ac:	e13ffe15 	stw	r4,-8(fp)
 20126b0:	e17fff15 	stw	r5,-4(fp)
  alt_u32 next;
  
  /* If there was an error, discard the data */

  if (status & (ALTERA_AVALON_UART_STATUS_PE_MSK | 
 20126b4:	e0bfff17 	ldw	r2,-4(fp)
 20126b8:	108000cc 	andi	r2,r2,3
 20126bc:	1000291e 	bne	r2,zero,2012764 <altera_avalon_uart_rxirq+0xc4>
   * In a multi-threaded environment, set the read event flag to indicate
   * that there is data ready. This is only done if the circular buffer was
   * previously empty.
   */

  if (sp->rx_end == sp->rx_start)
 20126c0:	e0bffe17 	ldw	r2,-8(fp)
 20126c4:	10800317 	ldw	r2,12(r2)
    ALT_FLAG_POST (sp->events, ALT_UART_READ_RDY, OS_FLAG_SET);
  }

  /* Determine which slot to use next in the circular buffer */

  next = (sp->rx_end + 1) & ALT_AVALON_UART_BUF_MSK;
 20126c8:	e0bffe17 	ldw	r2,-8(fp)
 20126cc:	10800317 	ldw	r2,12(r2)
 20126d0:	10800044 	addi	r2,r2,1
 20126d4:	10800fcc 	andi	r2,r2,63
 20126d8:	e0bffd15 	stw	r2,-12(fp)

  /* Transfer data from the device to the circular buffer */

  sp->rx_buf[sp->rx_end] = IORD_ALTERA_AVALON_UART_RXDATA(sp->base);
 20126dc:	e0bffe17 	ldw	r2,-8(fp)
 20126e0:	10800317 	ldw	r2,12(r2)
 20126e4:	e0fffe17 	ldw	r3,-8(fp)
 20126e8:	18c00017 	ldw	r3,0(r3)
 20126ec:	18c00037 	ldwio	r3,0(r3)
 20126f0:	e13ffe17 	ldw	r4,-8(fp)
 20126f4:	2085883a 	add	r2,r4,r2
 20126f8:	10800704 	addi	r2,r2,28
 20126fc:	10c00005 	stb	r3,0(r2)

  sp->rx_end = next;
 2012700:	e0bffe17 	ldw	r2,-8(fp)
 2012704:	e0fffd17 	ldw	r3,-12(fp)
 2012708:	10c00315 	stw	r3,12(r2)

  next = (sp->rx_end + 1) & ALT_AVALON_UART_BUF_MSK;
 201270c:	e0bffe17 	ldw	r2,-8(fp)
 2012710:	10800317 	ldw	r2,12(r2)
 2012714:	10800044 	addi	r2,r2,1
 2012718:	10800fcc 	andi	r2,r2,63
 201271c:	e0bffd15 	stw	r2,-12(fp)
  /*
   * If the cicular buffer was full, disable interrupts. Interrupts will be
   * re-enabled when data is removed from the buffer.
   */

  if (next == sp->rx_start)
 2012720:	e0bffe17 	ldw	r2,-8(fp)
 2012724:	10c00217 	ldw	r3,8(r2)
 2012728:	e0bffd17 	ldw	r2,-12(fp)
 201272c:	18800e1e 	bne	r3,r2,2012768 <altera_avalon_uart_rxirq+0xc8>
  {
    sp->ctrl &= ~ALTERA_AVALON_UART_CONTROL_RRDY_MSK;
 2012730:	e0bffe17 	ldw	r2,-8(fp)
 2012734:	10c00117 	ldw	r3,4(r2)
 2012738:	00bfdfc4 	movi	r2,-129
 201273c:	1886703a 	and	r3,r3,r2
 2012740:	e0bffe17 	ldw	r2,-8(fp)
 2012744:	10c00115 	stw	r3,4(r2)
    IOWR_ALTERA_AVALON_UART_CONTROL(sp->base, sp->ctrl); 
 2012748:	e0bffe17 	ldw	r2,-8(fp)
 201274c:	10800017 	ldw	r2,0(r2)
 2012750:	10800304 	addi	r2,r2,12
 2012754:	e0fffe17 	ldw	r3,-8(fp)
 2012758:	18c00117 	ldw	r3,4(r3)
 201275c:	10c00035 	stwio	r3,0(r2)
 2012760:	00000106 	br	2012768 <altera_avalon_uart_rxirq+0xc8>
  /* If there was an error, discard the data */

  if (status & (ALTERA_AVALON_UART_STATUS_PE_MSK | 
                  ALTERA_AVALON_UART_STATUS_FE_MSK))
  {
    return;
 2012764:	0001883a 	nop
  if (next == sp->rx_start)
  {
    sp->ctrl &= ~ALTERA_AVALON_UART_CONTROL_RRDY_MSK;
    IOWR_ALTERA_AVALON_UART_CONTROL(sp->base, sp->ctrl); 
  }   
}
 2012768:	e037883a 	mov	sp,fp
 201276c:	df000017 	ldw	fp,0(sp)
 2012770:	dec00104 	addi	sp,sp,4
 2012774:	f800283a 	ret

02012778 <altera_avalon_uart_txirq>:
 * buffer to the device, and sets the apropriate flags to indicate that 
 * there is data ready to be processed.
 */
static void 
altera_avalon_uart_txirq(altera_avalon_uart_state* sp, alt_u32 status)
{
 2012778:	defffd04 	addi	sp,sp,-12
 201277c:	df000215 	stw	fp,8(sp)
 2012780:	df000204 	addi	fp,sp,8
 2012784:	e13ffe15 	stw	r4,-8(fp)
 2012788:	e17fff15 	stw	r5,-4(fp)
  /* Transfer data if there is some ready to be transfered */

  if (sp->tx_start != sp->tx_end)
 201278c:	e0bffe17 	ldw	r2,-8(fp)
 2012790:	10c00417 	ldw	r3,16(r2)
 2012794:	e0bffe17 	ldw	r2,-8(fp)
 2012798:	10800517 	ldw	r2,20(r2)
 201279c:	18803026 	beq	r3,r2,2012860 <altera_avalon_uart_txirq+0xe8>
    /* 
     * If the device is using flow control (i.e. RTS/CTS), then the
     * transmitter is required to throttle if CTS is high.
     */

    if (!(sp->flags & ALT_AVALON_UART_FC) ||
 20127a0:	e0bffe17 	ldw	r2,-8(fp)
 20127a4:	10800617 	ldw	r2,24(r2)
 20127a8:	1080008c 	andi	r2,r2,2
 20127ac:	10000326 	beq	r2,zero,20127bc <altera_avalon_uart_txirq+0x44>
      (status & ALTERA_AVALON_UART_STATUS_CTS_MSK))
 20127b0:	e0bfff17 	ldw	r2,-4(fp)
 20127b4:	1082000c 	andi	r2,r2,2048
    /* 
     * If the device is using flow control (i.e. RTS/CTS), then the
     * transmitter is required to throttle if CTS is high.
     */

    if (!(sp->flags & ALT_AVALON_UART_FC) ||
 20127b8:	10001b26 	beq	r2,zero,2012828 <altera_avalon_uart_txirq+0xb0>
       * In a multi-threaded environment, set the write event flag to indicate
       * that there is space in the circular buffer. This is only done if the
       * buffer was previously empty.
       */

      if (sp->tx_start == ((sp->tx_end + 1) & ALT_AVALON_UART_BUF_MSK))
 20127bc:	e0bffe17 	ldw	r2,-8(fp)
 20127c0:	10800417 	ldw	r2,16(r2)
                       OS_FLAG_SET);
      }

      /* Write the data to the device */

      IOWR_ALTERA_AVALON_UART_TXDATA(sp->base, sp->tx_buf[sp->tx_start]);
 20127c4:	e0bffe17 	ldw	r2,-8(fp)
 20127c8:	10800017 	ldw	r2,0(r2)
 20127cc:	10800104 	addi	r2,r2,4
 20127d0:	e0fffe17 	ldw	r3,-8(fp)
 20127d4:	18c00417 	ldw	r3,16(r3)
 20127d8:	e13ffe17 	ldw	r4,-8(fp)
 20127dc:	20c7883a 	add	r3,r4,r3
 20127e0:	18c01704 	addi	r3,r3,92
 20127e4:	18c00003 	ldbu	r3,0(r3)
 20127e8:	18c03fcc 	andi	r3,r3,255
 20127ec:	10c00035 	stwio	r3,0(r2)

      sp->tx_start = (++sp->tx_start) & ALT_AVALON_UART_BUF_MSK;
 20127f0:	e0bffe17 	ldw	r2,-8(fp)
 20127f4:	10800417 	ldw	r2,16(r2)
 20127f8:	10800044 	addi	r2,r2,1
 20127fc:	e0fffe17 	ldw	r3,-8(fp)
 2012800:	18800415 	stw	r2,16(r3)
 2012804:	10c00fcc 	andi	r3,r2,63
 2012808:	e0bffe17 	ldw	r2,-8(fp)
 201280c:	10c00415 	stw	r3,16(r2)
      /*
       * In case the tranmit interrupt had previously been disabled by 
       * detecting a low value on CTS, it is reenabled here.
       */ 

      sp->ctrl |= ALTERA_AVALON_UART_CONTROL_TRDY_MSK;
 2012810:	e0bffe17 	ldw	r2,-8(fp)
 2012814:	10800117 	ldw	r2,4(r2)
 2012818:	10c01014 	ori	r3,r2,64
 201281c:	e0bffe17 	ldw	r2,-8(fp)
 2012820:	10c00115 	stw	r3,4(r2)
 2012824:	00000e06 	br	2012860 <altera_avalon_uart_txirq+0xe8>
       * the last write to the status register. To avoid this resulting in
       * deadlock, it's necessary to re-check the status register here
       * before throttling.
       */
 
      status = IORD_ALTERA_AVALON_UART_STATUS(sp->base); 
 2012828:	e0bffe17 	ldw	r2,-8(fp)
 201282c:	10800017 	ldw	r2,0(r2)
 2012830:	10800204 	addi	r2,r2,8
 2012834:	10800037 	ldwio	r2,0(r2)
 2012838:	e0bfff15 	stw	r2,-4(fp)

      if (!(status & ALTERA_AVALON_UART_STATUS_CTS_MSK))
 201283c:	e0bfff17 	ldw	r2,-4(fp)
 2012840:	1082000c 	andi	r2,r2,2048
 2012844:	1000061e 	bne	r2,zero,2012860 <altera_avalon_uart_txirq+0xe8>
      {
        sp->ctrl &= ~ALTERA_AVALON_UART_CONTROL_TRDY_MSK;
 2012848:	e0bffe17 	ldw	r2,-8(fp)
 201284c:	10c00117 	ldw	r3,4(r2)
 2012850:	00bfefc4 	movi	r2,-65
 2012854:	1886703a 	and	r3,r3,r2
 2012858:	e0bffe17 	ldw	r2,-8(fp)
 201285c:	10c00115 	stw	r3,4(r2)
  /*
   * If the circular buffer is empty, disable the interrupt. This will be
   * re-enabled when new data is placed in the buffer.
   */

  if (sp->tx_start == sp->tx_end)
 2012860:	e0bffe17 	ldw	r2,-8(fp)
 2012864:	10c00417 	ldw	r3,16(r2)
 2012868:	e0bffe17 	ldw	r2,-8(fp)
 201286c:	10800517 	ldw	r2,20(r2)
 2012870:	1880061e 	bne	r3,r2,201288c <altera_avalon_uart_txirq+0x114>
  {
    sp->ctrl &= ~(ALTERA_AVALON_UART_CONTROL_TRDY_MSK |
 2012874:	e0bffe17 	ldw	r2,-8(fp)
 2012878:	10c00117 	ldw	r3,4(r2)
 201287c:	00beefc4 	movi	r2,-1089
 2012880:	1886703a 	and	r3,r3,r2
 2012884:	e0bffe17 	ldw	r2,-8(fp)
 2012888:	10c00115 	stw	r3,4(r2)
                    ALTERA_AVALON_UART_CONTROL_DCTS_MSK);
  }

  IOWR_ALTERA_AVALON_UART_CONTROL(sp->base, sp->ctrl);
 201288c:	e0bffe17 	ldw	r2,-8(fp)
 2012890:	10800017 	ldw	r2,0(r2)
 2012894:	10800304 	addi	r2,r2,12
 2012898:	e0fffe17 	ldw	r3,-8(fp)
 201289c:	18c00117 	ldw	r3,4(r3)
 20128a0:	10c00035 	stwio	r3,0(r2)
}
 20128a4:	e037883a 	mov	sp,fp
 20128a8:	df000017 	ldw	fp,0(sp)
 20128ac:	dec00104 	addi	sp,sp,4
 20128b0:	f800283a 	ret

020128b4 <altera_avalon_uart_close>:
 * The close routine is not implemented for the small driver; instead it will
 * map to null. This is because the small driver simply waits while characters
 * are transmitted; there is no interrupt-serviced buffer to empty 
 */
int altera_avalon_uart_close(altera_avalon_uart_state* sp, int flags)
{
 20128b4:	defffd04 	addi	sp,sp,-12
 20128b8:	df000215 	stw	fp,8(sp)
 20128bc:	df000204 	addi	fp,sp,8
 20128c0:	e13ffe15 	stw	r4,-8(fp)
 20128c4:	e17fff15 	stw	r5,-4(fp)
  /* 
   * Wait for all transmit data to be emptied by the UART ISR.
   */
  while (sp->tx_start != sp->tx_end) {
 20128c8:	00000506 	br	20128e0 <altera_avalon_uart_close+0x2c>
    if (flags & O_NONBLOCK) {
 20128cc:	e0bfff17 	ldw	r2,-4(fp)
 20128d0:	1090000c 	andi	r2,r2,16384
 20128d4:	10000226 	beq	r2,zero,20128e0 <altera_avalon_uart_close+0x2c>
      return -EWOULDBLOCK; 
 20128d8:	00bffd44 	movi	r2,-11
 20128dc:	00000606 	br	20128f8 <altera_avalon_uart_close+0x44>
int altera_avalon_uart_close(altera_avalon_uart_state* sp, int flags)
{
  /* 
   * Wait for all transmit data to be emptied by the UART ISR.
   */
  while (sp->tx_start != sp->tx_end) {
 20128e0:	e0bffe17 	ldw	r2,-8(fp)
 20128e4:	10c00417 	ldw	r3,16(r2)
 20128e8:	e0bffe17 	ldw	r2,-8(fp)
 20128ec:	10800517 	ldw	r2,20(r2)
 20128f0:	18bff61e 	bne	r3,r2,20128cc <__alt_mem_epcs_flash_controller+0xfe0098cc>
    if (flags & O_NONBLOCK) {
      return -EWOULDBLOCK; 
    }
  }

  return 0;
 20128f4:	0005883a 	mov	r2,zero
}
 20128f8:	e037883a 	mov	sp,fp
 20128fc:	df000017 	ldw	fp,0(sp)
 2012900:	dec00104 	addi	sp,sp,4
 2012904:	f800283a 	ret

02012908 <alt_get_errno>:
#undef errno

extern int errno;

static ALT_INLINE int* alt_get_errno(void)
{
 2012908:	defffe04 	addi	sp,sp,-8
 201290c:	dfc00115 	stw	ra,4(sp)
 2012910:	df000015 	stw	fp,0(sp)
 2012914:	d839883a 	mov	fp,sp
  return ((alt_errno) ? alt_errno() : &errno);
 2012918:	00808274 	movhi	r2,521
 201291c:	10a55a04 	addi	r2,r2,-27288
 2012920:	10800017 	ldw	r2,0(r2)
 2012924:	10000526 	beq	r2,zero,201293c <alt_get_errno+0x34>
 2012928:	00808274 	movhi	r2,521
 201292c:	10a55a04 	addi	r2,r2,-27288
 2012930:	10800017 	ldw	r2,0(r2)
 2012934:	103ee83a 	callr	r2
 2012938:	00000206 	br	2012944 <alt_get_errno+0x3c>
 201293c:	00808274 	movhi	r2,521
 2012940:	10acc804 	addi	r2,r2,-19680
}
 2012944:	e037883a 	mov	sp,fp
 2012948:	dfc00117 	ldw	ra,4(sp)
 201294c:	df000017 	ldw	fp,0(sp)
 2012950:	dec00204 	addi	sp,sp,8
 2012954:	f800283a 	ret

02012958 <altera_avalon_uart_read>:
 */

int 
altera_avalon_uart_read(altera_avalon_uart_state* sp, char* ptr, int len,
  int flags)
{
 2012958:	defff204 	addi	sp,sp,-56
 201295c:	dfc00d15 	stw	ra,52(sp)
 2012960:	df000c15 	stw	fp,48(sp)
 2012964:	df000c04 	addi	fp,sp,48
 2012968:	e13ffc15 	stw	r4,-16(fp)
 201296c:	e17ffd15 	stw	r5,-12(fp)
 2012970:	e1bffe15 	stw	r6,-8(fp)
 2012974:	e1ffff15 	stw	r7,-4(fp)
  alt_irq_context context;
  int             block;
  alt_u8          read_would_block = 0;
 2012978:	e03ff405 	stb	zero,-48(fp)
  int             count = 0;
 201297c:	e03ff515 	stw	zero,-44(fp)
  /* 
   * Construct a flag to indicate whether the device is being accessed in
   * blocking or non-blocking mode.
   */

  block = !(flags & O_NONBLOCK);
 2012980:	e0bfff17 	ldw	r2,-4(fp)
 2012984:	1090000c 	andi	r2,r2,16384
 2012988:	1005003a 	cmpeq	r2,r2,zero
 201298c:	10803fcc 	andi	r2,r2,255
 2012990:	e0bff615 	stw	r2,-40(fp)
    /*
     * Read the required amount of data, until the circular buffer runs
     * empty
     */

    while ((count < len) && (sp->rx_start != sp->rx_end))
 2012994:	00001506 	br	20129ec <altera_avalon_uart_read+0x94>
    {
      count++;
 2012998:	e0bff517 	ldw	r2,-44(fp)
 201299c:	10800044 	addi	r2,r2,1
 20129a0:	e0bff515 	stw	r2,-44(fp)
      *ptr++ = sp->rx_buf[sp->rx_start];
 20129a4:	e0bffc17 	ldw	r2,-16(fp)
 20129a8:	10800217 	ldw	r2,8(r2)
 20129ac:	e0fffc17 	ldw	r3,-16(fp)
 20129b0:	1885883a 	add	r2,r3,r2
 20129b4:	10800704 	addi	r2,r2,28
 20129b8:	10800003 	ldbu	r2,0(r2)
 20129bc:	1007883a 	mov	r3,r2
 20129c0:	e0bffd17 	ldw	r2,-12(fp)
 20129c4:	10c00005 	stb	r3,0(r2)
 20129c8:	e0bffd17 	ldw	r2,-12(fp)
 20129cc:	10800044 	addi	r2,r2,1
 20129d0:	e0bffd15 	stw	r2,-12(fp)
      
      sp->rx_start = (sp->rx_start+1) & ALT_AVALON_UART_BUF_MSK;
 20129d4:	e0bffc17 	ldw	r2,-16(fp)
 20129d8:	10800217 	ldw	r2,8(r2)
 20129dc:	10800044 	addi	r2,r2,1
 20129e0:	10c00fcc 	andi	r3,r2,63
 20129e4:	e0bffc17 	ldw	r2,-16(fp)
 20129e8:	10c00215 	stw	r3,8(r2)
    /*
     * Read the required amount of data, until the circular buffer runs
     * empty
     */

    while ((count < len) && (sp->rx_start != sp->rx_end))
 20129ec:	e0fff517 	ldw	r3,-44(fp)
 20129f0:	e0bffe17 	ldw	r2,-8(fp)
 20129f4:	1880050e 	bge	r3,r2,2012a0c <altera_avalon_uart_read+0xb4>
 20129f8:	e0bffc17 	ldw	r2,-16(fp)
 20129fc:	10c00217 	ldw	r3,8(r2)
 2012a00:	e0bffc17 	ldw	r2,-16(fp)
 2012a04:	10800317 	ldw	r2,12(r2)
 2012a08:	18bfe31e 	bne	r3,r2,2012998 <__alt_mem_epcs_flash_controller+0xfe009998>
    /*
     * If no data has been transferred, the circular buffer is empty, and
     * this is not a non-blocking access, block waiting for data to arrive.
     */

    if (!count && (sp->rx_start == sp->rx_end))
 2012a0c:	e0bff517 	ldw	r2,-44(fp)
 2012a10:	1000241e 	bne	r2,zero,2012aa4 <altera_avalon_uart_read+0x14c>
 2012a14:	e0bffc17 	ldw	r2,-16(fp)
 2012a18:	10c00217 	ldw	r3,8(r2)
 2012a1c:	e0bffc17 	ldw	r2,-16(fp)
 2012a20:	10800317 	ldw	r2,12(r2)
 2012a24:	18801f1e 	bne	r3,r2,2012aa4 <altera_avalon_uart_read+0x14c>
    {
      if (!block)
 2012a28:	e0bff617 	ldw	r2,-40(fp)
 2012a2c:	1000061e 	bne	r2,zero,2012a48 <altera_avalon_uart_read+0xf0>
      {
        /* Set errno to indicate the reason we're not returning any data */

        ALT_ERRNO = EWOULDBLOCK;
 2012a30:	20129080 	call	2012908 <alt_get_errno>
 2012a34:	00c002c4 	movi	r3,11
 2012a38:	10c00015 	stw	r3,0(r2)
        read_would_block = 1;
 2012a3c:	00800044 	movi	r2,1
 2012a40:	e0bff405 	stb	r2,-48(fp)
        break;
 2012a44:	00001b06 	br	2012ab4 <altera_avalon_uart_read+0x15c>
static ALT_INLINE alt_irq_context ALT_ALWAYS_INLINE 
       alt_irq_disable_all (void)
{
  alt_irq_context context;

  NIOS2_READ_STATUS (context);
 2012a48:	0005303a 	rdctl	r2,status
 2012a4c:	e0bff815 	stw	r2,-32(fp)

  NIOS2_WRITE_STATUS (context & ~NIOS2_STATUS_PIE_MSK);
 2012a50:	e0fff817 	ldw	r3,-32(fp)
 2012a54:	00bfff84 	movi	r2,-2
 2012a58:	1884703a 	and	r2,r3,r2
 2012a5c:	1001703a 	wrctl	status,r2
  
  return context;
 2012a60:	e0bff817 	ldw	r2,-32(fp)
      {
       /* Block waiting for some data to arrive */

       /* First, ensure read interrupts are enabled to avoid deadlock */

       context = alt_irq_disable_all ();
 2012a64:	e0bff715 	stw	r2,-36(fp)
       sp->ctrl |= ALTERA_AVALON_UART_CONTROL_RRDY_MSK;
 2012a68:	e0bffc17 	ldw	r2,-16(fp)
 2012a6c:	10800117 	ldw	r2,4(r2)
 2012a70:	10c02014 	ori	r3,r2,128
 2012a74:	e0bffc17 	ldw	r2,-16(fp)
 2012a78:	10c00115 	stw	r3,4(r2)
       IOWR_ALTERA_AVALON_UART_CONTROL(sp->base, sp->ctrl);
 2012a7c:	e0bffc17 	ldw	r2,-16(fp)
 2012a80:	10800017 	ldw	r2,0(r2)
 2012a84:	10800304 	addi	r2,r2,12
 2012a88:	e0fffc17 	ldw	r3,-16(fp)
 2012a8c:	18c00117 	ldw	r3,4(r3)
 2012a90:	10c00035 	stwio	r3,0(r2)
 2012a94:	e0bff717 	ldw	r2,-36(fp)
 2012a98:	e0bff915 	stw	r2,-28(fp)
  status &= ~NIOS2_STATUS_PIE_MSK;
  status |= (context & NIOS2_STATUS_PIE_MSK);
  
  NIOS2_WRITE_STATUS (status);
#else
  NIOS2_WRITE_STATUS (context);
 2012a9c:	e0bff917 	ldw	r2,-28(fp)
 2012aa0:	1001703a 	wrctl	status,r2
                      OS_FLAG_WAIT_SET_ANY + OS_FLAG_CONSUME,
                      0);
      }
    }
  }
  while (!count && len);
 2012aa4:	e0bff517 	ldw	r2,-44(fp)
 2012aa8:	1000021e 	bne	r2,zero,2012ab4 <altera_avalon_uart_read+0x15c>
 2012aac:	e0bffe17 	ldw	r2,-8(fp)
 2012ab0:	103fce1e 	bne	r2,zero,20129ec <__alt_mem_epcs_flash_controller+0xfe0099ec>
static ALT_INLINE alt_irq_context ALT_ALWAYS_INLINE 
       alt_irq_disable_all (void)
{
  alt_irq_context context;

  NIOS2_READ_STATUS (context);
 2012ab4:	0005303a 	rdctl	r2,status
 2012ab8:	e0bffa15 	stw	r2,-24(fp)

  NIOS2_WRITE_STATUS (context & ~NIOS2_STATUS_PIE_MSK);
 2012abc:	e0fffa17 	ldw	r3,-24(fp)
 2012ac0:	00bfff84 	movi	r2,-2
 2012ac4:	1884703a 	and	r2,r3,r2
 2012ac8:	1001703a 	wrctl	status,r2
  
  return context;
 2012acc:	e0bffa17 	ldw	r2,-24(fp)
  /*
   * Ensure that interrupts are enabled, so that the circular buffer can
   * re-fill.
   */

  context = alt_irq_disable_all ();
 2012ad0:	e0bff715 	stw	r2,-36(fp)
  sp->ctrl |= ALTERA_AVALON_UART_CONTROL_RRDY_MSK;
 2012ad4:	e0bffc17 	ldw	r2,-16(fp)
 2012ad8:	10800117 	ldw	r2,4(r2)
 2012adc:	10c02014 	ori	r3,r2,128
 2012ae0:	e0bffc17 	ldw	r2,-16(fp)
 2012ae4:	10c00115 	stw	r3,4(r2)
  IOWR_ALTERA_AVALON_UART_CONTROL(sp->base, sp->ctrl);
 2012ae8:	e0bffc17 	ldw	r2,-16(fp)
 2012aec:	10800017 	ldw	r2,0(r2)
 2012af0:	10800304 	addi	r2,r2,12
 2012af4:	e0fffc17 	ldw	r3,-16(fp)
 2012af8:	18c00117 	ldw	r3,4(r3)
 2012afc:	10c00035 	stwio	r3,0(r2)
 2012b00:	e0bff717 	ldw	r2,-36(fp)
 2012b04:	e0bffb15 	stw	r2,-20(fp)
  status &= ~NIOS2_STATUS_PIE_MSK;
  status |= (context & NIOS2_STATUS_PIE_MSK);
  
  NIOS2_WRITE_STATUS (status);
#else
  NIOS2_WRITE_STATUS (context);
 2012b08:	e0bffb17 	ldw	r2,-20(fp)
 2012b0c:	1001703a 	wrctl	status,r2
  alt_irq_enable_all (context);

  /* Return the number of bytes read */
  if(read_would_block) {
 2012b10:	e0bff403 	ldbu	r2,-48(fp)
 2012b14:	10000226 	beq	r2,zero,2012b20 <altera_avalon_uart_read+0x1c8>
    return -EWOULDBLOCK;
 2012b18:	00bffd44 	movi	r2,-11
 2012b1c:	00000106 	br	2012b24 <altera_avalon_uart_read+0x1cc>
  }
  else {
    return count;
 2012b20:	e0bff517 	ldw	r2,-44(fp)
  }
}
 2012b24:	e037883a 	mov	sp,fp
 2012b28:	dfc00117 	ldw	ra,4(sp)
 2012b2c:	df000017 	ldw	fp,0(sp)
 2012b30:	dec00204 	addi	sp,sp,8
 2012b34:	f800283a 	ret

02012b38 <alt_get_errno>:
#undef errno

extern int errno;

static ALT_INLINE int* alt_get_errno(void)
{
 2012b38:	defffe04 	addi	sp,sp,-8
 2012b3c:	dfc00115 	stw	ra,4(sp)
 2012b40:	df000015 	stw	fp,0(sp)
 2012b44:	d839883a 	mov	fp,sp
  return ((alt_errno) ? alt_errno() : &errno);
 2012b48:	00808274 	movhi	r2,521
 2012b4c:	10a55a04 	addi	r2,r2,-27288
 2012b50:	10800017 	ldw	r2,0(r2)
 2012b54:	10000526 	beq	r2,zero,2012b6c <alt_get_errno+0x34>
 2012b58:	00808274 	movhi	r2,521
 2012b5c:	10a55a04 	addi	r2,r2,-27288
 2012b60:	10800017 	ldw	r2,0(r2)
 2012b64:	103ee83a 	callr	r2
 2012b68:	00000206 	br	2012b74 <alt_get_errno+0x3c>
 2012b6c:	00808274 	movhi	r2,521
 2012b70:	10acc804 	addi	r2,r2,-19680
}
 2012b74:	e037883a 	mov	sp,fp
 2012b78:	dfc00117 	ldw	ra,4(sp)
 2012b7c:	df000017 	ldw	fp,0(sp)
 2012b80:	dec00204 	addi	sp,sp,8
 2012b84:	f800283a 	ret

02012b88 <altera_avalon_uart_write>:
 */

int
altera_avalon_uart_write(altera_avalon_uart_state* sp, const char* ptr, int len,
  int flags)
{
 2012b88:	defff204 	addi	sp,sp,-56
 2012b8c:	dfc00d15 	stw	ra,52(sp)
 2012b90:	df000c15 	stw	fp,48(sp)
 2012b94:	df000c04 	addi	fp,sp,48
 2012b98:	e13ffc15 	stw	r4,-16(fp)
 2012b9c:	e17ffd15 	stw	r5,-12(fp)
 2012ba0:	e1bffe15 	stw	r6,-8(fp)
 2012ba4:	e1ffff15 	stw	r7,-4(fp)
  alt_irq_context context;
  int             no_block;
  alt_u32         next;
  int             count = len;
 2012ba8:	e0bffe17 	ldw	r2,-8(fp)
 2012bac:	e0bff415 	stw	r2,-48(fp)
  /* 
   * Construct a flag to indicate whether the device is being accessed in
   * blocking or non-blocking mode.
   */

  no_block = (flags & O_NONBLOCK);
 2012bb0:	e0bfff17 	ldw	r2,-4(fp)
 2012bb4:	1090000c 	andi	r2,r2,16384
 2012bb8:	e0bff515 	stw	r2,-44(fp)
   * Loop transferring data from the input buffer to the transmit circular
   * buffer. The loop is terminated once all the data has been transferred,
   * or, (if in non-blocking mode) the buffer becomes full.
   */

  while (count)
 2012bbc:	00003b06 	br	2012cac <altera_avalon_uart_write+0x124>
  {
    /* Determine the next slot in the buffer to access */

    next = (sp->tx_end + 1) & ALT_AVALON_UART_BUF_MSK;
 2012bc0:	e0bffc17 	ldw	r2,-16(fp)
 2012bc4:	10800517 	ldw	r2,20(r2)
 2012bc8:	10800044 	addi	r2,r2,1
 2012bcc:	10800fcc 	andi	r2,r2,63
 2012bd0:	e0bff615 	stw	r2,-40(fp)

    /* block waiting for space if necessary */

    if (next == sp->tx_start)
 2012bd4:	e0bffc17 	ldw	r2,-16(fp)
 2012bd8:	10c00417 	ldw	r3,16(r2)
 2012bdc:	e0bff617 	ldw	r2,-40(fp)
 2012be0:	1880211e 	bne	r3,r2,2012c68 <altera_avalon_uart_write+0xe0>
    {
      if (no_block)
 2012be4:	e0bff517 	ldw	r2,-44(fp)
 2012be8:	10000426 	beq	r2,zero,2012bfc <altera_avalon_uart_write+0x74>
      {
        /* Set errno to indicate why this function returned early */
 
        ALT_ERRNO = EWOULDBLOCK;
 2012bec:	2012b380 	call	2012b38 <alt_get_errno>
 2012bf0:	00c002c4 	movi	r3,11
 2012bf4:	10c00015 	stw	r3,0(r2)
        break;
 2012bf8:	00002e06 	br	2012cb4 <altera_avalon_uart_write+0x12c>
static ALT_INLINE alt_irq_context ALT_ALWAYS_INLINE 
       alt_irq_disable_all (void)
{
  alt_irq_context context;

  NIOS2_READ_STATUS (context);
 2012bfc:	0005303a 	rdctl	r2,status
 2012c00:	e0bff815 	stw	r2,-32(fp)

  NIOS2_WRITE_STATUS (context & ~NIOS2_STATUS_PIE_MSK);
 2012c04:	e0fff817 	ldw	r3,-32(fp)
 2012c08:	00bfff84 	movi	r2,-2
 2012c0c:	1884703a 	and	r2,r3,r2
 2012c10:	1001703a 	wrctl	status,r2
  
  return context;
 2012c14:	e0bff817 	ldw	r2,-32(fp)
      {
        /* Block waiting for space in the circular buffer */

        /* First, ensure transmit interrupts are enabled to avoid deadlock */

        context = alt_irq_disable_all ();
 2012c18:	e0bff715 	stw	r2,-36(fp)
        sp->ctrl |= (ALTERA_AVALON_UART_CONTROL_TRDY_MSK |
 2012c1c:	e0bffc17 	ldw	r2,-16(fp)
 2012c20:	10800117 	ldw	r2,4(r2)
 2012c24:	10c11014 	ori	r3,r2,1088
 2012c28:	e0bffc17 	ldw	r2,-16(fp)
 2012c2c:	10c00115 	stw	r3,4(r2)
                        ALTERA_AVALON_UART_CONTROL_DCTS_MSK);
        IOWR_ALTERA_AVALON_UART_CONTROL(sp->base, sp->ctrl);
 2012c30:	e0bffc17 	ldw	r2,-16(fp)
 2012c34:	10800017 	ldw	r2,0(r2)
 2012c38:	10800304 	addi	r2,r2,12
 2012c3c:	e0fffc17 	ldw	r3,-16(fp)
 2012c40:	18c00117 	ldw	r3,4(r3)
 2012c44:	10c00035 	stwio	r3,0(r2)
 2012c48:	e0bff717 	ldw	r2,-36(fp)
 2012c4c:	e0bff915 	stw	r2,-28(fp)
  status &= ~NIOS2_STATUS_PIE_MSK;
  status |= (context & NIOS2_STATUS_PIE_MSK);
  
  NIOS2_WRITE_STATUS (status);
#else
  NIOS2_WRITE_STATUS (context);
 2012c50:	e0bff917 	ldw	r2,-28(fp)
 2012c54:	1001703a 	wrctl	status,r2
          ALT_FLAG_PEND (sp->events, 
                         ALT_UART_WRITE_RDY,
                         OS_FLAG_WAIT_SET_ANY + OS_FLAG_CONSUME,
                         0);
        }
        while ((next == sp->tx_start));
 2012c58:	e0bffc17 	ldw	r2,-16(fp)
 2012c5c:	10c00417 	ldw	r3,16(r2)
 2012c60:	e0bff617 	ldw	r2,-40(fp)
 2012c64:	18bffc26 	beq	r3,r2,2012c58 <__alt_mem_epcs_flash_controller+0xfe009c58>
      }
    }

    count--;
 2012c68:	e0bff417 	ldw	r2,-48(fp)
 2012c6c:	10bfffc4 	addi	r2,r2,-1
 2012c70:	e0bff415 	stw	r2,-48(fp)

    /* Add the next character to the transmit buffer */

    sp->tx_buf[sp->tx_end] = *ptr++;
 2012c74:	e0bffc17 	ldw	r2,-16(fp)
 2012c78:	10800517 	ldw	r2,20(r2)
 2012c7c:	e0fffd17 	ldw	r3,-12(fp)
 2012c80:	18c00003 	ldbu	r3,0(r3)
 2012c84:	e13ffc17 	ldw	r4,-16(fp)
 2012c88:	2085883a 	add	r2,r4,r2
 2012c8c:	10801704 	addi	r2,r2,92
 2012c90:	10c00005 	stb	r3,0(r2)
 2012c94:	e0bffd17 	ldw	r2,-12(fp)
 2012c98:	10800044 	addi	r2,r2,1
 2012c9c:	e0bffd15 	stw	r2,-12(fp)
    sp->tx_end = next;
 2012ca0:	e0bffc17 	ldw	r2,-16(fp)
 2012ca4:	e0fff617 	ldw	r3,-40(fp)
 2012ca8:	10c00515 	stw	r3,20(r2)
   * Loop transferring data from the input buffer to the transmit circular
   * buffer. The loop is terminated once all the data has been transferred,
   * or, (if in non-blocking mode) the buffer becomes full.
   */

  while (count)
 2012cac:	e0bff417 	ldw	r2,-48(fp)
 2012cb0:	103fc31e 	bne	r2,zero,2012bc0 <__alt_mem_epcs_flash_controller+0xfe009bc0>
static ALT_INLINE alt_irq_context ALT_ALWAYS_INLINE 
       alt_irq_disable_all (void)
{
  alt_irq_context context;

  NIOS2_READ_STATUS (context);
 2012cb4:	0005303a 	rdctl	r2,status
 2012cb8:	e0bffa15 	stw	r2,-24(fp)

  NIOS2_WRITE_STATUS (context & ~NIOS2_STATUS_PIE_MSK);
 2012cbc:	e0fffa17 	ldw	r3,-24(fp)
 2012cc0:	00bfff84 	movi	r2,-2
 2012cc4:	1884703a 	and	r2,r3,r2
 2012cc8:	1001703a 	wrctl	status,r2
  
  return context;
 2012ccc:	e0bffa17 	ldw	r2,-24(fp)
  /* 
   * Ensure that interrupts are enabled, so that the circular buffer can 
   * drain.
   */

  context = alt_irq_disable_all ();
 2012cd0:	e0bff715 	stw	r2,-36(fp)
  sp->ctrl |= ALTERA_AVALON_UART_CONTROL_TRDY_MSK |
 2012cd4:	e0bffc17 	ldw	r2,-16(fp)
 2012cd8:	10800117 	ldw	r2,4(r2)
 2012cdc:	10c11014 	ori	r3,r2,1088
 2012ce0:	e0bffc17 	ldw	r2,-16(fp)
 2012ce4:	10c00115 	stw	r3,4(r2)
                 ALTERA_AVALON_UART_CONTROL_DCTS_MSK;
  IOWR_ALTERA_AVALON_UART_CONTROL(sp->base, sp->ctrl);
 2012ce8:	e0bffc17 	ldw	r2,-16(fp)
 2012cec:	10800017 	ldw	r2,0(r2)
 2012cf0:	10800304 	addi	r2,r2,12
 2012cf4:	e0fffc17 	ldw	r3,-16(fp)
 2012cf8:	18c00117 	ldw	r3,4(r3)
 2012cfc:	10c00035 	stwio	r3,0(r2)
 2012d00:	e0bff717 	ldw	r2,-36(fp)
 2012d04:	e0bffb15 	stw	r2,-20(fp)
  status &= ~NIOS2_STATUS_PIE_MSK;
  status |= (context & NIOS2_STATUS_PIE_MSK);
  
  NIOS2_WRITE_STATUS (status);
#else
  NIOS2_WRITE_STATUS (context);
 2012d08:	e0bffb17 	ldw	r2,-20(fp)
 2012d0c:	1001703a 	wrctl	status,r2
  alt_irq_enable_all (context);

  /* return the number of bytes written */

  return (len - count);
 2012d10:	e0fffe17 	ldw	r3,-8(fp)
 2012d14:	e0bff417 	ldw	r2,-48(fp)
 2012d18:	1885c83a 	sub	r2,r3,r2
}
 2012d1c:	e037883a 	mov	sp,fp
 2012d20:	dfc00117 	ldw	ra,4(sp)
 2012d24:	df000017 	ldw	fp,0(sp)
 2012d28:	dec00204 	addi	sp,sp,8
 2012d2c:	f800283a 	ret

02012d30 <epcs_read_status_register>:
#include "alt_types.h"
#include "epcs_commands.h"
#include "altera_avalon_spi.h"

alt_u8 epcs_read_status_register(alt_u32 base)
{
 2012d30:	defff904 	addi	sp,sp,-28
 2012d34:	dfc00615 	stw	ra,24(sp)
 2012d38:	df000515 	stw	fp,20(sp)
 2012d3c:	df000504 	addi	fp,sp,20
 2012d40:	e13fff15 	stw	r4,-4(fp)
  const alt_u8 rdsr = epcs_rdsr;
 2012d44:	00800144 	movi	r2,5
 2012d48:	e0bffe05 	stb	r2,-8(fp)
  alt_u8 status;
  alt_avalon_spi_command(
 2012d4c:	00800044 	movi	r2,1
 2012d50:	d8800015 	stw	r2,0(sp)
 2012d54:	e0bffe44 	addi	r2,fp,-7
 2012d58:	d8800115 	stw	r2,4(sp)
 2012d5c:	d8000215 	stw	zero,8(sp)
 2012d60:	e13fff17 	ldw	r4,-4(fp)
 2012d64:	000b883a 	mov	r5,zero
 2012d68:	01800044 	movi	r6,1
 2012d6c:	e1fffe04 	addi	r7,fp,-8
 2012d70:	2013cc40 	call	2013cc4 <alt_avalon_spi_command>
    1,
    &status,
    0
  );

  return status;
 2012d74:	e0bffe43 	ldbu	r2,-7(fp)
}
 2012d78:	e037883a 	mov	sp,fp
 2012d7c:	dfc00117 	ldw	ra,4(sp)
 2012d80:	df000017 	ldw	fp,0(sp)
 2012d84:	dec00204 	addi	sp,sp,8
 2012d88:	f800283a 	ret

02012d8c <epcs_test_wip>:

static ALT_INLINE int epcs_test_wip(alt_u32 base)
{
 2012d8c:	defffd04 	addi	sp,sp,-12
 2012d90:	dfc00215 	stw	ra,8(sp)
 2012d94:	df000115 	stw	fp,4(sp)
 2012d98:	df000104 	addi	fp,sp,4
 2012d9c:	e13fff15 	stw	r4,-4(fp)
  return epcs_read_status_register(base) & 1;
 2012da0:	e13fff17 	ldw	r4,-4(fp)
 2012da4:	2012d300 	call	2012d30 <epcs_read_status_register>
 2012da8:	10803fcc 	andi	r2,r2,255
 2012dac:	1080004c 	andi	r2,r2,1
}
 2012db0:	e037883a 	mov	sp,fp
 2012db4:	dfc00117 	ldw	ra,4(sp)
 2012db8:	df000017 	ldw	fp,0(sp)
 2012dbc:	dec00204 	addi	sp,sp,8
 2012dc0:	f800283a 	ret

02012dc4 <epcs_await_wip_released>:

static ALT_INLINE void epcs_await_wip_released(alt_u32 base)
{
 2012dc4:	defffd04 	addi	sp,sp,-12
 2012dc8:	dfc00215 	stw	ra,8(sp)
 2012dcc:	df000115 	stw	fp,4(sp)
 2012dd0:	df000104 	addi	fp,sp,4
 2012dd4:	e13fff15 	stw	r4,-4(fp)
  /* Wait until the WIP bit goes low. */
  while (epcs_test_wip(base))
 2012dd8:	0001883a 	nop
 2012ddc:	e13fff17 	ldw	r4,-4(fp)
 2012de0:	2012d8c0 	call	2012d8c <epcs_test_wip>
 2012de4:	103ffd1e 	bne	r2,zero,2012ddc <__alt_mem_epcs_flash_controller+0xfe009ddc>
  {
  }
}
 2012de8:	e037883a 	mov	sp,fp
 2012dec:	dfc00117 	ldw	ra,4(sp)
 2012df0:	df000017 	ldw	fp,0(sp)
 2012df4:	dec00204 	addi	sp,sp,8
 2012df8:	f800283a 	ret

02012dfc <epcs_sector_erase>:

void epcs_sector_erase(alt_u32 base, alt_u32 offset, alt_u32 four_bytes_mode)
{
 2012dfc:	defff604 	addi	sp,sp,-40
 2012e00:	dfc00915 	stw	ra,36(sp)
 2012e04:	df000815 	stw	fp,32(sp)
 2012e08:	df000804 	addi	fp,sp,32
 2012e0c:	e13ffd15 	stw	r4,-12(fp)
 2012e10:	e17ffe15 	stw	r5,-8(fp)
 2012e14:	e1bfff15 	stw	r6,-4(fp)
  alt_u8 se[5];
  alt_u8 len;
  
  if(four_bytes_mode)
 2012e18:	e0bfff17 	ldw	r2,-4(fp)
 2012e1c:	10001226 	beq	r2,zero,2012e68 <epcs_sector_erase+0x6c>
  {
      se[0] = epcs_se;  /* Note: Use epcs_se for Micron EPCS256 */
 2012e20:	00bff604 	movi	r2,-40
 2012e24:	e0bffb45 	stb	r2,-19(fp)
      se[1] = (offset >> 24) & 0xFF;
 2012e28:	e0bffe17 	ldw	r2,-8(fp)
 2012e2c:	1004d63a 	srli	r2,r2,24
 2012e30:	e0bffb85 	stb	r2,-18(fp)
      se[2] = (offset >> 16) & 0xFF;
 2012e34:	e0bffe17 	ldw	r2,-8(fp)
 2012e38:	1004d43a 	srli	r2,r2,16
 2012e3c:	e0bffbc5 	stb	r2,-17(fp)
      se[3] = (offset >> 8) & 0xFF;
 2012e40:	e0bffe17 	ldw	r2,-8(fp)
 2012e44:	1004d23a 	srli	r2,r2,8
 2012e48:	e0bffc05 	stb	r2,-16(fp)
      se[4] = offset & 0xFF;
 2012e4c:	e0bffe17 	ldw	r2,-8(fp)
 2012e50:	e0bffc45 	stb	r2,-15(fp)
      len   = 5;
 2012e54:	00800144 	movi	r2,5
 2012e58:	e0bffb05 	stb	r2,-20(fp)
      epcs_enter_4_bytes_mode(base);
 2012e5c:	e13ffd17 	ldw	r4,-12(fp)
 2012e60:	20132a40 	call	20132a4 <epcs_enter_4_bytes_mode>
 2012e64:	00000c06 	br	2012e98 <epcs_sector_erase+0x9c>
  }
  else
  {
      se[0] = epcs_se;
 2012e68:	00bff604 	movi	r2,-40
 2012e6c:	e0bffb45 	stb	r2,-19(fp)
      se[1] = (offset >> 16) & 0xFF;
 2012e70:	e0bffe17 	ldw	r2,-8(fp)
 2012e74:	1004d43a 	srli	r2,r2,16
 2012e78:	e0bffb85 	stb	r2,-18(fp)
      se[2] = (offset >> 8) & 0xFF;
 2012e7c:	e0bffe17 	ldw	r2,-8(fp)
 2012e80:	1004d23a 	srli	r2,r2,8
 2012e84:	e0bffbc5 	stb	r2,-17(fp)
      se[3] = offset & 0xFF;
 2012e88:	e0bffe17 	ldw	r2,-8(fp)
 2012e8c:	e0bffc05 	stb	r2,-16(fp)
      len   = 4;
 2012e90:	00800104 	movi	r2,4
 2012e94:	e0bffb05 	stb	r2,-20(fp)
  }

  /* Execute a WREN instruction */
  epcs_write_enable(base);
 2012e98:	e13ffd17 	ldw	r4,-12(fp)
 2012e9c:	2012fe80 	call	2012fe8 <epcs_write_enable>

  alt_avalon_spi_command(
 2012ea0:	e0fffb03 	ldbu	r3,-20(fp)
    base,
    0,
    len,
    se,
 2012ea4:	e0bffb44 	addi	r2,fp,-19
  }

  /* Execute a WREN instruction */
  epcs_write_enable(base);

  alt_avalon_spi_command(
 2012ea8:	d8000015 	stw	zero,0(sp)
 2012eac:	d8000115 	stw	zero,4(sp)
 2012eb0:	d8000215 	stw	zero,8(sp)
 2012eb4:	e13ffd17 	ldw	r4,-12(fp)
 2012eb8:	000b883a 	mov	r5,zero
 2012ebc:	180d883a 	mov	r6,r3
 2012ec0:	100f883a 	mov	r7,r2
 2012ec4:	2013cc40 	call	2013cc4 <alt_avalon_spi_command>
    0,
    (alt_u8*)0,
    0
  );

  epcs_await_wip_released(base);
 2012ec8:	e13ffd17 	ldw	r4,-12(fp)
 2012ecc:	2012dc40 	call	2012dc4 <epcs_await_wip_released>

  if(four_bytes_mode)
 2012ed0:	e0bfff17 	ldw	r2,-4(fp)
 2012ed4:	10000226 	beq	r2,zero,2012ee0 <epcs_sector_erase+0xe4>
  {
    epcs_exit_4_bytes_mode(base);
 2012ed8:	e13ffd17 	ldw	r4,-12(fp)
 2012edc:	20132fc0 	call	20132fc <epcs_exit_4_bytes_mode>
  }
}
 2012ee0:	e037883a 	mov	sp,fp
 2012ee4:	dfc00117 	ldw	ra,4(sp)
 2012ee8:	df000017 	ldw	fp,0(sp)
 2012eec:	dec00204 	addi	sp,sp,8
 2012ef0:	f800283a 	ret

02012ef4 <epcs_read_buffer>:

alt_32 epcs_read_buffer(alt_u32 base, int offset, alt_u8 *dest_addr, int length,
                        alt_u32 four_bytes_mode)
{
 2012ef4:	defff404 	addi	sp,sp,-48
 2012ef8:	dfc00b15 	stw	ra,44(sp)
 2012efc:	df000a15 	stw	fp,40(sp)
 2012f00:	df000a04 	addi	fp,sp,40
 2012f04:	e13ffc15 	stw	r4,-16(fp)
 2012f08:	e17ffd15 	stw	r5,-12(fp)
 2012f0c:	e1bffe15 	stw	r6,-8(fp)
 2012f10:	e1ffff15 	stw	r7,-4(fp)
  alt_u8 read_command[5];
  alt_u32 cmd_len;

  read_command[0] = epcs_read;
 2012f14:	008000c4 	movi	r2,3
 2012f18:	e0bffa05 	stb	r2,-24(fp)
  
  if(four_bytes_mode)
 2012f1c:	e0800217 	ldw	r2,8(fp)
 2012f20:	10001026 	beq	r2,zero,2012f64 <epcs_read_buffer+0x70>
  {
        read_command[1] = (offset >> 24) & 0xFF;
 2012f24:	e0bffd17 	ldw	r2,-12(fp)
 2012f28:	1004d63a 	srli	r2,r2,24
 2012f2c:	e0bffa45 	stb	r2,-23(fp)
        read_command[2] = (offset >> 16) & 0xFF;
 2012f30:	e0bffd17 	ldw	r2,-12(fp)
 2012f34:	1005d43a 	srai	r2,r2,16
 2012f38:	e0bffa85 	stb	r2,-22(fp)
        read_command[3] = (offset >> 8) & 0xFF;
 2012f3c:	e0bffd17 	ldw	r2,-12(fp)
 2012f40:	1005d23a 	srai	r2,r2,8
 2012f44:	e0bffac5 	stb	r2,-21(fp)
        read_command[4] = offset & 0xFF;
 2012f48:	e0bffd17 	ldw	r2,-12(fp)
 2012f4c:	e0bffb05 	stb	r2,-20(fp)
        cmd_len = 5;
 2012f50:	00800144 	movi	r2,5
 2012f54:	e0bff915 	stw	r2,-28(fp)
        epcs_enter_4_bytes_mode(base);
 2012f58:	e13ffc17 	ldw	r4,-16(fp)
 2012f5c:	20132a40 	call	20132a4 <epcs_enter_4_bytes_mode>
 2012f60:	00000a06 	br	2012f8c <epcs_read_buffer+0x98>
  }
  else
  {
        read_command[1] = (offset >> 16) & 0xFF;
 2012f64:	e0bffd17 	ldw	r2,-12(fp)
 2012f68:	1005d43a 	srai	r2,r2,16
 2012f6c:	e0bffa45 	stb	r2,-23(fp)
        read_command[2] = (offset >> 8) & 0xFF;
 2012f70:	e0bffd17 	ldw	r2,-12(fp)
 2012f74:	1005d23a 	srai	r2,r2,8
 2012f78:	e0bffa85 	stb	r2,-22(fp)
        read_command[3] = offset & 0xFF;
 2012f7c:	e0bffd17 	ldw	r2,-12(fp)
 2012f80:	e0bffac5 	stb	r2,-21(fp)
        cmd_len = 4;
 2012f84:	00800104 	movi	r2,4
 2012f88:	e0bff915 	stw	r2,-28(fp)
  }

  epcs_await_wip_released(base);
 2012f8c:	e13ffc17 	ldw	r4,-16(fp)
 2012f90:	2012dc40 	call	2012dc4 <epcs_await_wip_released>

  alt_avalon_spi_command(
 2012f94:	e0ffff17 	ldw	r3,-4(fp)
    base,
    0,
    cmd_len,
    read_command,
 2012f98:	e0bffa04 	addi	r2,fp,-24
        cmd_len = 4;
  }

  epcs_await_wip_released(base);

  alt_avalon_spi_command(
 2012f9c:	d8c00015 	stw	r3,0(sp)
 2012fa0:	e0fffe17 	ldw	r3,-8(fp)
 2012fa4:	d8c00115 	stw	r3,4(sp)
 2012fa8:	d8000215 	stw	zero,8(sp)
 2012fac:	e13ffc17 	ldw	r4,-16(fp)
 2012fb0:	000b883a 	mov	r5,zero
 2012fb4:	e1bff917 	ldw	r6,-28(fp)
 2012fb8:	100f883a 	mov	r7,r2
 2012fbc:	2013cc40 	call	2013cc4 <alt_avalon_spi_command>
    length,
    (alt_u8*)dest_addr,
    0
  );

  if(four_bytes_mode)
 2012fc0:	e0800217 	ldw	r2,8(fp)
 2012fc4:	10000226 	beq	r2,zero,2012fd0 <epcs_read_buffer+0xdc>
  {
    epcs_exit_4_bytes_mode(base);
 2012fc8:	e13ffc17 	ldw	r4,-16(fp)
 2012fcc:	20132fc0 	call	20132fc <epcs_exit_4_bytes_mode>
  }

  return length;
 2012fd0:	e0bfff17 	ldw	r2,-4(fp)
}
 2012fd4:	e037883a 	mov	sp,fp
 2012fd8:	dfc00117 	ldw	ra,4(sp)
 2012fdc:	df000017 	ldw	fp,0(sp)
 2012fe0:	dec00204 	addi	sp,sp,8
 2012fe4:	f800283a 	ret

02012fe8 <epcs_write_enable>:

void epcs_write_enable(alt_u32 base)
{
 2012fe8:	defff904 	addi	sp,sp,-28
 2012fec:	dfc00615 	stw	ra,24(sp)
 2012ff0:	df000515 	stw	fp,20(sp)
 2012ff4:	df000504 	addi	fp,sp,20
 2012ff8:	e13fff15 	stw	r4,-4(fp)
  const alt_u8 wren = epcs_wren;
 2012ffc:	00800184 	movi	r2,6
 2013000:	e0bffe05 	stb	r2,-8(fp)
  alt_avalon_spi_command(
 2013004:	d8000015 	stw	zero,0(sp)
 2013008:	d8000115 	stw	zero,4(sp)
 201300c:	d8000215 	stw	zero,8(sp)
 2013010:	e13fff17 	ldw	r4,-4(fp)
 2013014:	000b883a 	mov	r5,zero
 2013018:	01800044 	movi	r6,1
 201301c:	e1fffe04 	addi	r7,fp,-8
 2013020:	2013cc40 	call	2013cc4 <alt_avalon_spi_command>
    &wren,
    0,
    (alt_u8*)0,
    0
  );
}
 2013024:	e037883a 	mov	sp,fp
 2013028:	dfc00117 	ldw	ra,4(sp)
 201302c:	df000017 	ldw	fp,0(sp)
 2013030:	dec00204 	addi	sp,sp,8
 2013034:	f800283a 	ret

02013038 <epcs_write_status_register>:

void epcs_write_status_register(alt_u32 base, alt_u8 value)
{
 2013038:	defff804 	addi	sp,sp,-32
 201303c:	dfc00715 	stw	ra,28(sp)
 2013040:	df000615 	stw	fp,24(sp)
 2013044:	df000604 	addi	fp,sp,24
 2013048:	e13ffe15 	stw	r4,-8(fp)
 201304c:	2805883a 	mov	r2,r5
 2013050:	e0bfff05 	stb	r2,-4(fp)
  alt_u8 wrsr[2];
  
  wrsr[0] = epcs_wrsr;
 2013054:	00800044 	movi	r2,1
 2013058:	e0bffd05 	stb	r2,-12(fp)
  wrsr[1] = value;
 201305c:	e0bfff03 	ldbu	r2,-4(fp)
 2013060:	e0bffd45 	stb	r2,-11(fp)

  alt_avalon_spi_command(
 2013064:	d8000015 	stw	zero,0(sp)
 2013068:	d8000115 	stw	zero,4(sp)
 201306c:	d8000215 	stw	zero,8(sp)
 2013070:	e13ffe17 	ldw	r4,-8(fp)
 2013074:	000b883a 	mov	r5,zero
 2013078:	01800084 	movi	r6,2
 201307c:	e1fffd04 	addi	r7,fp,-12
 2013080:	2013cc40 	call	2013cc4 <alt_avalon_spi_command>
    0,
    (alt_u8*)0,
    0
  );

  epcs_await_wip_released(base);
 2013084:	e13ffe17 	ldw	r4,-8(fp)
 2013088:	2012dc40 	call	2012dc4 <epcs_await_wip_released>
}
 201308c:	e037883a 	mov	sp,fp
 2013090:	dfc00117 	ldw	ra,4(sp)
 2013094:	df000017 	ldw	fp,0(sp)
 2013098:	dec00204 	addi	sp,sp,8
 201309c:	f800283a 	ret

020130a0 <epcs_write_buffer>:

/* Write a partial or full page, assuming that page has been erased */
alt_32 epcs_write_buffer(alt_u32 base, int offset, const alt_u8* src_addr, 
                         int length, alt_u32 four_bytes_mode)
{
 20130a0:	defff404 	addi	sp,sp,-48
 20130a4:	dfc00b15 	stw	ra,44(sp)
 20130a8:	df000a15 	stw	fp,40(sp)
 20130ac:	df000a04 	addi	fp,sp,40
 20130b0:	e13ffc15 	stw	r4,-16(fp)
 20130b4:	e17ffd15 	stw	r5,-12(fp)
 20130b8:	e1bffe15 	stw	r6,-8(fp)
 20130bc:	e1ffff15 	stw	r7,-4(fp)
  alt_u8 pp[5];
  alt_u32 cmd_len;
  
  pp[0] = epcs_pp;
 20130c0:	00800084 	movi	r2,2
 20130c4:	e0bffa05 	stb	r2,-24(fp)
  
  if(four_bytes_mode)
 20130c8:	e0800217 	ldw	r2,8(fp)
 20130cc:	10001026 	beq	r2,zero,2013110 <epcs_write_buffer+0x70>
  {
      pp[1] = (offset >> 24) & 0xFF;
 20130d0:	e0bffd17 	ldw	r2,-12(fp)
 20130d4:	1004d63a 	srli	r2,r2,24
 20130d8:	e0bffa45 	stb	r2,-23(fp)
      pp[2] = (offset >> 16) & 0xFF;
 20130dc:	e0bffd17 	ldw	r2,-12(fp)
 20130e0:	1005d43a 	srai	r2,r2,16
 20130e4:	e0bffa85 	stb	r2,-22(fp)
      pp[3] = (offset >> 8) & 0xFF;
 20130e8:	e0bffd17 	ldw	r2,-12(fp)
 20130ec:	1005d23a 	srai	r2,r2,8
 20130f0:	e0bffac5 	stb	r2,-21(fp)
      pp[4] = offset & 0xFF;
 20130f4:	e0bffd17 	ldw	r2,-12(fp)
 20130f8:	e0bffb05 	stb	r2,-20(fp)
      cmd_len = 5;
 20130fc:	00800144 	movi	r2,5
 2013100:	e0bff915 	stw	r2,-28(fp)
      epcs_enter_4_bytes_mode(base);
 2013104:	e13ffc17 	ldw	r4,-16(fp)
 2013108:	20132a40 	call	20132a4 <epcs_enter_4_bytes_mode>
 201310c:	00000a06 	br	2013138 <epcs_write_buffer+0x98>
  }
  else
  {
      pp[1] = (offset >> 16) & 0xFF;
 2013110:	e0bffd17 	ldw	r2,-12(fp)
 2013114:	1005d43a 	srai	r2,r2,16
 2013118:	e0bffa45 	stb	r2,-23(fp)
      pp[2] = (offset >> 8) & 0xFF;
 201311c:	e0bffd17 	ldw	r2,-12(fp)
 2013120:	1005d23a 	srai	r2,r2,8
 2013124:	e0bffa85 	stb	r2,-22(fp)
      pp[3] = offset & 0xFF;
 2013128:	e0bffd17 	ldw	r2,-12(fp)
 201312c:	e0bffac5 	stb	r2,-21(fp)
      cmd_len = 4;
 2013130:	00800104 	movi	r2,4
 2013134:	e0bff915 	stw	r2,-28(fp)
  }

  /* First, WREN */
  epcs_write_enable(base);
 2013138:	e13ffc17 	ldw	r4,-16(fp)
 201313c:	2012fe80 	call	2012fe8 <epcs_write_enable>
  /* Send the PP command */
  alt_avalon_spi_command(
    base,
    0,
    cmd_len,
    pp,
 2013140:	e0bffa04 	addi	r2,fp,-24

  /* First, WREN */
  epcs_write_enable(base);

  /* Send the PP command */
  alt_avalon_spi_command(
 2013144:	d8000015 	stw	zero,0(sp)
 2013148:	d8000115 	stw	zero,4(sp)
 201314c:	00c00044 	movi	r3,1
 2013150:	d8c00215 	stw	r3,8(sp)
 2013154:	e13ffc17 	ldw	r4,-16(fp)
 2013158:	000b883a 	mov	r5,zero
 201315c:	e1bff917 	ldw	r6,-28(fp)
 2013160:	100f883a 	mov	r7,r2
 2013164:	2013cc40 	call	2013cc4 <alt_avalon_spi_command>
    (alt_u8*)0,
    ALT_AVALON_SPI_COMMAND_MERGE
  );

  /* Send the user's buffer */
  alt_avalon_spi_command(
 2013168:	e0bfff17 	ldw	r2,-4(fp)
 201316c:	d8000015 	stw	zero,0(sp)
 2013170:	d8000115 	stw	zero,4(sp)
 2013174:	d8000215 	stw	zero,8(sp)
 2013178:	e13ffc17 	ldw	r4,-16(fp)
 201317c:	000b883a 	mov	r5,zero
 2013180:	100d883a 	mov	r6,r2
 2013184:	e1fffe17 	ldw	r7,-8(fp)
 2013188:	2013cc40 	call	2013cc4 <alt_avalon_spi_command>
   * if the user's going to go off and ignore the flash for
   * a while, its writes could occur in parallel with user code
   * execution.  Unfortunately, I have to guard all reads/writes
   * with wip-tests, to make that happen.
   */
  epcs_await_wip_released(base);
 201318c:	e13ffc17 	ldw	r4,-16(fp)
 2013190:	2012dc40 	call	2012dc4 <epcs_await_wip_released>

  if(four_bytes_mode)
 2013194:	e0800217 	ldw	r2,8(fp)
 2013198:	10000226 	beq	r2,zero,20131a4 <epcs_write_buffer+0x104>
  {
    epcs_exit_4_bytes_mode(base);
 201319c:	e13ffc17 	ldw	r4,-16(fp)
 20131a0:	20132fc0 	call	20132fc <epcs_exit_4_bytes_mode>
  }

  return length;
 20131a4:	e0bfff17 	ldw	r2,-4(fp)
}
 20131a8:	e037883a 	mov	sp,fp
 20131ac:	dfc00117 	ldw	ra,4(sp)
 20131b0:	df000017 	ldw	fp,0(sp)
 20131b4:	dec00204 	addi	sp,sp,8
 20131b8:	f800283a 	ret

020131bc <epcs_read_electronic_signature>:


alt_u8 epcs_read_electronic_signature(alt_u32 base)
{
 20131bc:	defff804 	addi	sp,sp,-32
 20131c0:	dfc00715 	stw	ra,28(sp)
 20131c4:	df000615 	stw	fp,24(sp)
 20131c8:	df000604 	addi	fp,sp,24
 20131cc:	e13fff15 	stw	r4,-4(fp)
  const alt_u8 res_cmd[] = {epcs_res, 0, 0, 0};
 20131d0:	00bfeac4 	movi	r2,-85
 20131d4:	e0bffd05 	stb	r2,-12(fp)
 20131d8:	e03ffd45 	stb	zero,-11(fp)
 20131dc:	e03ffd85 	stb	zero,-10(fp)
 20131e0:	e03ffdc5 	stb	zero,-9(fp)
  alt_u8 res;

  alt_avalon_spi_command(
 20131e4:	00800044 	movi	r2,1
 20131e8:	d8800015 	stw	r2,0(sp)
 20131ec:	e0bffe04 	addi	r2,fp,-8
 20131f0:	d8800115 	stw	r2,4(sp)
 20131f4:	d8000215 	stw	zero,8(sp)
 20131f8:	e13fff17 	ldw	r4,-4(fp)
 20131fc:	000b883a 	mov	r5,zero
 2013200:	01800104 	movi	r6,4
 2013204:	e1fffd04 	addi	r7,fp,-12
 2013208:	2013cc40 	call	2013cc4 <alt_avalon_spi_command>
    1,
    &res,
    0
  );

  return res;
 201320c:	e0bffe03 	ldbu	r2,-8(fp)
}
 2013210:	e037883a 	mov	sp,fp
 2013214:	dfc00117 	ldw	ra,4(sp)
 2013218:	df000017 	ldw	fp,0(sp)
 201321c:	dec00204 	addi	sp,sp,8
 2013220:	f800283a 	ret

02013224 <epcs_read_device_id>:

alt_u32 epcs_read_device_id(alt_u32 base)
{
 2013224:	defff904 	addi	sp,sp,-28
 2013228:	dfc00615 	stw	ra,24(sp)
 201322c:	df000515 	stw	fp,20(sp)
 2013230:	df000504 	addi	fp,sp,20
 2013234:	e13fff15 	stw	r4,-4(fp)
  const alt_u8 rd_id_cmd[] = {epcs_rdid};
 2013238:	00bfe7c4 	movi	r2,-97
 201323c:	e0bffe05 	stb	r2,-8(fp)
  alt_u8 id[3];

  alt_avalon_spi_command(
 2013240:	008000c4 	movi	r2,3
 2013244:	d8800015 	stw	r2,0(sp)
    base,
    0,
    sizeof(rd_id_cmd) / sizeof(*rd_id_cmd),
    rd_id_cmd,
    3,
    id,
 2013248:	e0bffe44 	addi	r2,fp,-7
alt_u32 epcs_read_device_id(alt_u32 base)
{
  const alt_u8 rd_id_cmd[] = {epcs_rdid};
  alt_u8 id[3];

  alt_avalon_spi_command(
 201324c:	d8800115 	stw	r2,4(sp)
 2013250:	d8000215 	stw	zero,8(sp)
 2013254:	e13fff17 	ldw	r4,-4(fp)
 2013258:	000b883a 	mov	r5,zero
 201325c:	01800044 	movi	r6,1
 2013260:	e1fffe04 	addi	r7,fp,-8
 2013264:	2013cc40 	call	2013cc4 <alt_avalon_spi_command>
    3,
    id,
    0
  );

  return (alt_u32) ((id[0] << 16) | (id[1] << 8) | id[2]);
 2013268:	e0bffe43 	ldbu	r2,-7(fp)
 201326c:	10803fcc 	andi	r2,r2,255
 2013270:	1006943a 	slli	r3,r2,16
 2013274:	e0bffe83 	ldbu	r2,-6(fp)
 2013278:	10803fcc 	andi	r2,r2,255
 201327c:	1004923a 	slli	r2,r2,8
 2013280:	1886b03a 	or	r3,r3,r2
 2013284:	e0bffec3 	ldbu	r2,-5(fp)
 2013288:	10803fcc 	andi	r2,r2,255
 201328c:	1884b03a 	or	r2,r3,r2
}
 2013290:	e037883a 	mov	sp,fp
 2013294:	dfc00117 	ldw	ra,4(sp)
 2013298:	df000017 	ldw	fp,0(sp)
 201329c:	dec00204 	addi	sp,sp,8
 20132a0:	f800283a 	ret

020132a4 <epcs_enter_4_bytes_mode>:

void epcs_enter_4_bytes_mode(alt_u32 base)
{
 20132a4:	defff904 	addi	sp,sp,-28
 20132a8:	dfc00615 	stw	ra,24(sp)
 20132ac:	df000515 	stw	fp,20(sp)
 20132b0:	df000504 	addi	fp,sp,20
 20132b4:	e13fff15 	stw	r4,-4(fp)
  const alt_u8 en4b_cmd = epcs_en4b;
 20132b8:	00bfedc4 	movi	r2,-73
 20132bc:	e0bffe05 	stb	r2,-8(fp)

  /* First, WREN */
  epcs_write_enable(base);
 20132c0:	e13fff17 	ldw	r4,-4(fp)
 20132c4:	2012fe80 	call	2012fe8 <epcs_write_enable>

  alt_avalon_spi_command(
 20132c8:	d8000015 	stw	zero,0(sp)
 20132cc:	d8000115 	stw	zero,4(sp)
 20132d0:	d8000215 	stw	zero,8(sp)
 20132d4:	e13fff17 	ldw	r4,-4(fp)
 20132d8:	000b883a 	mov	r5,zero
 20132dc:	01800044 	movi	r6,1
 20132e0:	e1fffe04 	addi	r7,fp,-8
 20132e4:	2013cc40 	call	2013cc4 <alt_avalon_spi_command>
    (alt_u8*)0,
    0
  );

  return;
}
 20132e8:	e037883a 	mov	sp,fp
 20132ec:	dfc00117 	ldw	ra,4(sp)
 20132f0:	df000017 	ldw	fp,0(sp)
 20132f4:	dec00204 	addi	sp,sp,8
 20132f8:	f800283a 	ret

020132fc <epcs_exit_4_bytes_mode>:

void epcs_exit_4_bytes_mode(alt_u32 base)
{
 20132fc:	defff904 	addi	sp,sp,-28
 2013300:	dfc00615 	stw	ra,24(sp)
 2013304:	df000515 	stw	fp,20(sp)
 2013308:	df000504 	addi	fp,sp,20
 201330c:	e13fff15 	stw	r4,-4(fp)
  const alt_u8 exit4b_cmd = epcs_dis4b;
 2013310:	00bffa44 	movi	r2,-23
 2013314:	e0bffe05 	stb	r2,-8(fp)

  /* First, WREN */
  epcs_write_enable(base);
 2013318:	e13fff17 	ldw	r4,-4(fp)
 201331c:	2012fe80 	call	2012fe8 <epcs_write_enable>

  alt_avalon_spi_command(
 2013320:	d8000015 	stw	zero,0(sp)
 2013324:	d8000115 	stw	zero,4(sp)
 2013328:	d8000215 	stw	zero,8(sp)
 201332c:	e13fff17 	ldw	r4,-4(fp)
 2013330:	000b883a 	mov	r5,zero
 2013334:	01800044 	movi	r6,1
 2013338:	e1fffe04 	addi	r7,fp,-8
 201333c:	2013cc40 	call	2013cc4 <alt_avalon_spi_command>
    (alt_u8*)0,
    0
  );

  return;
}
 2013340:	e037883a 	mov	sp,fp
 2013344:	dfc00117 	ldw	ra,4(sp)
 2013348:	df000017 	ldw	fp,0(sp)
 201334c:	dec00204 	addi	sp,sp,8
 2013350:	f800283a 	ret

02013354 <alt_dcache_flush_all>:
/*
 * alt_dcache_flush_all() is called to flush the entire data cache.
 */

void alt_dcache_flush_all (void)
{
 2013354:	deffff04 	addi	sp,sp,-4
 2013358:	df000015 	stw	fp,0(sp)
 201335c:	d839883a 	mov	fp,sp
  for (i = (char*) 0; i < (char*) NIOS2_DCACHE_SIZE; i+= NIOS2_DCACHE_LINE_SIZE)
  { 
    __asm__ volatile ("flushd (%0)" :: "r" (i));
  }
#endif /* NIOS2_DCACHE_SIZE > 0 */
}
 2013360:	e037883a 	mov	sp,fp
 2013364:	df000017 	ldw	fp,0(sp)
 2013368:	dec00104 	addi	sp,sp,4
 201336c:	f800283a 	ret

02013370 <alt_get_errno>:
#undef errno

extern int errno;

static ALT_INLINE int* alt_get_errno(void)
{
 2013370:	defffe04 	addi	sp,sp,-8
 2013374:	dfc00115 	stw	ra,4(sp)
 2013378:	df000015 	stw	fp,0(sp)
 201337c:	d839883a 	mov	fp,sp
  return ((alt_errno) ? alt_errno() : &errno);
 2013380:	00808274 	movhi	r2,521
 2013384:	10a55a04 	addi	r2,r2,-27288
 2013388:	10800017 	ldw	r2,0(r2)
 201338c:	10000526 	beq	r2,zero,20133a4 <alt_get_errno+0x34>
 2013390:	00808274 	movhi	r2,521
 2013394:	10a55a04 	addi	r2,r2,-27288
 2013398:	10800017 	ldw	r2,0(r2)
 201339c:	103ee83a 	callr	r2
 20133a0:	00000206 	br	20133ac <alt_get_errno+0x3c>
 20133a4:	00808274 	movhi	r2,521
 20133a8:	10acc804 	addi	r2,r2,-19680
}
 20133ac:	e037883a 	mov	sp,fp
 20133b0:	dfc00117 	ldw	ra,4(sp)
 20133b4:	df000017 	ldw	fp,0(sp)
 20133b8:	dec00204 	addi	sp,sp,8
 20133bc:	f800283a 	ret

020133c0 <alt_dev_llist_insert>:
/*
 *
 */

int alt_dev_llist_insert (alt_dev_llist* dev, alt_llist* list)
{
 20133c0:	defffa04 	addi	sp,sp,-24
 20133c4:	dfc00515 	stw	ra,20(sp)
 20133c8:	df000415 	stw	fp,16(sp)
 20133cc:	df000404 	addi	fp,sp,16
 20133d0:	e13ffe15 	stw	r4,-8(fp)
 20133d4:	e17fff15 	stw	r5,-4(fp)
  /*
   * check that the device exists, and that it has a valid name.
   */

  if (!dev || !dev->name)
 20133d8:	e0bffe17 	ldw	r2,-8(fp)
 20133dc:	10000326 	beq	r2,zero,20133ec <alt_dev_llist_insert+0x2c>
 20133e0:	e0bffe17 	ldw	r2,-8(fp)
 20133e4:	10800217 	ldw	r2,8(r2)
 20133e8:	1000051e 	bne	r2,zero,2013400 <alt_dev_llist_insert+0x40>
  {
    ALT_ERRNO = EINVAL;
 20133ec:	20133700 	call	2013370 <alt_get_errno>
 20133f0:	00c00584 	movi	r3,22
 20133f4:	10c00015 	stw	r3,0(r2)
    return -EINVAL;
 20133f8:	00bffa84 	movi	r2,-22
 20133fc:	00001306 	br	201344c <alt_dev_llist_insert+0x8c>
  
  /*
   * register the device.
   */
  
  alt_llist_insert(list, &dev->llist);
 2013400:	e0bffe17 	ldw	r2,-8(fp)
 2013404:	e0ffff17 	ldw	r3,-4(fp)
 2013408:	e0fffc15 	stw	r3,-16(fp)
 201340c:	e0bffd15 	stw	r2,-12(fp)
 */

static ALT_INLINE void ALT_ALWAYS_INLINE alt_llist_insert(alt_llist* list, 
                alt_llist* entry)
{
  entry->previous = list;
 2013410:	e0bffd17 	ldw	r2,-12(fp)
 2013414:	e0fffc17 	ldw	r3,-16(fp)
 2013418:	10c00115 	stw	r3,4(r2)
  entry->next     = list->next;
 201341c:	e0bffc17 	ldw	r2,-16(fp)
 2013420:	10c00017 	ldw	r3,0(r2)
 2013424:	e0bffd17 	ldw	r2,-12(fp)
 2013428:	10c00015 	stw	r3,0(r2)

  list->next->previous = entry;
 201342c:	e0bffc17 	ldw	r2,-16(fp)
 2013430:	10800017 	ldw	r2,0(r2)
 2013434:	e0fffd17 	ldw	r3,-12(fp)
 2013438:	10c00115 	stw	r3,4(r2)
  list->next           = entry;
 201343c:	e0bffc17 	ldw	r2,-16(fp)
 2013440:	e0fffd17 	ldw	r3,-12(fp)
 2013444:	10c00015 	stw	r3,0(r2)

  return 0;  
 2013448:	0005883a 	mov	r2,zero
}
 201344c:	e037883a 	mov	sp,fp
 2013450:	dfc00117 	ldw	ra,4(sp)
 2013454:	df000017 	ldw	fp,0(sp)
 2013458:	dec00204 	addi	sp,sp,8
 201345c:	f800283a 	ret

02013460 <_do_ctors>:
/*
 * Run the C++ static constructors.
 */

void _do_ctors(void)
{
 2013460:	defffd04 	addi	sp,sp,-12
 2013464:	dfc00215 	stw	ra,8(sp)
 2013468:	df000115 	stw	fp,4(sp)
 201346c:	df000104 	addi	fp,sp,4
  constructor* ctor;

  for (ctor = &__CTOR_END__[-1]; ctor >= __CTOR_LIST__; ctor--)
 2013470:	00808074 	movhi	r2,513
 2013474:	10914504 	addi	r2,r2,17684
 2013478:	e0bfff15 	stw	r2,-4(fp)
 201347c:	00000606 	br	2013498 <_do_ctors+0x38>
        (*ctor) (); 
 2013480:	e0bfff17 	ldw	r2,-4(fp)
 2013484:	10800017 	ldw	r2,0(r2)
 2013488:	103ee83a 	callr	r2

void _do_ctors(void)
{
  constructor* ctor;

  for (ctor = &__CTOR_END__[-1]; ctor >= __CTOR_LIST__; ctor--)
 201348c:	e0bfff17 	ldw	r2,-4(fp)
 2013490:	10bfff04 	addi	r2,r2,-4
 2013494:	e0bfff15 	stw	r2,-4(fp)
 2013498:	e0ffff17 	ldw	r3,-4(fp)
 201349c:	00808074 	movhi	r2,513
 20134a0:	10914604 	addi	r2,r2,17688
 20134a4:	18bff62e 	bgeu	r3,r2,2013480 <__alt_mem_epcs_flash_controller+0xfe00a480>
        (*ctor) (); 
}
 20134a8:	e037883a 	mov	sp,fp
 20134ac:	dfc00117 	ldw	ra,4(sp)
 20134b0:	df000017 	ldw	fp,0(sp)
 20134b4:	dec00204 	addi	sp,sp,8
 20134b8:	f800283a 	ret

020134bc <_do_dtors>:
/*
 * Run the C++ static destructors.
 */

void _do_dtors(void)
{
 20134bc:	defffd04 	addi	sp,sp,-12
 20134c0:	dfc00215 	stw	ra,8(sp)
 20134c4:	df000115 	stw	fp,4(sp)
 20134c8:	df000104 	addi	fp,sp,4
  destructor* dtor;

  for (dtor = &__DTOR_END__[-1]; dtor >= __DTOR_LIST__; dtor--)
 20134cc:	00808074 	movhi	r2,513
 20134d0:	10914504 	addi	r2,r2,17684
 20134d4:	e0bfff15 	stw	r2,-4(fp)
 20134d8:	00000606 	br	20134f4 <_do_dtors+0x38>
        (*dtor) (); 
 20134dc:	e0bfff17 	ldw	r2,-4(fp)
 20134e0:	10800017 	ldw	r2,0(r2)
 20134e4:	103ee83a 	callr	r2

void _do_dtors(void)
{
  destructor* dtor;

  for (dtor = &__DTOR_END__[-1]; dtor >= __DTOR_LIST__; dtor--)
 20134e8:	e0bfff17 	ldw	r2,-4(fp)
 20134ec:	10bfff04 	addi	r2,r2,-4
 20134f0:	e0bfff15 	stw	r2,-4(fp)
 20134f4:	e0ffff17 	ldw	r3,-4(fp)
 20134f8:	00808074 	movhi	r2,513
 20134fc:	10914604 	addi	r2,r2,17688
 2013500:	18bff62e 	bgeu	r3,r2,20134dc <__alt_mem_epcs_flash_controller+0xfe00a4dc>
        (*dtor) (); 
}
 2013504:	e037883a 	mov	sp,fp
 2013508:	dfc00117 	ldw	ra,4(sp)
 201350c:	df000017 	ldw	fp,0(sp)
 2013510:	dec00204 	addi	sp,sp,8
 2013514:	f800283a 	ret

02013518 <alt_flash_open_dev>:
#include "priv/alt_file.h"

ALT_LLIST_HEAD(alt_flash_dev_list);

alt_flash_fd* alt_flash_open_dev(const char* name)
{
 2013518:	defffc04 	addi	sp,sp,-16
 201351c:	dfc00315 	stw	ra,12(sp)
 2013520:	df000215 	stw	fp,8(sp)
 2013524:	df000204 	addi	fp,sp,8
 2013528:	e13fff15 	stw	r4,-4(fp)
  alt_flash_dev* dev = (alt_flash_dev*)alt_find_dev(name, &alt_flash_dev_list);
 201352c:	e13fff17 	ldw	r4,-4(fp)
 2013530:	d1600f04 	addi	r5,gp,-32708
 2013534:	2013ecc0 	call	2013ecc <alt_find_dev>
 2013538:	e0bffe15 	stw	r2,-8(fp)

  if ((dev) && dev->open)
 201353c:	e0bffe17 	ldw	r2,-8(fp)
 2013540:	10000926 	beq	r2,zero,2013568 <alt_flash_open_dev+0x50>
 2013544:	e0bffe17 	ldw	r2,-8(fp)
 2013548:	10800317 	ldw	r2,12(r2)
 201354c:	10000626 	beq	r2,zero,2013568 <alt_flash_open_dev+0x50>
  {
    return dev->open(dev, name);
 2013550:	e0bffe17 	ldw	r2,-8(fp)
 2013554:	10800317 	ldw	r2,12(r2)
 2013558:	e13ffe17 	ldw	r4,-8(fp)
 201355c:	e17fff17 	ldw	r5,-4(fp)
 2013560:	103ee83a 	callr	r2
 2013564:	00000106 	br	201356c <alt_flash_open_dev+0x54>
  }

  return dev;
 2013568:	e0bffe17 	ldw	r2,-8(fp)
}
 201356c:	e037883a 	mov	sp,fp
 2013570:	dfc00117 	ldw	ra,4(sp)
 2013574:	df000017 	ldw	fp,0(sp)
 2013578:	dec00204 	addi	sp,sp,8
 201357c:	f800283a 	ret

02013580 <alt_flash_close_dev>:

void alt_flash_close_dev(alt_flash_fd* fd)
{
 2013580:	defffd04 	addi	sp,sp,-12
 2013584:	dfc00215 	stw	ra,8(sp)
 2013588:	df000115 	stw	fp,4(sp)
 201358c:	df000104 	addi	fp,sp,4
 2013590:	e13fff15 	stw	r4,-4(fp)
  if (fd && fd->close)
 2013594:	e0bfff17 	ldw	r2,-4(fp)
 2013598:	10000726 	beq	r2,zero,20135b8 <alt_flash_close_dev+0x38>
 201359c:	e0bfff17 	ldw	r2,-4(fp)
 20135a0:	10800417 	ldw	r2,16(r2)
 20135a4:	10000426 	beq	r2,zero,20135b8 <alt_flash_close_dev+0x38>
  {
    fd->close(fd);
 20135a8:	e0bfff17 	ldw	r2,-4(fp)
 20135ac:	10800417 	ldw	r2,16(r2)
 20135b0:	e13fff17 	ldw	r4,-4(fp)
 20135b4:	103ee83a 	callr	r2
  }
  return;
 20135b8:	0001883a 	nop
}
 20135bc:	e037883a 	mov	sp,fp
 20135c0:	dfc00117 	ldw	ra,4(sp)
 20135c4:	df000017 	ldw	fp,0(sp)
 20135c8:	dec00204 	addi	sp,sp,8
 20135cc:	f800283a 	ret

020135d0 <alt_icache_flush_all>:
/*
 * alt_icache_flush_all() is called to flush the entire instruction cache.
 */

void alt_icache_flush_all (void)
{
 20135d0:	deffff04 	addi	sp,sp,-4
 20135d4:	df000015 	stw	fp,0(sp)
 20135d8:	d839883a 	mov	fp,sp
#if NIOS2_ICACHE_SIZE > 0
  alt_icache_flush (0, NIOS2_ICACHE_SIZE);
#endif
}
 20135dc:	e037883a 	mov	sp,fp
 20135e0:	df000017 	ldw	fp,0(sp)
 20135e4:	dec00104 	addi	sp,sp,4
 20135e8:	f800283a 	ret

020135ec <alt_ic_isr_register>:
  * @param irq              IRQ number
  * @return                 0 if successful, else error (-1)
  */
int alt_ic_isr_register(alt_u32 ic_id, alt_u32 irq, alt_isr_func isr, 
  void *isr_context, void *flags)
{
 20135ec:	defff904 	addi	sp,sp,-28
 20135f0:	dfc00615 	stw	ra,24(sp)
 20135f4:	df000515 	stw	fp,20(sp)
 20135f8:	df000504 	addi	fp,sp,20
 20135fc:	e13ffc15 	stw	r4,-16(fp)
 2013600:	e17ffd15 	stw	r5,-12(fp)
 2013604:	e1bffe15 	stw	r6,-8(fp)
 2013608:	e1ffff15 	stw	r7,-4(fp)
    return alt_iic_isr_register(ic_id, irq, isr, isr_context, flags);
 201360c:	e0800217 	ldw	r2,8(fp)
 2013610:	d8800015 	stw	r2,0(sp)
 2013614:	e13ffc17 	ldw	r4,-16(fp)
 2013618:	e17ffd17 	ldw	r5,-12(fp)
 201361c:	e1bffe17 	ldw	r6,-8(fp)
 2013620:	e1ffff17 	ldw	r7,-4(fp)
 2013624:	20137c40 	call	20137c4 <alt_iic_isr_register>
}  
 2013628:	e037883a 	mov	sp,fp
 201362c:	dfc00117 	ldw	ra,4(sp)
 2013630:	df000017 	ldw	fp,0(sp)
 2013634:	dec00204 	addi	sp,sp,8
 2013638:	f800283a 	ret

0201363c <alt_ic_irq_enable>:
  * @param ic_id            Ignored.
  * @param irq              IRQ number
  * @return                 0 if successful, else error (-1)
  */
int alt_ic_irq_enable (alt_u32 ic_id, alt_u32 irq)
{
 201363c:	defff904 	addi	sp,sp,-28
 2013640:	df000615 	stw	fp,24(sp)
 2013644:	df000604 	addi	fp,sp,24
 2013648:	e13ffe15 	stw	r4,-8(fp)
 201364c:	e17fff15 	stw	r5,-4(fp)
 2013650:	e0bfff17 	ldw	r2,-4(fp)
 2013654:	e0bffa15 	stw	r2,-24(fp)
static ALT_INLINE alt_irq_context ALT_ALWAYS_INLINE 
       alt_irq_disable_all (void)
{
  alt_irq_context context;

  NIOS2_READ_STATUS (context);
 2013658:	0005303a 	rdctl	r2,status
 201365c:	e0bffb15 	stw	r2,-20(fp)

  NIOS2_WRITE_STATUS (context & ~NIOS2_STATUS_PIE_MSK);
 2013660:	e0fffb17 	ldw	r3,-20(fp)
 2013664:	00bfff84 	movi	r2,-2
 2013668:	1884703a 	and	r2,r3,r2
 201366c:	1001703a 	wrctl	status,r2
  
  return context;
 2013670:	e0bffb17 	ldw	r2,-20(fp)
static ALT_INLINE int ALT_ALWAYS_INLINE alt_irq_enable (alt_u32 id)
{
  alt_irq_context  status;
  extern volatile alt_u32 alt_irq_active;

  status = alt_irq_disable_all ();
 2013674:	e0bffc15 	stw	r2,-16(fp)

  alt_irq_active |= (1 << id);
 2013678:	e0bffa17 	ldw	r2,-24(fp)
 201367c:	00c00044 	movi	r3,1
 2013680:	1884983a 	sll	r2,r3,r2
 2013684:	1007883a 	mov	r3,r2
 2013688:	00808274 	movhi	r2,521
 201368c:	10acd104 	addi	r2,r2,-19644
 2013690:	10800017 	ldw	r2,0(r2)
 2013694:	1886b03a 	or	r3,r3,r2
 2013698:	00808274 	movhi	r2,521
 201369c:	10acd104 	addi	r2,r2,-19644
 20136a0:	10c00015 	stw	r3,0(r2)
  NIOS2_WRITE_IENABLE (alt_irq_active);
 20136a4:	00808274 	movhi	r2,521
 20136a8:	10acd104 	addi	r2,r2,-19644
 20136ac:	10800017 	ldw	r2,0(r2)
 20136b0:	100170fa 	wrctl	ienable,r2
 20136b4:	e0bffc17 	ldw	r2,-16(fp)
 20136b8:	e0bffd15 	stw	r2,-12(fp)
  status &= ~NIOS2_STATUS_PIE_MSK;
  status |= (context & NIOS2_STATUS_PIE_MSK);
  
  NIOS2_WRITE_STATUS (status);
#else
  NIOS2_WRITE_STATUS (context);
 20136bc:	e0bffd17 	ldw	r2,-12(fp)
 20136c0:	1001703a 	wrctl	status,r2

  alt_irq_enable_all(status);

  return 0;
 20136c4:	0005883a 	mov	r2,zero
    return alt_irq_enable(irq);
}
 20136c8:	e037883a 	mov	sp,fp
 20136cc:	df000017 	ldw	fp,0(sp)
 20136d0:	dec00104 	addi	sp,sp,4
 20136d4:	f800283a 	ret

020136d8 <alt_ic_irq_disable>:
  * @param ic_id            Ignored.
  * @param irq              IRQ number
  * @return                 0 if successful, else error (-1)
  */
int alt_ic_irq_disable(alt_u32 ic_id, alt_u32 irq)
{
 20136d8:	defff904 	addi	sp,sp,-28
 20136dc:	df000615 	stw	fp,24(sp)
 20136e0:	df000604 	addi	fp,sp,24
 20136e4:	e13ffe15 	stw	r4,-8(fp)
 20136e8:	e17fff15 	stw	r5,-4(fp)
 20136ec:	e0bfff17 	ldw	r2,-4(fp)
 20136f0:	e0bffa15 	stw	r2,-24(fp)
static ALT_INLINE alt_irq_context ALT_ALWAYS_INLINE 
       alt_irq_disable_all (void)
{
  alt_irq_context context;

  NIOS2_READ_STATUS (context);
 20136f4:	0005303a 	rdctl	r2,status
 20136f8:	e0bffb15 	stw	r2,-20(fp)

  NIOS2_WRITE_STATUS (context & ~NIOS2_STATUS_PIE_MSK);
 20136fc:	e0fffb17 	ldw	r3,-20(fp)
 2013700:	00bfff84 	movi	r2,-2
 2013704:	1884703a 	and	r2,r3,r2
 2013708:	1001703a 	wrctl	status,r2
  
  return context;
 201370c:	e0bffb17 	ldw	r2,-20(fp)
static ALT_INLINE int ALT_ALWAYS_INLINE alt_irq_disable (alt_u32 id)
{
  alt_irq_context  status;
  extern volatile alt_u32 alt_irq_active;

  status = alt_irq_disable_all ();
 2013710:	e0bffc15 	stw	r2,-16(fp)

  alt_irq_active &= ~(1 << id);
 2013714:	e0bffa17 	ldw	r2,-24(fp)
 2013718:	00c00044 	movi	r3,1
 201371c:	1884983a 	sll	r2,r3,r2
 2013720:	0084303a 	nor	r2,zero,r2
 2013724:	1007883a 	mov	r3,r2
 2013728:	00808274 	movhi	r2,521
 201372c:	10acd104 	addi	r2,r2,-19644
 2013730:	10800017 	ldw	r2,0(r2)
 2013734:	1886703a 	and	r3,r3,r2
 2013738:	00808274 	movhi	r2,521
 201373c:	10acd104 	addi	r2,r2,-19644
 2013740:	10c00015 	stw	r3,0(r2)
  NIOS2_WRITE_IENABLE (alt_irq_active);
 2013744:	00808274 	movhi	r2,521
 2013748:	10acd104 	addi	r2,r2,-19644
 201374c:	10800017 	ldw	r2,0(r2)
 2013750:	100170fa 	wrctl	ienable,r2
 2013754:	e0bffc17 	ldw	r2,-16(fp)
 2013758:	e0bffd15 	stw	r2,-12(fp)
  status &= ~NIOS2_STATUS_PIE_MSK;
  status |= (context & NIOS2_STATUS_PIE_MSK);
  
  NIOS2_WRITE_STATUS (status);
#else
  NIOS2_WRITE_STATUS (context);
 201375c:	e0bffd17 	ldw	r2,-12(fp)
 2013760:	1001703a 	wrctl	status,r2

  alt_irq_enable_all(status);

  return 0;
 2013764:	0005883a 	mov	r2,zero
    return alt_irq_disable(irq);
}
 2013768:	e037883a 	mov	sp,fp
 201376c:	df000017 	ldw	fp,0(sp)
 2013770:	dec00104 	addi	sp,sp,4
 2013774:	f800283a 	ret

02013778 <alt_ic_irq_enabled>:
  * @param irq              IRQ number
  * @return                 Zero if corresponding interrupt is disabled and
  *                         non-zero otherwise.
  */
alt_u32 alt_ic_irq_enabled(alt_u32 ic_id, alt_u32 irq)
{
 2013778:	defffc04 	addi	sp,sp,-16
 201377c:	df000315 	stw	fp,12(sp)
 2013780:	df000304 	addi	fp,sp,12
 2013784:	e13ffe15 	stw	r4,-8(fp)
 2013788:	e17fff15 	stw	r5,-4(fp)
    alt_u32 irq_enabled;

    NIOS2_READ_IENABLE(irq_enabled);
 201378c:	000530fa 	rdctl	r2,ienable
 2013790:	e0bffd15 	stw	r2,-12(fp)

    return (irq_enabled & (1 << irq)) ? 1: 0;
 2013794:	e0bfff17 	ldw	r2,-4(fp)
 2013798:	00c00044 	movi	r3,1
 201379c:	1884983a 	sll	r2,r3,r2
 20137a0:	1007883a 	mov	r3,r2
 20137a4:	e0bffd17 	ldw	r2,-12(fp)
 20137a8:	1884703a 	and	r2,r3,r2
 20137ac:	1004c03a 	cmpne	r2,r2,zero
 20137b0:	10803fcc 	andi	r2,r2,255
}
 20137b4:	e037883a 	mov	sp,fp
 20137b8:	df000017 	ldw	fp,0(sp)
 20137bc:	dec00104 	addi	sp,sp,4
 20137c0:	f800283a 	ret

020137c4 <alt_iic_isr_register>:
  * @param flags            
  * @return                 0 if successful, else error (-1)
  */
int alt_iic_isr_register(alt_u32 ic_id, alt_u32 irq, alt_isr_func isr, 
  void *isr_context, void *flags)
{
 20137c4:	defff504 	addi	sp,sp,-44
 20137c8:	dfc00a15 	stw	ra,40(sp)
 20137cc:	df000915 	stw	fp,36(sp)
 20137d0:	df000904 	addi	fp,sp,36
 20137d4:	e13ffc15 	stw	r4,-16(fp)
 20137d8:	e17ffd15 	stw	r5,-12(fp)
 20137dc:	e1bffe15 	stw	r6,-8(fp)
 20137e0:	e1ffff15 	stw	r7,-4(fp)
  int rc = -EINVAL;  
 20137e4:	00bffa84 	movi	r2,-22
 20137e8:	e0bff715 	stw	r2,-36(fp)
  int id = irq;             /* IRQ interpreted as the interrupt ID. */
 20137ec:	e0bffd17 	ldw	r2,-12(fp)
 20137f0:	e0bff815 	stw	r2,-32(fp)
  alt_irq_context status;

  if (id < ALT_NIRQ)
 20137f4:	e0bff817 	ldw	r2,-32(fp)
 20137f8:	10800808 	cmpgei	r2,r2,32
 20137fc:	1000271e 	bne	r2,zero,201389c <alt_iic_isr_register+0xd8>
static ALT_INLINE alt_irq_context ALT_ALWAYS_INLINE 
       alt_irq_disable_all (void)
{
  alt_irq_context context;

  NIOS2_READ_STATUS (context);
 2013800:	0005303a 	rdctl	r2,status
 2013804:	e0bffa15 	stw	r2,-24(fp)

  NIOS2_WRITE_STATUS (context & ~NIOS2_STATUS_PIE_MSK);
 2013808:	e0fffa17 	ldw	r3,-24(fp)
 201380c:	00bfff84 	movi	r2,-2
 2013810:	1884703a 	and	r2,r3,r2
 2013814:	1001703a 	wrctl	status,r2
  
  return context;
 2013818:	e0bffa17 	ldw	r2,-24(fp)
     * interrupts are disabled while the handler tables are updated to ensure
     * that an interrupt doesn't occur while the tables are in an inconsistant
     * state.
     */

    status = alt_irq_disable_all();
 201381c:	e0bff915 	stw	r2,-28(fp)

    alt_irq[id].handler = isr;
 2013820:	00c08274 	movhi	r3,521
 2013824:	18ed2404 	addi	r3,r3,-19312
 2013828:	e0bff817 	ldw	r2,-32(fp)
 201382c:	100490fa 	slli	r2,r2,3
 2013830:	1885883a 	add	r2,r3,r2
 2013834:	e0fffe17 	ldw	r3,-8(fp)
 2013838:	10c00015 	stw	r3,0(r2)
    alt_irq[id].context = isr_context;
 201383c:	00c08274 	movhi	r3,521
 2013840:	18ed2404 	addi	r3,r3,-19312
 2013844:	e0bff817 	ldw	r2,-32(fp)
 2013848:	100490fa 	slli	r2,r2,3
 201384c:	1885883a 	add	r2,r3,r2
 2013850:	10800104 	addi	r2,r2,4
 2013854:	e0ffff17 	ldw	r3,-4(fp)
 2013858:	10c00015 	stw	r3,0(r2)

    rc = (isr) ? alt_ic_irq_enable(ic_id, id) : alt_ic_irq_disable(ic_id, id);
 201385c:	e0bffe17 	ldw	r2,-8(fp)
 2013860:	10000526 	beq	r2,zero,2013878 <alt_iic_isr_register+0xb4>
 2013864:	e0bff817 	ldw	r2,-32(fp)
 2013868:	e13ffc17 	ldw	r4,-16(fp)
 201386c:	100b883a 	mov	r5,r2
 2013870:	201363c0 	call	201363c <alt_ic_irq_enable>
 2013874:	00000406 	br	2013888 <alt_iic_isr_register+0xc4>
 2013878:	e0bff817 	ldw	r2,-32(fp)
 201387c:	e13ffc17 	ldw	r4,-16(fp)
 2013880:	100b883a 	mov	r5,r2
 2013884:	20136d80 	call	20136d8 <alt_ic_irq_disable>
 2013888:	e0bff715 	stw	r2,-36(fp)
 201388c:	e0bff917 	ldw	r2,-28(fp)
 2013890:	e0bffb15 	stw	r2,-20(fp)
  status &= ~NIOS2_STATUS_PIE_MSK;
  status |= (context & NIOS2_STATUS_PIE_MSK);
  
  NIOS2_WRITE_STATUS (status);
#else
  NIOS2_WRITE_STATUS (context);
 2013894:	e0bffb17 	ldw	r2,-20(fp)
 2013898:	1001703a 	wrctl	status,r2

    alt_irq_enable_all(status);
  }

  return rc; 
 201389c:	e0bff717 	ldw	r2,-36(fp)
}
 20138a0:	e037883a 	mov	sp,fp
 20138a4:	dfc00117 	ldw	ra,4(sp)
 20138a8:	df000017 	ldw	fp,0(sp)
 20138ac:	dec00204 	addi	sp,sp,8
 20138b0:	f800283a 	ret

020138b4 <alt_open_fd>:
 * If the device can not be succesfully opened, then the input file descriptor
 * remains unchanged.
 */

static void alt_open_fd(alt_fd* fd, const char* name, int flags, int mode)
{
 20138b4:	defff804 	addi	sp,sp,-32
 20138b8:	dfc00715 	stw	ra,28(sp)
 20138bc:	df000615 	stw	fp,24(sp)
 20138c0:	dc000515 	stw	r16,20(sp)
 20138c4:	df000504 	addi	fp,sp,20
 20138c8:	e13ffc15 	stw	r4,-16(fp)
 20138cc:	e17ffd15 	stw	r5,-12(fp)
 20138d0:	e1bffe15 	stw	r6,-8(fp)
 20138d4:	e1ffff15 	stw	r7,-4(fp)
  int old;

  old = open (name, flags, mode);
 20138d8:	e13ffd17 	ldw	r4,-12(fp)
 20138dc:	e17ffe17 	ldw	r5,-8(fp)
 20138e0:	e1bfff17 	ldw	r6,-4(fp)
 20138e4:	2013b4c0 	call	2013b4c <open>
 20138e8:	e0bffb15 	stw	r2,-20(fp)

  if (old >= 0)
 20138ec:	e0bffb17 	ldw	r2,-20(fp)
 20138f0:	10002216 	blt	r2,zero,201397c <alt_open_fd+0xc8>
  {
    fd->dev      = alt_fd_list[old].dev;
 20138f4:	04008274 	movhi	r16,521
 20138f8:	84207404 	addi	r16,r16,-32304
 20138fc:	e0bffb17 	ldw	r2,-20(fp)
 2013900:	1009883a 	mov	r4,r2
 2013904:	01400304 	movi	r5,12
 2013908:	2001d200 	call	2001d20 <__mulsi3>
 201390c:	8085883a 	add	r2,r16,r2
 2013910:	10c00017 	ldw	r3,0(r2)
 2013914:	e0bffc17 	ldw	r2,-16(fp)
 2013918:	10c00015 	stw	r3,0(r2)
    fd->priv     = alt_fd_list[old].priv;
 201391c:	04008274 	movhi	r16,521
 2013920:	84207404 	addi	r16,r16,-32304
 2013924:	e0bffb17 	ldw	r2,-20(fp)
 2013928:	1009883a 	mov	r4,r2
 201392c:	01400304 	movi	r5,12
 2013930:	2001d200 	call	2001d20 <__mulsi3>
 2013934:	8085883a 	add	r2,r16,r2
 2013938:	10800104 	addi	r2,r2,4
 201393c:	10c00017 	ldw	r3,0(r2)
 2013940:	e0bffc17 	ldw	r2,-16(fp)
 2013944:	10c00115 	stw	r3,4(r2)
    fd->fd_flags = alt_fd_list[old].fd_flags;
 2013948:	04008274 	movhi	r16,521
 201394c:	84207404 	addi	r16,r16,-32304
 2013950:	e0bffb17 	ldw	r2,-20(fp)
 2013954:	1009883a 	mov	r4,r2
 2013958:	01400304 	movi	r5,12
 201395c:	2001d200 	call	2001d20 <__mulsi3>
 2013960:	8085883a 	add	r2,r16,r2
 2013964:	10800204 	addi	r2,r2,8
 2013968:	10c00017 	ldw	r3,0(r2)
 201396c:	e0bffc17 	ldw	r2,-16(fp)
 2013970:	10c00215 	stw	r3,8(r2)

    alt_release_fd (old);
 2013974:	e13ffb17 	ldw	r4,-20(fp)
 2013978:	2010a600 	call	2010a60 <alt_release_fd>
  }
} 
 201397c:	e037883a 	mov	sp,fp
 2013980:	dfc00217 	ldw	ra,8(sp)
 2013984:	df000117 	ldw	fp,4(sp)
 2013988:	dc000017 	ldw	r16,0(sp)
 201398c:	dec00304 	addi	sp,sp,12
 2013990:	f800283a 	ret

02013994 <alt_io_redirect>:
 */
 
void alt_io_redirect(const char* stdout_dev, 
                     const char* stdin_dev, 
                     const char* stderr_dev)
{
 2013994:	defffb04 	addi	sp,sp,-20
 2013998:	dfc00415 	stw	ra,16(sp)
 201399c:	df000315 	stw	fp,12(sp)
 20139a0:	df000304 	addi	fp,sp,12
 20139a4:	e13ffd15 	stw	r4,-12(fp)
 20139a8:	e17ffe15 	stw	r5,-8(fp)
 20139ac:	e1bfff15 	stw	r6,-4(fp)
  /* Redirect the channels */

  alt_open_fd (&alt_fd_list[STDOUT_FILENO], stdout_dev, O_WRONLY, 0777);
 20139b0:	01008274 	movhi	r4,521
 20139b4:	21207704 	addi	r4,r4,-32292
 20139b8:	e17ffd17 	ldw	r5,-12(fp)
 20139bc:	01800044 	movi	r6,1
 20139c0:	01c07fc4 	movi	r7,511
 20139c4:	20138b40 	call	20138b4 <alt_open_fd>
  alt_open_fd (&alt_fd_list[STDIN_FILENO], stdin_dev, O_RDONLY, 0777);
 20139c8:	01008274 	movhi	r4,521
 20139cc:	21207404 	addi	r4,r4,-32304
 20139d0:	e17ffe17 	ldw	r5,-8(fp)
 20139d4:	000d883a 	mov	r6,zero
 20139d8:	01c07fc4 	movi	r7,511
 20139dc:	20138b40 	call	20138b4 <alt_open_fd>
  alt_open_fd (&alt_fd_list[STDERR_FILENO], stderr_dev, O_WRONLY, 0777);
 20139e0:	01008274 	movhi	r4,521
 20139e4:	21207a04 	addi	r4,r4,-32280
 20139e8:	e17fff17 	ldw	r5,-4(fp)
 20139ec:	01800044 	movi	r6,1
 20139f0:	01c07fc4 	movi	r7,511
 20139f4:	20138b40 	call	20138b4 <alt_open_fd>
}  
 20139f8:	e037883a 	mov	sp,fp
 20139fc:	dfc00117 	ldw	ra,4(sp)
 2013a00:	df000017 	ldw	fp,0(sp)
 2013a04:	dec00204 	addi	sp,sp,8
 2013a08:	f800283a 	ret

02013a0c <alt_get_errno>:
#undef errno

extern int errno;

static ALT_INLINE int* alt_get_errno(void)
{
 2013a0c:	defffe04 	addi	sp,sp,-8
 2013a10:	dfc00115 	stw	ra,4(sp)
 2013a14:	df000015 	stw	fp,0(sp)
 2013a18:	d839883a 	mov	fp,sp
  return ((alt_errno) ? alt_errno() : &errno);
 2013a1c:	00808274 	movhi	r2,521
 2013a20:	10a55a04 	addi	r2,r2,-27288
 2013a24:	10800017 	ldw	r2,0(r2)
 2013a28:	10000526 	beq	r2,zero,2013a40 <alt_get_errno+0x34>
 2013a2c:	00808274 	movhi	r2,521
 2013a30:	10a55a04 	addi	r2,r2,-27288
 2013a34:	10800017 	ldw	r2,0(r2)
 2013a38:	103ee83a 	callr	r2
 2013a3c:	00000206 	br	2013a48 <alt_get_errno+0x3c>
 2013a40:	00808274 	movhi	r2,521
 2013a44:	10acc804 	addi	r2,r2,-19680
}
 2013a48:	e037883a 	mov	sp,fp
 2013a4c:	dfc00117 	ldw	ra,4(sp)
 2013a50:	df000017 	ldw	fp,0(sp)
 2013a54:	dec00204 	addi	sp,sp,8
 2013a58:	f800283a 	ret

02013a5c <alt_file_locked>:
 * performed for devices. Filesystems are required to handle the ioctl() call
 * themselves, and report the error from the filesystems open() function. 
 */ 

static int alt_file_locked (alt_fd* fd)
{
 2013a5c:	defffb04 	addi	sp,sp,-20
 2013a60:	dfc00415 	stw	ra,16(sp)
 2013a64:	df000315 	stw	fp,12(sp)
 2013a68:	dc000215 	stw	r16,8(sp)
 2013a6c:	df000204 	addi	fp,sp,8
 2013a70:	e13fff15 	stw	r4,-4(fp)

  /*
   * Mark the file descriptor as belonging to a device.
   */

  fd->fd_flags |= ALT_FD_DEV;
 2013a74:	e0bfff17 	ldw	r2,-4(fp)
 2013a78:	10800217 	ldw	r2,8(r2)
 2013a7c:	10d00034 	orhi	r3,r2,16384
 2013a80:	e0bfff17 	ldw	r2,-4(fp)
 2013a84:	10c00215 	stw	r3,8(r2)
  /*
   * Loop through all current file descriptors searching for one that's locked
   * for exclusive access. If a match is found, generate an error.
   */

  for (i = 0; i <= alt_max_fd; i++)
 2013a88:	e03ffe15 	stw	zero,-8(fp)
 2013a8c:	00002206 	br	2013b18 <alt_file_locked+0xbc>
  {
    if ((alt_fd_list[i].dev == fd->dev) &&
 2013a90:	04008274 	movhi	r16,521
 2013a94:	84207404 	addi	r16,r16,-32304
 2013a98:	e0bffe17 	ldw	r2,-8(fp)
 2013a9c:	1009883a 	mov	r4,r2
 2013aa0:	01400304 	movi	r5,12
 2013aa4:	2001d200 	call	2001d20 <__mulsi3>
 2013aa8:	8085883a 	add	r2,r16,r2
 2013aac:	10c00017 	ldw	r3,0(r2)
 2013ab0:	e0bfff17 	ldw	r2,-4(fp)
 2013ab4:	10800017 	ldw	r2,0(r2)
 2013ab8:	1880141e 	bne	r3,r2,2013b0c <alt_file_locked+0xb0>
        (alt_fd_list[i].fd_flags & ALT_FD_EXCL) &&
 2013abc:	04008274 	movhi	r16,521
 2013ac0:	84207404 	addi	r16,r16,-32304
 2013ac4:	e0bffe17 	ldw	r2,-8(fp)
 2013ac8:	1009883a 	mov	r4,r2
 2013acc:	01400304 	movi	r5,12
 2013ad0:	2001d200 	call	2001d20 <__mulsi3>
 2013ad4:	8085883a 	add	r2,r16,r2
 2013ad8:	10800204 	addi	r2,r2,8
 2013adc:	10800017 	ldw	r2,0(r2)
   * for exclusive access. If a match is found, generate an error.
   */

  for (i = 0; i <= alt_max_fd; i++)
  {
    if ((alt_fd_list[i].dev == fd->dev) &&
 2013ae0:	10000a0e 	bge	r2,zero,2013b0c <alt_file_locked+0xb0>
        (alt_fd_list[i].fd_flags & ALT_FD_EXCL) &&
        (&alt_fd_list[i] != fd))
 2013ae4:	e13ffe17 	ldw	r4,-8(fp)
 2013ae8:	01400304 	movi	r5,12
 2013aec:	2001d200 	call	2001d20 <__mulsi3>
 2013af0:	00c08274 	movhi	r3,521
 2013af4:	18e07404 	addi	r3,r3,-32304
 2013af8:	10c7883a 	add	r3,r2,r3
   */

  for (i = 0; i <= alt_max_fd; i++)
  {
    if ((alt_fd_list[i].dev == fd->dev) &&
        (alt_fd_list[i].fd_flags & ALT_FD_EXCL) &&
 2013afc:	e0bfff17 	ldw	r2,-4(fp)
 2013b00:	18800226 	beq	r3,r2,2013b0c <alt_file_locked+0xb0>
        (&alt_fd_list[i] != fd))
    {
      return -EACCES;
 2013b04:	00bffcc4 	movi	r2,-13
 2013b08:	00000a06 	br	2013b34 <alt_file_locked+0xd8>
  /*
   * Loop through all current file descriptors searching for one that's locked
   * for exclusive access. If a match is found, generate an error.
   */

  for (i = 0; i <= alt_max_fd; i++)
 2013b0c:	e0bffe17 	ldw	r2,-8(fp)
 2013b10:	10800044 	addi	r2,r2,1
 2013b14:	e0bffe15 	stw	r2,-8(fp)
 2013b18:	00808274 	movhi	r2,521
 2013b1c:	10a55904 	addi	r2,r2,-27292
 2013b20:	10800017 	ldw	r2,0(r2)
 2013b24:	1007883a 	mov	r3,r2
 2013b28:	e0bffe17 	ldw	r2,-8(fp)
 2013b2c:	18bfd82e 	bgeu	r3,r2,2013a90 <__alt_mem_epcs_flash_controller+0xfe00aa90>
    }
  }
  
  /* The device is not locked */
 
  return 0;
 2013b30:	0005883a 	mov	r2,zero
}
 2013b34:	e037883a 	mov	sp,fp
 2013b38:	dfc00217 	ldw	ra,8(sp)
 2013b3c:	df000117 	ldw	fp,4(sp)
 2013b40:	dc000017 	ldw	r16,0(sp)
 2013b44:	dec00304 	addi	sp,sp,12
 2013b48:	f800283a 	ret

02013b4c <open>:
 *
 * ALT_OPEN is mapped onto the open() system call in alt_syscall.h
 */
 
int ALT_OPEN (const char* file, int flags, int mode)
{ 
 2013b4c:	defff604 	addi	sp,sp,-40
 2013b50:	dfc00915 	stw	ra,36(sp)
 2013b54:	df000815 	stw	fp,32(sp)
 2013b58:	df000804 	addi	fp,sp,32
 2013b5c:	e13ffd15 	stw	r4,-12(fp)
 2013b60:	e17ffe15 	stw	r5,-8(fp)
 2013b64:	e1bfff15 	stw	r6,-4(fp)
  alt_dev* dev;
  alt_fd*  fd;
  int index  = -1;
 2013b68:	00bfffc4 	movi	r2,-1
 2013b6c:	e0bff915 	stw	r2,-28(fp)
  int status = -ENODEV;
 2013b70:	00bffb44 	movi	r2,-19
 2013b74:	e0bffa15 	stw	r2,-24(fp)
  int isafs = 0;
 2013b78:	e03ffb15 	stw	zero,-20(fp)
  /* 
   * Check the device list, to see if a device with a matching name is 
   * registered.
   */
  
  if (!(dev = alt_find_dev (file, &alt_dev_list)))
 2013b7c:	e13ffd17 	ldw	r4,-12(fp)
 2013b80:	01408274 	movhi	r5,521
 2013b84:	29655704 	addi	r5,r5,-27300
 2013b88:	2013ecc0 	call	2013ecc <alt_find_dev>
 2013b8c:	e0bff815 	stw	r2,-32(fp)
 2013b90:	e0bff817 	ldw	r2,-32(fp)
 2013b94:	1000051e 	bne	r2,zero,2013bac <open+0x60>
  {
    /* No matching device, so try the filesystem list */

    dev   = alt_find_file (file);
 2013b98:	e13ffd17 	ldw	r4,-12(fp)
 2013b9c:	2013f5c0 	call	2013f5c <alt_find_file>
 2013ba0:	e0bff815 	stw	r2,-32(fp)
    isafs = 1;
 2013ba4:	00800044 	movi	r2,1
 2013ba8:	e0bffb15 	stw	r2,-20(fp)

  /* 
   * If a matching device or filesystem is found, allocate a file descriptor. 
   */

  if (dev)
 2013bac:	e0bff817 	ldw	r2,-32(fp)
 2013bb0:	10002a26 	beq	r2,zero,2013c5c <open+0x110>
  {
    if ((index = alt_get_fd (dev)) < 0)
 2013bb4:	e13ff817 	ldw	r4,-32(fp)
 2013bb8:	20140700 	call	2014070 <alt_get_fd>
 2013bbc:	e0bff915 	stw	r2,-28(fp)
 2013bc0:	e0bff917 	ldw	r2,-28(fp)
 2013bc4:	1000030e 	bge	r2,zero,2013bd4 <open+0x88>
    {
      status = index;
 2013bc8:	e0bff917 	ldw	r2,-28(fp)
 2013bcc:	e0bffa15 	stw	r2,-24(fp)
 2013bd0:	00002406 	br	2013c64 <open+0x118>
    }
    else
    {
      fd = &alt_fd_list[index];
 2013bd4:	e13ff917 	ldw	r4,-28(fp)
 2013bd8:	01400304 	movi	r5,12
 2013bdc:	2001d200 	call	2001d20 <__mulsi3>
 2013be0:	00c08274 	movhi	r3,521
 2013be4:	18e07404 	addi	r3,r3,-32304
 2013be8:	10c5883a 	add	r2,r2,r3
 2013bec:	e0bffc15 	stw	r2,-16(fp)
      fd->fd_flags = (flags & ~ALT_FD_FLAGS_MASK);
 2013bf0:	e0fffe17 	ldw	r3,-8(fp)
 2013bf4:	00900034 	movhi	r2,16384
 2013bf8:	10bfffc4 	addi	r2,r2,-1
 2013bfc:	1886703a 	and	r3,r3,r2
 2013c00:	e0bffc17 	ldw	r2,-16(fp)
 2013c04:	10c00215 	stw	r3,8(r2)
      
      /* If this is a device, ensure it isn't already locked */

      if (isafs || ((status = alt_file_locked (fd)) >= 0))
 2013c08:	e0bffb17 	ldw	r2,-20(fp)
 2013c0c:	1000051e 	bne	r2,zero,2013c24 <open+0xd8>
 2013c10:	e13ffc17 	ldw	r4,-16(fp)
 2013c14:	2013a5c0 	call	2013a5c <alt_file_locked>
 2013c18:	e0bffa15 	stw	r2,-24(fp)
 2013c1c:	e0bffa17 	ldw	r2,-24(fp)
 2013c20:	10001016 	blt	r2,zero,2013c64 <open+0x118>
        /* 
         * If the device or filesystem provides an open() callback function,
         * call it now to perform any device/filesystem specific operations.
         */
    
        status = (dev->open) ? dev->open(fd, file, flags, mode): 0;
 2013c24:	e0bff817 	ldw	r2,-32(fp)
 2013c28:	10800317 	ldw	r2,12(r2)
 2013c2c:	10000826 	beq	r2,zero,2013c50 <open+0x104>
 2013c30:	e0bff817 	ldw	r2,-32(fp)
 2013c34:	10800317 	ldw	r2,12(r2)
 2013c38:	e13ffc17 	ldw	r4,-16(fp)
 2013c3c:	e17ffd17 	ldw	r5,-12(fp)
 2013c40:	e1bffe17 	ldw	r6,-8(fp)
 2013c44:	e1ffff17 	ldw	r7,-4(fp)
 2013c48:	103ee83a 	callr	r2
 2013c4c:	00000106 	br	2013c54 <open+0x108>
 2013c50:	0005883a 	mov	r2,zero
 2013c54:	e0bffa15 	stw	r2,-24(fp)
 2013c58:	00000206 	br	2013c64 <open+0x118>
      }
    }
  }
  else
  {
    status = -ENODEV;
 2013c5c:	00bffb44 	movi	r2,-19
 2013c60:	e0bffa15 	stw	r2,-24(fp)
  }

  /* Allocation failed, so clean up and return an error */ 

  if (status < 0)
 2013c64:	e0bffa17 	ldw	r2,-24(fp)
 2013c68:	1000080e 	bge	r2,zero,2013c8c <open+0x140>
  {
    alt_release_fd (index);  
 2013c6c:	e13ff917 	ldw	r4,-28(fp)
 2013c70:	2010a600 	call	2010a60 <alt_release_fd>
    ALT_ERRNO = -status;
 2013c74:	2013a0c0 	call	2013a0c <alt_get_errno>
 2013c78:	e0fffa17 	ldw	r3,-24(fp)
 2013c7c:	00c7c83a 	sub	r3,zero,r3
 2013c80:	10c00015 	stw	r3,0(r2)
    return -1;
 2013c84:	00bfffc4 	movi	r2,-1
 2013c88:	00000106 	br	2013c90 <open+0x144>
  }
  
  /* return the reference upon success */

  return index;
 2013c8c:	e0bff917 	ldw	r2,-28(fp)
}
 2013c90:	e037883a 	mov	sp,fp
 2013c94:	dfc00117 	ldw	ra,4(sp)
 2013c98:	df000017 	ldw	fp,0(sp)
 2013c9c:	dec00204 	addi	sp,sp,8
 2013ca0:	f800283a 	ret

02013ca4 <altera_nios2_qsys_irq_init>:
/*
 * To initialize the internal interrupt controller, just clear the IENABLE
 * register so that all possible IRQs are disabled.
 */
void altera_nios2_qsys_irq_init(void) 
{
 2013ca4:	deffff04 	addi	sp,sp,-4
 2013ca8:	df000015 	stw	fp,0(sp)
 2013cac:	d839883a 	mov	fp,sp
    NIOS2_WRITE_IENABLE(0);
 2013cb0:	000170fa 	wrctl	ienable,zero
}
 2013cb4:	e037883a 	mov	sp,fp
 2013cb8:	df000017 	ldw	fp,0(sp)
 2013cbc:	dec00104 	addi	sp,sp,4
 2013cc0:	f800283a 	ret

02013cc4 <alt_avalon_spi_command>:

int alt_avalon_spi_command(alt_u32 base, alt_u32 slave,
                           alt_u32 write_length, const alt_u8 * write_data,
                           alt_u32 read_length, alt_u8 * read_data,
                           alt_u32 flags)
{
 2013cc4:	defff404 	addi	sp,sp,-48
 2013cc8:	df000b15 	stw	fp,44(sp)
 2013ccc:	df000b04 	addi	fp,sp,44
 2013cd0:	e13ffc15 	stw	r4,-16(fp)
 2013cd4:	e17ffd15 	stw	r5,-12(fp)
 2013cd8:	e1bffe15 	stw	r6,-8(fp)
 2013cdc:	e1ffff15 	stw	r7,-4(fp)
  const alt_u8 * write_end = write_data + write_length;
 2013ce0:	e0ffff17 	ldw	r3,-4(fp)
 2013ce4:	e0bffe17 	ldw	r2,-8(fp)
 2013ce8:	1885883a 	add	r2,r3,r2
 2013cec:	e0bff815 	stw	r2,-32(fp)
  alt_u8 * read_end = read_data + read_length;
 2013cf0:	e0c00217 	ldw	r3,8(fp)
 2013cf4:	e0800117 	ldw	r2,4(fp)
 2013cf8:	1885883a 	add	r2,r3,r2
 2013cfc:	e0bff915 	stw	r2,-28(fp)

  alt_u32 write_zeros = read_length;
 2013d00:	e0800117 	ldw	r2,4(fp)
 2013d04:	e0bff515 	stw	r2,-44(fp)
  alt_u32 read_ignore = write_length;
 2013d08:	e0bffe17 	ldw	r2,-8(fp)
 2013d0c:	e0bff615 	stw	r2,-40(fp)

  /* We must not send more than two bytes to the target before it has
   * returned any as otherwise it will overflow. */
  /* Unfortunately the hardware does not seem to work with credits > 1,
   * leave it at 1 for now. */
  alt_32 credits = 1;
 2013d10:	00800044 	movi	r2,1
 2013d14:	e0bff715 	stw	r2,-36(fp)
  /* Warning: this function is not currently safe if called in a multi-threaded
   * environment, something above must perform locking to make it safe if more
   * than one thread intends to use it.
   */

  IOWR_ALTERA_AVALON_SPI_SLAVE_SEL(base, 1 << slave);
 2013d18:	e0bffc17 	ldw	r2,-16(fp)
 2013d1c:	10800504 	addi	r2,r2,20
 2013d20:	e0fffd17 	ldw	r3,-12(fp)
 2013d24:	01000044 	movi	r4,1
 2013d28:	20c6983a 	sll	r3,r4,r3
 2013d2c:	10c00035 	stwio	r3,0(r2)
  
  /* Set the SSO bit (force chipselect) only if the toggle flag is not set */
  if ((flags & ALT_AVALON_SPI_COMMAND_TOGGLE_SS_N) == 0) {
 2013d30:	e0800317 	ldw	r2,12(fp)
 2013d34:	1080008c 	andi	r2,r2,2
 2013d38:	1000041e 	bne	r2,zero,2013d4c <alt_avalon_spi_command+0x88>
    IOWR_ALTERA_AVALON_SPI_CONTROL(base, ALTERA_AVALON_SPI_CONTROL_SSO_MSK);
 2013d3c:	e0bffc17 	ldw	r2,-16(fp)
 2013d40:	10800304 	addi	r2,r2,12
 2013d44:	00c10004 	movi	r3,1024
 2013d48:	10c00035 	stwio	r3,0(r2)
  /*
   * Discard any stale data present in the RXDATA register, in case
   * previous communication was interrupted and stale data was left
   * behind.
   */
  IORD_ALTERA_AVALON_SPI_RXDATA(base);
 2013d4c:	e0bffc17 	ldw	r2,-16(fp)
 2013d50:	10800037 	ldwio	r2,0(r2)
 2013d54:	00000106 	br	2013d5c <alt_avalon_spi_command+0x98>

      if (read_ignore == 0 && read_data == read_end)
        break;
    }
    
  }
 2013d58:	0001883a 	nop
  for ( ; ; )
  {
    
    do
    {
      status = IORD_ALTERA_AVALON_SPI_STATUS(base);
 2013d5c:	e0bffc17 	ldw	r2,-16(fp)
 2013d60:	10800204 	addi	r2,r2,8
 2013d64:	10800037 	ldwio	r2,0(r2)
 2013d68:	e0bffa15 	stw	r2,-24(fp)
    }
    while (((status & ALTERA_AVALON_SPI_STATUS_TRDY_MSK) == 0 || credits == 0) &&
 2013d6c:	e0bffa17 	ldw	r2,-24(fp)
 2013d70:	1080100c 	andi	r2,r2,64
            (status & ALTERA_AVALON_SPI_STATUS_RRDY_MSK) == 0);
 2013d74:	10000226 	beq	r2,zero,2013d80 <alt_avalon_spi_command+0xbc>
    
    do
    {
      status = IORD_ALTERA_AVALON_SPI_STATUS(base);
    }
    while (((status & ALTERA_AVALON_SPI_STATUS_TRDY_MSK) == 0 || credits == 0) &&
 2013d78:	e0bff717 	ldw	r2,-36(fp)
 2013d7c:	1000031e 	bne	r2,zero,2013d8c <alt_avalon_spi_command+0xc8>
            (status & ALTERA_AVALON_SPI_STATUS_RRDY_MSK) == 0);
 2013d80:	e0bffa17 	ldw	r2,-24(fp)
 2013d84:	1080200c 	andi	r2,r2,128
    
    do
    {
      status = IORD_ALTERA_AVALON_SPI_STATUS(base);
    }
    while (((status & ALTERA_AVALON_SPI_STATUS_TRDY_MSK) == 0 || credits == 0) &&
 2013d88:	103ff426 	beq	r2,zero,2013d5c <__alt_mem_epcs_flash_controller+0xfe00ad5c>
            (status & ALTERA_AVALON_SPI_STATUS_RRDY_MSK) == 0);

    if ((status & ALTERA_AVALON_SPI_STATUS_TRDY_MSK) != 0 && credits > 0)
 2013d8c:	e0bffa17 	ldw	r2,-24(fp)
 2013d90:	1080100c 	andi	r2,r2,64
 2013d94:	10001e26 	beq	r2,zero,2013e10 <alt_avalon_spi_command+0x14c>
 2013d98:	e0bff717 	ldw	r2,-36(fp)
 2013d9c:	00801c0e 	bge	zero,r2,2013e10 <alt_avalon_spi_command+0x14c>
    {
      credits--;
 2013da0:	e0bff717 	ldw	r2,-36(fp)
 2013da4:	10bfffc4 	addi	r2,r2,-1
 2013da8:	e0bff715 	stw	r2,-36(fp)

      if (write_data < write_end)
 2013dac:	e0ffff17 	ldw	r3,-4(fp)
 2013db0:	e0bff817 	ldw	r2,-32(fp)
 2013db4:	18800a2e 	bgeu	r3,r2,2013de0 <alt_avalon_spi_command+0x11c>
        IOWR_ALTERA_AVALON_SPI_TXDATA(base, *write_data++);
 2013db8:	e0bffc17 	ldw	r2,-16(fp)
 2013dbc:	10800104 	addi	r2,r2,4
 2013dc0:	e0ffff17 	ldw	r3,-4(fp)
 2013dc4:	18c00003 	ldbu	r3,0(r3)
 2013dc8:	18c03fcc 	andi	r3,r3,255
 2013dcc:	e13fff17 	ldw	r4,-4(fp)
 2013dd0:	21000044 	addi	r4,r4,1
 2013dd4:	e13fff15 	stw	r4,-4(fp)
 2013dd8:	10c00035 	stwio	r3,0(r2)
 2013ddc:	00000c06 	br	2013e10 <alt_avalon_spi_command+0x14c>
      else if (write_zeros > 0)
 2013de0:	e0bff517 	ldw	r2,-44(fp)
 2013de4:	10000826 	beq	r2,zero,2013e08 <alt_avalon_spi_command+0x144>
      {
        write_zeros--;
 2013de8:	e0bff517 	ldw	r2,-44(fp)
 2013dec:	10bfffc4 	addi	r2,r2,-1
 2013df0:	e0bff515 	stw	r2,-44(fp)
        IOWR_ALTERA_AVALON_SPI_TXDATA(base, 0);
 2013df4:	e0bffc17 	ldw	r2,-16(fp)
 2013df8:	10800104 	addi	r2,r2,4
 2013dfc:	0007883a 	mov	r3,zero
 2013e00:	10c00035 	stwio	r3,0(r2)
 2013e04:	00000206 	br	2013e10 <alt_avalon_spi_command+0x14c>
      }
      else
        credits = -1024;
 2013e08:	00bf0004 	movi	r2,-1024
 2013e0c:	e0bff715 	stw	r2,-36(fp)
    };

    if ((status & ALTERA_AVALON_SPI_STATUS_RRDY_MSK) != 0)
 2013e10:	e0bffa17 	ldw	r2,-24(fp)
 2013e14:	1080200c 	andi	r2,r2,128
 2013e18:	103fcf26 	beq	r2,zero,2013d58 <__alt_mem_epcs_flash_controller+0xfe00ad58>
    {
      alt_u32 rxdata = IORD_ALTERA_AVALON_SPI_RXDATA(base);
 2013e1c:	e0bffc17 	ldw	r2,-16(fp)
 2013e20:	10800037 	ldwio	r2,0(r2)
 2013e24:	e0bffb15 	stw	r2,-20(fp)

      if (read_ignore > 0)
 2013e28:	e0bff617 	ldw	r2,-40(fp)
 2013e2c:	10000426 	beq	r2,zero,2013e40 <alt_avalon_spi_command+0x17c>
        read_ignore--;
 2013e30:	e0bff617 	ldw	r2,-40(fp)
 2013e34:	10bfffc4 	addi	r2,r2,-1
 2013e38:	e0bff615 	stw	r2,-40(fp)
 2013e3c:	00000706 	br	2013e5c <alt_avalon_spi_command+0x198>
      else
        *read_data++ = (alt_u8)rxdata;
 2013e40:	e0bffb17 	ldw	r2,-20(fp)
 2013e44:	1007883a 	mov	r3,r2
 2013e48:	e0800217 	ldw	r2,8(fp)
 2013e4c:	10c00005 	stb	r3,0(r2)
 2013e50:	e0800217 	ldw	r2,8(fp)
 2013e54:	10800044 	addi	r2,r2,1
 2013e58:	e0800215 	stw	r2,8(fp)
      credits++;
 2013e5c:	e0bff717 	ldw	r2,-36(fp)
 2013e60:	10800044 	addi	r2,r2,1
 2013e64:	e0bff715 	stw	r2,-36(fp)

      if (read_ignore == 0 && read_data == read_end)
 2013e68:	e0bff617 	ldw	r2,-40(fp)
 2013e6c:	103fba1e 	bne	r2,zero,2013d58 <__alt_mem_epcs_flash_controller+0xfe00ad58>
 2013e70:	e0c00217 	ldw	r3,8(fp)
 2013e74:	e0bff917 	ldw	r2,-28(fp)
 2013e78:	18bfb71e 	bne	r3,r2,2013d58 <__alt_mem_epcs_flash_controller+0xfe00ad58>
        break;
 2013e7c:	0001883a 	nop
  }

  /* Wait until the interface has finished transmitting */
  do
  {
    status = IORD_ALTERA_AVALON_SPI_STATUS(base);
 2013e80:	e0bffc17 	ldw	r2,-16(fp)
 2013e84:	10800204 	addi	r2,r2,8
 2013e88:	10800037 	ldwio	r2,0(r2)
 2013e8c:	e0bffa15 	stw	r2,-24(fp)
  }
  while ((status & ALTERA_AVALON_SPI_STATUS_TMT_MSK) == 0);
 2013e90:	e0bffa17 	ldw	r2,-24(fp)
 2013e94:	1080080c 	andi	r2,r2,32
 2013e98:	103ff926 	beq	r2,zero,2013e80 <__alt_mem_epcs_flash_controller+0xfe00ae80>

  /* Clear SSO (release chipselect) unless the caller is going to
   * keep using this chip
   */
  if ((flags & ALT_AVALON_SPI_COMMAND_MERGE) == 0)
 2013e9c:	e0800317 	ldw	r2,12(fp)
 2013ea0:	1080004c 	andi	r2,r2,1
 2013ea4:	1000041e 	bne	r2,zero,2013eb8 <alt_avalon_spi_command+0x1f4>
    IOWR_ALTERA_AVALON_SPI_CONTROL(base, 0);
 2013ea8:	e0bffc17 	ldw	r2,-16(fp)
 2013eac:	10800304 	addi	r2,r2,12
 2013eb0:	0007883a 	mov	r3,zero
 2013eb4:	10c00035 	stwio	r3,0(r2)

  return read_length;
 2013eb8:	e0800117 	ldw	r2,4(fp)
}
 2013ebc:	e037883a 	mov	sp,fp
 2013ec0:	df000017 	ldw	fp,0(sp)
 2013ec4:	dec00104 	addi	sp,sp,4
 2013ec8:	f800283a 	ret

02013ecc <alt_find_dev>:
 * "name" must be an exact match for the devices registered name for a match to
 * be found.
 */
 
alt_dev* alt_find_dev(const char* name, alt_llist* llist)
{
 2013ecc:	defffa04 	addi	sp,sp,-24
 2013ed0:	dfc00515 	stw	ra,20(sp)
 2013ed4:	df000415 	stw	fp,16(sp)
 2013ed8:	df000404 	addi	fp,sp,16
 2013edc:	e13ffe15 	stw	r4,-8(fp)
 2013ee0:	e17fff15 	stw	r5,-4(fp)
  alt_dev* next = (alt_dev*) llist->next;
 2013ee4:	e0bfff17 	ldw	r2,-4(fp)
 2013ee8:	10800017 	ldw	r2,0(r2)
 2013eec:	e0bffc15 	stw	r2,-16(fp)
  alt_32 len;

  len  = strlen(name) + 1;
 2013ef0:	e13ffe17 	ldw	r4,-8(fp)
 2013ef4:	20034880 	call	2003488 <strlen>
 2013ef8:	10800044 	addi	r2,r2,1
 2013efc:	e0bffd15 	stw	r2,-12(fp)
  /*
   * Check each list entry in turn, until a match is found, or we reach the
   * end of the list (i.e. next winds up pointing back to the list head).
   */ 

  while (next != (alt_dev*) llist)
 2013f00:	00000d06 	br	2013f38 <alt_find_dev+0x6c>
    /* 
     * memcmp() is used here rather than strcmp() in order to reduce the size
     * of the executable.
     */

    if (!memcmp (next->name, name, len))
 2013f04:	e0bffc17 	ldw	r2,-16(fp)
 2013f08:	10c00217 	ldw	r3,8(r2)
 2013f0c:	e0bffd17 	ldw	r2,-12(fp)
 2013f10:	1809883a 	mov	r4,r3
 2013f14:	e17ffe17 	ldw	r5,-8(fp)
 2013f18:	100d883a 	mov	r6,r2
 2013f1c:	20141900 	call	2014190 <memcmp>
 2013f20:	1000021e 	bne	r2,zero,2013f2c <alt_find_dev+0x60>
    {
      /* match found */

      return next;
 2013f24:	e0bffc17 	ldw	r2,-16(fp)
 2013f28:	00000706 	br	2013f48 <alt_find_dev+0x7c>
    }
    next = (alt_dev*) next->llist.next;
 2013f2c:	e0bffc17 	ldw	r2,-16(fp)
 2013f30:	10800017 	ldw	r2,0(r2)
 2013f34:	e0bffc15 	stw	r2,-16(fp)
  /*
   * Check each list entry in turn, until a match is found, or we reach the
   * end of the list (i.e. next winds up pointing back to the list head).
   */ 

  while (next != (alt_dev*) llist)
 2013f38:	e0fffc17 	ldw	r3,-16(fp)
 2013f3c:	e0bfff17 	ldw	r2,-4(fp)
 2013f40:	18bff01e 	bne	r3,r2,2013f04 <__alt_mem_epcs_flash_controller+0xfe00af04>
    next = (alt_dev*) next->llist.next;
  }
  
  /* No match found */
  
  return NULL;
 2013f44:	0005883a 	mov	r2,zero
}
 2013f48:	e037883a 	mov	sp,fp
 2013f4c:	dfc00117 	ldw	ra,4(sp)
 2013f50:	df000017 	ldw	fp,0(sp)
 2013f54:	dec00204 	addi	sp,sp,8
 2013f58:	f800283a 	ret

02013f5c <alt_find_file>:
 * either '/' or '\0' is the prefix of the filename. For example the filename:
 * "/myfilesystem/junk.txt" would match: "/myfilesystem", but not: "/myfile". 
 */
 
alt_dev* alt_find_file (const char* name)
{
 2013f5c:	defffb04 	addi	sp,sp,-20
 2013f60:	dfc00415 	stw	ra,16(sp)
 2013f64:	df000315 	stw	fp,12(sp)
 2013f68:	df000304 	addi	fp,sp,12
 2013f6c:	e13fff15 	stw	r4,-4(fp)
  alt_dev* next = (alt_dev*) alt_fs_list.next;   
 2013f70:	00808274 	movhi	r2,521
 2013f74:	10a55504 	addi	r2,r2,-27308
 2013f78:	10800017 	ldw	r2,0(r2)
 2013f7c:	e0bffd15 	stw	r2,-12(fp)
  /*
   * Check each list entry in turn, until a match is found, or we reach the
   * end of the list (i.e. next winds up pointing back to the list head).
   */ 
 
  while (next != (alt_dev*) &alt_fs_list)
 2013f80:	00003106 	br	2014048 <alt_find_file+0xec>
  {
    len = strlen(next->name);
 2013f84:	e0bffd17 	ldw	r2,-12(fp)
 2013f88:	10800217 	ldw	r2,8(r2)
 2013f8c:	1009883a 	mov	r4,r2
 2013f90:	20034880 	call	2003488 <strlen>
 2013f94:	e0bffe15 	stw	r2,-8(fp)
    
    if (next->name[len-1] == '/')
 2013f98:	e0bffd17 	ldw	r2,-12(fp)
 2013f9c:	10c00217 	ldw	r3,8(r2)
 2013fa0:	e0bffe17 	ldw	r2,-8(fp)
 2013fa4:	10bfffc4 	addi	r2,r2,-1
 2013fa8:	1885883a 	add	r2,r3,r2
 2013fac:	10800003 	ldbu	r2,0(r2)
 2013fb0:	10803fcc 	andi	r2,r2,255
 2013fb4:	1080201c 	xori	r2,r2,128
 2013fb8:	10bfe004 	addi	r2,r2,-128
 2013fbc:	10800bd8 	cmpnei	r2,r2,47
 2013fc0:	1000031e 	bne	r2,zero,2013fd0 <alt_find_file+0x74>
    {
      len -= 1;
 2013fc4:	e0bffe17 	ldw	r2,-8(fp)
 2013fc8:	10bfffc4 	addi	r2,r2,-1
 2013fcc:	e0bffe15 	stw	r2,-8(fp)
    }

    if (((name[len] == '/') || (name[len] == '\0')) && 
 2013fd0:	e0bffe17 	ldw	r2,-8(fp)
 2013fd4:	e0ffff17 	ldw	r3,-4(fp)
 2013fd8:	1885883a 	add	r2,r3,r2
 2013fdc:	10800003 	ldbu	r2,0(r2)
 2013fe0:	10803fcc 	andi	r2,r2,255
 2013fe4:	1080201c 	xori	r2,r2,128
 2013fe8:	10bfe004 	addi	r2,r2,-128
 2013fec:	10800be0 	cmpeqi	r2,r2,47
 2013ff0:	1000081e 	bne	r2,zero,2014014 <alt_find_file+0xb8>
 2013ff4:	e0bffe17 	ldw	r2,-8(fp)
 2013ff8:	e0ffff17 	ldw	r3,-4(fp)
 2013ffc:	1885883a 	add	r2,r3,r2
 2014000:	10800003 	ldbu	r2,0(r2)
 2014004:	10803fcc 	andi	r2,r2,255
 2014008:	1080201c 	xori	r2,r2,128
 201400c:	10bfe004 	addi	r2,r2,-128
 2014010:	10000a1e 	bne	r2,zero,201403c <alt_find_file+0xe0>
        !memcmp (next->name, name, len))
 2014014:	e0bffd17 	ldw	r2,-12(fp)
 2014018:	10c00217 	ldw	r3,8(r2)
 201401c:	e0bffe17 	ldw	r2,-8(fp)
 2014020:	1809883a 	mov	r4,r3
 2014024:	e17fff17 	ldw	r5,-4(fp)
 2014028:	100d883a 	mov	r6,r2
 201402c:	20141900 	call	2014190 <memcmp>
    if (next->name[len-1] == '/')
    {
      len -= 1;
    }

    if (((name[len] == '/') || (name[len] == '\0')) && 
 2014030:	1000021e 	bne	r2,zero,201403c <alt_find_file+0xe0>
        !memcmp (next->name, name, len))
    {
      /* match found */

      return next;
 2014034:	e0bffd17 	ldw	r2,-12(fp)
 2014038:	00000806 	br	201405c <alt_find_file+0x100>
    }
    next = (alt_dev*) next->llist.next;
 201403c:	e0bffd17 	ldw	r2,-12(fp)
 2014040:	10800017 	ldw	r2,0(r2)
 2014044:	e0bffd15 	stw	r2,-12(fp)
  /*
   * Check each list entry in turn, until a match is found, or we reach the
   * end of the list (i.e. next winds up pointing back to the list head).
   */ 
 
  while (next != (alt_dev*) &alt_fs_list)
 2014048:	e0fffd17 	ldw	r3,-12(fp)
 201404c:	00808274 	movhi	r2,521
 2014050:	10a55504 	addi	r2,r2,-27308
 2014054:	18bfcb1e 	bne	r3,r2,2013f84 <__alt_mem_epcs_flash_controller+0xfe00af84>
    next = (alt_dev*) next->llist.next;
  }
  
  /* No match found */
  
  return NULL;     
 2014058:	0005883a 	mov	r2,zero
}
 201405c:	e037883a 	mov	sp,fp
 2014060:	dfc00117 	ldw	ra,4(sp)
 2014064:	df000017 	ldw	fp,0(sp)
 2014068:	dec00204 	addi	sp,sp,8
 201406c:	f800283a 	ret

02014070 <alt_get_fd>:
 * the offset of the file descriptor within the file descriptor array). A
 * negative value indicates failure.
 */

int alt_get_fd (alt_dev* dev)
{
 2014070:	defffa04 	addi	sp,sp,-24
 2014074:	dfc00515 	stw	ra,20(sp)
 2014078:	df000415 	stw	fp,16(sp)
 201407c:	dc000315 	stw	r16,12(sp)
 2014080:	df000304 	addi	fp,sp,12
 2014084:	e13fff15 	stw	r4,-4(fp)
  alt_32 i;
  int rc = -EMFILE;
 2014088:	00bffa04 	movi	r2,-24
 201408c:	e0bffe15 	stw	r2,-8(fp)
   * indicates the highest file descriptor ever allocated. This is used to
   * improve efficency when searching the file descriptor list, and 
   * therefore reduce contention on the alt_fd_list_lock semaphore. 
   */

  for (i = 0; i < ALT_MAX_FD; i++)
 2014090:	e03ffd15 	stw	zero,-12(fp)
 2014094:	00002106 	br	201411c <alt_get_fd+0xac>
  {
    if (!alt_fd_list[i].dev)
 2014098:	04008274 	movhi	r16,521
 201409c:	84207404 	addi	r16,r16,-32304
 20140a0:	e0bffd17 	ldw	r2,-12(fp)
 20140a4:	1009883a 	mov	r4,r2
 20140a8:	01400304 	movi	r5,12
 20140ac:	2001d200 	call	2001d20 <__mulsi3>
 20140b0:	8085883a 	add	r2,r16,r2
 20140b4:	10800017 	ldw	r2,0(r2)
 20140b8:	1000151e 	bne	r2,zero,2014110 <alt_get_fd+0xa0>
    {
      alt_fd_list[i].dev = dev;
 20140bc:	04008274 	movhi	r16,521
 20140c0:	84207404 	addi	r16,r16,-32304
 20140c4:	e0bffd17 	ldw	r2,-12(fp)
 20140c8:	1009883a 	mov	r4,r2
 20140cc:	01400304 	movi	r5,12
 20140d0:	2001d200 	call	2001d20 <__mulsi3>
 20140d4:	8085883a 	add	r2,r16,r2
 20140d8:	e0ffff17 	ldw	r3,-4(fp)
 20140dc:	10c00015 	stw	r3,0(r2)
      if (i > alt_max_fd)
 20140e0:	00808274 	movhi	r2,521
 20140e4:	10a55904 	addi	r2,r2,-27292
 20140e8:	10c00017 	ldw	r3,0(r2)
 20140ec:	e0bffd17 	ldw	r2,-12(fp)
 20140f0:	1880040e 	bge	r3,r2,2014104 <alt_get_fd+0x94>
      {
        alt_max_fd = i;
 20140f4:	00808274 	movhi	r2,521
 20140f8:	10a55904 	addi	r2,r2,-27292
 20140fc:	e0fffd17 	ldw	r3,-12(fp)
 2014100:	10c00015 	stw	r3,0(r2)
      }
      rc = i;
 2014104:	e0bffd17 	ldw	r2,-12(fp)
 2014108:	e0bffe15 	stw	r2,-8(fp)
      goto alt_get_fd_exit;
 201410c:	00000606 	br	2014128 <alt_get_fd+0xb8>
   * indicates the highest file descriptor ever allocated. This is used to
   * improve efficency when searching the file descriptor list, and 
   * therefore reduce contention on the alt_fd_list_lock semaphore. 
   */

  for (i = 0; i < ALT_MAX_FD; i++)
 2014110:	e0bffd17 	ldw	r2,-12(fp)
 2014114:	10800044 	addi	r2,r2,1
 2014118:	e0bffd15 	stw	r2,-12(fp)
 201411c:	e0bffd17 	ldw	r2,-12(fp)
 2014120:	10800810 	cmplti	r2,r2,32
 2014124:	103fdc1e 	bne	r2,zero,2014098 <__alt_mem_epcs_flash_controller+0xfe00b098>
   * file descriptor pool.
   */

  ALT_SEM_POST(alt_fd_list_lock);

  return rc;
 2014128:	e0bffe17 	ldw	r2,-8(fp)
}
 201412c:	e037883a 	mov	sp,fp
 2014130:	dfc00217 	ldw	ra,8(sp)
 2014134:	df000117 	ldw	fp,4(sp)
 2014138:	dc000017 	ldw	r16,0(sp)
 201413c:	dec00304 	addi	sp,sp,12
 2014140:	f800283a 	ret

02014144 <atexit>:
 2014144:	200b883a 	mov	r5,r4
 2014148:	000d883a 	mov	r6,zero
 201414c:	0009883a 	mov	r4,zero
 2014150:	000f883a 	mov	r7,zero
 2014154:	201420c1 	jmpi	201420c <__register_exitproc>

02014158 <exit>:
 2014158:	defffe04 	addi	sp,sp,-8
 201415c:	000b883a 	mov	r5,zero
 2014160:	dc000015 	stw	r16,0(sp)
 2014164:	dfc00115 	stw	ra,4(sp)
 2014168:	2021883a 	mov	r16,r4
 201416c:	201433c0 	call	201433c <__call_exitprocs>
 2014170:	00808274 	movhi	r2,521
 2014174:	10a54f04 	addi	r2,r2,-27332
 2014178:	11000017 	ldw	r4,0(r2)
 201417c:	20800f17 	ldw	r2,60(r4)
 2014180:	10000126 	beq	r2,zero,2014188 <exit+0x30>
 2014184:	103ee83a 	callr	r2
 2014188:	8009883a 	mov	r4,r16
 201418c:	20144dc0 	call	20144dc <_exit>

02014190 <memcmp>:
 2014190:	01c000c4 	movi	r7,3
 2014194:	3980192e 	bgeu	r7,r6,20141fc <memcmp+0x6c>
 2014198:	2904b03a 	or	r2,r5,r4
 201419c:	11c4703a 	and	r2,r2,r7
 20141a0:	10000f26 	beq	r2,zero,20141e0 <memcmp+0x50>
 20141a4:	20c00003 	ldbu	r3,0(r4)
 20141a8:	28800003 	ldbu	r2,0(r5)
 20141ac:	1880151e 	bne	r3,r2,2014204 <memcmp+0x74>
 20141b0:	31bfff84 	addi	r6,r6,-2
 20141b4:	01ffffc4 	movi	r7,-1
 20141b8:	00000406 	br	20141cc <memcmp+0x3c>
 20141bc:	20c00003 	ldbu	r3,0(r4)
 20141c0:	28800003 	ldbu	r2,0(r5)
 20141c4:	31bfffc4 	addi	r6,r6,-1
 20141c8:	18800e1e 	bne	r3,r2,2014204 <memcmp+0x74>
 20141cc:	21000044 	addi	r4,r4,1
 20141d0:	29400044 	addi	r5,r5,1
 20141d4:	31fff91e 	bne	r6,r7,20141bc <__alt_mem_epcs_flash_controller+0xfe00b1bc>
 20141d8:	0005883a 	mov	r2,zero
 20141dc:	f800283a 	ret
 20141e0:	20c00017 	ldw	r3,0(r4)
 20141e4:	28800017 	ldw	r2,0(r5)
 20141e8:	1880041e 	bne	r3,r2,20141fc <memcmp+0x6c>
 20141ec:	31bfff04 	addi	r6,r6,-4
 20141f0:	21000104 	addi	r4,r4,4
 20141f4:	29400104 	addi	r5,r5,4
 20141f8:	39bff936 	bltu	r7,r6,20141e0 <__alt_mem_epcs_flash_controller+0xfe00b1e0>
 20141fc:	303fe91e 	bne	r6,zero,20141a4 <__alt_mem_epcs_flash_controller+0xfe00b1a4>
 2014200:	003ff506 	br	20141d8 <__alt_mem_epcs_flash_controller+0xfe00b1d8>
 2014204:	1885c83a 	sub	r2,r3,r2
 2014208:	f800283a 	ret

0201420c <__register_exitproc>:
 201420c:	defffa04 	addi	sp,sp,-24
 2014210:	00808274 	movhi	r2,521
 2014214:	10a54f04 	addi	r2,r2,-27332
 2014218:	dc000315 	stw	r16,12(sp)
 201421c:	14000017 	ldw	r16,0(r2)
 2014220:	dc400415 	stw	r17,16(sp)
 2014224:	dfc00515 	stw	ra,20(sp)
 2014228:	80805217 	ldw	r2,328(r16)
 201422c:	2023883a 	mov	r17,r4
 2014230:	10003e26 	beq	r2,zero,201432c <__register_exitproc+0x120>
 2014234:	10c00117 	ldw	r3,4(r2)
 2014238:	020007c4 	movi	r8,31
 201423c:	40c0180e 	bge	r8,r3,20142a0 <__register_exitproc+0x94>
 2014240:	00800034 	movhi	r2,0
 2014244:	10800004 	addi	r2,r2,0
 2014248:	1000061e 	bne	r2,zero,2014264 <__register_exitproc+0x58>
 201424c:	00bfffc4 	movi	r2,-1
 2014250:	dfc00517 	ldw	ra,20(sp)
 2014254:	dc400417 	ldw	r17,16(sp)
 2014258:	dc000317 	ldw	r16,12(sp)
 201425c:	dec00604 	addi	sp,sp,24
 2014260:	f800283a 	ret
 2014264:	01006404 	movi	r4,400
 2014268:	d9400015 	stw	r5,0(sp)
 201426c:	d9800115 	stw	r6,4(sp)
 2014270:	d9c00215 	stw	r7,8(sp)
 2014274:	00000000 	call	0 <__reset-0x2000000>
 2014278:	d9400017 	ldw	r5,0(sp)
 201427c:	d9800117 	ldw	r6,4(sp)
 2014280:	d9c00217 	ldw	r7,8(sp)
 2014284:	103ff126 	beq	r2,zero,201424c <__alt_mem_epcs_flash_controller+0xfe00b24c>
 2014288:	80c05217 	ldw	r3,328(r16)
 201428c:	10000115 	stw	zero,4(r2)
 2014290:	10c00015 	stw	r3,0(r2)
 2014294:	80805215 	stw	r2,328(r16)
 2014298:	10006215 	stw	zero,392(r2)
 201429c:	10006315 	stw	zero,396(r2)
 20142a0:	10c00117 	ldw	r3,4(r2)
 20142a4:	88000d1e 	bne	r17,zero,20142dc <__register_exitproc+0xd0>
 20142a8:	19000084 	addi	r4,r3,2
 20142ac:	2109883a 	add	r4,r4,r4
 20142b0:	18c00044 	addi	r3,r3,1
 20142b4:	2109883a 	add	r4,r4,r4
 20142b8:	1109883a 	add	r4,r2,r4
 20142bc:	10c00115 	stw	r3,4(r2)
 20142c0:	0005883a 	mov	r2,zero
 20142c4:	21400015 	stw	r5,0(r4)
 20142c8:	dfc00517 	ldw	ra,20(sp)
 20142cc:	dc400417 	ldw	r17,16(sp)
 20142d0:	dc000317 	ldw	r16,12(sp)
 20142d4:	dec00604 	addi	sp,sp,24
 20142d8:	f800283a 	ret
 20142dc:	02400044 	movi	r9,1
 20142e0:	12806217 	ldw	r10,392(r2)
 20142e4:	48d2983a 	sll	r9,r9,r3
 20142e8:	19000804 	addi	r4,r3,32
 20142ec:	18d1883a 	add	r8,r3,r3
 20142f0:	2109883a 	add	r4,r4,r4
 20142f4:	4211883a 	add	r8,r8,r8
 20142f8:	2109883a 	add	r4,r4,r4
 20142fc:	1109883a 	add	r4,r2,r4
 2014300:	1211883a 	add	r8,r2,r8
 2014304:	5254b03a 	or	r10,r10,r9
 2014308:	21c02215 	stw	r7,136(r4)
 201430c:	41802215 	stw	r6,136(r8)
 2014310:	12806215 	stw	r10,392(r2)
 2014314:	01000084 	movi	r4,2
 2014318:	893fe31e 	bne	r17,r4,20142a8 <__alt_mem_epcs_flash_controller+0xfe00b2a8>
 201431c:	11006317 	ldw	r4,396(r2)
 2014320:	2252b03a 	or	r9,r4,r9
 2014324:	12406315 	stw	r9,396(r2)
 2014328:	003fdf06 	br	20142a8 <__alt_mem_epcs_flash_controller+0xfe00b2a8>
 201432c:	00808274 	movhi	r2,521
 2014330:	10ad6404 	addi	r2,r2,-19056
 2014334:	80805215 	stw	r2,328(r16)
 2014338:	003fbe06 	br	2014234 <__alt_mem_epcs_flash_controller+0xfe00b234>

0201433c <__call_exitprocs>:
 201433c:	00808274 	movhi	r2,521
 2014340:	10a54f04 	addi	r2,r2,-27332
 2014344:	10800017 	ldw	r2,0(r2)
 2014348:	defff304 	addi	sp,sp,-52
 201434c:	df000b15 	stw	fp,44(sp)
 2014350:	d8800015 	stw	r2,0(sp)
 2014354:	10805204 	addi	r2,r2,328
 2014358:	dd400815 	stw	r21,32(sp)
 201435c:	dfc00c15 	stw	ra,48(sp)
 2014360:	ddc00a15 	stw	r23,40(sp)
 2014364:	dd800915 	stw	r22,36(sp)
 2014368:	dd000715 	stw	r20,28(sp)
 201436c:	dcc00615 	stw	r19,24(sp)
 2014370:	dc800515 	stw	r18,20(sp)
 2014374:	dc400415 	stw	r17,16(sp)
 2014378:	dc000315 	stw	r16,12(sp)
 201437c:	d9000115 	stw	r4,4(sp)
 2014380:	2839883a 	mov	fp,r5
 2014384:	d8800215 	stw	r2,8(sp)
 2014388:	057fffc4 	movi	r21,-1
 201438c:	d8800017 	ldw	r2,0(sp)
 2014390:	ddc00217 	ldw	r23,8(sp)
 2014394:	14805217 	ldw	r18,328(r2)
 2014398:	90001726 	beq	r18,zero,20143f8 <__call_exitprocs+0xbc>
 201439c:	94400117 	ldw	r17,4(r18)
 20143a0:	8c3fffc4 	addi	r16,r17,-1
 20143a4:	80001116 	blt	r16,zero,20143ec <__call_exitprocs+0xb0>
 20143a8:	8c400044 	addi	r17,r17,1
 20143ac:	8427883a 	add	r19,r16,r16
 20143b0:	8c63883a 	add	r17,r17,r17
 20143b4:	95802204 	addi	r22,r18,136
 20143b8:	9ce7883a 	add	r19,r19,r19
 20143bc:	8c63883a 	add	r17,r17,r17
 20143c0:	b4e7883a 	add	r19,r22,r19
 20143c4:	9463883a 	add	r17,r18,r17
 20143c8:	e0001726 	beq	fp,zero,2014428 <__call_exitprocs+0xec>
 20143cc:	8c87c83a 	sub	r3,r17,r18
 20143d0:	b0c7883a 	add	r3,r22,r3
 20143d4:	18c01e17 	ldw	r3,120(r3)
 20143d8:	1f001326 	beq	r3,fp,2014428 <__call_exitprocs+0xec>
 20143dc:	843fffc4 	addi	r16,r16,-1
 20143e0:	9cffff04 	addi	r19,r19,-4
 20143e4:	8c7fff04 	addi	r17,r17,-4
 20143e8:	857ff71e 	bne	r16,r21,20143c8 <__alt_mem_epcs_flash_controller+0xfe00b3c8>
 20143ec:	00800034 	movhi	r2,0
 20143f0:	10800004 	addi	r2,r2,0
 20143f4:	10002a1e 	bne	r2,zero,20144a0 <__call_exitprocs+0x164>
 20143f8:	dfc00c17 	ldw	ra,48(sp)
 20143fc:	df000b17 	ldw	fp,44(sp)
 2014400:	ddc00a17 	ldw	r23,40(sp)
 2014404:	dd800917 	ldw	r22,36(sp)
 2014408:	dd400817 	ldw	r21,32(sp)
 201440c:	dd000717 	ldw	r20,28(sp)
 2014410:	dcc00617 	ldw	r19,24(sp)
 2014414:	dc800517 	ldw	r18,20(sp)
 2014418:	dc400417 	ldw	r17,16(sp)
 201441c:	dc000317 	ldw	r16,12(sp)
 2014420:	dec00d04 	addi	sp,sp,52
 2014424:	f800283a 	ret
 2014428:	91000117 	ldw	r4,4(r18)
 201442c:	88c00017 	ldw	r3,0(r17)
 2014430:	213fffc4 	addi	r4,r4,-1
 2014434:	24001526 	beq	r4,r16,201448c <__call_exitprocs+0x150>
 2014438:	88000015 	stw	zero,0(r17)
 201443c:	183fe726 	beq	r3,zero,20143dc <__alt_mem_epcs_flash_controller+0xfe00b3dc>
 2014440:	00800044 	movi	r2,1
 2014444:	1408983a 	sll	r4,r2,r16
 2014448:	91406217 	ldw	r5,392(r18)
 201444c:	95000117 	ldw	r20,4(r18)
 2014450:	214a703a 	and	r5,r4,r5
 2014454:	28000b26 	beq	r5,zero,2014484 <__call_exitprocs+0x148>
 2014458:	91406317 	ldw	r5,396(r18)
 201445c:	2148703a 	and	r4,r4,r5
 2014460:	20000c1e 	bne	r4,zero,2014494 <__call_exitprocs+0x158>
 2014464:	99400017 	ldw	r5,0(r19)
 2014468:	d9000117 	ldw	r4,4(sp)
 201446c:	183ee83a 	callr	r3
 2014470:	90c00117 	ldw	r3,4(r18)
 2014474:	1d3fc51e 	bne	r3,r20,201438c <__alt_mem_epcs_flash_controller+0xfe00b38c>
 2014478:	b8c00017 	ldw	r3,0(r23)
 201447c:	1cbfd726 	beq	r3,r18,20143dc <__alt_mem_epcs_flash_controller+0xfe00b3dc>
 2014480:	003fc206 	br	201438c <__alt_mem_epcs_flash_controller+0xfe00b38c>
 2014484:	183ee83a 	callr	r3
 2014488:	003ff906 	br	2014470 <__alt_mem_epcs_flash_controller+0xfe00b470>
 201448c:	94000115 	stw	r16,4(r18)
 2014490:	003fea06 	br	201443c <__alt_mem_epcs_flash_controller+0xfe00b43c>
 2014494:	99000017 	ldw	r4,0(r19)
 2014498:	183ee83a 	callr	r3
 201449c:	003ff406 	br	2014470 <__alt_mem_epcs_flash_controller+0xfe00b470>
 20144a0:	90c00117 	ldw	r3,4(r18)
 20144a4:	1800071e 	bne	r3,zero,20144c4 <__call_exitprocs+0x188>
 20144a8:	90c00017 	ldw	r3,0(r18)
 20144ac:	18000926 	beq	r3,zero,20144d4 <__call_exitprocs+0x198>
 20144b0:	9009883a 	mov	r4,r18
 20144b4:	b8c00015 	stw	r3,0(r23)
 20144b8:	00000000 	call	0 <__reset-0x2000000>
 20144bc:	bc800017 	ldw	r18,0(r23)
 20144c0:	003fb506 	br	2014398 <__alt_mem_epcs_flash_controller+0xfe00b398>
 20144c4:	90c00017 	ldw	r3,0(r18)
 20144c8:	902f883a 	mov	r23,r18
 20144cc:	1825883a 	mov	r18,r3
 20144d0:	003fb106 	br	2014398 <__alt_mem_epcs_flash_controller+0xfe00b398>
 20144d4:	0007883a 	mov	r3,zero
 20144d8:	003ffb06 	br	20144c8 <__alt_mem_epcs_flash_controller+0xfe00b4c8>

020144dc <_exit>:
 *
 * ALT_EXIT is mapped onto the _exit() system call in alt_syscall.h
 */

void ALT_EXIT (int exit_code)
{
 20144dc:	defffc04 	addi	sp,sp,-16
 20144e0:	df000315 	stw	fp,12(sp)
 20144e4:	df000304 	addi	fp,sp,12
 20144e8:	e13fff15 	stw	r4,-4(fp)
  ALT_LOG_PRINT_BOOT("[alt_exit.c] Entering _exit() function.\r\n");
  ALT_LOG_PRINT_BOOT("[alt_exit.c] Exit code from main was %d.\r\n",exit_code);
  /* Stop all other threads */

  ALT_LOG_PRINT_BOOT("[alt_exit.c] Calling ALT_OS_STOP().\r\n");
  ALT_OS_STOP();
 20144ec:	0001883a 	nop
 20144f0:	e0bfff17 	ldw	r2,-4(fp)
 20144f4:	e0bffd15 	stw	r2,-12(fp)
/*
 * Routine called on exit.
 */
static ALT_INLINE ALT_ALWAYS_INLINE void alt_sim_halt(int exit_code)
{
  int r2 = exit_code;
 20144f8:	e0bffd17 	ldw	r2,-12(fp)
 20144fc:	e0bffe15 	stw	r2,-8(fp)
  __asm__ volatile ("\n0:\n\taddi %0,%0, -1\n\tbgt %0,zero,0b" : : "r" (ALT_CPU_FREQ/100) ); /* Delay for >30ms */

  __asm__ volatile ("break 2" : : "D02"(r2), "D03"(r3) ALT_GMON_DATA );

#else /* !DEBUG_STUB */
  if (r2) {
 2014500:	e0bffe17 	ldw	r2,-8(fp)
 2014504:	10000226 	beq	r2,zero,2014510 <_exit+0x34>
    ALT_SIM_FAIL();
 2014508:	002af070 	cmpltui	zero,zero,43969
 201450c:	00000106 	br	2014514 <_exit+0x38>
  } else {
    ALT_SIM_PASS();
 2014510:	002af0b0 	cmpltui	zero,zero,43970
  ALT_SIM_HALT(exit_code);

  /* spin forever, since there's no where to go back to */

  ALT_LOG_PRINT_BOOT("[alt_exit.c] Spinning forever.\r\n");
  while (1);
 2014514:	003fff06 	br	2014514 <__alt_mem_epcs_flash_controller+0xfe00b514>
