
LEDTileApplication.elf:     file format elf32-littlenios2
LEDTileApplication.elf
architecture: nios2, flags 0x00000112:
EXEC_P, HAS_SYMS, D_PAGED
start address 0x0200022c

Program Header:
    LOAD off    0x00001020 vaddr 0x02000020 paddr 0x02000020 align 2**12
         filesz 0x000a5e18 memsz 0x000a609c flags rwx
    LOAD off    0x000a7000 vaddr 0x04009000 paddr 0x04009000 align 2**12
         filesz 0x00000000 memsz 0x00000000 flags r-x

Sections:
Idx Name          Size      VMA       LMA       File off  Algn
  0 .entry        00000000  04009000  04009000  000a7000  2**5
                  CONTENTS, ALLOC, LOAD, READONLY, CODE
  1 .exceptions   0000020c  02000020  02000020  00001020  2**2
                  CONTENTS, ALLOC, LOAD, READONLY, CODE
  2 .text         0001b9e0  0200022c  0200022c  0000122c  2**2
                  CONTENTS, ALLOC, LOAD, READONLY, CODE
  3 .rodata       000884e0  0201bc0c  0201bc0c  0001cc0c  2**2
                  CONTENTS, ALLOC, LOAD, READONLY, DATA
  4 .rwdata       00001d4c  020a40ec  020a40ec  000a50ec  2**2
                  CONTENTS, ALLOC, LOAD, DATA, SMALL_DATA
  5 .bss          00000284  020a5e38  020a5e38  000a6e38  2**2
                  ALLOC, SMALL_DATA
  6 .sdram_controller 00000000  020a60bc  020a60bc  000a7000  2**0
                  CONTENTS
  7 .onchip_memory2 00000000  04000000  04000000  000a7000  2**0
                  CONTENTS
  8 .epcs_flash_controller 00000000  04009020  04009020  000a7000  2**0
                  CONTENTS
  9 .comment      00000039  00000000  00000000  000a7000  2**0
                  CONTENTS, READONLY
 10 .debug_aranges 00001120  00000000  00000000  000a7040  2**3
                  CONTENTS, READONLY, DEBUGGING
 11 .debug_info   000348d7  00000000  00000000  000a8160  2**0
                  CONTENTS, READONLY, DEBUGGING
 12 .debug_abbrev 0000cce3  00000000  00000000  000dca37  2**0
                  CONTENTS, READONLY, DEBUGGING
 13 .debug_line   000108b2  00000000  00000000  000e971a  2**0
                  CONTENTS, READONLY, DEBUGGING
 14 .debug_frame  000030bc  00000000  00000000  000f9fcc  2**2
                  CONTENTS, READONLY, DEBUGGING
 15 .debug_str    00004c4b  00000000  00000000  000fd088  2**0
                  CONTENTS, READONLY, DEBUGGING
 16 .debug_loc    000235bf  00000000  00000000  00101cd3  2**0
                  CONTENTS, READONLY, DEBUGGING
 17 .debug_alt_sim_info 00000010  00000000  00000000  00125294  2**2
                  CONTENTS, READONLY, DEBUGGING
 18 .debug_ranges 00001908  00000000  00000000  001252a8  2**3
                  CONTENTS, READONLY, DEBUGGING
 19 .thread_model 00000003  00000000  00000000  0012b18c  2**0
                  CONTENTS, READONLY
 20 .cpu          00000003  00000000  00000000  0012b18f  2**0
                  CONTENTS, READONLY
 21 .qsys         00000001  00000000  00000000  0012b192  2**0
                  CONTENTS, READONLY
 22 .simulation_enabled 00000001  00000000  00000000  0012b193  2**0
                  CONTENTS, READONLY
 23 .sysid_hash   00000004  00000000  00000000  0012b194  2**0
                  CONTENTS, READONLY
 24 .sysid_base   00000004  00000000  00000000  0012b198  2**0
                  CONTENTS, READONLY
 25 .sysid_time   00000004  00000000  00000000  0012b19c  2**0
                  CONTENTS, READONLY
 26 .stderr_dev   00000009  00000000  00000000  0012b1a0  2**0
                  CONTENTS, READONLY
 27 .stdin_dev    00000009  00000000  00000000  0012b1a9  2**0
                  CONTENTS, READONLY
 28 .stdout_dev   00000009  00000000  00000000  0012b1b2  2**0
                  CONTENTS, READONLY
 29 .sopc_system_name 00000004  00000000  00000000  0012b1bb  2**0
                  CONTENTS, READONLY
 30 .sopcinfo     0007c166  00000000  00000000  0012b1bf  2**0
                  CONTENTS, READONLY
SYMBOL TABLE:
04009000 l    d  .entry	00000000 .entry
02000020 l    d  .exceptions	00000000 .exceptions
0200022c l    d  .text	00000000 .text
0201bc0c l    d  .rodata	00000000 .rodata
020a40ec l    d  .rwdata	00000000 .rwdata
020a5e38 l    d  .bss	00000000 .bss
020a60bc l    d  .sdram_controller	00000000 .sdram_controller
04000000 l    d  .onchip_memory2	00000000 .onchip_memory2
04009020 l    d  .epcs_flash_controller	00000000 .epcs_flash_controller
00000000 l    d  .comment	00000000 .comment
00000000 l    d  .debug_aranges	00000000 .debug_aranges
00000000 l    d  .debug_info	00000000 .debug_info
00000000 l    d  .debug_abbrev	00000000 .debug_abbrev
00000000 l    d  .debug_line	00000000 .debug_line
00000000 l    d  .debug_frame	00000000 .debug_frame
00000000 l    d  .debug_str	00000000 .debug_str
00000000 l    d  .debug_loc	00000000 .debug_loc
00000000 l    d  .debug_alt_sim_info	00000000 .debug_alt_sim_info
00000000 l    d  .debug_ranges	00000000 .debug_ranges
00000000 l    df *ABS*	00000000 ../LEDTile_BSP2//obj/HAL/src/crt0.o
02000260 l       .text	00000000 alt_after_alt_main
00000000 l    df *ABS*	00000000 alt_irq_handler.c
00000000 l    df *ABS*	00000000 alt_instruction_exception_entry.c
00000000 l    df *ABS*	00000000 main.c
020a5e7c l     O .bss	00000018 alarm
020a5e3c l     O .bss	00000004 i.3013
00000000 l    df *ABS*	00000000 LEDTileLib.c
00000000 l    df *ABS*	00000000 lib2-divmod.c
020021b8 l     F .text	00000070 udivmodsi4
00000000 l    df *ABS*	00000000 divdf3.c
00000000 l    df *ABS*	00000000 muldf3.c
00000000 l    df *ABS*	00000000 fixdfsi.c
00000000 l    df *ABS*	00000000 floatsidf.c
00000000 l    df *ABS*	00000000 libgcc2.c
00000000 l    df *ABS*	00000000 lib2-mul.c
00000000 l    df *ABS*	00000000 libgcc2.c
00000000 l    df *ABS*	00000000 fflush.c
00000000 l    df *ABS*	00000000 findfp.c
02003900 l     F .text	00000008 __fp_lock
02003908 l     F .text	00000008 __fp_unlock
00000000 l    df *ABS*	00000000 mallocr.c
00000000 l    df *ABS*	00000000 fwalk.c
00000000 l    df *ABS*	00000000 impure.c
020a417c l     O .rwdata	00000424 impure_data
00000000 l    df *ABS*	00000000 mallocr.c
00000000 l    df *ABS*	00000000 memset.c
00000000 l    df *ABS*	00000000 printf.c
00000000 l    df *ABS*	00000000 puts.c
00000000 l    df *ABS*	00000000 sbrkr.c
00000000 l    df *ABS*	00000000 scanf.c
00000000 l    df *ABS*	00000000 stdio.c
00000000 l    df *ABS*	00000000 strlen.c
00000000 l    df *ABS*	00000000 vfprintf.c
020a3bd6 l     O .rodata	00000010 zeroes.4155
020a3be6 l     O .rodata	00000010 blanks.4154
00000000 l    df *ABS*	00000000 vfscanf.c
020a3bfe l     O .rodata	00000022 basefix.4072
00000000 l    df *ABS*	00000000 writer.c
00000000 l    df *ABS*	00000000 wsetup.c
00000000 l    df *ABS*	00000000 closer.c
00000000 l    df *ABS*	00000000 ctype_.c
020a3d21 l     O .rodata	00000180 _ctype_b
00000000 l    df *ABS*	00000000 dtoa.c
02008ad8 l     F .text	00000228 quorem
00000000 l    df *ABS*	00000000 fclose.c
00000000 l    df *ABS*	00000000 fread.c
00000000 l    df *ABS*	00000000 fvwrite.c
00000000 l    df *ABS*	00000000 int_errno.c
00000000 l    df *ABS*	00000000 iswspace.c
00000000 l    df *ABS*	00000000 locale.c
020a49c8 l     O .rwdata	00000020 lc_ctype_charset
020a49a8 l     O .rwdata	00000020 lc_message_charset
020a49e8 l     O .rwdata	00000038 lconv
00000000 l    df *ABS*	00000000 lseekr.c
00000000 l    df *ABS*	00000000 makebuf.c
00000000 l    df *ABS*	00000000 mbrtowc.c
00000000 l    df *ABS*	00000000 mbtowc_r.c
00000000 l    df *ABS*	00000000 memchr.c
00000000 l    df *ABS*	00000000 memcpy.c
00000000 l    df *ABS*	00000000 memmove.c
00000000 l    df *ABS*	00000000 mprec.c
020a3ec0 l     O .rodata	0000000c p05.2652
00000000 l    df *ABS*	00000000 readr.c
00000000 l    df *ABS*	00000000 mallocr.c
00000000 l    df *ABS*	00000000 refill.c
0200ca3c l     F .text	0000001c lflush
00000000 l    df *ABS*	00000000 s_fpclassify.c
00000000 l    df *ABS*	00000000 sccl.c
00000000 l    df *ABS*	00000000 sf_nan.c
00000000 l    df *ABS*	00000000 sprintf.c
00000000 l    df *ABS*	00000000 strcmp.c
00000000 l    df *ABS*	00000000 strtod.c
020a4a34 l     O .rwdata	00000014 fpi.2612
020a3ff4 l     O .rodata	00000028 tinytens
020a4a20 l     O .rwdata	00000014 fpinan.2648
00000000 l    df *ABS*	00000000 strtol.c
00000000 l    df *ABS*	00000000 strtoll_r.c
00000000 l    df *ABS*	00000000 strtoul.c
00000000 l    df *ABS*	00000000 strtoull_r.c
00000000 l    df *ABS*	00000000 vfprintf.c
020a401c l     O .rodata	00000010 zeroes.4140
020a402c l     O .rodata	00000010 blanks.4139
00000000 l    df *ABS*	00000000 ungetc.c
00000000 l    df *ABS*	00000000 vfprintf.c
02011458 l     F .text	000000fc __sprint_r.part.0
020a404c l     O .rodata	00000010 blanks.4099
020a403c l     O .rodata	00000010 zeroes.4100
00000000 l    df *ABS*	00000000 mallocr.c
00000000 l    df *ABS*	00000000 fputwc.c
00000000 l    df *ABS*	00000000 fstatr.c
00000000 l    df *ABS*	00000000 gdtoa-gethex.c
02012d14 l     F .text	000000fc rshift
00000000 l    df *ABS*	00000000 gdtoa-hexnan.c
00000000 l    df *ABS*	00000000 isattyr.c
00000000 l    df *ABS*	00000000 strncmp.c
00000000 l    df *ABS*	00000000 vfprintf.c
020a4078 l     O .rodata	00000010 zeroes.4084
020a4088 l     O .rodata	00000010 blanks.4083
00000000 l    df *ABS*	00000000 wbuf.c
00000000 l    df *ABS*	00000000 wcrtomb.c
00000000 l    df *ABS*	00000000 wctomb_r.c
00000000 l    df *ABS*	00000000 libgcc2.c
00000000 l    df *ABS*	00000000 libgcc2.c
00000000 l    df *ABS*	00000000 libgcc2.c
00000000 l    df *ABS*	00000000 libgcc2.c
00000000 l    df *ABS*	00000000 eqsf2.c
00000000 l    df *ABS*	00000000 gesf2.c
00000000 l    df *ABS*	00000000 lesf2.c
00000000 l    df *ABS*	00000000 adddf3.c
00000000 l    df *ABS*	00000000 eqdf2.c
00000000 l    df *ABS*	00000000 gedf2.c
00000000 l    df *ABS*	00000000 ledf2.c
00000000 l    df *ABS*	00000000 subdf3.c
00000000 l    df *ABS*	00000000 floatunsidf.c
00000000 l    df *ABS*	00000000 truncdfsf2.c
00000000 l    df *ABS*	00000000 alt_alarm_start.c
00000000 l    df *ABS*	00000000 alt_close.c
02017940 l     F .text	00000050 alt_get_errno
00000000 l    df *ABS*	00000000 alt_dev.c
02017a60 l     F .text	0000002c alt_dev_null_write
00000000 l    df *ABS*	00000000 alt_errno.c
00000000 l    df *ABS*	00000000 alt_fstat.c
02017a8c l     F .text	00000050 alt_get_errno
00000000 l    df *ABS*	00000000 alt_isatty.c
02017b90 l     F .text	00000050 alt_get_errno
00000000 l    df *ABS*	00000000 alt_lseek.c
02017c88 l     F .text	00000050 alt_get_errno
00000000 l    df *ABS*	00000000 alt_main.c
00000000 l    df *ABS*	00000000 alt_malloc_lock.c
00000000 l    df *ABS*	00000000 alt_read.c
02017e68 l     F .text	00000050 alt_get_errno
00000000 l    df *ABS*	00000000 alt_release_fd.c
00000000 l    df *ABS*	00000000 alt_sbrk.c
020a5e20 l     O .rwdata	00000004 heap_end
00000000 l    df *ABS*	00000000 alt_tick.c
00000000 l    df *ABS*	00000000 alt_write.c
0201827c l     F .text	00000050 alt_get_errno
00000000 l    df *ABS*	00000000 alt_sys_init.c
020183c0 l     F .text	00000038 alt_dev_reg
020a4bf0 l     O .rwdata	000000c8 epcs_flash_controller
020a4cb8 l     O .rwdata	00001060 jtag_uart
020a5d18 l     O .rwdata	000000c4 uart_0
00000000 l    df *ABS*	00000000 altera_avalon_epcs_flash_controller.c
020184b8 l     F .text	00000038 alt_flash_device_register
02018544 l     F .text	000003f8 alt_epcs_flash_query
0201893c l     F .text	000000e8 alt_epcs_flash_memcmp
02018d10 l     F .text	00000094 alt_epcs_test_address
00000000 l    df *ABS*	00000000 altera_avalon_jtag_uart_fd.c
00000000 l    df *ABS*	00000000 altera_avalon_jtag_uart_init.c
020191d8 l     F .text	000001fc altera_avalon_jtag_uart_irq
020193d4 l     F .text	000000a4 altera_avalon_jtag_uart_timeout
00000000 l    df *ABS*	00000000 altera_avalon_jtag_uart_ioctl.c
00000000 l    df *ABS*	00000000 altera_avalon_jtag_uart_read.c
00000000 l    df *ABS*	00000000 altera_avalon_jtag_uart_write.c
00000000 l    df *ABS*	00000000 altera_avalon_timer_sc.c
020199ec l     F .text	00000074 alt_avalon_timer_sc_irq
00000000 l    df *ABS*	00000000 altera_avalon_uart_fd.c
00000000 l    df *ABS*	00000000 altera_avalon_uart_init.c
02019ca0 l     F .text	00000098 altera_avalon_uart_irq
02019d38 l     F .text	000000dc altera_avalon_uart_rxirq
02019e14 l     F .text	00000144 altera_avalon_uart_txirq
00000000 l    df *ABS*	00000000 altera_avalon_uart_read.c
02019fac l     F .text	00000050 alt_get_errno
00000000 l    df *ABS*	00000000 altera_avalon_uart_write.c
0201a1d8 l     F .text	00000050 alt_get_errno
00000000 l    df *ABS*	00000000 epcs_commands.c
0201a42c l     F .text	00000038 epcs_test_wip
0201a464 l     F .text	00000038 epcs_await_wip_released
00000000 l    df *ABS*	00000000 alt_dev_llist_insert.c
0201a9fc l     F .text	00000050 alt_get_errno
00000000 l    df *ABS*	00000000 alt_do_ctors.c
00000000 l    df *ABS*	00000000 alt_do_dtors.c
00000000 l    df *ABS*	00000000 alt_flash_dev.c
00000000 l    df *ABS*	00000000 alt_iic.c
00000000 l    df *ABS*	00000000 alt_iic_isr_register.c
00000000 l    df *ABS*	00000000 alt_io_redirect.c
0201af24 l     F .text	000000e0 alt_open_fd
00000000 l    df *ABS*	00000000 alt_irq_vars.c
00000000 l    df *ABS*	00000000 alt_open.c
0201b07c l     F .text	00000050 alt_get_errno
0201b0cc l     F .text	000000f4 alt_file_locked
00000000 l    df *ABS*	00000000 altera_nios2_gen2_irq.c
00000000 l    df *ABS*	00000000 altera_avalon_spi.c
00000000 l    df *ABS*	00000000 alt_find_dev.c
00000000 l    df *ABS*	00000000 alt_find_file.c
00000000 l    df *ABS*	00000000 alt_get_fd.c
00000000 l    df *ABS*	00000000 atexit.c
00000000 l    df *ABS*	00000000 exit.c
00000000 l    df *ABS*	00000000 memcmp.c
00000000 l    df *ABS*	00000000 __atexit.c
00000000 l    df *ABS*	00000000 __call_atexit.c
00000000 l    df *ABS*	00000000 alt_exit.c
020a5e78 g     O .bss	00000004 alt_instruction_exception_handler
0200c2f8 g     F .text	00000074 _mprec_log10
02044e44 g     O .rodata	0000000c Edgar
02018c84 g     F .text	0000008c alt_epcs_flash_get_info
0200c3e4 g     F .text	00000088 __any_on
020139b8 g     F .text	00000064 _isatty_r
020a3ecc g     O .rodata	00000028 __mprec_tinytens
02017db0 g     F .text	00000078 alt_main
02004b50 g     F .text	000000b8 _puts_r
020a5fbc g     O .bss	00000100 alt_irq
0200acb8 g     F .text	0000006c _lseek_r
0203cd8c g     O .rodata	0000000c Coin
02016ad4 g     F .text	00000084 .hidden __eqdf2
020a60bc g       *ABS*	00000000 __alt_heap_start
02000648 g     F .text	000000d8 blank
02004b14 g     F .text	0000003c printf
02015044 g     F .text	0000009c _wcrtomb_r
02004dc4 g     F .text	0000005c __sseek
020039ac g     F .text	0000019c __sinit
02014ea8 g     F .text	00000180 __swbuf_r
0200abe4 g     F .text	00000070 _setlocale_r
0200391c g     F .text	00000078 __sfmoreglue
0201143c g     F .text	0000001c ungetc
02017e48 g     F .text	00000020 __malloc_unlock
020002a0 g     F .text	0000007c frame_callback
0200cecc g     F .text	000015e8 _strtod_r
020a388c g     O .rodata	00000200 gamma46half
0200b308 g     F .text	0000013c memmove
02003994 g     F .text	00000018 _cleanup
0203bd78 g     O .rodata	0000000c Bowser
0200b444 g     F .text	000000a8 _Balloc
02041e00 g     O .rodata	0000000c RedSlime
0201bc1c g     O .rodata	0000000c smb2_holdshyguy
02016b58 g     F .text	000000d8 .hidden __gtdf2
0201b31c g     F .text	00000020 altera_nios2_gen2_irq_init
00000000  w      *UND*	00000000 __errno
0201a49c g     F .text	000000f8 epcs_sector_erase
04009000 g     F .entry	00000000 __reset
02012cac g     F .text	00000068 _fstat_r
020a5e50 g     O .bss	00000004 errno
02008860 g     F .text	00000024 __svfscanf
02004d40 g     F .text	00000008 __seofread
02000000 g       *ABS*	00000000 __alt_mem_sdram_controller
02013ce4 g     F .text	000011c4 ___svfiprintf_internal_r
020a5e40 g     O .bss	00000004 currentAnimation
020a5e64 g     O .bss	00000004 alt_argv
020adddc g       *ABS*	00000000 _gp
02087ec8 g     O .rodata	0000000c ie
020a4a70 g     O .rwdata	00000180 alt_fd_list
02027c60 g     O .rodata	0000000c pwingmario
0201a6d8 g     F .text	00000068 epcs_write_status_register
0201b538 g     F .text	00000090 alt_find_dev
0200b1fc g     F .text	0000010c memcpy
020136f0 g     F .text	000002c8 __hexnan
02003910 g     F .text	0000000c _cleanup_r
020034e8 g     F .text	000000d0 .hidden __floatsidf
020a40ec g     O .rwdata	00000084 animations
020a328c g     O .rodata	00000200 cie1931
0201b004 g     F .text	00000078 alt_io_redirect
02016c30 g     F .text	000000ec .hidden __ltdf2
0201bc0c g       *ABS*	00000000 __DTOR_END__
02004c08 g     F .text	00000014 puts
0201b7b0 g     F .text	000000a0 alt_exception_cause_generated_bad_addr
0200af84 g     F .text	000000f0 mbrtowc
02031cb8 g     O .rodata	0000000c RedPotionZelda1
02018e18 g     F .text	00000104 alt_epcs_flash_write_block
0200cc30 g     F .text	00000068 __fpclassifyd
02008884 g     F .text	0000004c _vfscanf_r
0200c258 g     F .text	000000a0 __ratio
020129b4 g     F .text	00000024 __vfiprintf_internal
020195cc g     F .text	00000208 altera_avalon_jtag_uart_read
00000000  w      *UND*	00000000 malloc
02004ae8 g     F .text	0000002c _printf_r
020022bc g     F .text	00000008 .hidden __udivsi3
02017be0 g     F .text	000000a8 isatty
0200abb4 g     F .text	00000030 iswspace
020a3f1c g     O .rodata	000000c8 __mprec_tens
0203edb8 g     O .rodata	0000000c Link
0200ac54 g     F .text	0000000c __locale_charset
02016188 g     F .text	000000d0 .hidden __lesf2
02015354 g     F .text	00000084 .hidden __fixunsdfsi
020a5e4c g     O .bss	00000004 __malloc_top_pad
0200edf4 g     F .text	00000024 strtoul
020a5dfc g     O .rwdata	00000004 __mb_cur_max
0200ac84 g     F .text	0000000c _localeconv_r
0200ee18 g     F .text	00000334 _strtoull_r
0203dda4 g     O .rodata	0000000c MegaMan
0200b874 g     F .text	0000003c __i2b
0200a708 g     F .text	000004ac __sfvwrite_r
02004c1c g     F .text	00000064 _sbrk_r
0202fca0 g     O .rodata	0000000c Rupee
0200c46c g     F .text	0000006c _read_r
020a5e18 g     O .rwdata	00000004 alt_max_fd
02038d30 g     O .rodata	0000000c Goomba
0200a33c g     F .text	00000128 _fclose_r
02029c7c g     O .rodata	0000000c question
020038d0 g     F .text	00000030 fflush
020a5e48 g     O .bss	00000004 __malloc_max_sbrked_mem
02016258 g     F .text	0000087c .hidden __adddf3
02016060 g     F .text	00000074 .hidden __nesf2
02018da4 g     F .text	00000074 alt_epcs_flash_erase_block
0200c024 g     F .text	000000f0 __b2d
02033ce4 g     O .rodata	0000000c FF4Chest
02015a2c g     F .text	00000634 .hidden __umoddi3
02017cd8 g     F .text	000000d8 lseek
020a5de8 g     O .rwdata	00000004 _global_impure_ptr
0201a9a0 g     F .text	0000005c epcs_exit_4_bytes_mode
0200c4d8 g     F .text	00000564 _realloc_r
020a60bc g       *ABS*	00000000 __bss_end
0201ae34 g     F .text	000000f0 alt_iic_isr_register
02042e18 g     O .rodata	0000000c BlueGhost
02018178 g     F .text	00000104 alt_tick
020a5de4 g     O .rwdata	00000004 numBitmaps
020a5ebc g     O .bss	00000100 __hexdig
020153d8 g     F .text	00000654 .hidden __udivdi3
02012ab0 g     F .text	00000184 _fputwc_r
020a3ef4 g     O .rodata	00000028 __mprec_bigtens
0200b658 g     F .text	00000104 __s2b
020175a4 g     F .text	000000a0 .hidden __floatunsidf
0200bdb4 g     F .text	00000060 __mcmp
02019bf8 g     F .text	000000a8 altera_avalon_uart_init
020a348c g     O .rodata	00000200 gamma149half
02003c74 g     F .text	00000018 __fp_lock_all
0201ade8 g     F .text	0000004c alt_ic_irq_enabled
020a5e38 g     O .bss	00000004 state
020180e0 g     F .text	00000098 alt_alarm_stop
0200e848 g     F .text	00000024 strtol
0202dc8c g     O .rodata	0000000c Cid_Walk_Front
020a5e74 g     O .bss	00000004 alt_irq_active
020000fc g     F .exceptions	000000d0 alt_irq_handler
020a4a48 g     O .rwdata	00000028 alt_dev_null
02024c48 g     O .rodata	0000000c raccoon
02047e88 g     O .rodata	0000000c mosaic
0200b75c g     F .text	00000068 __hi0bits
02003468 g     F .text	00000080 .hidden __fixdfsi
02032ccc g     O .rodata	0000000c BombZelda1
0200e4b4 g     F .text	0000001c strtod
020a5e10 g     O .rwdata	00000008 alt_dev_list
02046e70 g     O .rodata	0000000c ns6icon
020182cc g     F .text	000000f4 write
020160d4 g     F .text	000000b4 .hidden __gtsf2
0209defc g     O .rodata	0000000c Edge_Walk_Left
02017adc g     F .text	000000b4 fstat
02001d54 g     F .text	00000464 displayGamma46ColourBars
02016c30 g     F .text	000000ec .hidden __ledf2
0200bb1c g     F .text	00000148 __pow5mult
0201156c g     F .text	00001448 ___vfiprintf_internal_r
020a5e5c g     O .bss	00000004 __nlocale_changed
020022c4 g     F .text	00000008 .hidden __umodsi3
02004cc0 g     F .text	0000002c _scanf_r
0201a85c g     F .text	00000068 epcs_read_electronic_signature
02039d48 g     O .rodata	0000000c CheepCheep
020a60bc g       *ABS*	00000000 end
0201a228 g     F .text	000001a8 altera_avalon_uart_write
02019118 g     F .text	000000c0 altera_avalon_jtag_uart_init
020001cc g     F .exceptions	00000060 alt_instruction_exception_entry
0203fdd0 g     O .rodata	0000000c Kain
0201bc0c g       *ABS*	00000000 __CTOR_LIST__
04000000 g       *ABS*	00000000 __alt_stack_pointer
02019a60 g     F .text	00000088 alt_avalon_timer_sc_init
02019b48 g     F .text	00000060 altera_avalon_uart_write_fd
020035b8 g     F .text	000000ac .hidden __clzsi2
02019ba8 g     F .text	00000050 altera_avalon_uart_close_fd
020197d4 g     F .text	00000218 altera_avalon_jtag_uart_write
02003c64 g     F .text	00000004 __sfp_lock_acquire
0200b114 g     F .text	000000e8 memchr
02004eb4 g     F .text	00002154 ___vfprintf_internal_r
0200cd64 g     F .text	00000058 _sprintf_r
02003de0 g     F .text	000002d0 _free_r
0200ac60 g     F .text	00000010 __locale_mb_cur_max
0201ba34 g     F .text	000001a4 __call_exitprocs
020a5e58 g     O .bss	00000004 __mlocale_changed
020a5df0 g     O .rwdata	00000004 __malloc_sbrk_base
0200022c g     F .text	00000038 _start
020a5e6c g     O .bss	00000004 _alt_tick_rate
0200e86c g     F .text	00000330 _strtoll_r
0200bc64 g     F .text	00000150 __lshift
0201b33c g     F .text	000001fc alt_avalon_spi_command
020a5e70 g     O .bss	00000004 _alt_nticks
02017eb8 g     F .text	000000f8 read
0201842c g     F .text	0000008c alt_sys_init
02013b18 g     F .text	000001cc __ssprint_r
0201b918 g     F .text	0000011c __register_exitproc
02013a1c g     F .text	000000fc strncmp
0200b8b0 g     F .text	0000026c __multiply
02019478 g     F .text	00000068 altera_avalon_jtag_uart_close
02003664 g     F .text	00000028 .hidden __mulsi3
020a5e94 g     O .bss	00000028 __malloc_current_mallinfo
02016060 g     F .text	00000074 .hidden __eqsf2
0200c114 g     F .text	00000144 __d2b
0200148c g     F .text	00000464 displayGamma149ColourBars
0201a3d0 g     F .text	0000005c epcs_read_status_register
02018fb4 g     F .text	00000060 altera_avalon_jtag_uart_read_fd
0200eb9c g     F .text	00000258 _strtoul_r
0201b6dc g     F .text	000000d4 alt_get_fd
02008a74 g     F .text	00000064 _close_r
020a4170 g     O .rwdata	0000000c halloweenAnimations
0201a8c4 g     F .text	00000080 epcs_read_device_id
0201b89c g     F .text	0000007c memcmp
02019074 g     F .text	00000050 altera_avalon_jtag_uart_close_fd
020a60bc g       *ABS*	00000000 __alt_stack_base
020190c4 g     F .text	00000054 altera_avalon_jtag_uart_ioctl_fd
0209bee0 g     O .rodata	0000000c Cecil1_Wave
02043e30 g     O .rodata	0000000c CecilHead
0200893c g     F .text	00000138 __swsetup_r
020022cc g     F .text	0000099c .hidden __divdf3
02003b48 g     F .text	0000011c __sfp
0200c36c g     F .text	00000078 __copybits
020a45a0 g     O .rwdata	00000408 __malloc_av_
02003c70 g     F .text	00000004 __sinit_lock_release
02002c68 g     F .text	00000800 .hidden __muldf3
04009000 g       *ABS*	00000000 __alt_mem_epcs_flash_controller
02004cec g     F .text	00000054 __sread
0200a6c8 g     F .text	00000040 fread
0201b5c8 g     F .text	00000114 alt_find_file
0201aa4c g     F .text	000000a0 alt_dev_llist_insert
02017e28 g     F .text	00000020 __malloc_lock
02018030 g     F .text	000000b0 sbrk
0200f14c g     F .text	0000206c ___svfprintf_internal_r
02000720 g     F .text	00000144 displayBitmap
0200368c g     F .text	00000244 _fflush_r
020129d8 g     F .text	000000d8 _calloc_r
020a5e2c g     O .rwdata	00000008 alt_flash_dev_list
020018f0 g     F .text	00000464 displayGamma98ColourBars
0203ad64 g     O .rodata	0000000c KoopaTroopa
02040de8 g     O .rodata	0000000c BlueVirus
020a5e38 g       *ABS*	00000000 __bss_start
02000864 g     F .text	000007c4 displayColourBars
020049d4 g     F .text	00000114 memset
0200031c g     F .text	00000194 main
020a5e68 g     O .bss	00000004 alt_envp
020a5e44 g     O .bss	00000004 __malloc_max_total_mem
02035cfc g     O .rodata	0000000c Mushroom
02019014 g     F .text	00000060 altera_avalon_jtag_uart_write_fd
02015028 g     F .text	0000001c __swbuf
02016188 g     F .text	000000d0 .hidden __ltsf2
0200a478 g     F .text	00000250 _fread_r
02004e20 g     F .text	00000008 __sclose
04000000 g       *ABS*	00000000 __alt_heap_limit
0200a464 g     F .text	00000014 fclose
0200e5f0 g     F .text	00000258 _strtol_r
02017644 g     F .text	000001bc .hidden __truncdfsf2
02036d1c g     O .rodata	0000000c Kain_Walk_Left
02008d00 g     F .text	0000163c _dtoa_r
02004210 g     F .text	000007c4 _malloc_r
020151b8 g     F .text	00000030 __ascii_wctomb
020a5e1c g     O .rwdata	00000004 alt_errno
020111b8 g     F .text	000000f0 __submore
020040b0 g     F .text	000000a8 _fwalk
0200b0b8 g     F .text	0000005c _mbtowc_r
02002228 g     F .text	00000048 .hidden __divsi3
02003ca4 g     F .text	0000013c _malloc_trim_r
0201bc0c g       *ABS*	00000000 __CTOR_END__
02018a24 g     F .text	00000260 alt_epcs_flash_write
0200ce28 g     F .text	000000a4 strcmp
0201bc0c g       *ABS*	00000000 __DTOR_LIST__
0200054c g     F .text	000000c4 animationsMenu
02000610 g     F .text	00000038 delay
02016ad4 g     F .text	00000084 .hidden __nedf2
020183f8 g     F .text	00000034 alt_irq_init
02017fb0 g     F .text	00000080 alt_release_fd
0200cdbc g     F .text	0000006c sprintf
020a3a8c g     O .rodata	00000100 .hidden __clz_tab
020a5e54 g     O .bss	00000004 _PathLocale
0200e4d0 g     F .text	00000120 strtof
0201b850 g     F .text	00000014 atexit
020160d4 g     F .text	000000b4 .hidden __gesf2
020088d0 g     F .text	0000006c _write_r
0200ac90 g     F .text	0000001c setlocale
02004c80 g     F .text	00000040 scanf
020a5de0 g     O .rwdata	00000004 numHalloweenAnimations
0200cd5c g     F .text	00000008 nanf
020a5dec g     O .rwdata	00000004 _impure_ptr
020a5e60 g     O .bss	00000004 alt_argc
0205fea8 g     O .rodata	0000000c Netscapethrobber
0200aed8 g     F .text	000000ac _mbrtowc_r
0201ab48 g     F .text	0000005c _do_dtors
0200ac7c g     F .text	00000008 __locale_cjk_lang
0200ca58 g     F .text	000001d8 __srefill_r
02000020 g       .exceptions	00000000 alt_irq_entry
0200b074 g     F .text	00000044 __ascii_mbtowc
0200bfc4 g     F .text	00000060 __ulp
02003c8c g     F .text	00000018 __fp_unlock_all
020a5e08 g     O .rwdata	00000008 alt_fs_list
0200acac g     F .text	0000000c localeconv
0201a594 g     F .text	000000f4 epcs_read_buffer
04000000 g       *ABS*	00000000 __alt_mem_onchip_memory2
020184f0 g     F .text	00000054 alt_epcs_flash_init
0201ac5c g     F .text	00000050 alt_ic_isr_register
020004b0 g     F .text	0000009c printMenu
02012e10 g     F .text	00000090 __hexdig_init
020a5e38 g       *ABS*	00000000 _edata
02019ae8 g     F .text	00000060 altera_avalon_uart_read_fd
020a60bc g       *ABS*	00000000 _end
0201aba4 g     F .text	00000068 alt_flash_open_dev
020087d0 g     F .text	00000090 vfscanf
020194e0 g     F .text	000000ec altera_avalon_jtag_uart_ioctl
0201ad48 g     F .text	000000a0 alt_ic_irq_disable
0201a944 g     F .text	0000005c epcs_enter_4_bytes_mode
02004d48 g     F .text	0000007c __swrite
020a5df4 g     O .rwdata	00000004 __malloc_trim_threshold
0200ac70 g     F .text	0000000c __locale_msgcharset
0201b864 g     F .text	00000038 exit
02004158 g     F .text	000000b8 _fwalk_reent
0200be14 g     F .text	000001b0 __mdiff
0201ac0c g     F .text	00000050 alt_flash_close_dev
02002270 g     F .text	0000004c .hidden __modsi3
020a5df8 g     O .rwdata	00000004 __ctype_ptr__
04000000 g       *ABS*	00000000 __alt_data_end
02000020 g     F .exceptions	00000000 alt_exception
02003c68 g     F .text	00000004 __sfp_lock_release
0200cc98 g     F .text	000000c4 __sccl
020a3c20 g     O .rodata	00000101 _ctype_
020a5e00 g     O .rwdata	00000004 __mbtowc
02019f58 g     F .text	00000054 altera_avalon_uart_close
0201dc34 g     O .rodata	0000000c powblock
0201bbd8 g     F .text	00000034 _exit
02017800 g     F .text	00000140 alt_alarm_start
020a5ddc g     O .rwdata	00000004 numAnimations
02015244 g     F .text	00000110 .hidden __muldi3
0200ad24 g     F .text	000001b4 __smakebuf_r
02004e28 g     F .text	0000008c strlen
0201a688 g     F .text	00000050 epcs_write_enable
0201b1c0 g     F .text	0000015c open
02045e58 g     O .rodata	0000000c MacTCP
02016b58 g     F .text	000000d8 .hidden __gedf2
02012ea0 g     F .text	00000850 __gethex
02001028 g     F .text	00000464 displayCIEColourBars
020a5e04 g     O .rwdata	00000004 __wctomb
02011554 g     F .text	00000018 __sprint_r
020a5e34 g     O .rwdata	00000004 alt_priority_mask
0201acac g     F .text	0000009c alt_ic_irq_enable
02007008 g     F .text	00000024 __vfprintf_internal
02019ffc g     F .text	000001dc altera_avalon_uart_read
020151e8 g     F .text	0000005c _wctomb_r
02016d1c g     F .text	00000888 .hidden __subdf3
020a368c g     O .rodata	00000200 gamma98half
02018f1c g     F .text	00000098 alt_epcs_flash_read
0200b7c4 g     F .text	000000b0 __lo0bits
0209ff10 g     O .rodata	0000000c cutman
0200702c g     F .text	000017a4 __svfscanf_r
020a5e24 g     O .rwdata	00000008 alt_alarm_list
020112a8 g     F .text	00000194 _ungetc_r
0201aaec g     F .text	0000005c _do_ctors
020150e0 g     F .text	000000d8 wcrtomb
020a308c g     O .rodata	00000200 linearRGB
02017990 g     F .text	000000d0 close
02000264 g     F .text	0000003c longDelay
02012c34 g     F .text	00000078 fputwc
00000000  w      *UND*	00000000 free
02003c6c g     F .text	00000004 __sinit_lock_acquire
0201a740 g     F .text	0000011c epcs_write_buffer
0200b514 g     F .text	00000144 __multadd
0200b4ec g     F .text	00000028 _Bfree



Disassembly of section .exceptions:

02000020 <alt_exception>:
 2000020:	deffed04 	addi	sp,sp,-76
 2000024:	dfc00015 	stw	ra,0(sp)
 2000028:	d8400215 	stw	at,8(sp)
 200002c:	d8800315 	stw	r2,12(sp)
 2000030:	d8c00415 	stw	r3,16(sp)
 2000034:	d9000515 	stw	r4,20(sp)
 2000038:	d9400615 	stw	r5,24(sp)
 200003c:	d9800715 	stw	r6,28(sp)
 2000040:	d9c00815 	stw	r7,32(sp)
 2000044:	000b307a 	rdctl	r5,estatus
 2000048:	da000915 	stw	r8,36(sp)
 200004c:	da400a15 	stw	r9,40(sp)
 2000050:	da800b15 	stw	r10,44(sp)
 2000054:	dac00c15 	stw	r11,48(sp)
 2000058:	db000d15 	stw	r12,52(sp)
 200005c:	db400e15 	stw	r13,56(sp)
 2000060:	db800f15 	stw	r14,60(sp)
 2000064:	dbc01015 	stw	r15,64(sp)
 2000068:	d9401115 	stw	r5,68(sp)
 200006c:	ebffff04 	addi	r15,ea,-4
 2000070:	dbc01215 	stw	r15,72(sp)
 2000074:	0009313a 	rdctl	r4,ipending
 2000078:	2880004c 	andi	r2,r5,1
 200007c:	10000326 	beq	r2,zero,200008c <alt_exception+0x6c>
 2000080:	20000226 	beq	r4,zero,200008c <alt_exception+0x6c>
 2000084:	20000fc0 	call	20000fc <alt_irq_handler>
 2000088:	00000706 	br	20000a8 <alt_exception+0x88>
 200008c:	df401215 	stw	ea,72(sp)
 2000090:	e8bfff17 	ldw	r2,-4(ea)
 2000094:	e93fff04 	addi	r4,ea,-4
 2000098:	20001cc0 	call	20001cc <alt_instruction_exception_entry>
 200009c:	1000021e 	bne	r2,zero,20000a8 <alt_exception+0x88>
 20000a0:	ebffff04 	addi	r15,ea,-4
 20000a4:	dbc01215 	stw	r15,72(sp)
 20000a8:	d9401117 	ldw	r5,68(sp)
 20000ac:	df401217 	ldw	ea,72(sp)
 20000b0:	dfc00017 	ldw	ra,0(sp)
 20000b4:	2801707a 	wrctl	estatus,r5
 20000b8:	d8400217 	ldw	at,8(sp)
 20000bc:	d8800317 	ldw	r2,12(sp)
 20000c0:	d8c00417 	ldw	r3,16(sp)
 20000c4:	d9000517 	ldw	r4,20(sp)
 20000c8:	d9400617 	ldw	r5,24(sp)
 20000cc:	d9800717 	ldw	r6,28(sp)
 20000d0:	d9c00817 	ldw	r7,32(sp)
 20000d4:	da000917 	ldw	r8,36(sp)
 20000d8:	da400a17 	ldw	r9,40(sp)
 20000dc:	da800b17 	ldw	r10,44(sp)
 20000e0:	dac00c17 	ldw	r11,48(sp)
 20000e4:	db000d17 	ldw	r12,52(sp)
 20000e8:	db400e17 	ldw	r13,56(sp)
 20000ec:	db800f17 	ldw	r14,60(sp)
 20000f0:	dbc01017 	ldw	r15,64(sp)
 20000f4:	dec01304 	addi	sp,sp,76
 20000f8:	ef80083a 	eret

020000fc <alt_irq_handler>:
 20000fc:	defff904 	addi	sp,sp,-28
 2000100:	dfc00615 	stw	ra,24(sp)
 2000104:	df000515 	stw	fp,20(sp)
 2000108:	df000504 	addi	fp,sp,20
 200010c:	0001883a 	nop
 2000110:	0005313a 	rdctl	r2,ipending
 2000114:	e0bffe15 	stw	r2,-8(fp)
 2000118:	e0bffe17 	ldw	r2,-8(fp)
 200011c:	e0bffb15 	stw	r2,-20(fp)
 2000120:	e03ffd15 	stw	zero,-12(fp)
 2000124:	00800044 	movi	r2,1
 2000128:	e0bffc15 	stw	r2,-16(fp)
 200012c:	e0fffb17 	ldw	r3,-20(fp)
 2000130:	e0bffc17 	ldw	r2,-16(fp)
 2000134:	1884703a 	and	r2,r3,r2
 2000138:	10001726 	beq	r2,zero,2000198 <alt_irq_handler+0x9c>
 200013c:	00c082b4 	movhi	r3,522
 2000140:	18d7ef04 	addi	r3,r3,24508
 2000144:	e0bffd17 	ldw	r2,-12(fp)
 2000148:	100490fa 	slli	r2,r2,3
 200014c:	1885883a 	add	r2,r3,r2
 2000150:	10800017 	ldw	r2,0(r2)
 2000154:	010082b4 	movhi	r4,522
 2000158:	2117ef04 	addi	r4,r4,24508
 200015c:	e0fffd17 	ldw	r3,-12(fp)
 2000160:	180690fa 	slli	r3,r3,3
 2000164:	20c7883a 	add	r3,r4,r3
 2000168:	18c00104 	addi	r3,r3,4
 200016c:	18c00017 	ldw	r3,0(r3)
 2000170:	1809883a 	mov	r4,r3
 2000174:	103ee83a 	callr	r2
 2000178:	0001883a 	nop
 200017c:	0005313a 	rdctl	r2,ipending
 2000180:	e0bfff15 	stw	r2,-4(fp)
 2000184:	e0bfff17 	ldw	r2,-4(fp)
 2000188:	e0bffb15 	stw	r2,-20(fp)
 200018c:	e0bffb17 	ldw	r2,-20(fp)
 2000190:	103fe31e 	bne	r2,zero,2000120 <__reset+0xfdff7120>
 2000194:	00000706 	br	20001b4 <alt_irq_handler+0xb8>
 2000198:	e0bffc17 	ldw	r2,-16(fp)
 200019c:	1085883a 	add	r2,r2,r2
 20001a0:	e0bffc15 	stw	r2,-16(fp)
 20001a4:	e0bffd17 	ldw	r2,-12(fp)
 20001a8:	10800044 	addi	r2,r2,1
 20001ac:	e0bffd15 	stw	r2,-12(fp)
 20001b0:	003fde06 	br	200012c <__reset+0xfdff712c>
 20001b4:	0001883a 	nop
 20001b8:	e037883a 	mov	sp,fp
 20001bc:	dfc00117 	ldw	ra,4(sp)
 20001c0:	df000017 	ldw	fp,0(sp)
 20001c4:	dec00204 	addi	sp,sp,8
 20001c8:	f800283a 	ret

020001cc <alt_instruction_exception_entry>:
 20001cc:	defffb04 	addi	sp,sp,-20
 20001d0:	dfc00415 	stw	ra,16(sp)
 20001d4:	df000315 	stw	fp,12(sp)
 20001d8:	df000304 	addi	fp,sp,12
 20001dc:	e13fff15 	stw	r4,-4(fp)
 20001e0:	00bfffc4 	movi	r2,-1
 20001e4:	e0bffd15 	stw	r2,-12(fp)
 20001e8:	e03ffe15 	stw	zero,-8(fp)
 20001ec:	d0a02717 	ldw	r2,-32612(gp)
 20001f0:	10000726 	beq	r2,zero,2000210 <alt_instruction_exception_entry+0x44>
 20001f4:	d0a02717 	ldw	r2,-32612(gp)
 20001f8:	e0fffd17 	ldw	r3,-12(fp)
 20001fc:	1809883a 	mov	r4,r3
 2000200:	e17fff17 	ldw	r5,-4(fp)
 2000204:	e1bffe17 	ldw	r6,-8(fp)
 2000208:	103ee83a 	callr	r2
 200020c:	00000206 	br	2000218 <alt_instruction_exception_entry+0x4c>
 2000210:	003da03a 	break	0
 2000214:	0005883a 	mov	r2,zero
 2000218:	e037883a 	mov	sp,fp
 200021c:	dfc00117 	ldw	ra,4(sp)
 2000220:	df000017 	ldw	fp,0(sp)
 2000224:	dec00204 	addi	sp,sp,8
 2000228:	f800283a 	ret

Disassembly of section .text:

0200022c <_start>:
 200022c:	06c10034 	movhi	sp,1024
 2000230:	dec00014 	ori	sp,sp,0
 2000234:	068082b4 	movhi	gp,522
 2000238:	d6b77714 	ori	gp,gp,56796
 200023c:	008082b4 	movhi	r2,522
 2000240:	10978e14 	ori	r2,r2,24120
 2000244:	00c082b4 	movhi	r3,522
 2000248:	18d82f14 	ori	r3,r3,24764
 200024c:	10c00326 	beq	r2,r3,200025c <_start+0x30>
 2000250:	10000015 	stw	zero,0(r2)
 2000254:	10800104 	addi	r2,r2,4
 2000258:	10fffd36 	bltu	r2,r3,2000250 <__reset+0xfdff7250>
 200025c:	2017db00 	call	2017db0 <alt_main>

02000260 <alt_after_alt_main>:
 2000260:	003fff06 	br	2000260 <__reset+0xfdff7260>

02000264 <longDelay>:
 2000264:	defffe04 	addi	sp,sp,-8
 2000268:	df000115 	stw	fp,4(sp)
 200026c:	df000104 	addi	fp,sp,4
 2000270:	e03fff15 	stw	zero,-4(fp)
 2000274:	00000306 	br	2000284 <longDelay+0x20>
 2000278:	e0bfff17 	ldw	r2,-4(fp)
 200027c:	10800044 	addi	r2,r2,1
 2000280:	e0bfff15 	stw	r2,-4(fp)
 2000284:	e0bfff17 	ldw	r2,-4(fp)
 2000288:	1082ee10 	cmplti	r2,r2,3000
 200028c:	103ffa1e 	bne	r2,zero,2000278 <__reset+0xfdff7278>
 2000290:	e037883a 	mov	sp,fp
 2000294:	df000017 	ldw	fp,0(sp)
 2000298:	dec00104 	addi	sp,sp,4
 200029c:	f800283a 	ret

020002a0 <frame_callback>:
 20002a0:	defffc04 	addi	sp,sp,-16
 20002a4:	dfc00315 	stw	ra,12(sp)
 20002a8:	df000215 	stw	fp,8(sp)
 20002ac:	df000204 	addi	fp,sp,8
 20002b0:	e13fff15 	stw	r4,-4(fp)
 20002b4:	d0a01917 	ldw	r2,-32668(gp)
 20002b8:	e0bffe15 	stw	r2,-8(fp)
 20002bc:	d0a01717 	ldw	r2,-32676(gp)
 20002c0:	1000071e 	bne	r2,zero,20002e0 <frame_callback+0x40>
 20002c4:	d0a01817 	ldw	r2,-32672(gp)
 20002c8:	1004933a 	slli	r2,r2,12
 20002cc:	10800304 	addi	r2,r2,12
 20002d0:	e0fffe17 	ldw	r3,-8(fp)
 20002d4:	1885883a 	add	r2,r3,r2
 20002d8:	1009883a 	mov	r4,r2
 20002dc:	20007200 	call	2000720 <displayBitmap>
 20002e0:	d0a01817 	ldw	r2,-32672(gp)
 20002e4:	10c00044 	addi	r3,r2,1
 20002e8:	e0bffe17 	ldw	r2,-8(fp)
 20002ec:	10800217 	ldw	r2,8(r2)
 20002f0:	1809883a 	mov	r4,r3
 20002f4:	100b883a 	mov	r5,r2
 20002f8:	20022700 	call	2002270 <__modsi3>
 20002fc:	d0a01815 	stw	r2,-32672(gp)
 2000300:	e0bffe17 	ldw	r2,-8(fp)
 2000304:	10800117 	ldw	r2,4(r2)
 2000308:	e037883a 	mov	sp,fp
 200030c:	dfc00117 	ldw	ra,4(sp)
 2000310:	df000017 	ldw	fp,0(sp)
 2000314:	dec00204 	addi	sp,sp,8
 2000318:	f800283a 	ret

0200031c <main>:
 200031c:	defffd04 	addi	sp,sp,-12
 2000320:	dfc00215 	stw	ra,8(sp)
 2000324:	df000115 	stw	fp,4(sp)
 2000328:	df000104 	addi	fp,sp,4
 200032c:	010082b4 	movhi	r4,522
 2000330:	210bc704 	addi	r4,r4,12060
 2000334:	2004c080 	call	2004c08 <puts>
 2000338:	20006100 	call	2000610 <delay>
 200033c:	008082b4 	movhi	r2,522
 2000340:	10903b04 	addi	r2,r2,16620
 2000344:	10800117 	ldw	r2,4(r2)
 2000348:	d0a01915 	stw	r2,-32668(gp)
 200034c:	0007883a 	mov	r3,zero
 2000350:	00810074 	movhi	r2,1025
 2000354:	10a81804 	addi	r2,r2,-24480
 2000358:	10c00035 	stwio	r3,0(r2)
 200035c:	010082b4 	movhi	r4,522
 2000360:	21179f04 	addi	r4,r4,24188
 2000364:	0140fa04 	movi	r5,1000
 2000368:	01808034 	movhi	r6,512
 200036c:	3180a804 	addi	r6,r6,672
 2000370:	000f883a 	mov	r7,zero
 2000374:	20178000 	call	2017800 <alt_alarm_start>
 2000378:	008082b4 	movhi	r2,522
 200037c:	10905c04 	addi	r2,r2,16752
 2000380:	10800017 	ldw	r2,0(r2)
 2000384:	d0a01915 	stw	r2,-32668(gp)
 2000388:	20004b00 	call	20004b0 <printMenu>
 200038c:	010082b4 	movhi	r4,522
 2000390:	210bcd04 	addi	r4,r4,12084
 2000394:	e17fff04 	addi	r5,fp,-4
 2000398:	2004c800 	call	2004c80 <scanf>
 200039c:	e0bfff17 	ldw	r2,-4(fp)
 20003a0:	010082b4 	movhi	r4,522
 20003a4:	210bcd04 	addi	r4,r4,12084
 20003a8:	100b883a 	mov	r5,r2
 20003ac:	2004b140 	call	2004b14 <printf>
 20003b0:	008082b4 	movhi	r2,522
 20003b4:	10977b04 	addi	r2,r2,24044
 20003b8:	10800017 	ldw	r2,0(r2)
 20003bc:	10800117 	ldw	r2,4(r2)
 20003c0:	1009883a 	mov	r4,r2
 20003c4:	20038d00 	call	20038d0 <fflush>
 20003c8:	e0bfff17 	ldw	r2,-4(fp)
 20003cc:	10800058 	cmpnei	r2,r2,1
 20003d0:	1000041e 	bne	r2,zero,20003e4 <main+0xc8>
 20003d4:	200054c0 	call	200054c <animationsMenu>
 20003d8:	d0201715 	stw	zero,-32676(gp)
 20003dc:	20004b00 	call	20004b0 <printMenu>
 20003e0:	00003206 	br	20004ac <main+0x190>
 20003e4:	e0bfff17 	ldw	r2,-4(fp)
 20003e8:	10800098 	cmpnei	r2,r2,2
 20003ec:	1000051e 	bne	r2,zero,2000404 <main+0xe8>
 20003f0:	00800044 	movi	r2,1
 20003f4:	d0a01715 	stw	r2,-32676(gp)
 20003f8:	20006480 	call	2000648 <blank>
 20003fc:	20004b00 	call	20004b0 <printMenu>
 2000400:	00002a06 	br	20004ac <main+0x190>
 2000404:	e0bfff17 	ldw	r2,-4(fp)
 2000408:	108000d8 	cmpnei	r2,r2,3
 200040c:	1000051e 	bne	r2,zero,2000424 <main+0x108>
 2000410:	00800044 	movi	r2,1
 2000414:	d0a01715 	stw	r2,-32676(gp)
 2000418:	20008640 	call	2000864 <displayColourBars>
 200041c:	20004b00 	call	20004b0 <printMenu>
 2000420:	00002206 	br	20004ac <main+0x190>
 2000424:	e0bfff17 	ldw	r2,-4(fp)
 2000428:	10800118 	cmpnei	r2,r2,4
 200042c:	1000051e 	bne	r2,zero,2000444 <main+0x128>
 2000430:	00800044 	movi	r2,1
 2000434:	d0a01715 	stw	r2,-32676(gp)
 2000438:	20010280 	call	2001028 <displayCIEColourBars>
 200043c:	20004b00 	call	20004b0 <printMenu>
 2000440:	00001a06 	br	20004ac <main+0x190>
 2000444:	e0bfff17 	ldw	r2,-4(fp)
 2000448:	10800158 	cmpnei	r2,r2,5
 200044c:	1000051e 	bne	r2,zero,2000464 <main+0x148>
 2000450:	00800044 	movi	r2,1
 2000454:	d0a01715 	stw	r2,-32676(gp)
 2000458:	200148c0 	call	200148c <displayGamma149ColourBars>
 200045c:	20004b00 	call	20004b0 <printMenu>
 2000460:	00001206 	br	20004ac <main+0x190>
 2000464:	e0bfff17 	ldw	r2,-4(fp)
 2000468:	10800198 	cmpnei	r2,r2,6
 200046c:	1000051e 	bne	r2,zero,2000484 <main+0x168>
 2000470:	00800044 	movi	r2,1
 2000474:	d0a01715 	stw	r2,-32676(gp)
 2000478:	20018f00 	call	20018f0 <displayGamma98ColourBars>
 200047c:	20004b00 	call	20004b0 <printMenu>
 2000480:	00000a06 	br	20004ac <main+0x190>
 2000484:	e0bfff17 	ldw	r2,-4(fp)
 2000488:	108001d8 	cmpnei	r2,r2,7
 200048c:	1000051e 	bne	r2,zero,20004a4 <main+0x188>
 2000490:	00800044 	movi	r2,1
 2000494:	d0a01715 	stw	r2,-32676(gp)
 2000498:	2001d540 	call	2001d54 <displayGamma46ColourBars>
 200049c:	20004b00 	call	20004b0 <printMenu>
 20004a0:	00000206 	br	20004ac <main+0x190>
 20004a4:	20004b00 	call	20004b0 <printMenu>
 20004a8:	003fb806 	br	200038c <__reset+0xfdff738c>
 20004ac:	003fb706 	br	200038c <__reset+0xfdff738c>

020004b0 <printMenu>:
 20004b0:	defffe04 	addi	sp,sp,-8
 20004b4:	dfc00115 	stw	ra,4(sp)
 20004b8:	df000015 	stw	fp,0(sp)
 20004bc:	d839883a 	mov	fp,sp
 20004c0:	010082b4 	movhi	r4,522
 20004c4:	210bce04 	addi	r4,r4,12088
 20004c8:	2004c080 	call	2004c08 <puts>
 20004cc:	010082b4 	movhi	r4,522
 20004d0:	210bd204 	addi	r4,r4,12104
 20004d4:	2004c080 	call	2004c08 <puts>
 20004d8:	010082b4 	movhi	r4,522
 20004dc:	210bd604 	addi	r4,r4,12120
 20004e0:	2004c080 	call	2004c08 <puts>
 20004e4:	010082b4 	movhi	r4,522
 20004e8:	210bdb04 	addi	r4,r4,12140
 20004ec:	2004c080 	call	2004c08 <puts>
 20004f0:	010082b4 	movhi	r4,522
 20004f4:	210be004 	addi	r4,r4,12160
 20004f8:	2004c080 	call	2004c08 <puts>
 20004fc:	010082b4 	movhi	r4,522
 2000500:	210be904 	addi	r4,r4,12196
 2000504:	2004c080 	call	2004c08 <puts>
 2000508:	010082b4 	movhi	r4,522
 200050c:	210bf504 	addi	r4,r4,12244
 2000510:	2004c080 	call	2004c08 <puts>
 2000514:	010082b4 	movhi	r4,522
 2000518:	210c0204 	addi	r4,r4,12296
 200051c:	2004c080 	call	2004c08 <puts>
 2000520:	010082b4 	movhi	r4,522
 2000524:	210c0f04 	addi	r4,r4,12348
 2000528:	2004c080 	call	2004c08 <puts>
 200052c:	010082b4 	movhi	r4,522
 2000530:	210c1c04 	addi	r4,r4,12400
 2000534:	2004b140 	call	2004b14 <printf>
 2000538:	e037883a 	mov	sp,fp
 200053c:	dfc00117 	ldw	ra,4(sp)
 2000540:	df000017 	ldw	fp,0(sp)
 2000544:	dec00204 	addi	sp,sp,8
 2000548:	f800283a 	ret

0200054c <animationsMenu>:
 200054c:	defffd04 	addi	sp,sp,-12
 2000550:	dfc00215 	stw	ra,8(sp)
 2000554:	df000115 	stw	fp,4(sp)
 2000558:	df000104 	addi	fp,sp,4
 200055c:	e03fff15 	stw	zero,-4(fp)
 2000560:	00001106 	br	20005a8 <animationsMenu+0x5c>
 2000564:	e0ffff17 	ldw	r3,-4(fp)
 2000568:	e0bfff17 	ldw	r2,-4(fp)
 200056c:	010082b4 	movhi	r4,522
 2000570:	21103b04 	addi	r4,r4,16620
 2000574:	1085883a 	add	r2,r2,r2
 2000578:	1085883a 	add	r2,r2,r2
 200057c:	2085883a 	add	r2,r4,r2
 2000580:	10800017 	ldw	r2,0(r2)
 2000584:	10800017 	ldw	r2,0(r2)
 2000588:	010082b4 	movhi	r4,522
 200058c:	210c2104 	addi	r4,r4,12420
 2000590:	180b883a 	mov	r5,r3
 2000594:	100d883a 	mov	r6,r2
 2000598:	2004b140 	call	2004b14 <printf>
 200059c:	e0bfff17 	ldw	r2,-4(fp)
 20005a0:	10800044 	addi	r2,r2,1
 20005a4:	e0bfff15 	stw	r2,-4(fp)
 20005a8:	e0ffff17 	ldw	r3,-4(fp)
 20005ac:	00800844 	movi	r2,33
 20005b0:	18bfec16 	blt	r3,r2,2000564 <__reset+0xfdff7564>
 20005b4:	010082b4 	movhi	r4,522
 20005b8:	210bcd04 	addi	r4,r4,12084
 20005bc:	e17fff04 	addi	r5,fp,-4
 20005c0:	2004c800 	call	2004c80 <scanf>
 20005c4:	008082b4 	movhi	r2,522
 20005c8:	10977b04 	addi	r2,r2,24044
 20005cc:	10800017 	ldw	r2,0(r2)
 20005d0:	10800117 	ldw	r2,4(r2)
 20005d4:	1009883a 	mov	r4,r2
 20005d8:	20038d00 	call	20038d0 <fflush>
 20005dc:	e0bfff17 	ldw	r2,-4(fp)
 20005e0:	00c082b4 	movhi	r3,522
 20005e4:	18d03b04 	addi	r3,r3,16620
 20005e8:	1085883a 	add	r2,r2,r2
 20005ec:	1085883a 	add	r2,r2,r2
 20005f0:	1885883a 	add	r2,r3,r2
 20005f4:	10800017 	ldw	r2,0(r2)
 20005f8:	d0a01915 	stw	r2,-32668(gp)
 20005fc:	e037883a 	mov	sp,fp
 2000600:	dfc00117 	ldw	ra,4(sp)
 2000604:	df000017 	ldw	fp,0(sp)
 2000608:	dec00204 	addi	sp,sp,8
 200060c:	f800283a 	ret

02000610 <delay>:
 2000610:	defffe04 	addi	sp,sp,-8
 2000614:	df000115 	stw	fp,4(sp)
 2000618:	df000104 	addi	fp,sp,4
 200061c:	e03fff15 	stw	zero,-4(fp)
 2000620:	00000306 	br	2000630 <delay+0x20>
 2000624:	e0bfff17 	ldw	r2,-4(fp)
 2000628:	10800044 	addi	r2,r2,1
 200062c:	e0bfff15 	stw	r2,-4(fp)
 2000630:	e0bfff17 	ldw	r2,-4(fp)
 2000634:	00bffb0e 	bge	zero,r2,2000624 <__reset+0xfdff7624>
 2000638:	e037883a 	mov	sp,fp
 200063c:	df000017 	ldw	fp,0(sp)
 2000640:	dec00104 	addi	sp,sp,4
 2000644:	f800283a 	ret

02000648 <blank>:
 2000648:	defffb04 	addi	sp,sp,-20
 200064c:	dfc00415 	stw	ra,16(sp)
 2000650:	df000315 	stw	fp,12(sp)
 2000654:	df000304 	addi	fp,sp,12
 2000658:	e03ffd15 	stw	zero,-12(fp)
 200065c:	00002806 	br	2000700 <blank+0xb8>
 2000660:	e03ffe15 	stw	zero,-8(fp)
 2000664:	00002006 	br	20006e8 <blank+0xa0>
 2000668:	00810004 	movi	r2,1024
 200066c:	e0bfff15 	stw	r2,-4(fp)
 2000670:	e0bffd17 	ldw	r2,-12(fp)
 2000674:	1004917a 	slli	r2,r2,5
 2000678:	e0ffff17 	ldw	r3,-4(fp)
 200067c:	1885883a 	add	r2,r3,r2
 2000680:	e0bfff15 	stw	r2,-4(fp)
 2000684:	e0ffff17 	ldw	r3,-4(fp)
 2000688:	e0bffe17 	ldw	r2,-8(fp)
 200068c:	1885883a 	add	r2,r3,r2
 2000690:	e0bfff15 	stw	r2,-4(fp)
 2000694:	00810074 	movhi	r2,1025
 2000698:	10a82004 	addi	r2,r2,-24448
 200069c:	e0ffff17 	ldw	r3,-4(fp)
 20006a0:	10c00035 	stwio	r3,0(r2)
 20006a4:	0007883a 	mov	r3,zero
 20006a8:	00810074 	movhi	r2,1025
 20006ac:	10a81c04 	addi	r2,r2,-24464
 20006b0:	10c00035 	stwio	r3,0(r2)
 20006b4:	20006100 	call	2000610 <delay>
 20006b8:	00c00044 	movi	r3,1
 20006bc:	00810074 	movhi	r2,1025
 20006c0:	10a81804 	addi	r2,r2,-24480
 20006c4:	10c00035 	stwio	r3,0(r2)
 20006c8:	20006100 	call	2000610 <delay>
 20006cc:	0007883a 	mov	r3,zero
 20006d0:	00810074 	movhi	r2,1025
 20006d4:	10a81804 	addi	r2,r2,-24480
 20006d8:	10c00035 	stwio	r3,0(r2)
 20006dc:	e0bffe17 	ldw	r2,-8(fp)
 20006e0:	10800044 	addi	r2,r2,1
 20006e4:	e0bffe15 	stw	r2,-8(fp)
 20006e8:	e0bffe17 	ldw	r2,-8(fp)
 20006ec:	10800810 	cmplti	r2,r2,32
 20006f0:	103fdd1e 	bne	r2,zero,2000668 <__reset+0xfdff7668>
 20006f4:	e0bffd17 	ldw	r2,-12(fp)
 20006f8:	10800044 	addi	r2,r2,1
 20006fc:	e0bffd15 	stw	r2,-12(fp)
 2000700:	e0bffd17 	ldw	r2,-12(fp)
 2000704:	10800810 	cmplti	r2,r2,32
 2000708:	103fd51e 	bne	r2,zero,2000660 <__reset+0xfdff7660>
 200070c:	e037883a 	mov	sp,fp
 2000710:	dfc00117 	ldw	ra,4(sp)
 2000714:	df000017 	ldw	fp,0(sp)
 2000718:	dec00204 	addi	sp,sp,8
 200071c:	f800283a 	ret

02000720 <displayBitmap>:
 2000720:	defff804 	addi	sp,sp,-32
 2000724:	df000715 	stw	fp,28(sp)
 2000728:	df000704 	addi	fp,sp,28
 200072c:	e13fff15 	stw	r4,-4(fp)
 2000730:	e03ff915 	stw	zero,-28(fp)
 2000734:	00004406 	br	2000848 <displayBitmap+0x128>
 2000738:	e0bff917 	ldw	r2,-28(fp)
 200073c:	10810004 	addi	r2,r2,1024
 2000740:	e0bffa15 	stw	r2,-24(fp)
 2000744:	e0bff917 	ldw	r2,-28(fp)
 2000748:	1085883a 	add	r2,r2,r2
 200074c:	1085883a 	add	r2,r2,r2
 2000750:	e0ffff17 	ldw	r3,-4(fp)
 2000754:	1885883a 	add	r2,r3,r2
 2000758:	10800017 	ldw	r2,0(r2)
 200075c:	e0bffb15 	stw	r2,-20(fp)
 2000760:	e0bffb17 	ldw	r2,-20(fp)
 2000764:	1004d43a 	srli	r2,r2,16
 2000768:	10803fcc 	andi	r2,r2,255
 200076c:	00c082b4 	movhi	r3,522
 2000770:	18ce2304 	addi	r3,r3,14476
 2000774:	1085883a 	add	r2,r2,r2
 2000778:	1885883a 	add	r2,r3,r2
 200077c:	1080000b 	ldhu	r2,0(r2)
 2000780:	e0bffc0d 	sth	r2,-16(fp)
 2000784:	e0bffb17 	ldw	r2,-20(fp)
 2000788:	1004d23a 	srli	r2,r2,8
 200078c:	10803fcc 	andi	r2,r2,255
 2000790:	00c082b4 	movhi	r3,522
 2000794:	18ce2304 	addi	r3,r3,14476
 2000798:	1085883a 	add	r2,r2,r2
 200079c:	1885883a 	add	r2,r3,r2
 20007a0:	1080000b 	ldhu	r2,0(r2)
 20007a4:	e0bffc8d 	sth	r2,-14(fp)
 20007a8:	e0bffb17 	ldw	r2,-20(fp)
 20007ac:	10803fcc 	andi	r2,r2,255
 20007b0:	00c082b4 	movhi	r3,522
 20007b4:	18ce2304 	addi	r3,r3,14476
 20007b8:	1085883a 	add	r2,r2,r2
 20007bc:	1885883a 	add	r2,r3,r2
 20007c0:	1080000b 	ldhu	r2,0(r2)
 20007c4:	e0bffd0d 	sth	r2,-12(fp)
 20007c8:	e0bffd0b 	ldhu	r2,-12(fp)
 20007cc:	1004953a 	slli	r2,r2,20
 20007d0:	10cffc2c 	andhi	r3,r2,16368
 20007d4:	e0bffc8b 	ldhu	r2,-14(fp)
 20007d8:	100892ba 	slli	r4,r2,10
 20007dc:	00800434 	movhi	r2,16
 20007e0:	10bf0004 	addi	r2,r2,-1024
 20007e4:	2084703a 	and	r2,r4,r2
 20007e8:	1886b03a 	or	r3,r3,r2
 20007ec:	e0bffc0b 	ldhu	r2,-16(fp)
 20007f0:	1080ffcc 	andi	r2,r2,1023
 20007f4:	1884b03a 	or	r2,r3,r2
 20007f8:	e0bffe15 	stw	r2,-8(fp)
 20007fc:	00810074 	movhi	r2,1025
 2000800:	10a82004 	addi	r2,r2,-24448
 2000804:	e0fffa17 	ldw	r3,-24(fp)
 2000808:	10c00035 	stwio	r3,0(r2)
 200080c:	e0fffe17 	ldw	r3,-8(fp)
 2000810:	00810074 	movhi	r2,1025
 2000814:	10a81c04 	addi	r2,r2,-24464
 2000818:	10c00035 	stwio	r3,0(r2)
 200081c:	00c00044 	movi	r3,1
 2000820:	00810074 	movhi	r2,1025
 2000824:	10a81804 	addi	r2,r2,-24480
 2000828:	10c00035 	stwio	r3,0(r2)
 200082c:	0007883a 	mov	r3,zero
 2000830:	00810074 	movhi	r2,1025
 2000834:	10a81804 	addi	r2,r2,-24480
 2000838:	10c00035 	stwio	r3,0(r2)
 200083c:	e0bff917 	ldw	r2,-28(fp)
 2000840:	10800044 	addi	r2,r2,1
 2000844:	e0bff915 	stw	r2,-28(fp)
 2000848:	e0bff917 	ldw	r2,-28(fp)
 200084c:	10810010 	cmplti	r2,r2,1024
 2000850:	103fb91e 	bne	r2,zero,2000738 <__reset+0xfdff7738>
 2000854:	e037883a 	mov	sp,fp
 2000858:	df000017 	ldw	fp,0(sp)
 200085c:	dec00104 	addi	sp,sp,4
 2000860:	f800283a 	ret

02000864 <displayColourBars>:
 2000864:	defff804 	addi	sp,sp,-32
 2000868:	dfc00715 	stw	ra,28(sp)
 200086c:	df000615 	stw	fp,24(sp)
 2000870:	df000604 	addi	fp,sp,24
 2000874:	e03ffa15 	stw	zero,-24(fp)
 2000878:	0001e306 	br	2001008 <displayColourBars+0x7a4>
 200087c:	e03ffb15 	stw	zero,-20(fp)
 2000880:	0001db06 	br	2000ff0 <displayColourBars+0x78c>
 2000884:	00810004 	movi	r2,1024
 2000888:	e0bffe15 	stw	r2,-8(fp)
 200088c:	e0bffa17 	ldw	r2,-24(fp)
 2000890:	1004917a 	slli	r2,r2,5
 2000894:	e0fffe17 	ldw	r3,-8(fp)
 2000898:	1885883a 	add	r2,r3,r2
 200089c:	e0bffe15 	stw	r2,-8(fp)
 20008a0:	e0fffe17 	ldw	r3,-8(fp)
 20008a4:	e0bffb17 	ldw	r2,-20(fp)
 20008a8:	1885883a 	add	r2,r3,r2
 20008ac:	e0bffe15 	stw	r2,-8(fp)
 20008b0:	e0bffa17 	ldw	r2,-24(fp)
 20008b4:	10800108 	cmpgei	r2,r2,4
 20008b8:	1000231e 	bne	r2,zero,2000948 <displayColourBars+0xe4>
 20008bc:	e13ffb17 	ldw	r4,-20(fp)
 20008c0:	20034e80 	call	20034e8 <__floatsidf>
 20008c4:	100b883a 	mov	r5,r2
 20008c8:	180d883a 	mov	r6,r3
 20008cc:	2809883a 	mov	r4,r5
 20008d0:	300b883a 	mov	r5,r6
 20008d4:	000d883a 	mov	r6,zero
 20008d8:	01d00ff4 	movhi	r7,16447
 20008dc:	20022cc0 	call	20022cc <__divdf3>
 20008e0:	1009883a 	mov	r4,r2
 20008e4:	180b883a 	mov	r5,r3
 20008e8:	2005883a 	mov	r2,r4
 20008ec:	2807883a 	mov	r3,r5
 20008f0:	1009883a 	mov	r4,r2
 20008f4:	180b883a 	mov	r5,r3
 20008f8:	000d883a 	mov	r6,zero
 20008fc:	01d01c34 	movhi	r7,16496
 2000900:	39f80004 	addi	r7,r7,-8192
 2000904:	2002c680 	call	2002c68 <__muldf3>
 2000908:	1009883a 	mov	r4,r2
 200090c:	180b883a 	mov	r5,r3
 2000910:	2005883a 	mov	r2,r4
 2000914:	2807883a 	mov	r3,r5
 2000918:	1009883a 	mov	r4,r2
 200091c:	180b883a 	mov	r5,r3
 2000920:	20034680 	call	2003468 <__fixdfsi>
 2000924:	00c082b4 	movhi	r3,522
 2000928:	18cc2304 	addi	r3,r3,12428
 200092c:	1085883a 	add	r2,r2,r2
 2000930:	1885883a 	add	r2,r3,r2
 2000934:	1080000b 	ldhu	r2,0(r2)
 2000938:	e0bffc0d 	sth	r2,-16(fp)
 200093c:	e03ffc8d 	sth	zero,-14(fp)
 2000940:	e03ffd0d 	sth	zero,-12(fp)
 2000944:	00018a06 	br	2000f70 <displayColourBars+0x70c>
 2000948:	e0bffa17 	ldw	r2,-24(fp)
 200094c:	10800110 	cmplti	r2,r2,4
 2000950:	1000451e 	bne	r2,zero,2000a68 <displayColourBars+0x204>
 2000954:	e0bffa17 	ldw	r2,-24(fp)
 2000958:	10800208 	cmpgei	r2,r2,8
 200095c:	1000421e 	bne	r2,zero,2000a68 <displayColourBars+0x204>
 2000960:	e13ffb17 	ldw	r4,-20(fp)
 2000964:	20034e80 	call	20034e8 <__floatsidf>
 2000968:	100b883a 	mov	r5,r2
 200096c:	180d883a 	mov	r6,r3
 2000970:	2809883a 	mov	r4,r5
 2000974:	300b883a 	mov	r5,r6
 2000978:	000d883a 	mov	r6,zero
 200097c:	01d00ff4 	movhi	r7,16447
 2000980:	20022cc0 	call	20022cc <__divdf3>
 2000984:	1009883a 	mov	r4,r2
 2000988:	180b883a 	mov	r5,r3
 200098c:	2005883a 	mov	r2,r4
 2000990:	2807883a 	mov	r3,r5
 2000994:	1009883a 	mov	r4,r2
 2000998:	180b883a 	mov	r5,r3
 200099c:	000d883a 	mov	r6,zero
 20009a0:	01d01c34 	movhi	r7,16496
 20009a4:	39f80004 	addi	r7,r7,-8192
 20009a8:	2002c680 	call	2002c68 <__muldf3>
 20009ac:	1009883a 	mov	r4,r2
 20009b0:	180b883a 	mov	r5,r3
 20009b4:	2005883a 	mov	r2,r4
 20009b8:	2807883a 	mov	r3,r5
 20009bc:	1009883a 	mov	r4,r2
 20009c0:	180b883a 	mov	r5,r3
 20009c4:	20034680 	call	2003468 <__fixdfsi>
 20009c8:	00c082b4 	movhi	r3,522
 20009cc:	18cc2304 	addi	r3,r3,12428
 20009d0:	1085883a 	add	r2,r2,r2
 20009d4:	1885883a 	add	r2,r3,r2
 20009d8:	1080000b 	ldhu	r2,0(r2)
 20009dc:	e0bffc0d 	sth	r2,-16(fp)
 20009e0:	e13ffb17 	ldw	r4,-20(fp)
 20009e4:	20034e80 	call	20034e8 <__floatsidf>
 20009e8:	100b883a 	mov	r5,r2
 20009ec:	180d883a 	mov	r6,r3
 20009f0:	2809883a 	mov	r4,r5
 20009f4:	300b883a 	mov	r5,r6
 20009f8:	000d883a 	mov	r6,zero
 20009fc:	01d00ff4 	movhi	r7,16447
 2000a00:	20022cc0 	call	20022cc <__divdf3>
 2000a04:	1009883a 	mov	r4,r2
 2000a08:	180b883a 	mov	r5,r3
 2000a0c:	2005883a 	mov	r2,r4
 2000a10:	2807883a 	mov	r3,r5
 2000a14:	1009883a 	mov	r4,r2
 2000a18:	180b883a 	mov	r5,r3
 2000a1c:	000d883a 	mov	r6,zero
 2000a20:	01d01c34 	movhi	r7,16496
 2000a24:	39f80004 	addi	r7,r7,-8192
 2000a28:	2002c680 	call	2002c68 <__muldf3>
 2000a2c:	1009883a 	mov	r4,r2
 2000a30:	180b883a 	mov	r5,r3
 2000a34:	2005883a 	mov	r2,r4
 2000a38:	2807883a 	mov	r3,r5
 2000a3c:	1009883a 	mov	r4,r2
 2000a40:	180b883a 	mov	r5,r3
 2000a44:	20034680 	call	2003468 <__fixdfsi>
 2000a48:	00c082b4 	movhi	r3,522
 2000a4c:	18cc2304 	addi	r3,r3,12428
 2000a50:	1085883a 	add	r2,r2,r2
 2000a54:	1885883a 	add	r2,r3,r2
 2000a58:	1080000b 	ldhu	r2,0(r2)
 2000a5c:	e0bffc8d 	sth	r2,-14(fp)
 2000a60:	e03ffd0d 	sth	zero,-12(fp)
 2000a64:	00014206 	br	2000f70 <displayColourBars+0x70c>
 2000a68:	e0bffa17 	ldw	r2,-24(fp)
 2000a6c:	10800210 	cmplti	r2,r2,8
 2000a70:	1000261e 	bne	r2,zero,2000b0c <displayColourBars+0x2a8>
 2000a74:	e0bffa17 	ldw	r2,-24(fp)
 2000a78:	10800308 	cmpgei	r2,r2,12
 2000a7c:	1000231e 	bne	r2,zero,2000b0c <displayColourBars+0x2a8>
 2000a80:	e03ffc0d 	sth	zero,-16(fp)
 2000a84:	e13ffb17 	ldw	r4,-20(fp)
 2000a88:	20034e80 	call	20034e8 <__floatsidf>
 2000a8c:	100b883a 	mov	r5,r2
 2000a90:	180d883a 	mov	r6,r3
 2000a94:	2809883a 	mov	r4,r5
 2000a98:	300b883a 	mov	r5,r6
 2000a9c:	000d883a 	mov	r6,zero
 2000aa0:	01d00ff4 	movhi	r7,16447
 2000aa4:	20022cc0 	call	20022cc <__divdf3>
 2000aa8:	1009883a 	mov	r4,r2
 2000aac:	180b883a 	mov	r5,r3
 2000ab0:	2005883a 	mov	r2,r4
 2000ab4:	2807883a 	mov	r3,r5
 2000ab8:	1009883a 	mov	r4,r2
 2000abc:	180b883a 	mov	r5,r3
 2000ac0:	000d883a 	mov	r6,zero
 2000ac4:	01d01c34 	movhi	r7,16496
 2000ac8:	39f80004 	addi	r7,r7,-8192
 2000acc:	2002c680 	call	2002c68 <__muldf3>
 2000ad0:	1009883a 	mov	r4,r2
 2000ad4:	180b883a 	mov	r5,r3
 2000ad8:	2005883a 	mov	r2,r4
 2000adc:	2807883a 	mov	r3,r5
 2000ae0:	1009883a 	mov	r4,r2
 2000ae4:	180b883a 	mov	r5,r3
 2000ae8:	20034680 	call	2003468 <__fixdfsi>
 2000aec:	00c082b4 	movhi	r3,522
 2000af0:	18cc2304 	addi	r3,r3,12428
 2000af4:	1085883a 	add	r2,r2,r2
 2000af8:	1885883a 	add	r2,r3,r2
 2000afc:	1080000b 	ldhu	r2,0(r2)
 2000b00:	e0bffc8d 	sth	r2,-14(fp)
 2000b04:	e03ffd0d 	sth	zero,-12(fp)
 2000b08:	00011906 	br	2000f70 <displayColourBars+0x70c>
 2000b0c:	e0bffa17 	ldw	r2,-24(fp)
 2000b10:	10800310 	cmplti	r2,r2,12
 2000b14:	1000451e 	bne	r2,zero,2000c2c <displayColourBars+0x3c8>
 2000b18:	e0bffa17 	ldw	r2,-24(fp)
 2000b1c:	10800408 	cmpgei	r2,r2,16
 2000b20:	1000421e 	bne	r2,zero,2000c2c <displayColourBars+0x3c8>
 2000b24:	e03ffc0d 	sth	zero,-16(fp)
 2000b28:	e13ffb17 	ldw	r4,-20(fp)
 2000b2c:	20034e80 	call	20034e8 <__floatsidf>
 2000b30:	100b883a 	mov	r5,r2
 2000b34:	180d883a 	mov	r6,r3
 2000b38:	2809883a 	mov	r4,r5
 2000b3c:	300b883a 	mov	r5,r6
 2000b40:	000d883a 	mov	r6,zero
 2000b44:	01d00ff4 	movhi	r7,16447
 2000b48:	20022cc0 	call	20022cc <__divdf3>
 2000b4c:	1009883a 	mov	r4,r2
 2000b50:	180b883a 	mov	r5,r3
 2000b54:	2005883a 	mov	r2,r4
 2000b58:	2807883a 	mov	r3,r5
 2000b5c:	1009883a 	mov	r4,r2
 2000b60:	180b883a 	mov	r5,r3
 2000b64:	000d883a 	mov	r6,zero
 2000b68:	01d01c34 	movhi	r7,16496
 2000b6c:	39f80004 	addi	r7,r7,-8192
 2000b70:	2002c680 	call	2002c68 <__muldf3>
 2000b74:	1009883a 	mov	r4,r2
 2000b78:	180b883a 	mov	r5,r3
 2000b7c:	2005883a 	mov	r2,r4
 2000b80:	2807883a 	mov	r3,r5
 2000b84:	1009883a 	mov	r4,r2
 2000b88:	180b883a 	mov	r5,r3
 2000b8c:	20034680 	call	2003468 <__fixdfsi>
 2000b90:	00c082b4 	movhi	r3,522
 2000b94:	18cc2304 	addi	r3,r3,12428
 2000b98:	1085883a 	add	r2,r2,r2
 2000b9c:	1885883a 	add	r2,r3,r2
 2000ba0:	1080000b 	ldhu	r2,0(r2)
 2000ba4:	e0bffc8d 	sth	r2,-14(fp)
 2000ba8:	e13ffb17 	ldw	r4,-20(fp)
 2000bac:	20034e80 	call	20034e8 <__floatsidf>
 2000bb0:	100b883a 	mov	r5,r2
 2000bb4:	180d883a 	mov	r6,r3
 2000bb8:	2809883a 	mov	r4,r5
 2000bbc:	300b883a 	mov	r5,r6
 2000bc0:	000d883a 	mov	r6,zero
 2000bc4:	01d00ff4 	movhi	r7,16447
 2000bc8:	20022cc0 	call	20022cc <__divdf3>
 2000bcc:	1009883a 	mov	r4,r2
 2000bd0:	180b883a 	mov	r5,r3
 2000bd4:	2005883a 	mov	r2,r4
 2000bd8:	2807883a 	mov	r3,r5
 2000bdc:	1009883a 	mov	r4,r2
 2000be0:	180b883a 	mov	r5,r3
 2000be4:	000d883a 	mov	r6,zero
 2000be8:	01d01c34 	movhi	r7,16496
 2000bec:	39f80004 	addi	r7,r7,-8192
 2000bf0:	2002c680 	call	2002c68 <__muldf3>
 2000bf4:	1009883a 	mov	r4,r2
 2000bf8:	180b883a 	mov	r5,r3
 2000bfc:	2005883a 	mov	r2,r4
 2000c00:	2807883a 	mov	r3,r5
 2000c04:	1009883a 	mov	r4,r2
 2000c08:	180b883a 	mov	r5,r3
 2000c0c:	20034680 	call	2003468 <__fixdfsi>
 2000c10:	00c082b4 	movhi	r3,522
 2000c14:	18cc2304 	addi	r3,r3,12428
 2000c18:	1085883a 	add	r2,r2,r2
 2000c1c:	1885883a 	add	r2,r3,r2
 2000c20:	1080000b 	ldhu	r2,0(r2)
 2000c24:	e0bffd0d 	sth	r2,-12(fp)
 2000c28:	0000d106 	br	2000f70 <displayColourBars+0x70c>
 2000c2c:	e0bffa17 	ldw	r2,-24(fp)
 2000c30:	10800410 	cmplti	r2,r2,16
 2000c34:	1000261e 	bne	r2,zero,2000cd0 <displayColourBars+0x46c>
 2000c38:	e0bffa17 	ldw	r2,-24(fp)
 2000c3c:	10800508 	cmpgei	r2,r2,20
 2000c40:	1000231e 	bne	r2,zero,2000cd0 <displayColourBars+0x46c>
 2000c44:	e03ffc0d 	sth	zero,-16(fp)
 2000c48:	e03ffc8d 	sth	zero,-14(fp)
 2000c4c:	e13ffb17 	ldw	r4,-20(fp)
 2000c50:	20034e80 	call	20034e8 <__floatsidf>
 2000c54:	100b883a 	mov	r5,r2
 2000c58:	180d883a 	mov	r6,r3
 2000c5c:	2809883a 	mov	r4,r5
 2000c60:	300b883a 	mov	r5,r6
 2000c64:	000d883a 	mov	r6,zero
 2000c68:	01d00ff4 	movhi	r7,16447
 2000c6c:	20022cc0 	call	20022cc <__divdf3>
 2000c70:	1009883a 	mov	r4,r2
 2000c74:	180b883a 	mov	r5,r3
 2000c78:	2005883a 	mov	r2,r4
 2000c7c:	2807883a 	mov	r3,r5
 2000c80:	1009883a 	mov	r4,r2
 2000c84:	180b883a 	mov	r5,r3
 2000c88:	000d883a 	mov	r6,zero
 2000c8c:	01d01c34 	movhi	r7,16496
 2000c90:	39f80004 	addi	r7,r7,-8192
 2000c94:	2002c680 	call	2002c68 <__muldf3>
 2000c98:	1009883a 	mov	r4,r2
 2000c9c:	180b883a 	mov	r5,r3
 2000ca0:	2005883a 	mov	r2,r4
 2000ca4:	2807883a 	mov	r3,r5
 2000ca8:	1009883a 	mov	r4,r2
 2000cac:	180b883a 	mov	r5,r3
 2000cb0:	20034680 	call	2003468 <__fixdfsi>
 2000cb4:	00c082b4 	movhi	r3,522
 2000cb8:	18cc2304 	addi	r3,r3,12428
 2000cbc:	1085883a 	add	r2,r2,r2
 2000cc0:	1885883a 	add	r2,r3,r2
 2000cc4:	1080000b 	ldhu	r2,0(r2)
 2000cc8:	e0bffd0d 	sth	r2,-12(fp)
 2000ccc:	0000a806 	br	2000f70 <displayColourBars+0x70c>
 2000cd0:	e0bffa17 	ldw	r2,-24(fp)
 2000cd4:	10800510 	cmplti	r2,r2,20
 2000cd8:	1000451e 	bne	r2,zero,2000df0 <displayColourBars+0x58c>
 2000cdc:	e0bffa17 	ldw	r2,-24(fp)
 2000ce0:	10800608 	cmpgei	r2,r2,24
 2000ce4:	1000421e 	bne	r2,zero,2000df0 <displayColourBars+0x58c>
 2000ce8:	e13ffb17 	ldw	r4,-20(fp)
 2000cec:	20034e80 	call	20034e8 <__floatsidf>
 2000cf0:	100b883a 	mov	r5,r2
 2000cf4:	180d883a 	mov	r6,r3
 2000cf8:	2809883a 	mov	r4,r5
 2000cfc:	300b883a 	mov	r5,r6
 2000d00:	000d883a 	mov	r6,zero
 2000d04:	01d00ff4 	movhi	r7,16447
 2000d08:	20022cc0 	call	20022cc <__divdf3>
 2000d0c:	1009883a 	mov	r4,r2
 2000d10:	180b883a 	mov	r5,r3
 2000d14:	2005883a 	mov	r2,r4
 2000d18:	2807883a 	mov	r3,r5
 2000d1c:	1009883a 	mov	r4,r2
 2000d20:	180b883a 	mov	r5,r3
 2000d24:	000d883a 	mov	r6,zero
 2000d28:	01d01c34 	movhi	r7,16496
 2000d2c:	39f80004 	addi	r7,r7,-8192
 2000d30:	2002c680 	call	2002c68 <__muldf3>
 2000d34:	1009883a 	mov	r4,r2
 2000d38:	180b883a 	mov	r5,r3
 2000d3c:	2005883a 	mov	r2,r4
 2000d40:	2807883a 	mov	r3,r5
 2000d44:	1009883a 	mov	r4,r2
 2000d48:	180b883a 	mov	r5,r3
 2000d4c:	20034680 	call	2003468 <__fixdfsi>
 2000d50:	00c082b4 	movhi	r3,522
 2000d54:	18cc2304 	addi	r3,r3,12428
 2000d58:	1085883a 	add	r2,r2,r2
 2000d5c:	1885883a 	add	r2,r3,r2
 2000d60:	1080000b 	ldhu	r2,0(r2)
 2000d64:	e0bffc0d 	sth	r2,-16(fp)
 2000d68:	e03ffc8d 	sth	zero,-14(fp)
 2000d6c:	e13ffb17 	ldw	r4,-20(fp)
 2000d70:	20034e80 	call	20034e8 <__floatsidf>
 2000d74:	100b883a 	mov	r5,r2
 2000d78:	180d883a 	mov	r6,r3
 2000d7c:	2809883a 	mov	r4,r5
 2000d80:	300b883a 	mov	r5,r6
 2000d84:	000d883a 	mov	r6,zero
 2000d88:	01d00ff4 	movhi	r7,16447
 2000d8c:	20022cc0 	call	20022cc <__divdf3>
 2000d90:	1009883a 	mov	r4,r2
 2000d94:	180b883a 	mov	r5,r3
 2000d98:	2005883a 	mov	r2,r4
 2000d9c:	2807883a 	mov	r3,r5
 2000da0:	1009883a 	mov	r4,r2
 2000da4:	180b883a 	mov	r5,r3
 2000da8:	000d883a 	mov	r6,zero
 2000dac:	01d01c34 	movhi	r7,16496
 2000db0:	39f80004 	addi	r7,r7,-8192
 2000db4:	2002c680 	call	2002c68 <__muldf3>
 2000db8:	1009883a 	mov	r4,r2
 2000dbc:	180b883a 	mov	r5,r3
 2000dc0:	2005883a 	mov	r2,r4
 2000dc4:	2807883a 	mov	r3,r5
 2000dc8:	1009883a 	mov	r4,r2
 2000dcc:	180b883a 	mov	r5,r3
 2000dd0:	20034680 	call	2003468 <__fixdfsi>
 2000dd4:	00c082b4 	movhi	r3,522
 2000dd8:	18cc2304 	addi	r3,r3,12428
 2000ddc:	1085883a 	add	r2,r2,r2
 2000de0:	1885883a 	add	r2,r3,r2
 2000de4:	1080000b 	ldhu	r2,0(r2)
 2000de8:	e0bffd0d 	sth	r2,-12(fp)
 2000dec:	00006006 	br	2000f70 <displayColourBars+0x70c>
 2000df0:	e13ffb17 	ldw	r4,-20(fp)
 2000df4:	20034e80 	call	20034e8 <__floatsidf>
 2000df8:	100b883a 	mov	r5,r2
 2000dfc:	180d883a 	mov	r6,r3
 2000e00:	2809883a 	mov	r4,r5
 2000e04:	300b883a 	mov	r5,r6
 2000e08:	000d883a 	mov	r6,zero
 2000e0c:	01d00ff4 	movhi	r7,16447
 2000e10:	20022cc0 	call	20022cc <__divdf3>
 2000e14:	1009883a 	mov	r4,r2
 2000e18:	180b883a 	mov	r5,r3
 2000e1c:	2005883a 	mov	r2,r4
 2000e20:	2807883a 	mov	r3,r5
 2000e24:	1009883a 	mov	r4,r2
 2000e28:	180b883a 	mov	r5,r3
 2000e2c:	000d883a 	mov	r6,zero
 2000e30:	01d01c34 	movhi	r7,16496
 2000e34:	39f80004 	addi	r7,r7,-8192
 2000e38:	2002c680 	call	2002c68 <__muldf3>
 2000e3c:	1009883a 	mov	r4,r2
 2000e40:	180b883a 	mov	r5,r3
 2000e44:	2005883a 	mov	r2,r4
 2000e48:	2807883a 	mov	r3,r5
 2000e4c:	1009883a 	mov	r4,r2
 2000e50:	180b883a 	mov	r5,r3
 2000e54:	20034680 	call	2003468 <__fixdfsi>
 2000e58:	00c082b4 	movhi	r3,522
 2000e5c:	18cc2304 	addi	r3,r3,12428
 2000e60:	1085883a 	add	r2,r2,r2
 2000e64:	1885883a 	add	r2,r3,r2
 2000e68:	1080000b 	ldhu	r2,0(r2)
 2000e6c:	e0bffc0d 	sth	r2,-16(fp)
 2000e70:	e13ffb17 	ldw	r4,-20(fp)
 2000e74:	20034e80 	call	20034e8 <__floatsidf>
 2000e78:	100b883a 	mov	r5,r2
 2000e7c:	180d883a 	mov	r6,r3
 2000e80:	2809883a 	mov	r4,r5
 2000e84:	300b883a 	mov	r5,r6
 2000e88:	000d883a 	mov	r6,zero
 2000e8c:	01d00ff4 	movhi	r7,16447
 2000e90:	20022cc0 	call	20022cc <__divdf3>
 2000e94:	1009883a 	mov	r4,r2
 2000e98:	180b883a 	mov	r5,r3
 2000e9c:	2005883a 	mov	r2,r4
 2000ea0:	2807883a 	mov	r3,r5
 2000ea4:	1009883a 	mov	r4,r2
 2000ea8:	180b883a 	mov	r5,r3
 2000eac:	000d883a 	mov	r6,zero
 2000eb0:	01d01c34 	movhi	r7,16496
 2000eb4:	39f80004 	addi	r7,r7,-8192
 2000eb8:	2002c680 	call	2002c68 <__muldf3>
 2000ebc:	1009883a 	mov	r4,r2
 2000ec0:	180b883a 	mov	r5,r3
 2000ec4:	2005883a 	mov	r2,r4
 2000ec8:	2807883a 	mov	r3,r5
 2000ecc:	1009883a 	mov	r4,r2
 2000ed0:	180b883a 	mov	r5,r3
 2000ed4:	20034680 	call	2003468 <__fixdfsi>
 2000ed8:	00c082b4 	movhi	r3,522
 2000edc:	18cc2304 	addi	r3,r3,12428
 2000ee0:	1085883a 	add	r2,r2,r2
 2000ee4:	1885883a 	add	r2,r3,r2
 2000ee8:	1080000b 	ldhu	r2,0(r2)
 2000eec:	e0bffc8d 	sth	r2,-14(fp)
 2000ef0:	e13ffb17 	ldw	r4,-20(fp)
 2000ef4:	20034e80 	call	20034e8 <__floatsidf>
 2000ef8:	100b883a 	mov	r5,r2
 2000efc:	180d883a 	mov	r6,r3
 2000f00:	2809883a 	mov	r4,r5
 2000f04:	300b883a 	mov	r5,r6
 2000f08:	000d883a 	mov	r6,zero
 2000f0c:	01d00ff4 	movhi	r7,16447
 2000f10:	20022cc0 	call	20022cc <__divdf3>
 2000f14:	1009883a 	mov	r4,r2
 2000f18:	180b883a 	mov	r5,r3
 2000f1c:	2005883a 	mov	r2,r4
 2000f20:	2807883a 	mov	r3,r5
 2000f24:	1009883a 	mov	r4,r2
 2000f28:	180b883a 	mov	r5,r3
 2000f2c:	000d883a 	mov	r6,zero
 2000f30:	01d01c34 	movhi	r7,16496
 2000f34:	39f80004 	addi	r7,r7,-8192
 2000f38:	2002c680 	call	2002c68 <__muldf3>
 2000f3c:	1009883a 	mov	r4,r2
 2000f40:	180b883a 	mov	r5,r3
 2000f44:	2005883a 	mov	r2,r4
 2000f48:	2807883a 	mov	r3,r5
 2000f4c:	1009883a 	mov	r4,r2
 2000f50:	180b883a 	mov	r5,r3
 2000f54:	20034680 	call	2003468 <__fixdfsi>
 2000f58:	00c082b4 	movhi	r3,522
 2000f5c:	18cc2304 	addi	r3,r3,12428
 2000f60:	1085883a 	add	r2,r2,r2
 2000f64:	1885883a 	add	r2,r3,r2
 2000f68:	1080000b 	ldhu	r2,0(r2)
 2000f6c:	e0bffd0d 	sth	r2,-12(fp)
 2000f70:	e0bffc0b 	ldhu	r2,-16(fp)
 2000f74:	1004953a 	slli	r2,r2,20
 2000f78:	10cffc2c 	andhi	r3,r2,16368
 2000f7c:	e0bffc8b 	ldhu	r2,-14(fp)
 2000f80:	100892ba 	slli	r4,r2,10
 2000f84:	00800434 	movhi	r2,16
 2000f88:	10bf0004 	addi	r2,r2,-1024
 2000f8c:	2084703a 	and	r2,r4,r2
 2000f90:	1886b03a 	or	r3,r3,r2
 2000f94:	e0bffd0b 	ldhu	r2,-12(fp)
 2000f98:	1080ffcc 	andi	r2,r2,1023
 2000f9c:	1884b03a 	or	r2,r3,r2
 2000fa0:	e0bfff15 	stw	r2,-4(fp)
 2000fa4:	00810074 	movhi	r2,1025
 2000fa8:	10a82004 	addi	r2,r2,-24448
 2000fac:	e0fffe17 	ldw	r3,-8(fp)
 2000fb0:	10c00035 	stwio	r3,0(r2)
 2000fb4:	e0ffff17 	ldw	r3,-4(fp)
 2000fb8:	00810074 	movhi	r2,1025
 2000fbc:	10a81c04 	addi	r2,r2,-24464
 2000fc0:	10c00035 	stwio	r3,0(r2)
 2000fc4:	00c00044 	movi	r3,1
 2000fc8:	00810074 	movhi	r2,1025
 2000fcc:	10a81804 	addi	r2,r2,-24480
 2000fd0:	10c00035 	stwio	r3,0(r2)
 2000fd4:	0007883a 	mov	r3,zero
 2000fd8:	00810074 	movhi	r2,1025
 2000fdc:	10a81804 	addi	r2,r2,-24480
 2000fe0:	10c00035 	stwio	r3,0(r2)
 2000fe4:	e0bffb17 	ldw	r2,-20(fp)
 2000fe8:	10800044 	addi	r2,r2,1
 2000fec:	e0bffb15 	stw	r2,-20(fp)
 2000ff0:	e0bffb17 	ldw	r2,-20(fp)
 2000ff4:	10800810 	cmplti	r2,r2,32
 2000ff8:	103e221e 	bne	r2,zero,2000884 <__reset+0xfdff7884>
 2000ffc:	e0bffa17 	ldw	r2,-24(fp)
 2001000:	10800044 	addi	r2,r2,1
 2001004:	e0bffa15 	stw	r2,-24(fp)
 2001008:	e0bffa17 	ldw	r2,-24(fp)
 200100c:	10800810 	cmplti	r2,r2,32
 2001010:	103e1a1e 	bne	r2,zero,200087c <__reset+0xfdff787c>
 2001014:	e037883a 	mov	sp,fp
 2001018:	dfc00117 	ldw	ra,4(sp)
 200101c:	df000017 	ldw	fp,0(sp)
 2001020:	dec00204 	addi	sp,sp,8
 2001024:	f800283a 	ret

02001028 <displayCIEColourBars>:
 2001028:	defff804 	addi	sp,sp,-32
 200102c:	dfc00715 	stw	ra,28(sp)
 2001030:	df000615 	stw	fp,24(sp)
 2001034:	df000604 	addi	fp,sp,24
 2001038:	e03ffa15 	stw	zero,-24(fp)
 200103c:	00010b06 	br	200146c <displayCIEColourBars+0x444>
 2001040:	e03ffb15 	stw	zero,-20(fp)
 2001044:	00010306 	br	2001454 <displayCIEColourBars+0x42c>
 2001048:	00810004 	movi	r2,1024
 200104c:	e0bffe15 	stw	r2,-8(fp)
 2001050:	e0bffa17 	ldw	r2,-24(fp)
 2001054:	1004917a 	slli	r2,r2,5
 2001058:	e0fffe17 	ldw	r3,-8(fp)
 200105c:	1885883a 	add	r2,r3,r2
 2001060:	e0bffe15 	stw	r2,-8(fp)
 2001064:	e0fffe17 	ldw	r3,-8(fp)
 2001068:	e0bffb17 	ldw	r2,-20(fp)
 200106c:	1885883a 	add	r2,r3,r2
 2001070:	e0bffe15 	stw	r2,-8(fp)
 2001074:	e0bffa17 	ldw	r2,-24(fp)
 2001078:	10800208 	cmpgei	r2,r2,8
 200107c:	1000231e 	bne	r2,zero,200110c <displayCIEColourBars+0xe4>
 2001080:	e13ffb17 	ldw	r4,-20(fp)
 2001084:	20034e80 	call	20034e8 <__floatsidf>
 2001088:	100b883a 	mov	r5,r2
 200108c:	180d883a 	mov	r6,r3
 2001090:	2809883a 	mov	r4,r5
 2001094:	300b883a 	mov	r5,r6
 2001098:	000d883a 	mov	r6,zero
 200109c:	01d00ff4 	movhi	r7,16447
 20010a0:	20022cc0 	call	20022cc <__divdf3>
 20010a4:	1009883a 	mov	r4,r2
 20010a8:	180b883a 	mov	r5,r3
 20010ac:	2005883a 	mov	r2,r4
 20010b0:	2807883a 	mov	r3,r5
 20010b4:	1009883a 	mov	r4,r2
 20010b8:	180b883a 	mov	r5,r3
 20010bc:	000d883a 	mov	r6,zero
 20010c0:	01d01c34 	movhi	r7,16496
 20010c4:	39f80004 	addi	r7,r7,-8192
 20010c8:	2002c680 	call	2002c68 <__muldf3>
 20010cc:	1009883a 	mov	r4,r2
 20010d0:	180b883a 	mov	r5,r3
 20010d4:	2005883a 	mov	r2,r4
 20010d8:	2807883a 	mov	r3,r5
 20010dc:	1009883a 	mov	r4,r2
 20010e0:	180b883a 	mov	r5,r3
 20010e4:	20034680 	call	2003468 <__fixdfsi>
 20010e8:	00c082b4 	movhi	r3,522
 20010ec:	18cca304 	addi	r3,r3,12940
 20010f0:	1085883a 	add	r2,r2,r2
 20010f4:	1885883a 	add	r2,r3,r2
 20010f8:	1080000b 	ldhu	r2,0(r2)
 20010fc:	e0bffc0d 	sth	r2,-16(fp)
 2001100:	e03ffc8d 	sth	zero,-14(fp)
 2001104:	e03ffd0d 	sth	zero,-12(fp)
 2001108:	0000b206 	br	20013d4 <displayCIEColourBars+0x3ac>
 200110c:	e0bffa17 	ldw	r2,-24(fp)
 2001110:	10800210 	cmplti	r2,r2,8
 2001114:	1000261e 	bne	r2,zero,20011b0 <displayCIEColourBars+0x188>
 2001118:	e0bffa17 	ldw	r2,-24(fp)
 200111c:	10800408 	cmpgei	r2,r2,16
 2001120:	1000231e 	bne	r2,zero,20011b0 <displayCIEColourBars+0x188>
 2001124:	e03ffc0d 	sth	zero,-16(fp)
 2001128:	e13ffb17 	ldw	r4,-20(fp)
 200112c:	20034e80 	call	20034e8 <__floatsidf>
 2001130:	100b883a 	mov	r5,r2
 2001134:	180d883a 	mov	r6,r3
 2001138:	2809883a 	mov	r4,r5
 200113c:	300b883a 	mov	r5,r6
 2001140:	000d883a 	mov	r6,zero
 2001144:	01d00ff4 	movhi	r7,16447
 2001148:	20022cc0 	call	20022cc <__divdf3>
 200114c:	1009883a 	mov	r4,r2
 2001150:	180b883a 	mov	r5,r3
 2001154:	2005883a 	mov	r2,r4
 2001158:	2807883a 	mov	r3,r5
 200115c:	1009883a 	mov	r4,r2
 2001160:	180b883a 	mov	r5,r3
 2001164:	000d883a 	mov	r6,zero
 2001168:	01d01c34 	movhi	r7,16496
 200116c:	39f80004 	addi	r7,r7,-8192
 2001170:	2002c680 	call	2002c68 <__muldf3>
 2001174:	1009883a 	mov	r4,r2
 2001178:	180b883a 	mov	r5,r3
 200117c:	2005883a 	mov	r2,r4
 2001180:	2807883a 	mov	r3,r5
 2001184:	1009883a 	mov	r4,r2
 2001188:	180b883a 	mov	r5,r3
 200118c:	20034680 	call	2003468 <__fixdfsi>
 2001190:	00c082b4 	movhi	r3,522
 2001194:	18cca304 	addi	r3,r3,12940
 2001198:	1085883a 	add	r2,r2,r2
 200119c:	1885883a 	add	r2,r3,r2
 20011a0:	1080000b 	ldhu	r2,0(r2)
 20011a4:	e0bffc8d 	sth	r2,-14(fp)
 20011a8:	e03ffd0d 	sth	zero,-12(fp)
 20011ac:	00008906 	br	20013d4 <displayCIEColourBars+0x3ac>
 20011b0:	e0bffa17 	ldw	r2,-24(fp)
 20011b4:	10800410 	cmplti	r2,r2,16
 20011b8:	1000261e 	bne	r2,zero,2001254 <displayCIEColourBars+0x22c>
 20011bc:	e0bffa17 	ldw	r2,-24(fp)
 20011c0:	10800608 	cmpgei	r2,r2,24
 20011c4:	1000231e 	bne	r2,zero,2001254 <displayCIEColourBars+0x22c>
 20011c8:	e03ffc0d 	sth	zero,-16(fp)
 20011cc:	e03ffc8d 	sth	zero,-14(fp)
 20011d0:	e13ffb17 	ldw	r4,-20(fp)
 20011d4:	20034e80 	call	20034e8 <__floatsidf>
 20011d8:	100b883a 	mov	r5,r2
 20011dc:	180d883a 	mov	r6,r3
 20011e0:	2809883a 	mov	r4,r5
 20011e4:	300b883a 	mov	r5,r6
 20011e8:	000d883a 	mov	r6,zero
 20011ec:	01d00ff4 	movhi	r7,16447
 20011f0:	20022cc0 	call	20022cc <__divdf3>
 20011f4:	1009883a 	mov	r4,r2
 20011f8:	180b883a 	mov	r5,r3
 20011fc:	2005883a 	mov	r2,r4
 2001200:	2807883a 	mov	r3,r5
 2001204:	1009883a 	mov	r4,r2
 2001208:	180b883a 	mov	r5,r3
 200120c:	000d883a 	mov	r6,zero
 2001210:	01d01c34 	movhi	r7,16496
 2001214:	39f80004 	addi	r7,r7,-8192
 2001218:	2002c680 	call	2002c68 <__muldf3>
 200121c:	1009883a 	mov	r4,r2
 2001220:	180b883a 	mov	r5,r3
 2001224:	2005883a 	mov	r2,r4
 2001228:	2807883a 	mov	r3,r5
 200122c:	1009883a 	mov	r4,r2
 2001230:	180b883a 	mov	r5,r3
 2001234:	20034680 	call	2003468 <__fixdfsi>
 2001238:	00c082b4 	movhi	r3,522
 200123c:	18cca304 	addi	r3,r3,12940
 2001240:	1085883a 	add	r2,r2,r2
 2001244:	1885883a 	add	r2,r3,r2
 2001248:	1080000b 	ldhu	r2,0(r2)
 200124c:	e0bffd0d 	sth	r2,-12(fp)
 2001250:	00006006 	br	20013d4 <displayCIEColourBars+0x3ac>
 2001254:	e13ffb17 	ldw	r4,-20(fp)
 2001258:	20034e80 	call	20034e8 <__floatsidf>
 200125c:	100b883a 	mov	r5,r2
 2001260:	180d883a 	mov	r6,r3
 2001264:	2809883a 	mov	r4,r5
 2001268:	300b883a 	mov	r5,r6
 200126c:	000d883a 	mov	r6,zero
 2001270:	01d00ff4 	movhi	r7,16447
 2001274:	20022cc0 	call	20022cc <__divdf3>
 2001278:	1009883a 	mov	r4,r2
 200127c:	180b883a 	mov	r5,r3
 2001280:	2005883a 	mov	r2,r4
 2001284:	2807883a 	mov	r3,r5
 2001288:	1009883a 	mov	r4,r2
 200128c:	180b883a 	mov	r5,r3
 2001290:	000d883a 	mov	r6,zero
 2001294:	01d01c34 	movhi	r7,16496
 2001298:	39f80004 	addi	r7,r7,-8192
 200129c:	2002c680 	call	2002c68 <__muldf3>
 20012a0:	1009883a 	mov	r4,r2
 20012a4:	180b883a 	mov	r5,r3
 20012a8:	2005883a 	mov	r2,r4
 20012ac:	2807883a 	mov	r3,r5
 20012b0:	1009883a 	mov	r4,r2
 20012b4:	180b883a 	mov	r5,r3
 20012b8:	20034680 	call	2003468 <__fixdfsi>
 20012bc:	00c082b4 	movhi	r3,522
 20012c0:	18cca304 	addi	r3,r3,12940
 20012c4:	1085883a 	add	r2,r2,r2
 20012c8:	1885883a 	add	r2,r3,r2
 20012cc:	1080000b 	ldhu	r2,0(r2)
 20012d0:	e0bffc0d 	sth	r2,-16(fp)
 20012d4:	e13ffb17 	ldw	r4,-20(fp)
 20012d8:	20034e80 	call	20034e8 <__floatsidf>
 20012dc:	100b883a 	mov	r5,r2
 20012e0:	180d883a 	mov	r6,r3
 20012e4:	2809883a 	mov	r4,r5
 20012e8:	300b883a 	mov	r5,r6
 20012ec:	000d883a 	mov	r6,zero
 20012f0:	01d00ff4 	movhi	r7,16447
 20012f4:	20022cc0 	call	20022cc <__divdf3>
 20012f8:	1009883a 	mov	r4,r2
 20012fc:	180b883a 	mov	r5,r3
 2001300:	2005883a 	mov	r2,r4
 2001304:	2807883a 	mov	r3,r5
 2001308:	1009883a 	mov	r4,r2
 200130c:	180b883a 	mov	r5,r3
 2001310:	000d883a 	mov	r6,zero
 2001314:	01d01c34 	movhi	r7,16496
 2001318:	39f80004 	addi	r7,r7,-8192
 200131c:	2002c680 	call	2002c68 <__muldf3>
 2001320:	1009883a 	mov	r4,r2
 2001324:	180b883a 	mov	r5,r3
 2001328:	2005883a 	mov	r2,r4
 200132c:	2807883a 	mov	r3,r5
 2001330:	1009883a 	mov	r4,r2
 2001334:	180b883a 	mov	r5,r3
 2001338:	20034680 	call	2003468 <__fixdfsi>
 200133c:	00c082b4 	movhi	r3,522
 2001340:	18cca304 	addi	r3,r3,12940
 2001344:	1085883a 	add	r2,r2,r2
 2001348:	1885883a 	add	r2,r3,r2
 200134c:	1080000b 	ldhu	r2,0(r2)
 2001350:	e0bffc8d 	sth	r2,-14(fp)
 2001354:	e13ffb17 	ldw	r4,-20(fp)
 2001358:	20034e80 	call	20034e8 <__floatsidf>
 200135c:	100b883a 	mov	r5,r2
 2001360:	180d883a 	mov	r6,r3
 2001364:	2809883a 	mov	r4,r5
 2001368:	300b883a 	mov	r5,r6
 200136c:	000d883a 	mov	r6,zero
 2001370:	01d00ff4 	movhi	r7,16447
 2001374:	20022cc0 	call	20022cc <__divdf3>
 2001378:	1009883a 	mov	r4,r2
 200137c:	180b883a 	mov	r5,r3
 2001380:	2005883a 	mov	r2,r4
 2001384:	2807883a 	mov	r3,r5
 2001388:	1009883a 	mov	r4,r2
 200138c:	180b883a 	mov	r5,r3
 2001390:	000d883a 	mov	r6,zero
 2001394:	01d01c34 	movhi	r7,16496
 2001398:	39f80004 	addi	r7,r7,-8192
 200139c:	2002c680 	call	2002c68 <__muldf3>
 20013a0:	1009883a 	mov	r4,r2
 20013a4:	180b883a 	mov	r5,r3
 20013a8:	2005883a 	mov	r2,r4
 20013ac:	2807883a 	mov	r3,r5
 20013b0:	1009883a 	mov	r4,r2
 20013b4:	180b883a 	mov	r5,r3
 20013b8:	20034680 	call	2003468 <__fixdfsi>
 20013bc:	00c082b4 	movhi	r3,522
 20013c0:	18cca304 	addi	r3,r3,12940
 20013c4:	1085883a 	add	r2,r2,r2
 20013c8:	1885883a 	add	r2,r3,r2
 20013cc:	1080000b 	ldhu	r2,0(r2)
 20013d0:	e0bffd0d 	sth	r2,-12(fp)
 20013d4:	e0bffc0b 	ldhu	r2,-16(fp)
 20013d8:	1004953a 	slli	r2,r2,20
 20013dc:	10cffc2c 	andhi	r3,r2,16368
 20013e0:	e0bffc8b 	ldhu	r2,-14(fp)
 20013e4:	100892ba 	slli	r4,r2,10
 20013e8:	00800434 	movhi	r2,16
 20013ec:	10bf0004 	addi	r2,r2,-1024
 20013f0:	2084703a 	and	r2,r4,r2
 20013f4:	1886b03a 	or	r3,r3,r2
 20013f8:	e0bffd0b 	ldhu	r2,-12(fp)
 20013fc:	1080ffcc 	andi	r2,r2,1023
 2001400:	1884b03a 	or	r2,r3,r2
 2001404:	e0bfff15 	stw	r2,-4(fp)
 2001408:	00810074 	movhi	r2,1025
 200140c:	10a82004 	addi	r2,r2,-24448
 2001410:	e0fffe17 	ldw	r3,-8(fp)
 2001414:	10c00035 	stwio	r3,0(r2)
 2001418:	e0ffff17 	ldw	r3,-4(fp)
 200141c:	00810074 	movhi	r2,1025
 2001420:	10a81c04 	addi	r2,r2,-24464
 2001424:	10c00035 	stwio	r3,0(r2)
 2001428:	00c00044 	movi	r3,1
 200142c:	00810074 	movhi	r2,1025
 2001430:	10a81804 	addi	r2,r2,-24480
 2001434:	10c00035 	stwio	r3,0(r2)
 2001438:	0007883a 	mov	r3,zero
 200143c:	00810074 	movhi	r2,1025
 2001440:	10a81804 	addi	r2,r2,-24480
 2001444:	10c00035 	stwio	r3,0(r2)
 2001448:	e0bffb17 	ldw	r2,-20(fp)
 200144c:	10800044 	addi	r2,r2,1
 2001450:	e0bffb15 	stw	r2,-20(fp)
 2001454:	e0bffb17 	ldw	r2,-20(fp)
 2001458:	10800810 	cmplti	r2,r2,32
 200145c:	103efa1e 	bne	r2,zero,2001048 <__reset+0xfdff8048>
 2001460:	e0bffa17 	ldw	r2,-24(fp)
 2001464:	10800044 	addi	r2,r2,1
 2001468:	e0bffa15 	stw	r2,-24(fp)
 200146c:	e0bffa17 	ldw	r2,-24(fp)
 2001470:	10800810 	cmplti	r2,r2,32
 2001474:	103ef21e 	bne	r2,zero,2001040 <__reset+0xfdff8040>
 2001478:	e037883a 	mov	sp,fp
 200147c:	dfc00117 	ldw	ra,4(sp)
 2001480:	df000017 	ldw	fp,0(sp)
 2001484:	dec00204 	addi	sp,sp,8
 2001488:	f800283a 	ret

0200148c <displayGamma149ColourBars>:
 200148c:	defff804 	addi	sp,sp,-32
 2001490:	dfc00715 	stw	ra,28(sp)
 2001494:	df000615 	stw	fp,24(sp)
 2001498:	df000604 	addi	fp,sp,24
 200149c:	e03ffa15 	stw	zero,-24(fp)
 20014a0:	00010b06 	br	20018d0 <displayGamma149ColourBars+0x444>
 20014a4:	e03ffb15 	stw	zero,-20(fp)
 20014a8:	00010306 	br	20018b8 <displayGamma149ColourBars+0x42c>
 20014ac:	00810004 	movi	r2,1024
 20014b0:	e0bffe15 	stw	r2,-8(fp)
 20014b4:	e0bffa17 	ldw	r2,-24(fp)
 20014b8:	1004917a 	slli	r2,r2,5
 20014bc:	e0fffe17 	ldw	r3,-8(fp)
 20014c0:	1885883a 	add	r2,r3,r2
 20014c4:	e0bffe15 	stw	r2,-8(fp)
 20014c8:	e0fffe17 	ldw	r3,-8(fp)
 20014cc:	e0bffb17 	ldw	r2,-20(fp)
 20014d0:	1885883a 	add	r2,r3,r2
 20014d4:	e0bffe15 	stw	r2,-8(fp)
 20014d8:	e0bffa17 	ldw	r2,-24(fp)
 20014dc:	10800208 	cmpgei	r2,r2,8
 20014e0:	1000231e 	bne	r2,zero,2001570 <displayGamma149ColourBars+0xe4>
 20014e4:	e13ffb17 	ldw	r4,-20(fp)
 20014e8:	20034e80 	call	20034e8 <__floatsidf>
 20014ec:	100b883a 	mov	r5,r2
 20014f0:	180d883a 	mov	r6,r3
 20014f4:	2809883a 	mov	r4,r5
 20014f8:	300b883a 	mov	r5,r6
 20014fc:	000d883a 	mov	r6,zero
 2001500:	01d00ff4 	movhi	r7,16447
 2001504:	20022cc0 	call	20022cc <__divdf3>
 2001508:	1009883a 	mov	r4,r2
 200150c:	180b883a 	mov	r5,r3
 2001510:	2005883a 	mov	r2,r4
 2001514:	2807883a 	mov	r3,r5
 2001518:	1009883a 	mov	r4,r2
 200151c:	180b883a 	mov	r5,r3
 2001520:	000d883a 	mov	r6,zero
 2001524:	01d01c34 	movhi	r7,16496
 2001528:	39f80004 	addi	r7,r7,-8192
 200152c:	2002c680 	call	2002c68 <__muldf3>
 2001530:	1009883a 	mov	r4,r2
 2001534:	180b883a 	mov	r5,r3
 2001538:	2005883a 	mov	r2,r4
 200153c:	2807883a 	mov	r3,r5
 2001540:	1009883a 	mov	r4,r2
 2001544:	180b883a 	mov	r5,r3
 2001548:	20034680 	call	2003468 <__fixdfsi>
 200154c:	00c082b4 	movhi	r3,522
 2001550:	18cd2304 	addi	r3,r3,13452
 2001554:	1085883a 	add	r2,r2,r2
 2001558:	1885883a 	add	r2,r3,r2
 200155c:	1080000b 	ldhu	r2,0(r2)
 2001560:	e0bffc0d 	sth	r2,-16(fp)
 2001564:	e03ffc8d 	sth	zero,-14(fp)
 2001568:	e03ffd0d 	sth	zero,-12(fp)
 200156c:	0000b206 	br	2001838 <displayGamma149ColourBars+0x3ac>
 2001570:	e0bffa17 	ldw	r2,-24(fp)
 2001574:	10800210 	cmplti	r2,r2,8
 2001578:	1000261e 	bne	r2,zero,2001614 <displayGamma149ColourBars+0x188>
 200157c:	e0bffa17 	ldw	r2,-24(fp)
 2001580:	10800408 	cmpgei	r2,r2,16
 2001584:	1000231e 	bne	r2,zero,2001614 <displayGamma149ColourBars+0x188>
 2001588:	e03ffc0d 	sth	zero,-16(fp)
 200158c:	e13ffb17 	ldw	r4,-20(fp)
 2001590:	20034e80 	call	20034e8 <__floatsidf>
 2001594:	100b883a 	mov	r5,r2
 2001598:	180d883a 	mov	r6,r3
 200159c:	2809883a 	mov	r4,r5
 20015a0:	300b883a 	mov	r5,r6
 20015a4:	000d883a 	mov	r6,zero
 20015a8:	01d00ff4 	movhi	r7,16447
 20015ac:	20022cc0 	call	20022cc <__divdf3>
 20015b0:	1009883a 	mov	r4,r2
 20015b4:	180b883a 	mov	r5,r3
 20015b8:	2005883a 	mov	r2,r4
 20015bc:	2807883a 	mov	r3,r5
 20015c0:	1009883a 	mov	r4,r2
 20015c4:	180b883a 	mov	r5,r3
 20015c8:	000d883a 	mov	r6,zero
 20015cc:	01d01c34 	movhi	r7,16496
 20015d0:	39f80004 	addi	r7,r7,-8192
 20015d4:	2002c680 	call	2002c68 <__muldf3>
 20015d8:	1009883a 	mov	r4,r2
 20015dc:	180b883a 	mov	r5,r3
 20015e0:	2005883a 	mov	r2,r4
 20015e4:	2807883a 	mov	r3,r5
 20015e8:	1009883a 	mov	r4,r2
 20015ec:	180b883a 	mov	r5,r3
 20015f0:	20034680 	call	2003468 <__fixdfsi>
 20015f4:	00c082b4 	movhi	r3,522
 20015f8:	18cd2304 	addi	r3,r3,13452
 20015fc:	1085883a 	add	r2,r2,r2
 2001600:	1885883a 	add	r2,r3,r2
 2001604:	1080000b 	ldhu	r2,0(r2)
 2001608:	e0bffc8d 	sth	r2,-14(fp)
 200160c:	e03ffd0d 	sth	zero,-12(fp)
 2001610:	00008906 	br	2001838 <displayGamma149ColourBars+0x3ac>
 2001614:	e0bffa17 	ldw	r2,-24(fp)
 2001618:	10800410 	cmplti	r2,r2,16
 200161c:	1000261e 	bne	r2,zero,20016b8 <displayGamma149ColourBars+0x22c>
 2001620:	e0bffa17 	ldw	r2,-24(fp)
 2001624:	10800608 	cmpgei	r2,r2,24
 2001628:	1000231e 	bne	r2,zero,20016b8 <displayGamma149ColourBars+0x22c>
 200162c:	e03ffc0d 	sth	zero,-16(fp)
 2001630:	e03ffc8d 	sth	zero,-14(fp)
 2001634:	e13ffb17 	ldw	r4,-20(fp)
 2001638:	20034e80 	call	20034e8 <__floatsidf>
 200163c:	100b883a 	mov	r5,r2
 2001640:	180d883a 	mov	r6,r3
 2001644:	2809883a 	mov	r4,r5
 2001648:	300b883a 	mov	r5,r6
 200164c:	000d883a 	mov	r6,zero
 2001650:	01d00ff4 	movhi	r7,16447
 2001654:	20022cc0 	call	20022cc <__divdf3>
 2001658:	1009883a 	mov	r4,r2
 200165c:	180b883a 	mov	r5,r3
 2001660:	2005883a 	mov	r2,r4
 2001664:	2807883a 	mov	r3,r5
 2001668:	1009883a 	mov	r4,r2
 200166c:	180b883a 	mov	r5,r3
 2001670:	000d883a 	mov	r6,zero
 2001674:	01d01c34 	movhi	r7,16496
 2001678:	39f80004 	addi	r7,r7,-8192
 200167c:	2002c680 	call	2002c68 <__muldf3>
 2001680:	1009883a 	mov	r4,r2
 2001684:	180b883a 	mov	r5,r3
 2001688:	2005883a 	mov	r2,r4
 200168c:	2807883a 	mov	r3,r5
 2001690:	1009883a 	mov	r4,r2
 2001694:	180b883a 	mov	r5,r3
 2001698:	20034680 	call	2003468 <__fixdfsi>
 200169c:	00c082b4 	movhi	r3,522
 20016a0:	18cd2304 	addi	r3,r3,13452
 20016a4:	1085883a 	add	r2,r2,r2
 20016a8:	1885883a 	add	r2,r3,r2
 20016ac:	1080000b 	ldhu	r2,0(r2)
 20016b0:	e0bffd0d 	sth	r2,-12(fp)
 20016b4:	00006006 	br	2001838 <displayGamma149ColourBars+0x3ac>
 20016b8:	e13ffb17 	ldw	r4,-20(fp)
 20016bc:	20034e80 	call	20034e8 <__floatsidf>
 20016c0:	100b883a 	mov	r5,r2
 20016c4:	180d883a 	mov	r6,r3
 20016c8:	2809883a 	mov	r4,r5
 20016cc:	300b883a 	mov	r5,r6
 20016d0:	000d883a 	mov	r6,zero
 20016d4:	01d00ff4 	movhi	r7,16447
 20016d8:	20022cc0 	call	20022cc <__divdf3>
 20016dc:	1009883a 	mov	r4,r2
 20016e0:	180b883a 	mov	r5,r3
 20016e4:	2005883a 	mov	r2,r4
 20016e8:	2807883a 	mov	r3,r5
 20016ec:	1009883a 	mov	r4,r2
 20016f0:	180b883a 	mov	r5,r3
 20016f4:	000d883a 	mov	r6,zero
 20016f8:	01d01c34 	movhi	r7,16496
 20016fc:	39f80004 	addi	r7,r7,-8192
 2001700:	2002c680 	call	2002c68 <__muldf3>
 2001704:	1009883a 	mov	r4,r2
 2001708:	180b883a 	mov	r5,r3
 200170c:	2005883a 	mov	r2,r4
 2001710:	2807883a 	mov	r3,r5
 2001714:	1009883a 	mov	r4,r2
 2001718:	180b883a 	mov	r5,r3
 200171c:	20034680 	call	2003468 <__fixdfsi>
 2001720:	00c082b4 	movhi	r3,522
 2001724:	18cd2304 	addi	r3,r3,13452
 2001728:	1085883a 	add	r2,r2,r2
 200172c:	1885883a 	add	r2,r3,r2
 2001730:	1080000b 	ldhu	r2,0(r2)
 2001734:	e0bffc0d 	sth	r2,-16(fp)
 2001738:	e13ffb17 	ldw	r4,-20(fp)
 200173c:	20034e80 	call	20034e8 <__floatsidf>
 2001740:	100b883a 	mov	r5,r2
 2001744:	180d883a 	mov	r6,r3
 2001748:	2809883a 	mov	r4,r5
 200174c:	300b883a 	mov	r5,r6
 2001750:	000d883a 	mov	r6,zero
 2001754:	01d00ff4 	movhi	r7,16447
 2001758:	20022cc0 	call	20022cc <__divdf3>
 200175c:	1009883a 	mov	r4,r2
 2001760:	180b883a 	mov	r5,r3
 2001764:	2005883a 	mov	r2,r4
 2001768:	2807883a 	mov	r3,r5
 200176c:	1009883a 	mov	r4,r2
 2001770:	180b883a 	mov	r5,r3
 2001774:	000d883a 	mov	r6,zero
 2001778:	01d01c34 	movhi	r7,16496
 200177c:	39f80004 	addi	r7,r7,-8192
 2001780:	2002c680 	call	2002c68 <__muldf3>
 2001784:	1009883a 	mov	r4,r2
 2001788:	180b883a 	mov	r5,r3
 200178c:	2005883a 	mov	r2,r4
 2001790:	2807883a 	mov	r3,r5
 2001794:	1009883a 	mov	r4,r2
 2001798:	180b883a 	mov	r5,r3
 200179c:	20034680 	call	2003468 <__fixdfsi>
 20017a0:	00c082b4 	movhi	r3,522
 20017a4:	18cd2304 	addi	r3,r3,13452
 20017a8:	1085883a 	add	r2,r2,r2
 20017ac:	1885883a 	add	r2,r3,r2
 20017b0:	1080000b 	ldhu	r2,0(r2)
 20017b4:	e0bffc8d 	sth	r2,-14(fp)
 20017b8:	e13ffb17 	ldw	r4,-20(fp)
 20017bc:	20034e80 	call	20034e8 <__floatsidf>
 20017c0:	100b883a 	mov	r5,r2
 20017c4:	180d883a 	mov	r6,r3
 20017c8:	2809883a 	mov	r4,r5
 20017cc:	300b883a 	mov	r5,r6
 20017d0:	000d883a 	mov	r6,zero
 20017d4:	01d00ff4 	movhi	r7,16447
 20017d8:	20022cc0 	call	20022cc <__divdf3>
 20017dc:	1009883a 	mov	r4,r2
 20017e0:	180b883a 	mov	r5,r3
 20017e4:	2005883a 	mov	r2,r4
 20017e8:	2807883a 	mov	r3,r5
 20017ec:	1009883a 	mov	r4,r2
 20017f0:	180b883a 	mov	r5,r3
 20017f4:	000d883a 	mov	r6,zero
 20017f8:	01d01c34 	movhi	r7,16496
 20017fc:	39f80004 	addi	r7,r7,-8192
 2001800:	2002c680 	call	2002c68 <__muldf3>
 2001804:	1009883a 	mov	r4,r2
 2001808:	180b883a 	mov	r5,r3
 200180c:	2005883a 	mov	r2,r4
 2001810:	2807883a 	mov	r3,r5
 2001814:	1009883a 	mov	r4,r2
 2001818:	180b883a 	mov	r5,r3
 200181c:	20034680 	call	2003468 <__fixdfsi>
 2001820:	00c082b4 	movhi	r3,522
 2001824:	18cd2304 	addi	r3,r3,13452
 2001828:	1085883a 	add	r2,r2,r2
 200182c:	1885883a 	add	r2,r3,r2
 2001830:	1080000b 	ldhu	r2,0(r2)
 2001834:	e0bffd0d 	sth	r2,-12(fp)
 2001838:	e0bffc0b 	ldhu	r2,-16(fp)
 200183c:	1004953a 	slli	r2,r2,20
 2001840:	10cffc2c 	andhi	r3,r2,16368
 2001844:	e0bffc8b 	ldhu	r2,-14(fp)
 2001848:	100892ba 	slli	r4,r2,10
 200184c:	00800434 	movhi	r2,16
 2001850:	10bf0004 	addi	r2,r2,-1024
 2001854:	2084703a 	and	r2,r4,r2
 2001858:	1886b03a 	or	r3,r3,r2
 200185c:	e0bffd0b 	ldhu	r2,-12(fp)
 2001860:	1080ffcc 	andi	r2,r2,1023
 2001864:	1884b03a 	or	r2,r3,r2
 2001868:	e0bfff15 	stw	r2,-4(fp)
 200186c:	00810074 	movhi	r2,1025
 2001870:	10a82004 	addi	r2,r2,-24448
 2001874:	e0fffe17 	ldw	r3,-8(fp)
 2001878:	10c00035 	stwio	r3,0(r2)
 200187c:	e0ffff17 	ldw	r3,-4(fp)
 2001880:	00810074 	movhi	r2,1025
 2001884:	10a81c04 	addi	r2,r2,-24464
 2001888:	10c00035 	stwio	r3,0(r2)
 200188c:	00c00044 	movi	r3,1
 2001890:	00810074 	movhi	r2,1025
 2001894:	10a81804 	addi	r2,r2,-24480
 2001898:	10c00035 	stwio	r3,0(r2)
 200189c:	0007883a 	mov	r3,zero
 20018a0:	00810074 	movhi	r2,1025
 20018a4:	10a81804 	addi	r2,r2,-24480
 20018a8:	10c00035 	stwio	r3,0(r2)
 20018ac:	e0bffb17 	ldw	r2,-20(fp)
 20018b0:	10800044 	addi	r2,r2,1
 20018b4:	e0bffb15 	stw	r2,-20(fp)
 20018b8:	e0bffb17 	ldw	r2,-20(fp)
 20018bc:	10800810 	cmplti	r2,r2,32
 20018c0:	103efa1e 	bne	r2,zero,20014ac <__reset+0xfdff84ac>
 20018c4:	e0bffa17 	ldw	r2,-24(fp)
 20018c8:	10800044 	addi	r2,r2,1
 20018cc:	e0bffa15 	stw	r2,-24(fp)
 20018d0:	e0bffa17 	ldw	r2,-24(fp)
 20018d4:	10800810 	cmplti	r2,r2,32
 20018d8:	103ef21e 	bne	r2,zero,20014a4 <__reset+0xfdff84a4>
 20018dc:	e037883a 	mov	sp,fp
 20018e0:	dfc00117 	ldw	ra,4(sp)
 20018e4:	df000017 	ldw	fp,0(sp)
 20018e8:	dec00204 	addi	sp,sp,8
 20018ec:	f800283a 	ret

020018f0 <displayGamma98ColourBars>:
 20018f0:	defff804 	addi	sp,sp,-32
 20018f4:	dfc00715 	stw	ra,28(sp)
 20018f8:	df000615 	stw	fp,24(sp)
 20018fc:	df000604 	addi	fp,sp,24
 2001900:	e03ffa15 	stw	zero,-24(fp)
 2001904:	00010b06 	br	2001d34 <displayGamma98ColourBars+0x444>
 2001908:	e03ffb15 	stw	zero,-20(fp)
 200190c:	00010306 	br	2001d1c <displayGamma98ColourBars+0x42c>
 2001910:	00810004 	movi	r2,1024
 2001914:	e0bffe15 	stw	r2,-8(fp)
 2001918:	e0bffa17 	ldw	r2,-24(fp)
 200191c:	1004917a 	slli	r2,r2,5
 2001920:	e0fffe17 	ldw	r3,-8(fp)
 2001924:	1885883a 	add	r2,r3,r2
 2001928:	e0bffe15 	stw	r2,-8(fp)
 200192c:	e0fffe17 	ldw	r3,-8(fp)
 2001930:	e0bffb17 	ldw	r2,-20(fp)
 2001934:	1885883a 	add	r2,r3,r2
 2001938:	e0bffe15 	stw	r2,-8(fp)
 200193c:	e0bffa17 	ldw	r2,-24(fp)
 2001940:	10800208 	cmpgei	r2,r2,8
 2001944:	1000231e 	bne	r2,zero,20019d4 <displayGamma98ColourBars+0xe4>
 2001948:	e13ffb17 	ldw	r4,-20(fp)
 200194c:	20034e80 	call	20034e8 <__floatsidf>
 2001950:	100b883a 	mov	r5,r2
 2001954:	180d883a 	mov	r6,r3
 2001958:	2809883a 	mov	r4,r5
 200195c:	300b883a 	mov	r5,r6
 2001960:	000d883a 	mov	r6,zero
 2001964:	01d00ff4 	movhi	r7,16447
 2001968:	20022cc0 	call	20022cc <__divdf3>
 200196c:	1009883a 	mov	r4,r2
 2001970:	180b883a 	mov	r5,r3
 2001974:	2005883a 	mov	r2,r4
 2001978:	2807883a 	mov	r3,r5
 200197c:	1009883a 	mov	r4,r2
 2001980:	180b883a 	mov	r5,r3
 2001984:	000d883a 	mov	r6,zero
 2001988:	01d01c34 	movhi	r7,16496
 200198c:	39f80004 	addi	r7,r7,-8192
 2001990:	2002c680 	call	2002c68 <__muldf3>
 2001994:	1009883a 	mov	r4,r2
 2001998:	180b883a 	mov	r5,r3
 200199c:	2005883a 	mov	r2,r4
 20019a0:	2807883a 	mov	r3,r5
 20019a4:	1009883a 	mov	r4,r2
 20019a8:	180b883a 	mov	r5,r3
 20019ac:	20034680 	call	2003468 <__fixdfsi>
 20019b0:	00c082b4 	movhi	r3,522
 20019b4:	18cda304 	addi	r3,r3,13964
 20019b8:	1085883a 	add	r2,r2,r2
 20019bc:	1885883a 	add	r2,r3,r2
 20019c0:	1080000b 	ldhu	r2,0(r2)
 20019c4:	e0bffc0d 	sth	r2,-16(fp)
 20019c8:	e03ffc8d 	sth	zero,-14(fp)
 20019cc:	e03ffd0d 	sth	zero,-12(fp)
 20019d0:	0000b206 	br	2001c9c <displayGamma98ColourBars+0x3ac>
 20019d4:	e0bffa17 	ldw	r2,-24(fp)
 20019d8:	10800210 	cmplti	r2,r2,8
 20019dc:	1000261e 	bne	r2,zero,2001a78 <displayGamma98ColourBars+0x188>
 20019e0:	e0bffa17 	ldw	r2,-24(fp)
 20019e4:	10800408 	cmpgei	r2,r2,16
 20019e8:	1000231e 	bne	r2,zero,2001a78 <displayGamma98ColourBars+0x188>
 20019ec:	e03ffc0d 	sth	zero,-16(fp)
 20019f0:	e13ffb17 	ldw	r4,-20(fp)
 20019f4:	20034e80 	call	20034e8 <__floatsidf>
 20019f8:	100b883a 	mov	r5,r2
 20019fc:	180d883a 	mov	r6,r3
 2001a00:	2809883a 	mov	r4,r5
 2001a04:	300b883a 	mov	r5,r6
 2001a08:	000d883a 	mov	r6,zero
 2001a0c:	01d00ff4 	movhi	r7,16447
 2001a10:	20022cc0 	call	20022cc <__divdf3>
 2001a14:	1009883a 	mov	r4,r2
 2001a18:	180b883a 	mov	r5,r3
 2001a1c:	2005883a 	mov	r2,r4
 2001a20:	2807883a 	mov	r3,r5
 2001a24:	1009883a 	mov	r4,r2
 2001a28:	180b883a 	mov	r5,r3
 2001a2c:	000d883a 	mov	r6,zero
 2001a30:	01d01c34 	movhi	r7,16496
 2001a34:	39f80004 	addi	r7,r7,-8192
 2001a38:	2002c680 	call	2002c68 <__muldf3>
 2001a3c:	1009883a 	mov	r4,r2
 2001a40:	180b883a 	mov	r5,r3
 2001a44:	2005883a 	mov	r2,r4
 2001a48:	2807883a 	mov	r3,r5
 2001a4c:	1009883a 	mov	r4,r2
 2001a50:	180b883a 	mov	r5,r3
 2001a54:	20034680 	call	2003468 <__fixdfsi>
 2001a58:	00c082b4 	movhi	r3,522
 2001a5c:	18cda304 	addi	r3,r3,13964
 2001a60:	1085883a 	add	r2,r2,r2
 2001a64:	1885883a 	add	r2,r3,r2
 2001a68:	1080000b 	ldhu	r2,0(r2)
 2001a6c:	e0bffc8d 	sth	r2,-14(fp)
 2001a70:	e03ffd0d 	sth	zero,-12(fp)
 2001a74:	00008906 	br	2001c9c <displayGamma98ColourBars+0x3ac>
 2001a78:	e0bffa17 	ldw	r2,-24(fp)
 2001a7c:	10800410 	cmplti	r2,r2,16
 2001a80:	1000261e 	bne	r2,zero,2001b1c <displayGamma98ColourBars+0x22c>
 2001a84:	e0bffa17 	ldw	r2,-24(fp)
 2001a88:	10800608 	cmpgei	r2,r2,24
 2001a8c:	1000231e 	bne	r2,zero,2001b1c <displayGamma98ColourBars+0x22c>
 2001a90:	e03ffc0d 	sth	zero,-16(fp)
 2001a94:	e03ffc8d 	sth	zero,-14(fp)
 2001a98:	e13ffb17 	ldw	r4,-20(fp)
 2001a9c:	20034e80 	call	20034e8 <__floatsidf>
 2001aa0:	100b883a 	mov	r5,r2
 2001aa4:	180d883a 	mov	r6,r3
 2001aa8:	2809883a 	mov	r4,r5
 2001aac:	300b883a 	mov	r5,r6
 2001ab0:	000d883a 	mov	r6,zero
 2001ab4:	01d00ff4 	movhi	r7,16447
 2001ab8:	20022cc0 	call	20022cc <__divdf3>
 2001abc:	1009883a 	mov	r4,r2
 2001ac0:	180b883a 	mov	r5,r3
 2001ac4:	2005883a 	mov	r2,r4
 2001ac8:	2807883a 	mov	r3,r5
 2001acc:	1009883a 	mov	r4,r2
 2001ad0:	180b883a 	mov	r5,r3
 2001ad4:	000d883a 	mov	r6,zero
 2001ad8:	01d01c34 	movhi	r7,16496
 2001adc:	39f80004 	addi	r7,r7,-8192
 2001ae0:	2002c680 	call	2002c68 <__muldf3>
 2001ae4:	1009883a 	mov	r4,r2
 2001ae8:	180b883a 	mov	r5,r3
 2001aec:	2005883a 	mov	r2,r4
 2001af0:	2807883a 	mov	r3,r5
 2001af4:	1009883a 	mov	r4,r2
 2001af8:	180b883a 	mov	r5,r3
 2001afc:	20034680 	call	2003468 <__fixdfsi>
 2001b00:	00c082b4 	movhi	r3,522
 2001b04:	18cda304 	addi	r3,r3,13964
 2001b08:	1085883a 	add	r2,r2,r2
 2001b0c:	1885883a 	add	r2,r3,r2
 2001b10:	1080000b 	ldhu	r2,0(r2)
 2001b14:	e0bffd0d 	sth	r2,-12(fp)
 2001b18:	00006006 	br	2001c9c <displayGamma98ColourBars+0x3ac>
 2001b1c:	e13ffb17 	ldw	r4,-20(fp)
 2001b20:	20034e80 	call	20034e8 <__floatsidf>
 2001b24:	100b883a 	mov	r5,r2
 2001b28:	180d883a 	mov	r6,r3
 2001b2c:	2809883a 	mov	r4,r5
 2001b30:	300b883a 	mov	r5,r6
 2001b34:	000d883a 	mov	r6,zero
 2001b38:	01d00ff4 	movhi	r7,16447
 2001b3c:	20022cc0 	call	20022cc <__divdf3>
 2001b40:	1009883a 	mov	r4,r2
 2001b44:	180b883a 	mov	r5,r3
 2001b48:	2005883a 	mov	r2,r4
 2001b4c:	2807883a 	mov	r3,r5
 2001b50:	1009883a 	mov	r4,r2
 2001b54:	180b883a 	mov	r5,r3
 2001b58:	000d883a 	mov	r6,zero
 2001b5c:	01d01c34 	movhi	r7,16496
 2001b60:	39f80004 	addi	r7,r7,-8192
 2001b64:	2002c680 	call	2002c68 <__muldf3>
 2001b68:	1009883a 	mov	r4,r2
 2001b6c:	180b883a 	mov	r5,r3
 2001b70:	2005883a 	mov	r2,r4
 2001b74:	2807883a 	mov	r3,r5
 2001b78:	1009883a 	mov	r4,r2
 2001b7c:	180b883a 	mov	r5,r3
 2001b80:	20034680 	call	2003468 <__fixdfsi>
 2001b84:	00c082b4 	movhi	r3,522
 2001b88:	18cda304 	addi	r3,r3,13964
 2001b8c:	1085883a 	add	r2,r2,r2
 2001b90:	1885883a 	add	r2,r3,r2
 2001b94:	1080000b 	ldhu	r2,0(r2)
 2001b98:	e0bffc0d 	sth	r2,-16(fp)
 2001b9c:	e13ffb17 	ldw	r4,-20(fp)
 2001ba0:	20034e80 	call	20034e8 <__floatsidf>
 2001ba4:	100b883a 	mov	r5,r2
 2001ba8:	180d883a 	mov	r6,r3
 2001bac:	2809883a 	mov	r4,r5
 2001bb0:	300b883a 	mov	r5,r6
 2001bb4:	000d883a 	mov	r6,zero
 2001bb8:	01d00ff4 	movhi	r7,16447
 2001bbc:	20022cc0 	call	20022cc <__divdf3>
 2001bc0:	1009883a 	mov	r4,r2
 2001bc4:	180b883a 	mov	r5,r3
 2001bc8:	2005883a 	mov	r2,r4
 2001bcc:	2807883a 	mov	r3,r5
 2001bd0:	1009883a 	mov	r4,r2
 2001bd4:	180b883a 	mov	r5,r3
 2001bd8:	000d883a 	mov	r6,zero
 2001bdc:	01d01c34 	movhi	r7,16496
 2001be0:	39f80004 	addi	r7,r7,-8192
 2001be4:	2002c680 	call	2002c68 <__muldf3>
 2001be8:	1009883a 	mov	r4,r2
 2001bec:	180b883a 	mov	r5,r3
 2001bf0:	2005883a 	mov	r2,r4
 2001bf4:	2807883a 	mov	r3,r5
 2001bf8:	1009883a 	mov	r4,r2
 2001bfc:	180b883a 	mov	r5,r3
 2001c00:	20034680 	call	2003468 <__fixdfsi>
 2001c04:	00c082b4 	movhi	r3,522
 2001c08:	18cda304 	addi	r3,r3,13964
 2001c0c:	1085883a 	add	r2,r2,r2
 2001c10:	1885883a 	add	r2,r3,r2
 2001c14:	1080000b 	ldhu	r2,0(r2)
 2001c18:	e0bffc8d 	sth	r2,-14(fp)
 2001c1c:	e13ffb17 	ldw	r4,-20(fp)
 2001c20:	20034e80 	call	20034e8 <__floatsidf>
 2001c24:	100b883a 	mov	r5,r2
 2001c28:	180d883a 	mov	r6,r3
 2001c2c:	2809883a 	mov	r4,r5
 2001c30:	300b883a 	mov	r5,r6
 2001c34:	000d883a 	mov	r6,zero
 2001c38:	01d00ff4 	movhi	r7,16447
 2001c3c:	20022cc0 	call	20022cc <__divdf3>
 2001c40:	1009883a 	mov	r4,r2
 2001c44:	180b883a 	mov	r5,r3
 2001c48:	2005883a 	mov	r2,r4
 2001c4c:	2807883a 	mov	r3,r5
 2001c50:	1009883a 	mov	r4,r2
 2001c54:	180b883a 	mov	r5,r3
 2001c58:	000d883a 	mov	r6,zero
 2001c5c:	01d01c34 	movhi	r7,16496
 2001c60:	39f80004 	addi	r7,r7,-8192
 2001c64:	2002c680 	call	2002c68 <__muldf3>
 2001c68:	1009883a 	mov	r4,r2
 2001c6c:	180b883a 	mov	r5,r3
 2001c70:	2005883a 	mov	r2,r4
 2001c74:	2807883a 	mov	r3,r5
 2001c78:	1009883a 	mov	r4,r2
 2001c7c:	180b883a 	mov	r5,r3
 2001c80:	20034680 	call	2003468 <__fixdfsi>
 2001c84:	00c082b4 	movhi	r3,522
 2001c88:	18cda304 	addi	r3,r3,13964
 2001c8c:	1085883a 	add	r2,r2,r2
 2001c90:	1885883a 	add	r2,r3,r2
 2001c94:	1080000b 	ldhu	r2,0(r2)
 2001c98:	e0bffd0d 	sth	r2,-12(fp)
 2001c9c:	e0bffc0b 	ldhu	r2,-16(fp)
 2001ca0:	1004953a 	slli	r2,r2,20
 2001ca4:	10cffc2c 	andhi	r3,r2,16368
 2001ca8:	e0bffc8b 	ldhu	r2,-14(fp)
 2001cac:	100892ba 	slli	r4,r2,10
 2001cb0:	00800434 	movhi	r2,16
 2001cb4:	10bf0004 	addi	r2,r2,-1024
 2001cb8:	2084703a 	and	r2,r4,r2
 2001cbc:	1886b03a 	or	r3,r3,r2
 2001cc0:	e0bffd0b 	ldhu	r2,-12(fp)
 2001cc4:	1080ffcc 	andi	r2,r2,1023
 2001cc8:	1884b03a 	or	r2,r3,r2
 2001ccc:	e0bfff15 	stw	r2,-4(fp)
 2001cd0:	00810074 	movhi	r2,1025
 2001cd4:	10a82004 	addi	r2,r2,-24448
 2001cd8:	e0fffe17 	ldw	r3,-8(fp)
 2001cdc:	10c00035 	stwio	r3,0(r2)
 2001ce0:	e0ffff17 	ldw	r3,-4(fp)
 2001ce4:	00810074 	movhi	r2,1025
 2001ce8:	10a81c04 	addi	r2,r2,-24464
 2001cec:	10c00035 	stwio	r3,0(r2)
 2001cf0:	00c00044 	movi	r3,1
 2001cf4:	00810074 	movhi	r2,1025
 2001cf8:	10a81804 	addi	r2,r2,-24480
 2001cfc:	10c00035 	stwio	r3,0(r2)
 2001d00:	0007883a 	mov	r3,zero
 2001d04:	00810074 	movhi	r2,1025
 2001d08:	10a81804 	addi	r2,r2,-24480
 2001d0c:	10c00035 	stwio	r3,0(r2)
 2001d10:	e0bffb17 	ldw	r2,-20(fp)
 2001d14:	10800044 	addi	r2,r2,1
 2001d18:	e0bffb15 	stw	r2,-20(fp)
 2001d1c:	e0bffb17 	ldw	r2,-20(fp)
 2001d20:	10800810 	cmplti	r2,r2,32
 2001d24:	103efa1e 	bne	r2,zero,2001910 <__reset+0xfdff8910>
 2001d28:	e0bffa17 	ldw	r2,-24(fp)
 2001d2c:	10800044 	addi	r2,r2,1
 2001d30:	e0bffa15 	stw	r2,-24(fp)
 2001d34:	e0bffa17 	ldw	r2,-24(fp)
 2001d38:	10800810 	cmplti	r2,r2,32
 2001d3c:	103ef21e 	bne	r2,zero,2001908 <__reset+0xfdff8908>
 2001d40:	e037883a 	mov	sp,fp
 2001d44:	dfc00117 	ldw	ra,4(sp)
 2001d48:	df000017 	ldw	fp,0(sp)
 2001d4c:	dec00204 	addi	sp,sp,8
 2001d50:	f800283a 	ret

02001d54 <displayGamma46ColourBars>:
 2001d54:	defff804 	addi	sp,sp,-32
 2001d58:	dfc00715 	stw	ra,28(sp)
 2001d5c:	df000615 	stw	fp,24(sp)
 2001d60:	df000604 	addi	fp,sp,24
 2001d64:	e03ffa15 	stw	zero,-24(fp)
 2001d68:	00010b06 	br	2002198 <displayGamma46ColourBars+0x444>
 2001d6c:	e03ffb15 	stw	zero,-20(fp)
 2001d70:	00010306 	br	2002180 <displayGamma46ColourBars+0x42c>
 2001d74:	00810004 	movi	r2,1024
 2001d78:	e0bffe15 	stw	r2,-8(fp)
 2001d7c:	e0bffa17 	ldw	r2,-24(fp)
 2001d80:	1004917a 	slli	r2,r2,5
 2001d84:	e0fffe17 	ldw	r3,-8(fp)
 2001d88:	1885883a 	add	r2,r3,r2
 2001d8c:	e0bffe15 	stw	r2,-8(fp)
 2001d90:	e0fffe17 	ldw	r3,-8(fp)
 2001d94:	e0bffb17 	ldw	r2,-20(fp)
 2001d98:	1885883a 	add	r2,r3,r2
 2001d9c:	e0bffe15 	stw	r2,-8(fp)
 2001da0:	e0bffa17 	ldw	r2,-24(fp)
 2001da4:	10800208 	cmpgei	r2,r2,8
 2001da8:	1000231e 	bne	r2,zero,2001e38 <displayGamma46ColourBars+0xe4>
 2001dac:	e13ffb17 	ldw	r4,-20(fp)
 2001db0:	20034e80 	call	20034e8 <__floatsidf>
 2001db4:	100b883a 	mov	r5,r2
 2001db8:	180d883a 	mov	r6,r3
 2001dbc:	2809883a 	mov	r4,r5
 2001dc0:	300b883a 	mov	r5,r6
 2001dc4:	000d883a 	mov	r6,zero
 2001dc8:	01d00ff4 	movhi	r7,16447
 2001dcc:	20022cc0 	call	20022cc <__divdf3>
 2001dd0:	1009883a 	mov	r4,r2
 2001dd4:	180b883a 	mov	r5,r3
 2001dd8:	2005883a 	mov	r2,r4
 2001ddc:	2807883a 	mov	r3,r5
 2001de0:	1009883a 	mov	r4,r2
 2001de4:	180b883a 	mov	r5,r3
 2001de8:	000d883a 	mov	r6,zero
 2001dec:	01d01c34 	movhi	r7,16496
 2001df0:	39f80004 	addi	r7,r7,-8192
 2001df4:	2002c680 	call	2002c68 <__muldf3>
 2001df8:	1009883a 	mov	r4,r2
 2001dfc:	180b883a 	mov	r5,r3
 2001e00:	2005883a 	mov	r2,r4
 2001e04:	2807883a 	mov	r3,r5
 2001e08:	1009883a 	mov	r4,r2
 2001e0c:	180b883a 	mov	r5,r3
 2001e10:	20034680 	call	2003468 <__fixdfsi>
 2001e14:	00c082b4 	movhi	r3,522
 2001e18:	18ce2304 	addi	r3,r3,14476
 2001e1c:	1085883a 	add	r2,r2,r2
 2001e20:	1885883a 	add	r2,r3,r2
 2001e24:	1080000b 	ldhu	r2,0(r2)
 2001e28:	e0bffc0d 	sth	r2,-16(fp)
 2001e2c:	e03ffc8d 	sth	zero,-14(fp)
 2001e30:	e03ffd0d 	sth	zero,-12(fp)
 2001e34:	0000b206 	br	2002100 <displayGamma46ColourBars+0x3ac>
 2001e38:	e0bffa17 	ldw	r2,-24(fp)
 2001e3c:	10800210 	cmplti	r2,r2,8
 2001e40:	1000261e 	bne	r2,zero,2001edc <displayGamma46ColourBars+0x188>
 2001e44:	e0bffa17 	ldw	r2,-24(fp)
 2001e48:	10800408 	cmpgei	r2,r2,16
 2001e4c:	1000231e 	bne	r2,zero,2001edc <displayGamma46ColourBars+0x188>
 2001e50:	e03ffc0d 	sth	zero,-16(fp)
 2001e54:	e13ffb17 	ldw	r4,-20(fp)
 2001e58:	20034e80 	call	20034e8 <__floatsidf>
 2001e5c:	100b883a 	mov	r5,r2
 2001e60:	180d883a 	mov	r6,r3
 2001e64:	2809883a 	mov	r4,r5
 2001e68:	300b883a 	mov	r5,r6
 2001e6c:	000d883a 	mov	r6,zero
 2001e70:	01d00ff4 	movhi	r7,16447
 2001e74:	20022cc0 	call	20022cc <__divdf3>
 2001e78:	1009883a 	mov	r4,r2
 2001e7c:	180b883a 	mov	r5,r3
 2001e80:	2005883a 	mov	r2,r4
 2001e84:	2807883a 	mov	r3,r5
 2001e88:	1009883a 	mov	r4,r2
 2001e8c:	180b883a 	mov	r5,r3
 2001e90:	000d883a 	mov	r6,zero
 2001e94:	01d01c34 	movhi	r7,16496
 2001e98:	39f80004 	addi	r7,r7,-8192
 2001e9c:	2002c680 	call	2002c68 <__muldf3>
 2001ea0:	1009883a 	mov	r4,r2
 2001ea4:	180b883a 	mov	r5,r3
 2001ea8:	2005883a 	mov	r2,r4
 2001eac:	2807883a 	mov	r3,r5
 2001eb0:	1009883a 	mov	r4,r2
 2001eb4:	180b883a 	mov	r5,r3
 2001eb8:	20034680 	call	2003468 <__fixdfsi>
 2001ebc:	00c082b4 	movhi	r3,522
 2001ec0:	18ce2304 	addi	r3,r3,14476
 2001ec4:	1085883a 	add	r2,r2,r2
 2001ec8:	1885883a 	add	r2,r3,r2
 2001ecc:	1080000b 	ldhu	r2,0(r2)
 2001ed0:	e0bffc8d 	sth	r2,-14(fp)
 2001ed4:	e03ffd0d 	sth	zero,-12(fp)
 2001ed8:	00008906 	br	2002100 <displayGamma46ColourBars+0x3ac>
 2001edc:	e0bffa17 	ldw	r2,-24(fp)
 2001ee0:	10800410 	cmplti	r2,r2,16
 2001ee4:	1000261e 	bne	r2,zero,2001f80 <displayGamma46ColourBars+0x22c>
 2001ee8:	e0bffa17 	ldw	r2,-24(fp)
 2001eec:	10800608 	cmpgei	r2,r2,24
 2001ef0:	1000231e 	bne	r2,zero,2001f80 <displayGamma46ColourBars+0x22c>
 2001ef4:	e03ffc0d 	sth	zero,-16(fp)
 2001ef8:	e03ffc8d 	sth	zero,-14(fp)
 2001efc:	e13ffb17 	ldw	r4,-20(fp)
 2001f00:	20034e80 	call	20034e8 <__floatsidf>
 2001f04:	100b883a 	mov	r5,r2
 2001f08:	180d883a 	mov	r6,r3
 2001f0c:	2809883a 	mov	r4,r5
 2001f10:	300b883a 	mov	r5,r6
 2001f14:	000d883a 	mov	r6,zero
 2001f18:	01d00ff4 	movhi	r7,16447
 2001f1c:	20022cc0 	call	20022cc <__divdf3>
 2001f20:	1009883a 	mov	r4,r2
 2001f24:	180b883a 	mov	r5,r3
 2001f28:	2005883a 	mov	r2,r4
 2001f2c:	2807883a 	mov	r3,r5
 2001f30:	1009883a 	mov	r4,r2
 2001f34:	180b883a 	mov	r5,r3
 2001f38:	000d883a 	mov	r6,zero
 2001f3c:	01d01c34 	movhi	r7,16496
 2001f40:	39f80004 	addi	r7,r7,-8192
 2001f44:	2002c680 	call	2002c68 <__muldf3>
 2001f48:	1009883a 	mov	r4,r2
 2001f4c:	180b883a 	mov	r5,r3
 2001f50:	2005883a 	mov	r2,r4
 2001f54:	2807883a 	mov	r3,r5
 2001f58:	1009883a 	mov	r4,r2
 2001f5c:	180b883a 	mov	r5,r3
 2001f60:	20034680 	call	2003468 <__fixdfsi>
 2001f64:	00c082b4 	movhi	r3,522
 2001f68:	18ce2304 	addi	r3,r3,14476
 2001f6c:	1085883a 	add	r2,r2,r2
 2001f70:	1885883a 	add	r2,r3,r2
 2001f74:	1080000b 	ldhu	r2,0(r2)
 2001f78:	e0bffd0d 	sth	r2,-12(fp)
 2001f7c:	00006006 	br	2002100 <displayGamma46ColourBars+0x3ac>
 2001f80:	e13ffb17 	ldw	r4,-20(fp)
 2001f84:	20034e80 	call	20034e8 <__floatsidf>
 2001f88:	100b883a 	mov	r5,r2
 2001f8c:	180d883a 	mov	r6,r3
 2001f90:	2809883a 	mov	r4,r5
 2001f94:	300b883a 	mov	r5,r6
 2001f98:	000d883a 	mov	r6,zero
 2001f9c:	01d00ff4 	movhi	r7,16447
 2001fa0:	20022cc0 	call	20022cc <__divdf3>
 2001fa4:	1009883a 	mov	r4,r2
 2001fa8:	180b883a 	mov	r5,r3
 2001fac:	2005883a 	mov	r2,r4
 2001fb0:	2807883a 	mov	r3,r5
 2001fb4:	1009883a 	mov	r4,r2
 2001fb8:	180b883a 	mov	r5,r3
 2001fbc:	000d883a 	mov	r6,zero
 2001fc0:	01d01c34 	movhi	r7,16496
 2001fc4:	39f80004 	addi	r7,r7,-8192
 2001fc8:	2002c680 	call	2002c68 <__muldf3>
 2001fcc:	1009883a 	mov	r4,r2
 2001fd0:	180b883a 	mov	r5,r3
 2001fd4:	2005883a 	mov	r2,r4
 2001fd8:	2807883a 	mov	r3,r5
 2001fdc:	1009883a 	mov	r4,r2
 2001fe0:	180b883a 	mov	r5,r3
 2001fe4:	20034680 	call	2003468 <__fixdfsi>
 2001fe8:	00c082b4 	movhi	r3,522
 2001fec:	18ce2304 	addi	r3,r3,14476
 2001ff0:	1085883a 	add	r2,r2,r2
 2001ff4:	1885883a 	add	r2,r3,r2
 2001ff8:	1080000b 	ldhu	r2,0(r2)
 2001ffc:	e0bffc0d 	sth	r2,-16(fp)
 2002000:	e13ffb17 	ldw	r4,-20(fp)
 2002004:	20034e80 	call	20034e8 <__floatsidf>
 2002008:	100b883a 	mov	r5,r2
 200200c:	180d883a 	mov	r6,r3
 2002010:	2809883a 	mov	r4,r5
 2002014:	300b883a 	mov	r5,r6
 2002018:	000d883a 	mov	r6,zero
 200201c:	01d00ff4 	movhi	r7,16447
 2002020:	20022cc0 	call	20022cc <__divdf3>
 2002024:	1009883a 	mov	r4,r2
 2002028:	180b883a 	mov	r5,r3
 200202c:	2005883a 	mov	r2,r4
 2002030:	2807883a 	mov	r3,r5
 2002034:	1009883a 	mov	r4,r2
 2002038:	180b883a 	mov	r5,r3
 200203c:	000d883a 	mov	r6,zero
 2002040:	01d01c34 	movhi	r7,16496
 2002044:	39f80004 	addi	r7,r7,-8192
 2002048:	2002c680 	call	2002c68 <__muldf3>
 200204c:	1009883a 	mov	r4,r2
 2002050:	180b883a 	mov	r5,r3
 2002054:	2005883a 	mov	r2,r4
 2002058:	2807883a 	mov	r3,r5
 200205c:	1009883a 	mov	r4,r2
 2002060:	180b883a 	mov	r5,r3
 2002064:	20034680 	call	2003468 <__fixdfsi>
 2002068:	00c082b4 	movhi	r3,522
 200206c:	18ce2304 	addi	r3,r3,14476
 2002070:	1085883a 	add	r2,r2,r2
 2002074:	1885883a 	add	r2,r3,r2
 2002078:	1080000b 	ldhu	r2,0(r2)
 200207c:	e0bffc8d 	sth	r2,-14(fp)
 2002080:	e13ffb17 	ldw	r4,-20(fp)
 2002084:	20034e80 	call	20034e8 <__floatsidf>
 2002088:	100b883a 	mov	r5,r2
 200208c:	180d883a 	mov	r6,r3
 2002090:	2809883a 	mov	r4,r5
 2002094:	300b883a 	mov	r5,r6
 2002098:	000d883a 	mov	r6,zero
 200209c:	01d00ff4 	movhi	r7,16447
 20020a0:	20022cc0 	call	20022cc <__divdf3>
 20020a4:	1009883a 	mov	r4,r2
 20020a8:	180b883a 	mov	r5,r3
 20020ac:	2005883a 	mov	r2,r4
 20020b0:	2807883a 	mov	r3,r5
 20020b4:	1009883a 	mov	r4,r2
 20020b8:	180b883a 	mov	r5,r3
 20020bc:	000d883a 	mov	r6,zero
 20020c0:	01d01c34 	movhi	r7,16496
 20020c4:	39f80004 	addi	r7,r7,-8192
 20020c8:	2002c680 	call	2002c68 <__muldf3>
 20020cc:	1009883a 	mov	r4,r2
 20020d0:	180b883a 	mov	r5,r3
 20020d4:	2005883a 	mov	r2,r4
 20020d8:	2807883a 	mov	r3,r5
 20020dc:	1009883a 	mov	r4,r2
 20020e0:	180b883a 	mov	r5,r3
 20020e4:	20034680 	call	2003468 <__fixdfsi>
 20020e8:	00c082b4 	movhi	r3,522
 20020ec:	18ce2304 	addi	r3,r3,14476
 20020f0:	1085883a 	add	r2,r2,r2
 20020f4:	1885883a 	add	r2,r3,r2
 20020f8:	1080000b 	ldhu	r2,0(r2)
 20020fc:	e0bffd0d 	sth	r2,-12(fp)
 2002100:	e0bffc0b 	ldhu	r2,-16(fp)
 2002104:	1004953a 	slli	r2,r2,20
 2002108:	10cffc2c 	andhi	r3,r2,16368
 200210c:	e0bffc8b 	ldhu	r2,-14(fp)
 2002110:	100892ba 	slli	r4,r2,10
 2002114:	00800434 	movhi	r2,16
 2002118:	10bf0004 	addi	r2,r2,-1024
 200211c:	2084703a 	and	r2,r4,r2
 2002120:	1886b03a 	or	r3,r3,r2
 2002124:	e0bffd0b 	ldhu	r2,-12(fp)
 2002128:	1080ffcc 	andi	r2,r2,1023
 200212c:	1884b03a 	or	r2,r3,r2
 2002130:	e0bfff15 	stw	r2,-4(fp)
 2002134:	00810074 	movhi	r2,1025
 2002138:	10a82004 	addi	r2,r2,-24448
 200213c:	e0fffe17 	ldw	r3,-8(fp)
 2002140:	10c00035 	stwio	r3,0(r2)
 2002144:	e0ffff17 	ldw	r3,-4(fp)
 2002148:	00810074 	movhi	r2,1025
 200214c:	10a81c04 	addi	r2,r2,-24464
 2002150:	10c00035 	stwio	r3,0(r2)
 2002154:	00c00044 	movi	r3,1
 2002158:	00810074 	movhi	r2,1025
 200215c:	10a81804 	addi	r2,r2,-24480
 2002160:	10c00035 	stwio	r3,0(r2)
 2002164:	0007883a 	mov	r3,zero
 2002168:	00810074 	movhi	r2,1025
 200216c:	10a81804 	addi	r2,r2,-24480
 2002170:	10c00035 	stwio	r3,0(r2)
 2002174:	e0bffb17 	ldw	r2,-20(fp)
 2002178:	10800044 	addi	r2,r2,1
 200217c:	e0bffb15 	stw	r2,-20(fp)
 2002180:	e0bffb17 	ldw	r2,-20(fp)
 2002184:	10800810 	cmplti	r2,r2,32
 2002188:	103efa1e 	bne	r2,zero,2001d74 <__reset+0xfdff8d74>
 200218c:	e0bffa17 	ldw	r2,-24(fp)
 2002190:	10800044 	addi	r2,r2,1
 2002194:	e0bffa15 	stw	r2,-24(fp)
 2002198:	e0bffa17 	ldw	r2,-24(fp)
 200219c:	10800810 	cmplti	r2,r2,32
 20021a0:	103ef21e 	bne	r2,zero,2001d6c <__reset+0xfdff8d6c>
 20021a4:	e037883a 	mov	sp,fp
 20021a8:	dfc00117 	ldw	ra,4(sp)
 20021ac:	df000017 	ldw	fp,0(sp)
 20021b0:	dec00204 	addi	sp,sp,8
 20021b4:	f800283a 	ret

020021b8 <udivmodsi4>:
 20021b8:	2900182e 	bgeu	r5,r4,200221c <udivmodsi4+0x64>
 20021bc:	28001716 	blt	r5,zero,200221c <udivmodsi4+0x64>
 20021c0:	00800804 	movi	r2,32
 20021c4:	00c00044 	movi	r3,1
 20021c8:	00000206 	br	20021d4 <udivmodsi4+0x1c>
 20021cc:	10001126 	beq	r2,zero,2002214 <udivmodsi4+0x5c>
 20021d0:	28000516 	blt	r5,zero,20021e8 <udivmodsi4+0x30>
 20021d4:	294b883a 	add	r5,r5,r5
 20021d8:	10bfffc4 	addi	r2,r2,-1
 20021dc:	18c7883a 	add	r3,r3,r3
 20021e0:	293ffa36 	bltu	r5,r4,20021cc <__reset+0xfdff91cc>
 20021e4:	18000b26 	beq	r3,zero,2002214 <udivmodsi4+0x5c>
 20021e8:	0005883a 	mov	r2,zero
 20021ec:	21400236 	bltu	r4,r5,20021f8 <udivmodsi4+0x40>
 20021f0:	2149c83a 	sub	r4,r4,r5
 20021f4:	10c4b03a 	or	r2,r2,r3
 20021f8:	1806d07a 	srli	r3,r3,1
 20021fc:	280ad07a 	srli	r5,r5,1
 2002200:	183ffa1e 	bne	r3,zero,20021ec <__reset+0xfdff91ec>
 2002204:	3000011e 	bne	r6,zero,200220c <udivmodsi4+0x54>
 2002208:	f800283a 	ret
 200220c:	2005883a 	mov	r2,r4
 2002210:	f800283a 	ret
 2002214:	0005883a 	mov	r2,zero
 2002218:	003ffa06 	br	2002204 <__reset+0xfdff9204>
 200221c:	00c00044 	movi	r3,1
 2002220:	0005883a 	mov	r2,zero
 2002224:	003ff106 	br	20021ec <__reset+0xfdff91ec>

02002228 <__divsi3>:
 2002228:	deffff04 	addi	sp,sp,-4
 200222c:	dfc00015 	stw	ra,0(sp)
 2002230:	20000916 	blt	r4,zero,2002258 <__divsi3+0x30>
 2002234:	000f883a 	mov	r7,zero
 2002238:	28000a16 	blt	r5,zero,2002264 <__divsi3+0x3c>
 200223c:	000d883a 	mov	r6,zero
 2002240:	20021b80 	call	20021b8 <udivmodsi4>
 2002244:	38000126 	beq	r7,zero,200224c <__divsi3+0x24>
 2002248:	0085c83a 	sub	r2,zero,r2
 200224c:	dfc00017 	ldw	ra,0(sp)
 2002250:	dec00104 	addi	sp,sp,4
 2002254:	f800283a 	ret
 2002258:	0109c83a 	sub	r4,zero,r4
 200225c:	01c00044 	movi	r7,1
 2002260:	283ff60e 	bge	r5,zero,200223c <__reset+0xfdff923c>
 2002264:	014bc83a 	sub	r5,zero,r5
 2002268:	39c0005c 	xori	r7,r7,1
 200226c:	003ff306 	br	200223c <__reset+0xfdff923c>

02002270 <__modsi3>:
 2002270:	20000316 	blt	r4,zero,2002280 <__modsi3+0x10>
 2002274:	28000c16 	blt	r5,zero,20022a8 <__modsi3+0x38>
 2002278:	01800044 	movi	r6,1
 200227c:	20021b81 	jmpi	20021b8 <udivmodsi4>
 2002280:	deffff04 	addi	sp,sp,-4
 2002284:	dfc00015 	stw	ra,0(sp)
 2002288:	0109c83a 	sub	r4,zero,r4
 200228c:	28000916 	blt	r5,zero,20022b4 <__modsi3+0x44>
 2002290:	01800044 	movi	r6,1
 2002294:	20021b80 	call	20021b8 <udivmodsi4>
 2002298:	0085c83a 	sub	r2,zero,r2
 200229c:	dfc00017 	ldw	ra,0(sp)
 20022a0:	dec00104 	addi	sp,sp,4
 20022a4:	f800283a 	ret
 20022a8:	014bc83a 	sub	r5,zero,r5
 20022ac:	01800044 	movi	r6,1
 20022b0:	20021b81 	jmpi	20021b8 <udivmodsi4>
 20022b4:	014bc83a 	sub	r5,zero,r5
 20022b8:	003ff506 	br	2002290 <__reset+0xfdff9290>

020022bc <__udivsi3>:
 20022bc:	000d883a 	mov	r6,zero
 20022c0:	20021b81 	jmpi	20021b8 <udivmodsi4>

020022c4 <__umodsi3>:
 20022c4:	01800044 	movi	r6,1
 20022c8:	20021b81 	jmpi	20021b8 <udivmodsi4>

020022cc <__divdf3>:
 20022cc:	defff004 	addi	sp,sp,-64
 20022d0:	dd000a15 	stw	r20,40(sp)
 20022d4:	2828d53a 	srli	r20,r5,20
 20022d8:	dd800c15 	stw	r22,48(sp)
 20022dc:	282cd7fa 	srli	r22,r5,31
 20022e0:	df000e15 	stw	fp,56(sp)
 20022e4:	dcc00915 	stw	r19,36(sp)
 20022e8:	dc800815 	stw	r18,32(sp)
 20022ec:	04c00434 	movhi	r19,16
 20022f0:	9cffffc4 	addi	r19,r19,-1
 20022f4:	dfc00f15 	stw	ra,60(sp)
 20022f8:	ddc00d15 	stw	r23,52(sp)
 20022fc:	dd400b15 	stw	r21,44(sp)
 2002300:	dc400715 	stw	r17,28(sp)
 2002304:	dc000615 	stw	r16,24(sp)
 2002308:	a501ffcc 	andi	r20,r20,2047
 200230c:	2025883a 	mov	r18,r4
 2002310:	2ce6703a 	and	r19,r5,r19
 2002314:	b7003fcc 	andi	fp,r22,255
 2002318:	a0006a26 	beq	r20,zero,20024c4 <__divdf3+0x1f8>
 200231c:	0081ffc4 	movi	r2,2047
 2002320:	2021883a 	mov	r16,r4
 2002324:	a0803726 	beq	r20,r2,2002404 <__divdf3+0x138>
 2002328:	98800434 	orhi	r2,r19,16
 200232c:	100490fa 	slli	r2,r2,3
 2002330:	2026d77a 	srli	r19,r4,29
 2002334:	202090fa 	slli	r16,r4,3
 2002338:	a53f0044 	addi	r20,r20,-1023
 200233c:	14e6b03a 	or	r19,r2,r19
 2002340:	002b883a 	mov	r21,zero
 2002344:	0013883a 	mov	r9,zero
 2002348:	3804d53a 	srli	r2,r7,20
 200234c:	382ed7fa 	srli	r23,r7,31
 2002350:	04400434 	movhi	r17,16
 2002354:	8c7fffc4 	addi	r17,r17,-1
 2002358:	1081ffcc 	andi	r2,r2,2047
 200235c:	3025883a 	mov	r18,r6
 2002360:	3c62703a 	and	r17,r7,r17
 2002364:	ba803fcc 	andi	r10,r23,255
 2002368:	10007326 	beq	r2,zero,2002538 <__divdf3+0x26c>
 200236c:	0101ffc4 	movi	r4,2047
 2002370:	11006b26 	beq	r2,r4,2002520 <__divdf3+0x254>
 2002374:	89000434 	orhi	r4,r17,16
 2002378:	200890fa 	slli	r4,r4,3
 200237c:	3022d77a 	srli	r17,r6,29
 2002380:	302490fa 	slli	r18,r6,3
 2002384:	10bf0044 	addi	r2,r2,-1023
 2002388:	2462b03a 	or	r17,r4,r17
 200238c:	000f883a 	mov	r7,zero
 2002390:	b5caf03a 	xor	r5,r22,r23
 2002394:	3d48b03a 	or	r4,r7,r21
 2002398:	00c003c4 	movi	r3,15
 200239c:	2811883a 	mov	r8,r5
 20023a0:	2d403fcc 	andi	r21,r5,255
 20023a4:	19009436 	bltu	r3,r4,20025f8 <__divdf3+0x32c>
 20023a8:	2109883a 	add	r4,r4,r4
 20023ac:	00c08034 	movhi	r3,512
 20023b0:	18c8f104 	addi	r3,r3,9156
 20023b4:	2109883a 	add	r4,r4,r4
 20023b8:	20c9883a 	add	r4,r4,r3
 20023bc:	20c00017 	ldw	r3,0(r4)
 20023c0:	1800683a 	jmp	r3
 20023c4:	020025f8 	rdprs	r8,zero,151
 20023c8:	02002460 	cmpeqi	r8,zero,145
 20023cc:	020025e8 	cmpgeui	r8,zero,151
 20023d0:	02002430 	cmpltui	r8,zero,144
 20023d4:	020025e8 	cmpgeui	r8,zero,151
 20023d8:	020025d0 	cmplti	r8,zero,151
 20023dc:	020025e8 	cmpgeui	r8,zero,151
 20023e0:	02002430 	cmpltui	r8,zero,144
 20023e4:	02002460 	cmpeqi	r8,zero,145
 20023e8:	02002460 	cmpeqi	r8,zero,145
 20023ec:	020025d0 	cmplti	r8,zero,151
 20023f0:	02002430 	cmpltui	r8,zero,144
 20023f4:	02002420 	cmpeqi	r8,zero,144
 20023f8:	02002420 	cmpeqi	r8,zero,144
 20023fc:	02002420 	cmpeqi	r8,zero,144
 2002400:	02002988 	cmpgei	r8,zero,166
 2002404:	9904b03a 	or	r2,r19,r4
 2002408:	10006e1e 	bne	r2,zero,20025c4 <__divdf3+0x2f8>
 200240c:	05400204 	movi	r21,8
 2002410:	0027883a 	mov	r19,zero
 2002414:	0021883a 	mov	r16,zero
 2002418:	02400084 	movi	r9,2
 200241c:	003fca06 	br	2002348 <__reset+0xfdff9348>
 2002420:	9823883a 	mov	r17,r19
 2002424:	8025883a 	mov	r18,r16
 2002428:	e015883a 	mov	r10,fp
 200242c:	480f883a 	mov	r7,r9
 2002430:	00800084 	movi	r2,2
 2002434:	38800926 	beq	r7,r2,200245c <__divdf3+0x190>
 2002438:	008000c4 	movi	r2,3
 200243c:	38820226 	beq	r7,r2,2002c48 <__divdf3+0x97c>
 2002440:	00800044 	movi	r2,1
 2002444:	3881b81e 	bne	r7,r2,2002b28 <__divdf3+0x85c>
 2002448:	5011883a 	mov	r8,r10
 200244c:	0005883a 	mov	r2,zero
 2002450:	0027883a 	mov	r19,zero
 2002454:	0021883a 	mov	r16,zero
 2002458:	00000506 	br	2002470 <__divdf3+0x1a4>
 200245c:	502b883a 	mov	r21,r10
 2002460:	aa00004c 	andi	r8,r21,1
 2002464:	0081ffc4 	movi	r2,2047
 2002468:	0027883a 	mov	r19,zero
 200246c:	0021883a 	mov	r16,zero
 2002470:	1004953a 	slli	r2,r2,20
 2002474:	42003fcc 	andi	r8,r8,255
 2002478:	401097fa 	slli	r8,r8,31
 200247c:	00c00434 	movhi	r3,16
 2002480:	18ffffc4 	addi	r3,r3,-1
 2002484:	98e6703a 	and	r19,r19,r3
 2002488:	9886b03a 	or	r3,r19,r2
 200248c:	1a06b03a 	or	r3,r3,r8
 2002490:	8005883a 	mov	r2,r16
 2002494:	dfc00f17 	ldw	ra,60(sp)
 2002498:	df000e17 	ldw	fp,56(sp)
 200249c:	ddc00d17 	ldw	r23,52(sp)
 20024a0:	dd800c17 	ldw	r22,48(sp)
 20024a4:	dd400b17 	ldw	r21,44(sp)
 20024a8:	dd000a17 	ldw	r20,40(sp)
 20024ac:	dcc00917 	ldw	r19,36(sp)
 20024b0:	dc800817 	ldw	r18,32(sp)
 20024b4:	dc400717 	ldw	r17,28(sp)
 20024b8:	dc000617 	ldw	r16,24(sp)
 20024bc:	dec01004 	addi	sp,sp,64
 20024c0:	f800283a 	ret
 20024c4:	9904b03a 	or	r2,r19,r4
 20024c8:	10003926 	beq	r2,zero,20025b0 <__divdf3+0x2e4>
 20024cc:	98015326 	beq	r19,zero,2002a1c <__divdf3+0x750>
 20024d0:	9809883a 	mov	r4,r19
 20024d4:	d9800215 	stw	r6,8(sp)
 20024d8:	d9c00515 	stw	r7,20(sp)
 20024dc:	20035b80 	call	20035b8 <__clzsi2>
 20024e0:	d9800217 	ldw	r6,8(sp)
 20024e4:	d9c00517 	ldw	r7,20(sp)
 20024e8:	00c009c4 	movi	r3,39
 20024ec:	18814716 	blt	r3,r2,2002a0c <__divdf3+0x740>
 20024f0:	01400a04 	movi	r5,40
 20024f4:	143ffe04 	addi	r16,r2,-8
 20024f8:	288bc83a 	sub	r5,r5,r2
 20024fc:	9c26983a 	sll	r19,r19,r16
 2002500:	914ad83a 	srl	r5,r18,r5
 2002504:	9420983a 	sll	r16,r18,r16
 2002508:	2ce6b03a 	or	r19,r5,r19
 200250c:	053f0344 	movi	r20,-1011
 2002510:	a0a9c83a 	sub	r20,r20,r2
 2002514:	002b883a 	mov	r21,zero
 2002518:	0013883a 	mov	r9,zero
 200251c:	003f8a06 	br	2002348 <__reset+0xfdff9348>
 2002520:	8988b03a 	or	r4,r17,r6
 2002524:	2000201e 	bne	r4,zero,20025a8 <__divdf3+0x2dc>
 2002528:	0023883a 	mov	r17,zero
 200252c:	0025883a 	mov	r18,zero
 2002530:	01c00084 	movi	r7,2
 2002534:	003f9606 	br	2002390 <__reset+0xfdff9390>
 2002538:	8988b03a 	or	r4,r17,r6
 200253c:	20001626 	beq	r4,zero,2002598 <__divdf3+0x2cc>
 2002540:	88012826 	beq	r17,zero,20029e4 <__divdf3+0x718>
 2002544:	8809883a 	mov	r4,r17
 2002548:	d9800215 	stw	r6,8(sp)
 200254c:	da400315 	stw	r9,12(sp)
 2002550:	da800415 	stw	r10,16(sp)
 2002554:	20035b80 	call	20035b8 <__clzsi2>
 2002558:	d9800217 	ldw	r6,8(sp)
 200255c:	da400317 	ldw	r9,12(sp)
 2002560:	da800417 	ldw	r10,16(sp)
 2002564:	010009c4 	movi	r4,39
 2002568:	20811a16 	blt	r4,r2,20029d4 <__divdf3+0x708>
 200256c:	01000a04 	movi	r4,40
 2002570:	14bffe04 	addi	r18,r2,-8
 2002574:	2089c83a 	sub	r4,r4,r2
 2002578:	8ca2983a 	sll	r17,r17,r18
 200257c:	3108d83a 	srl	r4,r6,r4
 2002580:	34a4983a 	sll	r18,r6,r18
 2002584:	2462b03a 	or	r17,r4,r17
 2002588:	013f0344 	movi	r4,-1011
 200258c:	2085c83a 	sub	r2,r4,r2
 2002590:	000f883a 	mov	r7,zero
 2002594:	003f7e06 	br	2002390 <__reset+0xfdff9390>
 2002598:	0023883a 	mov	r17,zero
 200259c:	0025883a 	mov	r18,zero
 20025a0:	01c00044 	movi	r7,1
 20025a4:	003f7a06 	br	2002390 <__reset+0xfdff9390>
 20025a8:	01c000c4 	movi	r7,3
 20025ac:	003f7806 	br	2002390 <__reset+0xfdff9390>
 20025b0:	05400104 	movi	r21,4
 20025b4:	0027883a 	mov	r19,zero
 20025b8:	0021883a 	mov	r16,zero
 20025bc:	02400044 	movi	r9,1
 20025c0:	003f6106 	br	2002348 <__reset+0xfdff9348>
 20025c4:	05400304 	movi	r21,12
 20025c8:	024000c4 	movi	r9,3
 20025cc:	003f5e06 	br	2002348 <__reset+0xfdff9348>
 20025d0:	0011883a 	mov	r8,zero
 20025d4:	04c00434 	movhi	r19,16
 20025d8:	9cffffc4 	addi	r19,r19,-1
 20025dc:	043fffc4 	movi	r16,-1
 20025e0:	0081ffc4 	movi	r2,2047
 20025e4:	003fa206 	br	2002470 <__reset+0xfdff9470>
 20025e8:	0005883a 	mov	r2,zero
 20025ec:	0027883a 	mov	r19,zero
 20025f0:	0021883a 	mov	r16,zero
 20025f4:	003f9e06 	br	2002470 <__reset+0xfdff9470>
 20025f8:	a085c83a 	sub	r2,r20,r2
 20025fc:	d8800115 	stw	r2,4(sp)
 2002600:	8cc11b36 	bltu	r17,r19,2002a70 <__divdf3+0x7a4>
 2002604:	9c411926 	beq	r19,r17,2002a6c <__divdf3+0x7a0>
 2002608:	d8c00117 	ldw	r3,4(sp)
 200260c:	002d883a 	mov	r22,zero
 2002610:	18ffffc4 	addi	r3,r3,-1
 2002614:	d8c00115 	stw	r3,4(sp)
 2002618:	9006d63a 	srli	r3,r18,24
 200261c:	8822923a 	slli	r17,r17,8
 2002620:	9024923a 	slli	r18,r18,8
 2002624:	9809883a 	mov	r4,r19
 2002628:	1c6eb03a 	or	r23,r3,r17
 200262c:	b828d43a 	srli	r20,r23,16
 2002630:	dc800015 	stw	r18,0(sp)
 2002634:	bcbfffcc 	andi	r18,r23,65535
 2002638:	a00b883a 	mov	r5,r20
 200263c:	20022bc0 	call	20022bc <__udivsi3>
 2002640:	1009883a 	mov	r4,r2
 2002644:	900b883a 	mov	r5,r18
 2002648:	1039883a 	mov	fp,r2
 200264c:	20036640 	call	2003664 <__mulsi3>
 2002650:	9809883a 	mov	r4,r19
 2002654:	a00b883a 	mov	r5,r20
 2002658:	1023883a 	mov	r17,r2
 200265c:	20022c40 	call	20022c4 <__umodsi3>
 2002660:	1004943a 	slli	r2,r2,16
 2002664:	8008d43a 	srli	r4,r16,16
 2002668:	110ab03a 	or	r5,r2,r4
 200266c:	2c40062e 	bgeu	r5,r17,2002688 <__divdf3+0x3bc>
 2002670:	2dcb883a 	add	r5,r5,r23
 2002674:	e0bfffc4 	addi	r2,fp,-1
 2002678:	2dc11136 	bltu	r5,r23,2002ac0 <__divdf3+0x7f4>
 200267c:	2c41102e 	bgeu	r5,r17,2002ac0 <__divdf3+0x7f4>
 2002680:	e73fff84 	addi	fp,fp,-2
 2002684:	2dcb883a 	add	r5,r5,r23
 2002688:	2c67c83a 	sub	r19,r5,r17
 200268c:	9809883a 	mov	r4,r19
 2002690:	a00b883a 	mov	r5,r20
 2002694:	20022bc0 	call	20022bc <__udivsi3>
 2002698:	1009883a 	mov	r4,r2
 200269c:	900b883a 	mov	r5,r18
 20026a0:	1023883a 	mov	r17,r2
 20026a4:	20036640 	call	2003664 <__mulsi3>
 20026a8:	9809883a 	mov	r4,r19
 20026ac:	a00b883a 	mov	r5,r20
 20026b0:	d8800215 	stw	r2,8(sp)
 20026b4:	20022c40 	call	20022c4 <__umodsi3>
 20026b8:	1004943a 	slli	r2,r2,16
 20026bc:	da000217 	ldw	r8,8(sp)
 20026c0:	843fffcc 	andi	r16,r16,65535
 20026c4:	140eb03a 	or	r7,r2,r16
 20026c8:	3a00062e 	bgeu	r7,r8,20026e4 <__divdf3+0x418>
 20026cc:	3dcf883a 	add	r7,r7,r23
 20026d0:	88bfffc4 	addi	r2,r17,-1
 20026d4:	3dc0f836 	bltu	r7,r23,2002ab8 <__divdf3+0x7ec>
 20026d8:	3a00f72e 	bgeu	r7,r8,2002ab8 <__divdf3+0x7ec>
 20026dc:	8c7fff84 	addi	r17,r17,-2
 20026e0:	3dcf883a 	add	r7,r7,r23
 20026e4:	e004943a 	slli	r2,fp,16
 20026e8:	d8c00017 	ldw	r3,0(sp)
 20026ec:	3a0fc83a 	sub	r7,r7,r8
 20026f0:	88a2b03a 	or	r17,r17,r2
 20026f4:	1f3fffcc 	andi	fp,r3,65535
 20026f8:	8a7fffcc 	andi	r9,r17,65535
 20026fc:	4809883a 	mov	r4,r9
 2002700:	e00b883a 	mov	r5,fp
 2002704:	1826d43a 	srli	r19,r3,16
 2002708:	d9c00515 	stw	r7,20(sp)
 200270c:	da400315 	stw	r9,12(sp)
 2002710:	20036640 	call	2003664 <__mulsi3>
 2002714:	da400317 	ldw	r9,12(sp)
 2002718:	8820d43a 	srli	r16,r17,16
 200271c:	980b883a 	mov	r5,r19
 2002720:	4809883a 	mov	r4,r9
 2002724:	d8800215 	stw	r2,8(sp)
 2002728:	20036640 	call	2003664 <__mulsi3>
 200272c:	8009883a 	mov	r4,r16
 2002730:	e00b883a 	mov	r5,fp
 2002734:	d8800415 	stw	r2,16(sp)
 2002738:	20036640 	call	2003664 <__mulsi3>
 200273c:	8009883a 	mov	r4,r16
 2002740:	980b883a 	mov	r5,r19
 2002744:	d8800315 	stw	r2,12(sp)
 2002748:	20036640 	call	2003664 <__mulsi3>
 200274c:	da000217 	ldw	r8,8(sp)
 2002750:	da400317 	ldw	r9,12(sp)
 2002754:	da800417 	ldw	r10,16(sp)
 2002758:	100b883a 	mov	r5,r2
 200275c:	4004d43a 	srli	r2,r8,16
 2002760:	4a89883a 	add	r4,r9,r10
 2002764:	d9c00517 	ldw	r7,20(sp)
 2002768:	2089883a 	add	r4,r4,r2
 200276c:	2240022e 	bgeu	r4,r9,2002778 <__divdf3+0x4ac>
 2002770:	00800074 	movhi	r2,1
 2002774:	288b883a 	add	r5,r5,r2
 2002778:	2004d43a 	srli	r2,r4,16
 200277c:	2020943a 	slli	r16,r4,16
 2002780:	423fffcc 	andi	r8,r8,65535
 2002784:	288b883a 	add	r5,r5,r2
 2002788:	8221883a 	add	r16,r16,r8
 200278c:	3940ab36 	bltu	r7,r5,2002a3c <__divdf3+0x770>
 2002790:	3940a926 	beq	r7,r5,2002a38 <__divdf3+0x76c>
 2002794:	394bc83a 	sub	r5,r7,r5
 2002798:	b421c83a 	sub	r16,r22,r16
 200279c:	b42d803a 	cmpltu	r22,r22,r16
 20027a0:	2dadc83a 	sub	r22,r5,r22
 20027a4:	b5c0da26 	beq	r22,r23,2002b10 <__divdf3+0x844>
 20027a8:	b009883a 	mov	r4,r22
 20027ac:	a00b883a 	mov	r5,r20
 20027b0:	20022bc0 	call	20022bc <__udivsi3>
 20027b4:	1009883a 	mov	r4,r2
 20027b8:	900b883a 	mov	r5,r18
 20027bc:	d8800215 	stw	r2,8(sp)
 20027c0:	20036640 	call	2003664 <__mulsi3>
 20027c4:	b009883a 	mov	r4,r22
 20027c8:	a00b883a 	mov	r5,r20
 20027cc:	d8800515 	stw	r2,20(sp)
 20027d0:	20022c40 	call	20022c4 <__umodsi3>
 20027d4:	1004943a 	slli	r2,r2,16
 20027d8:	8008d43a 	srli	r4,r16,16
 20027dc:	d9c00517 	ldw	r7,20(sp)
 20027e0:	da000217 	ldw	r8,8(sp)
 20027e4:	110ab03a 	or	r5,r2,r4
 20027e8:	29c0062e 	bgeu	r5,r7,2002804 <__divdf3+0x538>
 20027ec:	2dcb883a 	add	r5,r5,r23
 20027f0:	40bfffc4 	addi	r2,r8,-1
 20027f4:	2dc0ca36 	bltu	r5,r23,2002b20 <__divdf3+0x854>
 20027f8:	29c0c92e 	bgeu	r5,r7,2002b20 <__divdf3+0x854>
 20027fc:	423fff84 	addi	r8,r8,-2
 2002800:	2dcb883a 	add	r5,r5,r23
 2002804:	29cfc83a 	sub	r7,r5,r7
 2002808:	3809883a 	mov	r4,r7
 200280c:	a00b883a 	mov	r5,r20
 2002810:	da000215 	stw	r8,8(sp)
 2002814:	d9c00515 	stw	r7,20(sp)
 2002818:	20022bc0 	call	20022bc <__udivsi3>
 200281c:	900b883a 	mov	r5,r18
 2002820:	1009883a 	mov	r4,r2
 2002824:	102d883a 	mov	r22,r2
 2002828:	20036640 	call	2003664 <__mulsi3>
 200282c:	d9c00517 	ldw	r7,20(sp)
 2002830:	a00b883a 	mov	r5,r20
 2002834:	1025883a 	mov	r18,r2
 2002838:	3809883a 	mov	r4,r7
 200283c:	20022c40 	call	20022c4 <__umodsi3>
 2002840:	1004943a 	slli	r2,r2,16
 2002844:	843fffcc 	andi	r16,r16,65535
 2002848:	da000217 	ldw	r8,8(sp)
 200284c:	140eb03a 	or	r7,r2,r16
 2002850:	3c80062e 	bgeu	r7,r18,200286c <__divdf3+0x5a0>
 2002854:	3dcf883a 	add	r7,r7,r23
 2002858:	b0bfffc4 	addi	r2,r22,-1
 200285c:	3dc0ae36 	bltu	r7,r23,2002b18 <__divdf3+0x84c>
 2002860:	3c80ad2e 	bgeu	r7,r18,2002b18 <__divdf3+0x84c>
 2002864:	b5bfff84 	addi	r22,r22,-2
 2002868:	3dcf883a 	add	r7,r7,r23
 200286c:	4010943a 	slli	r8,r8,16
 2002870:	3ca9c83a 	sub	r20,r7,r18
 2002874:	e00b883a 	mov	r5,fp
 2002878:	b224b03a 	or	r18,r22,r8
 200287c:	91ffffcc 	andi	r7,r18,65535
 2002880:	3809883a 	mov	r4,r7
 2002884:	d9c00515 	stw	r7,20(sp)
 2002888:	20036640 	call	2003664 <__mulsi3>
 200288c:	d9c00517 	ldw	r7,20(sp)
 2002890:	9020d43a 	srli	r16,r18,16
 2002894:	980b883a 	mov	r5,r19
 2002898:	3809883a 	mov	r4,r7
 200289c:	102d883a 	mov	r22,r2
 20028a0:	20036640 	call	2003664 <__mulsi3>
 20028a4:	e00b883a 	mov	r5,fp
 20028a8:	8009883a 	mov	r4,r16
 20028ac:	d8800515 	stw	r2,20(sp)
 20028b0:	20036640 	call	2003664 <__mulsi3>
 20028b4:	8009883a 	mov	r4,r16
 20028b8:	980b883a 	mov	r5,r19
 20028bc:	1039883a 	mov	fp,r2
 20028c0:	20036640 	call	2003664 <__mulsi3>
 20028c4:	d9c00517 	ldw	r7,20(sp)
 20028c8:	100b883a 	mov	r5,r2
 20028cc:	b004d43a 	srli	r2,r22,16
 20028d0:	e1c9883a 	add	r4,fp,r7
 20028d4:	2089883a 	add	r4,r4,r2
 20028d8:	2700022e 	bgeu	r4,fp,20028e4 <__divdf3+0x618>
 20028dc:	00800074 	movhi	r2,1
 20028e0:	288b883a 	add	r5,r5,r2
 20028e4:	2004d43a 	srli	r2,r4,16
 20028e8:	2008943a 	slli	r4,r4,16
 20028ec:	b5bfffcc 	andi	r22,r22,65535
 20028f0:	288b883a 	add	r5,r5,r2
 20028f4:	25ad883a 	add	r22,r4,r22
 20028f8:	a140632e 	bgeu	r20,r5,2002a88 <__divdf3+0x7bc>
 20028fc:	a5e9883a 	add	r20,r20,r23
 2002900:	90bfffc4 	addi	r2,r18,-1
 2002904:	a5c0702e 	bgeu	r20,r23,2002ac8 <__divdf3+0x7fc>
 2002908:	1025883a 	mov	r18,r2
 200290c:	a1406126 	beq	r20,r5,2002a94 <__divdf3+0x7c8>
 2002910:	94800054 	ori	r18,r18,1
 2002914:	d8c00117 	ldw	r3,4(sp)
 2002918:	1880ffc4 	addi	r2,r3,1023
 200291c:	0080720e 	bge	zero,r2,2002ae8 <__divdf3+0x81c>
 2002920:	90c001cc 	andi	r3,r18,7
 2002924:	18000726 	beq	r3,zero,2002944 <__divdf3+0x678>
 2002928:	910003cc 	andi	r4,r18,15
 200292c:	00c00104 	movi	r3,4
 2002930:	20c00426 	beq	r4,r3,2002944 <__divdf3+0x678>
 2002934:	90c7883a 	add	r3,r18,r3
 2002938:	1ca5803a 	cmpltu	r18,r3,r18
 200293c:	8ca3883a 	add	r17,r17,r18
 2002940:	1825883a 	mov	r18,r3
 2002944:	88c0402c 	andhi	r3,r17,256
 2002948:	18000526 	beq	r3,zero,2002960 <__divdf3+0x694>
 200294c:	d8c00117 	ldw	r3,4(sp)
 2002950:	00bfc034 	movhi	r2,65280
 2002954:	10bfffc4 	addi	r2,r2,-1
 2002958:	88a2703a 	and	r17,r17,r2
 200295c:	18810004 	addi	r2,r3,1024
 2002960:	00c1ff84 	movi	r3,2046
 2002964:	18bebe16 	blt	r3,r2,2002460 <__reset+0xfdff9460>
 2002968:	8820977a 	slli	r16,r17,29
 200296c:	9024d0fa 	srli	r18,r18,3
 2002970:	8822927a 	slli	r17,r17,9
 2002974:	1081ffcc 	andi	r2,r2,2047
 2002978:	84a0b03a 	or	r16,r16,r18
 200297c:	8826d33a 	srli	r19,r17,12
 2002980:	aa00004c 	andi	r8,r21,1
 2002984:	003eba06 	br	2002470 <__reset+0xfdff9470>
 2002988:	9880022c 	andhi	r2,r19,8
 200298c:	10000a26 	beq	r2,zero,20029b8 <__divdf3+0x6ec>
 2002990:	8880022c 	andhi	r2,r17,8
 2002994:	1000081e 	bne	r2,zero,20029b8 <__divdf3+0x6ec>
 2002998:	00800434 	movhi	r2,16
 200299c:	10bfffc4 	addi	r2,r2,-1
 20029a0:	8cc00234 	orhi	r19,r17,8
 20029a4:	98a6703a 	and	r19,r19,r2
 20029a8:	b811883a 	mov	r8,r23
 20029ac:	9021883a 	mov	r16,r18
 20029b0:	0081ffc4 	movi	r2,2047
 20029b4:	003eae06 	br	2002470 <__reset+0xfdff9470>
 20029b8:	00800434 	movhi	r2,16
 20029bc:	10bfffc4 	addi	r2,r2,-1
 20029c0:	9cc00234 	orhi	r19,r19,8
 20029c4:	98a6703a 	and	r19,r19,r2
 20029c8:	b011883a 	mov	r8,r22
 20029cc:	0081ffc4 	movi	r2,2047
 20029d0:	003ea706 	br	2002470 <__reset+0xfdff9470>
 20029d4:	147ff604 	addi	r17,r2,-40
 20029d8:	3462983a 	sll	r17,r6,r17
 20029dc:	0025883a 	mov	r18,zero
 20029e0:	003ee906 	br	2002588 <__reset+0xfdff9588>
 20029e4:	3009883a 	mov	r4,r6
 20029e8:	d9800215 	stw	r6,8(sp)
 20029ec:	da400315 	stw	r9,12(sp)
 20029f0:	da800415 	stw	r10,16(sp)
 20029f4:	20035b80 	call	20035b8 <__clzsi2>
 20029f8:	10800804 	addi	r2,r2,32
 20029fc:	da800417 	ldw	r10,16(sp)
 2002a00:	da400317 	ldw	r9,12(sp)
 2002a04:	d9800217 	ldw	r6,8(sp)
 2002a08:	003ed606 	br	2002564 <__reset+0xfdff9564>
 2002a0c:	14fff604 	addi	r19,r2,-40
 2002a10:	94e6983a 	sll	r19,r18,r19
 2002a14:	0021883a 	mov	r16,zero
 2002a18:	003ebc06 	br	200250c <__reset+0xfdff950c>
 2002a1c:	d9800215 	stw	r6,8(sp)
 2002a20:	d9c00515 	stw	r7,20(sp)
 2002a24:	20035b80 	call	20035b8 <__clzsi2>
 2002a28:	10800804 	addi	r2,r2,32
 2002a2c:	d9c00517 	ldw	r7,20(sp)
 2002a30:	d9800217 	ldw	r6,8(sp)
 2002a34:	003eac06 	br	20024e8 <__reset+0xfdff94e8>
 2002a38:	b400292e 	bgeu	r22,r16,2002ae0 <__divdf3+0x814>
 2002a3c:	d8c00017 	ldw	r3,0(sp)
 2002a40:	b0ed883a 	add	r22,r22,r3
 2002a44:	b0c5803a 	cmpltu	r2,r22,r3
 2002a48:	15c5883a 	add	r2,r2,r23
 2002a4c:	11cf883a 	add	r7,r2,r7
 2002a50:	88bfffc4 	addi	r2,r17,-1
 2002a54:	b9c0122e 	bgeu	r23,r7,2002aa0 <__divdf3+0x7d4>
 2002a58:	39405036 	bltu	r7,r5,2002b9c <__divdf3+0x8d0>
 2002a5c:	29c01e26 	beq	r5,r7,2002ad8 <__divdf3+0x80c>
 2002a60:	394bc83a 	sub	r5,r7,r5
 2002a64:	1023883a 	mov	r17,r2
 2002a68:	003f4b06 	br	2002798 <__reset+0xfdff9798>
 2002a6c:	943ee62e 	bgeu	r18,r16,2002608 <__reset+0xfdff9608>
 2002a70:	980497fa 	slli	r2,r19,31
 2002a74:	8006d07a 	srli	r3,r16,1
 2002a78:	802c97fa 	slli	r22,r16,31
 2002a7c:	9826d07a 	srli	r19,r19,1
 2002a80:	18a0b03a 	or	r16,r3,r2
 2002a84:	003ee406 	br	2002618 <__reset+0xfdff9618>
 2002a88:	a17fa11e 	bne	r20,r5,2002910 <__reset+0xfdff9910>
 2002a8c:	b03f9b1e 	bne	r22,zero,20028fc <__reset+0xfdff98fc>
 2002a90:	d8000015 	stw	zero,0(sp)
 2002a94:	d8c00017 	ldw	r3,0(sp)
 2002a98:	1dbf9d1e 	bne	r3,r22,2002910 <__reset+0xfdff9910>
 2002a9c:	003f9d06 	br	2002914 <__reset+0xfdff9914>
 2002aa0:	3dffef1e 	bne	r7,r23,2002a60 <__reset+0xfdff9a60>
 2002aa4:	d8c00017 	ldw	r3,0(sp)
 2002aa8:	b0ffeb2e 	bgeu	r22,r3,2002a58 <__reset+0xfdff9a58>
 2002aac:	b94bc83a 	sub	r5,r23,r5
 2002ab0:	1023883a 	mov	r17,r2
 2002ab4:	003f3806 	br	2002798 <__reset+0xfdff9798>
 2002ab8:	1023883a 	mov	r17,r2
 2002abc:	003f0906 	br	20026e4 <__reset+0xfdff96e4>
 2002ac0:	1039883a 	mov	fp,r2
 2002ac4:	003ef006 	br	2002688 <__reset+0xfdff9688>
 2002ac8:	a1403b36 	bltu	r20,r5,2002bb8 <__divdf3+0x8ec>
 2002acc:	2d005826 	beq	r5,r20,2002c30 <__divdf3+0x964>
 2002ad0:	1025883a 	mov	r18,r2
 2002ad4:	003f8e06 	br	2002910 <__reset+0xfdff9910>
 2002ad8:	b4003036 	bltu	r22,r16,2002b9c <__divdf3+0x8d0>
 2002adc:	1023883a 	mov	r17,r2
 2002ae0:	000b883a 	mov	r5,zero
 2002ae4:	003f2c06 	br	2002798 <__reset+0xfdff9798>
 2002ae8:	d8c00117 	ldw	r3,4(sp)
 2002aec:	00bf0084 	movi	r2,-1022
 2002af0:	10c5c83a 	sub	r2,r2,r3
 2002af4:	00c00e04 	movi	r3,56
 2002af8:	18800d0e 	bge	r3,r2,2002b30 <__divdf3+0x864>
 2002afc:	aa00004c 	andi	r8,r21,1
 2002b00:	0005883a 	mov	r2,zero
 2002b04:	0027883a 	mov	r19,zero
 2002b08:	0021883a 	mov	r16,zero
 2002b0c:	003e5806 	br	2002470 <__reset+0xfdff9470>
 2002b10:	04bfffc4 	movi	r18,-1
 2002b14:	003f7f06 	br	2002914 <__reset+0xfdff9914>
 2002b18:	102d883a 	mov	r22,r2
 2002b1c:	003f5306 	br	200286c <__reset+0xfdff986c>
 2002b20:	1011883a 	mov	r8,r2
 2002b24:	003f3706 	br	2002804 <__reset+0xfdff9804>
 2002b28:	502b883a 	mov	r21,r10
 2002b2c:	003f7906 	br	2002914 <__reset+0xfdff9914>
 2002b30:	00c007c4 	movi	r3,31
 2002b34:	18802816 	blt	r3,r2,2002bd8 <__divdf3+0x90c>
 2002b38:	d9000117 	ldw	r4,4(sp)
 2002b3c:	908ad83a 	srl	r5,r18,r2
 2002b40:	8884d83a 	srl	r2,r17,r2
 2002b44:	20c10784 	addi	r3,r4,1054
 2002b48:	88c8983a 	sll	r4,r17,r3
 2002b4c:	90c6983a 	sll	r3,r18,r3
 2002b50:	2908b03a 	or	r4,r5,r4
 2002b54:	1806c03a 	cmpne	r3,r3,zero
 2002b58:	20c6b03a 	or	r3,r4,r3
 2002b5c:	190001cc 	andi	r4,r3,7
 2002b60:	20000726 	beq	r4,zero,2002b80 <__divdf3+0x8b4>
 2002b64:	194003cc 	andi	r5,r3,15
 2002b68:	01000104 	movi	r4,4
 2002b6c:	29000426 	beq	r5,r4,2002b80 <__divdf3+0x8b4>
 2002b70:	1909883a 	add	r4,r3,r4
 2002b74:	20c7803a 	cmpltu	r3,r4,r3
 2002b78:	10c5883a 	add	r2,r2,r3
 2002b7c:	2007883a 	mov	r3,r4
 2002b80:	1100202c 	andhi	r4,r2,128
 2002b84:	20002226 	beq	r4,zero,2002c10 <__divdf3+0x944>
 2002b88:	aa00004c 	andi	r8,r21,1
 2002b8c:	00800044 	movi	r2,1
 2002b90:	0027883a 	mov	r19,zero
 2002b94:	0021883a 	mov	r16,zero
 2002b98:	003e3506 	br	2002470 <__reset+0xfdff9470>
 2002b9c:	d8c00017 	ldw	r3,0(sp)
 2002ba0:	8c7fff84 	addi	r17,r17,-2
 2002ba4:	b0ed883a 	add	r22,r22,r3
 2002ba8:	b0c5803a 	cmpltu	r2,r22,r3
 2002bac:	15c5883a 	add	r2,r2,r23
 2002bb0:	11cf883a 	add	r7,r2,r7
 2002bb4:	003ef706 	br	2002794 <__reset+0xfdff9794>
 2002bb8:	d8c00017 	ldw	r3,0(sp)
 2002bbc:	18c9883a 	add	r4,r3,r3
 2002bc0:	20c5803a 	cmpltu	r2,r4,r3
 2002bc4:	15c7883a 	add	r3,r2,r23
 2002bc8:	a0e9883a 	add	r20,r20,r3
 2002bcc:	90bfff84 	addi	r2,r18,-2
 2002bd0:	d9000015 	stw	r4,0(sp)
 2002bd4:	003f4c06 	br	2002908 <__reset+0xfdff9908>
 2002bd8:	d9000117 	ldw	r4,4(sp)
 2002bdc:	00fef884 	movi	r3,-1054
 2002be0:	1907c83a 	sub	r3,r3,r4
 2002be4:	01000804 	movi	r4,32
 2002be8:	88c6d83a 	srl	r3,r17,r3
 2002bec:	11001426 	beq	r2,r4,2002c40 <__divdf3+0x974>
 2002bf0:	d9000117 	ldw	r4,4(sp)
 2002bf4:	20810f84 	addi	r2,r4,1086
 2002bf8:	8884983a 	sll	r2,r17,r2
 2002bfc:	1484b03a 	or	r2,r2,r18
 2002c00:	1004c03a 	cmpne	r2,r2,zero
 2002c04:	10c6b03a 	or	r3,r2,r3
 2002c08:	0005883a 	mov	r2,zero
 2002c0c:	003fd306 	br	2002b5c <__reset+0xfdff9b5c>
 2002c10:	1020977a 	slli	r16,r2,29
 2002c14:	1806d0fa 	srli	r3,r3,3
 2002c18:	1004927a 	slli	r2,r2,9
 2002c1c:	aa00004c 	andi	r8,r21,1
 2002c20:	80e0b03a 	or	r16,r16,r3
 2002c24:	1026d33a 	srli	r19,r2,12
 2002c28:	0005883a 	mov	r2,zero
 2002c2c:	003e1006 	br	2002470 <__reset+0xfdff9470>
 2002c30:	d8c00017 	ldw	r3,0(sp)
 2002c34:	1dbfe036 	bltu	r3,r22,2002bb8 <__reset+0xfdff9bb8>
 2002c38:	1025883a 	mov	r18,r2
 2002c3c:	003f9506 	br	2002a94 <__reset+0xfdff9a94>
 2002c40:	0005883a 	mov	r2,zero
 2002c44:	003fed06 	br	2002bfc <__reset+0xfdff9bfc>
 2002c48:	00800434 	movhi	r2,16
 2002c4c:	10bfffc4 	addi	r2,r2,-1
 2002c50:	8cc00234 	orhi	r19,r17,8
 2002c54:	98a6703a 	and	r19,r19,r2
 2002c58:	5011883a 	mov	r8,r10
 2002c5c:	9021883a 	mov	r16,r18
 2002c60:	0081ffc4 	movi	r2,2047
 2002c64:	003e0206 	br	2002470 <__reset+0xfdff9470>

02002c68 <__muldf3>:
 2002c68:	deffee04 	addi	sp,sp,-72
 2002c6c:	dc400915 	stw	r17,36(sp)
 2002c70:	2822d53a 	srli	r17,r5,20
 2002c74:	dc000815 	stw	r16,32(sp)
 2002c78:	2820d7fa 	srli	r16,r5,31
 2002c7c:	df001015 	stw	fp,64(sp)
 2002c80:	dd000c15 	stw	r20,48(sp)
 2002c84:	dcc00b15 	stw	r19,44(sp)
 2002c88:	dfc01115 	stw	ra,68(sp)
 2002c8c:	04c00434 	movhi	r19,16
 2002c90:	9cffffc4 	addi	r19,r19,-1
 2002c94:	ddc00f15 	stw	r23,60(sp)
 2002c98:	dd800e15 	stw	r22,56(sp)
 2002c9c:	dd400d15 	stw	r21,52(sp)
 2002ca0:	dc800a15 	stw	r18,40(sp)
 2002ca4:	8c41ffcc 	andi	r17,r17,2047
 2002ca8:	2029883a 	mov	r20,r4
 2002cac:	2ce6703a 	and	r19,r5,r19
 2002cb0:	8039883a 	mov	fp,r16
 2002cb4:	82003fcc 	andi	r8,r16,255
 2002cb8:	88005d26 	beq	r17,zero,2002e30 <__muldf3+0x1c8>
 2002cbc:	0081ffc4 	movi	r2,2047
 2002cc0:	202f883a 	mov	r23,r4
 2002cc4:	88803326 	beq	r17,r2,2002d94 <__muldf3+0x12c>
 2002cc8:	98800434 	orhi	r2,r19,16
 2002ccc:	100490fa 	slli	r2,r2,3
 2002cd0:	2026d77a 	srli	r19,r4,29
 2002cd4:	202e90fa 	slli	r23,r4,3
 2002cd8:	8c7f0044 	addi	r17,r17,-1023
 2002cdc:	14e6b03a 	or	r19,r2,r19
 2002ce0:	002d883a 	mov	r22,zero
 2002ce4:	000b883a 	mov	r5,zero
 2002ce8:	3804d53a 	srli	r2,r7,20
 2002cec:	3828d7fa 	srli	r20,r7,31
 2002cf0:	04800434 	movhi	r18,16
 2002cf4:	94bfffc4 	addi	r18,r18,-1
 2002cf8:	1081ffcc 	andi	r2,r2,2047
 2002cfc:	302b883a 	mov	r21,r6
 2002d00:	3ca4703a 	and	r18,r7,r18
 2002d04:	a2403fcc 	andi	r9,r20,255
 2002d08:	10006826 	beq	r2,zero,2002eac <__muldf3+0x244>
 2002d0c:	00c1ffc4 	movi	r3,2047
 2002d10:	10c06026 	beq	r2,r3,2002e94 <__muldf3+0x22c>
 2002d14:	90c00434 	orhi	r3,r18,16
 2002d18:	180690fa 	slli	r3,r3,3
 2002d1c:	3024d77a 	srli	r18,r6,29
 2002d20:	302a90fa 	slli	r21,r6,3
 2002d24:	10bf0044 	addi	r2,r2,-1023
 2002d28:	1ca4b03a 	or	r18,r3,r18
 2002d2c:	0007883a 	mov	r3,zero
 2002d30:	1d88b03a 	or	r4,r3,r22
 2002d34:	2109883a 	add	r4,r4,r4
 2002d38:	2109883a 	add	r4,r4,r4
 2002d3c:	01808034 	movhi	r6,512
 2002d40:	318b5504 	addi	r6,r6,11604
 2002d44:	2189883a 	add	r4,r4,r6
 2002d48:	21000017 	ldw	r4,0(r4)
 2002d4c:	852cf03a 	xor	r22,r16,r20
 2002d50:	2000683a 	jmp	r4
 2002d54:	02002f9c 	xori	r8,zero,190
 2002d58:	02002f8c 	andi	r8,zero,190
 2002d5c:	02002f8c 	andi	r8,zero,190
 2002d60:	02002f78 	rdprs	r8,zero,189
 2002d64:	02002db4 	movhi	r8,182
 2002d68:	02002db4 	movhi	r8,182
 2002d6c:	02002f60 	cmpeqi	r8,zero,189
 2002d70:	02002f78 	rdprs	r8,zero,189
 2002d74:	02002db4 	movhi	r8,182
 2002d78:	02002f60 	cmpeqi	r8,zero,189
 2002d7c:	02002db4 	movhi	r8,182
 2002d80:	02002f78 	rdprs	r8,zero,189
 2002d84:	02002db0 	cmpltui	r8,zero,182
 2002d88:	02002db0 	cmpltui	r8,zero,182
 2002d8c:	02002db0 	cmpltui	r8,zero,182
 2002d90:	020032b4 	movhi	r8,202
 2002d94:	9904b03a 	or	r2,r19,r4
 2002d98:	10006e1e 	bne	r2,zero,2002f54 <__muldf3+0x2ec>
 2002d9c:	05800204 	movi	r22,8
 2002da0:	0027883a 	mov	r19,zero
 2002da4:	002f883a 	mov	r23,zero
 2002da8:	01400084 	movi	r5,2
 2002dac:	003fce06 	br	2002ce8 <__reset+0xfdff9ce8>
 2002db0:	402d883a 	mov	r22,r8
 2002db4:	00800084 	movi	r2,2
 2002db8:	28805626 	beq	r5,r2,2002f14 <__muldf3+0x2ac>
 2002dbc:	008000c4 	movi	r2,3
 2002dc0:	2881a226 	beq	r5,r2,200344c <__muldf3+0x7e4>
 2002dc4:	00800044 	movi	r2,1
 2002dc8:	28811d1e 	bne	r5,r2,2003240 <__muldf3+0x5d8>
 2002dcc:	b039883a 	mov	fp,r22
 2002dd0:	0005883a 	mov	r2,zero
 2002dd4:	0027883a 	mov	r19,zero
 2002dd8:	002f883a 	mov	r23,zero
 2002ddc:	1004953a 	slli	r2,r2,20
 2002de0:	e7003fcc 	andi	fp,fp,255
 2002de4:	e03897fa 	slli	fp,fp,31
 2002de8:	00c00434 	movhi	r3,16
 2002dec:	18ffffc4 	addi	r3,r3,-1
 2002df0:	98e6703a 	and	r19,r19,r3
 2002df4:	9886b03a 	or	r3,r19,r2
 2002df8:	1f06b03a 	or	r3,r3,fp
 2002dfc:	b805883a 	mov	r2,r23
 2002e00:	dfc01117 	ldw	ra,68(sp)
 2002e04:	df001017 	ldw	fp,64(sp)
 2002e08:	ddc00f17 	ldw	r23,60(sp)
 2002e0c:	dd800e17 	ldw	r22,56(sp)
 2002e10:	dd400d17 	ldw	r21,52(sp)
 2002e14:	dd000c17 	ldw	r20,48(sp)
 2002e18:	dcc00b17 	ldw	r19,44(sp)
 2002e1c:	dc800a17 	ldw	r18,40(sp)
 2002e20:	dc400917 	ldw	r17,36(sp)
 2002e24:	dc000817 	ldw	r16,32(sp)
 2002e28:	dec01204 	addi	sp,sp,72
 2002e2c:	f800283a 	ret
 2002e30:	9904b03a 	or	r2,r19,r4
 2002e34:	10004226 	beq	r2,zero,2002f40 <__muldf3+0x2d8>
 2002e38:	98013426 	beq	r19,zero,200330c <__muldf3+0x6a4>
 2002e3c:	9809883a 	mov	r4,r19
 2002e40:	d9800515 	stw	r6,20(sp)
 2002e44:	d9c00415 	stw	r7,16(sp)
 2002e48:	da000615 	stw	r8,24(sp)
 2002e4c:	20035b80 	call	20035b8 <__clzsi2>
 2002e50:	d9800517 	ldw	r6,20(sp)
 2002e54:	d9c00417 	ldw	r7,16(sp)
 2002e58:	da000617 	ldw	r8,24(sp)
 2002e5c:	00c009c4 	movi	r3,39
 2002e60:	18812616 	blt	r3,r2,20032fc <__muldf3+0x694>
 2002e64:	00c00a04 	movi	r3,40
 2002e68:	15fffe04 	addi	r23,r2,-8
 2002e6c:	1887c83a 	sub	r3,r3,r2
 2002e70:	9de6983a 	sll	r19,r19,r23
 2002e74:	a0c6d83a 	srl	r3,r20,r3
 2002e78:	a5ee983a 	sll	r23,r20,r23
 2002e7c:	1ce6b03a 	or	r19,r3,r19
 2002e80:	047f0344 	movi	r17,-1011
 2002e84:	88a3c83a 	sub	r17,r17,r2
 2002e88:	002d883a 	mov	r22,zero
 2002e8c:	000b883a 	mov	r5,zero
 2002e90:	003f9506 	br	2002ce8 <__reset+0xfdff9ce8>
 2002e94:	9186b03a 	or	r3,r18,r6
 2002e98:	1800271e 	bne	r3,zero,2002f38 <__muldf3+0x2d0>
 2002e9c:	0025883a 	mov	r18,zero
 2002ea0:	002b883a 	mov	r21,zero
 2002ea4:	00c00084 	movi	r3,2
 2002ea8:	003fa106 	br	2002d30 <__reset+0xfdff9d30>
 2002eac:	9186b03a 	or	r3,r18,r6
 2002eb0:	18001d26 	beq	r3,zero,2002f28 <__muldf3+0x2c0>
 2002eb4:	90012226 	beq	r18,zero,2003340 <__muldf3+0x6d8>
 2002eb8:	9009883a 	mov	r4,r18
 2002ebc:	d9400415 	stw	r5,16(sp)
 2002ec0:	d9800515 	stw	r6,20(sp)
 2002ec4:	da000615 	stw	r8,24(sp)
 2002ec8:	da400715 	stw	r9,28(sp)
 2002ecc:	20035b80 	call	20035b8 <__clzsi2>
 2002ed0:	d9400417 	ldw	r5,16(sp)
 2002ed4:	d9800517 	ldw	r6,20(sp)
 2002ed8:	da000617 	ldw	r8,24(sp)
 2002edc:	da400717 	ldw	r9,28(sp)
 2002ee0:	00c009c4 	movi	r3,39
 2002ee4:	18811216 	blt	r3,r2,2003330 <__muldf3+0x6c8>
 2002ee8:	01c00a04 	movi	r7,40
 2002eec:	157ffe04 	addi	r21,r2,-8
 2002ef0:	388fc83a 	sub	r7,r7,r2
 2002ef4:	9564983a 	sll	r18,r18,r21
 2002ef8:	31ced83a 	srl	r7,r6,r7
 2002efc:	356a983a 	sll	r21,r6,r21
 2002f00:	3ca4b03a 	or	r18,r7,r18
 2002f04:	00ff0344 	movi	r3,-1011
 2002f08:	1885c83a 	sub	r2,r3,r2
 2002f0c:	0007883a 	mov	r3,zero
 2002f10:	003f8706 	br	2002d30 <__reset+0xfdff9d30>
 2002f14:	b039883a 	mov	fp,r22
 2002f18:	0081ffc4 	movi	r2,2047
 2002f1c:	0027883a 	mov	r19,zero
 2002f20:	002f883a 	mov	r23,zero
 2002f24:	003fad06 	br	2002ddc <__reset+0xfdff9ddc>
 2002f28:	0025883a 	mov	r18,zero
 2002f2c:	002b883a 	mov	r21,zero
 2002f30:	00c00044 	movi	r3,1
 2002f34:	003f7e06 	br	2002d30 <__reset+0xfdff9d30>
 2002f38:	00c000c4 	movi	r3,3
 2002f3c:	003f7c06 	br	2002d30 <__reset+0xfdff9d30>
 2002f40:	05800104 	movi	r22,4
 2002f44:	0027883a 	mov	r19,zero
 2002f48:	002f883a 	mov	r23,zero
 2002f4c:	01400044 	movi	r5,1
 2002f50:	003f6506 	br	2002ce8 <__reset+0xfdff9ce8>
 2002f54:	05800304 	movi	r22,12
 2002f58:	014000c4 	movi	r5,3
 2002f5c:	003f6206 	br	2002ce8 <__reset+0xfdff9ce8>
 2002f60:	0039883a 	mov	fp,zero
 2002f64:	04c00434 	movhi	r19,16
 2002f68:	9cffffc4 	addi	r19,r19,-1
 2002f6c:	05ffffc4 	movi	r23,-1
 2002f70:	0081ffc4 	movi	r2,2047
 2002f74:	003f9906 	br	2002ddc <__reset+0xfdff9ddc>
 2002f78:	9027883a 	mov	r19,r18
 2002f7c:	a82f883a 	mov	r23,r21
 2002f80:	482d883a 	mov	r22,r9
 2002f84:	180b883a 	mov	r5,r3
 2002f88:	003f8a06 	br	2002db4 <__reset+0xfdff9db4>
 2002f8c:	9027883a 	mov	r19,r18
 2002f90:	a82f883a 	mov	r23,r21
 2002f94:	180b883a 	mov	r5,r3
 2002f98:	003f8606 	br	2002db4 <__reset+0xfdff9db4>
 2002f9c:	a828d43a 	srli	r20,r21,16
 2002fa0:	b820d43a 	srli	r16,r23,16
 2002fa4:	ad7fffcc 	andi	r21,r21,65535
 2002fa8:	bdffffcc 	andi	r23,r23,65535
 2002fac:	8885883a 	add	r2,r17,r2
 2002fb0:	a809883a 	mov	r4,r21
 2002fb4:	b80b883a 	mov	r5,r23
 2002fb8:	d8800015 	stw	r2,0(sp)
 2002fbc:	20036640 	call	2003664 <__mulsi3>
 2002fc0:	a009883a 	mov	r4,r20
 2002fc4:	b80b883a 	mov	r5,r23
 2002fc8:	d8800415 	stw	r2,16(sp)
 2002fcc:	20036640 	call	2003664 <__mulsi3>
 2002fd0:	a809883a 	mov	r4,r21
 2002fd4:	800b883a 	mov	r5,r16
 2002fd8:	d8800615 	stw	r2,24(sp)
 2002fdc:	20036640 	call	2003664 <__mulsi3>
 2002fe0:	a009883a 	mov	r4,r20
 2002fe4:	800b883a 	mov	r5,r16
 2002fe8:	1023883a 	mov	r17,r2
 2002fec:	20036640 	call	2003664 <__mulsi3>
 2002ff0:	d9c00417 	ldw	r7,16(sp)
 2002ff4:	da000617 	ldw	r8,24(sp)
 2002ff8:	1039883a 	mov	fp,r2
 2002ffc:	3804d43a 	srli	r2,r7,16
 2003000:	8a07883a 	add	r3,r17,r8
 2003004:	1887883a 	add	r3,r3,r2
 2003008:	1c40022e 	bgeu	r3,r17,2003014 <__muldf3+0x3ac>
 200300c:	00800074 	movhi	r2,1
 2003010:	e0b9883a 	add	fp,fp,r2
 2003014:	1804943a 	slli	r2,r3,16
 2003018:	1806d43a 	srli	r3,r3,16
 200301c:	9022d43a 	srli	r17,r18,16
 2003020:	39ffffcc 	andi	r7,r7,65535
 2003024:	94bfffcc 	andi	r18,r18,65535
 2003028:	11cf883a 	add	r7,r2,r7
 200302c:	b80b883a 	mov	r5,r23
 2003030:	9009883a 	mov	r4,r18
 2003034:	d8c00215 	stw	r3,8(sp)
 2003038:	d9c00315 	stw	r7,12(sp)
 200303c:	20036640 	call	2003664 <__mulsi3>
 2003040:	b80b883a 	mov	r5,r23
 2003044:	8809883a 	mov	r4,r17
 2003048:	d8800415 	stw	r2,16(sp)
 200304c:	20036640 	call	2003664 <__mulsi3>
 2003050:	9009883a 	mov	r4,r18
 2003054:	800b883a 	mov	r5,r16
 2003058:	d8800715 	stw	r2,28(sp)
 200305c:	20036640 	call	2003664 <__mulsi3>
 2003060:	8809883a 	mov	r4,r17
 2003064:	800b883a 	mov	r5,r16
 2003068:	102f883a 	mov	r23,r2
 200306c:	20036640 	call	2003664 <__mulsi3>
 2003070:	d9c00417 	ldw	r7,16(sp)
 2003074:	da400717 	ldw	r9,28(sp)
 2003078:	1011883a 	mov	r8,r2
 200307c:	3804d43a 	srli	r2,r7,16
 2003080:	ba47883a 	add	r3,r23,r9
 2003084:	1887883a 	add	r3,r3,r2
 2003088:	1dc0022e 	bgeu	r3,r23,2003094 <__muldf3+0x42c>
 200308c:	00800074 	movhi	r2,1
 2003090:	4091883a 	add	r8,r8,r2
 2003094:	1804d43a 	srli	r2,r3,16
 2003098:	182e943a 	slli	r23,r3,16
 200309c:	9820d43a 	srli	r16,r19,16
 20030a0:	9cffffcc 	andi	r19,r19,65535
 20030a4:	39ffffcc 	andi	r7,r7,65535
 20030a8:	4085883a 	add	r2,r8,r2
 20030ac:	a809883a 	mov	r4,r21
 20030b0:	980b883a 	mov	r5,r19
 20030b4:	b9ef883a 	add	r23,r23,r7
 20030b8:	d8800115 	stw	r2,4(sp)
 20030bc:	20036640 	call	2003664 <__mulsi3>
 20030c0:	a009883a 	mov	r4,r20
 20030c4:	980b883a 	mov	r5,r19
 20030c8:	d8800415 	stw	r2,16(sp)
 20030cc:	20036640 	call	2003664 <__mulsi3>
 20030d0:	a809883a 	mov	r4,r21
 20030d4:	800b883a 	mov	r5,r16
 20030d8:	d8800715 	stw	r2,28(sp)
 20030dc:	20036640 	call	2003664 <__mulsi3>
 20030e0:	a009883a 	mov	r4,r20
 20030e4:	800b883a 	mov	r5,r16
 20030e8:	102b883a 	mov	r21,r2
 20030ec:	20036640 	call	2003664 <__mulsi3>
 20030f0:	d9c00417 	ldw	r7,16(sp)
 20030f4:	da400717 	ldw	r9,28(sp)
 20030f8:	1011883a 	mov	r8,r2
 20030fc:	3804d43a 	srli	r2,r7,16
 2003100:	aa47883a 	add	r3,r21,r9
 2003104:	1887883a 	add	r3,r3,r2
 2003108:	1d40022e 	bgeu	r3,r21,2003114 <__muldf3+0x4ac>
 200310c:	00800074 	movhi	r2,1
 2003110:	4091883a 	add	r8,r8,r2
 2003114:	1828d43a 	srli	r20,r3,16
 2003118:	1806943a 	slli	r3,r3,16
 200311c:	39ffffcc 	andi	r7,r7,65535
 2003120:	9009883a 	mov	r4,r18
 2003124:	980b883a 	mov	r5,r19
 2003128:	19eb883a 	add	r21,r3,r7
 200312c:	4529883a 	add	r20,r8,r20
 2003130:	20036640 	call	2003664 <__mulsi3>
 2003134:	980b883a 	mov	r5,r19
 2003138:	8809883a 	mov	r4,r17
 200313c:	d8800415 	stw	r2,16(sp)
 2003140:	20036640 	call	2003664 <__mulsi3>
 2003144:	9009883a 	mov	r4,r18
 2003148:	800b883a 	mov	r5,r16
 200314c:	1027883a 	mov	r19,r2
 2003150:	20036640 	call	2003664 <__mulsi3>
 2003154:	8809883a 	mov	r4,r17
 2003158:	800b883a 	mov	r5,r16
 200315c:	1025883a 	mov	r18,r2
 2003160:	20036640 	call	2003664 <__mulsi3>
 2003164:	d9c00417 	ldw	r7,16(sp)
 2003168:	1011883a 	mov	r8,r2
 200316c:	94c7883a 	add	r3,r18,r19
 2003170:	3804d43a 	srli	r2,r7,16
 2003174:	1887883a 	add	r3,r3,r2
 2003178:	1c80022e 	bgeu	r3,r18,2003184 <__muldf3+0x51c>
 200317c:	00800074 	movhi	r2,1
 2003180:	4091883a 	add	r8,r8,r2
 2003184:	1804943a 	slli	r2,r3,16
 2003188:	d9400217 	ldw	r5,8(sp)
 200318c:	39ffffcc 	andi	r7,r7,65535
 2003190:	11cf883a 	add	r7,r2,r7
 2003194:	d8800117 	ldw	r2,4(sp)
 2003198:	b949883a 	add	r4,r23,r5
 200319c:	2739883a 	add	fp,r4,fp
 20031a0:	e5ef803a 	cmpltu	r23,fp,r23
 20031a4:	388f883a 	add	r7,r7,r2
 20031a8:	3dcb883a 	add	r5,r7,r23
 20031ac:	a149883a 	add	r4,r20,r5
 20031b0:	2def803a 	cmpltu	r23,r5,r23
 20031b4:	d9400117 	ldw	r5,4(sp)
 20031b8:	e579883a 	add	fp,fp,r21
 20031bc:	e56b803a 	cmpltu	r21,fp,r21
 20031c0:	1804d43a 	srli	r2,r3,16
 20031c4:	394f803a 	cmpltu	r7,r7,r5
 20031c8:	2547883a 	add	r3,r4,r21
 20031cc:	b9e6b03a 	or	r19,r23,r7
 20031d0:	1d6b803a 	cmpltu	r21,r3,r21
 20031d4:	2529803a 	cmpltu	r20,r4,r20
 20031d8:	98a7883a 	add	r19,r19,r2
 20031dc:	ad2ab03a 	or	r21,r21,r20
 20031e0:	9d67883a 	add	r19,r19,r21
 20031e4:	e02e927a 	slli	r23,fp,9
 20031e8:	9a27883a 	add	r19,r19,r8
 20031ec:	d9000317 	ldw	r4,12(sp)
 20031f0:	1804d5fa 	srli	r2,r3,23
 20031f4:	9826927a 	slli	r19,r19,9
 20031f8:	e038d5fa 	srli	fp,fp,23
 20031fc:	b92eb03a 	or	r23,r23,r4
 2003200:	1806927a 	slli	r3,r3,9
 2003204:	98a6b03a 	or	r19,r19,r2
 2003208:	b82ec03a 	cmpne	r23,r23,zero
 200320c:	bf2eb03a 	or	r23,r23,fp
 2003210:	9880402c 	andhi	r2,r19,256
 2003214:	b8eeb03a 	or	r23,r23,r3
 2003218:	10000926 	beq	r2,zero,2003240 <__muldf3+0x5d8>
 200321c:	b806d07a 	srli	r3,r23,1
 2003220:	bdc0004c 	andi	r23,r23,1
 2003224:	980497fa 	slli	r2,r19,31
 2003228:	b8eeb03a 	or	r23,r23,r3
 200322c:	d8c00017 	ldw	r3,0(sp)
 2003230:	9826d07a 	srli	r19,r19,1
 2003234:	b8aeb03a 	or	r23,r23,r2
 2003238:	18c00044 	addi	r3,r3,1
 200323c:	d8c00015 	stw	r3,0(sp)
 2003240:	d8c00017 	ldw	r3,0(sp)
 2003244:	1880ffc4 	addi	r2,r3,1023
 2003248:	0080490e 	bge	zero,r2,2003370 <__muldf3+0x708>
 200324c:	b8c001cc 	andi	r3,r23,7
 2003250:	18000726 	beq	r3,zero,2003270 <__muldf3+0x608>
 2003254:	b90003cc 	andi	r4,r23,15
 2003258:	00c00104 	movi	r3,4
 200325c:	20c00426 	beq	r4,r3,2003270 <__muldf3+0x608>
 2003260:	b8c7883a 	add	r3,r23,r3
 2003264:	1def803a 	cmpltu	r23,r3,r23
 2003268:	9de7883a 	add	r19,r19,r23
 200326c:	182f883a 	mov	r23,r3
 2003270:	98c0402c 	andhi	r3,r19,256
 2003274:	18000526 	beq	r3,zero,200328c <__muldf3+0x624>
 2003278:	d8c00017 	ldw	r3,0(sp)
 200327c:	00bfc034 	movhi	r2,65280
 2003280:	10bfffc4 	addi	r2,r2,-1
 2003284:	98a6703a 	and	r19,r19,r2
 2003288:	18810004 	addi	r2,r3,1024
 200328c:	00c1ff84 	movi	r3,2046
 2003290:	18bf2016 	blt	r3,r2,2002f14 <__reset+0xfdff9f14>
 2003294:	9806977a 	slli	r3,r19,29
 2003298:	b82ed0fa 	srli	r23,r23,3
 200329c:	9826927a 	slli	r19,r19,9
 20032a0:	1081ffcc 	andi	r2,r2,2047
 20032a4:	1deeb03a 	or	r23,r3,r23
 20032a8:	9826d33a 	srli	r19,r19,12
 20032ac:	b039883a 	mov	fp,r22
 20032b0:	003eca06 	br	2002ddc <__reset+0xfdff9ddc>
 20032b4:	9880022c 	andhi	r2,r19,8
 20032b8:	10000a26 	beq	r2,zero,20032e4 <__muldf3+0x67c>
 20032bc:	9080022c 	andhi	r2,r18,8
 20032c0:	1000081e 	bne	r2,zero,20032e4 <__muldf3+0x67c>
 20032c4:	00800434 	movhi	r2,16
 20032c8:	10bfffc4 	addi	r2,r2,-1
 20032cc:	94c00234 	orhi	r19,r18,8
 20032d0:	98a6703a 	and	r19,r19,r2
 20032d4:	a039883a 	mov	fp,r20
 20032d8:	a82f883a 	mov	r23,r21
 20032dc:	0081ffc4 	movi	r2,2047
 20032e0:	003ebe06 	br	2002ddc <__reset+0xfdff9ddc>
 20032e4:	00800434 	movhi	r2,16
 20032e8:	10bfffc4 	addi	r2,r2,-1
 20032ec:	9cc00234 	orhi	r19,r19,8
 20032f0:	98a6703a 	and	r19,r19,r2
 20032f4:	0081ffc4 	movi	r2,2047
 20032f8:	003eb806 	br	2002ddc <__reset+0xfdff9ddc>
 20032fc:	14fff604 	addi	r19,r2,-40
 2003300:	a4e6983a 	sll	r19,r20,r19
 2003304:	002f883a 	mov	r23,zero
 2003308:	003edd06 	br	2002e80 <__reset+0xfdff9e80>
 200330c:	d9800515 	stw	r6,20(sp)
 2003310:	d9c00415 	stw	r7,16(sp)
 2003314:	da000615 	stw	r8,24(sp)
 2003318:	20035b80 	call	20035b8 <__clzsi2>
 200331c:	10800804 	addi	r2,r2,32
 2003320:	da000617 	ldw	r8,24(sp)
 2003324:	d9c00417 	ldw	r7,16(sp)
 2003328:	d9800517 	ldw	r6,20(sp)
 200332c:	003ecb06 	br	2002e5c <__reset+0xfdff9e5c>
 2003330:	14bff604 	addi	r18,r2,-40
 2003334:	34a4983a 	sll	r18,r6,r18
 2003338:	002b883a 	mov	r21,zero
 200333c:	003ef106 	br	2002f04 <__reset+0xfdff9f04>
 2003340:	3009883a 	mov	r4,r6
 2003344:	d9400415 	stw	r5,16(sp)
 2003348:	d9800515 	stw	r6,20(sp)
 200334c:	da000615 	stw	r8,24(sp)
 2003350:	da400715 	stw	r9,28(sp)
 2003354:	20035b80 	call	20035b8 <__clzsi2>
 2003358:	10800804 	addi	r2,r2,32
 200335c:	da400717 	ldw	r9,28(sp)
 2003360:	da000617 	ldw	r8,24(sp)
 2003364:	d9800517 	ldw	r6,20(sp)
 2003368:	d9400417 	ldw	r5,16(sp)
 200336c:	003edc06 	br	2002ee0 <__reset+0xfdff9ee0>
 2003370:	d8c00017 	ldw	r3,0(sp)
 2003374:	00bf0084 	movi	r2,-1022
 2003378:	10c5c83a 	sub	r2,r2,r3
 200337c:	00c00e04 	movi	r3,56
 2003380:	18be9216 	blt	r3,r2,2002dcc <__reset+0xfdff9dcc>
 2003384:	00c007c4 	movi	r3,31
 2003388:	18801916 	blt	r3,r2,20033f0 <__muldf3+0x788>
 200338c:	d9000017 	ldw	r4,0(sp)
 2003390:	b88ad83a 	srl	r5,r23,r2
 2003394:	9884d83a 	srl	r2,r19,r2
 2003398:	20c10784 	addi	r3,r4,1054
 200339c:	98c8983a 	sll	r4,r19,r3
 20033a0:	b8c6983a 	sll	r3,r23,r3
 20033a4:	2908b03a 	or	r4,r5,r4
 20033a8:	1806c03a 	cmpne	r3,r3,zero
 20033ac:	20c6b03a 	or	r3,r4,r3
 20033b0:	190001cc 	andi	r4,r3,7
 20033b4:	20000726 	beq	r4,zero,20033d4 <__muldf3+0x76c>
 20033b8:	194003cc 	andi	r5,r3,15
 20033bc:	01000104 	movi	r4,4
 20033c0:	29000426 	beq	r5,r4,20033d4 <__muldf3+0x76c>
 20033c4:	1909883a 	add	r4,r3,r4
 20033c8:	20c7803a 	cmpltu	r3,r4,r3
 20033cc:	10c5883a 	add	r2,r2,r3
 20033d0:	2007883a 	mov	r3,r4
 20033d4:	1100202c 	andhi	r4,r2,128
 20033d8:	20001226 	beq	r4,zero,2003424 <__muldf3+0x7bc>
 20033dc:	b039883a 	mov	fp,r22
 20033e0:	00800044 	movi	r2,1
 20033e4:	0027883a 	mov	r19,zero
 20033e8:	002f883a 	mov	r23,zero
 20033ec:	003e7b06 	br	2002ddc <__reset+0xfdff9ddc>
 20033f0:	d9400017 	ldw	r5,0(sp)
 20033f4:	00fef884 	movi	r3,-1054
 20033f8:	01000804 	movi	r4,32
 20033fc:	1947c83a 	sub	r3,r3,r5
 2003400:	98c6d83a 	srl	r3,r19,r3
 2003404:	11000f26 	beq	r2,r4,2003444 <__muldf3+0x7dc>
 2003408:	28810f84 	addi	r2,r5,1086
 200340c:	9884983a 	sll	r2,r19,r2
 2003410:	15c4b03a 	or	r2,r2,r23
 2003414:	1004c03a 	cmpne	r2,r2,zero
 2003418:	10c6b03a 	or	r3,r2,r3
 200341c:	0005883a 	mov	r2,zero
 2003420:	003fe306 	br	20033b0 <__reset+0xfdffa3b0>
 2003424:	102e977a 	slli	r23,r2,29
 2003428:	1806d0fa 	srli	r3,r3,3
 200342c:	1004927a 	slli	r2,r2,9
 2003430:	b039883a 	mov	fp,r22
 2003434:	b8eeb03a 	or	r23,r23,r3
 2003438:	1026d33a 	srli	r19,r2,12
 200343c:	0005883a 	mov	r2,zero
 2003440:	003e6606 	br	2002ddc <__reset+0xfdff9ddc>
 2003444:	0005883a 	mov	r2,zero
 2003448:	003ff106 	br	2003410 <__reset+0xfdffa410>
 200344c:	00800434 	movhi	r2,16
 2003450:	10bfffc4 	addi	r2,r2,-1
 2003454:	9cc00234 	orhi	r19,r19,8
 2003458:	98a6703a 	and	r19,r19,r2
 200345c:	b039883a 	mov	fp,r22
 2003460:	0081ffc4 	movi	r2,2047
 2003464:	003e5d06 	br	2002ddc <__reset+0xfdff9ddc>

02003468 <__fixdfsi>:
 2003468:	2806d53a 	srli	r3,r5,20
 200346c:	00800434 	movhi	r2,16
 2003470:	10bfffc4 	addi	r2,r2,-1
 2003474:	0180ff84 	movi	r6,1022
 2003478:	18c1ffcc 	andi	r3,r3,2047
 200347c:	2884703a 	and	r2,r5,r2
 2003480:	280ad7fa 	srli	r5,r5,31
 2003484:	30c0120e 	bge	r6,r3,20034d0 <__fixdfsi+0x68>
 2003488:	01810744 	movi	r6,1053
 200348c:	30c00c16 	blt	r6,r3,20034c0 <__fixdfsi+0x58>
 2003490:	01810cc4 	movi	r6,1075
 2003494:	30cdc83a 	sub	r6,r6,r3
 2003498:	01c007c4 	movi	r7,31
 200349c:	10800434 	orhi	r2,r2,16
 20034a0:	39800d16 	blt	r7,r6,20034d8 <__fixdfsi+0x70>
 20034a4:	18fefb44 	addi	r3,r3,-1043
 20034a8:	2188d83a 	srl	r4,r4,r6
 20034ac:	10c4983a 	sll	r2,r2,r3
 20034b0:	2084b03a 	or	r2,r4,r2
 20034b4:	28000726 	beq	r5,zero,20034d4 <__fixdfsi+0x6c>
 20034b8:	0085c83a 	sub	r2,zero,r2
 20034bc:	f800283a 	ret
 20034c0:	00a00034 	movhi	r2,32768
 20034c4:	10bfffc4 	addi	r2,r2,-1
 20034c8:	2885883a 	add	r2,r5,r2
 20034cc:	f800283a 	ret
 20034d0:	0005883a 	mov	r2,zero
 20034d4:	f800283a 	ret
 20034d8:	010104c4 	movi	r4,1043
 20034dc:	20c7c83a 	sub	r3,r4,r3
 20034e0:	10c4d83a 	srl	r2,r2,r3
 20034e4:	003ff306 	br	20034b4 <__reset+0xfdffa4b4>

020034e8 <__floatsidf>:
 20034e8:	defffd04 	addi	sp,sp,-12
 20034ec:	dc000015 	stw	r16,0(sp)
 20034f0:	dfc00215 	stw	ra,8(sp)
 20034f4:	dc400115 	stw	r17,4(sp)
 20034f8:	2021883a 	mov	r16,r4
 20034fc:	20002926 	beq	r4,zero,20035a4 <__floatsidf+0xbc>
 2003500:	2022d7fa 	srli	r17,r4,31
 2003504:	88000126 	beq	r17,zero,200350c <__floatsidf+0x24>
 2003508:	0121c83a 	sub	r16,zero,r4
 200350c:	8009883a 	mov	r4,r16
 2003510:	20035b80 	call	20035b8 <__clzsi2>
 2003514:	01810784 	movi	r6,1054
 2003518:	00c00284 	movi	r3,10
 200351c:	308dc83a 	sub	r6,r6,r2
 2003520:	1880150e 	bge	r3,r2,2003578 <__floatsidf+0x90>
 2003524:	113ffd44 	addi	r4,r2,-11
 2003528:	8108983a 	sll	r4,r16,r4
 200352c:	00800434 	movhi	r2,16
 2003530:	10bfffc4 	addi	r2,r2,-1
 2003534:	3181ffcc 	andi	r6,r6,2047
 2003538:	2088703a 	and	r4,r4,r2
 200353c:	880b883a 	mov	r5,r17
 2003540:	0005883a 	mov	r2,zero
 2003544:	300c953a 	slli	r6,r6,20
 2003548:	29403fcc 	andi	r5,r5,255
 200354c:	280a97fa 	slli	r5,r5,31
 2003550:	00c00434 	movhi	r3,16
 2003554:	18ffffc4 	addi	r3,r3,-1
 2003558:	20c8703a 	and	r4,r4,r3
 200355c:	2186b03a 	or	r3,r4,r6
 2003560:	1946b03a 	or	r3,r3,r5
 2003564:	dfc00217 	ldw	ra,8(sp)
 2003568:	dc400117 	ldw	r17,4(sp)
 200356c:	dc000017 	ldw	r16,0(sp)
 2003570:	dec00304 	addi	sp,sp,12
 2003574:	f800283a 	ret
 2003578:	010002c4 	movi	r4,11
 200357c:	2089c83a 	sub	r4,r4,r2
 2003580:	8108d83a 	srl	r4,r16,r4
 2003584:	10800544 	addi	r2,r2,21
 2003588:	00c00434 	movhi	r3,16
 200358c:	18ffffc4 	addi	r3,r3,-1
 2003590:	8084983a 	sll	r2,r16,r2
 2003594:	20c8703a 	and	r4,r4,r3
 2003598:	3181ffcc 	andi	r6,r6,2047
 200359c:	880b883a 	mov	r5,r17
 20035a0:	003fe806 	br	2003544 <__reset+0xfdffa544>
 20035a4:	000b883a 	mov	r5,zero
 20035a8:	000d883a 	mov	r6,zero
 20035ac:	0009883a 	mov	r4,zero
 20035b0:	0005883a 	mov	r2,zero
 20035b4:	003fe306 	br	2003544 <__reset+0xfdffa544>

020035b8 <__clzsi2>:
 20035b8:	00bfffd4 	movui	r2,65535
 20035bc:	11000b36 	bltu	r2,r4,20035ec <__clzsi2+0x34>
 20035c0:	00803fc4 	movi	r2,255
 20035c4:	11001e2e 	bgeu	r2,r4,2003640 <__clzsi2+0x88>
 20035c8:	00c00204 	movi	r3,8
 20035cc:	20c8d83a 	srl	r4,r4,r3
 20035d0:	00c082b4 	movhi	r3,522
 20035d4:	18cea304 	addi	r3,r3,14988
 20035d8:	00800604 	movi	r2,24
 20035dc:	1909883a 	add	r4,r3,r4
 20035e0:	20c00003 	ldbu	r3,0(r4)
 20035e4:	10c5c83a 	sub	r2,r2,r3
 20035e8:	f800283a 	ret
 20035ec:	00804034 	movhi	r2,256
 20035f0:	10bfffc4 	addi	r2,r2,-1
 20035f4:	11000936 	bltu	r2,r4,200361c <__clzsi2+0x64>
 20035f8:	00800404 	movi	r2,16
 20035fc:	1007883a 	mov	r3,r2
 2003600:	20c8d83a 	srl	r4,r4,r3
 2003604:	00c082b4 	movhi	r3,522
 2003608:	18cea304 	addi	r3,r3,14988
 200360c:	1909883a 	add	r4,r3,r4
 2003610:	20c00003 	ldbu	r3,0(r4)
 2003614:	10c5c83a 	sub	r2,r2,r3
 2003618:	f800283a 	ret
 200361c:	00c00604 	movi	r3,24
 2003620:	20c8d83a 	srl	r4,r4,r3
 2003624:	00c082b4 	movhi	r3,522
 2003628:	18cea304 	addi	r3,r3,14988
 200362c:	00800204 	movi	r2,8
 2003630:	1909883a 	add	r4,r3,r4
 2003634:	20c00003 	ldbu	r3,0(r4)
 2003638:	10c5c83a 	sub	r2,r2,r3
 200363c:	f800283a 	ret
 2003640:	0007883a 	mov	r3,zero
 2003644:	20c8d83a 	srl	r4,r4,r3
 2003648:	00c082b4 	movhi	r3,522
 200364c:	18cea304 	addi	r3,r3,14988
 2003650:	00800804 	movi	r2,32
 2003654:	1909883a 	add	r4,r3,r4
 2003658:	20c00003 	ldbu	r3,0(r4)
 200365c:	10c5c83a 	sub	r2,r2,r3
 2003660:	f800283a 	ret

02003664 <__mulsi3>:
 2003664:	0005883a 	mov	r2,zero
 2003668:	20000726 	beq	r4,zero,2003688 <__mulsi3+0x24>
 200366c:	20c0004c 	andi	r3,r4,1
 2003670:	2008d07a 	srli	r4,r4,1
 2003674:	18000126 	beq	r3,zero,200367c <__mulsi3+0x18>
 2003678:	1145883a 	add	r2,r2,r5
 200367c:	294b883a 	add	r5,r5,r5
 2003680:	203ffa1e 	bne	r4,zero,200366c <__reset+0xfdffa66c>
 2003684:	f800283a 	ret
 2003688:	f800283a 	ret

0200368c <_fflush_r>:
 200368c:	defffb04 	addi	sp,sp,-20
 2003690:	dcc00315 	stw	r19,12(sp)
 2003694:	dc400115 	stw	r17,4(sp)
 2003698:	dfc00415 	stw	ra,16(sp)
 200369c:	dc800215 	stw	r18,8(sp)
 20036a0:	dc000015 	stw	r16,0(sp)
 20036a4:	2027883a 	mov	r19,r4
 20036a8:	2823883a 	mov	r17,r5
 20036ac:	20000226 	beq	r4,zero,20036b8 <_fflush_r+0x2c>
 20036b0:	20800e17 	ldw	r2,56(r4)
 20036b4:	10005826 	beq	r2,zero,2003818 <_fflush_r+0x18c>
 20036b8:	8880030b 	ldhu	r2,12(r17)
 20036bc:	10ffffcc 	andi	r3,r2,65535
 20036c0:	18e0001c 	xori	r3,r3,32768
 20036c4:	18e00004 	addi	r3,r3,-32768
 20036c8:	18002b26 	beq	r3,zero,2003778 <_fflush_r+0xec>
 20036cc:	10c0020c 	andi	r3,r2,8
 20036d0:	1800311e 	bne	r3,zero,2003798 <_fflush_r+0x10c>
 20036d4:	88c00117 	ldw	r3,4(r17)
 20036d8:	10820014 	ori	r2,r2,2048
 20036dc:	8880030d 	sth	r2,12(r17)
 20036e0:	00c05c0e 	bge	zero,r3,2003854 <_fflush_r+0x1c8>
 20036e4:	88c00a17 	ldw	r3,40(r17)
 20036e8:	18002326 	beq	r3,zero,2003778 <_fflush_r+0xec>
 20036ec:	9c000017 	ldw	r16,0(r19)
 20036f0:	1104000c 	andi	r4,r2,4096
 20036f4:	98000015 	stw	zero,0(r19)
 20036f8:	20004b26 	beq	r4,zero,2003828 <_fflush_r+0x19c>
 20036fc:	89801417 	ldw	r6,80(r17)
 2003700:	1080010c 	andi	r2,r2,4
 2003704:	10000626 	beq	r2,zero,2003720 <_fflush_r+0x94>
 2003708:	89000117 	ldw	r4,4(r17)
 200370c:	88800c17 	ldw	r2,48(r17)
 2003710:	310dc83a 	sub	r6,r6,r4
 2003714:	10000226 	beq	r2,zero,2003720 <_fflush_r+0x94>
 2003718:	88800f17 	ldw	r2,60(r17)
 200371c:	308dc83a 	sub	r6,r6,r2
 2003720:	89400717 	ldw	r5,28(r17)
 2003724:	9809883a 	mov	r4,r19
 2003728:	000f883a 	mov	r7,zero
 200372c:	183ee83a 	callr	r3
 2003730:	00ffffc4 	movi	r3,-1
 2003734:	10c04a26 	beq	r2,r3,2003860 <_fflush_r+0x1d4>
 2003738:	88c0030b 	ldhu	r3,12(r17)
 200373c:	89000417 	ldw	r4,16(r17)
 2003740:	88000115 	stw	zero,4(r17)
 2003744:	197dffcc 	andi	r5,r3,63487
 2003748:	8940030d 	sth	r5,12(r17)
 200374c:	89000015 	stw	r4,0(r17)
 2003750:	18c4000c 	andi	r3,r3,4096
 2003754:	1800581e 	bne	r3,zero,20038b8 <_fflush_r+0x22c>
 2003758:	89400c17 	ldw	r5,48(r17)
 200375c:	9c000015 	stw	r16,0(r19)
 2003760:	28000526 	beq	r5,zero,2003778 <_fflush_r+0xec>
 2003764:	88801004 	addi	r2,r17,64
 2003768:	28800226 	beq	r5,r2,2003774 <_fflush_r+0xe8>
 200376c:	9809883a 	mov	r4,r19
 2003770:	2003de00 	call	2003de0 <_free_r>
 2003774:	88000c15 	stw	zero,48(r17)
 2003778:	0005883a 	mov	r2,zero
 200377c:	dfc00417 	ldw	ra,16(sp)
 2003780:	dcc00317 	ldw	r19,12(sp)
 2003784:	dc800217 	ldw	r18,8(sp)
 2003788:	dc400117 	ldw	r17,4(sp)
 200378c:	dc000017 	ldw	r16,0(sp)
 2003790:	dec00504 	addi	sp,sp,20
 2003794:	f800283a 	ret
 2003798:	8c800417 	ldw	r18,16(r17)
 200379c:	903ff626 	beq	r18,zero,2003778 <__reset+0xfdffa778>
 20037a0:	8c000017 	ldw	r16,0(r17)
 20037a4:	108000cc 	andi	r2,r2,3
 20037a8:	8c800015 	stw	r18,0(r17)
 20037ac:	84a1c83a 	sub	r16,r16,r18
 20037b0:	10001b26 	beq	r2,zero,2003820 <_fflush_r+0x194>
 20037b4:	0005883a 	mov	r2,zero
 20037b8:	88800215 	stw	r2,8(r17)
 20037bc:	04000316 	blt	zero,r16,20037cc <_fflush_r+0x140>
 20037c0:	003fed06 	br	2003778 <__reset+0xfdffa778>
 20037c4:	90a5883a 	add	r18,r18,r2
 20037c8:	043feb0e 	bge	zero,r16,2003778 <__reset+0xfdffa778>
 20037cc:	88800917 	ldw	r2,36(r17)
 20037d0:	89400717 	ldw	r5,28(r17)
 20037d4:	800f883a 	mov	r7,r16
 20037d8:	900d883a 	mov	r6,r18
 20037dc:	9809883a 	mov	r4,r19
 20037e0:	103ee83a 	callr	r2
 20037e4:	80a1c83a 	sub	r16,r16,r2
 20037e8:	00bff616 	blt	zero,r2,20037c4 <__reset+0xfdffa7c4>
 20037ec:	88c0030b 	ldhu	r3,12(r17)
 20037f0:	00bfffc4 	movi	r2,-1
 20037f4:	18c01014 	ori	r3,r3,64
 20037f8:	88c0030d 	sth	r3,12(r17)
 20037fc:	dfc00417 	ldw	ra,16(sp)
 2003800:	dcc00317 	ldw	r19,12(sp)
 2003804:	dc800217 	ldw	r18,8(sp)
 2003808:	dc400117 	ldw	r17,4(sp)
 200380c:	dc000017 	ldw	r16,0(sp)
 2003810:	dec00504 	addi	sp,sp,20
 2003814:	f800283a 	ret
 2003818:	20039ac0 	call	20039ac <__sinit>
 200381c:	003fa606 	br	20036b8 <__reset+0xfdffa6b8>
 2003820:	88800517 	ldw	r2,20(r17)
 2003824:	003fe406 	br	20037b8 <__reset+0xfdffa7b8>
 2003828:	89400717 	ldw	r5,28(r17)
 200382c:	000d883a 	mov	r6,zero
 2003830:	9809883a 	mov	r4,r19
 2003834:	01c00044 	movi	r7,1
 2003838:	183ee83a 	callr	r3
 200383c:	100d883a 	mov	r6,r2
 2003840:	00bfffc4 	movi	r2,-1
 2003844:	30801326 	beq	r6,r2,2003894 <_fflush_r+0x208>
 2003848:	8880030b 	ldhu	r2,12(r17)
 200384c:	88c00a17 	ldw	r3,40(r17)
 2003850:	003fab06 	br	2003700 <__reset+0xfdffa700>
 2003854:	88c00f17 	ldw	r3,60(r17)
 2003858:	00ffa216 	blt	zero,r3,20036e4 <__reset+0xfdffa6e4>
 200385c:	003fc606 	br	2003778 <__reset+0xfdffa778>
 2003860:	98c00017 	ldw	r3,0(r19)
 2003864:	183fb426 	beq	r3,zero,2003738 <__reset+0xfdffa738>
 2003868:	01000744 	movi	r4,29
 200386c:	19000226 	beq	r3,r4,2003878 <_fflush_r+0x1ec>
 2003870:	01000584 	movi	r4,22
 2003874:	1900121e 	bne	r3,r4,20038c0 <_fflush_r+0x234>
 2003878:	88c0030b 	ldhu	r3,12(r17)
 200387c:	88800417 	ldw	r2,16(r17)
 2003880:	88000115 	stw	zero,4(r17)
 2003884:	18fdffcc 	andi	r3,r3,63487
 2003888:	88c0030d 	sth	r3,12(r17)
 200388c:	88800015 	stw	r2,0(r17)
 2003890:	003fb106 	br	2003758 <__reset+0xfdffa758>
 2003894:	98800017 	ldw	r2,0(r19)
 2003898:	103feb26 	beq	r2,zero,2003848 <__reset+0xfdffa848>
 200389c:	00c00744 	movi	r3,29
 20038a0:	10c00226 	beq	r2,r3,20038ac <_fflush_r+0x220>
 20038a4:	00c00584 	movi	r3,22
 20038a8:	10ffd01e 	bne	r2,r3,20037ec <__reset+0xfdffa7ec>
 20038ac:	9c000015 	stw	r16,0(r19)
 20038b0:	0005883a 	mov	r2,zero
 20038b4:	003fb106 	br	200377c <__reset+0xfdffa77c>
 20038b8:	88801415 	stw	r2,80(r17)
 20038bc:	003fa606 	br	2003758 <__reset+0xfdffa758>
 20038c0:	88c0030b 	ldhu	r3,12(r17)
 20038c4:	18c01014 	ori	r3,r3,64
 20038c8:	88c0030d 	sth	r3,12(r17)
 20038cc:	003fab06 	br	200377c <__reset+0xfdffa77c>

020038d0 <fflush>:
 20038d0:	200b883a 	mov	r5,r4
 20038d4:	20000426 	beq	r4,zero,20038e8 <fflush+0x18>
 20038d8:	008082b4 	movhi	r2,522
 20038dc:	10977b04 	addi	r2,r2,24044
 20038e0:	11000017 	ldw	r4,0(r2)
 20038e4:	200368c1 	jmpi	200368c <_fflush_r>
 20038e8:	008082b4 	movhi	r2,522
 20038ec:	10977a04 	addi	r2,r2,24040
 20038f0:	11000017 	ldw	r4,0(r2)
 20038f4:	01408034 	movhi	r5,512
 20038f8:	294da304 	addi	r5,r5,13964
 20038fc:	20041581 	jmpi	2004158 <_fwalk_reent>

02003900 <__fp_lock>:
 2003900:	0005883a 	mov	r2,zero
 2003904:	f800283a 	ret

02003908 <__fp_unlock>:
 2003908:	0005883a 	mov	r2,zero
 200390c:	f800283a 	ret

02003910 <_cleanup_r>:
 2003910:	01408074 	movhi	r5,513
 2003914:	29691904 	addi	r5,r5,-23452
 2003918:	20040b01 	jmpi	20040b0 <_fwalk>

0200391c <__sfmoreglue>:
 200391c:	defffc04 	addi	sp,sp,-16
 2003920:	dc800215 	stw	r18,8(sp)
 2003924:	2825883a 	mov	r18,r5
 2003928:	dc000015 	stw	r16,0(sp)
 200392c:	01401a04 	movi	r5,104
 2003930:	2021883a 	mov	r16,r4
 2003934:	9009883a 	mov	r4,r18
 2003938:	dfc00315 	stw	ra,12(sp)
 200393c:	dc400115 	stw	r17,4(sp)
 2003940:	20036640 	call	2003664 <__mulsi3>
 2003944:	8009883a 	mov	r4,r16
 2003948:	11400304 	addi	r5,r2,12
 200394c:	1023883a 	mov	r17,r2
 2003950:	20042100 	call	2004210 <_malloc_r>
 2003954:	1021883a 	mov	r16,r2
 2003958:	10000726 	beq	r2,zero,2003978 <__sfmoreglue+0x5c>
 200395c:	11000304 	addi	r4,r2,12
 2003960:	10000015 	stw	zero,0(r2)
 2003964:	14800115 	stw	r18,4(r2)
 2003968:	11000215 	stw	r4,8(r2)
 200396c:	000b883a 	mov	r5,zero
 2003970:	880d883a 	mov	r6,r17
 2003974:	20049d40 	call	20049d4 <memset>
 2003978:	8005883a 	mov	r2,r16
 200397c:	dfc00317 	ldw	ra,12(sp)
 2003980:	dc800217 	ldw	r18,8(sp)
 2003984:	dc400117 	ldw	r17,4(sp)
 2003988:	dc000017 	ldw	r16,0(sp)
 200398c:	dec00404 	addi	sp,sp,16
 2003990:	f800283a 	ret

02003994 <_cleanup>:
 2003994:	008082b4 	movhi	r2,522
 2003998:	10977a04 	addi	r2,r2,24040
 200399c:	11000017 	ldw	r4,0(r2)
 20039a0:	01408074 	movhi	r5,513
 20039a4:	29691904 	addi	r5,r5,-23452
 20039a8:	20040b01 	jmpi	20040b0 <_fwalk>

020039ac <__sinit>:
 20039ac:	20800e17 	ldw	r2,56(r4)
 20039b0:	defff704 	addi	sp,sp,-36
 20039b4:	dc800215 	stw	r18,8(sp)
 20039b8:	dfc00815 	stw	ra,32(sp)
 20039bc:	ddc00715 	stw	r23,28(sp)
 20039c0:	dd800615 	stw	r22,24(sp)
 20039c4:	dd400515 	stw	r21,20(sp)
 20039c8:	dd000415 	stw	r20,16(sp)
 20039cc:	dcc00315 	stw	r19,12(sp)
 20039d0:	dc400115 	stw	r17,4(sp)
 20039d4:	dc000015 	stw	r16,0(sp)
 20039d8:	2025883a 	mov	r18,r4
 20039dc:	10004f1e 	bne	r2,zero,2003b1c <__sinit+0x170>
 20039e0:	24000117 	ldw	r16,4(r4)
 20039e4:	00c08034 	movhi	r3,512
 20039e8:	18ce4404 	addi	r3,r3,14608
 20039ec:	20c00f15 	stw	r3,60(r4)
 20039f0:	2080bb04 	addi	r2,r4,748
 20039f4:	00c000c4 	movi	r3,3
 20039f8:	05c00044 	movi	r23,1
 20039fc:	20c0b915 	stw	r3,740(r4)
 2003a00:	2080ba15 	stw	r2,744(r4)
 2003a04:	25c00e15 	stw	r23,56(r4)
 2003a08:	2000b815 	stw	zero,736(r4)
 2003a0c:	00800104 	movi	r2,4
 2003a10:	81001704 	addi	r4,r16,92
 2003a14:	000b883a 	mov	r5,zero
 2003a18:	01800204 	movi	r6,8
 2003a1c:	80000015 	stw	zero,0(r16)
 2003a20:	80000115 	stw	zero,4(r16)
 2003a24:	80000215 	stw	zero,8(r16)
 2003a28:	8080030d 	sth	r2,12(r16)
 2003a2c:	80001915 	stw	zero,100(r16)
 2003a30:	8000038d 	sth	zero,14(r16)
 2003a34:	80000415 	stw	zero,16(r16)
 2003a38:	80000515 	stw	zero,20(r16)
 2003a3c:	80000615 	stw	zero,24(r16)
 2003a40:	20049d40 	call	20049d4 <memset>
 2003a44:	94400217 	ldw	r17,8(r18)
 2003a48:	05808034 	movhi	r22,512
 2003a4c:	b5933b04 	addi	r22,r22,19692
 2003a50:	05408034 	movhi	r21,512
 2003a54:	ad535204 	addi	r21,r21,19784
 2003a58:	05008034 	movhi	r20,512
 2003a5c:	a5137104 	addi	r20,r20,19908
 2003a60:	04c08034 	movhi	r19,512
 2003a64:	9cd38804 	addi	r19,r19,20000
 2003a68:	84000715 	stw	r16,28(r16)
 2003a6c:	85800815 	stw	r22,32(r16)
 2003a70:	85400915 	stw	r21,36(r16)
 2003a74:	85000a15 	stw	r20,40(r16)
 2003a78:	84c00b15 	stw	r19,44(r16)
 2003a7c:	00800284 	movi	r2,10
 2003a80:	89001704 	addi	r4,r17,92
 2003a84:	000b883a 	mov	r5,zero
 2003a88:	01800204 	movi	r6,8
 2003a8c:	88000015 	stw	zero,0(r17)
 2003a90:	88000115 	stw	zero,4(r17)
 2003a94:	88000215 	stw	zero,8(r17)
 2003a98:	8880030d 	sth	r2,12(r17)
 2003a9c:	88001915 	stw	zero,100(r17)
 2003aa0:	8dc0038d 	sth	r23,14(r17)
 2003aa4:	88000415 	stw	zero,16(r17)
 2003aa8:	88000515 	stw	zero,20(r17)
 2003aac:	88000615 	stw	zero,24(r17)
 2003ab0:	20049d40 	call	20049d4 <memset>
 2003ab4:	94000317 	ldw	r16,12(r18)
 2003ab8:	00800484 	movi	r2,18
 2003abc:	8c400715 	stw	r17,28(r17)
 2003ac0:	8d800815 	stw	r22,32(r17)
 2003ac4:	8d400915 	stw	r21,36(r17)
 2003ac8:	8d000a15 	stw	r20,40(r17)
 2003acc:	8cc00b15 	stw	r19,44(r17)
 2003ad0:	8080030d 	sth	r2,12(r16)
 2003ad4:	00800084 	movi	r2,2
 2003ad8:	80000015 	stw	zero,0(r16)
 2003adc:	80000115 	stw	zero,4(r16)
 2003ae0:	80000215 	stw	zero,8(r16)
 2003ae4:	80001915 	stw	zero,100(r16)
 2003ae8:	8080038d 	sth	r2,14(r16)
 2003aec:	80000415 	stw	zero,16(r16)
 2003af0:	80000515 	stw	zero,20(r16)
 2003af4:	80000615 	stw	zero,24(r16)
 2003af8:	81001704 	addi	r4,r16,92
 2003afc:	000b883a 	mov	r5,zero
 2003b00:	01800204 	movi	r6,8
 2003b04:	20049d40 	call	20049d4 <memset>
 2003b08:	84000715 	stw	r16,28(r16)
 2003b0c:	85800815 	stw	r22,32(r16)
 2003b10:	85400915 	stw	r21,36(r16)
 2003b14:	85000a15 	stw	r20,40(r16)
 2003b18:	84c00b15 	stw	r19,44(r16)
 2003b1c:	dfc00817 	ldw	ra,32(sp)
 2003b20:	ddc00717 	ldw	r23,28(sp)
 2003b24:	dd800617 	ldw	r22,24(sp)
 2003b28:	dd400517 	ldw	r21,20(sp)
 2003b2c:	dd000417 	ldw	r20,16(sp)
 2003b30:	dcc00317 	ldw	r19,12(sp)
 2003b34:	dc800217 	ldw	r18,8(sp)
 2003b38:	dc400117 	ldw	r17,4(sp)
 2003b3c:	dc000017 	ldw	r16,0(sp)
 2003b40:	dec00904 	addi	sp,sp,36
 2003b44:	f800283a 	ret

02003b48 <__sfp>:
 2003b48:	defffb04 	addi	sp,sp,-20
 2003b4c:	008082b4 	movhi	r2,522
 2003b50:	10977a04 	addi	r2,r2,24040
 2003b54:	dc800215 	stw	r18,8(sp)
 2003b58:	14800017 	ldw	r18,0(r2)
 2003b5c:	dcc00315 	stw	r19,12(sp)
 2003b60:	dfc00415 	stw	ra,16(sp)
 2003b64:	90800e17 	ldw	r2,56(r18)
 2003b68:	dc400115 	stw	r17,4(sp)
 2003b6c:	dc000015 	stw	r16,0(sp)
 2003b70:	2027883a 	mov	r19,r4
 2003b74:	10002f26 	beq	r2,zero,2003c34 <__sfp+0xec>
 2003b78:	9480b804 	addi	r18,r18,736
 2003b7c:	047fffc4 	movi	r17,-1
 2003b80:	91400117 	ldw	r5,4(r18)
 2003b84:	94000217 	ldw	r16,8(r18)
 2003b88:	297fffc4 	addi	r5,r5,-1
 2003b8c:	28000a16 	blt	r5,zero,2003bb8 <__sfp+0x70>
 2003b90:	8080030f 	ldh	r2,12(r16)
 2003b94:	10000c26 	beq	r2,zero,2003bc8 <__sfp+0x80>
 2003b98:	80c01d04 	addi	r3,r16,116
 2003b9c:	00000206 	br	2003ba8 <__sfp+0x60>
 2003ba0:	18bfe60f 	ldh	r2,-104(r3)
 2003ba4:	10000826 	beq	r2,zero,2003bc8 <__sfp+0x80>
 2003ba8:	297fffc4 	addi	r5,r5,-1
 2003bac:	1c3ffd04 	addi	r16,r3,-12
 2003bb0:	18c01a04 	addi	r3,r3,104
 2003bb4:	2c7ffa1e 	bne	r5,r17,2003ba0 <__reset+0xfdffaba0>
 2003bb8:	90800017 	ldw	r2,0(r18)
 2003bbc:	10002026 	beq	r2,zero,2003c40 <__sfp+0xf8>
 2003bc0:	1025883a 	mov	r18,r2
 2003bc4:	003fee06 	br	2003b80 <__reset+0xfdffab80>
 2003bc8:	00bfffc4 	movi	r2,-1
 2003bcc:	8080038d 	sth	r2,14(r16)
 2003bd0:	00800044 	movi	r2,1
 2003bd4:	8080030d 	sth	r2,12(r16)
 2003bd8:	80001915 	stw	zero,100(r16)
 2003bdc:	80000015 	stw	zero,0(r16)
 2003be0:	80000215 	stw	zero,8(r16)
 2003be4:	80000115 	stw	zero,4(r16)
 2003be8:	80000415 	stw	zero,16(r16)
 2003bec:	80000515 	stw	zero,20(r16)
 2003bf0:	80000615 	stw	zero,24(r16)
 2003bf4:	81001704 	addi	r4,r16,92
 2003bf8:	000b883a 	mov	r5,zero
 2003bfc:	01800204 	movi	r6,8
 2003c00:	20049d40 	call	20049d4 <memset>
 2003c04:	8005883a 	mov	r2,r16
 2003c08:	80000c15 	stw	zero,48(r16)
 2003c0c:	80000d15 	stw	zero,52(r16)
 2003c10:	80001115 	stw	zero,68(r16)
 2003c14:	80001215 	stw	zero,72(r16)
 2003c18:	dfc00417 	ldw	ra,16(sp)
 2003c1c:	dcc00317 	ldw	r19,12(sp)
 2003c20:	dc800217 	ldw	r18,8(sp)
 2003c24:	dc400117 	ldw	r17,4(sp)
 2003c28:	dc000017 	ldw	r16,0(sp)
 2003c2c:	dec00504 	addi	sp,sp,20
 2003c30:	f800283a 	ret
 2003c34:	9009883a 	mov	r4,r18
 2003c38:	20039ac0 	call	20039ac <__sinit>
 2003c3c:	003fce06 	br	2003b78 <__reset+0xfdffab78>
 2003c40:	9809883a 	mov	r4,r19
 2003c44:	01400104 	movi	r5,4
 2003c48:	200391c0 	call	200391c <__sfmoreglue>
 2003c4c:	90800015 	stw	r2,0(r18)
 2003c50:	103fdb1e 	bne	r2,zero,2003bc0 <__reset+0xfdffabc0>
 2003c54:	00800304 	movi	r2,12
 2003c58:	98800015 	stw	r2,0(r19)
 2003c5c:	0005883a 	mov	r2,zero
 2003c60:	003fed06 	br	2003c18 <__reset+0xfdffac18>

02003c64 <__sfp_lock_acquire>:
 2003c64:	f800283a 	ret

02003c68 <__sfp_lock_release>:
 2003c68:	f800283a 	ret

02003c6c <__sinit_lock_acquire>:
 2003c6c:	f800283a 	ret

02003c70 <__sinit_lock_release>:
 2003c70:	f800283a 	ret

02003c74 <__fp_lock_all>:
 2003c74:	008082b4 	movhi	r2,522
 2003c78:	10977b04 	addi	r2,r2,24044
 2003c7c:	11000017 	ldw	r4,0(r2)
 2003c80:	01408034 	movhi	r5,512
 2003c84:	294e4004 	addi	r5,r5,14592
 2003c88:	20040b01 	jmpi	20040b0 <_fwalk>

02003c8c <__fp_unlock_all>:
 2003c8c:	008082b4 	movhi	r2,522
 2003c90:	10977b04 	addi	r2,r2,24044
 2003c94:	11000017 	ldw	r4,0(r2)
 2003c98:	01408034 	movhi	r5,512
 2003c9c:	294e4204 	addi	r5,r5,14600
 2003ca0:	20040b01 	jmpi	20040b0 <_fwalk>

02003ca4 <_malloc_trim_r>:
 2003ca4:	defffb04 	addi	sp,sp,-20
 2003ca8:	dcc00315 	stw	r19,12(sp)
 2003cac:	dc800215 	stw	r18,8(sp)
 2003cb0:	dc400115 	stw	r17,4(sp)
 2003cb4:	dc000015 	stw	r16,0(sp)
 2003cb8:	2827883a 	mov	r19,r5
 2003cbc:	dfc00415 	stw	ra,16(sp)
 2003cc0:	044082b4 	movhi	r17,522
 2003cc4:	8c516804 	addi	r17,r17,17824
 2003cc8:	2021883a 	mov	r16,r4
 2003ccc:	2017e280 	call	2017e28 <__malloc_lock>
 2003cd0:	88800217 	ldw	r2,8(r17)
 2003cd4:	14800117 	ldw	r18,4(r2)
 2003cd8:	00bfff04 	movi	r2,-4
 2003cdc:	90a4703a 	and	r18,r18,r2
 2003ce0:	94e7c83a 	sub	r19,r18,r19
 2003ce4:	9cc3fbc4 	addi	r19,r19,4079
 2003ce8:	9826d33a 	srli	r19,r19,12
 2003cec:	0083ffc4 	movi	r2,4095
 2003cf0:	9cffffc4 	addi	r19,r19,-1
 2003cf4:	9826933a 	slli	r19,r19,12
 2003cf8:	14c0060e 	bge	r2,r19,2003d14 <_malloc_trim_r+0x70>
 2003cfc:	8009883a 	mov	r4,r16
 2003d00:	000b883a 	mov	r5,zero
 2003d04:	2004c1c0 	call	2004c1c <_sbrk_r>
 2003d08:	88c00217 	ldw	r3,8(r17)
 2003d0c:	1c87883a 	add	r3,r3,r18
 2003d10:	10c00a26 	beq	r2,r3,2003d3c <_malloc_trim_r+0x98>
 2003d14:	8009883a 	mov	r4,r16
 2003d18:	2017e480 	call	2017e48 <__malloc_unlock>
 2003d1c:	0005883a 	mov	r2,zero
 2003d20:	dfc00417 	ldw	ra,16(sp)
 2003d24:	dcc00317 	ldw	r19,12(sp)
 2003d28:	dc800217 	ldw	r18,8(sp)
 2003d2c:	dc400117 	ldw	r17,4(sp)
 2003d30:	dc000017 	ldw	r16,0(sp)
 2003d34:	dec00504 	addi	sp,sp,20
 2003d38:	f800283a 	ret
 2003d3c:	8009883a 	mov	r4,r16
 2003d40:	04cbc83a 	sub	r5,zero,r19
 2003d44:	2004c1c0 	call	2004c1c <_sbrk_r>
 2003d48:	00ffffc4 	movi	r3,-1
 2003d4c:	10c01326 	beq	r2,r3,2003d9c <_malloc_trim_r+0xf8>
 2003d50:	008082b4 	movhi	r2,522
 2003d54:	1097a504 	addi	r2,r2,24212
 2003d58:	11000017 	ldw	r4,0(r2)
 2003d5c:	88c00217 	ldw	r3,8(r17)
 2003d60:	94e5c83a 	sub	r18,r18,r19
 2003d64:	94800054 	ori	r18,r18,1
 2003d68:	24e7c83a 	sub	r19,r4,r19
 2003d6c:	1c800115 	stw	r18,4(r3)
 2003d70:	8009883a 	mov	r4,r16
 2003d74:	14c00015 	stw	r19,0(r2)
 2003d78:	2017e480 	call	2017e48 <__malloc_unlock>
 2003d7c:	00800044 	movi	r2,1
 2003d80:	dfc00417 	ldw	ra,16(sp)
 2003d84:	dcc00317 	ldw	r19,12(sp)
 2003d88:	dc800217 	ldw	r18,8(sp)
 2003d8c:	dc400117 	ldw	r17,4(sp)
 2003d90:	dc000017 	ldw	r16,0(sp)
 2003d94:	dec00504 	addi	sp,sp,20
 2003d98:	f800283a 	ret
 2003d9c:	8009883a 	mov	r4,r16
 2003da0:	000b883a 	mov	r5,zero
 2003da4:	2004c1c0 	call	2004c1c <_sbrk_r>
 2003da8:	88c00217 	ldw	r3,8(r17)
 2003dac:	014003c4 	movi	r5,15
 2003db0:	10c9c83a 	sub	r4,r2,r3
 2003db4:	293fd70e 	bge	r5,r4,2003d14 <__reset+0xfdffad14>
 2003db8:	014082b4 	movhi	r5,522
 2003dbc:	29577c04 	addi	r5,r5,24048
 2003dc0:	29400017 	ldw	r5,0(r5)
 2003dc4:	21000054 	ori	r4,r4,1
 2003dc8:	19000115 	stw	r4,4(r3)
 2003dcc:	1145c83a 	sub	r2,r2,r5
 2003dd0:	014082b4 	movhi	r5,522
 2003dd4:	2957a504 	addi	r5,r5,24212
 2003dd8:	28800015 	stw	r2,0(r5)
 2003ddc:	003fcd06 	br	2003d14 <__reset+0xfdffad14>

02003de0 <_free_r>:
 2003de0:	defffd04 	addi	sp,sp,-12
 2003de4:	dc000015 	stw	r16,0(sp)
 2003de8:	dfc00215 	stw	ra,8(sp)
 2003dec:	dc400115 	stw	r17,4(sp)
 2003df0:	2821883a 	mov	r16,r5
 2003df4:	28004c26 	beq	r5,zero,2003f28 <_free_r+0x148>
 2003df8:	2023883a 	mov	r17,r4
 2003dfc:	2017e280 	call	2017e28 <__malloc_lock>
 2003e00:	823fff17 	ldw	r8,-4(r16)
 2003e04:	00bfff84 	movi	r2,-2
 2003e08:	81bffe04 	addi	r6,r16,-8
 2003e0c:	4084703a 	and	r2,r8,r2
 2003e10:	3087883a 	add	r3,r6,r2
 2003e14:	014082b4 	movhi	r5,522
 2003e18:	29516804 	addi	r5,r5,17824
 2003e1c:	1a400117 	ldw	r9,4(r3)
 2003e20:	29000217 	ldw	r4,8(r5)
 2003e24:	01ffff04 	movi	r7,-4
 2003e28:	49ce703a 	and	r7,r9,r7
 2003e2c:	20c06526 	beq	r4,r3,2003fc4 <_free_r+0x1e4>
 2003e30:	19c00115 	stw	r7,4(r3)
 2003e34:	4200004c 	andi	r8,r8,1
 2003e38:	40003026 	beq	r8,zero,2003efc <_free_r+0x11c>
 2003e3c:	0009883a 	mov	r4,zero
 2003e40:	19d1883a 	add	r8,r3,r7
 2003e44:	42000117 	ldw	r8,4(r8)
 2003e48:	4200004c 	andi	r8,r8,1
 2003e4c:	4000061e 	bne	r8,zero,2003e68 <_free_r+0x88>
 2003e50:	11c5883a 	add	r2,r2,r7
 2003e54:	19c00217 	ldw	r7,8(r3)
 2003e58:	20004e26 	beq	r4,zero,2003f94 <_free_r+0x1b4>
 2003e5c:	18c00317 	ldw	r3,12(r3)
 2003e60:	38c00315 	stw	r3,12(r7)
 2003e64:	19c00215 	stw	r7,8(r3)
 2003e68:	10c00054 	ori	r3,r2,1
 2003e6c:	30c00115 	stw	r3,4(r6)
 2003e70:	3087883a 	add	r3,r6,r2
 2003e74:	18800015 	stw	r2,0(r3)
 2003e78:	20001a1e 	bne	r4,zero,2003ee4 <_free_r+0x104>
 2003e7c:	00c07fc4 	movi	r3,511
 2003e80:	18802e2e 	bgeu	r3,r2,2003f3c <_free_r+0x15c>
 2003e84:	1006d27a 	srli	r3,r2,9
 2003e88:	01000104 	movi	r4,4
 2003e8c:	20c06636 	bltu	r4,r3,2004028 <_free_r+0x248>
 2003e90:	1008d1ba 	srli	r4,r2,6
 2003e94:	21000e04 	addi	r4,r4,56
 2003e98:	210f883a 	add	r7,r4,r4
 2003e9c:	39cf883a 	add	r7,r7,r7
 2003ea0:	39cf883a 	add	r7,r7,r7
 2003ea4:	29cf883a 	add	r7,r5,r7
 2003ea8:	38c00217 	ldw	r3,8(r7)
 2003eac:	014082b4 	movhi	r5,522
 2003eb0:	29516804 	addi	r5,r5,17824
 2003eb4:	19c06126 	beq	r3,r7,200403c <_free_r+0x25c>
 2003eb8:	013fff04 	movi	r4,-4
 2003ebc:	19400117 	ldw	r5,4(r3)
 2003ec0:	290a703a 	and	r5,r5,r4
 2003ec4:	1140022e 	bgeu	r2,r5,2003ed0 <_free_r+0xf0>
 2003ec8:	18c00217 	ldw	r3,8(r3)
 2003ecc:	38fffb1e 	bne	r7,r3,2003ebc <__reset+0xfdffaebc>
 2003ed0:	18800317 	ldw	r2,12(r3)
 2003ed4:	30800315 	stw	r2,12(r6)
 2003ed8:	30c00215 	stw	r3,8(r6)
 2003edc:	11800215 	stw	r6,8(r2)
 2003ee0:	19800315 	stw	r6,12(r3)
 2003ee4:	8809883a 	mov	r4,r17
 2003ee8:	dfc00217 	ldw	ra,8(sp)
 2003eec:	dc400117 	ldw	r17,4(sp)
 2003ef0:	dc000017 	ldw	r16,0(sp)
 2003ef4:	dec00304 	addi	sp,sp,12
 2003ef8:	2017e481 	jmpi	2017e48 <__malloc_unlock>
 2003efc:	813ffe17 	ldw	r4,-8(r16)
 2003f00:	2a400204 	addi	r9,r5,8
 2003f04:	310dc83a 	sub	r6,r6,r4
 2003f08:	32000217 	ldw	r8,8(r6)
 2003f0c:	1105883a 	add	r2,r2,r4
 2003f10:	42404326 	beq	r8,r9,2004020 <_free_r+0x240>
 2003f14:	32400317 	ldw	r9,12(r6)
 2003f18:	0009883a 	mov	r4,zero
 2003f1c:	42400315 	stw	r9,12(r8)
 2003f20:	4a000215 	stw	r8,8(r9)
 2003f24:	003fc606 	br	2003e40 <__reset+0xfdffae40>
 2003f28:	dfc00217 	ldw	ra,8(sp)
 2003f2c:	dc400117 	ldw	r17,4(sp)
 2003f30:	dc000017 	ldw	r16,0(sp)
 2003f34:	dec00304 	addi	sp,sp,12
 2003f38:	f800283a 	ret
 2003f3c:	1004d0fa 	srli	r2,r2,3
 2003f40:	02000044 	movi	r8,1
 2003f44:	29c00117 	ldw	r7,4(r5)
 2003f48:	1087883a 	add	r3,r2,r2
 2003f4c:	18c7883a 	add	r3,r3,r3
 2003f50:	18c7883a 	add	r3,r3,r3
 2003f54:	28c7883a 	add	r3,r5,r3
 2003f58:	1005d0ba 	srai	r2,r2,2
 2003f5c:	19000217 	ldw	r4,8(r3)
 2003f60:	30c00315 	stw	r3,12(r6)
 2003f64:	4084983a 	sll	r2,r8,r2
 2003f68:	31000215 	stw	r4,8(r6)
 2003f6c:	19800215 	stw	r6,8(r3)
 2003f70:	11c4b03a 	or	r2,r2,r7
 2003f74:	21800315 	stw	r6,12(r4)
 2003f78:	8809883a 	mov	r4,r17
 2003f7c:	28800115 	stw	r2,4(r5)
 2003f80:	dfc00217 	ldw	ra,8(sp)
 2003f84:	dc400117 	ldw	r17,4(sp)
 2003f88:	dc000017 	ldw	r16,0(sp)
 2003f8c:	dec00304 	addi	sp,sp,12
 2003f90:	2017e481 	jmpi	2017e48 <__malloc_unlock>
 2003f94:	020082b4 	movhi	r8,522
 2003f98:	42116a04 	addi	r8,r8,17832
 2003f9c:	3a3faf1e 	bne	r7,r8,2003e5c <__reset+0xfdffae5c>
 2003fa0:	29800515 	stw	r6,20(r5)
 2003fa4:	29800415 	stw	r6,16(r5)
 2003fa8:	10c00054 	ori	r3,r2,1
 2003fac:	31c00315 	stw	r7,12(r6)
 2003fb0:	31c00215 	stw	r7,8(r6)
 2003fb4:	30c00115 	stw	r3,4(r6)
 2003fb8:	308d883a 	add	r6,r6,r2
 2003fbc:	30800015 	stw	r2,0(r6)
 2003fc0:	003fc806 	br	2003ee4 <__reset+0xfdffaee4>
 2003fc4:	4200004c 	andi	r8,r8,1
 2003fc8:	3885883a 	add	r2,r7,r2
 2003fcc:	4000071e 	bne	r8,zero,2003fec <_free_r+0x20c>
 2003fd0:	81fffe17 	ldw	r7,-8(r16)
 2003fd4:	31cdc83a 	sub	r6,r6,r7
 2003fd8:	30c00317 	ldw	r3,12(r6)
 2003fdc:	31000217 	ldw	r4,8(r6)
 2003fe0:	11c5883a 	add	r2,r2,r7
 2003fe4:	20c00315 	stw	r3,12(r4)
 2003fe8:	19000215 	stw	r4,8(r3)
 2003fec:	00c082b4 	movhi	r3,522
 2003ff0:	18d77d04 	addi	r3,r3,24052
 2003ff4:	11000054 	ori	r4,r2,1
 2003ff8:	18c00017 	ldw	r3,0(r3)
 2003ffc:	31000115 	stw	r4,4(r6)
 2004000:	29800215 	stw	r6,8(r5)
 2004004:	10ffb736 	bltu	r2,r3,2003ee4 <__reset+0xfdffaee4>
 2004008:	008082b4 	movhi	r2,522
 200400c:	10979304 	addi	r2,r2,24140
 2004010:	11400017 	ldw	r5,0(r2)
 2004014:	8809883a 	mov	r4,r17
 2004018:	2003ca40 	call	2003ca4 <_malloc_trim_r>
 200401c:	003fb106 	br	2003ee4 <__reset+0xfdffaee4>
 2004020:	01000044 	movi	r4,1
 2004024:	003f8606 	br	2003e40 <__reset+0xfdffae40>
 2004028:	01000504 	movi	r4,20
 200402c:	20c00b36 	bltu	r4,r3,200405c <_free_r+0x27c>
 2004030:	190016c4 	addi	r4,r3,91
 2004034:	210f883a 	add	r7,r4,r4
 2004038:	003f9806 	br	2003e9c <__reset+0xfdffae9c>
 200403c:	2009d0ba 	srai	r4,r4,2
 2004040:	00800044 	movi	r2,1
 2004044:	29c00117 	ldw	r7,4(r5)
 2004048:	1108983a 	sll	r4,r2,r4
 200404c:	1805883a 	mov	r2,r3
 2004050:	21c8b03a 	or	r4,r4,r7
 2004054:	29000115 	stw	r4,4(r5)
 2004058:	003f9e06 	br	2003ed4 <__reset+0xfdffaed4>
 200405c:	01001504 	movi	r4,84
 2004060:	20c00436 	bltu	r4,r3,2004074 <_free_r+0x294>
 2004064:	1008d33a 	srli	r4,r2,12
 2004068:	21001b84 	addi	r4,r4,110
 200406c:	210f883a 	add	r7,r4,r4
 2004070:	003f8a06 	br	2003e9c <__reset+0xfdffae9c>
 2004074:	01005504 	movi	r4,340
 2004078:	20c00436 	bltu	r4,r3,200408c <_free_r+0x2ac>
 200407c:	1008d3fa 	srli	r4,r2,15
 2004080:	21001dc4 	addi	r4,r4,119
 2004084:	210f883a 	add	r7,r4,r4
 2004088:	003f8406 	br	2003e9c <__reset+0xfdffae9c>
 200408c:	01015504 	movi	r4,1364
 2004090:	20c00436 	bltu	r4,r3,20040a4 <_free_r+0x2c4>
 2004094:	1008d4ba 	srli	r4,r2,18
 2004098:	21001f04 	addi	r4,r4,124
 200409c:	210f883a 	add	r7,r4,r4
 20040a0:	003f7e06 	br	2003e9c <__reset+0xfdffae9c>
 20040a4:	01c03f04 	movi	r7,252
 20040a8:	01001f84 	movi	r4,126
 20040ac:	003f7b06 	br	2003e9c <__reset+0xfdffae9c>

020040b0 <_fwalk>:
 20040b0:	defff904 	addi	sp,sp,-28
 20040b4:	dcc00315 	stw	r19,12(sp)
 20040b8:	24c0b804 	addi	r19,r4,736
 20040bc:	dd400515 	stw	r21,20(sp)
 20040c0:	dd000415 	stw	r20,16(sp)
 20040c4:	dfc00615 	stw	ra,24(sp)
 20040c8:	dc800215 	stw	r18,8(sp)
 20040cc:	dc400115 	stw	r17,4(sp)
 20040d0:	dc000015 	stw	r16,0(sp)
 20040d4:	282b883a 	mov	r21,r5
 20040d8:	0029883a 	mov	r20,zero
 20040dc:	2003c640 	call	2003c64 <__sfp_lock_acquire>
 20040e0:	98001226 	beq	r19,zero,200412c <_fwalk+0x7c>
 20040e4:	04bfffc4 	movi	r18,-1
 20040e8:	9c400117 	ldw	r17,4(r19)
 20040ec:	9c000217 	ldw	r16,8(r19)
 20040f0:	8c7fffc4 	addi	r17,r17,-1
 20040f4:	88000b16 	blt	r17,zero,2004124 <_fwalk+0x74>
 20040f8:	84000304 	addi	r16,r16,12
 20040fc:	80c0000f 	ldh	r3,0(r16)
 2004100:	8c7fffc4 	addi	r17,r17,-1
 2004104:	813ffd04 	addi	r4,r16,-12
 2004108:	18000426 	beq	r3,zero,200411c <_fwalk+0x6c>
 200410c:	80c0008f 	ldh	r3,2(r16)
 2004110:	1c800226 	beq	r3,r18,200411c <_fwalk+0x6c>
 2004114:	a83ee83a 	callr	r21
 2004118:	a0a8b03a 	or	r20,r20,r2
 200411c:	84001a04 	addi	r16,r16,104
 2004120:	8cbff61e 	bne	r17,r18,20040fc <__reset+0xfdffb0fc>
 2004124:	9cc00017 	ldw	r19,0(r19)
 2004128:	983fef1e 	bne	r19,zero,20040e8 <__reset+0xfdffb0e8>
 200412c:	2003c680 	call	2003c68 <__sfp_lock_release>
 2004130:	a005883a 	mov	r2,r20
 2004134:	dfc00617 	ldw	ra,24(sp)
 2004138:	dd400517 	ldw	r21,20(sp)
 200413c:	dd000417 	ldw	r20,16(sp)
 2004140:	dcc00317 	ldw	r19,12(sp)
 2004144:	dc800217 	ldw	r18,8(sp)
 2004148:	dc400117 	ldw	r17,4(sp)
 200414c:	dc000017 	ldw	r16,0(sp)
 2004150:	dec00704 	addi	sp,sp,28
 2004154:	f800283a 	ret

02004158 <_fwalk_reent>:
 2004158:	defff804 	addi	sp,sp,-32
 200415c:	dcc00315 	stw	r19,12(sp)
 2004160:	24c0b804 	addi	r19,r4,736
 2004164:	dd800615 	stw	r22,24(sp)
 2004168:	dd400515 	stw	r21,20(sp)
 200416c:	dd000415 	stw	r20,16(sp)
 2004170:	dfc00715 	stw	ra,28(sp)
 2004174:	dc800215 	stw	r18,8(sp)
 2004178:	dc400115 	stw	r17,4(sp)
 200417c:	dc000015 	stw	r16,0(sp)
 2004180:	2029883a 	mov	r20,r4
 2004184:	282b883a 	mov	r21,r5
 2004188:	002d883a 	mov	r22,zero
 200418c:	2003c640 	call	2003c64 <__sfp_lock_acquire>
 2004190:	98001326 	beq	r19,zero,20041e0 <_fwalk_reent+0x88>
 2004194:	04bfffc4 	movi	r18,-1
 2004198:	9c400117 	ldw	r17,4(r19)
 200419c:	9c000217 	ldw	r16,8(r19)
 20041a0:	8c7fffc4 	addi	r17,r17,-1
 20041a4:	88000c16 	blt	r17,zero,20041d8 <_fwalk_reent+0x80>
 20041a8:	84000304 	addi	r16,r16,12
 20041ac:	80c0000f 	ldh	r3,0(r16)
 20041b0:	8c7fffc4 	addi	r17,r17,-1
 20041b4:	817ffd04 	addi	r5,r16,-12
 20041b8:	18000526 	beq	r3,zero,20041d0 <_fwalk_reent+0x78>
 20041bc:	80c0008f 	ldh	r3,2(r16)
 20041c0:	a009883a 	mov	r4,r20
 20041c4:	1c800226 	beq	r3,r18,20041d0 <_fwalk_reent+0x78>
 20041c8:	a83ee83a 	callr	r21
 20041cc:	b0acb03a 	or	r22,r22,r2
 20041d0:	84001a04 	addi	r16,r16,104
 20041d4:	8cbff51e 	bne	r17,r18,20041ac <__reset+0xfdffb1ac>
 20041d8:	9cc00017 	ldw	r19,0(r19)
 20041dc:	983fee1e 	bne	r19,zero,2004198 <__reset+0xfdffb198>
 20041e0:	2003c680 	call	2003c68 <__sfp_lock_release>
 20041e4:	b005883a 	mov	r2,r22
 20041e8:	dfc00717 	ldw	ra,28(sp)
 20041ec:	dd800617 	ldw	r22,24(sp)
 20041f0:	dd400517 	ldw	r21,20(sp)
 20041f4:	dd000417 	ldw	r20,16(sp)
 20041f8:	dcc00317 	ldw	r19,12(sp)
 20041fc:	dc800217 	ldw	r18,8(sp)
 2004200:	dc400117 	ldw	r17,4(sp)
 2004204:	dc000017 	ldw	r16,0(sp)
 2004208:	dec00804 	addi	sp,sp,32
 200420c:	f800283a 	ret

02004210 <_malloc_r>:
 2004210:	defff504 	addi	sp,sp,-44
 2004214:	dc800315 	stw	r18,12(sp)
 2004218:	dfc00a15 	stw	ra,40(sp)
 200421c:	df000915 	stw	fp,36(sp)
 2004220:	ddc00815 	stw	r23,32(sp)
 2004224:	dd800715 	stw	r22,28(sp)
 2004228:	dd400615 	stw	r21,24(sp)
 200422c:	dd000515 	stw	r20,20(sp)
 2004230:	dcc00415 	stw	r19,16(sp)
 2004234:	dc400215 	stw	r17,8(sp)
 2004238:	dc000115 	stw	r16,4(sp)
 200423c:	288002c4 	addi	r2,r5,11
 2004240:	00c00584 	movi	r3,22
 2004244:	2025883a 	mov	r18,r4
 2004248:	18802b2e 	bgeu	r3,r2,20042f8 <_malloc_r+0xe8>
 200424c:	047ffe04 	movi	r17,-8
 2004250:	1462703a 	and	r17,r2,r17
 2004254:	88002a16 	blt	r17,zero,2004300 <_malloc_r+0xf0>
 2004258:	89402936 	bltu	r17,r5,2004300 <_malloc_r+0xf0>
 200425c:	9009883a 	mov	r4,r18
 2004260:	2017e280 	call	2017e28 <__malloc_lock>
 2004264:	00807dc4 	movi	r2,503
 2004268:	14402936 	bltu	r2,r17,2004310 <_malloc_r+0x100>
 200426c:	8808d0fa 	srli	r4,r17,3
 2004270:	04c082b4 	movhi	r19,522
 2004274:	9cd16804 	addi	r19,r19,17824
 2004278:	2105883a 	add	r2,r4,r4
 200427c:	1085883a 	add	r2,r2,r2
 2004280:	1085883a 	add	r2,r2,r2
 2004284:	9885883a 	add	r2,r19,r2
 2004288:	14000317 	ldw	r16,12(r2)
 200428c:	80815226 	beq	r16,r2,20047d8 <_malloc_r+0x5c8>
 2004290:	81000117 	ldw	r4,4(r16)
 2004294:	00bfff04 	movi	r2,-4
 2004298:	80c00317 	ldw	r3,12(r16)
 200429c:	2084703a 	and	r2,r4,r2
 20042a0:	8085883a 	add	r2,r16,r2
 20042a4:	81000217 	ldw	r4,8(r16)
 20042a8:	11400117 	ldw	r5,4(r2)
 20042ac:	20c00315 	stw	r3,12(r4)
 20042b0:	19000215 	stw	r4,8(r3)
 20042b4:	28c00054 	ori	r3,r5,1
 20042b8:	10c00115 	stw	r3,4(r2)
 20042bc:	9009883a 	mov	r4,r18
 20042c0:	2017e480 	call	2017e48 <__malloc_unlock>
 20042c4:	80800204 	addi	r2,r16,8
 20042c8:	dfc00a17 	ldw	ra,40(sp)
 20042cc:	df000917 	ldw	fp,36(sp)
 20042d0:	ddc00817 	ldw	r23,32(sp)
 20042d4:	dd800717 	ldw	r22,28(sp)
 20042d8:	dd400617 	ldw	r21,24(sp)
 20042dc:	dd000517 	ldw	r20,20(sp)
 20042e0:	dcc00417 	ldw	r19,16(sp)
 20042e4:	dc800317 	ldw	r18,12(sp)
 20042e8:	dc400217 	ldw	r17,8(sp)
 20042ec:	dc000117 	ldw	r16,4(sp)
 20042f0:	dec00b04 	addi	sp,sp,44
 20042f4:	f800283a 	ret
 20042f8:	04400404 	movi	r17,16
 20042fc:	897fd72e 	bgeu	r17,r5,200425c <__reset+0xfdffb25c>
 2004300:	00800304 	movi	r2,12
 2004304:	90800015 	stw	r2,0(r18)
 2004308:	0005883a 	mov	r2,zero
 200430c:	003fee06 	br	20042c8 <__reset+0xfdffb2c8>
 2004310:	8808d27a 	srli	r4,r17,9
 2004314:	20007126 	beq	r4,zero,20044dc <_malloc_r+0x2cc>
 2004318:	00800104 	movi	r2,4
 200431c:	1100f536 	bltu	r2,r4,20046f4 <_malloc_r+0x4e4>
 2004320:	8808d1ba 	srli	r4,r17,6
 2004324:	21000e04 	addi	r4,r4,56
 2004328:	210b883a 	add	r5,r4,r4
 200432c:	294b883a 	add	r5,r5,r5
 2004330:	294b883a 	add	r5,r5,r5
 2004334:	04c082b4 	movhi	r19,522
 2004338:	9cd16804 	addi	r19,r19,17824
 200433c:	994b883a 	add	r5,r19,r5
 2004340:	2c000317 	ldw	r16,12(r5)
 2004344:	2c000e26 	beq	r5,r16,2004380 <_malloc_r+0x170>
 2004348:	80c00117 	ldw	r3,4(r16)
 200434c:	01ffff04 	movi	r7,-4
 2004350:	018003c4 	movi	r6,15
 2004354:	19c6703a 	and	r3,r3,r7
 2004358:	1c45c83a 	sub	r2,r3,r17
 200435c:	30800716 	blt	r6,r2,200437c <_malloc_r+0x16c>
 2004360:	1000610e 	bge	r2,zero,20044e8 <_malloc_r+0x2d8>
 2004364:	84000317 	ldw	r16,12(r16)
 2004368:	2c000526 	beq	r5,r16,2004380 <_malloc_r+0x170>
 200436c:	80c00117 	ldw	r3,4(r16)
 2004370:	19c6703a 	and	r3,r3,r7
 2004374:	1c45c83a 	sub	r2,r3,r17
 2004378:	30bff90e 	bge	r6,r2,2004360 <__reset+0xfdffb360>
 200437c:	213fffc4 	addi	r4,r4,-1
 2004380:	21000044 	addi	r4,r4,1
 2004384:	9c000417 	ldw	r16,16(r19)
 2004388:	00c082b4 	movhi	r3,522
 200438c:	18d16804 	addi	r3,r3,17824
 2004390:	1a400204 	addi	r9,r3,8
 2004394:	82410926 	beq	r16,r9,20047bc <_malloc_r+0x5ac>
 2004398:	81400117 	ldw	r5,4(r16)
 200439c:	00bfff04 	movi	r2,-4
 20043a0:	018003c4 	movi	r6,15
 20043a4:	2884703a 	and	r2,r5,r2
 20043a8:	144bc83a 	sub	r5,r2,r17
 20043ac:	3140f416 	blt	r6,r5,2004780 <_malloc_r+0x570>
 20043b0:	1a400515 	stw	r9,20(r3)
 20043b4:	1a400415 	stw	r9,16(r3)
 20043b8:	2800570e 	bge	r5,zero,2004518 <_malloc_r+0x308>
 20043bc:	01407fc4 	movi	r5,511
 20043c0:	2880d436 	bltu	r5,r2,2004714 <_malloc_r+0x504>
 20043c4:	1004d0fa 	srli	r2,r2,3
 20043c8:	02000044 	movi	r8,1
 20043cc:	19c00117 	ldw	r7,4(r3)
 20043d0:	108b883a 	add	r5,r2,r2
 20043d4:	294b883a 	add	r5,r5,r5
 20043d8:	1005d0ba 	srai	r2,r2,2
 20043dc:	294b883a 	add	r5,r5,r5
 20043e0:	28cb883a 	add	r5,r5,r3
 20043e4:	29800217 	ldw	r6,8(r5)
 20043e8:	4084983a 	sll	r2,r8,r2
 20043ec:	81400315 	stw	r5,12(r16)
 20043f0:	81800215 	stw	r6,8(r16)
 20043f4:	11c4b03a 	or	r2,r2,r7
 20043f8:	2c000215 	stw	r16,8(r5)
 20043fc:	18800115 	stw	r2,4(r3)
 2004400:	34000315 	stw	r16,12(r6)
 2004404:	2007d0ba 	srai	r3,r4,2
 2004408:	01400044 	movi	r5,1
 200440c:	28ca983a 	sll	r5,r5,r3
 2004410:	11404936 	bltu	r2,r5,2004538 <_malloc_r+0x328>
 2004414:	1146703a 	and	r3,r2,r5
 2004418:	18000a1e 	bne	r3,zero,2004444 <_malloc_r+0x234>
 200441c:	00ffff04 	movi	r3,-4
 2004420:	294b883a 	add	r5,r5,r5
 2004424:	20c8703a 	and	r4,r4,r3
 2004428:	1146703a 	and	r3,r2,r5
 200442c:	21000104 	addi	r4,r4,4
 2004430:	1800041e 	bne	r3,zero,2004444 <_malloc_r+0x234>
 2004434:	294b883a 	add	r5,r5,r5
 2004438:	1146703a 	and	r3,r2,r5
 200443c:	21000104 	addi	r4,r4,4
 2004440:	183ffc26 	beq	r3,zero,2004434 <__reset+0xfdffb434>
 2004444:	023fff04 	movi	r8,-4
 2004448:	01c003c4 	movi	r7,15
 200444c:	2105883a 	add	r2,r4,r4
 2004450:	1085883a 	add	r2,r2,r2
 2004454:	1085883a 	add	r2,r2,r2
 2004458:	9897883a 	add	r11,r19,r2
 200445c:	5a800304 	addi	r10,r11,12
 2004460:	2019883a 	mov	r12,r4
 2004464:	54000017 	ldw	r16,0(r10)
 2004468:	51bffd04 	addi	r6,r10,-12
 200446c:	8180041e 	bne	r16,r6,2004480 <_malloc_r+0x270>
 2004470:	0000d406 	br	20047c4 <_malloc_r+0x5b4>
 2004474:	1000dd0e 	bge	r2,zero,20047ec <_malloc_r+0x5dc>
 2004478:	84000317 	ldw	r16,12(r16)
 200447c:	8180d126 	beq	r16,r6,20047c4 <_malloc_r+0x5b4>
 2004480:	80c00117 	ldw	r3,4(r16)
 2004484:	1a06703a 	and	r3,r3,r8
 2004488:	1c45c83a 	sub	r2,r3,r17
 200448c:	38bff90e 	bge	r7,r2,2004474 <__reset+0xfdffb474>
 2004490:	80c00317 	ldw	r3,12(r16)
 2004494:	81000217 	ldw	r4,8(r16)
 2004498:	89400054 	ori	r5,r17,1
 200449c:	81400115 	stw	r5,4(r16)
 20044a0:	20c00315 	stw	r3,12(r4)
 20044a4:	19000215 	stw	r4,8(r3)
 20044a8:	8463883a 	add	r17,r16,r17
 20044ac:	9c400515 	stw	r17,20(r19)
 20044b0:	9c400415 	stw	r17,16(r19)
 20044b4:	10c00054 	ori	r3,r2,1
 20044b8:	8a400315 	stw	r9,12(r17)
 20044bc:	8a400215 	stw	r9,8(r17)
 20044c0:	88c00115 	stw	r3,4(r17)
 20044c4:	88a3883a 	add	r17,r17,r2
 20044c8:	88800015 	stw	r2,0(r17)
 20044cc:	9009883a 	mov	r4,r18
 20044d0:	2017e480 	call	2017e48 <__malloc_unlock>
 20044d4:	80800204 	addi	r2,r16,8
 20044d8:	003f7b06 	br	20042c8 <__reset+0xfdffb2c8>
 20044dc:	01401f84 	movi	r5,126
 20044e0:	01000fc4 	movi	r4,63
 20044e4:	003f9106 	br	200432c <__reset+0xfdffb32c>
 20044e8:	80800317 	ldw	r2,12(r16)
 20044ec:	81000217 	ldw	r4,8(r16)
 20044f0:	80c7883a 	add	r3,r16,r3
 20044f4:	19400117 	ldw	r5,4(r3)
 20044f8:	20800315 	stw	r2,12(r4)
 20044fc:	11000215 	stw	r4,8(r2)
 2004500:	28800054 	ori	r2,r5,1
 2004504:	18800115 	stw	r2,4(r3)
 2004508:	9009883a 	mov	r4,r18
 200450c:	2017e480 	call	2017e48 <__malloc_unlock>
 2004510:	80800204 	addi	r2,r16,8
 2004514:	003f6c06 	br	20042c8 <__reset+0xfdffb2c8>
 2004518:	8085883a 	add	r2,r16,r2
 200451c:	10c00117 	ldw	r3,4(r2)
 2004520:	9009883a 	mov	r4,r18
 2004524:	18c00054 	ori	r3,r3,1
 2004528:	10c00115 	stw	r3,4(r2)
 200452c:	2017e480 	call	2017e48 <__malloc_unlock>
 2004530:	80800204 	addi	r2,r16,8
 2004534:	003f6406 	br	20042c8 <__reset+0xfdffb2c8>
 2004538:	9c000217 	ldw	r16,8(r19)
 200453c:	00bfff04 	movi	r2,-4
 2004540:	85400117 	ldw	r21,4(r16)
 2004544:	a8aa703a 	and	r21,r21,r2
 2004548:	ac400336 	bltu	r21,r17,2004558 <_malloc_r+0x348>
 200454c:	ac45c83a 	sub	r2,r21,r17
 2004550:	00c003c4 	movi	r3,15
 2004554:	18805d16 	blt	r3,r2,20046cc <_malloc_r+0x4bc>
 2004558:	008082b4 	movhi	r2,522
 200455c:	10979304 	addi	r2,r2,24140
 2004560:	00c082b4 	movhi	r3,522
 2004564:	18d77c04 	addi	r3,r3,24048
 2004568:	15c00017 	ldw	r23,0(r2)
 200456c:	19000017 	ldw	r4,0(r3)
 2004570:	00bfffc4 	movi	r2,-1
 2004574:	8579883a 	add	fp,r16,r21
 2004578:	8def883a 	add	r23,r17,r23
 200457c:	2080e426 	beq	r4,r2,2004910 <_malloc_r+0x700>
 2004580:	bdc403c4 	addi	r23,r23,4111
 2004584:	00bc0004 	movi	r2,-4096
 2004588:	b8ae703a 	and	r23,r23,r2
 200458c:	9009883a 	mov	r4,r18
 2004590:	b80b883a 	mov	r5,r23
 2004594:	d8c00015 	stw	r3,0(sp)
 2004598:	2004c1c0 	call	2004c1c <_sbrk_r>
 200459c:	1029883a 	mov	r20,r2
 20045a0:	00bfffc4 	movi	r2,-1
 20045a4:	d8c00017 	ldw	r3,0(sp)
 20045a8:	a080a426 	beq	r20,r2,200483c <_malloc_r+0x62c>
 20045ac:	a700a236 	bltu	r20,fp,2004838 <_malloc_r+0x628>
 20045b0:	058082b4 	movhi	r22,522
 20045b4:	b597a504 	addi	r22,r22,24212
 20045b8:	b0800017 	ldw	r2,0(r22)
 20045bc:	b885883a 	add	r2,r23,r2
 20045c0:	b0800015 	stw	r2,0(r22)
 20045c4:	e500da26 	beq	fp,r20,2004930 <_malloc_r+0x720>
 20045c8:	19000017 	ldw	r4,0(r3)
 20045cc:	00ffffc4 	movi	r3,-1
 20045d0:	20c0e426 	beq	r4,r3,2004964 <_malloc_r+0x754>
 20045d4:	a739c83a 	sub	fp,r20,fp
 20045d8:	1705883a 	add	r2,r2,fp
 20045dc:	b0800015 	stw	r2,0(r22)
 20045e0:	a08001cc 	andi	r2,r20,7
 20045e4:	1000b526 	beq	r2,zero,20048bc <_malloc_r+0x6ac>
 20045e8:	a0a9c83a 	sub	r20,r20,r2
 20045ec:	00c40204 	movi	r3,4104
 20045f0:	a5000204 	addi	r20,r20,8
 20045f4:	1885c83a 	sub	r2,r3,r2
 20045f8:	a5c7883a 	add	r3,r20,r23
 20045fc:	18c3ffcc 	andi	r3,r3,4095
 2004600:	10efc83a 	sub	r23,r2,r3
 2004604:	9009883a 	mov	r4,r18
 2004608:	b80b883a 	mov	r5,r23
 200460c:	2004c1c0 	call	2004c1c <_sbrk_r>
 2004610:	00ffffc4 	movi	r3,-1
 2004614:	10c0d026 	beq	r2,r3,2004958 <_malloc_r+0x748>
 2004618:	1505c83a 	sub	r2,r2,r20
 200461c:	b887883a 	add	r3,r23,r2
 2004620:	18c00054 	ori	r3,r3,1
 2004624:	b0800017 	ldw	r2,0(r22)
 2004628:	9d000215 	stw	r20,8(r19)
 200462c:	a0c00115 	stw	r3,4(r20)
 2004630:	b885883a 	add	r2,r23,r2
 2004634:	b0800015 	stw	r2,0(r22)
 2004638:	84c00e26 	beq	r16,r19,2004674 <_malloc_r+0x464>
 200463c:	00c003c4 	movi	r3,15
 2004640:	1d40a02e 	bgeu	r3,r21,20048c4 <_malloc_r+0x6b4>
 2004644:	81400117 	ldw	r5,4(r16)
 2004648:	ad7ffd04 	addi	r21,r21,-12
 200464c:	013ffe04 	movi	r4,-8
 2004650:	a908703a 	and	r4,r21,r4
 2004654:	2940004c 	andi	r5,r5,1
 2004658:	214ab03a 	or	r5,r4,r5
 200465c:	81400115 	stw	r5,4(r16)
 2004660:	01800144 	movi	r6,5
 2004664:	810b883a 	add	r5,r16,r4
 2004668:	29800115 	stw	r6,4(r5)
 200466c:	29800215 	stw	r6,8(r5)
 2004670:	1900c036 	bltu	r3,r4,2004974 <_malloc_r+0x764>
 2004674:	00c082b4 	movhi	r3,522
 2004678:	18d79204 	addi	r3,r3,24136
 200467c:	19000017 	ldw	r4,0(r3)
 2004680:	2080012e 	bgeu	r4,r2,2004688 <_malloc_r+0x478>
 2004684:	18800015 	stw	r2,0(r3)
 2004688:	00c082b4 	movhi	r3,522
 200468c:	18d79104 	addi	r3,r3,24132
 2004690:	19000017 	ldw	r4,0(r3)
 2004694:	9c000217 	ldw	r16,8(r19)
 2004698:	2080012e 	bgeu	r4,r2,20046a0 <_malloc_r+0x490>
 200469c:	18800015 	stw	r2,0(r3)
 20046a0:	80c00117 	ldw	r3,4(r16)
 20046a4:	00bfff04 	movi	r2,-4
 20046a8:	1886703a 	and	r3,r3,r2
 20046ac:	1c45c83a 	sub	r2,r3,r17
 20046b0:	1c400236 	bltu	r3,r17,20046bc <_malloc_r+0x4ac>
 20046b4:	00c003c4 	movi	r3,15
 20046b8:	18800416 	blt	r3,r2,20046cc <_malloc_r+0x4bc>
 20046bc:	9009883a 	mov	r4,r18
 20046c0:	2017e480 	call	2017e48 <__malloc_unlock>
 20046c4:	0005883a 	mov	r2,zero
 20046c8:	003eff06 	br	20042c8 <__reset+0xfdffb2c8>
 20046cc:	88c00054 	ori	r3,r17,1
 20046d0:	80c00115 	stw	r3,4(r16)
 20046d4:	8463883a 	add	r17,r16,r17
 20046d8:	10800054 	ori	r2,r2,1
 20046dc:	9c400215 	stw	r17,8(r19)
 20046e0:	88800115 	stw	r2,4(r17)
 20046e4:	9009883a 	mov	r4,r18
 20046e8:	2017e480 	call	2017e48 <__malloc_unlock>
 20046ec:	80800204 	addi	r2,r16,8
 20046f0:	003ef506 	br	20042c8 <__reset+0xfdffb2c8>
 20046f4:	00800504 	movi	r2,20
 20046f8:	1100482e 	bgeu	r2,r4,200481c <_malloc_r+0x60c>
 20046fc:	00801504 	movi	r2,84
 2004700:	11006836 	bltu	r2,r4,20048a4 <_malloc_r+0x694>
 2004704:	8808d33a 	srli	r4,r17,12
 2004708:	21001b84 	addi	r4,r4,110
 200470c:	210b883a 	add	r5,r4,r4
 2004710:	003f0606 	br	200432c <__reset+0xfdffb32c>
 2004714:	1006d27a 	srli	r3,r2,9
 2004718:	01400104 	movi	r5,4
 200471c:	28c0422e 	bgeu	r5,r3,2004828 <_malloc_r+0x618>
 2004720:	01400504 	movi	r5,20
 2004724:	28c07c36 	bltu	r5,r3,2004918 <_malloc_r+0x708>
 2004728:	194016c4 	addi	r5,r3,91
 200472c:	294d883a 	add	r6,r5,r5
 2004730:	318d883a 	add	r6,r6,r6
 2004734:	318d883a 	add	r6,r6,r6
 2004738:	998d883a 	add	r6,r19,r6
 200473c:	30c00217 	ldw	r3,8(r6)
 2004740:	01c082b4 	movhi	r7,522
 2004744:	39d16804 	addi	r7,r7,17824
 2004748:	19806326 	beq	r3,r6,20048d8 <_malloc_r+0x6c8>
 200474c:	01ffff04 	movi	r7,-4
 2004750:	19400117 	ldw	r5,4(r3)
 2004754:	29ca703a 	and	r5,r5,r7
 2004758:	1140022e 	bgeu	r2,r5,2004764 <_malloc_r+0x554>
 200475c:	18c00217 	ldw	r3,8(r3)
 2004760:	30fffb1e 	bne	r6,r3,2004750 <__reset+0xfdffb750>
 2004764:	19400317 	ldw	r5,12(r3)
 2004768:	98800117 	ldw	r2,4(r19)
 200476c:	81400315 	stw	r5,12(r16)
 2004770:	80c00215 	stw	r3,8(r16)
 2004774:	2c000215 	stw	r16,8(r5)
 2004778:	1c000315 	stw	r16,12(r3)
 200477c:	003f2106 	br	2004404 <__reset+0xfdffb404>
 2004780:	88800054 	ori	r2,r17,1
 2004784:	80800115 	stw	r2,4(r16)
 2004788:	8463883a 	add	r17,r16,r17
 200478c:	1c400515 	stw	r17,20(r3)
 2004790:	1c400415 	stw	r17,16(r3)
 2004794:	28800054 	ori	r2,r5,1
 2004798:	88800115 	stw	r2,4(r17)
 200479c:	8a400315 	stw	r9,12(r17)
 20047a0:	8a400215 	stw	r9,8(r17)
 20047a4:	8963883a 	add	r17,r17,r5
 20047a8:	89400015 	stw	r5,0(r17)
 20047ac:	9009883a 	mov	r4,r18
 20047b0:	2017e480 	call	2017e48 <__malloc_unlock>
 20047b4:	80800204 	addi	r2,r16,8
 20047b8:	003ec306 	br	20042c8 <__reset+0xfdffb2c8>
 20047bc:	18800117 	ldw	r2,4(r3)
 20047c0:	003f1006 	br	2004404 <__reset+0xfdffb404>
 20047c4:	63000044 	addi	r12,r12,1
 20047c8:	608000cc 	andi	r2,r12,3
 20047cc:	52800204 	addi	r10,r10,8
 20047d0:	103f241e 	bne	r2,zero,2004464 <__reset+0xfdffb464>
 20047d4:	00002106 	br	200485c <_malloc_r+0x64c>
 20047d8:	80800204 	addi	r2,r16,8
 20047dc:	84000517 	ldw	r16,20(r16)
 20047e0:	143eab1e 	bne	r2,r16,2004290 <__reset+0xfdffb290>
 20047e4:	21000084 	addi	r4,r4,2
 20047e8:	003ee606 	br	2004384 <__reset+0xfdffb384>
 20047ec:	80c7883a 	add	r3,r16,r3
 20047f0:	19400117 	ldw	r5,4(r3)
 20047f4:	80800317 	ldw	r2,12(r16)
 20047f8:	81000217 	ldw	r4,8(r16)
 20047fc:	29400054 	ori	r5,r5,1
 2004800:	19400115 	stw	r5,4(r3)
 2004804:	20800315 	stw	r2,12(r4)
 2004808:	11000215 	stw	r4,8(r2)
 200480c:	9009883a 	mov	r4,r18
 2004810:	2017e480 	call	2017e48 <__malloc_unlock>
 2004814:	80800204 	addi	r2,r16,8
 2004818:	003eab06 	br	20042c8 <__reset+0xfdffb2c8>
 200481c:	210016c4 	addi	r4,r4,91
 2004820:	210b883a 	add	r5,r4,r4
 2004824:	003ec106 	br	200432c <__reset+0xfdffb32c>
 2004828:	100ad1ba 	srli	r5,r2,6
 200482c:	29400e04 	addi	r5,r5,56
 2004830:	294d883a 	add	r6,r5,r5
 2004834:	003fbe06 	br	2004730 <__reset+0xfdffb730>
 2004838:	84ff5d26 	beq	r16,r19,20045b0 <__reset+0xfdffb5b0>
 200483c:	9c000217 	ldw	r16,8(r19)
 2004840:	00bfff04 	movi	r2,-4
 2004844:	80c00117 	ldw	r3,4(r16)
 2004848:	1886703a 	and	r3,r3,r2
 200484c:	003f9706 	br	20046ac <__reset+0xfdffb6ac>
 2004850:	5ac00017 	ldw	r11,0(r11)
 2004854:	213fffc4 	addi	r4,r4,-1
 2004858:	58805c1e 	bne	r11,r2,20049cc <_malloc_r+0x7bc>
 200485c:	20c000cc 	andi	r3,r4,3
 2004860:	58bffe04 	addi	r2,r11,-8
 2004864:	183ffa1e 	bne	r3,zero,2004850 <__reset+0xfdffb850>
 2004868:	98800117 	ldw	r2,4(r19)
 200486c:	0146303a 	nor	r3,zero,r5
 2004870:	1884703a 	and	r2,r3,r2
 2004874:	98800115 	stw	r2,4(r19)
 2004878:	294b883a 	add	r5,r5,r5
 200487c:	117f2e36 	bltu	r2,r5,2004538 <__reset+0xfdffb538>
 2004880:	283f2d26 	beq	r5,zero,2004538 <__reset+0xfdffb538>
 2004884:	1146703a 	and	r3,r2,r5
 2004888:	6009883a 	mov	r4,r12
 200488c:	183eef1e 	bne	r3,zero,200444c <__reset+0xfdffb44c>
 2004890:	294b883a 	add	r5,r5,r5
 2004894:	1146703a 	and	r3,r2,r5
 2004898:	21000104 	addi	r4,r4,4
 200489c:	183ffc26 	beq	r3,zero,2004890 <__reset+0xfdffb890>
 20048a0:	003eea06 	br	200444c <__reset+0xfdffb44c>
 20048a4:	00805504 	movi	r2,340
 20048a8:	11001336 	bltu	r2,r4,20048f8 <_malloc_r+0x6e8>
 20048ac:	8808d3fa 	srli	r4,r17,15
 20048b0:	21001dc4 	addi	r4,r4,119
 20048b4:	210b883a 	add	r5,r4,r4
 20048b8:	003e9c06 	br	200432c <__reset+0xfdffb32c>
 20048bc:	00840004 	movi	r2,4096
 20048c0:	003f4d06 	br	20045f8 <__reset+0xfdffb5f8>
 20048c4:	00800044 	movi	r2,1
 20048c8:	a0800115 	stw	r2,4(r20)
 20048cc:	a021883a 	mov	r16,r20
 20048d0:	0007883a 	mov	r3,zero
 20048d4:	003f7506 	br	20046ac <__reset+0xfdffb6ac>
 20048d8:	280bd0ba 	srai	r5,r5,2
 20048dc:	01800044 	movi	r6,1
 20048e0:	38800117 	ldw	r2,4(r7)
 20048e4:	314c983a 	sll	r6,r6,r5
 20048e8:	180b883a 	mov	r5,r3
 20048ec:	3084b03a 	or	r2,r6,r2
 20048f0:	38800115 	stw	r2,4(r7)
 20048f4:	003f9d06 	br	200476c <__reset+0xfdffb76c>
 20048f8:	00815504 	movi	r2,1364
 20048fc:	11001336 	bltu	r2,r4,200494c <_malloc_r+0x73c>
 2004900:	8808d4ba 	srli	r4,r17,18
 2004904:	21001f04 	addi	r4,r4,124
 2004908:	210b883a 	add	r5,r4,r4
 200490c:	003e8706 	br	200432c <__reset+0xfdffb32c>
 2004910:	bdc00404 	addi	r23,r23,16
 2004914:	003f1d06 	br	200458c <__reset+0xfdffb58c>
 2004918:	01401504 	movi	r5,84
 200491c:	28c01c36 	bltu	r5,r3,2004990 <_malloc_r+0x780>
 2004920:	100ad33a 	srli	r5,r2,12
 2004924:	29401b84 	addi	r5,r5,110
 2004928:	294d883a 	add	r6,r5,r5
 200492c:	003f8006 	br	2004730 <__reset+0xfdffb730>
 2004930:	e103ffcc 	andi	r4,fp,4095
 2004934:	203f241e 	bne	r4,zero,20045c8 <__reset+0xfdffb5c8>
 2004938:	98c00217 	ldw	r3,8(r19)
 200493c:	bd49883a 	add	r4,r23,r21
 2004940:	21000054 	ori	r4,r4,1
 2004944:	19000115 	stw	r4,4(r3)
 2004948:	003f4a06 	br	2004674 <__reset+0xfdffb674>
 200494c:	01403f04 	movi	r5,252
 2004950:	01001f84 	movi	r4,126
 2004954:	003e7506 	br	200432c <__reset+0xfdffb32c>
 2004958:	00c00044 	movi	r3,1
 200495c:	002f883a 	mov	r23,zero
 2004960:	003f3006 	br	2004624 <__reset+0xfdffb624>
 2004964:	008082b4 	movhi	r2,522
 2004968:	10977c04 	addi	r2,r2,24048
 200496c:	15000015 	stw	r20,0(r2)
 2004970:	003f1b06 	br	20045e0 <__reset+0xfdffb5e0>
 2004974:	9009883a 	mov	r4,r18
 2004978:	81400204 	addi	r5,r16,8
 200497c:	2003de00 	call	2003de0 <_free_r>
 2004980:	008082b4 	movhi	r2,522
 2004984:	1097a504 	addi	r2,r2,24212
 2004988:	10800017 	ldw	r2,0(r2)
 200498c:	003f3906 	br	2004674 <__reset+0xfdffb674>
 2004990:	01405504 	movi	r5,340
 2004994:	28c00436 	bltu	r5,r3,20049a8 <_malloc_r+0x798>
 2004998:	100ad3fa 	srli	r5,r2,15
 200499c:	29401dc4 	addi	r5,r5,119
 20049a0:	294d883a 	add	r6,r5,r5
 20049a4:	003f6206 	br	2004730 <__reset+0xfdffb730>
 20049a8:	01415504 	movi	r5,1364
 20049ac:	28c00436 	bltu	r5,r3,20049c0 <_malloc_r+0x7b0>
 20049b0:	100ad4ba 	srli	r5,r2,18
 20049b4:	29401f04 	addi	r5,r5,124
 20049b8:	294d883a 	add	r6,r5,r5
 20049bc:	003f5c06 	br	2004730 <__reset+0xfdffb730>
 20049c0:	01803f04 	movi	r6,252
 20049c4:	01401f84 	movi	r5,126
 20049c8:	003f5906 	br	2004730 <__reset+0xfdffb730>
 20049cc:	98800117 	ldw	r2,4(r19)
 20049d0:	003fa906 	br	2004878 <__reset+0xfdffb878>

020049d4 <memset>:
 20049d4:	20c000cc 	andi	r3,r4,3
 20049d8:	2005883a 	mov	r2,r4
 20049dc:	18003f26 	beq	r3,zero,2004adc <memset+0x108>
 20049e0:	31ffffc4 	addi	r7,r6,-1
 20049e4:	30003b26 	beq	r6,zero,2004ad4 <memset+0x100>
 20049e8:	2813883a 	mov	r9,r5
 20049ec:	200d883a 	mov	r6,r4
 20049f0:	2007883a 	mov	r3,r4
 20049f4:	00000406 	br	2004a08 <memset+0x34>
 20049f8:	3a3fffc4 	addi	r8,r7,-1
 20049fc:	31800044 	addi	r6,r6,1
 2004a00:	38003426 	beq	r7,zero,2004ad4 <memset+0x100>
 2004a04:	400f883a 	mov	r7,r8
 2004a08:	18c00044 	addi	r3,r3,1
 2004a0c:	32400005 	stb	r9,0(r6)
 2004a10:	1a0000cc 	andi	r8,r3,3
 2004a14:	403ff81e 	bne	r8,zero,20049f8 <__reset+0xfdffb9f8>
 2004a18:	010000c4 	movi	r4,3
 2004a1c:	21c0282e 	bgeu	r4,r7,2004ac0 <memset+0xec>
 2004a20:	29003fcc 	andi	r4,r5,255
 2004a24:	2010923a 	slli	r8,r4,8
 2004a28:	4108b03a 	or	r4,r8,r4
 2004a2c:	2010943a 	slli	r8,r4,16
 2004a30:	4110b03a 	or	r8,r8,r4
 2004a34:	010003c4 	movi	r4,15
 2004a38:	21c0122e 	bgeu	r4,r7,2004a84 <memset+0xb0>
 2004a3c:	3a7ffc04 	addi	r9,r7,-16
 2004a40:	4812d13a 	srli	r9,r9,4
 2004a44:	19000404 	addi	r4,r3,16
 2004a48:	180d883a 	mov	r6,r3
 2004a4c:	4814913a 	slli	r10,r9,4
 2004a50:	2289883a 	add	r4,r4,r10
 2004a54:	32000015 	stw	r8,0(r6)
 2004a58:	32000115 	stw	r8,4(r6)
 2004a5c:	32000215 	stw	r8,8(r6)
 2004a60:	32000315 	stw	r8,12(r6)
 2004a64:	31800404 	addi	r6,r6,16
 2004a68:	313ffa1e 	bne	r6,r4,2004a54 <__reset+0xfdffba54>
 2004a6c:	4a400044 	addi	r9,r9,1
 2004a70:	4812913a 	slli	r9,r9,4
 2004a74:	39c003cc 	andi	r7,r7,15
 2004a78:	010000c4 	movi	r4,3
 2004a7c:	1a47883a 	add	r3,r3,r9
 2004a80:	21c00f2e 	bgeu	r4,r7,2004ac0 <memset+0xec>
 2004a84:	3a7fff04 	addi	r9,r7,-4
 2004a88:	4812d0ba 	srli	r9,r9,2
 2004a8c:	19000104 	addi	r4,r3,4
 2004a90:	180d883a 	mov	r6,r3
 2004a94:	4a55883a 	add	r10,r9,r9
 2004a98:	5295883a 	add	r10,r10,r10
 2004a9c:	2289883a 	add	r4,r4,r10
 2004aa0:	32000015 	stw	r8,0(r6)
 2004aa4:	31800104 	addi	r6,r6,4
 2004aa8:	313ffd1e 	bne	r6,r4,2004aa0 <__reset+0xfdffbaa0>
 2004aac:	4a400044 	addi	r9,r9,1
 2004ab0:	4a53883a 	add	r9,r9,r9
 2004ab4:	4a53883a 	add	r9,r9,r9
 2004ab8:	1a47883a 	add	r3,r3,r9
 2004abc:	39c000cc 	andi	r7,r7,3
 2004ac0:	38000526 	beq	r7,zero,2004ad8 <memset+0x104>
 2004ac4:	19cf883a 	add	r7,r3,r7
 2004ac8:	19400005 	stb	r5,0(r3)
 2004acc:	18c00044 	addi	r3,r3,1
 2004ad0:	19fffd1e 	bne	r3,r7,2004ac8 <__reset+0xfdffbac8>
 2004ad4:	f800283a 	ret
 2004ad8:	f800283a 	ret
 2004adc:	2007883a 	mov	r3,r4
 2004ae0:	300f883a 	mov	r7,r6
 2004ae4:	003fcc06 	br	2004a18 <__reset+0xfdffba18>

02004ae8 <_printf_r>:
 2004ae8:	defffd04 	addi	sp,sp,-12
 2004aec:	dfc00015 	stw	ra,0(sp)
 2004af0:	d9800115 	stw	r6,4(sp)
 2004af4:	d9c00215 	stw	r7,8(sp)
 2004af8:	280d883a 	mov	r6,r5
 2004afc:	21400217 	ldw	r5,8(r4)
 2004b00:	d9c00104 	addi	r7,sp,4
 2004b04:	2004eb40 	call	2004eb4 <___vfprintf_internal_r>
 2004b08:	dfc00017 	ldw	ra,0(sp)
 2004b0c:	dec00304 	addi	sp,sp,12
 2004b10:	f800283a 	ret

02004b14 <printf>:
 2004b14:	defffc04 	addi	sp,sp,-16
 2004b18:	dfc00015 	stw	ra,0(sp)
 2004b1c:	d9400115 	stw	r5,4(sp)
 2004b20:	d9800215 	stw	r6,8(sp)
 2004b24:	d9c00315 	stw	r7,12(sp)
 2004b28:	008082b4 	movhi	r2,522
 2004b2c:	10977b04 	addi	r2,r2,24044
 2004b30:	10800017 	ldw	r2,0(r2)
 2004b34:	200b883a 	mov	r5,r4
 2004b38:	d9800104 	addi	r6,sp,4
 2004b3c:	11000217 	ldw	r4,8(r2)
 2004b40:	20070080 	call	2007008 <__vfprintf_internal>
 2004b44:	dfc00017 	ldw	ra,0(sp)
 2004b48:	dec00404 	addi	sp,sp,16
 2004b4c:	f800283a 	ret

02004b50 <_puts_r>:
 2004b50:	defff604 	addi	sp,sp,-40
 2004b54:	dc400815 	stw	r17,32(sp)
 2004b58:	2023883a 	mov	r17,r4
 2004b5c:	2809883a 	mov	r4,r5
 2004b60:	dc000715 	stw	r16,28(sp)
 2004b64:	dfc00915 	stw	ra,36(sp)
 2004b68:	2821883a 	mov	r16,r5
 2004b6c:	2004e280 	call	2004e28 <strlen>
 2004b70:	00c082b4 	movhi	r3,522
 2004b74:	18d77b04 	addi	r3,r3,24044
 2004b78:	18c00017 	ldw	r3,0(r3)
 2004b7c:	11000044 	addi	r4,r2,1
 2004b80:	d8800115 	stw	r2,4(sp)
 2004b84:	18c00217 	ldw	r3,8(r3)
 2004b88:	008082b4 	movhi	r2,522
 2004b8c:	108ee404 	addi	r2,r2,15248
 2004b90:	d8800215 	stw	r2,8(sp)
 2004b94:	1940030b 	ldhu	r5,12(r3)
 2004b98:	00800044 	movi	r2,1
 2004b9c:	d8800315 	stw	r2,12(sp)
 2004ba0:	00800084 	movi	r2,2
 2004ba4:	d8800515 	stw	r2,20(sp)
 2004ba8:	dc000015 	stw	r16,0(sp)
 2004bac:	d9000615 	stw	r4,24(sp)
 2004bb0:	dec00415 	stw	sp,16(sp)
 2004bb4:	2888000c 	andi	r2,r5,8192
 2004bb8:	1000061e 	bne	r2,zero,2004bd4 <_puts_r+0x84>
 2004bbc:	19001917 	ldw	r4,100(r3)
 2004bc0:	00b7ffc4 	movi	r2,-8193
 2004bc4:	29480014 	ori	r5,r5,8192
 2004bc8:	2084703a 	and	r2,r4,r2
 2004bcc:	1940030d 	sth	r5,12(r3)
 2004bd0:	18801915 	stw	r2,100(r3)
 2004bd4:	89400217 	ldw	r5,8(r17)
 2004bd8:	8809883a 	mov	r4,r17
 2004bdc:	d9800404 	addi	r6,sp,16
 2004be0:	200a7080 	call	200a708 <__sfvwrite_r>
 2004be4:	1000061e 	bne	r2,zero,2004c00 <_puts_r+0xb0>
 2004be8:	00800284 	movi	r2,10
 2004bec:	dfc00917 	ldw	ra,36(sp)
 2004bf0:	dc400817 	ldw	r17,32(sp)
 2004bf4:	dc000717 	ldw	r16,28(sp)
 2004bf8:	dec00a04 	addi	sp,sp,40
 2004bfc:	f800283a 	ret
 2004c00:	00bfffc4 	movi	r2,-1
 2004c04:	003ff906 	br	2004bec <__reset+0xfdffbbec>

02004c08 <puts>:
 2004c08:	008082b4 	movhi	r2,522
 2004c0c:	10977b04 	addi	r2,r2,24044
 2004c10:	200b883a 	mov	r5,r4
 2004c14:	11000017 	ldw	r4,0(r2)
 2004c18:	2004b501 	jmpi	2004b50 <_puts_r>

02004c1c <_sbrk_r>:
 2004c1c:	defffd04 	addi	sp,sp,-12
 2004c20:	dc400115 	stw	r17,4(sp)
 2004c24:	dc000015 	stw	r16,0(sp)
 2004c28:	2023883a 	mov	r17,r4
 2004c2c:	040082b4 	movhi	r16,522
 2004c30:	84179404 	addi	r16,r16,24144
 2004c34:	2809883a 	mov	r4,r5
 2004c38:	dfc00215 	stw	ra,8(sp)
 2004c3c:	80000015 	stw	zero,0(r16)
 2004c40:	20180300 	call	2018030 <sbrk>
 2004c44:	00ffffc4 	movi	r3,-1
 2004c48:	10c00526 	beq	r2,r3,2004c60 <_sbrk_r+0x44>
 2004c4c:	dfc00217 	ldw	ra,8(sp)
 2004c50:	dc400117 	ldw	r17,4(sp)
 2004c54:	dc000017 	ldw	r16,0(sp)
 2004c58:	dec00304 	addi	sp,sp,12
 2004c5c:	f800283a 	ret
 2004c60:	80c00017 	ldw	r3,0(r16)
 2004c64:	183ff926 	beq	r3,zero,2004c4c <__reset+0xfdffbc4c>
 2004c68:	88c00015 	stw	r3,0(r17)
 2004c6c:	dfc00217 	ldw	ra,8(sp)
 2004c70:	dc400117 	ldw	r17,4(sp)
 2004c74:	dc000017 	ldw	r16,0(sp)
 2004c78:	dec00304 	addi	sp,sp,12
 2004c7c:	f800283a 	ret

02004c80 <scanf>:
 2004c80:	defffc04 	addi	sp,sp,-16
 2004c84:	dfc00015 	stw	ra,0(sp)
 2004c88:	d9400115 	stw	r5,4(sp)
 2004c8c:	d9800215 	stw	r6,8(sp)
 2004c90:	d9c00315 	stw	r7,12(sp)
 2004c94:	008082b4 	movhi	r2,522
 2004c98:	10977b04 	addi	r2,r2,24044
 2004c9c:	10800017 	ldw	r2,0(r2)
 2004ca0:	200d883a 	mov	r6,r4
 2004ca4:	d9c00104 	addi	r7,sp,4
 2004ca8:	11400117 	ldw	r5,4(r2)
 2004cac:	1009883a 	mov	r4,r2
 2004cb0:	200702c0 	call	200702c <__svfscanf_r>
 2004cb4:	dfc00017 	ldw	ra,0(sp)
 2004cb8:	dec00404 	addi	sp,sp,16
 2004cbc:	f800283a 	ret

02004cc0 <_scanf_r>:
 2004cc0:	defffd04 	addi	sp,sp,-12
 2004cc4:	dfc00015 	stw	ra,0(sp)
 2004cc8:	d9800115 	stw	r6,4(sp)
 2004ccc:	d9c00215 	stw	r7,8(sp)
 2004cd0:	280d883a 	mov	r6,r5
 2004cd4:	21400117 	ldw	r5,4(r4)
 2004cd8:	d9c00104 	addi	r7,sp,4
 2004cdc:	200702c0 	call	200702c <__svfscanf_r>
 2004ce0:	dfc00017 	ldw	ra,0(sp)
 2004ce4:	dec00304 	addi	sp,sp,12
 2004ce8:	f800283a 	ret

02004cec <__sread>:
 2004cec:	defffe04 	addi	sp,sp,-8
 2004cf0:	dc000015 	stw	r16,0(sp)
 2004cf4:	2821883a 	mov	r16,r5
 2004cf8:	2940038f 	ldh	r5,14(r5)
 2004cfc:	dfc00115 	stw	ra,4(sp)
 2004d00:	200c46c0 	call	200c46c <_read_r>
 2004d04:	10000716 	blt	r2,zero,2004d24 <__sread+0x38>
 2004d08:	80c01417 	ldw	r3,80(r16)
 2004d0c:	1887883a 	add	r3,r3,r2
 2004d10:	80c01415 	stw	r3,80(r16)
 2004d14:	dfc00117 	ldw	ra,4(sp)
 2004d18:	dc000017 	ldw	r16,0(sp)
 2004d1c:	dec00204 	addi	sp,sp,8
 2004d20:	f800283a 	ret
 2004d24:	80c0030b 	ldhu	r3,12(r16)
 2004d28:	18fbffcc 	andi	r3,r3,61439
 2004d2c:	80c0030d 	sth	r3,12(r16)
 2004d30:	dfc00117 	ldw	ra,4(sp)
 2004d34:	dc000017 	ldw	r16,0(sp)
 2004d38:	dec00204 	addi	sp,sp,8
 2004d3c:	f800283a 	ret

02004d40 <__seofread>:
 2004d40:	0005883a 	mov	r2,zero
 2004d44:	f800283a 	ret

02004d48 <__swrite>:
 2004d48:	2880030b 	ldhu	r2,12(r5)
 2004d4c:	defffb04 	addi	sp,sp,-20
 2004d50:	dcc00315 	stw	r19,12(sp)
 2004d54:	dc800215 	stw	r18,8(sp)
 2004d58:	dc400115 	stw	r17,4(sp)
 2004d5c:	dc000015 	stw	r16,0(sp)
 2004d60:	dfc00415 	stw	ra,16(sp)
 2004d64:	10c0400c 	andi	r3,r2,256
 2004d68:	2821883a 	mov	r16,r5
 2004d6c:	2027883a 	mov	r19,r4
 2004d70:	3025883a 	mov	r18,r6
 2004d74:	3823883a 	mov	r17,r7
 2004d78:	18000526 	beq	r3,zero,2004d90 <__swrite+0x48>
 2004d7c:	2940038f 	ldh	r5,14(r5)
 2004d80:	000d883a 	mov	r6,zero
 2004d84:	01c00084 	movi	r7,2
 2004d88:	200acb80 	call	200acb8 <_lseek_r>
 2004d8c:	8080030b 	ldhu	r2,12(r16)
 2004d90:	8140038f 	ldh	r5,14(r16)
 2004d94:	10bbffcc 	andi	r2,r2,61439
 2004d98:	9809883a 	mov	r4,r19
 2004d9c:	900d883a 	mov	r6,r18
 2004da0:	880f883a 	mov	r7,r17
 2004da4:	8080030d 	sth	r2,12(r16)
 2004da8:	dfc00417 	ldw	ra,16(sp)
 2004dac:	dcc00317 	ldw	r19,12(sp)
 2004db0:	dc800217 	ldw	r18,8(sp)
 2004db4:	dc400117 	ldw	r17,4(sp)
 2004db8:	dc000017 	ldw	r16,0(sp)
 2004dbc:	dec00504 	addi	sp,sp,20
 2004dc0:	20088d01 	jmpi	20088d0 <_write_r>

02004dc4 <__sseek>:
 2004dc4:	defffe04 	addi	sp,sp,-8
 2004dc8:	dc000015 	stw	r16,0(sp)
 2004dcc:	2821883a 	mov	r16,r5
 2004dd0:	2940038f 	ldh	r5,14(r5)
 2004dd4:	dfc00115 	stw	ra,4(sp)
 2004dd8:	200acb80 	call	200acb8 <_lseek_r>
 2004ddc:	00ffffc4 	movi	r3,-1
 2004de0:	10c00826 	beq	r2,r3,2004e04 <__sseek+0x40>
 2004de4:	80c0030b 	ldhu	r3,12(r16)
 2004de8:	80801415 	stw	r2,80(r16)
 2004dec:	18c40014 	ori	r3,r3,4096
 2004df0:	80c0030d 	sth	r3,12(r16)
 2004df4:	dfc00117 	ldw	ra,4(sp)
 2004df8:	dc000017 	ldw	r16,0(sp)
 2004dfc:	dec00204 	addi	sp,sp,8
 2004e00:	f800283a 	ret
 2004e04:	80c0030b 	ldhu	r3,12(r16)
 2004e08:	18fbffcc 	andi	r3,r3,61439
 2004e0c:	80c0030d 	sth	r3,12(r16)
 2004e10:	dfc00117 	ldw	ra,4(sp)
 2004e14:	dc000017 	ldw	r16,0(sp)
 2004e18:	dec00204 	addi	sp,sp,8
 2004e1c:	f800283a 	ret

02004e20 <__sclose>:
 2004e20:	2940038f 	ldh	r5,14(r5)
 2004e24:	2008a741 	jmpi	2008a74 <_close_r>

02004e28 <strlen>:
 2004e28:	208000cc 	andi	r2,r4,3
 2004e2c:	10001d26 	beq	r2,zero,2004ea4 <strlen+0x7c>
 2004e30:	20800007 	ldb	r2,0(r4)
 2004e34:	10001d26 	beq	r2,zero,2004eac <strlen+0x84>
 2004e38:	2005883a 	mov	r2,r4
 2004e3c:	00000206 	br	2004e48 <strlen+0x20>
 2004e40:	10c00007 	ldb	r3,0(r2)
 2004e44:	18001526 	beq	r3,zero,2004e9c <strlen+0x74>
 2004e48:	10800044 	addi	r2,r2,1
 2004e4c:	10c000cc 	andi	r3,r2,3
 2004e50:	183ffb1e 	bne	r3,zero,2004e40 <__reset+0xfdffbe40>
 2004e54:	10c00017 	ldw	r3,0(r2)
 2004e58:	01ffbff4 	movhi	r7,65279
 2004e5c:	39ffbfc4 	addi	r7,r7,-257
 2004e60:	01a02074 	movhi	r6,32897
 2004e64:	31a02004 	addi	r6,r6,-32640
 2004e68:	00000206 	br	2004e74 <strlen+0x4c>
 2004e6c:	10800104 	addi	r2,r2,4
 2004e70:	10c00017 	ldw	r3,0(r2)
 2004e74:	19cb883a 	add	r5,r3,r7
 2004e78:	00c6303a 	nor	r3,zero,r3
 2004e7c:	28c6703a 	and	r3,r5,r3
 2004e80:	1986703a 	and	r3,r3,r6
 2004e84:	183ff926 	beq	r3,zero,2004e6c <__reset+0xfdffbe6c>
 2004e88:	10c00007 	ldb	r3,0(r2)
 2004e8c:	18000326 	beq	r3,zero,2004e9c <strlen+0x74>
 2004e90:	10800044 	addi	r2,r2,1
 2004e94:	10c00007 	ldb	r3,0(r2)
 2004e98:	183ffd1e 	bne	r3,zero,2004e90 <__reset+0xfdffbe90>
 2004e9c:	1105c83a 	sub	r2,r2,r4
 2004ea0:	f800283a 	ret
 2004ea4:	2005883a 	mov	r2,r4
 2004ea8:	003fea06 	br	2004e54 <__reset+0xfdffbe54>
 2004eac:	0005883a 	mov	r2,zero
 2004eb0:	f800283a 	ret

02004eb4 <___vfprintf_internal_r>:
 2004eb4:	defeb604 	addi	sp,sp,-1320
 2004eb8:	dfc14915 	stw	ra,1316(sp)
 2004ebc:	dcc14315 	stw	r19,1292(sp)
 2004ec0:	dc414115 	stw	r17,1284(sp)
 2004ec4:	d9012c15 	stw	r4,1200(sp)
 2004ec8:	2827883a 	mov	r19,r5
 2004ecc:	3023883a 	mov	r17,r6
 2004ed0:	d9c12f15 	stw	r7,1212(sp)
 2004ed4:	df014815 	stw	fp,1312(sp)
 2004ed8:	ddc14715 	stw	r23,1308(sp)
 2004edc:	dd814615 	stw	r22,1304(sp)
 2004ee0:	dd414515 	stw	r21,1300(sp)
 2004ee4:	dd014415 	stw	r20,1296(sp)
 2004ee8:	dc814215 	stw	r18,1288(sp)
 2004eec:	dc014015 	stw	r16,1280(sp)
 2004ef0:	200ac840 	call	200ac84 <_localeconv_r>
 2004ef4:	10800017 	ldw	r2,0(r2)
 2004ef8:	1009883a 	mov	r4,r2
 2004efc:	d8813415 	stw	r2,1232(sp)
 2004f00:	2004e280 	call	2004e28 <strlen>
 2004f04:	d8813815 	stw	r2,1248(sp)
 2004f08:	d8812c17 	ldw	r2,1200(sp)
 2004f0c:	10000226 	beq	r2,zero,2004f18 <___vfprintf_internal_r+0x64>
 2004f10:	10800e17 	ldw	r2,56(r2)
 2004f14:	10010826 	beq	r2,zero,2005338 <___vfprintf_internal_r+0x484>
 2004f18:	9880030b 	ldhu	r2,12(r19)
 2004f1c:	1108000c 	andi	r4,r2,8192
 2004f20:	1007883a 	mov	r3,r2
 2004f24:	2000071e 	bne	r4,zero,2004f44 <___vfprintf_internal_r+0x90>
 2004f28:	99001917 	ldw	r4,100(r19)
 2004f2c:	10c80014 	ori	r3,r2,8192
 2004f30:	00b7ffc4 	movi	r2,-8193
 2004f34:	2088703a 	and	r4,r4,r2
 2004f38:	98c0030d 	sth	r3,12(r19)
 2004f3c:	1805883a 	mov	r2,r3
 2004f40:	99001915 	stw	r4,100(r19)
 2004f44:	1900020c 	andi	r4,r3,8
 2004f48:	2000ab26 	beq	r4,zero,20051f8 <___vfprintf_internal_r+0x344>
 2004f4c:	99000417 	ldw	r4,16(r19)
 2004f50:	2000a926 	beq	r4,zero,20051f8 <___vfprintf_internal_r+0x344>
 2004f54:	18c0068c 	andi	r3,r3,26
 2004f58:	01000284 	movi	r4,10
 2004f5c:	1900af26 	beq	r3,r4,200521c <___vfprintf_internal_r+0x368>
 2004f60:	d9010dc4 	addi	r4,sp,1079
 2004f64:	d9410e04 	addi	r5,sp,1080
 2004f68:	d8800404 	addi	r2,sp,16
 2004f6c:	2907c83a 	sub	r3,r5,r4
 2004f70:	d9012815 	stw	r4,1184(sp)
 2004f74:	d9412915 	stw	r5,1188(sp)
 2004f78:	d8811e15 	stw	r2,1144(sp)
 2004f7c:	d8012015 	stw	zero,1152(sp)
 2004f80:	d8011f15 	stw	zero,1148(sp)
 2004f84:	d8013515 	stw	zero,1236(sp)
 2004f88:	d8013715 	stw	zero,1244(sp)
 2004f8c:	d8013915 	stw	zero,1252(sp)
 2004f90:	d8013b15 	stw	zero,1260(sp)
 2004f94:	d8013a15 	stw	zero,1256(sp)
 2004f98:	d8013115 	stw	zero,1220(sp)
 2004f9c:	1011883a 	mov	r8,r2
 2004fa0:	05c082b4 	movhi	r23,522
 2004fa4:	bdcef584 	addi	r23,r23,15318
 2004fa8:	d8c13d15 	stw	r3,1268(sp)
 2004fac:	88800007 	ldb	r2,0(r17)
 2004fb0:	10021126 	beq	r2,zero,20057f8 <___vfprintf_internal_r+0x944>
 2004fb4:	00c00944 	movi	r3,37
 2004fb8:	8821883a 	mov	r16,r17
 2004fbc:	10c0021e 	bne	r2,r3,2004fc8 <___vfprintf_internal_r+0x114>
 2004fc0:	00001406 	br	2005014 <___vfprintf_internal_r+0x160>
 2004fc4:	10c00326 	beq	r2,r3,2004fd4 <___vfprintf_internal_r+0x120>
 2004fc8:	84000044 	addi	r16,r16,1
 2004fcc:	80800007 	ldb	r2,0(r16)
 2004fd0:	103ffc1e 	bne	r2,zero,2004fc4 <__reset+0xfdffbfc4>
 2004fd4:	8465c83a 	sub	r18,r16,r17
 2004fd8:	90000e26 	beq	r18,zero,2005014 <___vfprintf_internal_r+0x160>
 2004fdc:	d8c12017 	ldw	r3,1152(sp)
 2004fe0:	d8811f17 	ldw	r2,1148(sp)
 2004fe4:	44400015 	stw	r17,0(r8)
 2004fe8:	1c87883a 	add	r3,r3,r18
 2004fec:	10800044 	addi	r2,r2,1
 2004ff0:	d8c12015 	stw	r3,1152(sp)
 2004ff4:	44800115 	stw	r18,4(r8)
 2004ff8:	d8811f15 	stw	r2,1148(sp)
 2004ffc:	00c001c4 	movi	r3,7
 2005000:	1880bb16 	blt	r3,r2,20052f0 <___vfprintf_internal_r+0x43c>
 2005004:	42000204 	addi	r8,r8,8
 2005008:	d9013117 	ldw	r4,1220(sp)
 200500c:	2489883a 	add	r4,r4,r18
 2005010:	d9013115 	stw	r4,1220(sp)
 2005014:	80800007 	ldb	r2,0(r16)
 2005018:	1000bc26 	beq	r2,zero,200530c <___vfprintf_internal_r+0x458>
 200501c:	053fffc4 	movi	r20,-1
 2005020:	84400044 	addi	r17,r16,1
 2005024:	84800047 	ldb	r18,1(r16)
 2005028:	d8012785 	stb	zero,1182(sp)
 200502c:	002d883a 	mov	r22,zero
 2005030:	d8013015 	stw	zero,1216(sp)
 2005034:	d8012a15 	stw	zero,1192(sp)
 2005038:	04001604 	movi	r16,88
 200503c:	05400244 	movi	r21,9
 2005040:	4039883a 	mov	fp,r8
 2005044:	a007883a 	mov	r3,r20
 2005048:	8c400044 	addi	r17,r17,1
 200504c:	90bff804 	addi	r2,r18,-32
 2005050:	80832036 	bltu	r16,r2,2005cd4 <___vfprintf_internal_r+0xe20>
 2005054:	1085883a 	add	r2,r2,r2
 2005058:	1085883a 	add	r2,r2,r2
 200505c:	01408034 	movhi	r5,512
 2005060:	29541c04 	addi	r5,r5,20592
 2005064:	1145883a 	add	r2,r2,r5
 2005068:	10800017 	ldw	r2,0(r2)
 200506c:	1000683a 	jmp	r2
 2005070:	02005a74 	movhi	r8,361
 2005074:	02005cd4 	movui	r8,371
 2005078:	02005cd4 	movui	r8,371
 200507c:	02005a90 	cmplti	r8,zero,362
 2005080:	02005cd4 	movui	r8,371
 2005084:	02005cd4 	movui	r8,371
 2005088:	02005cd4 	movui	r8,371
 200508c:	02005cd4 	movui	r8,371
 2005090:	02005cd4 	movui	r8,371
 2005094:	02005cd4 	movui	r8,371
 2005098:	02005aa4 	muli	r8,zero,362
 200509c:	02005344 	movi	r8,333
 20050a0:	02005cd4 	movui	r8,371
 20050a4:	020051e4 	muli	r8,zero,327
 20050a8:	02005350 	cmplti	r8,zero,333
 20050ac:	02005cd4 	movui	r8,371
 20050b0:	020053a0 	cmpeqi	r8,zero,334
 20050b4:	020058b0 	cmpltui	r8,zero,354
 20050b8:	020058b0 	cmpltui	r8,zero,354
 20050bc:	020058b0 	cmpltui	r8,zero,354
 20050c0:	020058b0 	cmpltui	r8,zero,354
 20050c4:	020058b0 	cmpltui	r8,zero,354
 20050c8:	020058b0 	cmpltui	r8,zero,354
 20050cc:	020058b0 	cmpltui	r8,zero,354
 20050d0:	020058b0 	cmpltui	r8,zero,354
 20050d4:	020058b0 	cmpltui	r8,zero,354
 20050d8:	02005cd4 	movui	r8,371
 20050dc:	02005cd4 	movui	r8,371
 20050e0:	02005cd4 	movui	r8,371
 20050e4:	02005cd4 	movui	r8,371
 20050e8:	02005cd4 	movui	r8,371
 20050ec:	02005cd4 	movui	r8,371
 20050f0:	02005cd4 	movui	r8,371
 20050f4:	02005cd4 	movui	r8,371
 20050f8:	02005cd4 	movui	r8,371
 20050fc:	02005cd4 	movui	r8,371
 2005100:	020053b4 	movhi	r8,334
 2005104:	02005800 	call	200580 <__alt_mem_sdram_controller-0x1dffa80>
 2005108:	02005cd4 	movui	r8,371
 200510c:	02005800 	call	200580 <__alt_mem_sdram_controller-0x1dffa80>
 2005110:	02005cd4 	movui	r8,371
 2005114:	02005cd4 	movui	r8,371
 2005118:	02005cd4 	movui	r8,371
 200511c:	02005cd4 	movui	r8,371
 2005120:	020058f8 	rdprs	r8,zero,355
 2005124:	02005cd4 	movui	r8,371
 2005128:	02005cd4 	movui	r8,371
 200512c:	0200590c 	andi	r8,zero,356
 2005130:	02005cd4 	movui	r8,371
 2005134:	02005cd4 	movui	r8,371
 2005138:	02005cd4 	movui	r8,371
 200513c:	02005cd4 	movui	r8,371
 2005140:	02005cd4 	movui	r8,371
 2005144:	02005954 	movui	r8,357
 2005148:	02005cd4 	movui	r8,371
 200514c:	02005cd4 	movui	r8,371
 2005150:	02005ac8 	cmpgei	r8,zero,363
 2005154:	02005cd4 	movui	r8,371
 2005158:	02005cd4 	movui	r8,371
 200515c:	02005cd4 	movui	r8,371
 2005160:	02005cd4 	movui	r8,371
 2005164:	02005cd4 	movui	r8,371
 2005168:	02005cd4 	movui	r8,371
 200516c:	02005cd4 	movui	r8,371
 2005170:	02005cd4 	movui	r8,371
 2005174:	02005cd4 	movui	r8,371
 2005178:	02005cd4 	movui	r8,371
 200517c:	020059cc 	andi	r8,zero,359
 2005180:	02005b44 	movi	r8,365
 2005184:	02005800 	call	200580 <__alt_mem_sdram_controller-0x1dffa80>
 2005188:	02005800 	call	200580 <__alt_mem_sdram_controller-0x1dffa80>
 200518c:	02005800 	call	200580 <__alt_mem_sdram_controller-0x1dffa80>
 2005190:	02005b10 	cmplti	r8,zero,364
 2005194:	02005b44 	movi	r8,365
 2005198:	02005cd4 	movui	r8,371
 200519c:	02005cd4 	movui	r8,371
 20051a0:	02005b24 	muli	r8,zero,364
 20051a4:	02005cd4 	movui	r8,371
 20051a8:	02005994 	movui	r8,358
 20051ac:	02005c54 	movui	r8,369
 20051b0:	02005c00 	call	2005c0 <__alt_mem_sdram_controller-0x1dffa40>
 20051b4:	02005b84 	movi	r8,366
 20051b8:	02005cd4 	movui	r8,371
 20051bc:	02005b98 	cmpnei	r8,zero,366
 20051c0:	02005cd4 	movui	r8,371
 20051c4:	02005c94 	movui	r8,370
 20051c8:	02005cd4 	movui	r8,371
 20051cc:	02005cd4 	movui	r8,371
 20051d0:	02005a0c 	andi	r8,zero,360
 20051d4:	d9413017 	ldw	r5,1216(sp)
 20051d8:	d8812f15 	stw	r2,1212(sp)
 20051dc:	014bc83a 	sub	r5,zero,r5
 20051e0:	d9413015 	stw	r5,1216(sp)
 20051e4:	d8812a17 	ldw	r2,1192(sp)
 20051e8:	10800114 	ori	r2,r2,4
 20051ec:	d8812a15 	stw	r2,1192(sp)
 20051f0:	8c800007 	ldb	r18,0(r17)
 20051f4:	003f9406 	br	2005048 <__reset+0xfdffc048>
 20051f8:	d9012c17 	ldw	r4,1200(sp)
 20051fc:	980b883a 	mov	r5,r19
 2005200:	200893c0 	call	200893c <__swsetup_r>
 2005204:	10002d1e 	bne	r2,zero,20052bc <___vfprintf_internal_r+0x408>
 2005208:	9880030b 	ldhu	r2,12(r19)
 200520c:	01000284 	movi	r4,10
 2005210:	1007883a 	mov	r3,r2
 2005214:	18c0068c 	andi	r3,r3,26
 2005218:	193f511e 	bne	r3,r4,2004f60 <__reset+0xfdffbf60>
 200521c:	98c0038b 	ldhu	r3,14(r19)
 2005220:	193fffcc 	andi	r4,r3,65535
 2005224:	2120001c 	xori	r4,r4,32768
 2005228:	21200004 	addi	r4,r4,-32768
 200522c:	203f4c16 	blt	r4,zero,2004f60 <__reset+0xfdffbf60>
 2005230:	9ac01917 	ldw	r11,100(r19)
 2005234:	9a800717 	ldw	r10,28(r19)
 2005238:	9a400917 	ldw	r9,36(r19)
 200523c:	d9012c17 	ldw	r4,1200(sp)
 2005240:	d9c12f17 	ldw	r7,1212(sp)
 2005244:	02010004 	movi	r8,1024
 2005248:	10bfff4c 	andi	r2,r2,65533
 200524c:	d8c1078d 	sth	r3,1054(sp)
 2005250:	d9410404 	addi	r5,sp,1040
 2005254:	d8c00404 	addi	r3,sp,16
 2005258:	880d883a 	mov	r6,r17
 200525c:	d881070d 	sth	r2,1052(sp)
 2005260:	dac11d15 	stw	r11,1140(sp)
 2005264:	da810b15 	stw	r10,1068(sp)
 2005268:	da410d15 	stw	r9,1076(sp)
 200526c:	d8c10415 	stw	r3,1040(sp)
 2005270:	d8c10815 	stw	r3,1056(sp)
 2005274:	da010615 	stw	r8,1048(sp)
 2005278:	da010915 	stw	r8,1060(sp)
 200527c:	d8010a15 	stw	zero,1064(sp)
 2005280:	2004eb40 	call	2004eb4 <___vfprintf_internal_r>
 2005284:	1021883a 	mov	r16,r2
 2005288:	10000416 	blt	r2,zero,200529c <___vfprintf_internal_r+0x3e8>
 200528c:	d9012c17 	ldw	r4,1200(sp)
 2005290:	d9410404 	addi	r5,sp,1040
 2005294:	200368c0 	call	200368c <_fflush_r>
 2005298:	10072a1e 	bne	r2,zero,2006f44 <___vfprintf_internal_r+0x2090>
 200529c:	d881070b 	ldhu	r2,1052(sp)
 20052a0:	1080100c 	andi	r2,r2,64
 20052a4:	10000326 	beq	r2,zero,20052b4 <___vfprintf_internal_r+0x400>
 20052a8:	9880030b 	ldhu	r2,12(r19)
 20052ac:	10801014 	ori	r2,r2,64
 20052b0:	9880030d 	sth	r2,12(r19)
 20052b4:	8005883a 	mov	r2,r16
 20052b8:	00000106 	br	20052c0 <___vfprintf_internal_r+0x40c>
 20052bc:	00bfffc4 	movi	r2,-1
 20052c0:	dfc14917 	ldw	ra,1316(sp)
 20052c4:	df014817 	ldw	fp,1312(sp)
 20052c8:	ddc14717 	ldw	r23,1308(sp)
 20052cc:	dd814617 	ldw	r22,1304(sp)
 20052d0:	dd414517 	ldw	r21,1300(sp)
 20052d4:	dd014417 	ldw	r20,1296(sp)
 20052d8:	dcc14317 	ldw	r19,1292(sp)
 20052dc:	dc814217 	ldw	r18,1288(sp)
 20052e0:	dc414117 	ldw	r17,1284(sp)
 20052e4:	dc014017 	ldw	r16,1280(sp)
 20052e8:	dec14a04 	addi	sp,sp,1320
 20052ec:	f800283a 	ret
 20052f0:	d9012c17 	ldw	r4,1200(sp)
 20052f4:	980b883a 	mov	r5,r19
 20052f8:	d9811e04 	addi	r6,sp,1144
 20052fc:	20115540 	call	2011554 <__sprint_r>
 2005300:	1000081e 	bne	r2,zero,2005324 <___vfprintf_internal_r+0x470>
 2005304:	da000404 	addi	r8,sp,16
 2005308:	003f3f06 	br	2005008 <__reset+0xfdffc008>
 200530c:	d8812017 	ldw	r2,1152(sp)
 2005310:	10000426 	beq	r2,zero,2005324 <___vfprintf_internal_r+0x470>
 2005314:	d9012c17 	ldw	r4,1200(sp)
 2005318:	980b883a 	mov	r5,r19
 200531c:	d9811e04 	addi	r6,sp,1144
 2005320:	20115540 	call	2011554 <__sprint_r>
 2005324:	9880030b 	ldhu	r2,12(r19)
 2005328:	1080100c 	andi	r2,r2,64
 200532c:	103fe31e 	bne	r2,zero,20052bc <__reset+0xfdffc2bc>
 2005330:	d8813117 	ldw	r2,1220(sp)
 2005334:	003fe206 	br	20052c0 <__reset+0xfdffc2c0>
 2005338:	d9012c17 	ldw	r4,1200(sp)
 200533c:	20039ac0 	call	20039ac <__sinit>
 2005340:	003ef506 	br	2004f18 <__reset+0xfdffbf18>
 2005344:	05800ac4 	movi	r22,43
 2005348:	8c800007 	ldb	r18,0(r17)
 200534c:	003f3e06 	br	2005048 <__reset+0xfdffc048>
 2005350:	8c800007 	ldb	r18,0(r17)
 2005354:	00c00a84 	movi	r3,42
 2005358:	88800044 	addi	r2,r17,1
 200535c:	90c6fb26 	beq	r18,r3,2006f4c <___vfprintf_internal_r+0x2098>
 2005360:	953ff404 	addi	r20,r18,-48
 2005364:	1023883a 	mov	r17,r2
 2005368:	0007883a 	mov	r3,zero
 200536c:	ad3f3736 	bltu	r21,r20,200504c <__reset+0xfdffc04c>
 2005370:	0009883a 	mov	r4,zero
 2005374:	01400284 	movi	r5,10
 2005378:	20036640 	call	2003664 <__mulsi3>
 200537c:	8c800007 	ldb	r18,0(r17)
 2005380:	a089883a 	add	r4,r20,r2
 2005384:	8c400044 	addi	r17,r17,1
 2005388:	953ff404 	addi	r20,r18,-48
 200538c:	ad3ff92e 	bgeu	r21,r20,2005374 <__reset+0xfdffc374>
 2005390:	2007883a 	mov	r3,r4
 2005394:	203f2d0e 	bge	r4,zero,200504c <__reset+0xfdffc04c>
 2005398:	00ffffc4 	movi	r3,-1
 200539c:	003f2b06 	br	200504c <__reset+0xfdffc04c>
 20053a0:	d9412a17 	ldw	r5,1192(sp)
 20053a4:	29402014 	ori	r5,r5,128
 20053a8:	d9412a15 	stw	r5,1192(sp)
 20053ac:	8c800007 	ldb	r18,0(r17)
 20053b0:	003f2506 	br	2005048 <__reset+0xfdffc048>
 20053b4:	d9412a17 	ldw	r5,1192(sp)
 20053b8:	1829883a 	mov	r20,r3
 20053bc:	dd812785 	stb	r22,1182(sp)
 20053c0:	29400414 	ori	r5,r5,16
 20053c4:	d9412a15 	stw	r5,1192(sp)
 20053c8:	d8c12a17 	ldw	r3,1192(sp)
 20053cc:	e011883a 	mov	r8,fp
 20053d0:	1880080c 	andi	r2,r3,32
 20053d4:	1001e126 	beq	r2,zero,2005b5c <___vfprintf_internal_r+0xca8>
 20053d8:	d9012f17 	ldw	r4,1212(sp)
 20053dc:	20800117 	ldw	r2,4(r4)
 20053e0:	25400017 	ldw	r21,0(r4)
 20053e4:	21000204 	addi	r4,r4,8
 20053e8:	d9012f15 	stw	r4,1212(sp)
 20053ec:	102d883a 	mov	r22,r2
 20053f0:	10046916 	blt	r2,zero,2006598 <___vfprintf_internal_r+0x16e4>
 20053f4:	df012783 	ldbu	fp,1182(sp)
 20053f8:	00c00044 	movi	r3,1
 20053fc:	ad84b03a 	or	r2,r21,r22
 2005400:	a0000416 	blt	r20,zero,2005414 <___vfprintf_internal_r+0x560>
 2005404:	d9412a17 	ldw	r5,1192(sp)
 2005408:	013fdfc4 	movi	r4,-129
 200540c:	290a703a 	and	r5,r5,r4
 2005410:	d9412a15 	stw	r5,1192(sp)
 2005414:	1002491e 	bne	r2,zero,2005d3c <___vfprintf_internal_r+0xe88>
 2005418:	a002481e 	bne	r20,zero,2005d3c <___vfprintf_internal_r+0xe88>
 200541c:	18c03fcc 	andi	r3,r3,255
 2005420:	1803871e 	bne	r3,zero,2006240 <___vfprintf_internal_r+0x138c>
 2005424:	d9012a17 	ldw	r4,1192(sp)
 2005428:	2080004c 	andi	r2,r4,1
 200542c:	10038426 	beq	r2,zero,2006240 <___vfprintf_internal_r+0x138c>
 2005430:	d9413d17 	ldw	r5,1268(sp)
 2005434:	00800c04 	movi	r2,48
 2005438:	d8810dc5 	stb	r2,1079(sp)
 200543c:	d9412e15 	stw	r5,1208(sp)
 2005440:	dc010dc4 	addi	r16,sp,1079
 2005444:	d8812e17 	ldw	r2,1208(sp)
 2005448:	1500010e 	bge	r2,r20,2005450 <___vfprintf_internal_r+0x59c>
 200544c:	a005883a 	mov	r2,r20
 2005450:	d8812b15 	stw	r2,1196(sp)
 2005454:	d8013315 	stw	zero,1228(sp)
 2005458:	e0803fcc 	andi	r2,fp,255
 200545c:	1080201c 	xori	r2,r2,128
 2005460:	10bfe004 	addi	r2,r2,-128
 2005464:	10000326 	beq	r2,zero,2005474 <___vfprintf_internal_r+0x5c0>
 2005468:	d8c12b17 	ldw	r3,1196(sp)
 200546c:	18c00044 	addi	r3,r3,1
 2005470:	d8c12b15 	stw	r3,1196(sp)
 2005474:	d8c12a17 	ldw	r3,1192(sp)
 2005478:	18c0008c 	andi	r3,r3,2
 200547c:	d8c12d15 	stw	r3,1204(sp)
 2005480:	18000326 	beq	r3,zero,2005490 <___vfprintf_internal_r+0x5dc>
 2005484:	d8c12b17 	ldw	r3,1196(sp)
 2005488:	18c00084 	addi	r3,r3,2
 200548c:	d8c12b15 	stw	r3,1196(sp)
 2005490:	d8c12a17 	ldw	r3,1192(sp)
 2005494:	18c0210c 	andi	r3,r3,132
 2005498:	d8c13215 	stw	r3,1224(sp)
 200549c:	1802151e 	bne	r3,zero,2005cf4 <___vfprintf_internal_r+0xe40>
 20054a0:	d9013017 	ldw	r4,1216(sp)
 20054a4:	d8c12b17 	ldw	r3,1196(sp)
 20054a8:	20f9c83a 	sub	fp,r4,r3
 20054ac:	0702110e 	bge	zero,fp,2005cf4 <___vfprintf_internal_r+0xe40>
 20054b0:	02400404 	movi	r9,16
 20054b4:	d8c12017 	ldw	r3,1152(sp)
 20054b8:	d8811f17 	ldw	r2,1148(sp)
 20054bc:	4f059a0e 	bge	r9,fp,2006b28 <___vfprintf_internal_r+0x1c74>
 20054c0:	8809883a 	mov	r4,r17
 20054c4:	014082b4 	movhi	r5,522
 20054c8:	294ef984 	addi	r5,r5,15334
 20054cc:	dc013c15 	stw	r16,1264(sp)
 20054d0:	e023883a 	mov	r17,fp
 20054d4:	d9413615 	stw	r5,1240(sp)
 20054d8:	482d883a 	mov	r22,r9
 20054dc:	054001c4 	movi	r21,7
 20054e0:	dc012c17 	ldw	r16,1200(sp)
 20054e4:	2039883a 	mov	fp,r4
 20054e8:	00000306 	br	20054f8 <___vfprintf_internal_r+0x644>
 20054ec:	8c7ffc04 	addi	r17,r17,-16
 20054f0:	42000204 	addi	r8,r8,8
 20054f4:	b440130e 	bge	r22,r17,2005544 <___vfprintf_internal_r+0x690>
 20054f8:	18c00404 	addi	r3,r3,16
 20054fc:	10800044 	addi	r2,r2,1
 2005500:	010082b4 	movhi	r4,522
 2005504:	210ef984 	addi	r4,r4,15334
 2005508:	41000015 	stw	r4,0(r8)
 200550c:	45800115 	stw	r22,4(r8)
 2005510:	d8c12015 	stw	r3,1152(sp)
 2005514:	d8811f15 	stw	r2,1148(sp)
 2005518:	a8bff40e 	bge	r21,r2,20054ec <__reset+0xfdffc4ec>
 200551c:	8009883a 	mov	r4,r16
 2005520:	980b883a 	mov	r5,r19
 2005524:	d9811e04 	addi	r6,sp,1144
 2005528:	20115540 	call	2011554 <__sprint_r>
 200552c:	103f7d1e 	bne	r2,zero,2005324 <__reset+0xfdffc324>
 2005530:	8c7ffc04 	addi	r17,r17,-16
 2005534:	d8c12017 	ldw	r3,1152(sp)
 2005538:	d8811f17 	ldw	r2,1148(sp)
 200553c:	da000404 	addi	r8,sp,16
 2005540:	b47fed16 	blt	r22,r17,20054f8 <__reset+0xfdffc4f8>
 2005544:	dc013c17 	ldw	r16,1264(sp)
 2005548:	e009883a 	mov	r4,fp
 200554c:	8839883a 	mov	fp,r17
 2005550:	2023883a 	mov	r17,r4
 2005554:	d9413617 	ldw	r5,1240(sp)
 2005558:	e0c7883a 	add	r3,fp,r3
 200555c:	10800044 	addi	r2,r2,1
 2005560:	41400015 	stw	r5,0(r8)
 2005564:	47000115 	stw	fp,4(r8)
 2005568:	d8c12015 	stw	r3,1152(sp)
 200556c:	d8811f15 	stw	r2,1148(sp)
 2005570:	010001c4 	movi	r4,7
 2005574:	20836b16 	blt	r4,r2,2006324 <___vfprintf_internal_r+0x1470>
 2005578:	d8812787 	ldb	r2,1182(sp)
 200557c:	42000204 	addi	r8,r8,8
 2005580:	10000c26 	beq	r2,zero,20055b4 <___vfprintf_internal_r+0x700>
 2005584:	d8811f17 	ldw	r2,1148(sp)
 2005588:	d9012784 	addi	r4,sp,1182
 200558c:	18c00044 	addi	r3,r3,1
 2005590:	10800044 	addi	r2,r2,1
 2005594:	41000015 	stw	r4,0(r8)
 2005598:	01000044 	movi	r4,1
 200559c:	41000115 	stw	r4,4(r8)
 20055a0:	d8c12015 	stw	r3,1152(sp)
 20055a4:	d8811f15 	stw	r2,1148(sp)
 20055a8:	010001c4 	movi	r4,7
 20055ac:	2082ef16 	blt	r4,r2,200616c <___vfprintf_internal_r+0x12b8>
 20055b0:	42000204 	addi	r8,r8,8
 20055b4:	d8812d17 	ldw	r2,1204(sp)
 20055b8:	10000c26 	beq	r2,zero,20055ec <___vfprintf_internal_r+0x738>
 20055bc:	d8811f17 	ldw	r2,1148(sp)
 20055c0:	d9012704 	addi	r4,sp,1180
 20055c4:	18c00084 	addi	r3,r3,2
 20055c8:	10800044 	addi	r2,r2,1
 20055cc:	41000015 	stw	r4,0(r8)
 20055d0:	01000084 	movi	r4,2
 20055d4:	41000115 	stw	r4,4(r8)
 20055d8:	d8c12015 	stw	r3,1152(sp)
 20055dc:	d8811f15 	stw	r2,1148(sp)
 20055e0:	010001c4 	movi	r4,7
 20055e4:	2082e916 	blt	r4,r2,200618c <___vfprintf_internal_r+0x12d8>
 20055e8:	42000204 	addi	r8,r8,8
 20055ec:	d9013217 	ldw	r4,1224(sp)
 20055f0:	00802004 	movi	r2,128
 20055f4:	20823226 	beq	r4,r2,2005ec0 <___vfprintf_internal_r+0x100c>
 20055f8:	d9012e17 	ldw	r4,1208(sp)
 20055fc:	a129c83a 	sub	r20,r20,r4
 2005600:	05002d0e 	bge	zero,r20,20056b8 <___vfprintf_internal_r+0x804>
 2005604:	05800404 	movi	r22,16
 2005608:	d8811f17 	ldw	r2,1148(sp)
 200560c:	054082b4 	movhi	r21,522
 2005610:	ad4ef584 	addi	r21,r21,15318
 2005614:	b5001f0e 	bge	r22,r20,2005694 <___vfprintf_internal_r+0x7e0>
 2005618:	8809883a 	mov	r4,r17
 200561c:	dc012d15 	stw	r16,1204(sp)
 2005620:	a023883a 	mov	r17,r20
 2005624:	070001c4 	movi	fp,7
 2005628:	dc012c17 	ldw	r16,1200(sp)
 200562c:	2029883a 	mov	r20,r4
 2005630:	00000306 	br	2005640 <___vfprintf_internal_r+0x78c>
 2005634:	8c7ffc04 	addi	r17,r17,-16
 2005638:	42000204 	addi	r8,r8,8
 200563c:	b440110e 	bge	r22,r17,2005684 <___vfprintf_internal_r+0x7d0>
 2005640:	18c00404 	addi	r3,r3,16
 2005644:	10800044 	addi	r2,r2,1
 2005648:	45c00015 	stw	r23,0(r8)
 200564c:	45800115 	stw	r22,4(r8)
 2005650:	d8c12015 	stw	r3,1152(sp)
 2005654:	d8811f15 	stw	r2,1148(sp)
 2005658:	e0bff60e 	bge	fp,r2,2005634 <__reset+0xfdffc634>
 200565c:	8009883a 	mov	r4,r16
 2005660:	980b883a 	mov	r5,r19
 2005664:	d9811e04 	addi	r6,sp,1144
 2005668:	20115540 	call	2011554 <__sprint_r>
 200566c:	103f2d1e 	bne	r2,zero,2005324 <__reset+0xfdffc324>
 2005670:	8c7ffc04 	addi	r17,r17,-16
 2005674:	d8c12017 	ldw	r3,1152(sp)
 2005678:	d8811f17 	ldw	r2,1148(sp)
 200567c:	da000404 	addi	r8,sp,16
 2005680:	b47fef16 	blt	r22,r17,2005640 <__reset+0xfdffc640>
 2005684:	dc012d17 	ldw	r16,1204(sp)
 2005688:	a009883a 	mov	r4,r20
 200568c:	8829883a 	mov	r20,r17
 2005690:	2023883a 	mov	r17,r4
 2005694:	1d07883a 	add	r3,r3,r20
 2005698:	10800044 	addi	r2,r2,1
 200569c:	45400015 	stw	r21,0(r8)
 20056a0:	45000115 	stw	r20,4(r8)
 20056a4:	d8c12015 	stw	r3,1152(sp)
 20056a8:	d8811f15 	stw	r2,1148(sp)
 20056ac:	010001c4 	movi	r4,7
 20056b0:	2082a616 	blt	r4,r2,200614c <___vfprintf_internal_r+0x1298>
 20056b4:	42000204 	addi	r8,r8,8
 20056b8:	d9412a17 	ldw	r5,1192(sp)
 20056bc:	2880400c 	andi	r2,r5,256
 20056c0:	1001b51e 	bne	r2,zero,2005d98 <___vfprintf_internal_r+0xee4>
 20056c4:	d8812e17 	ldw	r2,1208(sp)
 20056c8:	d9012e17 	ldw	r4,1208(sp)
 20056cc:	44000015 	stw	r16,0(r8)
 20056d0:	1887883a 	add	r3,r3,r2
 20056d4:	d8811f17 	ldw	r2,1148(sp)
 20056d8:	10800044 	addi	r2,r2,1
 20056dc:	41000115 	stw	r4,4(r8)
 20056e0:	d8c12015 	stw	r3,1152(sp)
 20056e4:	d8811f15 	stw	r2,1148(sp)
 20056e8:	010001c4 	movi	r4,7
 20056ec:	20818b16 	blt	r4,r2,2005d1c <___vfprintf_internal_r+0xe68>
 20056f0:	42000204 	addi	r8,r8,8
 20056f4:	d9412a17 	ldw	r5,1192(sp)
 20056f8:	2880010c 	andi	r2,r5,4
 20056fc:	10003226 	beq	r2,zero,20057c8 <___vfprintf_internal_r+0x914>
 2005700:	d8813017 	ldw	r2,1216(sp)
 2005704:	d9012b17 	ldw	r4,1196(sp)
 2005708:	1121c83a 	sub	r16,r2,r4
 200570c:	04002e0e 	bge	zero,r16,20057c8 <___vfprintf_internal_r+0x914>
 2005710:	04800404 	movi	r18,16
 2005714:	d8811f17 	ldw	r2,1148(sp)
 2005718:	9405240e 	bge	r18,r16,2006bac <___vfprintf_internal_r+0x1cf8>
 200571c:	010082b4 	movhi	r4,522
 2005720:	210ef984 	addi	r4,r4,15334
 2005724:	d9013615 	stw	r4,1240(sp)
 2005728:	050001c4 	movi	r20,7
 200572c:	dd412c17 	ldw	r21,1200(sp)
 2005730:	00000306 	br	2005740 <___vfprintf_internal_r+0x88c>
 2005734:	843ffc04 	addi	r16,r16,-16
 2005738:	42000204 	addi	r8,r8,8
 200573c:	9400130e 	bge	r18,r16,200578c <___vfprintf_internal_r+0x8d8>
 2005740:	18c00404 	addi	r3,r3,16
 2005744:	10800044 	addi	r2,r2,1
 2005748:	014082b4 	movhi	r5,522
 200574c:	294ef984 	addi	r5,r5,15334
 2005750:	41400015 	stw	r5,0(r8)
 2005754:	44800115 	stw	r18,4(r8)
 2005758:	d8c12015 	stw	r3,1152(sp)
 200575c:	d8811f15 	stw	r2,1148(sp)
 2005760:	a0bff40e 	bge	r20,r2,2005734 <__reset+0xfdffc734>
 2005764:	a809883a 	mov	r4,r21
 2005768:	980b883a 	mov	r5,r19
 200576c:	d9811e04 	addi	r6,sp,1144
 2005770:	20115540 	call	2011554 <__sprint_r>
 2005774:	103eeb1e 	bne	r2,zero,2005324 <__reset+0xfdffc324>
 2005778:	843ffc04 	addi	r16,r16,-16
 200577c:	d8c12017 	ldw	r3,1152(sp)
 2005780:	d8811f17 	ldw	r2,1148(sp)
 2005784:	da000404 	addi	r8,sp,16
 2005788:	943fed16 	blt	r18,r16,2005740 <__reset+0xfdffc740>
 200578c:	d9013617 	ldw	r4,1240(sp)
 2005790:	1c07883a 	add	r3,r3,r16
 2005794:	10800044 	addi	r2,r2,1
 2005798:	41000015 	stw	r4,0(r8)
 200579c:	44000115 	stw	r16,4(r8)
 20057a0:	d8c12015 	stw	r3,1152(sp)
 20057a4:	d8811f15 	stw	r2,1148(sp)
 20057a8:	010001c4 	movi	r4,7
 20057ac:	2080060e 	bge	r4,r2,20057c8 <___vfprintf_internal_r+0x914>
 20057b0:	d9012c17 	ldw	r4,1200(sp)
 20057b4:	980b883a 	mov	r5,r19
 20057b8:	d9811e04 	addi	r6,sp,1144
 20057bc:	20115540 	call	2011554 <__sprint_r>
 20057c0:	103ed81e 	bne	r2,zero,2005324 <__reset+0xfdffc324>
 20057c4:	d8c12017 	ldw	r3,1152(sp)
 20057c8:	d8812b17 	ldw	r2,1196(sp)
 20057cc:	d9413017 	ldw	r5,1216(sp)
 20057d0:	1140010e 	bge	r2,r5,20057d8 <___vfprintf_internal_r+0x924>
 20057d4:	2805883a 	mov	r2,r5
 20057d8:	d9013117 	ldw	r4,1220(sp)
 20057dc:	2089883a 	add	r4,r4,r2
 20057e0:	d9013115 	stw	r4,1220(sp)
 20057e4:	1802381e 	bne	r3,zero,20060c8 <___vfprintf_internal_r+0x1214>
 20057e8:	88800007 	ldb	r2,0(r17)
 20057ec:	d8011f15 	stw	zero,1148(sp)
 20057f0:	da000404 	addi	r8,sp,16
 20057f4:	103def1e 	bne	r2,zero,2004fb4 <__reset+0xfdffbfb4>
 20057f8:	8821883a 	mov	r16,r17
 20057fc:	003e0506 	br	2005014 <__reset+0xfdffc014>
 2005800:	1829883a 	mov	r20,r3
 2005804:	d8c12a17 	ldw	r3,1192(sp)
 2005808:	dd812785 	stb	r22,1182(sp)
 200580c:	e011883a 	mov	r8,fp
 2005810:	1880020c 	andi	r2,r3,8
 2005814:	1003c926 	beq	r2,zero,200673c <___vfprintf_internal_r+0x1888>
 2005818:	d9012f17 	ldw	r4,1212(sp)
 200581c:	d9412f17 	ldw	r5,1212(sp)
 2005820:	d8812f17 	ldw	r2,1212(sp)
 2005824:	21000017 	ldw	r4,0(r4)
 2005828:	29400117 	ldw	r5,4(r5)
 200582c:	10800204 	addi	r2,r2,8
 2005830:	d9013715 	stw	r4,1244(sp)
 2005834:	d9413915 	stw	r5,1252(sp)
 2005838:	d8812f15 	stw	r2,1212(sp)
 200583c:	d9013717 	ldw	r4,1244(sp)
 2005840:	d9413917 	ldw	r5,1252(sp)
 2005844:	da013f15 	stw	r8,1276(sp)
 2005848:	04000044 	movi	r16,1
 200584c:	200cc300 	call	200cc30 <__fpclassifyd>
 2005850:	da013f17 	ldw	r8,1276(sp)
 2005854:	d9013717 	ldw	r4,1244(sp)
 2005858:	d9413917 	ldw	r5,1252(sp)
 200585c:	1403571e 	bne	r2,r16,20065bc <___vfprintf_internal_r+0x1708>
 2005860:	000d883a 	mov	r6,zero
 2005864:	000f883a 	mov	r7,zero
 2005868:	2016c300 	call	2016c30 <__ledf2>
 200586c:	da013f17 	ldw	r8,1276(sp)
 2005870:	1004f416 	blt	r2,zero,2006c44 <___vfprintf_internal_r+0x1d90>
 2005874:	df012783 	ldbu	fp,1182(sp)
 2005878:	008011c4 	movi	r2,71
 200587c:	14847a0e 	bge	r2,r18,2006a68 <___vfprintf_internal_r+0x1bb4>
 2005880:	040082b4 	movhi	r16,522
 2005884:	840ee604 	addi	r16,r16,15256
 2005888:	d9012a17 	ldw	r4,1192(sp)
 200588c:	00bfdfc4 	movi	r2,-129
 2005890:	00c000c4 	movi	r3,3
 2005894:	2088703a 	and	r4,r4,r2
 2005898:	d8c12b15 	stw	r3,1196(sp)
 200589c:	d9012a15 	stw	r4,1192(sp)
 20058a0:	d8c12e15 	stw	r3,1208(sp)
 20058a4:	0029883a 	mov	r20,zero
 20058a8:	d8013315 	stw	zero,1228(sp)
 20058ac:	003eea06 	br	2005458 <__reset+0xfdffc458>
 20058b0:	953ff404 	addi	r20,r18,-48
 20058b4:	d8013015 	stw	zero,1216(sp)
 20058b8:	0009883a 	mov	r4,zero
 20058bc:	1825883a 	mov	r18,r3
 20058c0:	01400284 	movi	r5,10
 20058c4:	20036640 	call	2003664 <__mulsi3>
 20058c8:	88c00007 	ldb	r3,0(r17)
 20058cc:	1509883a 	add	r4,r2,r20
 20058d0:	8c400044 	addi	r17,r17,1
 20058d4:	1d3ff404 	addi	r20,r3,-48
 20058d8:	8805883a 	mov	r2,r17
 20058dc:	ad3ff82e 	bgeu	r21,r20,20058c0 <__reset+0xfdffc8c0>
 20058e0:	d9013015 	stw	r4,1216(sp)
 20058e4:	9009883a 	mov	r4,r18
 20058e8:	1023883a 	mov	r17,r2
 20058ec:	1825883a 	mov	r18,r3
 20058f0:	2007883a 	mov	r3,r4
 20058f4:	003dd506 	br	200504c <__reset+0xfdffc04c>
 20058f8:	d8812a17 	ldw	r2,1192(sp)
 20058fc:	10800214 	ori	r2,r2,8
 2005900:	d8812a15 	stw	r2,1192(sp)
 2005904:	8c800007 	ldb	r18,0(r17)
 2005908:	003dcf06 	br	2005048 <__reset+0xfdffc048>
 200590c:	d9012a17 	ldw	r4,1192(sp)
 2005910:	e011883a 	mov	r8,fp
 2005914:	1829883a 	mov	r20,r3
 2005918:	21000414 	ori	r4,r4,16
 200591c:	d9012a15 	stw	r4,1192(sp)
 2005920:	d9412a17 	ldw	r5,1192(sp)
 2005924:	2880080c 	andi	r2,r5,32
 2005928:	1000cf26 	beq	r2,zero,2005c68 <___vfprintf_internal_r+0xdb4>
 200592c:	d8812f17 	ldw	r2,1212(sp)
 2005930:	0007883a 	mov	r3,zero
 2005934:	15400017 	ldw	r21,0(r2)
 2005938:	15800117 	ldw	r22,4(r2)
 200593c:	10800204 	addi	r2,r2,8
 2005940:	d8812f15 	stw	r2,1212(sp)
 2005944:	ad84b03a 	or	r2,r21,r22
 2005948:	d8012785 	stb	zero,1182(sp)
 200594c:	0039883a 	mov	fp,zero
 2005950:	003eab06 	br	2005400 <__reset+0xfdffc400>
 2005954:	d9012a17 	ldw	r4,1192(sp)
 2005958:	e011883a 	mov	r8,fp
 200595c:	1829883a 	mov	r20,r3
 2005960:	21000414 	ori	r4,r4,16
 2005964:	d9012a15 	stw	r4,1192(sp)
 2005968:	d9412a17 	ldw	r5,1192(sp)
 200596c:	2880080c 	andi	r2,r5,32
 2005970:	1000cd26 	beq	r2,zero,2005ca8 <___vfprintf_internal_r+0xdf4>
 2005974:	d8812f17 	ldw	r2,1212(sp)
 2005978:	00c00044 	movi	r3,1
 200597c:	15400017 	ldw	r21,0(r2)
 2005980:	15800117 	ldw	r22,4(r2)
 2005984:	10800204 	addi	r2,r2,8
 2005988:	d8812f15 	stw	r2,1212(sp)
 200598c:	ad84b03a 	or	r2,r21,r22
 2005990:	003fed06 	br	2005948 <__reset+0xfdffc948>
 2005994:	d9012a17 	ldw	r4,1192(sp)
 2005998:	dd812785 	stb	r22,1182(sp)
 200599c:	e011883a 	mov	r8,fp
 20059a0:	2080080c 	andi	r2,r4,32
 20059a4:	10039226 	beq	r2,zero,20067f0 <___vfprintf_internal_r+0x193c>
 20059a8:	d9412f17 	ldw	r5,1212(sp)
 20059ac:	d9013117 	ldw	r4,1220(sp)
 20059b0:	28800017 	ldw	r2,0(r5)
 20059b4:	2007d7fa 	srai	r3,r4,31
 20059b8:	29400104 	addi	r5,r5,4
 20059bc:	d9412f15 	stw	r5,1212(sp)
 20059c0:	11000015 	stw	r4,0(r2)
 20059c4:	10c00115 	stw	r3,4(r2)
 20059c8:	003d7806 	br	2004fac <__reset+0xfdffbfac>
 20059cc:	d8c12f17 	ldw	r3,1212(sp)
 20059d0:	d9012f17 	ldw	r4,1212(sp)
 20059d4:	e011883a 	mov	r8,fp
 20059d8:	18800017 	ldw	r2,0(r3)
 20059dc:	21000104 	addi	r4,r4,4
 20059e0:	00c00044 	movi	r3,1
 20059e4:	d8c12b15 	stw	r3,1196(sp)
 20059e8:	d8012785 	stb	zero,1182(sp)
 20059ec:	d8810405 	stb	r2,1040(sp)
 20059f0:	d9012f15 	stw	r4,1212(sp)
 20059f4:	d8c12e15 	stw	r3,1208(sp)
 20059f8:	0029883a 	mov	r20,zero
 20059fc:	d8013315 	stw	zero,1228(sp)
 2005a00:	dc010404 	addi	r16,sp,1040
 2005a04:	0005883a 	mov	r2,zero
 2005a08:	003e9a06 	br	2005474 <__reset+0xfdffc474>
 2005a0c:	d9412a17 	ldw	r5,1192(sp)
 2005a10:	010082b4 	movhi	r4,522
 2005a14:	210eee04 	addi	r4,r4,15288
 2005a18:	dd812785 	stb	r22,1182(sp)
 2005a1c:	d9013b15 	stw	r4,1260(sp)
 2005a20:	2880080c 	andi	r2,r5,32
 2005a24:	e011883a 	mov	r8,fp
 2005a28:	1829883a 	mov	r20,r3
 2005a2c:	10002f26 	beq	r2,zero,2005aec <___vfprintf_internal_r+0xc38>
 2005a30:	d8812f17 	ldw	r2,1212(sp)
 2005a34:	15400017 	ldw	r21,0(r2)
