
LEDTileRandomizer.elf:     file format elf32-littlenios2
LEDTileRandomizer.elf
architecture: nios2, flags 0x00000112:
EXEC_P, HAS_SYMS, D_PAGED
start address 0x0200022c

Program Header:
    LOAD off    0x00001020 vaddr 0x02000020 paddr 0x02000020 align 2**12
         filesz 0x00020da8 memsz 0x00020f30 flags rwx
    LOAD off    0x00022000 vaddr 0x04009000 paddr 0x04009000 align 2**12
         filesz 0x00000000 memsz 0x00000000 flags r-x

Sections:
Idx Name          Size      VMA       LMA       File off  Algn
  0 .entry        00000000  04009000  04009000  00022000  2**5
                  CONTENTS, ALLOC, LOAD, READONLY, CODE
  1 .exceptions   0000020c  02000020  02000020  00001020  2**2
                  CONTENTS, ALLOC, LOAD, READONLY, CODE
  2 .text         0001692c  0200022c  0200022c  0000122c  2**2
                  CONTENTS, ALLOC, LOAD, READONLY, CODE
  3 .rodata       00008594  02016b58  02016b58  00017b58  2**2
                  CONTENTS, ALLOC, LOAD, READONLY, DATA
  4 .rwdata       00001cdc  0201f0ec  0201f0ec  000200ec  2**2
                  CONTENTS, ALLOC, LOAD, DATA, SMALL_DATA
  5 .bss          00000188  02020dc8  02020dc8  00021dc8  2**2
                  ALLOC, SMALL_DATA
  6 .sdram_controller 00000000  02020f50  02020f50  00022000  2**0
                  CONTENTS
  7 .onchip_memory2 00000000  04000000  04000000  00022000  2**0
                  CONTENTS
  8 .epcs_flash_controller 00000000  04009020  04009020  00022000  2**0
                  CONTENTS
  9 .comment      00000039  00000000  00000000  00022000  2**0
                  CONTENTS, READONLY
 10 .debug_aranges 00000f08  00000000  00000000  00022040  2**3
                  CONTENTS, READONLY, DEBUGGING
 11 .debug_info   0002c2e2  00000000  00000000  00022f48  2**0
                  CONTENTS, READONLY, DEBUGGING
 12 .debug_abbrev 0000ad07  00000000  00000000  0004f22a  2**0
                  CONTENTS, READONLY, DEBUGGING
 13 .debug_line   0000d57e  00000000  00000000  00059f31  2**0
                  CONTENTS, READONLY, DEBUGGING
 14 .debug_frame  00002ed8  00000000  00000000  000674b0  2**2
                  CONTENTS, READONLY, DEBUGGING
 15 .debug_str    00004b13  00000000  00000000  0006a388  2**0
                  CONTENTS, READONLY, DEBUGGING
 16 .debug_loc    000178ea  00000000  00000000  0006ee9b  2**0
                  CONTENTS, READONLY, DEBUGGING
 17 .debug_alt_sim_info 00000010  00000000  00000000  00086788  2**2
                  CONTENTS, READONLY, DEBUGGING
 18 .debug_ranges 00001348  00000000  00000000  00086798  2**3
                  CONTENTS, READONLY, DEBUGGING
 19 .thread_model 00000003  00000000  00000000  0008c07e  2**0
                  CONTENTS, READONLY
 20 .cpu          00000003  00000000  00000000  0008c081  2**0
                  CONTENTS, READONLY
 21 .qsys         00000001  00000000  00000000  0008c084  2**0
                  CONTENTS, READONLY
 22 .simulation_enabled 00000001  00000000  00000000  0008c085  2**0
                  CONTENTS, READONLY
 23 .sysid_hash   00000004  00000000  00000000  0008c086  2**0
                  CONTENTS, READONLY
 24 .sysid_base   00000004  00000000  00000000  0008c08a  2**0
                  CONTENTS, READONLY
 25 .sysid_time   00000004  00000000  00000000  0008c08e  2**0
                  CONTENTS, READONLY
 26 .stderr_dev   00000009  00000000  00000000  0008c092  2**0
                  CONTENTS, READONLY
 27 .stdin_dev    00000009  00000000  00000000  0008c09b  2**0
                  CONTENTS, READONLY
 28 .stdout_dev   00000009  00000000  00000000  0008c0a4  2**0
                  CONTENTS, READONLY
 29 .sopc_system_name 00000004  00000000  00000000  0008c0ad  2**0
                  CONTENTS, READONLY
 30 .sopcinfo     0007c166  00000000  00000000  0008c0b1  2**0
                  CONTENTS, READONLY
SYMBOL TABLE:
04009000 l    d  .entry	00000000 .entry
02000020 l    d  .exceptions	00000000 .exceptions
0200022c l    d  .text	00000000 .text
02016b58 l    d  .rodata	00000000 .rodata
0201f0ec l    d  .rwdata	00000000 .rwdata
02020dc8 l    d  .bss	00000000 .bss
02020f50 l    d  .sdram_controller	00000000 .sdram_controller
04000000 l    d  .onchip_memory2	00000000 .onchip_memory2
04009020 l    d  .epcs_flash_controller	00000000 .epcs_flash_controller
00000000 l    d  .comment	00000000 .comment
00000000 l    d  .debug_aranges	00000000 .debug_aranges
00000000 l    d  .debug_info	00000000 .debug_info
00000000 l    d  .debug_abbrev	00000000 .debug_abbrev
00000000 l    d  .debug_line	00000000 .debug_line
00000000 l    d  .debug_frame	00000000 .debug_frame
00000000 l    d  .debug_str	00000000 .debug_str
00000000 l    d  .debug_loc	00000000 .debug_loc
00000000 l    d  .debug_alt_sim_info	00000000 .debug_alt_sim_info
00000000 l    d  .debug_ranges	00000000 .debug_ranges
00000000 l    df *ABS*	00000000 ../LEDTile_BSP2//obj/HAL/src/crt0.o
02000260 l       .text	00000000 alt_after_alt_main
00000000 l    df *ABS*	00000000 alt_irq_handler.c
00000000 l    df *ABS*	00000000 alt_instruction_exception_entry.c
00000000 l    df *ABS*	00000000 main.c
0201b800 l     O .rodata	000000f0 __compound_literal.0
0201b904 l     O .rodata	0000167f __compound_literal.1
0201cfa0 l     O .rodata	00000178 __compound_literal.2
0201d12c l     O .rodata	000000cc __compound_literal.3
0201d210 l     O .rodata	000000a1 __compound_literal.4
0201d2d0 l     O .rodata	000000d2 __compound_literal.5
0201d3b8 l     O .rodata	000000bd __compound_literal.6
0201d48c l     O .rodata	00000234 __compound_literal.7
0201d6dc l     O .rodata	000001f4 __compound_literal.8
0201d8e4 l     O .rodata	0000013e __compound_literal.9
0201da3c l     O .rodata	00000393 __compound_literal.10
0201dde8 l     O .rodata	0000009e __compound_literal.11
0201de98 l     O .rodata	00000095 __compound_literal.12
0201df44 l     O .rodata	000000a3 __compound_literal.13
0201e000 l     O .rodata	000000a0 __compound_literal.14
0201e0bc l     O .rodata	00000107 __compound_literal.15
0201e1d8 l     O .rodata	0000013f __compound_literal.16
02020d7c l     O .rwdata	00000004 nextImageTime.2892
02020dd4 l     O .bss	00000004 gifIdx.2893
00000000 l    df *ABS*	00000000 LEDTileLib.c
00000000 l    df *ABS*	00000000 dgif_lib.c
02003844 l     F .text	000000c4 DGifGetWord
02003b10 l     F .text	000001c8 DGifSetupDecompress
02003cd8 l     F .text	000004e8 DGifDecompressLine
02004358 l     F .text	000001c0 DGifDecompressInput
020041c0 l     F .text	00000084 DGifGetPrefixChar
02004518 l     F .text	000001f0 DGifBufferedInput
0201edb4 l     O .rodata	0000001a CodeMasks.3759
00000000 l    df *ABS*	00000000 gifalloc.c
00000000 l    df *ABS*	00000000 openbsd-reallocarray.c
00000000 l    df *ABS*	00000000 lib2-divmod.c
0200580c l     F .text	00000070 udivmodsi4
00000000 l    df *ABS*	00000000 lib2-mul.c
00000000 l    df *ABS*	00000000 divdf3.c
00000000 l    df *ABS*	00000000 muldf3.c
00000000 l    df *ABS*	00000000 fixdfsi.c
00000000 l    df *ABS*	00000000 floatsidf.c
00000000 l    df *ABS*	00000000 libgcc2.c
00000000 l    df *ABS*	00000000 libgcc2.c
00000000 l    df *ABS*	00000000 calloc.c
00000000 l    df *ABS*	00000000 mallocr.c
00000000 l    df *ABS*	00000000 errno.c
00000000 l    df *ABS*	00000000 fclose.c
00000000 l    df *ABS*	00000000 fdopen.c
00000000 l    df *ABS*	00000000 fflush.c
00000000 l    df *ABS*	00000000 findfp.c
02007264 l     F .text	00000008 __fp_lock
0200726c l     F .text	00000008 __fp_unlock
00000000 l    df *ABS*	00000000 flags.c
00000000 l    df *ABS*	00000000 fread.c
00000000 l    df *ABS*	00000000 mallocr.c
00000000 l    df *ABS*	00000000 fwalk.c
00000000 l    df *ABS*	00000000 impure.c
0201f140 l     O .rwdata	00000424 impure_data
00000000 l    df *ABS*	00000000 malloc.c
00000000 l    df *ABS*	00000000 mallocr.c
00000000 l    df *ABS*	00000000 memcmp.c
00000000 l    df *ABS*	00000000 memcpy.c
00000000 l    df *ABS*	00000000 memset.c
00000000 l    df *ABS*	00000000 printf.c
00000000 l    df *ABS*	00000000 realloc.c
00000000 l    df *ABS*	00000000 mallocr.c
00000000 l    df *ABS*	00000000 refill.c
02008f0c l     F .text	0000001c lflush
00000000 l    df *ABS*	00000000 sbrkr.c
00000000 l    df *ABS*	00000000 stdio.c
00000000 l    df *ABS*	00000000 strncmp.c
00000000 l    df *ABS*	00000000 vfprintf.c
0201ef16 l     O .rodata	00000010 zeroes.4155
0201ef26 l     O .rodata	00000010 blanks.4154
00000000 l    df *ABS*	00000000 writer.c
00000000 l    df *ABS*	00000000 wsetup.c
00000000 l    df *ABS*	00000000 closer.c
00000000 l    df *ABS*	00000000 dtoa.c
0200b71c l     F .text	00000228 quorem
00000000 l    df *ABS*	00000000 int_errno.c
00000000 l    df *ABS*	00000000 locale.c
0201f98c l     O .rwdata	00000020 lc_ctype_charset
0201f96c l     O .rwdata	00000020 lc_message_charset
0201f9ac l     O .rwdata	00000038 lconv
00000000 l    df *ABS*	00000000 lseekr.c
00000000 l    df *ABS*	00000000 makebuf.c
00000000 l    df *ABS*	00000000 memchr.c
00000000 l    df *ABS*	00000000 memmove.c
00000000 l    df *ABS*	00000000 mprec.c
0201ef54 l     O .rodata	0000000c p05.2652
00000000 l    df *ABS*	00000000 readr.c
00000000 l    df *ABS*	00000000 s_fpclassify.c
00000000 l    df *ABS*	00000000 strcmp.c
00000000 l    df *ABS*	00000000 strlen.c
00000000 l    df *ABS*	00000000 vfprintf.c
0200e6c4 l     F .text	000000fc __sprint_r.part.0
0201f088 l     O .rodata	00000010 blanks.4099
0201f078 l     O .rodata	00000010 zeroes.4100
00000000 l    df *ABS*	00000000 fputwc.c
00000000 l    df *ABS*	00000000 fstatr.c
00000000 l    df *ABS*	00000000 fvwrite.c
00000000 l    df *ABS*	00000000 isattyr.c
00000000 l    df *ABS*	00000000 wbuf.c
00000000 l    df *ABS*	00000000 wcrtomb.c
00000000 l    df *ABS*	00000000 wctomb_r.c
00000000 l    df *ABS*	00000000 libgcc2.c
00000000 l    df *ABS*	00000000 libgcc2.c
00000000 l    df *ABS*	00000000 adddf3.c
00000000 l    df *ABS*	00000000 eqdf2.c
00000000 l    df *ABS*	00000000 gedf2.c
00000000 l    df *ABS*	00000000 ledf2.c
00000000 l    df *ABS*	00000000 subdf3.c
00000000 l    df *ABS*	00000000 floatunsidf.c
00000000 l    df *ABS*	00000000 alt_alarm_start.c
00000000 l    df *ABS*	00000000 alt_close.c
02012908 l     F .text	00000050 alt_get_errno
00000000 l    df *ABS*	00000000 alt_dev.c
02012a28 l     F .text	0000002c alt_dev_null_write
00000000 l    df *ABS*	00000000 alt_errno.c
00000000 l    df *ABS*	00000000 alt_fstat.c
02012a54 l     F .text	00000050 alt_get_errno
00000000 l    df *ABS*	00000000 alt_isatty.c
02012b58 l     F .text	00000050 alt_get_errno
00000000 l    df *ABS*	00000000 alt_lseek.c
02012c50 l     F .text	00000050 alt_get_errno
00000000 l    df *ABS*	00000000 alt_main.c
00000000 l    df *ABS*	00000000 alt_malloc_lock.c
00000000 l    df *ABS*	00000000 alt_open.c
02012e30 l     F .text	00000050 alt_get_errno
02012e80 l     F .text	000000f4 alt_file_locked
00000000 l    df *ABS*	00000000 alt_read.c
020130d0 l     F .text	00000050 alt_get_errno
00000000 l    df *ABS*	00000000 alt_release_fd.c
00000000 l    df *ABS*	00000000 alt_sbrk.c
02020db0 l     O .rwdata	00000004 heap_end
00000000 l    df *ABS*	00000000 alt_tick.c
00000000 l    df *ABS*	00000000 alt_write.c
020134e4 l     F .text	00000050 alt_get_errno
00000000 l    df *ABS*	00000000 alt_sys_init.c
02013628 l     F .text	00000038 alt_dev_reg
0201fb8c l     O .rwdata	000000c8 epcs_flash_controller
0201fc54 l     O .rwdata	00001060 jtag_uart
02020cb4 l     O .rwdata	000000c4 uart_0
00000000 l    df *ABS*	00000000 altera_avalon_epcs_flash_controller.c
02013720 l     F .text	00000038 alt_flash_device_register
020137ac l     F .text	000003f8 alt_epcs_flash_query
02013ba4 l     F .text	000000e8 alt_epcs_flash_memcmp
02013f78 l     F .text	00000094 alt_epcs_test_address
00000000 l    df *ABS*	00000000 altera_avalon_jtag_uart_fd.c
00000000 l    df *ABS*	00000000 altera_avalon_jtag_uart_init.c
02014440 l     F .text	000001fc altera_avalon_jtag_uart_irq
0201463c l     F .text	000000a4 altera_avalon_jtag_uart_timeout
00000000 l    df *ABS*	00000000 altera_avalon_jtag_uart_ioctl.c
00000000 l    df *ABS*	00000000 altera_avalon_jtag_uart_read.c
00000000 l    df *ABS*	00000000 altera_avalon_jtag_uart_write.c
00000000 l    df *ABS*	00000000 altera_avalon_timer_sc.c
02014c54 l     F .text	00000074 alt_avalon_timer_sc_irq
00000000 l    df *ABS*	00000000 altera_avalon_uart_fd.c
00000000 l    df *ABS*	00000000 altera_avalon_uart_init.c
02014f08 l     F .text	00000098 altera_avalon_uart_irq
02014fa0 l     F .text	000000dc altera_avalon_uart_rxirq
0201507c l     F .text	00000144 altera_avalon_uart_txirq
00000000 l    df *ABS*	00000000 altera_avalon_uart_read.c
02015214 l     F .text	00000050 alt_get_errno
00000000 l    df *ABS*	00000000 altera_avalon_uart_write.c
02015440 l     F .text	00000050 alt_get_errno
00000000 l    df *ABS*	00000000 epcs_commands.c
02015694 l     F .text	00000038 epcs_test_wip
020156cc l     F .text	00000038 epcs_await_wip_released
00000000 l    df *ABS*	00000000 alt_dev_llist_insert.c
02015c64 l     F .text	00000050 alt_get_errno
00000000 l    df *ABS*	00000000 alt_do_ctors.c
00000000 l    df *ABS*	00000000 alt_do_dtors.c
00000000 l    df *ABS*	00000000 alt_find_dev.c
00000000 l    df *ABS*	00000000 alt_find_file.c
00000000 l    df *ABS*	00000000 alt_flash_dev.c
00000000 l    df *ABS*	00000000 alt_get_fd.c
00000000 l    df *ABS*	00000000 alt_iic.c
00000000 l    df *ABS*	00000000 alt_iic_isr_register.c
00000000 l    df *ABS*	00000000 alt_io_redirect.c
02016404 l     F .text	000000e0 alt_open_fd
00000000 l    df *ABS*	00000000 alt_irq_vars.c
00000000 l    df *ABS*	00000000 altera_nios2_gen2_irq.c
00000000 l    df *ABS*	00000000 altera_avalon_spi.c
00000000 l    df *ABS*	00000000 atexit.c
00000000 l    df *ABS*	00000000 exit.c
00000000 l    df *ABS*	00000000 __atexit.c
00000000 l    df *ABS*	00000000 __call_atexit.c
00000000 l    df *ABS*	00000000 alt_exit.c
02020e0c g     O .bss	00000004 alt_instruction_exception_handler
0200e34c g     F .text	00000074 _mprec_log10
02013eec g     F .text	0000008c alt_epcs_flash_get_info
0200e438 g     F .text	00000088 __any_on
02010354 g     F .text	00000064 _isatty_r
0201ef60 g     O .rodata	00000028 __mprec_tinytens
02012d78 g     F .text	00000078 alt_main
02020e50 g     O .bss	00000100 alt_irq
0200d054 g     F .text	0000006c _lseek_r
0201cf94 g     O .rodata	0000000c fishswimming1
02007608 g     F .text	00000098 __sflags
02011c58 g     F .text	00000084 .hidden __eqdf2
02020f50 g       *ABS*	00000000 __alt_heap_start
02000660 g     F .text	000000d8 blank
02003314 g     F .text	0000017c DGifGetExtensionNext
02008950 g     F .text	0000003c printf
02010554 g     F .text	0000009c _wcrtomb_r
0200923c g     F .text	0000005c __sseek
02007310 g     F .text	0000019c __sinit
020103b8 g     F .text	00000180 __swbuf_r
0200cf80 g     F .text	00000070 _setlocale_r
02007280 g     F .text	00000078 __sfmoreglue
02012e10 g     F .text	00000020 __malloc_unlock
02000264 g     F .text	0000023c frame_callback
0201dddc g     O .rodata	0000000c CupOfWishes
02020e38 g     O .bss	00000018 frameAlarm
02002a14 g     F .text	0000014c DGifGetRecordType
02002b60 g     F .text	000004c8 DGifGetImageDesc
0201eba8 g     O .rodata	00000200 gamma46half
0200d35c g     F .text	0000013c memmove
02004708 g     F .text	000003e4 DGifSlurp
020072f8 g     F .text	00000018 _cleanup
0200d498 g     F .text	000000a8 _Balloc
02011cdc g     F .text	000000d8 .hidden __gtdf2
0201655c g     F .text	00000020 altera_nios2_gen2_irq_init
02006dd4 g     F .text	00000010 __errno
02015704 g     F .text	000000f8 epcs_sector_erase
04009000 g     F .entry	00000000 __reset
020021d0 g     F .text	00000078 DGifOpenFileName
0200fe40 g     F .text	00000068 _fstat_r
02020de4 g     O .bss	00000004 errno
020091b8 g     F .text	00000008 __seofread
02000000 g       *ABS*	00000000 __alt_mem_sdram_controller
02020df8 g     O .bss	00000004 alt_argv
02028d78 g       *ABS*	00000000 _gp
0201e1cc g     O .rodata	0000000c Notepad
020175e8 g     O .rodata	00002abf cattailbytes
0201a0c0 g     O .rodata	0000010a DrWBytes
0201a31c g     O .rodata	000014ca pharmacybytes
0201fa0c g     O .rwdata	00000180 alt_fd_list
02015940 g     F .text	00000068 epcs_write_status_register
02015e0c g     F .text	00000090 alt_find_dev
02008704 g     F .text	0000010c memcpy
02007274 g     F .text	0000000c _cleanup_r
02006b64 g     F .text	000000d0 .hidden __floatsidf
0201e5a8 g     O .rodata	00000200 cie1931
020164e4 g     F .text	00000078 alt_io_redirect
02011db4 g     F .text	000000ec .hidden __ltdf2
02016b58 g       *ABS*	00000000 __DTOR_END__
02016778 g     F .text	000000a0 alt_exception_cause_generated_bad_addr
02002248 g     F .text	00000260 DGifOpenFileHandle
02004c38 g     F .text	00000048 GifFreeMapObject
02014080 g     F .text	00000104 alt_epcs_flash_write_block
0201a1d4 g     O .rodata	0000000c DrW
0200e52c g     F .text	00000068 __fpclassifyd
0200e2ac g     F .text	000000a0 __ratio
0200fc20 g     F .text	00000024 __vfiprintf_internal
0201f0ec g     O .rwdata	00000054 memoryGifs
02014834 g     F .text	00000208 altera_avalon_jtag_uart_read
02007e9c g     F .text	00000014 malloc
02008924 g     F .text	0000002c _printf_r
02005910 g     F .text	00000008 .hidden __udivsi3
02012ba8 g     F .text	000000a8 isatty
0201efb0 g     O .rodata	000000c8 __mprec_tens
0201b8f8 g     O .rodata	0000000c Link
0200cff0 g     F .text	0000000c __locale_charset
02003490 g     F .text	000000ec DGifExtensionToGCB
02020de0 g     O .bss	00000004 __malloc_top_pad
02020d90 g     O .rwdata	00000004 __mb_cur_max
0200d020 g     F .text	0000000c _localeconv_r
02005330 g     F .text	000000dc FreeLastSavedImage
0200fea8 g     F .text	000004ac __sfvwrite_r
0200d8c8 g     F .text	0000003c __i2b
0201de8c g     O .rodata	0000000c Mac
02009100 g     F .text	00000064 _sbrk_r
0200e4c0 g     F .text	0000006c _read_r
020026e4 g     F .text	00000330 DGifGetScreenDesc
02020da8 g     O .rwdata	00000004 alt_max_fd
0201d120 g     O .rodata	0000000c Goomba
02006de4 g     F .text	00000128 _fclose_r
0200312c g     F .text	000000f0 DGifGetPixel
02016b58 g     O .rodata	00000189 margepolicebytes
02007234 g     F .text	00000030 fflush
02020ddc g     O .bss	00000004 __malloc_max_sbrked_mem
0200540c g     F .text	0000026c GifMakeSavedImage
020113dc g     F .text	0000087c .hidden __adddf3
02020dcc g     O .bss	00000004 gFrameIndex
0201400c g     F .text	00000074 alt_epcs_flash_erase_block
0200e078 g     F .text	000000f0 __b2d
02010da8 g     F .text	00000634 .hidden __umoddi3
02012ca0 g     F .text	000000d8 lseek
02020d80 g     O .rwdata	00000004 _global_impure_ptr
02015c08 g     F .text	0000005c epcs_exit_4_bytes_mode
020089a8 g     F .text	00000564 _realloc_r
02003028 g     F .text	00000104 DGifGetLine
02020f50 g       *ABS*	00000000 __bss_end
02016314 g     F .text	000000f0 alt_iic_isr_register
020133e0 g     F .text	00000104 alt_tick
02010754 g     F .text	00000654 .hidden __udivdi3
0200fc44 g     F .text	00000184 _fputwc_r
0201ef88 g     O .rodata	00000028 __mprec_bigtens
0200d6ac g     F .text	00000104 __s2b
02012728 g     F .text	000000a0 .hidden __floatunsidf
0201a0b4 g     O .rodata	0000000c cattail
0200de08 g     F .text	00000060 __mcmp
02014e60 g     F .text	000000a8 altera_avalon_uart_init
0201e7a8 g     O .rodata	00000200 gamma149half
020075d8 g     F .text	00000018 __fp_lock_all
020162c8 g     F .text	0000004c alt_ic_irq_enabled
02013348 g     F .text	00000098 alt_alarm_stop
02020e08 g     O .bss	00000004 alt_irq_active
020000fc g     F .exceptions	000000d0 alt_irq_handler
0201f9e4 g     O .rwdata	00000028 alt_dev_null
02016cfc g     O .rodata	00000589 psyduckbytes
020036ac g     F .text	00000198 DGifCloseFile
0200d7b0 g     F .text	00000068 __hi0bits
02006ce0 g     F .text	0000001c calloc
02006ae4 g     F .text	00000080 .hidden __fixdfsi
02004aec g     F .text	00000054 GifBitSize
02020da0 g     O .rwdata	00000008 alt_dev_list
02013534 g     F .text	000000f4 write
02012aa4 g     F .text	000000b4 fstat
02001d6c g     F .text	00000464 displayGamma46ColourBars
02011db4 g     F .text	000000ec .hidden __ledf2
0200db70 g     F .text	00000148 __pow5mult
0200e7d8 g     F .text	00001448 ___vfiprintf_internal_r
02020df0 g     O .bss	00000004 __nlocale_changed
02005918 g     F .text	00000008 .hidden __umodsi3
02015ac4 g     F .text	00000068 epcs_read_electronic_signature
02020f50 g       *ABS*	00000000 end
02015490 g     F .text	000001a8 altera_avalon_uart_write
02014380 g     F .text	000000c0 altera_avalon_jtag_uart_init
020001cc g     F .exceptions	00000060 alt_instruction_exception_entry
02016b58 g       *ABS*	00000000 __CTOR_LIST__
04000000 g       *ABS*	00000000 __alt_stack_pointer
02014cc8 g     F .text	00000088 alt_avalon_timer_sc_init
02014db0 g     F .text	00000060 altera_avalon_uart_write_fd
02006c34 g     F .text	000000ac .hidden __clzsi2
02014e10 g     F .text	00000050 altera_avalon_uart_close_fd
02014a3c g     F .text	00000218 altera_avalon_jtag_uart_write
020075c8 g     F .text	00000004 __sfp_lock_acquire
0200d274 g     F .text	000000e8 memchr
02004244 g     F .text	00000114 DGifGetLZCodes
0200939c g     F .text	00002154 ___vfprintf_internal_r
02007a6c g     F .text	000002d0 _free_r
0200cffc g     F .text	00000010 __locale_mb_cur_max
02016980 g     F .text	000001a4 __call_exitprocs
0201a310 g     O .rodata	0000000c girlpraying
02020d78 g     O .rwdata	00000004 numGIFs
02020dec g     O .bss	00000004 __mlocale_changed
02020d88 g     O .rwdata	00000004 __malloc_sbrk_base
0200022c g     F .text	00000038 _start
02020e00 g     O .bss	00000004 _alt_tick_rate
0200321c g     F .text	000000f8 DGifGetExtension
0200dcb8 g     F .text	00000150 __lshift
0201657c g     F .text	000001fc alt_avalon_spi_command
02020e04 g     O .bss	00000004 _alt_nticks
02013120 g     F .text	000000f8 read
02013694 g     F .text	0000008c alt_sys_init
02016864 g     F .text	0000011c __register_exitproc
020092a0 g     F .text	000000fc strncmp
0200d904 g     F .text	0000026c __multiply
0201da30 g     O .rodata	0000000c RydiaStone
020146e0 g     F .text	00000068 altera_avalon_jtag_uart_close
02017490 g     O .rodata	0000000c FF4ChestGIF
02005920 g     F .text	00000028 .hidden __mulsi3
02020e10 g     O .bss	00000028 __malloc_current_mallinfo
0200e168 g     F .text	00000144 __d2b
020014a4 g     F .text	00000464 displayGamma149ColourBars
02015638 g     F .text	0000005c epcs_read_status_register
0201e320 g     O .rodata	0000000c CDROM
0200898c g     F .text	0000001c realloc
02020dd0 g     O .bss	00000004 gCurrentGIF
0201421c g     F .text	00000060 altera_avalon_jtag_uart_read_fd
02006f20 g     F .text	000000b4 _fdopen_r
02016068 g     F .text	000000d4 alt_get_fd
0200b6b8 g     F .text	00000064 _close_r
02005068 g     F .text	000000a4 GifApplyTranslation
0201d8d8 g     O .rodata	0000000c Rydia
02015b2c g     F .text	00000080 epcs_read_device_id
02008688 g     F .text	0000007c memcmp
020142dc g     F .text	00000050 altera_avalon_jtag_uart_close_fd
02020f50 g       *ABS*	00000000 __alt_stack_base
0201432c g     F .text	00000054 altera_avalon_jtag_uart_ioctl_fd
02006fd4 g     F .text	0000001c fdopen
02004b40 g     F .text	000000f8 GifMakeMapObject
0200b580 g     F .text	00000138 __swsetup_r
02005948 g     F .text	0000099c .hidden __divdf3
020074ac g     F .text	0000011c __sfp
0200e3c0 g     F .text	00000078 __copybits
0201f564 g     O .rwdata	00000408 __malloc_av_
020075d4 g     F .text	00000004 __sinit_lock_release
020062e4 g     F .text	00000800 .hidden __muldf3
04009000 g       *ABS*	00000000 __alt_mem_epcs_flash_controller
02009164 g     F .text	00000054 __sread
020078f0 g     F .text	00000040 fread
02015e9c g     F .text	00000114 alt_find_file
02015cb4 g     F .text	000000a0 alt_dev_llist_insert
02012df0 g     F .text	00000020 __malloc_lock
0201d3ac g     O .rodata	0000000c Candle
02013298 g     F .text	000000b0 sbrk
02000738 g     F .text	00000144 displayBitmap
02006ff0 g     F .text	00000244 _fflush_r
02006cfc g     F .text	000000d8 _calloc_r
02017294 g     O .rodata	0000000c psyduck
02020dbc g     O .rwdata	00000008 alt_flash_dev_list
02001908 g     F .text	00000464 displayGamma98ColourBars
02004c80 g     F .text	000003e8 GifUnionColorMap
02020dc8 g       *ABS*	00000000 __bss_start
0200087c g     F .text	000007c4 displayColourBars
02008810 g     F .text	00000114 memset
02003908 g     F .text	0000007c DGifGetCode
0200054c g     F .text	000000dc main
02005678 g     F .text	00000100 GifFreeSavedImages
020172a0 g     O .rodata	000001e1 FF4ChestGifBytes
02020dfc g     O .bss	00000004 alt_envp
02020dd8 g     O .bss	00000004 __malloc_max_total_mem
02020dc8 g     O .bss	00000004 gMemoryGifBytesRead
0201427c g     F .text	00000060 altera_avalon_jtag_uart_write_fd
02010538 g     F .text	0000001c __swbuf
020076a0 g     F .text	00000250 _fread_r
02016cf0 g     O .rodata	0000000c margepolice
02009298 g     F .text	00000008 __sclose
04000000 g       *ABS*	00000000 __alt_heap_limit
02006f0c g     F .text	00000014 fclose
0201b7f4 g     O .rodata	0000000c pharmacy
0200b944 g     F .text	0000163c _dtoa_r
02007ec4 g     F .text	000007c4 _malloc_r
020106c8 g     F .text	00000030 __ascii_wctomb
02020dac g     O .rwdata	00000004 alt_errno
02007d3c g     F .text	000000a8 _fwalk
0200587c g     F .text	00000048 .hidden __divsi3
02007930 g     F .text	0000013c _malloc_trim_r
02016b58 g       *ABS*	00000000 __CTOR_END__
0201d2c4 g     O .rodata	0000000c StairsDown2
02013c8c g     F .text	00000260 alt_epcs_flash_write
0200e594 g     F .text	000000a4 strcmp
02016b58 g       *ABS*	00000000 __DTOR_LIST__
0201d6d0 g     O .rodata	0000000c CecilWalking
02000628 g     F .text	00000038 delay
02011c58 g     F .text	00000084 .hidden __nedf2
02013660 g     F .text	00000034 alt_irq_init
02013218 g     F .text	00000080 alt_release_fd
0201edd0 g     O .rodata	00000100 .hidden __clz_tab
02020de8 g     O .bss	00000004 _PathLocale
02016818 g     F .text	00000014 atexit
0200b514 g     F .text	0000006c _write_r
0200d02c g     F .text	0000001c setlocale
02020d84 g     O .rwdata	00000004 _impure_ptr
02020df4 g     O .bss	00000004 alt_argc
02015db0 g     F .text	0000005c _do_dtors
0200d018 g     F .text	00000008 __locale_cjk_lang
02008f28 g     F .text	000001d8 __srefill_r
02000020 g       .exceptions	00000000 alt_irq_entry
0200e018 g     F .text	00000060 __ulp
0200357c g     F .text	00000130 DGifSavedExtensionToGCB
020075f0 g     F .text	00000018 __fp_unlock_all
02020d98 g     O .rwdata	00000008 alt_fs_list
0201d480 g     O .rodata	0000000c Letter
020024a8 g     F .text	0000023c DGifOpen
020175dc g     O .rodata	0000000c WiggumGIF
0200d048 g     F .text	0000000c localeconv
020157fc g     F .text	000000f4 epcs_read_buffer
04000000 g       *ABS*	00000000 __alt_mem_onchip_memory2
02013758 g     F .text	00000054 alt_epcs_flash_init
0201613c g     F .text	00000050 alt_ic_isr_register
0201a1e0 g     O .rodata	00000122 girlprayingbytes
02020dc8 g       *ABS*	00000000 _edata
02014d50 g     F .text	00000060 altera_avalon_uart_read_fd
02020f50 g       *ABS*	00000000 _end
02015fb0 g     F .text	00000068 alt_flash_open_dev
02014748 g     F .text	000000ec altera_avalon_jtag_uart_ioctl
0201749c g     O .rodata	00000135 WiggumGifBytes
02005278 g     F .text	000000b8 GifFreeExtensions
02016228 g     F .text	000000a0 alt_ic_irq_disable
02015bac g     F .text	0000005c epcs_enter_4_bytes_mode
020091c0 g     F .text	0000007c __swrite
02020d8c g     O .rwdata	00000004 __malloc_trim_threshold
0200d00c g     F .text	0000000c __locale_msgcharset
0201682c g     F .text	00000038 exit
02007de4 g     F .text	000000b8 _fwalk_reent
0200de68 g     F .text	000001b0 __mdiff
02003984 g     F .text	0000018c DGifGetCodeNext
02016018 g     F .text	00000050 alt_flash_close_dev
020058c4 g     F .text	0000004c .hidden __modsi3
04000000 g       *ABS*	00000000 __alt_data_end
02000020 g     F .exceptions	00000000 alt_exception
020075cc g     F .text	00000004 __sfp_lock_release
0201df38 g     O .rodata	0000000c Mouse
020151c0 g     F .text	00000054 altera_avalon_uart_close
0201d204 g     O .rodata	0000000c WeaponShop2
02016b24 g     F .text	00000034 _exit
020127c8 g     F .text	00000140 alt_alarm_start
0200d0c0 g     F .text	000001b4 __smakebuf_r
020004a0 g     F .text	000000ac MemoryGIFRead
0200e638 g     F .text	0000008c strlen
020158f0 g     F .text	00000050 epcs_write_enable
02012f74 g     F .text	0000015c open
02011cdc g     F .text	000000d8 .hidden __gedf2
02001040 g     F .text	00000464 displayCIEColourBars
02020d94 g     O .rwdata	00000004 __wctomb
0200510c g     F .text	0000016c GifAddExtensionBlock
0200e7c0 g     F .text	00000018 __sprint_r
0201dff4 g     O .rodata	0000000c TeachText
02020dc4 g     O .rwdata	00000004 alt_priority_mask
02005778 g     F .text	00000094 reallocarray
0201618c g     F .text	0000009c alt_ic_irq_enable
0200b4f0 g     F .text	00000024 __vfprintf_internal
02015264 g     F .text	000001dc altera_avalon_uart_read
020106f8 g     F .text	0000005c _wctomb_r
02011ea0 g     F .text	00000888 .hidden __subdf3
0201e9a8 g     O .rodata	00000200 gamma98half
02014184 g     F .text	00000098 alt_epcs_flash_read
0200d818 g     F .text	000000b0 __lo0bits
02020db4 g     O .rwdata	00000008 alt_alarm_list
02015d54 g     F .text	0000005c _do_ctors
020105f0 g     F .text	000000d8 wcrtomb
0201e3a8 g     O .rodata	00000200 linearRGB
02012958 g     F .text	000000d0 close
0201e0b0 g     O .rodata	0000000c TrashBulging
0200fdc8 g     F .text	00000078 fputwc
02007eb0 g     F .text	00000014 free
020075d0 g     F .text	00000004 __sinit_lock_acquire
020159a8 g     F .text	0000011c epcs_write_buffer
0200d568 g     F .text	00000144 __multadd
0200d540 g     F .text	00000028 _Bfree



Disassembly of section .exceptions:

02000020 <alt_exception>:
 2000020:	deffed04 	addi	sp,sp,-76
 2000024:	dfc00015 	stw	ra,0(sp)
 2000028:	d8400215 	stw	at,8(sp)
 200002c:	d8800315 	stw	r2,12(sp)
 2000030:	d8c00415 	stw	r3,16(sp)
 2000034:	d9000515 	stw	r4,20(sp)
 2000038:	d9400615 	stw	r5,24(sp)
 200003c:	d9800715 	stw	r6,28(sp)
 2000040:	d9c00815 	stw	r7,32(sp)
 2000044:	000b307a 	rdctl	r5,estatus
 2000048:	da000915 	stw	r8,36(sp)
 200004c:	da400a15 	stw	r9,40(sp)
 2000050:	da800b15 	stw	r10,44(sp)
 2000054:	dac00c15 	stw	r11,48(sp)
 2000058:	db000d15 	stw	r12,52(sp)
 200005c:	db400e15 	stw	r13,56(sp)
 2000060:	db800f15 	stw	r14,60(sp)
 2000064:	dbc01015 	stw	r15,64(sp)
 2000068:	d9401115 	stw	r5,68(sp)
 200006c:	ebffff04 	addi	r15,ea,-4
 2000070:	dbc01215 	stw	r15,72(sp)
 2000074:	0009313a 	rdctl	r4,ipending
 2000078:	2880004c 	andi	r2,r5,1
 200007c:	10000326 	beq	r2,zero,200008c <alt_exception+0x6c>
 2000080:	20000226 	beq	r4,zero,200008c <alt_exception+0x6c>
 2000084:	20000fc0 	call	20000fc <alt_irq_handler>
 2000088:	00000706 	br	20000a8 <alt_exception+0x88>
 200008c:	df401215 	stw	ea,72(sp)
 2000090:	e8bfff17 	ldw	r2,-4(ea)
 2000094:	e93fff04 	addi	r4,ea,-4
 2000098:	20001cc0 	call	20001cc <alt_instruction_exception_entry>
 200009c:	1000021e 	bne	r2,zero,20000a8 <alt_exception+0x88>
 20000a0:	ebffff04 	addi	r15,ea,-4
 20000a4:	dbc01215 	stw	r15,72(sp)
 20000a8:	d9401117 	ldw	r5,68(sp)
 20000ac:	df401217 	ldw	ea,72(sp)
 20000b0:	dfc00017 	ldw	ra,0(sp)
 20000b4:	2801707a 	wrctl	estatus,r5
 20000b8:	d8400217 	ldw	at,8(sp)
 20000bc:	d8800317 	ldw	r2,12(sp)
 20000c0:	d8c00417 	ldw	r3,16(sp)
 20000c4:	d9000517 	ldw	r4,20(sp)
 20000c8:	d9400617 	ldw	r5,24(sp)
 20000cc:	d9800717 	ldw	r6,28(sp)
 20000d0:	d9c00817 	ldw	r7,32(sp)
 20000d4:	da000917 	ldw	r8,36(sp)
 20000d8:	da400a17 	ldw	r9,40(sp)
 20000dc:	da800b17 	ldw	r10,44(sp)
 20000e0:	dac00c17 	ldw	r11,48(sp)
 20000e4:	db000d17 	ldw	r12,52(sp)
 20000e8:	db400e17 	ldw	r13,56(sp)
 20000ec:	db800f17 	ldw	r14,60(sp)
 20000f0:	dbc01017 	ldw	r15,64(sp)
 20000f4:	dec01304 	addi	sp,sp,76
 20000f8:	ef80083a 	eret

020000fc <alt_irq_handler>:
 20000fc:	defff904 	addi	sp,sp,-28
 2000100:	dfc00615 	stw	ra,24(sp)
 2000104:	df000515 	stw	fp,20(sp)
 2000108:	df000504 	addi	fp,sp,20
 200010c:	0001883a 	nop
 2000110:	0005313a 	rdctl	r2,ipending
 2000114:	e0bffe15 	stw	r2,-8(fp)
 2000118:	e0bffe17 	ldw	r2,-8(fp)
 200011c:	e0bffb15 	stw	r2,-20(fp)
 2000120:	e03ffd15 	stw	zero,-12(fp)
 2000124:	00800044 	movi	r2,1
 2000128:	e0bffc15 	stw	r2,-16(fp)
 200012c:	e0fffb17 	ldw	r3,-20(fp)
 2000130:	e0bffc17 	ldw	r2,-16(fp)
 2000134:	1884703a 	and	r2,r3,r2
 2000138:	10001726 	beq	r2,zero,2000198 <alt_irq_handler+0x9c>
 200013c:	00c080b4 	movhi	r3,514
 2000140:	18c39404 	addi	r3,r3,3664
 2000144:	e0bffd17 	ldw	r2,-12(fp)
 2000148:	100490fa 	slli	r2,r2,3
 200014c:	1885883a 	add	r2,r3,r2
 2000150:	10800017 	ldw	r2,0(r2)
 2000154:	010080b4 	movhi	r4,514
 2000158:	21039404 	addi	r4,r4,3664
 200015c:	e0fffd17 	ldw	r3,-12(fp)
 2000160:	180690fa 	slli	r3,r3,3
 2000164:	20c7883a 	add	r3,r4,r3
 2000168:	18c00104 	addi	r3,r3,4
 200016c:	18c00017 	ldw	r3,0(r3)
 2000170:	1809883a 	mov	r4,r3
 2000174:	103ee83a 	callr	r2
 2000178:	0001883a 	nop
 200017c:	0005313a 	rdctl	r2,ipending
 2000180:	e0bfff15 	stw	r2,-4(fp)
 2000184:	e0bfff17 	ldw	r2,-4(fp)
 2000188:	e0bffb15 	stw	r2,-20(fp)
 200018c:	e0bffb17 	ldw	r2,-20(fp)
 2000190:	103fe31e 	bne	r2,zero,2000120 <__reset+0xfdff7120>
 2000194:	00000706 	br	20001b4 <alt_irq_handler+0xb8>
 2000198:	e0bffc17 	ldw	r2,-16(fp)
 200019c:	1085883a 	add	r2,r2,r2
 20001a0:	e0bffc15 	stw	r2,-16(fp)
 20001a4:	e0bffd17 	ldw	r2,-12(fp)
 20001a8:	10800044 	addi	r2,r2,1
 20001ac:	e0bffd15 	stw	r2,-12(fp)
 20001b0:	003fde06 	br	200012c <__reset+0xfdff712c>
 20001b4:	0001883a 	nop
 20001b8:	e037883a 	mov	sp,fp
 20001bc:	dfc00117 	ldw	ra,4(sp)
 20001c0:	df000017 	ldw	fp,0(sp)
 20001c4:	dec00204 	addi	sp,sp,8
 20001c8:	f800283a 	ret

020001cc <alt_instruction_exception_entry>:
 20001cc:	defffb04 	addi	sp,sp,-20
 20001d0:	dfc00415 	stw	ra,16(sp)
 20001d4:	df000315 	stw	fp,12(sp)
 20001d8:	df000304 	addi	fp,sp,12
 20001dc:	e13fff15 	stw	r4,-4(fp)
 20001e0:	00bfffc4 	movi	r2,-1
 20001e4:	e0bffd15 	stw	r2,-12(fp)
 20001e8:	e03ffe15 	stw	zero,-8(fp)
 20001ec:	d0a02517 	ldw	r2,-32620(gp)
 20001f0:	10000726 	beq	r2,zero,2000210 <alt_instruction_exception_entry+0x44>
 20001f4:	d0a02517 	ldw	r2,-32620(gp)
 20001f8:	e0fffd17 	ldw	r3,-12(fp)
 20001fc:	1809883a 	mov	r4,r3
 2000200:	e17fff17 	ldw	r5,-4(fp)
 2000204:	e1bffe17 	ldw	r6,-8(fp)
 2000208:	103ee83a 	callr	r2
 200020c:	00000206 	br	2000218 <alt_instruction_exception_entry+0x4c>
 2000210:	003da03a 	break	0
 2000214:	0005883a 	mov	r2,zero
 2000218:	e037883a 	mov	sp,fp
 200021c:	dfc00117 	ldw	ra,4(sp)
 2000220:	df000017 	ldw	fp,0(sp)
 2000224:	dec00204 	addi	sp,sp,8
 2000228:	f800283a 	ret

Disassembly of section .text:

0200022c <_start>:
 200022c:	06c10034 	movhi	sp,1024
 2000230:	dec00014 	ori	sp,sp,0
 2000234:	068080b4 	movhi	gp,514
 2000238:	d6a35e14 	ori	gp,gp,36216
 200023c:	008080b4 	movhi	r2,514
 2000240:	10837214 	ori	r2,r2,3528
 2000244:	00c080b4 	movhi	r3,514
 2000248:	18c3d414 	ori	r3,r3,3920
 200024c:	10c00326 	beq	r2,r3,200025c <_start+0x30>
 2000250:	10000015 	stw	zero,0(r2)
 2000254:	10800104 	addi	r2,r2,4
 2000258:	10fffd36 	bltu	r2,r3,2000250 <__reset+0xfdff7250>
 200025c:	2012d780 	call	2012d78 <alt_main>

02000260 <alt_after_alt_main>:
 2000260:	003fff06 	br	2000260 <__reset+0xfdff7260>

02000264 <frame_callback>:
 2000264:	defbf304 	addi	sp,sp,-4148
 2000268:	dfc40c15 	stw	ra,4144(sp)
 200026c:	df040b15 	stw	fp,4140(sp)
 2000270:	dc440a15 	stw	r17,4136(sp)
 2000274:	dc040915 	stw	r16,4132(sp)
 2000278:	df040b04 	addi	fp,sp,4140
 200027c:	e13ffd15 	stw	r4,-12(fp)
 2000280:	008080b4 	movhi	r2,514
 2000284:	10838104 	addi	r2,r2,3588
 2000288:	10800017 	ldw	r2,0(r2)
 200028c:	d0e00117 	ldw	r3,-32764(gp)
 2000290:	1880282e 	bgeu	r3,r2,2000334 <frame_callback+0xd0>
 2000294:	d0a01717 	ldw	r2,-32676(gp)
 2000298:	10c00044 	addi	r3,r2,1
 200029c:	00800044 	movi	r2,1
 20002a0:	1809883a 	mov	r4,r3
 20002a4:	100b883a 	mov	r5,r2
 20002a8:	20058c40 	call	20058c4 <__modsi3>
 20002ac:	d0a01715 	stw	r2,-32676(gp)
 20002b0:	d0e01617 	ldw	r3,-32680(gp)
 20002b4:	e0bffb04 	addi	r2,fp,-20
 20002b8:	1809883a 	mov	r4,r3
 20002bc:	100b883a 	mov	r5,r2
 20002c0:	20036ac0 	call	20036ac <DGifCloseFile>
 20002c4:	d0201415 	stw	zero,-32688(gp)
 20002c8:	d0a01717 	ldw	r2,-32676(gp)
 20002cc:	00c080b4 	movhi	r3,514
 20002d0:	18fc3b04 	addi	r3,r3,-3860
 20002d4:	1085883a 	add	r2,r2,r2
 20002d8:	1085883a 	add	r2,r2,r2
 20002dc:	1885883a 	add	r2,r3,r2
 20002e0:	10c00017 	ldw	r3,0(r2)
 20002e4:	e0bffb04 	addi	r2,fp,-20
 20002e8:	1809883a 	mov	r4,r3
 20002ec:	01408034 	movhi	r5,512
 20002f0:	29412804 	addi	r5,r5,1184
 20002f4:	100d883a 	mov	r6,r2
 20002f8:	20024a80 	call	20024a8 <DGifOpen>
 20002fc:	d0a01615 	stw	r2,-32680(gp)
 2000300:	d0a01617 	ldw	r2,-32680(gp)
 2000304:	1009883a 	mov	r4,r2
 2000308:	20047080 	call	2004708 <DGifSlurp>
 200030c:	e0bbf715 	stw	r2,-4132(fp)
 2000310:	e0bffb17 	ldw	r2,-20(fp)
 2000314:	010080b4 	movhi	r4,514
 2000318:	2138cb04 	addi	r4,r4,-7380
 200031c:	100b883a 	mov	r5,r2
 2000320:	e1bbf717 	ldw	r6,-4132(fp)
 2000324:	20089500 	call	2008950 <printf>
 2000328:	d0a00117 	ldw	r2,-32764(gp)
 200032c:	1081f404 	addi	r2,r2,2000
 2000330:	d0a00115 	stw	r2,-32764(gp)
 2000334:	e03bf515 	stw	zero,-4140(fp)
 2000338:	00004306 	br	2000448 <frame_callback+0x1e4>
 200033c:	e03bf615 	stw	zero,-4136(fp)
 2000340:	00003b06 	br	2000430 <frame_callback+0x1cc>
 2000344:	d0a01617 	ldw	r2,-32680(gp)
 2000348:	10800517 	ldw	r2,20(r2)
 200034c:	14000317 	ldw	r16,12(r2)
 2000350:	d0a01617 	ldw	r2,-32680(gp)
 2000354:	14400d17 	ldw	r17,52(r2)
 2000358:	d0a01517 	ldw	r2,-32684(gp)
 200035c:	1009883a 	mov	r4,r2
 2000360:	01400904 	movi	r5,36
 2000364:	20059200 	call	2005920 <__mulsi3>
 2000368:	8885883a 	add	r2,r17,r2
 200036c:	10c00617 	ldw	r3,24(r2)
 2000370:	e0bbf517 	ldw	r2,-4140(fp)
 2000374:	1008917a 	slli	r4,r2,5
 2000378:	e0bbf617 	ldw	r2,-4136(fp)
 200037c:	2085883a 	add	r2,r4,r2
 2000380:	1885883a 	add	r2,r3,r2
 2000384:	10800003 	ldbu	r2,0(r2)
 2000388:	10c03fcc 	andi	r3,r2,255
 200038c:	1805883a 	mov	r2,r3
 2000390:	1085883a 	add	r2,r2,r2
 2000394:	10c5883a 	add	r2,r2,r3
 2000398:	8085883a 	add	r2,r16,r2
 200039c:	10c00003 	ldbu	r3,0(r2)
 20003a0:	e0fffc05 	stb	r3,-16(fp)
 20003a4:	10c00043 	ldbu	r3,1(r2)
 20003a8:	e0fffc45 	stb	r3,-15(fp)
 20003ac:	10800083 	ldbu	r2,2(r2)
 20003b0:	e0bffc85 	stb	r2,-14(fp)
 20003b4:	e0bffc03 	ldbu	r2,-16(fp)
 20003b8:	10803fcc 	andi	r2,r2,255
 20003bc:	e0bbf80d 	sth	r2,-4128(fp)
 20003c0:	e0bffc43 	ldbu	r2,-15(fp)
 20003c4:	10803fcc 	andi	r2,r2,255
 20003c8:	e0bbf88d 	sth	r2,-4126(fp)
 20003cc:	e0bffc83 	ldbu	r2,-14(fp)
 20003d0:	10803fcc 	andi	r2,r2,255
 20003d4:	e0bbf90d 	sth	r2,-4124(fp)
 20003d8:	e0bbf90b 	ldhu	r2,-4124(fp)
 20003dc:	1006943a 	slli	r3,r2,16
 20003e0:	e0bbf88b 	ldhu	r2,-4126(fp)
 20003e4:	1004923a 	slli	r2,r2,8
 20003e8:	1886b03a 	or	r3,r3,r2
 20003ec:	e0bbf80b 	ldhu	r2,-4128(fp)
 20003f0:	1884b03a 	or	r2,r3,r2
 20003f4:	e0bbfa15 	stw	r2,-4120(fp)
 20003f8:	e0bbf617 	ldw	r2,-4136(fp)
 20003fc:	1006917a 	slli	r3,r2,5
 2000400:	e0bbf517 	ldw	r2,-4140(fp)
 2000404:	1885883a 	add	r2,r3,r2
 2000408:	1085883a 	add	r2,r2,r2
 200040c:	1085883a 	add	r2,r2,r2
 2000410:	e0fbf504 	addi	r3,fp,-4140
 2000414:	1885883a 	add	r2,r3,r2
 2000418:	10800604 	addi	r2,r2,24
 200041c:	e0fbfa17 	ldw	r3,-4120(fp)
 2000420:	10c00015 	stw	r3,0(r2)
 2000424:	e0bbf617 	ldw	r2,-4136(fp)
 2000428:	10800044 	addi	r2,r2,1
 200042c:	e0bbf615 	stw	r2,-4136(fp)
 2000430:	e0bbf617 	ldw	r2,-4136(fp)
 2000434:	10800810 	cmplti	r2,r2,32
 2000438:	103fc21e 	bne	r2,zero,2000344 <__reset+0xfdff7344>
 200043c:	e0bbf517 	ldw	r2,-4140(fp)
 2000440:	10800044 	addi	r2,r2,1
 2000444:	e0bbf515 	stw	r2,-4140(fp)
 2000448:	e0bbf517 	ldw	r2,-4140(fp)
 200044c:	10800810 	cmplti	r2,r2,32
 2000450:	103fba1e 	bne	r2,zero,200033c <__reset+0xfdff733c>
 2000454:	e0bbfb04 	addi	r2,fp,-4116
 2000458:	1009883a 	mov	r4,r2
 200045c:	20007380 	call	2000738 <displayBitmap>
 2000460:	d0a01517 	ldw	r2,-32684(gp)
 2000464:	10c00044 	addi	r3,r2,1
 2000468:	d0a01617 	ldw	r2,-32680(gp)
 200046c:	10800617 	ldw	r2,24(r2)
 2000470:	1809883a 	mov	r4,r3
 2000474:	100b883a 	mov	r5,r2
 2000478:	20059180 	call	2005918 <__umodsi3>
 200047c:	d0a01515 	stw	r2,-32684(gp)
 2000480:	00801904 	movi	r2,100
 2000484:	e6fffe04 	addi	sp,fp,-8
 2000488:	dfc00317 	ldw	ra,12(sp)
 200048c:	df000217 	ldw	fp,8(sp)
 2000490:	dc400117 	ldw	r17,4(sp)
 2000494:	dc000017 	ldw	r16,0(sp)
 2000498:	dec00404 	addi	sp,sp,16
 200049c:	f800283a 	ret

020004a0 <MemoryGIFRead>:
 20004a0:	defff804 	addi	sp,sp,-32
 20004a4:	dfc00715 	stw	ra,28(sp)
 20004a8:	df000615 	stw	fp,24(sp)
 20004ac:	df000604 	addi	fp,sp,24
 20004b0:	e13ffd15 	stw	r4,-12(fp)
 20004b4:	e17ffe15 	stw	r5,-8(fp)
 20004b8:	e1bfff15 	stw	r6,-4(fp)
 20004bc:	e0bffd17 	ldw	r2,-12(fp)
 20004c0:	10801117 	ldw	r2,68(r2)
 20004c4:	e0bffb15 	stw	r2,-20(fp)
 20004c8:	e0bffb17 	ldw	r2,-20(fp)
 20004cc:	10c00117 	ldw	r3,4(r2)
 20004d0:	d0a01417 	ldw	r2,-32688(gp)
 20004d4:	1885c83a 	sub	r2,r3,r2
 20004d8:	e0bffc15 	stw	r2,-16(fp)
 20004dc:	e03ffa15 	stw	zero,-24(fp)
 20004e0:	e0bfff17 	ldw	r2,-4(fp)
 20004e4:	e0fffc17 	ldw	r3,-16(fp)
 20004e8:	1880030e 	bge	r3,r2,20004f8 <MemoryGIFRead+0x58>
 20004ec:	e0bffc17 	ldw	r2,-16(fp)
 20004f0:	e0bffa15 	stw	r2,-24(fp)
 20004f4:	00000206 	br	2000500 <MemoryGIFRead+0x60>
 20004f8:	e0bfff17 	ldw	r2,-4(fp)
 20004fc:	e0bffa15 	stw	r2,-24(fp)
 2000500:	e0bffb17 	ldw	r2,-20(fp)
 2000504:	10c00217 	ldw	r3,8(r2)
 2000508:	d0a01417 	ldw	r2,-32688(gp)
 200050c:	1887883a 	add	r3,r3,r2
 2000510:	e0bffa17 	ldw	r2,-24(fp)
 2000514:	e13ffe17 	ldw	r4,-8(fp)
 2000518:	180b883a 	mov	r5,r3
 200051c:	100d883a 	mov	r6,r2
 2000520:	20087040 	call	2008704 <memcpy>
 2000524:	d0e01417 	ldw	r3,-32688(gp)
 2000528:	e0bffa17 	ldw	r2,-24(fp)
 200052c:	1885883a 	add	r2,r3,r2
 2000530:	d0a01415 	stw	r2,-32688(gp)
 2000534:	e0bffa17 	ldw	r2,-24(fp)
 2000538:	e037883a 	mov	sp,fp
 200053c:	dfc00117 	ldw	ra,4(sp)
 2000540:	df000017 	ldw	fp,0(sp)
 2000544:	dec00204 	addi	sp,sp,8
 2000548:	f800283a 	ret

0200054c <main>:
 200054c:	defffd04 	addi	sp,sp,-12
 2000550:	dfc00215 	stw	ra,8(sp)
 2000554:	df000115 	stw	fp,4(sp)
 2000558:	df000104 	addi	fp,sp,4
 200055c:	0007883a 	mov	r3,zero
 2000560:	00810074 	movhi	r2,1025
 2000564:	10a81804 	addi	r2,r2,-24480
 2000568:	10c00035 	stwio	r3,0(r2)
 200056c:	e03fff15 	stw	zero,-4(fp)
 2000570:	d0201415 	stw	zero,-32688(gp)
 2000574:	200087c0 	call	200087c <displayColourBars>
 2000578:	008080b4 	movhi	r2,514
 200057c:	10bc3b04 	addi	r2,r2,-3860
 2000580:	10800017 	ldw	r2,0(r2)
 2000584:	1009883a 	mov	r4,r2
 2000588:	01408034 	movhi	r5,512
 200058c:	29412804 	addi	r5,r5,1184
 2000590:	e1bfff04 	addi	r6,fp,-4
 2000594:	20024a80 	call	20024a8 <DGifOpen>
 2000598:	d0a01615 	stw	r2,-32680(gp)
 200059c:	e0bfff17 	ldw	r2,-4(fp)
 20005a0:	010080b4 	movhi	r4,514
 20005a4:	2138d704 	addi	r4,r4,-7332
 20005a8:	100b883a 	mov	r5,r2
 20005ac:	20089500 	call	2008950 <printf>
 20005b0:	d0a01617 	ldw	r2,-32680(gp)
 20005b4:	1009883a 	mov	r4,r2
 20005b8:	20047080 	call	2004708 <DGifSlurp>
 20005bc:	e0bfff15 	stw	r2,-4(fp)
 20005c0:	e0bfff17 	ldw	r2,-4(fp)
 20005c4:	010080b4 	movhi	r4,514
 20005c8:	2138de04 	addi	r4,r4,-7304
 20005cc:	100b883a 	mov	r5,r2
 20005d0:	20089500 	call	2008950 <printf>
 20005d4:	e0bfff17 	ldw	r2,-4(fp)
 20005d8:	10800060 	cmpeqi	r2,r2,1
 20005dc:	10000a1e 	bne	r2,zero,2000608 <main+0xbc>
 20005e0:	d0a01617 	ldw	r2,-32680(gp)
 20005e4:	10801017 	ldw	r2,64(r2)
 20005e8:	010080b4 	movhi	r4,514
 20005ec:	2138e504 	addi	r4,r4,-7276
 20005f0:	100b883a 	mov	r5,r2
 20005f4:	20089500 	call	2008950 <printf>
 20005f8:	d0a01617 	ldw	r2,-32680(gp)
 20005fc:	1009883a 	mov	r4,r2
 2000600:	e17fff04 	addi	r5,fp,-4
 2000604:	20036ac0 	call	20036ac <DGifCloseFile>
 2000608:	010080b4 	movhi	r4,514
 200060c:	21038e04 	addi	r4,r4,3640
 2000610:	01401904 	movi	r5,100
 2000614:	01808034 	movhi	r6,512
 2000618:	31809904 	addi	r6,r6,612
 200061c:	000f883a 	mov	r7,zero
 2000620:	20127c80 	call	20127c8 <alt_alarm_start>
 2000624:	003fff06 	br	2000624 <__reset+0xfdff7624>

02000628 <delay>:
 2000628:	defffe04 	addi	sp,sp,-8
 200062c:	df000115 	stw	fp,4(sp)
 2000630:	df000104 	addi	fp,sp,4
 2000634:	e03fff15 	stw	zero,-4(fp)
 2000638:	00000306 	br	2000648 <delay+0x20>
 200063c:	e0bfff17 	ldw	r2,-4(fp)
 2000640:	10800044 	addi	r2,r2,1
 2000644:	e0bfff15 	stw	r2,-4(fp)
 2000648:	e0bfff17 	ldw	r2,-4(fp)
 200064c:	00bffb0e 	bge	zero,r2,200063c <__reset+0xfdff763c>
 2000650:	e037883a 	mov	sp,fp
 2000654:	df000017 	ldw	fp,0(sp)
 2000658:	dec00104 	addi	sp,sp,4
 200065c:	f800283a 	ret

02000660 <blank>:
 2000660:	defffb04 	addi	sp,sp,-20
 2000664:	dfc00415 	stw	ra,16(sp)
 2000668:	df000315 	stw	fp,12(sp)
 200066c:	df000304 	addi	fp,sp,12
 2000670:	e03ffd15 	stw	zero,-12(fp)
 2000674:	00002806 	br	2000718 <blank+0xb8>
 2000678:	e03ffe15 	stw	zero,-8(fp)
 200067c:	00002006 	br	2000700 <blank+0xa0>
 2000680:	00810004 	movi	r2,1024
 2000684:	e0bfff15 	stw	r2,-4(fp)
 2000688:	e0bffd17 	ldw	r2,-12(fp)
 200068c:	1004917a 	slli	r2,r2,5
 2000690:	e0ffff17 	ldw	r3,-4(fp)
 2000694:	1885883a 	add	r2,r3,r2
 2000698:	e0bfff15 	stw	r2,-4(fp)
 200069c:	e0ffff17 	ldw	r3,-4(fp)
 20006a0:	e0bffe17 	ldw	r2,-8(fp)
 20006a4:	1885883a 	add	r2,r3,r2
 20006a8:	e0bfff15 	stw	r2,-4(fp)
 20006ac:	00810074 	movhi	r2,1025
 20006b0:	10a82004 	addi	r2,r2,-24448
 20006b4:	e0ffff17 	ldw	r3,-4(fp)
 20006b8:	10c00035 	stwio	r3,0(r2)
 20006bc:	0007883a 	mov	r3,zero
 20006c0:	00810074 	movhi	r2,1025
 20006c4:	10a81c04 	addi	r2,r2,-24464
 20006c8:	10c00035 	stwio	r3,0(r2)
 20006cc:	20006280 	call	2000628 <delay>
 20006d0:	00c00044 	movi	r3,1
 20006d4:	00810074 	movhi	r2,1025
 20006d8:	10a81804 	addi	r2,r2,-24480
 20006dc:	10c00035 	stwio	r3,0(r2)
 20006e0:	20006280 	call	2000628 <delay>
 20006e4:	0007883a 	mov	r3,zero
 20006e8:	00810074 	movhi	r2,1025
 20006ec:	10a81804 	addi	r2,r2,-24480
 20006f0:	10c00035 	stwio	r3,0(r2)
 20006f4:	e0bffe17 	ldw	r2,-8(fp)
 20006f8:	10800044 	addi	r2,r2,1
 20006fc:	e0bffe15 	stw	r2,-8(fp)
 2000700:	e0bffe17 	ldw	r2,-8(fp)
 2000704:	10800810 	cmplti	r2,r2,32
 2000708:	103fdd1e 	bne	r2,zero,2000680 <__reset+0xfdff7680>
 200070c:	e0bffd17 	ldw	r2,-12(fp)
 2000710:	10800044 	addi	r2,r2,1
 2000714:	e0bffd15 	stw	r2,-12(fp)
 2000718:	e0bffd17 	ldw	r2,-12(fp)
 200071c:	10800810 	cmplti	r2,r2,32
 2000720:	103fd51e 	bne	r2,zero,2000678 <__reset+0xfdff7678>
 2000724:	e037883a 	mov	sp,fp
 2000728:	dfc00117 	ldw	ra,4(sp)
 200072c:	df000017 	ldw	fp,0(sp)
 2000730:	dec00204 	addi	sp,sp,8
 2000734:	f800283a 	ret

02000738 <displayBitmap>:
 2000738:	defff804 	addi	sp,sp,-32
 200073c:	df000715 	stw	fp,28(sp)
 2000740:	df000704 	addi	fp,sp,28
 2000744:	e13fff15 	stw	r4,-4(fp)
 2000748:	e03ff915 	stw	zero,-28(fp)
 200074c:	00004406 	br	2000860 <displayBitmap+0x128>
 2000750:	e0bff917 	ldw	r2,-28(fp)
 2000754:	10810004 	addi	r2,r2,1024
 2000758:	e0bffa15 	stw	r2,-24(fp)
 200075c:	e0bff917 	ldw	r2,-28(fp)
 2000760:	1085883a 	add	r2,r2,r2
 2000764:	1085883a 	add	r2,r2,r2
 2000768:	e0ffff17 	ldw	r3,-4(fp)
 200076c:	1885883a 	add	r2,r3,r2
 2000770:	10800017 	ldw	r2,0(r2)
 2000774:	e0bffb15 	stw	r2,-20(fp)
 2000778:	e0bffb17 	ldw	r2,-20(fp)
 200077c:	1004d43a 	srli	r2,r2,16
 2000780:	10803fcc 	andi	r2,r2,255
 2000784:	00c080b4 	movhi	r3,514
 2000788:	18faea04 	addi	r3,r3,-5208
 200078c:	1085883a 	add	r2,r2,r2
 2000790:	1885883a 	add	r2,r3,r2
 2000794:	1080000b 	ldhu	r2,0(r2)
 2000798:	e0bffc0d 	sth	r2,-16(fp)
 200079c:	e0bffb17 	ldw	r2,-20(fp)
 20007a0:	1004d23a 	srli	r2,r2,8
 20007a4:	10803fcc 	andi	r2,r2,255
 20007a8:	00c080b4 	movhi	r3,514
 20007ac:	18faea04 	addi	r3,r3,-5208
 20007b0:	1085883a 	add	r2,r2,r2
 20007b4:	1885883a 	add	r2,r3,r2
 20007b8:	1080000b 	ldhu	r2,0(r2)
 20007bc:	e0bffc8d 	sth	r2,-14(fp)
 20007c0:	e0bffb17 	ldw	r2,-20(fp)
 20007c4:	10803fcc 	andi	r2,r2,255
 20007c8:	00c080b4 	movhi	r3,514
 20007cc:	18faea04 	addi	r3,r3,-5208
 20007d0:	1085883a 	add	r2,r2,r2
 20007d4:	1885883a 	add	r2,r3,r2
 20007d8:	1080000b 	ldhu	r2,0(r2)
 20007dc:	e0bffd0d 	sth	r2,-12(fp)
 20007e0:	e0bffd0b 	ldhu	r2,-12(fp)
 20007e4:	1004953a 	slli	r2,r2,20
 20007e8:	10cffc2c 	andhi	r3,r2,16368
 20007ec:	e0bffc8b 	ldhu	r2,-14(fp)
 20007f0:	100892ba 	slli	r4,r2,10
 20007f4:	00800434 	movhi	r2,16
 20007f8:	10bf0004 	addi	r2,r2,-1024
 20007fc:	2084703a 	and	r2,r4,r2
 2000800:	1886b03a 	or	r3,r3,r2
 2000804:	e0bffc0b 	ldhu	r2,-16(fp)
 2000808:	1080ffcc 	andi	r2,r2,1023
 200080c:	1884b03a 	or	r2,r3,r2
 2000810:	e0bffe15 	stw	r2,-8(fp)
 2000814:	00810074 	movhi	r2,1025
 2000818:	10a82004 	addi	r2,r2,-24448
 200081c:	e0fffa17 	ldw	r3,-24(fp)
 2000820:	10c00035 	stwio	r3,0(r2)
 2000824:	e0fffe17 	ldw	r3,-8(fp)
 2000828:	00810074 	movhi	r2,1025
 200082c:	10a81c04 	addi	r2,r2,-24464
 2000830:	10c00035 	stwio	r3,0(r2)
 2000834:	00c00044 	movi	r3,1
 2000838:	00810074 	movhi	r2,1025
 200083c:	10a81804 	addi	r2,r2,-24480
 2000840:	10c00035 	stwio	r3,0(r2)
 2000844:	0007883a 	mov	r3,zero
 2000848:	00810074 	movhi	r2,1025
 200084c:	10a81804 	addi	r2,r2,-24480
 2000850:	10c00035 	stwio	r3,0(r2)
 2000854:	e0bff917 	ldw	r2,-28(fp)
 2000858:	10800044 	addi	r2,r2,1
 200085c:	e0bff915 	stw	r2,-28(fp)
 2000860:	e0bff917 	ldw	r2,-28(fp)
 2000864:	10810010 	cmplti	r2,r2,1024
 2000868:	103fb91e 	bne	r2,zero,2000750 <__reset+0xfdff7750>
 200086c:	e037883a 	mov	sp,fp
 2000870:	df000017 	ldw	fp,0(sp)
 2000874:	dec00104 	addi	sp,sp,4
 2000878:	f800283a 	ret

0200087c <displayColourBars>:
 200087c:	defff804 	addi	sp,sp,-32
 2000880:	dfc00715 	stw	ra,28(sp)
 2000884:	df000615 	stw	fp,24(sp)
 2000888:	df000604 	addi	fp,sp,24
 200088c:	e03ffa15 	stw	zero,-24(fp)
 2000890:	0001e306 	br	2001020 <displayColourBars+0x7a4>
 2000894:	e03ffb15 	stw	zero,-20(fp)
 2000898:	0001db06 	br	2001008 <displayColourBars+0x78c>
 200089c:	00810004 	movi	r2,1024
 20008a0:	e0bffe15 	stw	r2,-8(fp)
 20008a4:	e0bffa17 	ldw	r2,-24(fp)
 20008a8:	1004917a 	slli	r2,r2,5
 20008ac:	e0fffe17 	ldw	r3,-8(fp)
 20008b0:	1885883a 	add	r2,r3,r2
 20008b4:	e0bffe15 	stw	r2,-8(fp)
 20008b8:	e0fffe17 	ldw	r3,-8(fp)
 20008bc:	e0bffb17 	ldw	r2,-20(fp)
 20008c0:	1885883a 	add	r2,r3,r2
 20008c4:	e0bffe15 	stw	r2,-8(fp)
 20008c8:	e0bffa17 	ldw	r2,-24(fp)
 20008cc:	10800108 	cmpgei	r2,r2,4
 20008d0:	1000231e 	bne	r2,zero,2000960 <displayColourBars+0xe4>
 20008d4:	e13ffb17 	ldw	r4,-20(fp)
 20008d8:	2006b640 	call	2006b64 <__floatsidf>
 20008dc:	100b883a 	mov	r5,r2
 20008e0:	180d883a 	mov	r6,r3
 20008e4:	2809883a 	mov	r4,r5
 20008e8:	300b883a 	mov	r5,r6
 20008ec:	000d883a 	mov	r6,zero
 20008f0:	01d00ff4 	movhi	r7,16447
 20008f4:	20059480 	call	2005948 <__divdf3>
 20008f8:	1009883a 	mov	r4,r2
 20008fc:	180b883a 	mov	r5,r3
 2000900:	2005883a 	mov	r2,r4
 2000904:	2807883a 	mov	r3,r5
 2000908:	1009883a 	mov	r4,r2
 200090c:	180b883a 	mov	r5,r3
 2000910:	000d883a 	mov	r6,zero
 2000914:	01d01c34 	movhi	r7,16496
 2000918:	39f80004 	addi	r7,r7,-8192
 200091c:	20062e40 	call	20062e4 <__muldf3>
 2000920:	1009883a 	mov	r4,r2
 2000924:	180b883a 	mov	r5,r3
 2000928:	2005883a 	mov	r2,r4
 200092c:	2807883a 	mov	r3,r5
 2000930:	1009883a 	mov	r4,r2
 2000934:	180b883a 	mov	r5,r3
 2000938:	2006ae40 	call	2006ae4 <__fixdfsi>
 200093c:	00c080b4 	movhi	r3,514
 2000940:	18f8ea04 	addi	r3,r3,-7256
 2000944:	1085883a 	add	r2,r2,r2
 2000948:	1885883a 	add	r2,r3,r2
 200094c:	1080000b 	ldhu	r2,0(r2)
 2000950:	e0bffc0d 	sth	r2,-16(fp)
 2000954:	e03ffc8d 	sth	zero,-14(fp)
 2000958:	e03ffd0d 	sth	zero,-12(fp)
 200095c:	00018a06 	br	2000f88 <displayColourBars+0x70c>
 2000960:	e0bffa17 	ldw	r2,-24(fp)
 2000964:	10800110 	cmplti	r2,r2,4
 2000968:	1000451e 	bne	r2,zero,2000a80 <displayColourBars+0x204>
 200096c:	e0bffa17 	ldw	r2,-24(fp)
 2000970:	10800208 	cmpgei	r2,r2,8
 2000974:	1000421e 	bne	r2,zero,2000a80 <displayColourBars+0x204>
 2000978:	e13ffb17 	ldw	r4,-20(fp)
 200097c:	2006b640 	call	2006b64 <__floatsidf>
 2000980:	100b883a 	mov	r5,r2
 2000984:	180d883a 	mov	r6,r3
 2000988:	2809883a 	mov	r4,r5
 200098c:	300b883a 	mov	r5,r6
 2000990:	000d883a 	mov	r6,zero
 2000994:	01d00ff4 	movhi	r7,16447
 2000998:	20059480 	call	2005948 <__divdf3>
 200099c:	1009883a 	mov	r4,r2
 20009a0:	180b883a 	mov	r5,r3
 20009a4:	2005883a 	mov	r2,r4
 20009a8:	2807883a 	mov	r3,r5
 20009ac:	1009883a 	mov	r4,r2
 20009b0:	180b883a 	mov	r5,r3
 20009b4:	000d883a 	mov	r6,zero
 20009b8:	01d01c34 	movhi	r7,16496
 20009bc:	39f80004 	addi	r7,r7,-8192
 20009c0:	20062e40 	call	20062e4 <__muldf3>
 20009c4:	1009883a 	mov	r4,r2
 20009c8:	180b883a 	mov	r5,r3
 20009cc:	2005883a 	mov	r2,r4
 20009d0:	2807883a 	mov	r3,r5
 20009d4:	1009883a 	mov	r4,r2
 20009d8:	180b883a 	mov	r5,r3
 20009dc:	2006ae40 	call	2006ae4 <__fixdfsi>
 20009e0:	00c080b4 	movhi	r3,514
 20009e4:	18f8ea04 	addi	r3,r3,-7256
 20009e8:	1085883a 	add	r2,r2,r2
 20009ec:	1885883a 	add	r2,r3,r2
 20009f0:	1080000b 	ldhu	r2,0(r2)
 20009f4:	e0bffc0d 	sth	r2,-16(fp)
 20009f8:	e13ffb17 	ldw	r4,-20(fp)
 20009fc:	2006b640 	call	2006b64 <__floatsidf>
 2000a00:	100b883a 	mov	r5,r2
 2000a04:	180d883a 	mov	r6,r3
 2000a08:	2809883a 	mov	r4,r5
 2000a0c:	300b883a 	mov	r5,r6
 2000a10:	000d883a 	mov	r6,zero
 2000a14:	01d00ff4 	movhi	r7,16447
 2000a18:	20059480 	call	2005948 <__divdf3>
 2000a1c:	1009883a 	mov	r4,r2
 2000a20:	180b883a 	mov	r5,r3
 2000a24:	2005883a 	mov	r2,r4
 2000a28:	2807883a 	mov	r3,r5
 2000a2c:	1009883a 	mov	r4,r2
 2000a30:	180b883a 	mov	r5,r3
 2000a34:	000d883a 	mov	r6,zero
 2000a38:	01d01c34 	movhi	r7,16496
 2000a3c:	39f80004 	addi	r7,r7,-8192
 2000a40:	20062e40 	call	20062e4 <__muldf3>
 2000a44:	1009883a 	mov	r4,r2
 2000a48:	180b883a 	mov	r5,r3
 2000a4c:	2005883a 	mov	r2,r4
 2000a50:	2807883a 	mov	r3,r5
 2000a54:	1009883a 	mov	r4,r2
 2000a58:	180b883a 	mov	r5,r3
 2000a5c:	2006ae40 	call	2006ae4 <__fixdfsi>
 2000a60:	00c080b4 	movhi	r3,514
 2000a64:	18f8ea04 	addi	r3,r3,-7256
 2000a68:	1085883a 	add	r2,r2,r2
 2000a6c:	1885883a 	add	r2,r3,r2
 2000a70:	1080000b 	ldhu	r2,0(r2)
 2000a74:	e0bffc8d 	sth	r2,-14(fp)
 2000a78:	e03ffd0d 	sth	zero,-12(fp)
 2000a7c:	00014206 	br	2000f88 <displayColourBars+0x70c>
 2000a80:	e0bffa17 	ldw	r2,-24(fp)
 2000a84:	10800210 	cmplti	r2,r2,8
 2000a88:	1000261e 	bne	r2,zero,2000b24 <displayColourBars+0x2a8>
 2000a8c:	e0bffa17 	ldw	r2,-24(fp)
 2000a90:	10800308 	cmpgei	r2,r2,12
 2000a94:	1000231e 	bne	r2,zero,2000b24 <displayColourBars+0x2a8>
 2000a98:	e03ffc0d 	sth	zero,-16(fp)
 2000a9c:	e13ffb17 	ldw	r4,-20(fp)
 2000aa0:	2006b640 	call	2006b64 <__floatsidf>
 2000aa4:	100b883a 	mov	r5,r2
 2000aa8:	180d883a 	mov	r6,r3
 2000aac:	2809883a 	mov	r4,r5
 2000ab0:	300b883a 	mov	r5,r6
 2000ab4:	000d883a 	mov	r6,zero
 2000ab8:	01d00ff4 	movhi	r7,16447
 2000abc:	20059480 	call	2005948 <__divdf3>
 2000ac0:	1009883a 	mov	r4,r2
 2000ac4:	180b883a 	mov	r5,r3
 2000ac8:	2005883a 	mov	r2,r4
 2000acc:	2807883a 	mov	r3,r5
 2000ad0:	1009883a 	mov	r4,r2
 2000ad4:	180b883a 	mov	r5,r3
 2000ad8:	000d883a 	mov	r6,zero
 2000adc:	01d01c34 	movhi	r7,16496
 2000ae0:	39f80004 	addi	r7,r7,-8192
 2000ae4:	20062e40 	call	20062e4 <__muldf3>
 2000ae8:	1009883a 	mov	r4,r2
 2000aec:	180b883a 	mov	r5,r3
 2000af0:	2005883a 	mov	r2,r4
 2000af4:	2807883a 	mov	r3,r5
 2000af8:	1009883a 	mov	r4,r2
 2000afc:	180b883a 	mov	r5,r3
 2000b00:	2006ae40 	call	2006ae4 <__fixdfsi>
 2000b04:	00c080b4 	movhi	r3,514
 2000b08:	18f8ea04 	addi	r3,r3,-7256
 2000b0c:	1085883a 	add	r2,r2,r2
 2000b10:	1885883a 	add	r2,r3,r2
 2000b14:	1080000b 	ldhu	r2,0(r2)
 2000b18:	e0bffc8d 	sth	r2,-14(fp)
 2000b1c:	e03ffd0d 	sth	zero,-12(fp)
 2000b20:	00011906 	br	2000f88 <displayColourBars+0x70c>
 2000b24:	e0bffa17 	ldw	r2,-24(fp)
 2000b28:	10800310 	cmplti	r2,r2,12
 2000b2c:	1000451e 	bne	r2,zero,2000c44 <displayColourBars+0x3c8>
 2000b30:	e0bffa17 	ldw	r2,-24(fp)
 2000b34:	10800408 	cmpgei	r2,r2,16
 2000b38:	1000421e 	bne	r2,zero,2000c44 <displayColourBars+0x3c8>
 2000b3c:	e03ffc0d 	sth	zero,-16(fp)
 2000b40:	e13ffb17 	ldw	r4,-20(fp)
 2000b44:	2006b640 	call	2006b64 <__floatsidf>
 2000b48:	100b883a 	mov	r5,r2
 2000b4c:	180d883a 	mov	r6,r3
 2000b50:	2809883a 	mov	r4,r5
 2000b54:	300b883a 	mov	r5,r6
 2000b58:	000d883a 	mov	r6,zero
 2000b5c:	01d00ff4 	movhi	r7,16447
 2000b60:	20059480 	call	2005948 <__divdf3>
 2000b64:	1009883a 	mov	r4,r2
 2000b68:	180b883a 	mov	r5,r3
 2000b6c:	2005883a 	mov	r2,r4
 2000b70:	2807883a 	mov	r3,r5
 2000b74:	1009883a 	mov	r4,r2
 2000b78:	180b883a 	mov	r5,r3
 2000b7c:	000d883a 	mov	r6,zero
 2000b80:	01d01c34 	movhi	r7,16496
 2000b84:	39f80004 	addi	r7,r7,-8192
 2000b88:	20062e40 	call	20062e4 <__muldf3>
 2000b8c:	1009883a 	mov	r4,r2
 2000b90:	180b883a 	mov	r5,r3
 2000b94:	2005883a 	mov	r2,r4
 2000b98:	2807883a 	mov	r3,r5
 2000b9c:	1009883a 	mov	r4,r2
 2000ba0:	180b883a 	mov	r5,r3
 2000ba4:	2006ae40 	call	2006ae4 <__fixdfsi>
 2000ba8:	00c080b4 	movhi	r3,514
 2000bac:	18f8ea04 	addi	r3,r3,-7256
 2000bb0:	1085883a 	add	r2,r2,r2
 2000bb4:	1885883a 	add	r2,r3,r2
 2000bb8:	1080000b 	ldhu	r2,0(r2)
 2000bbc:	e0bffc8d 	sth	r2,-14(fp)
 2000bc0:	e13ffb17 	ldw	r4,-20(fp)
 2000bc4:	2006b640 	call	2006b64 <__floatsidf>
 2000bc8:	100b883a 	mov	r5,r2
 2000bcc:	180d883a 	mov	r6,r3
 2000bd0:	2809883a 	mov	r4,r5
 2000bd4:	300b883a 	mov	r5,r6
 2000bd8:	000d883a 	mov	r6,zero
 2000bdc:	01d00ff4 	movhi	r7,16447
 2000be0:	20059480 	call	2005948 <__divdf3>
 2000be4:	1009883a 	mov	r4,r2
 2000be8:	180b883a 	mov	r5,r3
 2000bec:	2005883a 	mov	r2,r4
 2000bf0:	2807883a 	mov	r3,r5
 2000bf4:	1009883a 	mov	r4,r2
 2000bf8:	180b883a 	mov	r5,r3
 2000bfc:	000d883a 	mov	r6,zero
 2000c00:	01d01c34 	movhi	r7,16496
 2000c04:	39f80004 	addi	r7,r7,-8192
 2000c08:	20062e40 	call	20062e4 <__muldf3>
 2000c0c:	1009883a 	mov	r4,r2
 2000c10:	180b883a 	mov	r5,r3
 2000c14:	2005883a 	mov	r2,r4
 2000c18:	2807883a 	mov	r3,r5
 2000c1c:	1009883a 	mov	r4,r2
 2000c20:	180b883a 	mov	r5,r3
 2000c24:	2006ae40 	call	2006ae4 <__fixdfsi>
 2000c28:	00c080b4 	movhi	r3,514
 2000c2c:	18f8ea04 	addi	r3,r3,-7256
 2000c30:	1085883a 	add	r2,r2,r2
 2000c34:	1885883a 	add	r2,r3,r2
 2000c38:	1080000b 	ldhu	r2,0(r2)
 2000c3c:	e0bffd0d 	sth	r2,-12(fp)
 2000c40:	0000d106 	br	2000f88 <displayColourBars+0x70c>
 2000c44:	e0bffa17 	ldw	r2,-24(fp)
 2000c48:	10800410 	cmplti	r2,r2,16
 2000c4c:	1000261e 	bne	r2,zero,2000ce8 <displayColourBars+0x46c>
 2000c50:	e0bffa17 	ldw	r2,-24(fp)
 2000c54:	10800508 	cmpgei	r2,r2,20
 2000c58:	1000231e 	bne	r2,zero,2000ce8 <displayColourBars+0x46c>
 2000c5c:	e03ffc0d 	sth	zero,-16(fp)
 2000c60:	e03ffc8d 	sth	zero,-14(fp)
 2000c64:	e13ffb17 	ldw	r4,-20(fp)
 2000c68:	2006b640 	call	2006b64 <__floatsidf>
 2000c6c:	100b883a 	mov	r5,r2
 2000c70:	180d883a 	mov	r6,r3
 2000c74:	2809883a 	mov	r4,r5
 2000c78:	300b883a 	mov	r5,r6
 2000c7c:	000d883a 	mov	r6,zero
 2000c80:	01d00ff4 	movhi	r7,16447
 2000c84:	20059480 	call	2005948 <__divdf3>
 2000c88:	1009883a 	mov	r4,r2
 2000c8c:	180b883a 	mov	r5,r3
 2000c90:	2005883a 	mov	r2,r4
 2000c94:	2807883a 	mov	r3,r5
 2000c98:	1009883a 	mov	r4,r2
 2000c9c:	180b883a 	mov	r5,r3
 2000ca0:	000d883a 	mov	r6,zero
 2000ca4:	01d01c34 	movhi	r7,16496
 2000ca8:	39f80004 	addi	r7,r7,-8192
 2000cac:	20062e40 	call	20062e4 <__muldf3>
 2000cb0:	1009883a 	mov	r4,r2
 2000cb4:	180b883a 	mov	r5,r3
 2000cb8:	2005883a 	mov	r2,r4
 2000cbc:	2807883a 	mov	r3,r5
 2000cc0:	1009883a 	mov	r4,r2
 2000cc4:	180b883a 	mov	r5,r3
 2000cc8:	2006ae40 	call	2006ae4 <__fixdfsi>
 2000ccc:	00c080b4 	movhi	r3,514
 2000cd0:	18f8ea04 	addi	r3,r3,-7256
 2000cd4:	1085883a 	add	r2,r2,r2
 2000cd8:	1885883a 	add	r2,r3,r2
 2000cdc:	1080000b 	ldhu	r2,0(r2)
 2000ce0:	e0bffd0d 	sth	r2,-12(fp)
 2000ce4:	0000a806 	br	2000f88 <displayColourBars+0x70c>
 2000ce8:	e0bffa17 	ldw	r2,-24(fp)
 2000cec:	10800510 	cmplti	r2,r2,20
 2000cf0:	1000451e 	bne	r2,zero,2000e08 <displayColourBars+0x58c>
 2000cf4:	e0bffa17 	ldw	r2,-24(fp)
 2000cf8:	10800608 	cmpgei	r2,r2,24
 2000cfc:	1000421e 	bne	r2,zero,2000e08 <displayColourBars+0x58c>
 2000d00:	e13ffb17 	ldw	r4,-20(fp)
 2000d04:	2006b640 	call	2006b64 <__floatsidf>
 2000d08:	100b883a 	mov	r5,r2
 2000d0c:	180d883a 	mov	r6,r3
 2000d10:	2809883a 	mov	r4,r5
 2000d14:	300b883a 	mov	r5,r6
 2000d18:	000d883a 	mov	r6,zero
 2000d1c:	01d00ff4 	movhi	r7,16447
 2000d20:	20059480 	call	2005948 <__divdf3>
 2000d24:	1009883a 	mov	r4,r2
 2000d28:	180b883a 	mov	r5,r3
 2000d2c:	2005883a 	mov	r2,r4
 2000d30:	2807883a 	mov	r3,r5
 2000d34:	1009883a 	mov	r4,r2
 2000d38:	180b883a 	mov	r5,r3
 2000d3c:	000d883a 	mov	r6,zero
 2000d40:	01d01c34 	movhi	r7,16496
 2000d44:	39f80004 	addi	r7,r7,-8192
 2000d48:	20062e40 	call	20062e4 <__muldf3>
 2000d4c:	1009883a 	mov	r4,r2
 2000d50:	180b883a 	mov	r5,r3
 2000d54:	2005883a 	mov	r2,r4
 2000d58:	2807883a 	mov	r3,r5
 2000d5c:	1009883a 	mov	r4,r2
 2000d60:	180b883a 	mov	r5,r3
 2000d64:	2006ae40 	call	2006ae4 <__fixdfsi>
 2000d68:	00c080b4 	movhi	r3,514
 2000d6c:	18f8ea04 	addi	r3,r3,-7256
 2000d70:	1085883a 	add	r2,r2,r2
 2000d74:	1885883a 	add	r2,r3,r2
 2000d78:	1080000b 	ldhu	r2,0(r2)
 2000d7c:	e0bffc0d 	sth	r2,-16(fp)
 2000d80:	e03ffc8d 	sth	zero,-14(fp)
 2000d84:	e13ffb17 	ldw	r4,-20(fp)
 2000d88:	2006b640 	call	2006b64 <__floatsidf>
 2000d8c:	100b883a 	mov	r5,r2
 2000d90:	180d883a 	mov	r6,r3
 2000d94:	2809883a 	mov	r4,r5
 2000d98:	300b883a 	mov	r5,r6
 2000d9c:	000d883a 	mov	r6,zero
 2000da0:	01d00ff4 	movhi	r7,16447
 2000da4:	20059480 	call	2005948 <__divdf3>
 2000da8:	1009883a 	mov	r4,r2
 2000dac:	180b883a 	mov	r5,r3
 2000db0:	2005883a 	mov	r2,r4
 2000db4:	2807883a 	mov	r3,r5
 2000db8:	1009883a 	mov	r4,r2
 2000dbc:	180b883a 	mov	r5,r3
 2000dc0:	000d883a 	mov	r6,zero
 2000dc4:	01d01c34 	movhi	r7,16496
 2000dc8:	39f80004 	addi	r7,r7,-8192
 2000dcc:	20062e40 	call	20062e4 <__muldf3>
 2000dd0:	1009883a 	mov	r4,r2
 2000dd4:	180b883a 	mov	r5,r3
 2000dd8:	2005883a 	mov	r2,r4
 2000ddc:	2807883a 	mov	r3,r5
 2000de0:	1009883a 	mov	r4,r2
 2000de4:	180b883a 	mov	r5,r3
 2000de8:	2006ae40 	call	2006ae4 <__fixdfsi>
 2000dec:	00c080b4 	movhi	r3,514
 2000df0:	18f8ea04 	addi	r3,r3,-7256
 2000df4:	1085883a 	add	r2,r2,r2
 2000df8:	1885883a 	add	r2,r3,r2
 2000dfc:	1080000b 	ldhu	r2,0(r2)
 2000e00:	e0bffd0d 	sth	r2,-12(fp)
 2000e04:	00006006 	br	2000f88 <displayColourBars+0x70c>
 2000e08:	e13ffb17 	ldw	r4,-20(fp)
 2000e0c:	2006b640 	call	2006b64 <__floatsidf>
 2000e10:	100b883a 	mov	r5,r2
 2000e14:	180d883a 	mov	r6,r3
 2000e18:	2809883a 	mov	r4,r5
 2000e1c:	300b883a 	mov	r5,r6
 2000e20:	000d883a 	mov	r6,zero
 2000e24:	01d00ff4 	movhi	r7,16447
 2000e28:	20059480 	call	2005948 <__divdf3>
 2000e2c:	1009883a 	mov	r4,r2
 2000e30:	180b883a 	mov	r5,r3
 2000e34:	2005883a 	mov	r2,r4
 2000e38:	2807883a 	mov	r3,r5
 2000e3c:	1009883a 	mov	r4,r2
 2000e40:	180b883a 	mov	r5,r3
 2000e44:	000d883a 	mov	r6,zero
 2000e48:	01d01c34 	movhi	r7,16496
 2000e4c:	39f80004 	addi	r7,r7,-8192
 2000e50:	20062e40 	call	20062e4 <__muldf3>
 2000e54:	1009883a 	mov	r4,r2
 2000e58:	180b883a 	mov	r5,r3
 2000e5c:	2005883a 	mov	r2,r4
 2000e60:	2807883a 	mov	r3,r5
 2000e64:	1009883a 	mov	r4,r2
 2000e68:	180b883a 	mov	r5,r3
 2000e6c:	2006ae40 	call	2006ae4 <__fixdfsi>
 2000e70:	00c080b4 	movhi	r3,514
 2000e74:	18f8ea04 	addi	r3,r3,-7256
 2000e78:	1085883a 	add	r2,r2,r2
 2000e7c:	1885883a 	add	r2,r3,r2
 2000e80:	1080000b 	ldhu	r2,0(r2)
 2000e84:	e0bffc0d 	sth	r2,-16(fp)
 2000e88:	e13ffb17 	ldw	r4,-20(fp)
 2000e8c:	2006b640 	call	2006b64 <__floatsidf>
 2000e90:	100b883a 	mov	r5,r2
 2000e94:	180d883a 	mov	r6,r3
 2000e98:	2809883a 	mov	r4,r5
 2000e9c:	300b883a 	mov	r5,r6
 2000ea0:	000d883a 	mov	r6,zero
 2000ea4:	01d00ff4 	movhi	r7,16447
 2000ea8:	20059480 	call	2005948 <__divdf3>
 2000eac:	1009883a 	mov	r4,r2
 2000eb0:	180b883a 	mov	r5,r3
 2000eb4:	2005883a 	mov	r2,r4
 2000eb8:	2807883a 	mov	r3,r5
 2000ebc:	1009883a 	mov	r4,r2
 2000ec0:	180b883a 	mov	r5,r3
 2000ec4:	000d883a 	mov	r6,zero
 2000ec8:	01d01c34 	movhi	r7,16496
 2000ecc:	39f80004 	addi	r7,r7,-8192
 2000ed0:	20062e40 	call	20062e4 <__muldf3>
 2000ed4:	1009883a 	mov	r4,r2
 2000ed8:	180b883a 	mov	r5,r3
 2000edc:	2005883a 	mov	r2,r4
 2000ee0:	2807883a 	mov	r3,r5
 2000ee4:	1009883a 	mov	r4,r2
 2000ee8:	180b883a 	mov	r5,r3
 2000eec:	2006ae40 	call	2006ae4 <__fixdfsi>
 2000ef0:	00c080b4 	movhi	r3,514
 2000ef4:	18f8ea04 	addi	r3,r3,-7256
 2000ef8:	1085883a 	add	r2,r2,r2
 2000efc:	1885883a 	add	r2,r3,r2
 2000f00:	1080000b 	ldhu	r2,0(r2)
 2000f04:	e0bffc8d 	sth	r2,-14(fp)
 2000f08:	e13ffb17 	ldw	r4,-20(fp)
 2000f0c:	2006b640 	call	2006b64 <__floatsidf>
 2000f10:	100b883a 	mov	r5,r2
 2000f14:	180d883a 	mov	r6,r3
 2000f18:	2809883a 	mov	r4,r5
 2000f1c:	300b883a 	mov	r5,r6
 2000f20:	000d883a 	mov	r6,zero
 2000f24:	01d00ff4 	movhi	r7,16447
 2000f28:	20059480 	call	2005948 <__divdf3>
 2000f2c:	1009883a 	mov	r4,r2
 2000f30:	180b883a 	mov	r5,r3
 2000f34:	2005883a 	mov	r2,r4
 2000f38:	2807883a 	mov	r3,r5
 2000f3c:	1009883a 	mov	r4,r2
 2000f40:	180b883a 	mov	r5,r3
 2000f44:	000d883a 	mov	r6,zero
 2000f48:	01d01c34 	movhi	r7,16496
 2000f4c:	39f80004 	addi	r7,r7,-8192
 2000f50:	20062e40 	call	20062e4 <__muldf3>
 2000f54:	1009883a 	mov	r4,r2
 2000f58:	180b883a 	mov	r5,r3
 2000f5c:	2005883a 	mov	r2,r4
 2000f60:	2807883a 	mov	r3,r5
 2000f64:	1009883a 	mov	r4,r2
 2000f68:	180b883a 	mov	r5,r3
 2000f6c:	2006ae40 	call	2006ae4 <__fixdfsi>
 2000f70:	00c080b4 	movhi	r3,514
 2000f74:	18f8ea04 	addi	r3,r3,-7256
 2000f78:	1085883a 	add	r2,r2,r2
 2000f7c:	1885883a 	add	r2,r3,r2
 2000f80:	1080000b 	ldhu	r2,0(r2)
 2000f84:	e0bffd0d 	sth	r2,-12(fp)
 2000f88:	e0bffc0b 	ldhu	r2,-16(fp)
 2000f8c:	1004953a 	slli	r2,r2,20
 2000f90:	10cffc2c 	andhi	r3,r2,16368
 2000f94:	e0bffc8b 	ldhu	r2,-14(fp)
 2000f98:	100892ba 	slli	r4,r2,10
 2000f9c:	00800434 	movhi	r2,16
 2000fa0:	10bf0004 	addi	r2,r2,-1024
 2000fa4:	2084703a 	and	r2,r4,r2
 2000fa8:	1886b03a 	or	r3,r3,r2
 2000fac:	e0bffd0b 	ldhu	r2,-12(fp)
 2000fb0:	1080ffcc 	andi	r2,r2,1023
 2000fb4:	1884b03a 	or	r2,r3,r2
 2000fb8:	e0bfff15 	stw	r2,-4(fp)
 2000fbc:	00810074 	movhi	r2,1025
 2000fc0:	10a82004 	addi	r2,r2,-24448
 2000fc4:	e0fffe17 	ldw	r3,-8(fp)
 2000fc8:	10c00035 	stwio	r3,0(r2)
 2000fcc:	e0ffff17 	ldw	r3,-4(fp)
 2000fd0:	00810074 	movhi	r2,1025
 2000fd4:	10a81c04 	addi	r2,r2,-24464
 2000fd8:	10c00035 	stwio	r3,0(r2)
 2000fdc:	00c00044 	movi	r3,1
 2000fe0:	00810074 	movhi	r2,1025
 2000fe4:	10a81804 	addi	r2,r2,-24480
 2000fe8:	10c00035 	stwio	r3,0(r2)
 2000fec:	0007883a 	mov	r3,zero
 2000ff0:	00810074 	movhi	r2,1025
 2000ff4:	10a81804 	addi	r2,r2,-24480
 2000ff8:	10c00035 	stwio	r3,0(r2)
 2000ffc:	e0bffb17 	ldw	r2,-20(fp)
 2001000:	10800044 	addi	r2,r2,1
 2001004:	e0bffb15 	stw	r2,-20(fp)
 2001008:	e0bffb17 	ldw	r2,-20(fp)
 200100c:	10800810 	cmplti	r2,r2,32
 2001010:	103e221e 	bne	r2,zero,200089c <__reset+0xfdff789c>
 2001014:	e0bffa17 	ldw	r2,-24(fp)
 2001018:	10800044 	addi	r2,r2,1
 200101c:	e0bffa15 	stw	r2,-24(fp)
 2001020:	e0bffa17 	ldw	r2,-24(fp)
 2001024:	10800810 	cmplti	r2,r2,32
 2001028:	103e1a1e 	bne	r2,zero,2000894 <__reset+0xfdff7894>
 200102c:	e037883a 	mov	sp,fp
 2001030:	dfc00117 	ldw	ra,4(sp)
 2001034:	df000017 	ldw	fp,0(sp)
 2001038:	dec00204 	addi	sp,sp,8
 200103c:	f800283a 	ret

02001040 <displayCIEColourBars>:
 2001040:	defff804 	addi	sp,sp,-32
 2001044:	dfc00715 	stw	ra,28(sp)
 2001048:	df000615 	stw	fp,24(sp)
 200104c:	df000604 	addi	fp,sp,24
 2001050:	e03ffa15 	stw	zero,-24(fp)
 2001054:	00010b06 	br	2001484 <displayCIEColourBars+0x444>
 2001058:	e03ffb15 	stw	zero,-20(fp)
 200105c:	00010306 	br	200146c <displayCIEColourBars+0x42c>
 2001060:	00810004 	movi	r2,1024
 2001064:	e0bffe15 	stw	r2,-8(fp)
 2001068:	e0bffa17 	ldw	r2,-24(fp)
 200106c:	1004917a 	slli	r2,r2,5
 2001070:	e0fffe17 	ldw	r3,-8(fp)
 2001074:	1885883a 	add	r2,r3,r2
 2001078:	e0bffe15 	stw	r2,-8(fp)
 200107c:	e0fffe17 	ldw	r3,-8(fp)
 2001080:	e0bffb17 	ldw	r2,-20(fp)
 2001084:	1885883a 	add	r2,r3,r2
 2001088:	e0bffe15 	stw	r2,-8(fp)
 200108c:	e0bffa17 	ldw	r2,-24(fp)
 2001090:	10800208 	cmpgei	r2,r2,8
 2001094:	1000231e 	bne	r2,zero,2001124 <displayCIEColourBars+0xe4>
 2001098:	e13ffb17 	ldw	r4,-20(fp)
 200109c:	2006b640 	call	2006b64 <__floatsidf>
 20010a0:	100b883a 	mov	r5,r2
 20010a4:	180d883a 	mov	r6,r3
 20010a8:	2809883a 	mov	r4,r5
 20010ac:	300b883a 	mov	r5,r6
 20010b0:	000d883a 	mov	r6,zero
 20010b4:	01d00ff4 	movhi	r7,16447
 20010b8:	20059480 	call	2005948 <__divdf3>
 20010bc:	1009883a 	mov	r4,r2
 20010c0:	180b883a 	mov	r5,r3
 20010c4:	2005883a 	mov	r2,r4
 20010c8:	2807883a 	mov	r3,r5
 20010cc:	1009883a 	mov	r4,r2
 20010d0:	180b883a 	mov	r5,r3
 20010d4:	000d883a 	mov	r6,zero
 20010d8:	01d01c34 	movhi	r7,16496
 20010dc:	39f80004 	addi	r7,r7,-8192
 20010e0:	20062e40 	call	20062e4 <__muldf3>
 20010e4:	1009883a 	mov	r4,r2
 20010e8:	180b883a 	mov	r5,r3
 20010ec:	2005883a 	mov	r2,r4
 20010f0:	2807883a 	mov	r3,r5
 20010f4:	1009883a 	mov	r4,r2
 20010f8:	180b883a 	mov	r5,r3
 20010fc:	2006ae40 	call	2006ae4 <__fixdfsi>
 2001100:	00c080b4 	movhi	r3,514
 2001104:	18f96a04 	addi	r3,r3,-6744
 2001108:	1085883a 	add	r2,r2,r2
 200110c:	1885883a 	add	r2,r3,r2
 2001110:	1080000b 	ldhu	r2,0(r2)
 2001114:	e0bffc0d 	sth	r2,-16(fp)
 2001118:	e03ffc8d 	sth	zero,-14(fp)
 200111c:	e03ffd0d 	sth	zero,-12(fp)
 2001120:	0000b206 	br	20013ec <displayCIEColourBars+0x3ac>
 2001124:	e0bffa17 	ldw	r2,-24(fp)
 2001128:	10800210 	cmplti	r2,r2,8
 200112c:	1000261e 	bne	r2,zero,20011c8 <displayCIEColourBars+0x188>
 2001130:	e0bffa17 	ldw	r2,-24(fp)
 2001134:	10800408 	cmpgei	r2,r2,16
 2001138:	1000231e 	bne	r2,zero,20011c8 <displayCIEColourBars+0x188>
 200113c:	e03ffc0d 	sth	zero,-16(fp)
 2001140:	e13ffb17 	ldw	r4,-20(fp)
 2001144:	2006b640 	call	2006b64 <__floatsidf>
 2001148:	100b883a 	mov	r5,r2
 200114c:	180d883a 	mov	r6,r3
 2001150:	2809883a 	mov	r4,r5
 2001154:	300b883a 	mov	r5,r6
 2001158:	000d883a 	mov	r6,zero
 200115c:	01d00ff4 	movhi	r7,16447
 2001160:	20059480 	call	2005948 <__divdf3>
 2001164:	1009883a 	mov	r4,r2
 2001168:	180b883a 	mov	r5,r3
 200116c:	2005883a 	mov	r2,r4
 2001170:	2807883a 	mov	r3,r5
 2001174:	1009883a 	mov	r4,r2
 2001178:	180b883a 	mov	r5,r3
 200117c:	000d883a 	mov	r6,zero
 2001180:	01d01c34 	movhi	r7,16496
 2001184:	39f80004 	addi	r7,r7,-8192
 2001188:	20062e40 	call	20062e4 <__muldf3>
 200118c:	1009883a 	mov	r4,r2
 2001190:	180b883a 	mov	r5,r3
 2001194:	2005883a 	mov	r2,r4
 2001198:	2807883a 	mov	r3,r5
 200119c:	1009883a 	mov	r4,r2
 20011a0:	180b883a 	mov	r5,r3
 20011a4:	2006ae40 	call	2006ae4 <__fixdfsi>
 20011a8:	00c080b4 	movhi	r3,514
 20011ac:	18f96a04 	addi	r3,r3,-6744
 20011b0:	1085883a 	add	r2,r2,r2
 20011b4:	1885883a 	add	r2,r3,r2
 20011b8:	1080000b 	ldhu	r2,0(r2)
 20011bc:	e0bffc8d 	sth	r2,-14(fp)
 20011c0:	e03ffd0d 	sth	zero,-12(fp)
 20011c4:	00008906 	br	20013ec <displayCIEColourBars+0x3ac>
 20011c8:	e0bffa17 	ldw	r2,-24(fp)
 20011cc:	10800410 	cmplti	r2,r2,16
 20011d0:	1000261e 	bne	r2,zero,200126c <displayCIEColourBars+0x22c>
 20011d4:	e0bffa17 	ldw	r2,-24(fp)
 20011d8:	10800608 	cmpgei	r2,r2,24
 20011dc:	1000231e 	bne	r2,zero,200126c <displayCIEColourBars+0x22c>
 20011e0:	e03ffc0d 	sth	zero,-16(fp)
 20011e4:	e03ffc8d 	sth	zero,-14(fp)
 20011e8:	e13ffb17 	ldw	r4,-20(fp)
 20011ec:	2006b640 	call	2006b64 <__floatsidf>
 20011f0:	100b883a 	mov	r5,r2
 20011f4:	180d883a 	mov	r6,r3
 20011f8:	2809883a 	mov	r4,r5
 20011fc:	300b883a 	mov	r5,r6
 2001200:	000d883a 	mov	r6,zero
 2001204:	01d00ff4 	movhi	r7,16447
 2001208:	20059480 	call	2005948 <__divdf3>
 200120c:	1009883a 	mov	r4,r2
 2001210:	180b883a 	mov	r5,r3
 2001214:	2005883a 	mov	r2,r4
 2001218:	2807883a 	mov	r3,r5
 200121c:	1009883a 	mov	r4,r2
 2001220:	180b883a 	mov	r5,r3
 2001224:	000d883a 	mov	r6,zero
 2001228:	01d01c34 	movhi	r7,16496
 200122c:	39f80004 	addi	r7,r7,-8192
 2001230:	20062e40 	call	20062e4 <__muldf3>
 2001234:	1009883a 	mov	r4,r2
 2001238:	180b883a 	mov	r5,r3
 200123c:	2005883a 	mov	r2,r4
 2001240:	2807883a 	mov	r3,r5
 2001244:	1009883a 	mov	r4,r2
 2001248:	180b883a 	mov	r5,r3
 200124c:	2006ae40 	call	2006ae4 <__fixdfsi>
 2001250:	00c080b4 	movhi	r3,514
 2001254:	18f96a04 	addi	r3,r3,-6744
 2001258:	1085883a 	add	r2,r2,r2
 200125c:	1885883a 	add	r2,r3,r2
 2001260:	1080000b 	ldhu	r2,0(r2)
 2001264:	e0bffd0d 	sth	r2,-12(fp)
 2001268:	00006006 	br	20013ec <displayCIEColourBars+0x3ac>
 200126c:	e13ffb17 	ldw	r4,-20(fp)
 2001270:	2006b640 	call	2006b64 <__floatsidf>
 2001274:	100b883a 	mov	r5,r2
 2001278:	180d883a 	mov	r6,r3
 200127c:	2809883a 	mov	r4,r5
 2001280:	300b883a 	mov	r5,r6
 2001284:	000d883a 	mov	r6,zero
 2001288:	01d00ff4 	movhi	r7,16447
 200128c:	20059480 	call	2005948 <__divdf3>
 2001290:	1009883a 	mov	r4,r2
 2001294:	180b883a 	mov	r5,r3
 2001298:	2005883a 	mov	r2,r4
 200129c:	2807883a 	mov	r3,r5
 20012a0:	1009883a 	mov	r4,r2
 20012a4:	180b883a 	mov	r5,r3
 20012a8:	000d883a 	mov	r6,zero
 20012ac:	01d01c34 	movhi	r7,16496
 20012b0:	39f80004 	addi	r7,r7,-8192
 20012b4:	20062e40 	call	20062e4 <__muldf3>
 20012b8:	1009883a 	mov	r4,r2
 20012bc:	180b883a 	mov	r5,r3
 20012c0:	2005883a 	mov	r2,r4
 20012c4:	2807883a 	mov	r3,r5
 20012c8:	1009883a 	mov	r4,r2
 20012cc:	180b883a 	mov	r5,r3
 20012d0:	2006ae40 	call	2006ae4 <__fixdfsi>
 20012d4:	00c080b4 	movhi	r3,514
 20012d8:	18f96a04 	addi	r3,r3,-6744
 20012dc:	1085883a 	add	r2,r2,r2
 20012e0:	1885883a 	add	r2,r3,r2
 20012e4:	1080000b 	ldhu	r2,0(r2)
 20012e8:	e0bffc0d 	sth	r2,-16(fp)
 20012ec:	e13ffb17 	ldw	r4,-20(fp)
 20012f0:	2006b640 	call	2006b64 <__floatsidf>
 20012f4:	100b883a 	mov	r5,r2
 20012f8:	180d883a 	mov	r6,r3
 20012fc:	2809883a 	mov	r4,r5
 2001300:	300b883a 	mov	r5,r6
 2001304:	000d883a 	mov	r6,zero
 2001308:	01d00ff4 	movhi	r7,16447
 200130c:	20059480 	call	2005948 <__divdf3>
 2001310:	1009883a 	mov	r4,r2
 2001314:	180b883a 	mov	r5,r3
 2001318:	2005883a 	mov	r2,r4
 200131c:	2807883a 	mov	r3,r5
 2001320:	1009883a 	mov	r4,r2
 2001324:	180b883a 	mov	r5,r3
 2001328:	000d883a 	mov	r6,zero
 200132c:	01d01c34 	movhi	r7,16496
 2001330:	39f80004 	addi	r7,r7,-8192
 2001334:	20062e40 	call	20062e4 <__muldf3>
 2001338:	1009883a 	mov	r4,r2
 200133c:	180b883a 	mov	r5,r3
 2001340:	2005883a 	mov	r2,r4
 2001344:	2807883a 	mov	r3,r5
 2001348:	1009883a 	mov	r4,r2
 200134c:	180b883a 	mov	r5,r3
 2001350:	2006ae40 	call	2006ae4 <__fixdfsi>
 2001354:	00c080b4 	movhi	r3,514
 2001358:	18f96a04 	addi	r3,r3,-6744
 200135c:	1085883a 	add	r2,r2,r2
 2001360:	1885883a 	add	r2,r3,r2
 2001364:	1080000b 	ldhu	r2,0(r2)
 2001368:	e0bffc8d 	sth	r2,-14(fp)
 200136c:	e13ffb17 	ldw	r4,-20(fp)
 2001370:	2006b640 	call	2006b64 <__floatsidf>
 2001374:	100b883a 	mov	r5,r2
 2001378:	180d883a 	mov	r6,r3
 200137c:	2809883a 	mov	r4,r5
 2001380:	300b883a 	mov	r5,r6
 2001384:	000d883a 	mov	r6,zero
 2001388:	01d00ff4 	movhi	r7,16447
 200138c:	20059480 	call	2005948 <__divdf3>
 2001390:	1009883a 	mov	r4,r2
 2001394:	180b883a 	mov	r5,r3
 2001398:	2005883a 	mov	r2,r4
 200139c:	2807883a 	mov	r3,r5
 20013a0:	1009883a 	mov	r4,r2
 20013a4:	180b883a 	mov	r5,r3
 20013a8:	000d883a 	mov	r6,zero
 20013ac:	01d01c34 	movhi	r7,16496
 20013b0:	39f80004 	addi	r7,r7,-8192
 20013b4:	20062e40 	call	20062e4 <__muldf3>
 20013b8:	1009883a 	mov	r4,r2
 20013bc:	180b883a 	mov	r5,r3
 20013c0:	2005883a 	mov	r2,r4
 20013c4:	2807883a 	mov	r3,r5
 20013c8:	1009883a 	mov	r4,r2
 20013cc:	180b883a 	mov	r5,r3
 20013d0:	2006ae40 	call	2006ae4 <__fixdfsi>
 20013d4:	00c080b4 	movhi	r3,514
 20013d8:	18f96a04 	addi	r3,r3,-6744
 20013dc:	1085883a 	add	r2,r2,r2
 20013e0:	1885883a 	add	r2,r3,r2
 20013e4:	1080000b 	ldhu	r2,0(r2)
 20013e8:	e0bffd0d 	sth	r2,-12(fp)
 20013ec:	e0bffc0b 	ldhu	r2,-16(fp)
 20013f0:	1004953a 	slli	r2,r2,20
 20013f4:	10cffc2c 	andhi	r3,r2,16368
 20013f8:	e0bffc8b 	ldhu	r2,-14(fp)
 20013fc:	100892ba 	slli	r4,r2,10
 2001400:	00800434 	movhi	r2,16
 2001404:	10bf0004 	addi	r2,r2,-1024
 2001408:	2084703a 	and	r2,r4,r2
 200140c:	1886b03a 	or	r3,r3,r2
 2001410:	e0bffd0b 	ldhu	r2,-12(fp)
 2001414:	1080ffcc 	andi	r2,r2,1023
 2001418:	1884b03a 	or	r2,r3,r2
 200141c:	e0bfff15 	stw	r2,-4(fp)
 2001420:	00810074 	movhi	r2,1025
 2001424:	10a82004 	addi	r2,r2,-24448
 2001428:	e0fffe17 	ldw	r3,-8(fp)
 200142c:	10c00035 	stwio	r3,0(r2)
 2001430:	e0ffff17 	ldw	r3,-4(fp)
 2001434:	00810074 	movhi	r2,1025
 2001438:	10a81c04 	addi	r2,r2,-24464
 200143c:	10c00035 	stwio	r3,0(r2)
 2001440:	00c00044 	movi	r3,1
 2001444:	00810074 	movhi	r2,1025
 2001448:	10a81804 	addi	r2,r2,-24480
 200144c:	10c00035 	stwio	r3,0(r2)
 2001450:	0007883a 	mov	r3,zero
 2001454:	00810074 	movhi	r2,1025
 2001458:	10a81804 	addi	r2,r2,-24480
 200145c:	10c00035 	stwio	r3,0(r2)
 2001460:	e0bffb17 	ldw	r2,-20(fp)
 2001464:	10800044 	addi	r2,r2,1
 2001468:	e0bffb15 	stw	r2,-20(fp)
 200146c:	e0bffb17 	ldw	r2,-20(fp)
 2001470:	10800810 	cmplti	r2,r2,32
 2001474:	103efa1e 	bne	r2,zero,2001060 <__reset+0xfdff8060>
 2001478:	e0bffa17 	ldw	r2,-24(fp)
 200147c:	10800044 	addi	r2,r2,1
 2001480:	e0bffa15 	stw	r2,-24(fp)
 2001484:	e0bffa17 	ldw	r2,-24(fp)
 2001488:	10800810 	cmplti	r2,r2,32
 200148c:	103ef21e 	bne	r2,zero,2001058 <__reset+0xfdff8058>
 2001490:	e037883a 	mov	sp,fp
 2001494:	dfc00117 	ldw	ra,4(sp)
 2001498:	df000017 	ldw	fp,0(sp)
 200149c:	dec00204 	addi	sp,sp,8
 20014a0:	f800283a 	ret

020014a4 <displayGamma149ColourBars>:
 20014a4:	defff804 	addi	sp,sp,-32
 20014a8:	dfc00715 	stw	ra,28(sp)
 20014ac:	df000615 	stw	fp,24(sp)
 20014b0:	df000604 	addi	fp,sp,24
 20014b4:	e03ffa15 	stw	zero,-24(fp)
 20014b8:	00010b06 	br	20018e8 <displayGamma149ColourBars+0x444>
 20014bc:	e03ffb15 	stw	zero,-20(fp)
 20014c0:	00010306 	br	20018d0 <displayGamma149ColourBars+0x42c>
 20014c4:	00810004 	movi	r2,1024
 20014c8:	e0bffe15 	stw	r2,-8(fp)
 20014cc:	e0bffa17 	ldw	r2,-24(fp)
 20014d0:	1004917a 	slli	r2,r2,5
 20014d4:	e0fffe17 	ldw	r3,-8(fp)
 20014d8:	1885883a 	add	r2,r3,r2
 20014dc:	e0bffe15 	stw	r2,-8(fp)
 20014e0:	e0fffe17 	ldw	r3,-8(fp)
 20014e4:	e0bffb17 	ldw	r2,-20(fp)
 20014e8:	1885883a 	add	r2,r3,r2
 20014ec:	e0bffe15 	stw	r2,-8(fp)
 20014f0:	e0bffa17 	ldw	r2,-24(fp)
 20014f4:	10800208 	cmpgei	r2,r2,8
 20014f8:	1000231e 	bne	r2,zero,2001588 <displayGamma149ColourBars+0xe4>
 20014fc:	e13ffb17 	ldw	r4,-20(fp)
 2001500:	2006b640 	call	2006b64 <__floatsidf>
 2001504:	100b883a 	mov	r5,r2
 2001508:	180d883a 	mov	r6,r3
 200150c:	2809883a 	mov	r4,r5
 2001510:	300b883a 	mov	r5,r6
 2001514:	000d883a 	mov	r6,zero
 2001518:	01d00ff4 	movhi	r7,16447
 200151c:	20059480 	call	2005948 <__divdf3>
 2001520:	1009883a 	mov	r4,r2
 2001524:	180b883a 	mov	r5,r3
 2001528:	2005883a 	mov	r2,r4
 200152c:	2807883a 	mov	r3,r5
 2001530:	1009883a 	mov	r4,r2
 2001534:	180b883a 	mov	r5,r3
 2001538:	000d883a 	mov	r6,zero
 200153c:	01d01c34 	movhi	r7,16496
 2001540:	39f80004 	addi	r7,r7,-8192
 2001544:	20062e40 	call	20062e4 <__muldf3>
 2001548:	1009883a 	mov	r4,r2
 200154c:	180b883a 	mov	r5,r3
 2001550:	2005883a 	mov	r2,r4
 2001554:	2807883a 	mov	r3,r5
 2001558:	1009883a 	mov	r4,r2
 200155c:	180b883a 	mov	r5,r3
 2001560:	2006ae40 	call	2006ae4 <__fixdfsi>
 2001564:	00c080b4 	movhi	r3,514
 2001568:	18f9ea04 	addi	r3,r3,-6232
 200156c:	1085883a 	add	r2,r2,r2
 2001570:	1885883a 	add	r2,r3,r2
 2001574:	1080000b 	ldhu	r2,0(r2)
 2001578:	e0bffc0d 	sth	r2,-16(fp)
 200157c:	e03ffc8d 	sth	zero,-14(fp)
 2001580:	e03ffd0d 	sth	zero,-12(fp)
 2001584:	0000b206 	br	2001850 <displayGamma149ColourBars+0x3ac>
 2001588:	e0bffa17 	ldw	r2,-24(fp)
 200158c:	10800210 	cmplti	r2,r2,8
 2001590:	1000261e 	bne	r2,zero,200162c <displayGamma149ColourBars+0x188>
 2001594:	e0bffa17 	ldw	r2,-24(fp)
 2001598:	10800408 	cmpgei	r2,r2,16
 200159c:	1000231e 	bne	r2,zero,200162c <displayGamma149ColourBars+0x188>
 20015a0:	e03ffc0d 	sth	zero,-16(fp)
 20015a4:	e13ffb17 	ldw	r4,-20(fp)
 20015a8:	2006b640 	call	2006b64 <__floatsidf>
 20015ac:	100b883a 	mov	r5,r2
 20015b0:	180d883a 	mov	r6,r3
 20015b4:	2809883a 	mov	r4,r5
 20015b8:	300b883a 	mov	r5,r6
 20015bc:	000d883a 	mov	r6,zero
 20015c0:	01d00ff4 	movhi	r7,16447
 20015c4:	20059480 	call	2005948 <__divdf3>
 20015c8:	1009883a 	mov	r4,r2
 20015cc:	180b883a 	mov	r5,r3
 20015d0:	2005883a 	mov	r2,r4
 20015d4:	2807883a 	mov	r3,r5
 20015d8:	1009883a 	mov	r4,r2
 20015dc:	180b883a 	mov	r5,r3
 20015e0:	000d883a 	mov	r6,zero
 20015e4:	01d01c34 	movhi	r7,16496
 20015e8:	39f80004 	addi	r7,r7,-8192
 20015ec:	20062e40 	call	20062e4 <__muldf3>
 20015f0:	1009883a 	mov	r4,r2
 20015f4:	180b883a 	mov	r5,r3
 20015f8:	2005883a 	mov	r2,r4
 20015fc:	2807883a 	mov	r3,r5
 2001600:	1009883a 	mov	r4,r2
 2001604:	180b883a 	mov	r5,r3
 2001608:	2006ae40 	call	2006ae4 <__fixdfsi>
 200160c:	00c080b4 	movhi	r3,514
 2001610:	18f9ea04 	addi	r3,r3,-6232
 2001614:	1085883a 	add	r2,r2,r2
 2001618:	1885883a 	add	r2,r3,r2
 200161c:	1080000b 	ldhu	r2,0(r2)
 2001620:	e0bffc8d 	sth	r2,-14(fp)
 2001624:	e03ffd0d 	sth	zero,-12(fp)
 2001628:	00008906 	br	2001850 <displayGamma149ColourBars+0x3ac>
 200162c:	e0bffa17 	ldw	r2,-24(fp)
 2001630:	10800410 	cmplti	r2,r2,16
 2001634:	1000261e 	bne	r2,zero,20016d0 <displayGamma149ColourBars+0x22c>
 2001638:	e0bffa17 	ldw	r2,-24(fp)
 200163c:	10800608 	cmpgei	r2,r2,24
 2001640:	1000231e 	bne	r2,zero,20016d0 <displayGamma149ColourBars+0x22c>
 2001644:	e03ffc0d 	sth	zero,-16(fp)
 2001648:	e03ffc8d 	sth	zero,-14(fp)
 200164c:	e13ffb17 	ldw	r4,-20(fp)
 2001650:	2006b640 	call	2006b64 <__floatsidf>
 2001654:	100b883a 	mov	r5,r2
 2001658:	180d883a 	mov	r6,r3
 200165c:	2809883a 	mov	r4,r5
 2001660:	300b883a 	mov	r5,r6
 2001664:	000d883a 	mov	r6,zero
 2001668:	01d00ff4 	movhi	r7,16447
 200166c:	20059480 	call	2005948 <__divdf3>
 2001670:	1009883a 	mov	r4,r2
 2001674:	180b883a 	mov	r5,r3
 2001678:	2005883a 	mov	r2,r4
 200167c:	2807883a 	mov	r3,r5
 2001680:	1009883a 	mov	r4,r2
 2001684:	180b883a 	mov	r5,r3
 2001688:	000d883a 	mov	r6,zero
 200168c:	01d01c34 	movhi	r7,16496
 2001690:	39f80004 	addi	r7,r7,-8192
 2001694:	20062e40 	call	20062e4 <__muldf3>
 2001698:	1009883a 	mov	r4,r2
 200169c:	180b883a 	mov	r5,r3
 20016a0:	2005883a 	mov	r2,r4
 20016a4:	2807883a 	mov	r3,r5
 20016a8:	1009883a 	mov	r4,r2
 20016ac:	180b883a 	mov	r5,r3
 20016b0:	2006ae40 	call	2006ae4 <__fixdfsi>
 20016b4:	00c080b4 	movhi	r3,514
 20016b8:	18f9ea04 	addi	r3,r3,-6232
 20016bc:	1085883a 	add	r2,r2,r2
 20016c0:	1885883a 	add	r2,r3,r2
 20016c4:	1080000b 	ldhu	r2,0(r2)
 20016c8:	e0bffd0d 	sth	r2,-12(fp)
 20016cc:	00006006 	br	2001850 <displayGamma149ColourBars+0x3ac>
 20016d0:	e13ffb17 	ldw	r4,-20(fp)
 20016d4:	2006b640 	call	2006b64 <__floatsidf>
 20016d8:	100b883a 	mov	r5,r2
 20016dc:	180d883a 	mov	r6,r3
 20016e0:	2809883a 	mov	r4,r5
 20016e4:	300b883a 	mov	r5,r6
 20016e8:	000d883a 	mov	r6,zero
 20016ec:	01d00ff4 	movhi	r7,16447
 20016f0:	20059480 	call	2005948 <__divdf3>
 20016f4:	1009883a 	mov	r4,r2
 20016f8:	180b883a 	mov	r5,r3
 20016fc:	2005883a 	mov	r2,r4
 2001700:	2807883a 	mov	r3,r5
 2001704:	1009883a 	mov	r4,r2
 2001708:	180b883a 	mov	r5,r3
 200170c:	000d883a 	mov	r6,zero
 2001710:	01d01c34 	movhi	r7,16496
 2001714:	39f80004 	addi	r7,r7,-8192
 2001718:	20062e40 	call	20062e4 <__muldf3>
 200171c:	1009883a 	mov	r4,r2
 2001720:	180b883a 	mov	r5,r3
 2001724:	2005883a 	mov	r2,r4
 2001728:	2807883a 	mov	r3,r5
 200172c:	1009883a 	mov	r4,r2
 2001730:	180b883a 	mov	r5,r3
 2001734:	2006ae40 	call	2006ae4 <__fixdfsi>
 2001738:	00c080b4 	movhi	r3,514
 200173c:	18f9ea04 	addi	r3,r3,-6232
 2001740:	1085883a 	add	r2,r2,r2
 2001744:	1885883a 	add	r2,r3,r2
 2001748:	1080000b 	ldhu	r2,0(r2)
 200174c:	e0bffc0d 	sth	r2,-16(fp)
 2001750:	e13ffb17 	ldw	r4,-20(fp)
 2001754:	2006b640 	call	2006b64 <__floatsidf>
 2001758:	100b883a 	mov	r5,r2
 200175c:	180d883a 	mov	r6,r3
 2001760:	2809883a 	mov	r4,r5
 2001764:	300b883a 	mov	r5,r6
 2001768:	000d883a 	mov	r6,zero
 200176c:	01d00ff4 	movhi	r7,16447
 2001770:	20059480 	call	2005948 <__divdf3>
 2001774:	1009883a 	mov	r4,r2
 2001778:	180b883a 	mov	r5,r3
 200177c:	2005883a 	mov	r2,r4
 2001780:	2807883a 	mov	r3,r5
 2001784:	1009883a 	mov	r4,r2
 2001788:	180b883a 	mov	r5,r3
 200178c:	000d883a 	mov	r6,zero
 2001790:	01d01c34 	movhi	r7,16496
 2001794:	39f80004 	addi	r7,r7,-8192
 2001798:	20062e40 	call	20062e4 <__muldf3>
 200179c:	1009883a 	mov	r4,r2
 20017a0:	180b883a 	mov	r5,r3
 20017a4:	2005883a 	mov	r2,r4
 20017a8:	2807883a 	mov	r3,r5
 20017ac:	1009883a 	mov	r4,r2
 20017b0:	180b883a 	mov	r5,r3
 20017b4:	2006ae40 	call	2006ae4 <__fixdfsi>
 20017b8:	00c080b4 	movhi	r3,514
 20017bc:	18f9ea04 	addi	r3,r3,-6232
 20017c0:	1085883a 	add	r2,r2,r2
 20017c4:	1885883a 	add	r2,r3,r2
 20017c8:	1080000b 	ldhu	r2,0(r2)
 20017cc:	e0bffc8d 	sth	r2,-14(fp)
 20017d0:	e13ffb17 	ldw	r4,-20(fp)
 20017d4:	2006b640 	call	2006b64 <__floatsidf>
 20017d8:	100b883a 	mov	r5,r2
 20017dc:	180d883a 	mov	r6,r3
 20017e0:	2809883a 	mov	r4,r5
 20017e4:	300b883a 	mov	r5,r6
 20017e8:	000d883a 	mov	r6,zero
 20017ec:	01d00ff4 	movhi	r7,16447
 20017f0:	20059480 	call	2005948 <__divdf3>
 20017f4:	1009883a 	mov	r4,r2
 20017f8:	180b883a 	mov	r5,r3
 20017fc:	2005883a 	mov	r2,r4
 2001800:	2807883a 	mov	r3,r5
 2001804:	1009883a 	mov	r4,r2
 2001808:	180b883a 	mov	r5,r3
 200180c:	000d883a 	mov	r6,zero
 2001810:	01d01c34 	movhi	r7,16496
 2001814:	39f80004 	addi	r7,r7,-8192
 2001818:	20062e40 	call	20062e4 <__muldf3>
 200181c:	1009883a 	mov	r4,r2
 2001820:	180b883a 	mov	r5,r3
 2001824:	2005883a 	mov	r2,r4
 2001828:	2807883a 	mov	r3,r5
 200182c:	1009883a 	mov	r4,r2
 2001830:	180b883a 	mov	r5,r3
 2001834:	2006ae40 	call	2006ae4 <__fixdfsi>
 2001838:	00c080b4 	movhi	r3,514
 200183c:	18f9ea04 	addi	r3,r3,-6232
 2001840:	1085883a 	add	r2,r2,r2
 2001844:	1885883a 	add	r2,r3,r2
 2001848:	1080000b 	ldhu	r2,0(r2)
 200184c:	e0bffd0d 	sth	r2,-12(fp)
 2001850:	e0bffc0b 	ldhu	r2,-16(fp)
 2001854:	1004953a 	slli	r2,r2,20
 2001858:	10cffc2c 	andhi	r3,r2,16368
 200185c:	e0bffc8b 	ldhu	r2,-14(fp)
 2001860:	100892ba 	slli	r4,r2,10
 2001864:	00800434 	movhi	r2,16
 2001868:	10bf0004 	addi	r2,r2,-1024
 200186c:	2084703a 	and	r2,r4,r2
 2001870:	1886b03a 	or	r3,r3,r2
 2001874:	e0bffd0b 	ldhu	r2,-12(fp)
 2001878:	1080ffcc 	andi	r2,r2,1023
 200187c:	1884b03a 	or	r2,r3,r2
 2001880:	e0bfff15 	stw	r2,-4(fp)
 2001884:	00810074 	movhi	r2,1025
 2001888:	10a82004 	addi	r2,r2,-24448
 200188c:	e0fffe17 	ldw	r3,-8(fp)
 2001890:	10c00035 	stwio	r3,0(r2)
 2001894:	e0ffff17 	ldw	r3,-4(fp)
 2001898:	00810074 	movhi	r2,1025
 200189c:	10a81c04 	addi	r2,r2,-24464
 20018a0:	10c00035 	stwio	r3,0(r2)
 20018a4:	00c00044 	movi	r3,1
 20018a8:	00810074 	movhi	r2,1025
 20018ac:	10a81804 	addi	r2,r2,-24480
 20018b0:	10c00035 	stwio	r3,0(r2)
 20018b4:	0007883a 	mov	r3,zero
 20018b8:	00810074 	movhi	r2,1025
 20018bc:	10a81804 	addi	r2,r2,-24480
 20018c0:	10c00035 	stwio	r3,0(r2)
 20018c4:	e0bffb17 	ldw	r2,-20(fp)
 20018c8:	10800044 	addi	r2,r2,1
 20018cc:	e0bffb15 	stw	r2,-20(fp)
 20018d0:	e0bffb17 	ldw	r2,-20(fp)
 20018d4:	10800810 	cmplti	r2,r2,32
 20018d8:	103efa1e 	bne	r2,zero,20014c4 <__reset+0xfdff84c4>
 20018dc:	e0bffa17 	ldw	r2,-24(fp)
 20018e0:	10800044 	addi	r2,r2,1
 20018e4:	e0bffa15 	stw	r2,-24(fp)
 20018e8:	e0bffa17 	ldw	r2,-24(fp)
 20018ec:	10800810 	cmplti	r2,r2,32
 20018f0:	103ef21e 	bne	r2,zero,20014bc <__reset+0xfdff84bc>
 20018f4:	e037883a 	mov	sp,fp
 20018f8:	dfc00117 	ldw	ra,4(sp)
 20018fc:	df000017 	ldw	fp,0(sp)
 2001900:	dec00204 	addi	sp,sp,8
 2001904:	f800283a 	ret

02001908 <displayGamma98ColourBars>:
 2001908:	defff804 	addi	sp,sp,-32
 200190c:	dfc00715 	stw	ra,28(sp)
 2001910:	df000615 	stw	fp,24(sp)
 2001914:	df000604 	addi	fp,sp,24
 2001918:	e03ffa15 	stw	zero,-24(fp)
 200191c:	00010b06 	br	2001d4c <displayGamma98ColourBars+0x444>
 2001920:	e03ffb15 	stw	zero,-20(fp)
 2001924:	00010306 	br	2001d34 <displayGamma98ColourBars+0x42c>
 2001928:	00810004 	movi	r2,1024
 200192c:	e0bffe15 	stw	r2,-8(fp)
 2001930:	e0bffa17 	ldw	r2,-24(fp)
 2001934:	1004917a 	slli	r2,r2,5
 2001938:	e0fffe17 	ldw	r3,-8(fp)
 200193c:	1885883a 	add	r2,r3,r2
 2001940:	e0bffe15 	stw	r2,-8(fp)
 2001944:	e0fffe17 	ldw	r3,-8(fp)
 2001948:	e0bffb17 	ldw	r2,-20(fp)
 200194c:	1885883a 	add	r2,r3,r2
 2001950:	e0bffe15 	stw	r2,-8(fp)
 2001954:	e0bffa17 	ldw	r2,-24(fp)
 2001958:	10800208 	cmpgei	r2,r2,8
 200195c:	1000231e 	bne	r2,zero,20019ec <displayGamma98ColourBars+0xe4>
 2001960:	e13ffb17 	ldw	r4,-20(fp)
 2001964:	2006b640 	call	2006b64 <__floatsidf>
 2001968:	100b883a 	mov	r5,r2
 200196c:	180d883a 	mov	r6,r3
 2001970:	2809883a 	mov	r4,r5
 2001974:	300b883a 	mov	r5,r6
 2001978:	000d883a 	mov	r6,zero
 200197c:	01d00ff4 	movhi	r7,16447
 2001980:	20059480 	call	2005948 <__divdf3>
 2001984:	1009883a 	mov	r4,r2
 2001988:	180b883a 	mov	r5,r3
 200198c:	2005883a 	mov	r2,r4
 2001990:	2807883a 	mov	r3,r5
 2001994:	1009883a 	mov	r4,r2
 2001998:	180b883a 	mov	r5,r3
 200199c:	000d883a 	mov	r6,zero
 20019a0:	01d01c34 	movhi	r7,16496
 20019a4:	39f80004 	addi	r7,r7,-8192
 20019a8:	20062e40 	call	20062e4 <__muldf3>
 20019ac:	1009883a 	mov	r4,r2
 20019b0:	180b883a 	mov	r5,r3
 20019b4:	2005883a 	mov	r2,r4
 20019b8:	2807883a 	mov	r3,r5
 20019bc:	1009883a 	mov	r4,r2
 20019c0:	180b883a 	mov	r5,r3
 20019c4:	2006ae40 	call	2006ae4 <__fixdfsi>
 20019c8:	00c080b4 	movhi	r3,514
 20019cc:	18fa6a04 	addi	r3,r3,-5720
 20019d0:	1085883a 	add	r2,r2,r2
 20019d4:	1885883a 	add	r2,r3,r2
 20019d8:	1080000b 	ldhu	r2,0(r2)
 20019dc:	e0bffc0d 	sth	r2,-16(fp)
 20019e0:	e03ffc8d 	sth	zero,-14(fp)
 20019e4:	e03ffd0d 	sth	zero,-12(fp)
 20019e8:	0000b206 	br	2001cb4 <displayGamma98ColourBars+0x3ac>
 20019ec:	e0bffa17 	ldw	r2,-24(fp)
 20019f0:	10800210 	cmplti	r2,r2,8
 20019f4:	1000261e 	bne	r2,zero,2001a90 <displayGamma98ColourBars+0x188>
 20019f8:	e0bffa17 	ldw	r2,-24(fp)
 20019fc:	10800408 	cmpgei	r2,r2,16
 2001a00:	1000231e 	bne	r2,zero,2001a90 <displayGamma98ColourBars+0x188>
 2001a04:	e03ffc0d 	sth	zero,-16(fp)
 2001a08:	e13ffb17 	ldw	r4,-20(fp)
 2001a0c:	2006b640 	call	2006b64 <__floatsidf>
 2001a10:	100b883a 	mov	r5,r2
 2001a14:	180d883a 	mov	r6,r3
 2001a18:	2809883a 	mov	r4,r5
 2001a1c:	300b883a 	mov	r5,r6
 2001a20:	000d883a 	mov	r6,zero
 2001a24:	01d00ff4 	movhi	r7,16447
 2001a28:	20059480 	call	2005948 <__divdf3>
 2001a2c:	1009883a 	mov	r4,r2
 2001a30:	180b883a 	mov	r5,r3
 2001a34:	2005883a 	mov	r2,r4
 2001a38:	2807883a 	mov	r3,r5
 2001a3c:	1009883a 	mov	r4,r2
 2001a40:	180b883a 	mov	r5,r3
 2001a44:	000d883a 	mov	r6,zero
 2001a48:	01d01c34 	movhi	r7,16496
 2001a4c:	39f80004 	addi	r7,r7,-8192
 2001a50:	20062e40 	call	20062e4 <__muldf3>
 2001a54:	1009883a 	mov	r4,r2
 2001a58:	180b883a 	mov	r5,r3
 2001a5c:	2005883a 	mov	r2,r4
 2001a60:	2807883a 	mov	r3,r5
 2001a64:	1009883a 	mov	r4,r2
 2001a68:	180b883a 	mov	r5,r3
 2001a6c:	2006ae40 	call	2006ae4 <__fixdfsi>
 2001a70:	00c080b4 	movhi	r3,514
 2001a74:	18fa6a04 	addi	r3,r3,-5720
 2001a78:	1085883a 	add	r2,r2,r2
 2001a7c:	1885883a 	add	r2,r3,r2
 2001a80:	1080000b 	ldhu	r2,0(r2)
 2001a84:	e0bffc8d 	sth	r2,-14(fp)
 2001a88:	e03ffd0d 	sth	zero,-12(fp)
 2001a8c:	00008906 	br	2001cb4 <displayGamma98ColourBars+0x3ac>
 2001a90:	e0bffa17 	ldw	r2,-24(fp)
 2001a94:	10800410 	cmplti	r2,r2,16
 2001a98:	1000261e 	bne	r2,zero,2001b34 <displayGamma98ColourBars+0x22c>
 2001a9c:	e0bffa17 	ldw	r2,-24(fp)
 2001aa0:	10800608 	cmpgei	r2,r2,24
 2001aa4:	1000231e 	bne	r2,zero,2001b34 <displayGamma98ColourBars+0x22c>
 2001aa8:	e03ffc0d 	sth	zero,-16(fp)
 2001aac:	e03ffc8d 	sth	zero,-14(fp)
 2001ab0:	e13ffb17 	ldw	r4,-20(fp)
 2001ab4:	2006b640 	call	2006b64 <__floatsidf>
 2001ab8:	100b883a 	mov	r5,r2
 2001abc:	180d883a 	mov	r6,r3
 2001ac0:	2809883a 	mov	r4,r5
 2001ac4:	300b883a 	mov	r5,r6
 2001ac8:	000d883a 	mov	r6,zero
 2001acc:	01d00ff4 	movhi	r7,16447
 2001ad0:	20059480 	call	2005948 <__divdf3>
 2001ad4:	1009883a 	mov	r4,r2
 2001ad8:	180b883a 	mov	r5,r3
 2001adc:	2005883a 	mov	r2,r4
 2001ae0:	2807883a 	mov	r3,r5
 2001ae4:	1009883a 	mov	r4,r2
 2001ae8:	180b883a 	mov	r5,r3
 2001aec:	000d883a 	mov	r6,zero
 2001af0:	01d01c34 	movhi	r7,16496
 2001af4:	39f80004 	addi	r7,r7,-8192
 2001af8:	20062e40 	call	20062e4 <__muldf3>
 2001afc:	1009883a 	mov	r4,r2
 2001b00:	180b883a 	mov	r5,r3
 2001b04:	2005883a 	mov	r2,r4
 2001b08:	2807883a 	mov	r3,r5
 2001b0c:	1009883a 	mov	r4,r2
 2001b10:	180b883a 	mov	r5,r3
 2001b14:	2006ae40 	call	2006ae4 <__fixdfsi>
 2001b18:	00c080b4 	movhi	r3,514
 2001b1c:	18fa6a04 	addi	r3,r3,-5720
 2001b20:	1085883a 	add	r2,r2,r2
 2001b24:	1885883a 	add	r2,r3,r2
 2001b28:	1080000b 	ldhu	r2,0(r2)
 2001b2c:	e0bffd0d 	sth	r2,-12(fp)
 2001b30:	00006006 	br	2001cb4 <displayGamma98ColourBars+0x3ac>
 2001b34:	e13ffb17 	ldw	r4,-20(fp)
 2001b38:	2006b640 	call	2006b64 <__floatsidf>
 2001b3c:	100b883a 	mov	r5,r2
 2001b40:	180d883a 	mov	r6,r3
 2001b44:	2809883a 	mov	r4,r5
 2001b48:	300b883a 	mov	r5,r6
 2001b4c:	000d883a 	mov	r6,zero
 2001b50:	01d00ff4 	movhi	r7,16447
 2001b54:	20059480 	call	2005948 <__divdf3>
 2001b58:	1009883a 	mov	r4,r2
 2001b5c:	180b883a 	mov	r5,r3
 2001b60:	2005883a 	mov	r2,r4
 2001b64:	2807883a 	mov	r3,r5
 2001b68:	1009883a 	mov	r4,r2
 2001b6c:	180b883a 	mov	r5,r3
 2001b70:	000d883a 	mov	r6,zero
 2001b74:	01d01c34 	movhi	r7,16496
 2001b78:	39f80004 	addi	r7,r7,-8192
 2001b7c:	20062e40 	call	20062e4 <__muldf3>
 2001b80:	1009883a 	mov	r4,r2
 2001b84:	180b883a 	mov	r5,r3
 2001b88:	2005883a 	mov	r2,r4
 2001b8c:	2807883a 	mov	r3,r5
 2001b90:	1009883a 	mov	r4,r2
 2001b94:	180b883a 	mov	r5,r3
 2001b98:	2006ae40 	call	2006ae4 <__fixdfsi>
 2001b9c:	00c080b4 	movhi	r3,514
 2001ba0:	18fa6a04 	addi	r3,r3,-5720
 2001ba4:	1085883a 	add	r2,r2,r2
 2001ba8:	1885883a 	add	r2,r3,r2
 2001bac:	1080000b 	ldhu	r2,0(r2)
 2001bb0:	e0bffc0d 	sth	r2,-16(fp)
 2001bb4:	e13ffb17 	ldw	r4,-20(fp)
 2001bb8:	2006b640 	call	2006b64 <__floatsidf>
 2001bbc:	100b883a 	mov	r5,r2
 2001bc0:	180d883a 	mov	r6,r3
 2001bc4:	2809883a 	mov	r4,r5
 2001bc8:	300b883a 	mov	r5,r6
 2001bcc:	000d883a 	mov	r6,zero
 2001bd0:	01d00ff4 	movhi	r7,16447
 2001bd4:	20059480 	call	2005948 <__divdf3>
 2001bd8:	1009883a 	mov	r4,r2
 2001bdc:	180b883a 	mov	r5,r3
 2001be0:	2005883a 	mov	r2,r4
 2001be4:	2807883a 	mov	r3,r5
 2001be8:	1009883a 	mov	r4,r2
 2001bec:	180b883a 	mov	r5,r3
 2001bf0:	000d883a 	mov	r6,zero
 2001bf4:	01d01c34 	movhi	r7,16496
 2001bf8:	39f80004 	addi	r7,r7,-8192
 2001bfc:	20062e40 	call	20062e4 <__muldf3>
 2001c00:	1009883a 	mov	r4,r2
 2001c04:	180b883a 	mov	r5,r3
 2001c08:	2005883a 	mov	r2,r4
 2001c0c:	2807883a 	mov	r3,r5
 2001c10:	1009883a 	mov	r4,r2
 2001c14:	180b883a 	mov	r5,r3
 2001c18:	2006ae40 	call	2006ae4 <__fixdfsi>
 2001c1c:	00c080b4 	movhi	r3,514
 2001c20:	18fa6a04 	addi	r3,r3,-5720
 2001c24:	1085883a 	add	r2,r2,r2
 2001c28:	1885883a 	add	r2,r3,r2
 2001c2c:	1080000b 	ldhu	r2,0(r2)
 2001c30:	e0bffc8d 	sth	r2,-14(fp)
 2001c34:	e13ffb17 	ldw	r4,-20(fp)
 2001c38:	2006b640 	call	2006b64 <__floatsidf>
 2001c3c:	100b883a 	mov	r5,r2
 2001c40:	180d883a 	mov	r6,r3
 2001c44:	2809883a 	mov	r4,r5
 2001c48:	300b883a 	mov	r5,r6
 2001c4c:	000d883a 	mov	r6,zero
 2001c50:	01d00ff4 	movhi	r7,16447
 2001c54:	20059480 	call	2005948 <__divdf3>
 2001c58:	1009883a 	mov	r4,r2
 2001c5c:	180b883a 	mov	r5,r3
 2001c60:	2005883a 	mov	r2,r4
 2001c64:	2807883a 	mov	r3,r5
 2001c68:	1009883a 	mov	r4,r2
 2001c6c:	180b883a 	mov	r5,r3
 2001c70:	000d883a 	mov	r6,zero
 2001c74:	01d01c34 	movhi	r7,16496
 2001c78:	39f80004 	addi	r7,r7,-8192
 2001c7c:	20062e40 	call	20062e4 <__muldf3>
 2001c80:	1009883a 	mov	r4,r2
 2001c84:	180b883a 	mov	r5,r3
 2001c88:	2005883a 	mov	r2,r4
 2001c8c:	2807883a 	mov	r3,r5
 2001c90:	1009883a 	mov	r4,r2
 2001c94:	180b883a 	mov	r5,r3
 2001c98:	2006ae40 	call	2006ae4 <__fixdfsi>
 2001c9c:	00c080b4 	movhi	r3,514
 2001ca0:	18fa6a04 	addi	r3,r3,-5720
 2001ca4:	1085883a 	add	r2,r2,r2
 2001ca8:	1885883a 	add	r2,r3,r2
 2001cac:	1080000b 	ldhu	r2,0(r2)
 2001cb0:	e0bffd0d 	sth	r2,-12(fp)
 2001cb4:	e0bffc0b 	ldhu	r2,-16(fp)
 2001cb8:	1004953a 	slli	r2,r2,20
 2001cbc:	10cffc2c 	andhi	r3,r2,16368
 2001cc0:	e0bffc8b 	ldhu	r2,-14(fp)
 2001cc4:	100892ba 	slli	r4,r2,10
 2001cc8:	00800434 	movhi	r2,16
 2001ccc:	10bf0004 	addi	r2,r2,-1024
 2001cd0:	2084703a 	and	r2,r4,r2
 2001cd4:	1886b03a 	or	r3,r3,r2
 2001cd8:	e0bffd0b 	ldhu	r2,-12(fp)
 2001cdc:	1080ffcc 	andi	r2,r2,1023
 2001ce0:	1884b03a 	or	r2,r3,r2
 2001ce4:	e0bfff15 	stw	r2,-4(fp)
 2001ce8:	00810074 	movhi	r2,1025
 2001cec:	10a82004 	addi	r2,r2,-24448
 2001cf0:	e0fffe17 	ldw	r3,-8(fp)
 2001cf4:	10c00035 	stwio	r3,0(r2)
 2001cf8:	e0ffff17 	ldw	r3,-4(fp)
 2001cfc:	00810074 	movhi	r2,1025
 2001d00:	10a81c04 	addi	r2,r2,-24464
 2001d04:	10c00035 	stwio	r3,0(r2)
 2001d08:	00c00044 	movi	r3,1
 2001d0c:	00810074 	movhi	r2,1025
 2001d10:	10a81804 	addi	r2,r2,-24480
 2001d14:	10c00035 	stwio	r3,0(r2)
 2001d18:	0007883a 	mov	r3,zero
 2001d1c:	00810074 	movhi	r2,1025
 2001d20:	10a81804 	addi	r2,r2,-24480
 2001d24:	10c00035 	stwio	r3,0(r2)
 2001d28:	e0bffb17 	ldw	r2,-20(fp)
 2001d2c:	10800044 	addi	r2,r2,1
 2001d30:	e0bffb15 	stw	r2,-20(fp)
 2001d34:	e0bffb17 	ldw	r2,-20(fp)
 2001d38:	10800810 	cmplti	r2,r2,32
 2001d3c:	103efa1e 	bne	r2,zero,2001928 <__reset+0xfdff8928>
 2001d40:	e0bffa17 	ldw	r2,-24(fp)
 2001d44:	10800044 	addi	r2,r2,1
 2001d48:	e0bffa15 	stw	r2,-24(fp)
 2001d4c:	e0bffa17 	ldw	r2,-24(fp)
 2001d50:	10800810 	cmplti	r2,r2,32
 2001d54:	103ef21e 	bne	r2,zero,2001920 <__reset+0xfdff8920>
 2001d58:	e037883a 	mov	sp,fp
 2001d5c:	dfc00117 	ldw	ra,4(sp)
 2001d60:	df000017 	ldw	fp,0(sp)
 2001d64:	dec00204 	addi	sp,sp,8
 2001d68:	f800283a 	ret

02001d6c <displayGamma46ColourBars>:
 2001d6c:	defff804 	addi	sp,sp,-32
 2001d70:	dfc00715 	stw	ra,28(sp)
 2001d74:	df000615 	stw	fp,24(sp)
 2001d78:	df000604 	addi	fp,sp,24
 2001d7c:	e03ffa15 	stw	zero,-24(fp)
 2001d80:	00010b06 	br	20021b0 <displayGamma46ColourBars+0x444>
 2001d84:	e03ffb15 	stw	zero,-20(fp)
 2001d88:	00010306 	br	2002198 <displayGamma46ColourBars+0x42c>
 2001d8c:	00810004 	movi	r2,1024
 2001d90:	e0bffe15 	stw	r2,-8(fp)
 2001d94:	e0bffa17 	ldw	r2,-24(fp)
 2001d98:	1004917a 	slli	r2,r2,5
 2001d9c:	e0fffe17 	ldw	r3,-8(fp)
 2001da0:	1885883a 	add	r2,r3,r2
 2001da4:	e0bffe15 	stw	r2,-8(fp)
 2001da8:	e0fffe17 	ldw	r3,-8(fp)
 2001dac:	e0bffb17 	ldw	r2,-20(fp)
 2001db0:	1885883a 	add	r2,r3,r2
 2001db4:	e0bffe15 	stw	r2,-8(fp)
 2001db8:	e0bffa17 	ldw	r2,-24(fp)
 2001dbc:	10800208 	cmpgei	r2,r2,8
 2001dc0:	1000231e 	bne	r2,zero,2001e50 <displayGamma46ColourBars+0xe4>
 2001dc4:	e13ffb17 	ldw	r4,-20(fp)
 2001dc8:	2006b640 	call	2006b64 <__floatsidf>
 2001dcc:	100b883a 	mov	r5,r2
 2001dd0:	180d883a 	mov	r6,r3
 2001dd4:	2809883a 	mov	r4,r5
 2001dd8:	300b883a 	mov	r5,r6
 2001ddc:	000d883a 	mov	r6,zero
 2001de0:	01d00ff4 	movhi	r7,16447
 2001de4:	20059480 	call	2005948 <__divdf3>
 2001de8:	1009883a 	mov	r4,r2
 2001dec:	180b883a 	mov	r5,r3
 2001df0:	2005883a 	mov	r2,r4
 2001df4:	2807883a 	mov	r3,r5
 2001df8:	1009883a 	mov	r4,r2
 2001dfc:	180b883a 	mov	r5,r3
 2001e00:	000d883a 	mov	r6,zero
 2001e04:	01d01c34 	movhi	r7,16496
 2001e08:	39f80004 	addi	r7,r7,-8192
 2001e0c:	20062e40 	call	20062e4 <__muldf3>
 2001e10:	1009883a 	mov	r4,r2
 2001e14:	180b883a 	mov	r5,r3
 2001e18:	2005883a 	mov	r2,r4
 2001e1c:	2807883a 	mov	r3,r5
 2001e20:	1009883a 	mov	r4,r2
 2001e24:	180b883a 	mov	r5,r3
 2001e28:	2006ae40 	call	2006ae4 <__fixdfsi>
 2001e2c:	00c080b4 	movhi	r3,514
 2001e30:	18faea04 	addi	r3,r3,-5208
 2001e34:	1085883a 	add	r2,r2,r2
 2001e38:	1885883a 	add	r2,r3,r2
 2001e3c:	1080000b 	ldhu	r2,0(r2)
 2001e40:	e0bffc0d 	sth	r2,-16(fp)
 2001e44:	e03ffc8d 	sth	zero,-14(fp)
 2001e48:	e03ffd0d 	sth	zero,-12(fp)
 2001e4c:	0000b206 	br	2002118 <displayGamma46ColourBars+0x3ac>
 2001e50:	e0bffa17 	ldw	r2,-24(fp)
 2001e54:	10800210 	cmplti	r2,r2,8
 2001e58:	1000261e 	bne	r2,zero,2001ef4 <displayGamma46ColourBars+0x188>
 2001e5c:	e0bffa17 	ldw	r2,-24(fp)
 2001e60:	10800408 	cmpgei	r2,r2,16
 2001e64:	1000231e 	bne	r2,zero,2001ef4 <displayGamma46ColourBars+0x188>
 2001e68:	e03ffc0d 	sth	zero,-16(fp)
 2001e6c:	e13ffb17 	ldw	r4,-20(fp)
 2001e70:	2006b640 	call	2006b64 <__floatsidf>
 2001e74:	100b883a 	mov	r5,r2
 2001e78:	180d883a 	mov	r6,r3
 2001e7c:	2809883a 	mov	r4,r5
 2001e80:	300b883a 	mov	r5,r6
 2001e84:	000d883a 	mov	r6,zero
 2001e88:	01d00ff4 	movhi	r7,16447
 2001e8c:	20059480 	call	2005948 <__divdf3>
 2001e90:	1009883a 	mov	r4,r2
 2001e94:	180b883a 	mov	r5,r3
 2001e98:	2005883a 	mov	r2,r4
 2001e9c:	2807883a 	mov	r3,r5
 2001ea0:	1009883a 	mov	r4,r2
 2001ea4:	180b883a 	mov	r5,r3
 2001ea8:	000d883a 	mov	r6,zero
 2001eac:	01d01c34 	movhi	r7,16496
 2001eb0:	39f80004 	addi	r7,r7,-8192
 2001eb4:	20062e40 	call	20062e4 <__muldf3>
 2001eb8:	1009883a 	mov	r4,r2
 2001ebc:	180b883a 	mov	r5,r3
 2001ec0:	2005883a 	mov	r2,r4
 2001ec4:	2807883a 	mov	r3,r5
 2001ec8:	1009883a 	mov	r4,r2
 2001ecc:	180b883a 	mov	r5,r3
 2001ed0:	2006ae40 	call	2006ae4 <__fixdfsi>
 2001ed4:	00c080b4 	movhi	r3,514
 2001ed8:	18faea04 	addi	r3,r3,-5208
 2001edc:	1085883a 	add	r2,r2,r2
 2001ee0:	1885883a 	add	r2,r3,r2
 2001ee4:	1080000b 	ldhu	r2,0(r2)
 2001ee8:	e0bffc8d 	sth	r2,-14(fp)
 2001eec:	e03ffd0d 	sth	zero,-12(fp)
 2001ef0:	00008906 	br	2002118 <displayGamma46ColourBars+0x3ac>
 2001ef4:	e0bffa17 	ldw	r2,-24(fp)
 2001ef8:	10800410 	cmplti	r2,r2,16
 2001efc:	1000261e 	bne	r2,zero,2001f98 <displayGamma46ColourBars+0x22c>
 2001f00:	e0bffa17 	ldw	r2,-24(fp)
 2001f04:	10800608 	cmpgei	r2,r2,24
 2001f08:	1000231e 	bne	r2,zero,2001f98 <displayGamma46ColourBars+0x22c>
 2001f0c:	e03ffc0d 	sth	zero,-16(fp)
 2001f10:	e03ffc8d 	sth	zero,-14(fp)
 2001f14:	e13ffb17 	ldw	r4,-20(fp)
 2001f18:	2006b640 	call	2006b64 <__floatsidf>
 2001f1c:	100b883a 	mov	r5,r2
 2001f20:	180d883a 	mov	r6,r3
 2001f24:	2809883a 	mov	r4,r5
 2001f28:	300b883a 	mov	r5,r6
 2001f2c:	000d883a 	mov	r6,zero
 2001f30:	01d00ff4 	movhi	r7,16447
 2001f34:	20059480 	call	2005948 <__divdf3>
 2001f38:	1009883a 	mov	r4,r2
 2001f3c:	180b883a 	mov	r5,r3
 2001f40:	2005883a 	mov	r2,r4
 2001f44:	2807883a 	mov	r3,r5
 2001f48:	1009883a 	mov	r4,r2
 2001f4c:	180b883a 	mov	r5,r3
 2001f50:	000d883a 	mov	r6,zero
 2001f54:	01d01c34 	movhi	r7,16496
 2001f58:	39f80004 	addi	r7,r7,-8192
 2001f5c:	20062e40 	call	20062e4 <__muldf3>
 2001f60:	1009883a 	mov	r4,r2
 2001f64:	180b883a 	mov	r5,r3
 2001f68:	2005883a 	mov	r2,r4
 2001f6c:	2807883a 	mov	r3,r5
 2001f70:	1009883a 	mov	r4,r2
 2001f74:	180b883a 	mov	r5,r3
 2001f78:	2006ae40 	call	2006ae4 <__fixdfsi>
 2001f7c:	00c080b4 	movhi	r3,514
 2001f80:	18faea04 	addi	r3,r3,-5208
 2001f84:	1085883a 	add	r2,r2,r2
 2001f88:	1885883a 	add	r2,r3,r2
 2001f8c:	1080000b 	ldhu	r2,0(r2)
 2001f90:	e0bffd0d 	sth	r2,-12(fp)
 2001f94:	00006006 	br	2002118 <displayGamma46ColourBars+0x3ac>
 2001f98:	e13ffb17 	ldw	r4,-20(fp)
 2001f9c:	2006b640 	call	2006b64 <__floatsidf>
 2001fa0:	100b883a 	mov	r5,r2
 2001fa4:	180d883a 	mov	r6,r3
 2001fa8:	2809883a 	mov	r4,r5
 2001fac:	300b883a 	mov	r5,r6
 2001fb0:	000d883a 	mov	r6,zero
 2001fb4:	01d00ff4 	movhi	r7,16447
 2001fb8:	20059480 	call	2005948 <__divdf3>
 2001fbc:	1009883a 	mov	r4,r2
 2001fc0:	180b883a 	mov	r5,r3
 2001fc4:	2005883a 	mov	r2,r4
 2001fc8:	2807883a 	mov	r3,r5
 2001fcc:	1009883a 	mov	r4,r2
 2001fd0:	180b883a 	mov	r5,r3
 2001fd4:	000d883a 	mov	r6,zero
 2001fd8:	01d01c34 	movhi	r7,16496
 2001fdc:	39f80004 	addi	r7,r7,-8192
 2001fe0:	20062e40 	call	20062e4 <__muldf3>
 2001fe4:	1009883a 	mov	r4,r2
 2001fe8:	180b883a 	mov	r5,r3
 2001fec:	2005883a 	mov	r2,r4
 2001ff0:	2807883a 	mov	r3,r5
 2001ff4:	1009883a 	mov	r4,r2
 2001ff8:	180b883a 	mov	r5,r3
 2001ffc:	2006ae40 	call	2006ae4 <__fixdfsi>
 2002000:	00c080b4 	movhi	r3,514
 2002004:	18faea04 	addi	r3,r3,-5208
 2002008:	1085883a 	add	r2,r2,r2
 200200c:	1885883a 	add	r2,r3,r2
 2002010:	1080000b 	ldhu	r2,0(r2)
 2002014:	e0bffc0d 	sth	r2,-16(fp)
 2002018:	e13ffb17 	ldw	r4,-20(fp)
 200201c:	2006b640 	call	2006b64 <__floatsidf>
 2002020:	100b883a 	mov	r5,r2
 2002024:	180d883a 	mov	r6,r3
 2002028:	2809883a 	mov	r4,r5
 200202c:	300b883a 	mov	r5,r6
 2002030:	000d883a 	mov	r6,zero
 2002034:	01d00ff4 	movhi	r7,16447
 2002038:	20059480 	call	2005948 <__divdf3>
 200203c:	1009883a 	mov	r4,r2
 2002040:	180b883a 	mov	r5,r3
 2002044:	2005883a 	mov	r2,r4
 2002048:	2807883a 	mov	r3,r5
 200204c:	1009883a 	mov	r4,r2
 2002050:	180b883a 	mov	r5,r3
 2002054:	000d883a 	mov	r6,zero
 2002058:	01d01c34 	movhi	r7,16496
 200205c:	39f80004 	addi	r7,r7,-8192
 2002060:	20062e40 	call	20062e4 <__muldf3>
 2002064:	1009883a 	mov	r4,r2
 2002068:	180b883a 	mov	r5,r3
 200206c:	2005883a 	mov	r2,r4
 2002070:	2807883a 	mov	r3,r5
 2002074:	1009883a 	mov	r4,r2
 2002078:	180b883a 	mov	r5,r3
 200207c:	2006ae40 	call	2006ae4 <__fixdfsi>
 2002080:	00c080b4 	movhi	r3,514
 2002084:	18faea04 	addi	r3,r3,-5208
 2002088:	1085883a 	add	r2,r2,r2
 200208c:	1885883a 	add	r2,r3,r2
 2002090:	1080000b 	ldhu	r2,0(r2)
 2002094:	e0bffc8d 	sth	r2,-14(fp)
 2002098:	e13ffb17 	ldw	r4,-20(fp)
 200209c:	2006b640 	call	2006b64 <__floatsidf>
 20020a0:	100b883a 	mov	r5,r2
 20020a4:	180d883a 	mov	r6,r3
 20020a8:	2809883a 	mov	r4,r5
 20020ac:	300b883a 	mov	r5,r6
 20020b0:	000d883a 	mov	r6,zero
 20020b4:	01d00ff4 	movhi	r7,16447
 20020b8:	20059480 	call	2005948 <__divdf3>
 20020bc:	1009883a 	mov	r4,r2
 20020c0:	180b883a 	mov	r5,r3
 20020c4:	2005883a 	mov	r2,r4
 20020c8:	2807883a 	mov	r3,r5
 20020cc:	1009883a 	mov	r4,r2
 20020d0:	180b883a 	mov	r5,r3
 20020d4:	000d883a 	mov	r6,zero
 20020d8:	01d01c34 	movhi	r7,16496
 20020dc:	39f80004 	addi	r7,r7,-8192
 20020e0:	20062e40 	call	20062e4 <__muldf3>
 20020e4:	1009883a 	mov	r4,r2
 20020e8:	180b883a 	mov	r5,r3
 20020ec:	2005883a 	mov	r2,r4
 20020f0:	2807883a 	mov	r3,r5
 20020f4:	1009883a 	mov	r4,r2
 20020f8:	180b883a 	mov	r5,r3
 20020fc:	2006ae40 	call	2006ae4 <__fixdfsi>
 2002100:	00c080b4 	movhi	r3,514
 2002104:	18faea04 	addi	r3,r3,-5208
 2002108:	1085883a 	add	r2,r2,r2
 200210c:	1885883a 	add	r2,r3,r2
 2002110:	1080000b 	ldhu	r2,0(r2)
 2002114:	e0bffd0d 	sth	r2,-12(fp)
 2002118:	e0bffc0b 	ldhu	r2,-16(fp)
 200211c:	1004953a 	slli	r2,r2,20
 2002120:	10cffc2c 	andhi	r3,r2,16368
 2002124:	e0bffc8b 	ldhu	r2,-14(fp)
 2002128:	100892ba 	slli	r4,r2,10
 200212c:	00800434 	movhi	r2,16
 2002130:	10bf0004 	addi	r2,r2,-1024
 2002134:	2084703a 	and	r2,r4,r2
 2002138:	1886b03a 	or	r3,r3,r2
 200213c:	e0bffd0b 	ldhu	r2,-12(fp)
 2002140:	1080ffcc 	andi	r2,r2,1023
 2002144:	1884b03a 	or	r2,r3,r2
 2002148:	e0bfff15 	stw	r2,-4(fp)
 200214c:	00810074 	movhi	r2,1025
 2002150:	10a82004 	addi	r2,r2,-24448
 2002154:	e0fffe17 	ldw	r3,-8(fp)
 2002158:	10c00035 	stwio	r3,0(r2)
 200215c:	e0ffff17 	ldw	r3,-4(fp)
 2002160:	00810074 	movhi	r2,1025
 2002164:	10a81c04 	addi	r2,r2,-24464
 2002168:	10c00035 	stwio	r3,0(r2)
 200216c:	00c00044 	movi	r3,1
 2002170:	00810074 	movhi	r2,1025
 2002174:	10a81804 	addi	r2,r2,-24480
 2002178:	10c00035 	stwio	r3,0(r2)
 200217c:	0007883a 	mov	r3,zero
 2002180:	00810074 	movhi	r2,1025
 2002184:	10a81804 	addi	r2,r2,-24480
 2002188:	10c00035 	stwio	r3,0(r2)
 200218c:	e0bffb17 	ldw	r2,-20(fp)
 2002190:	10800044 	addi	r2,r2,1
 2002194:	e0bffb15 	stw	r2,-20(fp)
 2002198:	e0bffb17 	ldw	r2,-20(fp)
 200219c:	10800810 	cmplti	r2,r2,32
 20021a0:	103efa1e 	bne	r2,zero,2001d8c <__reset+0xfdff8d8c>
 20021a4:	e0bffa17 	ldw	r2,-24(fp)
 20021a8:	10800044 	addi	r2,r2,1
 20021ac:	e0bffa15 	stw	r2,-24(fp)
 20021b0:	e0bffa17 	ldw	r2,-24(fp)
 20021b4:	10800810 	cmplti	r2,r2,32
 20021b8:	103ef21e 	bne	r2,zero,2001d84 <__reset+0xfdff8d84>
 20021bc:	e037883a 	mov	sp,fp
 20021c0:	dfc00117 	ldw	ra,4(sp)
 20021c4:	df000017 	ldw	fp,0(sp)
 20021c8:	dec00204 	addi	sp,sp,8
 20021cc:	f800283a 	ret

020021d0 <DGifOpenFileName>:
 20021d0:	defffa04 	addi	sp,sp,-24
 20021d4:	dfc00515 	stw	ra,20(sp)
 20021d8:	df000415 	stw	fp,16(sp)
 20021dc:	df000404 	addi	fp,sp,16
 20021e0:	e13ffe15 	stw	r4,-8(fp)
 20021e4:	e17fff15 	stw	r5,-4(fp)
 20021e8:	e13ffe17 	ldw	r4,-8(fp)
 20021ec:	000b883a 	mov	r5,zero
 20021f0:	2012f740 	call	2012f74 <open>
 20021f4:	e0bffc15 	stw	r2,-16(fp)
 20021f8:	e0bffc17 	ldw	r2,-16(fp)
 20021fc:	10bfffd8 	cmpnei	r2,r2,-1
 2002200:	1000071e 	bne	r2,zero,2002220 <DGifOpenFileName+0x50>
 2002204:	e0bfff17 	ldw	r2,-4(fp)
 2002208:	10000326 	beq	r2,zero,2002218 <DGifOpenFileName+0x48>
 200220c:	e0bfff17 	ldw	r2,-4(fp)
 2002210:	00c01944 	movi	r3,101
 2002214:	10c00015 	stw	r3,0(r2)
 2002218:	0005883a 	mov	r2,zero
 200221c:	00000506 	br	2002234 <DGifOpenFileName+0x64>
 2002220:	e13ffc17 	ldw	r4,-16(fp)
 2002224:	e17fff17 	ldw	r5,-4(fp)
 2002228:	20022480 	call	2002248 <DGifOpenFileHandle>
 200222c:	e0bffd15 	stw	r2,-12(fp)
 2002230:	e0bffd17 	ldw	r2,-12(fp)
 2002234:	e037883a 	mov	sp,fp
 2002238:	dfc00117 	ldw	ra,4(sp)
 200223c:	df000017 	ldw	fp,0(sp)
 2002240:	dec00204 	addi	sp,sp,8
 2002244:	f800283a 	ret

02002248 <DGifOpenFileHandle>:
 2002248:	defff704 	addi	sp,sp,-36
 200224c:	dfc00815 	stw	ra,32(sp)
 2002250:	df000715 	stw	fp,28(sp)
 2002254:	df000704 	addi	fp,sp,28
 2002258:	e13ffe15 	stw	r4,-8(fp)
 200225c:	e17fff15 	stw	r5,-4(fp)
 2002260:	01001304 	movi	r4,76
 2002264:	2007e9c0 	call	2007e9c <malloc>
 2002268:	e0bff915 	stw	r2,-28(fp)
 200226c:	e0bff917 	ldw	r2,-28(fp)
 2002270:	1000091e 	bne	r2,zero,2002298 <DGifOpenFileHandle+0x50>
 2002274:	e0bfff17 	ldw	r2,-4(fp)
 2002278:	10000326 	beq	r2,zero,2002288 <DGifOpenFileHandle+0x40>
 200227c:	e0bfff17 	ldw	r2,-4(fp)
 2002280:	00c01b44 	movi	r3,109
 2002284:	10c00015 	stw	r3,0(r2)
 2002288:	e13ffe17 	ldw	r4,-8(fp)
 200228c:	20129580 	call	2012958 <close>
 2002290:	0005883a 	mov	r2,zero
 2002294:	00007f06 	br	2002494 <DGifOpenFileHandle+0x24c>
 2002298:	e13ff917 	ldw	r4,-28(fp)
 200229c:	000b883a 	mov	r5,zero
 20022a0:	01801304 	movi	r6,76
 20022a4:	20088100 	call	2008810 <memset>
 20022a8:	e0bff917 	ldw	r2,-28(fp)
 20022ac:	10000d15 	stw	zero,52(r2)
 20022b0:	e0bff917 	ldw	r2,-28(fp)
 20022b4:	10000515 	stw	zero,20(r2)
 20022b8:	01185304 	movi	r4,24908
 20022bc:	2007e9c0 	call	2007e9c <malloc>
 20022c0:	e0bffa15 	stw	r2,-24(fp)
 20022c4:	e0bffa17 	ldw	r2,-24(fp)
 20022c8:	10000b1e 	bne	r2,zero,20022f8 <DGifOpenFileHandle+0xb0>
 20022cc:	e0bfff17 	ldw	r2,-4(fp)
 20022d0:	10000326 	beq	r2,zero,20022e0 <DGifOpenFileHandle+0x98>
 20022d4:	e0bfff17 	ldw	r2,-4(fp)
 20022d8:	00c01b44 	movi	r3,109
 20022dc:	10c00015 	stw	r3,0(r2)
 20022e0:	e13ffe17 	ldw	r4,-8(fp)
 20022e4:	20129580 	call	2012958 <close>
 20022e8:	e13ff917 	ldw	r4,-28(fp)
 20022ec:	2007eb00 	call	2007eb0 <free>
 20022f0:	0005883a 	mov	r2,zero
 20022f4:	00006706 	br	2002494 <DGifOpenFileHandle+0x24c>
 20022f8:	e13ffe17 	ldw	r4,-8(fp)
 20022fc:	014080b4 	movhi	r5,514
 2002300:	297b6a04 	addi	r5,r5,-4696
 2002304:	2006fd40 	call	2006fd4 <fdopen>
 2002308:	e0bffb15 	stw	r2,-20(fp)
 200230c:	e0bff917 	ldw	r2,-28(fp)
 2002310:	e0fffa17 	ldw	r3,-24(fp)
 2002314:	10c01215 	stw	r3,72(r2)
 2002318:	e0bffa17 	ldw	r2,-24(fp)
 200231c:	e0fffe17 	ldw	r3,-8(fp)
 2002320:	10c00115 	stw	r3,4(r2)
 2002324:	e0bffa17 	ldw	r2,-24(fp)
 2002328:	e0fffb17 	ldw	r3,-20(fp)
 200232c:	10c00e15 	stw	r3,56(r2)
 2002330:	e0bffa17 	ldw	r2,-24(fp)
 2002334:	00c00204 	movi	r3,8
 2002338:	10c00015 	stw	r3,0(r2)
 200233c:	e0bffa17 	ldw	r2,-24(fp)
 2002340:	10000f15 	stw	zero,60(r2)
 2002344:	e0bff917 	ldw	r2,-28(fp)
 2002348:	10001115 	stw	zero,68(r2)
 200234c:	e0bff917 	ldw	r2,-28(fp)
 2002350:	10801217 	ldw	r2,72(r2)
 2002354:	10800f17 	ldw	r2,60(r2)
 2002358:	10000a26 	beq	r2,zero,2002384 <DGifOpenFileHandle+0x13c>
 200235c:	e0bff917 	ldw	r2,-28(fp)
 2002360:	10801217 	ldw	r2,72(r2)
 2002364:	10800f17 	ldw	r2,60(r2)
 2002368:	e0fffc04 	addi	r3,fp,-16
 200236c:	e13ff917 	ldw	r4,-28(fp)
 2002370:	180b883a 	mov	r5,r3
 2002374:	01800184 	movi	r6,6
 2002378:	103ee83a 	callr	r2
 200237c:	10800198 	cmpnei	r2,r2,6
 2002380:	00000a06 	br	20023ac <DGifOpenFileHandle+0x164>
 2002384:	e0bff917 	ldw	r2,-28(fp)
 2002388:	10801217 	ldw	r2,72(r2)
 200238c:	10800e17 	ldw	r2,56(r2)
 2002390:	e0fffc04 	addi	r3,fp,-16
 2002394:	1809883a 	mov	r4,r3
 2002398:	01400044 	movi	r5,1
 200239c:	01800184 	movi	r6,6
 20023a0:	100f883a 	mov	r7,r2
 20023a4:	20078f00 	call	20078f0 <fread>
 20023a8:	10800198 	cmpnei	r2,r2,6
 20023ac:	10803fcc 	andi	r2,r2,255
 20023b0:	10000d26 	beq	r2,zero,20023e8 <DGifOpenFileHandle+0x1a0>
 20023b4:	e0bfff17 	ldw	r2,-4(fp)
 20023b8:	10000326 	beq	r2,zero,20023c8 <DGifOpenFileHandle+0x180>
 20023bc:	e0bfff17 	ldw	r2,-4(fp)
 20023c0:	00c01984 	movi	r3,102
 20023c4:	10c00015 	stw	r3,0(r2)
 20023c8:	e13ffb17 	ldw	r4,-20(fp)
 20023cc:	2006f0c0 	call	2006f0c <fclose>
 20023d0:	e13ffa17 	ldw	r4,-24(fp)
 20023d4:	2007eb00 	call	2007eb0 <free>
 20023d8:	e13ff917 	ldw	r4,-28(fp)
 20023dc:	2007eb00 	call	2007eb0 <free>
 20023e0:	0005883a 	mov	r2,zero
 20023e4:	00002b06 	br	2002494 <DGifOpenFileHandle+0x24c>
 20023e8:	e03ffd85 	stb	zero,-10(fp)
 20023ec:	e0bffc04 	addi	r2,fp,-16
 20023f0:	010080b4 	movhi	r4,514
 20023f4:	213b6b04 	addi	r4,r4,-4692
 20023f8:	100b883a 	mov	r5,r2
 20023fc:	018000c4 	movi	r6,3
 2002400:	20092a00 	call	20092a0 <strncmp>
 2002404:	10000d26 	beq	r2,zero,200243c <DGifOpenFileHandle+0x1f4>
 2002408:	e0bfff17 	ldw	r2,-4(fp)
 200240c:	10000326 	beq	r2,zero,200241c <DGifOpenFileHandle+0x1d4>
 2002410:	e0bfff17 	ldw	r2,-4(fp)
 2002414:	00c019c4 	movi	r3,103
 2002418:	10c00015 	stw	r3,0(r2)
 200241c:	e13ffb17 	ldw	r4,-20(fp)
 2002420:	2006f0c0 	call	2006f0c <fclose>
 2002424:	e13ffa17 	ldw	r4,-24(fp)
 2002428:	2007eb00 	call	2007eb0 <free>
 200242c:	e13ff917 	ldw	r4,-28(fp)
 2002430:	2007eb00 	call	2007eb0 <free>
 2002434:	0005883a 	mov	r2,zero
 2002438:	00001606 	br	2002494 <DGifOpenFileHandle+0x24c>
 200243c:	e13ff917 	ldw	r4,-28(fp)
 2002440:	20026e40 	call	20026e4 <DGifGetScreenDesc>
 2002444:	1000081e 	bne	r2,zero,2002468 <DGifOpenFileHandle+0x220>
 2002448:	e13ffb17 	ldw	r4,-20(fp)
 200244c:	2006f0c0 	call	2006f0c <fclose>
 2002450:	e13ffa17 	ldw	r4,-24(fp)
 2002454:	2007eb00 	call	2007eb0 <free>
 2002458:	e13ff917 	ldw	r4,-28(fp)
 200245c:	2007eb00 	call	2007eb0 <free>
 2002460:	0005883a 	mov	r2,zero
 2002464:	00000b06 	br	2002494 <DGifOpenFileHandle+0x24c>
 2002468:	e0bff917 	ldw	r2,-28(fp)
 200246c:	10001015 	stw	zero,64(r2)
 2002470:	e0bffcc3 	ldbu	r2,-13(fp)
 2002474:	10803fcc 	andi	r2,r2,255
 2002478:	1080201c 	xori	r2,r2,128
 200247c:	10bfe004 	addi	r2,r2,-128
 2002480:	10800e60 	cmpeqi	r2,r2,57
 2002484:	1007883a 	mov	r3,r2
 2002488:	e0bffa17 	ldw	r2,-24(fp)
 200248c:	10d85205 	stb	r3,24904(r2)
 2002490:	e0bff917 	ldw	r2,-28(fp)
 2002494:	e037883a 	mov	sp,fp
 2002498:	dfc00117 	ldw	ra,4(sp)
 200249c:	df000017 	ldw	fp,0(sp)
 20024a0:	dec00204 	addi	sp,sp,8
 20024a4:	f800283a 	ret

020024a8 <DGifOpen>:
 20024a8:	defff704 	addi	sp,sp,-36
 20024ac:	dfc00815 	stw	ra,32(sp)
 20024b0:	df000715 	stw	fp,28(sp)
 20024b4:	df000704 	addi	fp,sp,28
 20024b8:	e13ffd15 	stw	r4,-12(fp)
 20024bc:	e17ffe15 	stw	r5,-8(fp)
 20024c0:	e1bfff15 	stw	r6,-4(fp)
 20024c4:	01001304 	movi	r4,76
 20024c8:	2007e9c0 	call	2007e9c <malloc>
 20024cc:	e0bff915 	stw	r2,-28(fp)
 20024d0:	e0bff917 	ldw	r2,-28(fp)
 20024d4:	1000071e 	bne	r2,zero,20024f4 <DGifOpen+0x4c>
 20024d8:	e0bfff17 	ldw	r2,-4(fp)
 20024dc:	10000326 	beq	r2,zero,20024ec <DGifOpen+0x44>
 20024e0:	e0bfff17 	ldw	r2,-4(fp)
 20024e4:	00c01b44 	movi	r3,109
 20024e8:	10c00015 	stw	r3,0(r2)
 20024ec:	0005883a 	mov	r2,zero
 20024f0:	00007706 	br	20026d0 <DGifOpen+0x228>
 20024f4:	e13ff917 	ldw	r4,-28(fp)
 20024f8:	000b883a 	mov	r5,zero
 20024fc:	01801304 	movi	r6,76
 2002500:	20088100 	call	2008810 <memset>
 2002504:	e0bff917 	ldw	r2,-28(fp)
 2002508:	10000d15 	stw	zero,52(r2)
 200250c:	e0bff917 	ldw	r2,-28(fp)
 2002510:	10000515 	stw	zero,20(r2)
 2002514:	01185304 	movi	r4,24908
 2002518:	2007e9c0 	call	2007e9c <malloc>
 200251c:	e0bffa15 	stw	r2,-24(fp)
 2002520:	e0bffa17 	ldw	r2,-24(fp)
 2002524:	1000091e 	bne	r2,zero,200254c <DGifOpen+0xa4>
 2002528:	e0bfff17 	ldw	r2,-4(fp)
 200252c:	10000326 	beq	r2,zero,200253c <DGifOpen+0x94>
 2002530:	e0bfff17 	ldw	r2,-4(fp)
 2002534:	00c01b44 	movi	r3,109
 2002538:	10c00015 	stw	r3,0(r2)
 200253c:	e13ff917 	ldw	r4,-28(fp)
 2002540:	2007eb00 	call	2007eb0 <free>
 2002544:	0005883a 	mov	r2,zero
 2002548:	00006106 	br	20026d0 <DGifOpen+0x228>
 200254c:	e0bff917 	ldw	r2,-28(fp)
 2002550:	e0fffa17 	ldw	r3,-24(fp)
 2002554:	10c01215 	stw	r3,72(r2)
 2002558:	e0bffa17 	ldw	r2,-24(fp)
 200255c:	10000115 	stw	zero,4(r2)
 2002560:	e0bffa17 	ldw	r2,-24(fp)
 2002564:	10000e15 	stw	zero,56(r2)
 2002568:	e0bffa17 	ldw	r2,-24(fp)
 200256c:	00c00204 	movi	r3,8
 2002570:	10c00015 	stw	r3,0(r2)
 2002574:	e0bffa17 	ldw	r2,-24(fp)
 2002578:	e0fffe17 	ldw	r3,-8(fp)
 200257c:	10c00f15 	stw	r3,60(r2)
 2002580:	e0bff917 	ldw	r2,-28(fp)
 2002584:	e0fffd17 	ldw	r3,-12(fp)
 2002588:	10c01115 	stw	r3,68(r2)
 200258c:	e0bff917 	ldw	r2,-28(fp)
 2002590:	10801217 	ldw	r2,72(r2)
 2002594:	10800f17 	ldw	r2,60(r2)
 2002598:	10000a26 	beq	r2,zero,20025c4 <DGifOpen+0x11c>
 200259c:	e0bff917 	ldw	r2,-28(fp)
 20025a0:	10801217 	ldw	r2,72(r2)
 20025a4:	10800f17 	ldw	r2,60(r2)
 20025a8:	e0fffb04 	addi	r3,fp,-20
 20025ac:	e13ff917 	ldw	r4,-28(fp)
 20025b0:	180b883a 	mov	r5,r3
 20025b4:	01800184 	movi	r6,6
 20025b8:	103ee83a 	callr	r2
 20025bc:	10800198 	cmpnei	r2,r2,6
 20025c0:	00000a06 	br	20025ec <DGifOpen+0x144>
 20025c4:	e0bff917 	ldw	r2,-28(fp)
 20025c8:	10801217 	ldw	r2,72(r2)
 20025cc:	10800e17 	ldw	r2,56(r2)
 20025d0:	e0fffb04 	addi	r3,fp,-20
 20025d4:	1809883a 	mov	r4,r3
 20025d8:	01400044 	movi	r5,1
 20025dc:	01800184 	movi	r6,6
 20025e0:	100f883a 	mov	r7,r2
 20025e4:	20078f00 	call	20078f0 <fread>
 20025e8:	10800198 	cmpnei	r2,r2,6
 20025ec:	10803fcc 	andi	r2,r2,255
 20025f0:	10000b26 	beq	r2,zero,2002620 <DGifOpen+0x178>
 20025f4:	e0bfff17 	ldw	r2,-4(fp)
 20025f8:	10000326 	beq	r2,zero,2002608 <DGifOpen+0x160>
 20025fc:	e0bfff17 	ldw	r2,-4(fp)
 2002600:	00c01984 	movi	r3,102
 2002604:	10c00015 	stw	r3,0(r2)
 2002608:	e13ffa17 	ldw	r4,-24(fp)
 200260c:	2007eb00 	call	2007eb0 <free>
 2002610:	e13ff917 	ldw	r4,-28(fp)
 2002614:	2007eb00 	call	2007eb0 <free>
 2002618:	0005883a 	mov	r2,zero
 200261c:	00002c06 	br	20026d0 <DGifOpen+0x228>
 2002620:	e03ffc85 	stb	zero,-14(fp)
 2002624:	e0bffb04 	addi	r2,fp,-20
 2002628:	010080b4 	movhi	r4,514
 200262c:	213b6b04 	addi	r4,r4,-4692
 2002630:	100b883a 	mov	r5,r2
 2002634:	018000c4 	movi	r6,3
 2002638:	20092a00 	call	20092a0 <strncmp>
 200263c:	10000b26 	beq	r2,zero,200266c <DGifOpen+0x1c4>
 2002640:	e0bfff17 	ldw	r2,-4(fp)
 2002644:	10000326 	beq	r2,zero,2002654 <DGifOpen+0x1ac>
 2002648:	e0bfff17 	ldw	r2,-4(fp)
 200264c:	00c019c4 	movi	r3,103
 2002650:	10c00015 	stw	r3,0(r2)
 2002654:	e13ffa17 	ldw	r4,-24(fp)
 2002658:	2007eb00 	call	2007eb0 <free>
 200265c:	e13ff917 	ldw	r4,-28(fp)
 2002660:	2007eb00 	call	2007eb0 <free>
 2002664:	0005883a 	mov	r2,zero
 2002668:	00001906 	br	20026d0 <DGifOpen+0x228>
 200266c:	e13ff917 	ldw	r4,-28(fp)
 2002670:	20026e40 	call	20026e4 <DGifGetScreenDesc>
 2002674:	10000b1e 	bne	r2,zero,20026a4 <DGifOpen+0x1fc>
 2002678:	e13ffa17 	ldw	r4,-24(fp)
 200267c:	2007eb00 	call	2007eb0 <free>
 2002680:	e13ff917 	ldw	r4,-28(fp)
 2002684:	2007eb00 	call	2007eb0 <free>
 2002688:	e0bfff17 	ldw	r2,-4(fp)
 200268c:	10000326 	beq	r2,zero,200269c <DGifOpen+0x1f4>
 2002690:	e0bfff17 	ldw	r2,-4(fp)
 2002694:	00c01a04 	movi	r3,104
 2002698:	10c00015 	stw	r3,0(r2)
 200269c:	0005883a 	mov	r2,zero
 20026a0:	00000b06 	br	20026d0 <DGifOpen+0x228>
 20026a4:	e0bff917 	ldw	r2,-28(fp)
 20026a8:	10001015 	stw	zero,64(r2)
 20026ac:	e0bffbc3 	ldbu	r2,-17(fp)
 20026b0:	10803fcc 	andi	r2,r2,255
 20026b4:	1080201c 	xori	r2,r2,128
 20026b8:	10bfe004 	addi	r2,r2,-128
 20026bc:	10800e60 	cmpeqi	r2,r2,57
 20026c0:	1007883a 	mov	r3,r2
 20026c4:	e0bffa17 	ldw	r2,-24(fp)
 20026c8:	10d85205 	stb	r3,24904(r2)
 20026cc:	e0bff917 	ldw	r2,-28(fp)
 20026d0:	e037883a 	mov	sp,fp
 20026d4:	dfc00117 	ldw	ra,4(sp)
 20026d8:	df000017 	ldw	fp,0(sp)
 20026dc:	dec00204 	addi	sp,sp,8
 20026e0:	f800283a 	ret

020026e4 <DGifGetScreenDesc>:
 20026e4:	defff804 	addi	sp,sp,-32
 20026e8:	dfc00715 	stw	ra,28(sp)
 20026ec:	df000615 	stw	fp,24(sp)
 20026f0:	df000604 	addi	fp,sp,24
 20026f4:	e13fff15 	stw	r4,-4(fp)
 20026f8:	e0bfff17 	ldw	r2,-4(fp)
 20026fc:	10801217 	ldw	r2,72(r2)
 2002700:	e0bffb15 	stw	r2,-20(fp)
 2002704:	e0bffb17 	ldw	r2,-20(fp)
 2002708:	10800017 	ldw	r2,0(r2)
 200270c:	1080020c 	andi	r2,r2,8
 2002710:	1000051e 	bne	r2,zero,2002728 <DGifGetScreenDesc+0x44>
 2002714:	e0bfff17 	ldw	r2,-4(fp)
 2002718:	00c01bc4 	movi	r3,111
 200271c:	10c01015 	stw	r3,64(r2)
 2002720:	0005883a 	mov	r2,zero
 2002724:	0000b606 	br	2002a00 <DGifGetScreenDesc+0x31c>
 2002728:	e0bfff17 	ldw	r2,-4(fp)
 200272c:	e13fff17 	ldw	r4,-4(fp)
 2002730:	100b883a 	mov	r5,r2
 2002734:	20038440 	call	2003844 <DGifGetWord>
 2002738:	10000626 	beq	r2,zero,2002754 <DGifGetScreenDesc+0x70>
 200273c:	e0bfff17 	ldw	r2,-4(fp)
 2002740:	10800104 	addi	r2,r2,4
 2002744:	e13fff17 	ldw	r4,-4(fp)
 2002748:	100b883a 	mov	r5,r2
 200274c:	20038440 	call	2003844 <DGifGetWord>
 2002750:	1000021e 	bne	r2,zero,200275c <DGifGetScreenDesc+0x78>
 2002754:	0005883a 	mov	r2,zero
 2002758:	0000a906 	br	2002a00 <DGifGetScreenDesc+0x31c>
 200275c:	e0bfff17 	ldw	r2,-4(fp)
 2002760:	10801217 	ldw	r2,72(r2)
 2002764:	10800f17 	ldw	r2,60(r2)
 2002768:	10000a26 	beq	r2,zero,2002794 <DGifGetScreenDesc+0xb0>
 200276c:	e0bfff17 	ldw	r2,-4(fp)
 2002770:	10801217 	ldw	r2,72(r2)
 2002774:	10800f17 	ldw	r2,60(r2)
 2002778:	e0fffe04 	addi	r3,fp,-8
 200277c:	e13fff17 	ldw	r4,-4(fp)
 2002780:	180b883a 	mov	r5,r3
 2002784:	018000c4 	movi	r6,3
 2002788:	103ee83a 	callr	r2
 200278c:	108000d8 	cmpnei	r2,r2,3
 2002790:	00000a06 	br	20027bc <DGifGetScreenDesc+0xd8>
 2002794:	e0bfff17 	ldw	r2,-4(fp)
 2002798:	10801217 	ldw	r2,72(r2)
 200279c:	10800e17 	ldw	r2,56(r2)
 20027a0:	e0fffe04 	addi	r3,fp,-8
 20027a4:	1809883a 	mov	r4,r3
 20027a8:	01400044 	movi	r5,1
 20027ac:	018000c4 	movi	r6,3
 20027b0:	100f883a 	mov	r7,r2
 20027b4:	20078f00 	call	20078f0 <fread>
 20027b8:	108000d8 	cmpnei	r2,r2,3
 20027bc:	10803fcc 	andi	r2,r2,255
 20027c0:	10000b26 	beq	r2,zero,20027f0 <DGifGetScreenDesc+0x10c>
 20027c4:	e0bfff17 	ldw	r2,-4(fp)
 20027c8:	00c01984 	movi	r3,102
 20027cc:	10c01015 	stw	r3,64(r2)
 20027d0:	e0bfff17 	ldw	r2,-4(fp)
 20027d4:	10800517 	ldw	r2,20(r2)
 20027d8:	1009883a 	mov	r4,r2
 20027dc:	2004c380 	call	2004c38 <GifFreeMapObject>
 20027e0:	e0bfff17 	ldw	r2,-4(fp)
 20027e4:	10000515 	stw	zero,20(r2)
 20027e8:	0005883a 	mov	r2,zero
 20027ec:	00008406 	br	2002a00 <DGifGetScreenDesc+0x31c>
 20027f0:	e0bffe03 	ldbu	r2,-8(fp)
 20027f4:	10803fcc 	andi	r2,r2,255
 20027f8:	10801c0c 	andi	r2,r2,112
 20027fc:	10800044 	addi	r2,r2,1
 2002800:	1005d13a 	srai	r2,r2,4
 2002804:	10c00044 	addi	r3,r2,1
 2002808:	e0bfff17 	ldw	r2,-4(fp)
 200280c:	10c00215 	stw	r3,8(r2)
 2002810:	e0bffe03 	ldbu	r2,-8(fp)
 2002814:	10803fcc 	andi	r2,r2,255
 2002818:	1080020c 	andi	r2,r2,8
 200281c:	1004c03a 	cmpne	r2,r2,zero
 2002820:	e0bffc05 	stb	r2,-16(fp)
 2002824:	e0bffe03 	ldbu	r2,-8(fp)
 2002828:	10803fcc 	andi	r2,r2,255
 200282c:	108001cc 	andi	r2,r2,7
 2002830:	10800044 	addi	r2,r2,1
 2002834:	e0bffd15 	stw	r2,-12(fp)
 2002838:	e0bffe43 	ldbu	r2,-7(fp)
 200283c:	10c03fcc 	andi	r3,r2,255
 2002840:	e0bfff17 	ldw	r2,-4(fp)
 2002844:	10c00315 	stw	r3,12(r2)
 2002848:	e0fffe83 	ldbu	r3,-6(fp)
 200284c:	e0bfff17 	ldw	r2,-4(fp)
 2002850:	10c00405 	stb	r3,16(r2)
 2002854:	e0bffe03 	ldbu	r2,-8(fp)
 2002858:	10803fcc 	andi	r2,r2,255
 200285c:	1080201c 	xori	r2,r2,128
 2002860:	10bfe004 	addi	r2,r2,-128
 2002864:	1000630e 	bge	r2,zero,20029f4 <DGifGetScreenDesc+0x310>
 2002868:	00c00044 	movi	r3,1
 200286c:	e0bffd17 	ldw	r2,-12(fp)
 2002870:	1884983a 	sll	r2,r3,r2
 2002874:	1009883a 	mov	r4,r2
 2002878:	000b883a 	mov	r5,zero
 200287c:	2004b400 	call	2004b40 <GifMakeMapObject>
 2002880:	1007883a 	mov	r3,r2
 2002884:	e0bfff17 	ldw	r2,-4(fp)
 2002888:	10c00515 	stw	r3,20(r2)
 200288c:	e0bfff17 	ldw	r2,-4(fp)
 2002890:	10800517 	ldw	r2,20(r2)
 2002894:	1000051e 	bne	r2,zero,20028ac <DGifGetScreenDesc+0x1c8>
 2002898:	e0bfff17 	ldw	r2,-4(fp)
 200289c:	00c01b44 	movi	r3,109
 20028a0:	10c01015 	stw	r3,64(r2)
 20028a4:	0005883a 	mov	r2,zero
 20028a8:	00005506 	br	2002a00 <DGifGetScreenDesc+0x31c>
 20028ac:	e0bfff17 	ldw	r2,-4(fp)
 20028b0:	10800517 	ldw	r2,20(r2)
 20028b4:	e0fffc03 	ldbu	r3,-16(fp)
 20028b8:	10c00205 	stb	r3,8(r2)
 20028bc:	e03ffa15 	stw	zero,-24(fp)
 20028c0:	00004606 	br	20029dc <DGifGetScreenDesc+0x2f8>
 20028c4:	e0bfff17 	ldw	r2,-4(fp)
 20028c8:	10801217 	ldw	r2,72(r2)
 20028cc:	10800f17 	ldw	r2,60(r2)
 20028d0:	10000a26 	beq	r2,zero,20028fc <DGifGetScreenDesc+0x218>
 20028d4:	e0bfff17 	ldw	r2,-4(fp)
 20028d8:	10801217 	ldw	r2,72(r2)
 20028dc:	10800f17 	ldw	r2,60(r2)
 20028e0:	e0fffe04 	addi	r3,fp,-8
 20028e4:	e13fff17 	ldw	r4,-4(fp)
 20028e8:	180b883a 	mov	r5,r3
 20028ec:	018000c4 	movi	r6,3
 20028f0:	103ee83a 	callr	r2
 20028f4:	108000d8 	cmpnei	r2,r2,3
 20028f8:	00000a06 	br	2002924 <DGifGetScreenDesc+0x240>
 20028fc:	e0bfff17 	ldw	r2,-4(fp)
 2002900:	10801217 	ldw	r2,72(r2)
 2002904:	10800e17 	ldw	r2,56(r2)
 2002908:	e0fffe04 	addi	r3,fp,-8
 200290c:	1809883a 	mov	r4,r3
 2002910:	01400044 	movi	r5,1
 2002914:	018000c4 	movi	r6,3
 2002918:	100f883a 	mov	r7,r2
 200291c:	20078f00 	call	20078f0 <fread>
 2002920:	108000d8 	cmpnei	r2,r2,3
 2002924:	10803fcc 	andi	r2,r2,255
 2002928:	10000b26 	beq	r2,zero,2002958 <DGifGetScreenDesc+0x274>
 200292c:	e0bfff17 	ldw	r2,-4(fp)
 2002930:	10800517 	ldw	r2,20(r2)
 2002934:	1009883a 	mov	r4,r2
 2002938:	2004c380 	call	2004c38 <GifFreeMapObject>
 200293c:	e0bfff17 	ldw	r2,-4(fp)
 2002940:	10000515 	stw	zero,20(r2)
 2002944:	e0bfff17 	ldw	r2,-4(fp)
 2002948:	00c01984 	movi	r3,102
 200294c:	10c01015 	stw	r3,64(r2)
 2002950:	0005883a 	mov	r2,zero
 2002954:	00002a06 	br	2002a00 <DGifGetScreenDesc+0x31c>
 2002958:	e0bfff17 	ldw	r2,-4(fp)
 200295c:	10800517 	ldw	r2,20(r2)
 2002960:	11000317 	ldw	r4,12(r2)
 2002964:	e0fffa17 	ldw	r3,-24(fp)
 2002968:	1805883a 	mov	r2,r3
 200296c:	1085883a 	add	r2,r2,r2
 2002970:	10c5883a 	add	r2,r2,r3
 2002974:	2085883a 	add	r2,r4,r2
 2002978:	e0fffe03 	ldbu	r3,-8(fp)
 200297c:	10c00005 	stb	r3,0(r2)
 2002980:	e0bfff17 	ldw	r2,-4(fp)
 2002984:	10800517 	ldw	r2,20(r2)
 2002988:	11000317 	ldw	r4,12(r2)
 200298c:	e0fffa17 	ldw	r3,-24(fp)
 2002990:	1805883a 	mov	r2,r3
 2002994:	1085883a 	add	r2,r2,r2
 2002998:	10c5883a 	add	r2,r2,r3
 200299c:	2085883a 	add	r2,r4,r2
 20029a0:	e0fffe43 	ldbu	r3,-7(fp)
 20029a4:	10c00045 	stb	r3,1(r2)
 20029a8:	e0bfff17 	ldw	r2,-4(fp)
 20029ac:	10800517 	ldw	r2,20(r2)
 20029b0:	11000317 	ldw	r4,12(r2)
 20029b4:	e0fffa17 	ldw	r3,-24(fp)
 20029b8:	1805883a 	mov	r2,r3
 20029bc:	1085883a 	add	r2,r2,r2
 20029c0:	10c5883a 	add	r2,r2,r3
 20029c4:	2085883a 	add	r2,r4,r2
 20029c8:	e0fffe83 	ldbu	r3,-6(fp)
 20029cc:	10c00085 	stb	r3,2(r2)
 20029d0:	e0bffa17 	ldw	r2,-24(fp)
 20029d4:	10800044 	addi	r2,r2,1
 20029d8:	e0bffa15 	stw	r2,-24(fp)
 20029dc:	e0bfff17 	ldw	r2,-4(fp)
 20029e0:	10800517 	ldw	r2,20(r2)
 20029e4:	10800017 	ldw	r2,0(r2)
 20029e8:	e0fffa17 	ldw	r3,-24(fp)
 20029ec:	18bfb516 	blt	r3,r2,20028c4 <__reset+0xfdff98c4>
 20029f0:	00000206 	br	20029fc <DGifGetScreenDesc+0x318>
 20029f4:	e0bfff17 	ldw	r2,-4(fp)
 20029f8:	10000515 	stw	zero,20(r2)
 20029fc:	00800044 	movi	r2,1
 2002a00:	e037883a 	mov	sp,fp
 2002a04:	dfc00117 	ldw	ra,4(sp)
 2002a08:	df000017 	ldw	fp,0(sp)
 2002a0c:	dec00204 	addi	sp,sp,8
 2002a10:	f800283a 	ret

02002a14 <DGifGetRecordType>:
 2002a14:	defffa04 	addi	sp,sp,-24
 2002a18:	dfc00515 	stw	ra,20(sp)
 2002a1c:	df000415 	stw	fp,16(sp)
 2002a20:	df000404 	addi	fp,sp,16
 2002a24:	e13ffe15 	stw	r4,-8(fp)
 2002a28:	e17fff15 	stw	r5,-4(fp)
 2002a2c:	e0bffe17 	ldw	r2,-8(fp)
 2002a30:	10801217 	ldw	r2,72(r2)
 2002a34:	e0bffc15 	stw	r2,-16(fp)
 2002a38:	e0bffc17 	ldw	r2,-16(fp)
 2002a3c:	10800017 	ldw	r2,0(r2)
 2002a40:	1080020c 	andi	r2,r2,8
 2002a44:	1000051e 	bne	r2,zero,2002a5c <DGifGetRecordType+0x48>
 2002a48:	e0bffe17 	ldw	r2,-8(fp)
 2002a4c:	00c01bc4 	movi	r3,111
 2002a50:	10c01015 	stw	r3,64(r2)
 2002a54:	0005883a 	mov	r2,zero
 2002a58:	00003c06 	br	2002b4c <DGifGetRecordType+0x138>
 2002a5c:	e0bffe17 	ldw	r2,-8(fp)
 2002a60:	10801217 	ldw	r2,72(r2)
 2002a64:	10800f17 	ldw	r2,60(r2)
 2002a68:	10000a26 	beq	r2,zero,2002a94 <DGifGetRecordType+0x80>
 2002a6c:	e0bffe17 	ldw	r2,-8(fp)
 2002a70:	10801217 	ldw	r2,72(r2)
 2002a74:	10800f17 	ldw	r2,60(r2)
 2002a78:	e0fffd04 	addi	r3,fp,-12
 2002a7c:	e13ffe17 	ldw	r4,-8(fp)
 2002a80:	180b883a 	mov	r5,r3
 2002a84:	01800044 	movi	r6,1
 2002a88:	103ee83a 	callr	r2
 2002a8c:	10800058 	cmpnei	r2,r2,1
 2002a90:	00000a06 	br	2002abc <DGifGetRecordType+0xa8>
 2002a94:	e0bffe17 	ldw	r2,-8(fp)
 2002a98:	10801217 	ldw	r2,72(r2)
 2002a9c:	10800e17 	ldw	r2,56(r2)
 2002aa0:	e0fffd04 	addi	r3,fp,-12
 2002aa4:	1809883a 	mov	r4,r3
 2002aa8:	01400044 	movi	r5,1
 2002aac:	01800044 	movi	r6,1
 2002ab0:	100f883a 	mov	r7,r2
 2002ab4:	20078f00 	call	20078f0 <fread>
 2002ab8:	10800058 	cmpnei	r2,r2,1
 2002abc:	10803fcc 	andi	r2,r2,255
 2002ac0:	10000526 	beq	r2,zero,2002ad8 <DGifGetRecordType+0xc4>
 2002ac4:	e0bffe17 	ldw	r2,-8(fp)
 2002ac8:	00c01984 	movi	r3,102
 2002acc:	10c01015 	stw	r3,64(r2)
 2002ad0:	0005883a 	mov	r2,zero
 2002ad4:	00001d06 	br	2002b4c <DGifGetRecordType+0x138>
 2002ad8:	e0bffd03 	ldbu	r2,-12(fp)
 2002adc:	10803fcc 	andi	r2,r2,255
 2002ae0:	10c00b20 	cmpeqi	r3,r2,44
 2002ae4:	1800051e 	bne	r3,zero,2002afc <DGifGetRecordType+0xe8>
 2002ae8:	10c00ee0 	cmpeqi	r3,r2,59
 2002aec:	18000b1e 	bne	r3,zero,2002b1c <DGifGetRecordType+0x108>
 2002af0:	10800860 	cmpeqi	r2,r2,33
 2002af4:	1000051e 	bne	r2,zero,2002b0c <DGifGetRecordType+0xf8>
 2002af8:	00000c06 	br	2002b2c <DGifGetRecordType+0x118>
 2002afc:	e0bfff17 	ldw	r2,-4(fp)
 2002b00:	00c00084 	movi	r3,2
 2002b04:	10c00015 	stw	r3,0(r2)
 2002b08:	00000f06 	br	2002b48 <DGifGetRecordType+0x134>
 2002b0c:	e0bfff17 	ldw	r2,-4(fp)
 2002b10:	00c000c4 	movi	r3,3
 2002b14:	10c00015 	stw	r3,0(r2)
 2002b18:	00000b06 	br	2002b48 <DGifGetRecordType+0x134>
 2002b1c:	e0bfff17 	ldw	r2,-4(fp)
 2002b20:	00c00104 	movi	r3,4
 2002b24:	10c00015 	stw	r3,0(r2)
 2002b28:	00000706 	br	2002b48 <DGifGetRecordType+0x134>
 2002b2c:	e0bfff17 	ldw	r2,-4(fp)
 2002b30:	10000015 	stw	zero,0(r2)
 2002b34:	e0bffe17 	ldw	r2,-8(fp)
 2002b38:	00c01ac4 	movi	r3,107
 2002b3c:	10c01015 	stw	r3,64(r2)
 2002b40:	0005883a 	mov	r2,zero
 2002b44:	00000106 	br	2002b4c <DGifGetRecordType+0x138>
 2002b48:	00800044 	movi	r2,1
 2002b4c:	e037883a 	mov	sp,fp
 2002b50:	dfc00117 	ldw	ra,4(sp)
 2002b54:	df000017 	ldw	fp,0(sp)
 2002b58:	dec00204 	addi	sp,sp,8
 2002b5c:	f800283a 	ret

02002b60 <DGifGetImageDesc>:
 2002b60:	defff604 	addi	sp,sp,-40
 2002b64:	dfc00915 	stw	ra,36(sp)
 2002b68:	df000815 	stw	fp,32(sp)
 2002b6c:	dc000715 	stw	r16,28(sp)
 2002b70:	df000804 	addi	fp,sp,32
 2002b74:	e13ffe15 	stw	r4,-8(fp)
 2002b78:	e0bffe17 	ldw	r2,-8(fp)
 2002b7c:	10801217 	ldw	r2,72(r2)
 2002b80:	e0bff915 	stw	r2,-28(fp)
 2002b84:	e0bff917 	ldw	r2,-28(fp)
 2002b88:	10800017 	ldw	r2,0(r2)
 2002b8c:	1080020c 	andi	r2,r2,8
 2002b90:	1000051e 	bne	r2,zero,2002ba8 <DGifGetImageDesc+0x48>
 2002b94:	e0bffe17 	ldw	r2,-8(fp)
 2002b98:	00c01bc4 	movi	r3,111
 2002b9c:	10c01015 	stw	r3,64(r2)
 2002ba0:	0005883a 	mov	r2,zero
 2002ba4:	00011a06 	br	2003010 <DGifGetImageDesc+0x4b0>
 2002ba8:	e0bffe17 	ldw	r2,-8(fp)
 2002bac:	10800704 	addi	r2,r2,28
 2002bb0:	e13ffe17 	ldw	r4,-8(fp)
 2002bb4:	100b883a 	mov	r5,r2
 2002bb8:	20038440 	call	2003844 <DGifGetWord>
 2002bbc:	10001226 	beq	r2,zero,2002c08 <DGifGetImageDesc+0xa8>
 2002bc0:	e0bffe17 	ldw	r2,-8(fp)
 2002bc4:	10800804 	addi	r2,r2,32
 2002bc8:	e13ffe17 	ldw	r4,-8(fp)
 2002bcc:	100b883a 	mov	r5,r2
 2002bd0:	20038440 	call	2003844 <DGifGetWord>
 2002bd4:	10000c26 	beq	r2,zero,2002c08 <DGifGetImageDesc+0xa8>
 2002bd8:	e0bffe17 	ldw	r2,-8(fp)
 2002bdc:	10800904 	addi	r2,r2,36
 2002be0:	e13ffe17 	ldw	r4,-8(fp)
 2002be4:	100b883a 	mov	r5,r2
 2002be8:	20038440 	call	2003844 <DGifGetWord>
 2002bec:	10000626 	beq	r2,zero,2002c08 <DGifGetImageDesc+0xa8>
 2002bf0:	e0bffe17 	ldw	r2,-8(fp)
 2002bf4:	10800a04 	addi	r2,r2,40
 2002bf8:	e13ffe17 	ldw	r4,-8(fp)
 2002bfc:	100b883a 	mov	r5,r2
 2002c00:	20038440 	call	2003844 <DGifGetWord>
 2002c04:	1000021e 	bne	r2,zero,2002c10 <DGifGetImageDesc+0xb0>
 2002c08:	0005883a 	mov	r2,zero
 2002c0c:	00010006 	br	2003010 <DGifGetImageDesc+0x4b0>
 2002c10:	e0bffe17 	ldw	r2,-8(fp)
 2002c14:	10801217 	ldw	r2,72(r2)
 2002c18:	10800f17 	ldw	r2,60(r2)
 2002c1c:	10000a26 	beq	r2,zero,2002c48 <DGifGetImageDesc+0xe8>
 2002c20:	e0bffe17 	ldw	r2,-8(fp)
 2002c24:	10801217 	ldw	r2,72(r2)
 2002c28:	10800f17 	ldw	r2,60(r2)
 2002c2c:	e0fffd04 	addi	r3,fp,-12
 2002c30:	e13ffe17 	ldw	r4,-8(fp)
 2002c34:	180b883a 	mov	r5,r3
 2002c38:	01800044 	movi	r6,1
 2002c3c:	103ee83a 	callr	r2
 2002c40:	10800058 	cmpnei	r2,r2,1
 2002c44:	00000a06 	br	2002c70 <DGifGetImageDesc+0x110>
 2002c48:	e0bffe17 	ldw	r2,-8(fp)
 2002c4c:	10801217 	ldw	r2,72(r2)
 2002c50:	10800e17 	ldw	r2,56(r2)
 2002c54:	e0fffd04 	addi	r3,fp,-12
 2002c58:	1809883a 	mov	r4,r3
 2002c5c:	01400044 	movi	r5,1
 2002c60:	01800044 	movi	r6,1
 2002c64:	100f883a 	mov	r7,r2
 2002c68:	20078f00 	call	20078f0 <fread>
 2002c6c:	10800058 	cmpnei	r2,r2,1
 2002c70:	10803fcc 	andi	r2,r2,255
 2002c74:	10000b26 	beq	r2,zero,2002ca4 <DGifGetImageDesc+0x144>
 2002c78:	e0bffe17 	ldw	r2,-8(fp)
 2002c7c:	00c01984 	movi	r3,102
 2002c80:	10c01015 	stw	r3,64(r2)
 2002c84:	e0bffe17 	ldw	r2,-8(fp)
 2002c88:	10800c17 	ldw	r2,48(r2)
 2002c8c:	1009883a 	mov	r4,r2
 2002c90:	2004c380 	call	2004c38 <GifFreeMapObject>
 2002c94:	e0bffe17 	ldw	r2,-8(fp)
 2002c98:	10000c15 	stw	zero,48(r2)
 2002c9c:	0005883a 	mov	r2,zero
 2002ca0:	0000db06 	br	2003010 <DGifGetImageDesc+0x4b0>
 2002ca4:	e0bffd03 	ldbu	r2,-12(fp)
 2002ca8:	10803fcc 	andi	r2,r2,255
 2002cac:	108001cc 	andi	r2,r2,7
 2002cb0:	10800044 	addi	r2,r2,1
 2002cb4:	e0bffa15 	stw	r2,-24(fp)
 2002cb8:	e0bffd03 	ldbu	r2,-12(fp)
 2002cbc:	10803fcc 	andi	r2,r2,255
 2002cc0:	1080100c 	andi	r2,r2,64
 2002cc4:	1004c03a 	cmpne	r2,r2,zero
 2002cc8:	1007883a 	mov	r3,r2
 2002ccc:	e0bffe17 	ldw	r2,-8(fp)
 2002cd0:	10c00b05 	stb	r3,44(r2)
 2002cd4:	e0bffe17 	ldw	r2,-8(fp)
 2002cd8:	10800c17 	ldw	r2,48(r2)
 2002cdc:	10000626 	beq	r2,zero,2002cf8 <DGifGetImageDesc+0x198>
 2002ce0:	e0bffe17 	ldw	r2,-8(fp)
 2002ce4:	10800c17 	ldw	r2,48(r2)
 2002ce8:	1009883a 	mov	r4,r2
 2002cec:	2004c380 	call	2004c38 <GifFreeMapObject>
 2002cf0:	e0bffe17 	ldw	r2,-8(fp)
 2002cf4:	10000c15 	stw	zero,48(r2)
 2002cf8:	e0bffd03 	ldbu	r2,-12(fp)
 2002cfc:	10803fcc 	andi	r2,r2,255
 2002d00:	1080201c 	xori	r2,r2,128
 2002d04:	10bfe004 	addi	r2,r2,-128
 2002d08:	10005e0e 	bge	r2,zero,2002e84 <DGifGetImageDesc+0x324>
 2002d0c:	e0bffa17 	ldw	r2,-24(fp)
 2002d10:	00c00044 	movi	r3,1
 2002d14:	1884983a 	sll	r2,r3,r2
 2002d18:	1009883a 	mov	r4,r2
 2002d1c:	000b883a 	mov	r5,zero
 2002d20:	2004b400 	call	2004b40 <GifMakeMapObject>
 2002d24:	1007883a 	mov	r3,r2
 2002d28:	e0bffe17 	ldw	r2,-8(fp)
 2002d2c:	10c00c15 	stw	r3,48(r2)
 2002d30:	e0bffe17 	ldw	r2,-8(fp)
 2002d34:	10800c17 	ldw	r2,48(r2)
 2002d38:	1000051e 	bne	r2,zero,2002d50 <DGifGetImageDesc+0x1f0>
 2002d3c:	e0bffe17 	ldw	r2,-8(fp)
 2002d40:	00c01b44 	movi	r3,109
 2002d44:	10c01015 	stw	r3,64(r2)
 2002d48:	0005883a 	mov	r2,zero
 2002d4c:	0000b006 	br	2003010 <DGifGetImageDesc+0x4b0>
 2002d50:	e03ff815 	stw	zero,-32(fp)
 2002d54:	00004606 	br	2002e70 <DGifGetImageDesc+0x310>
 2002d58:	e0bffe17 	ldw	r2,-8(fp)
 2002d5c:	10801217 	ldw	r2,72(r2)
 2002d60:	10800f17 	ldw	r2,60(r2)
 2002d64:	10000a26 	beq	r2,zero,2002d90 <DGifGetImageDesc+0x230>
 2002d68:	e0bffe17 	ldw	r2,-8(fp)
 2002d6c:	10801217 	ldw	r2,72(r2)
 2002d70:	10800f17 	ldw	r2,60(r2)
 2002d74:	e0fffd04 	addi	r3,fp,-12
 2002d78:	e13ffe17 	ldw	r4,-8(fp)
 2002d7c:	180b883a 	mov	r5,r3
 2002d80:	018000c4 	movi	r6,3
 2002d84:	103ee83a 	callr	r2
 2002d88:	108000d8 	cmpnei	r2,r2,3
 2002d8c:	00000a06 	br	2002db8 <DGifGetImageDesc+0x258>
 2002d90:	e0bffe17 	ldw	r2,-8(fp)
 2002d94:	10801217 	ldw	r2,72(r2)
 2002d98:	10800e17 	ldw	r2,56(r2)
 2002d9c:	e0fffd04 	addi	r3,fp,-12
 2002da0:	1809883a 	mov	r4,r3
 2002da4:	01400044 	movi	r5,1
 2002da8:	018000c4 	movi	r6,3
 2002dac:	100f883a 	mov	r7,r2
 2002db0:	20078f00 	call	20078f0 <fread>
 2002db4:	108000d8 	cmpnei	r2,r2,3
 2002db8:	10803fcc 	andi	r2,r2,255
 2002dbc:	10000b26 	beq	r2,zero,2002dec <DGifGetImageDesc+0x28c>
 2002dc0:	e0bffe17 	ldw	r2,-8(fp)
 2002dc4:	10800c17 	ldw	r2,48(r2)
 2002dc8:	1009883a 	mov	r4,r2
 2002dcc:	2004c380 	call	2004c38 <GifFreeMapObject>
 2002dd0:	e0bffe17 	ldw	r2,-8(fp)
 2002dd4:	00c01984 	movi	r3,102
 2002dd8:	10c01015 	stw	r3,64(r2)
 2002ddc:	e0bffe17 	ldw	r2,-8(fp)
 2002de0:	10000c15 	stw	zero,48(r2)
 2002de4:	0005883a 	mov	r2,zero
 2002de8:	00008906 	br	2003010 <DGifGetImageDesc+0x4b0>
 2002dec:	e0bffe17 	ldw	r2,-8(fp)
 2002df0:	10800c17 	ldw	r2,48(r2)
 2002df4:	11000317 	ldw	r4,12(r2)
 2002df8:	e0fff817 	ldw	r3,-32(fp)
 2002dfc:	1805883a 	mov	r2,r3
 2002e00:	1085883a 	add	r2,r2,r2
 2002e04:	10c5883a 	add	r2,r2,r3
 2002e08:	2085883a 	add	r2,r4,r2
 2002e0c:	e0fffd03 	ldbu	r3,-12(fp)
 2002e10:	10c00005 	stb	r3,0(r2)
 2002e14:	e0bffe17 	ldw	r2,-8(fp)
 2002e18:	10800c17 	ldw	r2,48(r2)
 2002e1c:	11000317 	ldw	r4,12(r2)
 2002e20:	e0fff817 	ldw	r3,-32(fp)
 2002e24:	1805883a 	mov	r2,r3
 2002e28:	1085883a 	add	r2,r2,r2
 2002e2c:	10c5883a 	add	r2,r2,r3
 2002e30:	2085883a 	add	r2,r4,r2
 2002e34:	e0fffd43 	ldbu	r3,-11(fp)
 2002e38:	10c00045 	stb	r3,1(r2)
 2002e3c:	e0bffe17 	ldw	r2,-8(fp)
 2002e40:	10800c17 	ldw	r2,48(r2)
 2002e44:	11000317 	ldw	r4,12(r2)
 2002e48:	e0fff817 	ldw	r3,-32(fp)
 2002e4c:	1805883a 	mov	r2,r3
 2002e50:	1085883a 	add	r2,r2,r2
 2002e54:	10c5883a 	add	r2,r2,r3
 2002e58:	2085883a 	add	r2,r4,r2
 2002e5c:	e0fffd83 	ldbu	r3,-10(fp)
 2002e60:	10c00085 	stb	r3,2(r2)
 2002e64:	e0bff817 	ldw	r2,-32(fp)
 2002e68:	10800044 	addi	r2,r2,1
 2002e6c:	e0bff815 	stw	r2,-32(fp)
 2002e70:	e0bffe17 	ldw	r2,-8(fp)
 2002e74:	10800c17 	ldw	r2,48(r2)
 2002e78:	10800017 	ldw	r2,0(r2)
 2002e7c:	e0fff817 	ldw	r3,-32(fp)
 2002e80:	18bfb536 	bltu	r3,r2,2002d58 <__reset+0xfdff9d58>
 2002e84:	e0bffe17 	ldw	r2,-8(fp)
 2002e88:	10800d17 	ldw	r2,52(r2)
 2002e8c:	10001526 	beq	r2,zero,2002ee4 <DGifGetImageDesc+0x384>
 2002e90:	e0bffe17 	ldw	r2,-8(fp)
 2002e94:	10c00d17 	ldw	r3,52(r2)
 2002e98:	e0bffe17 	ldw	r2,-8(fp)
 2002e9c:	10800617 	ldw	r2,24(r2)
 2002ea0:	10800044 	addi	r2,r2,1
 2002ea4:	1809883a 	mov	r4,r3
 2002ea8:	100b883a 	mov	r5,r2
 2002eac:	01800904 	movi	r6,36
 2002eb0:	20057780 	call	2005778 <reallocarray>
 2002eb4:	e0bffb15 	stw	r2,-20(fp)
 2002eb8:	e0bffb17 	ldw	r2,-20(fp)
 2002ebc:	1000051e 	bne	r2,zero,2002ed4 <DGifGetImageDesc+0x374>
 2002ec0:	e0bffe17 	ldw	r2,-8(fp)
 2002ec4:	00c01b44 	movi	r3,109
 2002ec8:	10c01015 	stw	r3,64(r2)
 2002ecc:	0005883a 	mov	r2,zero
 2002ed0:	00004f06 	br	2003010 <DGifGetImageDesc+0x4b0>
 2002ed4:	e0bffe17 	ldw	r2,-8(fp)
 2002ed8:	e0fffb17 	ldw	r3,-20(fp)
 2002edc:	10c00d15 	stw	r3,52(r2)
 2002ee0:	00000d06 	br	2002f18 <DGifGetImageDesc+0x3b8>
 2002ee4:	01000904 	movi	r4,36
 2002ee8:	2007e9c0 	call	2007e9c <malloc>
 2002eec:	1007883a 	mov	r3,r2
 2002ef0:	e0bffe17 	ldw	r2,-8(fp)
 2002ef4:	10c00d15 	stw	r3,52(r2)
 2002ef8:	e0bffe17 	ldw	r2,-8(fp)
 2002efc:	10800d17 	ldw	r2,52(r2)
 2002f00:	1000051e 	bne	r2,zero,2002f18 <DGifGetImageDesc+0x3b8>
 2002f04:	e0bffe17 	ldw	r2,-8(fp)
 2002f08:	00c01b44 	movi	r3,109
 2002f0c:	10c01015 	stw	r3,64(r2)
 2002f10:	0005883a 	mov	r2,zero
 2002f14:	00003e06 	br	2003010 <DGifGetImageDesc+0x4b0>
 2002f18:	e0bffe17 	ldw	r2,-8(fp)
 2002f1c:	14000d17 	ldw	r16,52(r2)
 2002f20:	e0bffe17 	ldw	r2,-8(fp)
 2002f24:	10800617 	ldw	r2,24(r2)
 2002f28:	1009883a 	mov	r4,r2
 2002f2c:	01400904 	movi	r5,36
 2002f30:	20059200 	call	2005920 <__mulsi3>
 2002f34:	8085883a 	add	r2,r16,r2
 2002f38:	e0bffc15 	stw	r2,-16(fp)
 2002f3c:	e0fffc17 	ldw	r3,-16(fp)
 2002f40:	e0bffe17 	ldw	r2,-8(fp)
 2002f44:	10800704 	addi	r2,r2,28
 2002f48:	1809883a 	mov	r4,r3
 2002f4c:	100b883a 	mov	r5,r2
 2002f50:	01800604 	movi	r6,24
 2002f54:	20087040 	call	2008704 <memcpy>
 2002f58:	e0bffe17 	ldw	r2,-8(fp)
 2002f5c:	10800c17 	ldw	r2,48(r2)
 2002f60:	10001426 	beq	r2,zero,2002fb4 <DGifGetImageDesc+0x454>
 2002f64:	e0bffe17 	ldw	r2,-8(fp)
 2002f68:	10800c17 	ldw	r2,48(r2)
 2002f6c:	10c00017 	ldw	r3,0(r2)
 2002f70:	e0bffe17 	ldw	r2,-8(fp)
 2002f74:	10800c17 	ldw	r2,48(r2)
 2002f78:	10800317 	ldw	r2,12(r2)
 2002f7c:	1809883a 	mov	r4,r3
 2002f80:	100b883a 	mov	r5,r2
 2002f84:	2004b400 	call	2004b40 <GifMakeMapObject>
 2002f88:	1007883a 	mov	r3,r2
 2002f8c:	e0bffc17 	ldw	r2,-16(fp)
 2002f90:	10c00515 	stw	r3,20(r2)
 2002f94:	e0bffc17 	ldw	r2,-16(fp)
 2002f98:	10800517 	ldw	r2,20(r2)
 2002f9c:	1000051e 	bne	r2,zero,2002fb4 <DGifGetImageDesc+0x454>
 2002fa0:	e0bffe17 	ldw	r2,-8(fp)
 2002fa4:	00c01b44 	movi	r3,109
 2002fa8:	10c01015 	stw	r3,64(r2)
 2002fac:	0005883a 	mov	r2,zero
 2002fb0:	00001706 	br	2003010 <DGifGetImageDesc+0x4b0>
 2002fb4:	e0bffc17 	ldw	r2,-16(fp)
 2002fb8:	10000615 	stw	zero,24(r2)
 2002fbc:	e0bffc17 	ldw	r2,-16(fp)
 2002fc0:	10000715 	stw	zero,28(r2)
 2002fc4:	e0bffc17 	ldw	r2,-16(fp)
 2002fc8:	10000815 	stw	zero,32(r2)
 2002fcc:	e0bffe17 	ldw	r2,-8(fp)
 2002fd0:	10800617 	ldw	r2,24(r2)
 2002fd4:	10c00044 	addi	r3,r2,1
 2002fd8:	e0bffe17 	ldw	r2,-8(fp)
 2002fdc:	10c00615 	stw	r3,24(r2)
 2002fe0:	e0bffe17 	ldw	r2,-8(fp)
 2002fe4:	10c00917 	ldw	r3,36(r2)
 2002fe8:	e0bffe17 	ldw	r2,-8(fp)
 2002fec:	10800a17 	ldw	r2,40(r2)
 2002ff0:	1809883a 	mov	r4,r3
 2002ff4:	100b883a 	mov	r5,r2
 2002ff8:	20059200 	call	2005920 <__mulsi3>
 2002ffc:	1007883a 	mov	r3,r2
 2003000:	e0bff917 	ldw	r2,-28(fp)
 2003004:	10c00d15 	stw	r3,52(r2)
 2003008:	e13ffe17 	ldw	r4,-8(fp)
 200300c:	2003b100 	call	2003b10 <DGifSetupDecompress>
 2003010:	e6ffff04 	addi	sp,fp,-4
 2003014:	dfc00217 	ldw	ra,8(sp)
 2003018:	df000117 	ldw	fp,4(sp)
 200301c:	dc000017 	ldw	r16,0(sp)
 2003020:	dec00304 	addi	sp,sp,12
 2003024:	f800283a 	ret

02003028 <DGifGetLine>:
 2003028:	defff904 	addi	sp,sp,-28
 200302c:	dfc00615 	stw	ra,24(sp)
 2003030:	df000515 	stw	fp,20(sp)
 2003034:	df000504 	addi	fp,sp,20
 2003038:	e13ffd15 	stw	r4,-12(fp)
 200303c:	e17ffe15 	stw	r5,-8(fp)
 2003040:	e1bfff15 	stw	r6,-4(fp)
 2003044:	e0bffd17 	ldw	r2,-12(fp)
 2003048:	10801217 	ldw	r2,72(r2)
 200304c:	e0bffb15 	stw	r2,-20(fp)
 2003050:	e0bffb17 	ldw	r2,-20(fp)
 2003054:	10800017 	ldw	r2,0(r2)
 2003058:	1080020c 	andi	r2,r2,8
 200305c:	1000051e 	bne	r2,zero,2003074 <DGifGetLine+0x4c>
 2003060:	e0bffd17 	ldw	r2,-12(fp)
 2003064:	00c01bc4 	movi	r3,111
 2003068:	10c01015 	stw	r3,64(r2)
 200306c:	0005883a 	mov	r2,zero
 2003070:	00002906 	br	2003118 <DGifGetLine+0xf0>
 2003074:	e0bfff17 	ldw	r2,-4(fp)
 2003078:	1000031e 	bne	r2,zero,2003088 <DGifGetLine+0x60>
 200307c:	e0bffd17 	ldw	r2,-12(fp)
 2003080:	10800917 	ldw	r2,36(r2)
 2003084:	e0bfff15 	stw	r2,-4(fp)
 2003088:	e0bffb17 	ldw	r2,-20(fp)
 200308c:	10c00d17 	ldw	r3,52(r2)
 2003090:	e0bfff17 	ldw	r2,-4(fp)
 2003094:	1887c83a 	sub	r3,r3,r2
 2003098:	e0bffb17 	ldw	r2,-20(fp)
 200309c:	10c00d15 	stw	r3,52(r2)
 20030a0:	e0bffb17 	ldw	r2,-20(fp)
 20030a4:	10800d17 	ldw	r2,52(r2)
 20030a8:	00fffff4 	movhi	r3,65535
 20030ac:	1880052e 	bgeu	r3,r2,20030c4 <DGifGetLine+0x9c>
 20030b0:	e0bffd17 	ldw	r2,-12(fp)
 20030b4:	00c01b04 	movi	r3,108
 20030b8:	10c01015 	stw	r3,64(r2)
 20030bc:	0005883a 	mov	r2,zero
 20030c0:	00001506 	br	2003118 <DGifGetLine+0xf0>
 20030c4:	e13ffd17 	ldw	r4,-12(fp)
 20030c8:	e17ffe17 	ldw	r5,-8(fp)
 20030cc:	e1bfff17 	ldw	r6,-4(fp)
 20030d0:	2003cd80 	call	2003cd8 <DGifDecompressLine>
 20030d4:	10800058 	cmpnei	r2,r2,1
 20030d8:	10000e1e 	bne	r2,zero,2003114 <DGifGetLine+0xec>
 20030dc:	e0bffb17 	ldw	r2,-20(fp)
 20030e0:	10800d17 	ldw	r2,52(r2)
 20030e4:	1000091e 	bne	r2,zero,200310c <DGifGetLine+0xe4>
 20030e8:	e0bffc04 	addi	r2,fp,-16
 20030ec:	e13ffd17 	ldw	r4,-12(fp)
 20030f0:	100b883a 	mov	r5,r2
 20030f4:	20039840 	call	2003984 <DGifGetCodeNext>
 20030f8:	1000021e 	bne	r2,zero,2003104 <DGifGetLine+0xdc>
 20030fc:	0005883a 	mov	r2,zero
 2003100:	00000506 	br	2003118 <DGifGetLine+0xf0>
 2003104:	e0bffc17 	ldw	r2,-16(fp)
 2003108:	103ff71e 	bne	r2,zero,20030e8 <__reset+0xfdffa0e8>
 200310c:	00800044 	movi	r2,1
 2003110:	00000106 	br	2003118 <DGifGetLine+0xf0>
 2003114:	0005883a 	mov	r2,zero
 2003118:	e037883a 	mov	sp,fp
 200311c:	dfc00117 	ldw	ra,4(sp)
 2003120:	df000017 	ldw	fp,0(sp)
 2003124:	dec00204 	addi	sp,sp,8
 2003128:	f800283a 	ret

0200312c <DGifGetPixel>:
 200312c:	defffa04 	addi	sp,sp,-24
 2003130:	dfc00515 	stw	ra,20(sp)
 2003134:	df000415 	stw	fp,16(sp)
 2003138:	df000404 	addi	fp,sp,16
 200313c:	e13ffe15 	stw	r4,-8(fp)
 2003140:	2805883a 	mov	r2,r5
 2003144:	e0bfff05 	stb	r2,-4(fp)
 2003148:	e0bffe17 	ldw	r2,-8(fp)
 200314c:	10801217 	ldw	r2,72(r2)
 2003150:	e0bffc15 	stw	r2,-16(fp)
 2003154:	e0bffc17 	ldw	r2,-16(fp)
 2003158:	10800017 	ldw	r2,0(r2)
 200315c:	1080020c 	andi	r2,r2,8
 2003160:	1000051e 	bne	r2,zero,2003178 <DGifGetPixel+0x4c>
 2003164:	e0bffe17 	ldw	r2,-8(fp)
 2003168:	00c01bc4 	movi	r3,111
 200316c:	10c01015 	stw	r3,64(r2)
 2003170:	0005883a 	mov	r2,zero
 2003174:	00002406 	br	2003208 <DGifGetPixel+0xdc>
 2003178:	e0bffc17 	ldw	r2,-16(fp)
 200317c:	10800d17 	ldw	r2,52(r2)
 2003180:	10ffffc4 	addi	r3,r2,-1
 2003184:	e0bffc17 	ldw	r2,-16(fp)
 2003188:	10c00d15 	stw	r3,52(r2)
 200318c:	e0bffc17 	ldw	r2,-16(fp)
 2003190:	10800d17 	ldw	r2,52(r2)
 2003194:	00fffff4 	movhi	r3,65535
 2003198:	1880052e 	bgeu	r3,r2,20031b0 <DGifGetPixel+0x84>
 200319c:	e0bffe17 	ldw	r2,-8(fp)
 20031a0:	00c01b04 	movi	r3,108
 20031a4:	10c01015 	stw	r3,64(r2)
 20031a8:	0005883a 	mov	r2,zero
 20031ac:	00001606 	br	2003208 <DGifGetPixel+0xdc>
 20031b0:	e0bfff04 	addi	r2,fp,-4
 20031b4:	e13ffe17 	ldw	r4,-8(fp)
 20031b8:	100b883a 	mov	r5,r2
 20031bc:	01800044 	movi	r6,1
 20031c0:	2003cd80 	call	2003cd8 <DGifDecompressLine>
 20031c4:	10800058 	cmpnei	r2,r2,1
 20031c8:	10000e1e 	bne	r2,zero,2003204 <DGifGetPixel+0xd8>
 20031cc:	e0bffc17 	ldw	r2,-16(fp)
 20031d0:	10800d17 	ldw	r2,52(r2)
 20031d4:	1000091e 	bne	r2,zero,20031fc <DGifGetPixel+0xd0>
 20031d8:	e0bffd04 	addi	r2,fp,-12
 20031dc:	e13ffe17 	ldw	r4,-8(fp)
 20031e0:	100b883a 	mov	r5,r2
 20031e4:	20039840 	call	2003984 <DGifGetCodeNext>
 20031e8:	1000021e 	bne	r2,zero,20031f4 <DGifGetPixel+0xc8>
 20031ec:	0005883a 	mov	r2,zero
 20031f0:	00000506 	br	2003208 <DGifGetPixel+0xdc>
 20031f4:	e0bffd17 	ldw	r2,-12(fp)
 20031f8:	103ff71e 	bne	r2,zero,20031d8 <__reset+0xfdffa1d8>
 20031fc:	00800044 	movi	r2,1
 2003200:	00000106 	br	2003208 <DGifGetPixel+0xdc>
 2003204:	0005883a 	mov	r2,zero
 2003208:	e037883a 	mov	sp,fp
 200320c:	dfc00117 	ldw	ra,4(sp)
 2003210:	df000017 	ldw	fp,0(sp)
 2003214:	dec00204 	addi	sp,sp,8
 2003218:	f800283a 	ret

0200321c <DGifGetExtension>:
 200321c:	defff904 	addi	sp,sp,-28
 2003220:	dfc00615 	stw	ra,24(sp)
 2003224:	df000515 	stw	fp,20(sp)
 2003228:	df000504 	addi	fp,sp,20
 200322c:	e13ffd15 	stw	r4,-12(fp)
 2003230:	e17ffe15 	stw	r5,-8(fp)
 2003234:	e1bfff15 	stw	r6,-4(fp)
 2003238:	e0bffd17 	ldw	r2,-12(fp)
 200323c:	10801217 	ldw	r2,72(r2)
 2003240:	e0bffb15 	stw	r2,-20(fp)
 2003244:	e0bffb17 	ldw	r2,-20(fp)
 2003248:	10800017 	ldw	r2,0(r2)
 200324c:	1080020c 	andi	r2,r2,8
 2003250:	1000051e 	bne	r2,zero,2003268 <DGifGetExtension+0x4c>
 2003254:	e0bffd17 	ldw	r2,-12(fp)
 2003258:	00c01bc4 	movi	r3,111
 200325c:	10c01015 	stw	r3,64(r2)
 2003260:	0005883a 	mov	r2,zero
 2003264:	00002606 	br	2003300 <DGifGetExtension+0xe4>
 2003268:	e0bffd17 	ldw	r2,-12(fp)
 200326c:	10801217 	ldw	r2,72(r2)
 2003270:	10800f17 	ldw	r2,60(r2)
 2003274:	10000a26 	beq	r2,zero,20032a0 <DGifGetExtension+0x84>
 2003278:	e0bffd17 	ldw	r2,-12(fp)
 200327c:	10801217 	ldw	r2,72(r2)
 2003280:	10800f17 	ldw	r2,60(r2)
 2003284:	e0fffc04 	addi	r3,fp,-16
 2003288:	e13ffd17 	ldw	r4,-12(fp)
 200328c:	180b883a 	mov	r5,r3
 2003290:	01800044 	movi	r6,1
 2003294:	103ee83a 	callr	r2
 2003298:	10800058 	cmpnei	r2,r2,1
 200329c:	00000a06 	br	20032c8 <DGifGetExtension+0xac>
 20032a0:	e0bffd17 	ldw	r2,-12(fp)
 20032a4:	10801217 	ldw	r2,72(r2)
 20032a8:	10800e17 	ldw	r2,56(r2)
 20032ac:	e0fffc04 	addi	r3,fp,-16
 20032b0:	1809883a 	mov	r4,r3
 20032b4:	01400044 	movi	r5,1
 20032b8:	01800044 	movi	r6,1
 20032bc:	100f883a 	mov	r7,r2
 20032c0:	20078f00 	call	20078f0 <fread>
 20032c4:	10800058 	cmpnei	r2,r2,1
 20032c8:	10803fcc 	andi	r2,r2,255
 20032cc:	10000526 	beq	r2,zero,20032e4 <DGifGetExtension+0xc8>
 20032d0:	e0bffd17 	ldw	r2,-12(fp)
 20032d4:	00c01984 	movi	r3,102
 20032d8:	10c01015 	stw	r3,64(r2)
 20032dc:	0005883a 	mov	r2,zero
 20032e0:	00000706 	br	2003300 <DGifGetExtension+0xe4>
 20032e4:	e0bffc03 	ldbu	r2,-16(fp)
 20032e8:	10c03fcc 	andi	r3,r2,255
 20032ec:	e0bffe17 	ldw	r2,-8(fp)
 20032f0:	10c00015 	stw	r3,0(r2)
 20032f4:	e13ffd17 	ldw	r4,-12(fp)
 20032f8:	e17fff17 	ldw	r5,-4(fp)
 20032fc:	20033140 	call	2003314 <DGifGetExtensionNext>
 2003300:	e037883a 	mov	sp,fp
 2003304:	dfc00117 	ldw	ra,4(sp)
 2003308:	df000017 	ldw	fp,0(sp)
 200330c:	dec00204 	addi	sp,sp,8
 2003310:	f800283a 	ret

02003314 <DGifGetExtensionNext>:
 2003314:	defffa04 	addi	sp,sp,-24
 2003318:	dfc00515 	stw	ra,20(sp)
 200331c:	df000415 	stw	fp,16(sp)
 2003320:	df000404 	addi	fp,sp,16
 2003324:	e13ffe15 	stw	r4,-8(fp)
 2003328:	e17fff15 	stw	r5,-4(fp)
 200332c:	e0bffe17 	ldw	r2,-8(fp)
 2003330:	10801217 	ldw	r2,72(r2)
 2003334:	e0bffc15 	stw	r2,-16(fp)
 2003338:	e0bffe17 	ldw	r2,-8(fp)
 200333c:	10801217 	ldw	r2,72(r2)
 2003340:	10800f17 	ldw	r2,60(r2)
 2003344:	10000a26 	beq	r2,zero,2003370 <DGifGetExtensionNext+0x5c>
 2003348:	e0bffe17 	ldw	r2,-8(fp)
 200334c:	10801217 	ldw	r2,72(r2)
 2003350:	10800f17 	ldw	r2,60(r2)
 2003354:	e0fffd04 	addi	r3,fp,-12
 2003358:	e13ffe17 	ldw	r4,-8(fp)
 200335c:	180b883a 	mov	r5,r3
 2003360:	01800044 	movi	r6,1
 2003364:	103ee83a 	callr	r2
 2003368:	10800058 	cmpnei	r2,r2,1
 200336c:	00000a06 	br	2003398 <DGifGetExtensionNext+0x84>
 2003370:	e0bffe17 	ldw	r2,-8(fp)
 2003374:	10801217 	ldw	r2,72(r2)
 2003378:	10800e17 	ldw	r2,56(r2)
 200337c:	e0fffd04 	addi	r3,fp,-12
 2003380:	1809883a 	mov	r4,r3
 2003384:	01400044 	movi	r5,1
 2003388:	01800044 	movi	r6,1
 200338c:	100f883a 	mov	r7,r2
 2003390:	20078f00 	call	20078f0 <fread>
 2003394:	10800058 	cmpnei	r2,r2,1
 2003398:	10803fcc 	andi	r2,r2,255
 200339c:	10000526 	beq	r2,zero,20033b4 <DGifGetExtensionNext+0xa0>
 20033a0:	e0bffe17 	ldw	r2,-8(fp)
 20033a4:	00c01984 	movi	r3,102
 20033a8:	10c01015 	stw	r3,64(r2)
 20033ac:	0005883a 	mov	r2,zero
 20033b0:	00003206 	br	200347c <DGifGetExtensionNext+0x168>
 20033b4:	e0bffd03 	ldbu	r2,-12(fp)
 20033b8:	10803fcc 	andi	r2,r2,255
 20033bc:	10002c26 	beq	r2,zero,2003470 <DGifGetExtensionNext+0x15c>
 20033c0:	e0bffc17 	ldw	r2,-16(fp)
 20033c4:	10c01104 	addi	r3,r2,68
 20033c8:	e0bfff17 	ldw	r2,-4(fp)
 20033cc:	10c00015 	stw	r3,0(r2)
 20033d0:	e0bfff17 	ldw	r2,-4(fp)
 20033d4:	10800017 	ldw	r2,0(r2)
 20033d8:	e0fffd03 	ldbu	r3,-12(fp)
 20033dc:	10c00005 	stb	r3,0(r2)
 20033e0:	e0bffe17 	ldw	r2,-8(fp)
 20033e4:	10801217 	ldw	r2,72(r2)
 20033e8:	10800f17 	ldw	r2,60(r2)
 20033ec:	10000c26 	beq	r2,zero,2003420 <DGifGetExtensionNext+0x10c>
 20033f0:	e0bffe17 	ldw	r2,-8(fp)
 20033f4:	10801217 	ldw	r2,72(r2)
 20033f8:	10800f17 	ldw	r2,60(r2)
 20033fc:	e0ffff17 	ldw	r3,-4(fp)
 2003400:	18c00017 	ldw	r3,0(r3)
 2003404:	19400044 	addi	r5,r3,1
 2003408:	e0fffd03 	ldbu	r3,-12(fp)
 200340c:	18c03fcc 	andi	r3,r3,255
 2003410:	e13ffe17 	ldw	r4,-8(fp)
 2003414:	180d883a 	mov	r6,r3
 2003418:	103ee83a 	callr	r2
 200341c:	00000c06 	br	2003450 <DGifGetExtensionNext+0x13c>
 2003420:	e0bfff17 	ldw	r2,-4(fp)
 2003424:	10800017 	ldw	r2,0(r2)
 2003428:	11000044 	addi	r4,r2,1
 200342c:	e0bffd03 	ldbu	r2,-12(fp)
 2003430:	10c03fcc 	andi	r3,r2,255
 2003434:	e0bffe17 	ldw	r2,-8(fp)
 2003438:	10801217 	ldw	r2,72(r2)
 200343c:	10800e17 	ldw	r2,56(r2)
 2003440:	01400044 	movi	r5,1
 2003444:	180d883a 	mov	r6,r3
 2003448:	100f883a 	mov	r7,r2
 200344c:	20078f00 	call	20078f0 <fread>
 2003450:	e0fffd03 	ldbu	r3,-12(fp)
 2003454:	18c03fcc 	andi	r3,r3,255
 2003458:	10c00726 	beq	r2,r3,2003478 <DGifGetExtensionNext+0x164>
 200345c:	e0bffe17 	ldw	r2,-8(fp)
 2003460:	00c01984 	movi	r3,102
 2003464:	10c01015 	stw	r3,64(r2)
 2003468:	0005883a 	mov	r2,zero
 200346c:	00000306 	br	200347c <DGifGetExtensionNext+0x168>
 2003470:	e0bfff17 	ldw	r2,-4(fp)
 2003474:	10000015 	stw	zero,0(r2)
 2003478:	00800044 	movi	r2,1
 200347c:	e037883a 	mov	sp,fp
 2003480:	dfc00117 	ldw	ra,4(sp)
 2003484:	df000017 	ldw	fp,0(sp)
 2003488:	dec00204 	addi	sp,sp,8
 200348c:	f800283a 	ret

02003490 <DGifExtensionToGCB>:
 2003490:	defffc04 	addi	sp,sp,-16
 2003494:	df000315 	stw	fp,12(sp)
 2003498:	df000304 	addi	fp,sp,12
 200349c:	e13ffd15 	stw	r4,-12(fp)
 20034a0:	e17ffe15 	stw	r5,-8(fp)
 20034a4:	e1bfff15 	stw	r6,-4(fp)
 20034a8:	e0bffd17 	ldw	r2,-12(fp)
 20034ac:	10800120 	cmpeqi	r2,r2,4
 20034b0:	1000021e 	bne	r2,zero,20034bc <DGifExtensionToGCB+0x2c>
 20034b4:	0005883a 	mov	r2,zero
 20034b8:	00002c06 	br	200356c <DGifExtensionToGCB+0xdc>
 20034bc:	e0bffe17 	ldw	r2,-8(fp)
 20034c0:	10800003 	ldbu	r2,0(r2)
 20034c4:	10803fcc 	andi	r2,r2,255
 20034c8:	1004d0ba 	srli	r2,r2,2
 20034cc:	10803fcc 	andi	r2,r2,255
 20034d0:	10c001cc 	andi	r3,r2,7
 20034d4:	e0bfff17 	ldw	r2,-4(fp)
 20034d8:	10c00015 	stw	r3,0(r2)
 20034dc:	e0bffe17 	ldw	r2,-8(fp)
 20034e0:	10800003 	ldbu	r2,0(r2)
 20034e4:	10803fcc 	andi	r2,r2,255
 20034e8:	1080008c 	andi	r2,r2,2
 20034ec:	1004c03a 	cmpne	r2,r2,zero
 20034f0:	1007883a 	mov	r3,r2
 20034f4:	e0bfff17 	ldw	r2,-4(fp)
 20034f8:	10c00105 	stb	r3,4(r2)
 20034fc:	e0bffe17 	ldw	r2,-8(fp)
 2003500:	10800044 	addi	r2,r2,1
 2003504:	10800003 	ldbu	r2,0(r2)
 2003508:	10c03fcc 	andi	r3,r2,255
 200350c:	e0bffe17 	ldw	r2,-8(fp)
 2003510:	10800084 	addi	r2,r2,2
 2003514:	10800003 	ldbu	r2,0(r2)
 2003518:	10803fcc 	andi	r2,r2,255
 200351c:	1004923a 	slli	r2,r2,8
 2003520:	1886b03a 	or	r3,r3,r2
 2003524:	e0bfff17 	ldw	r2,-4(fp)
 2003528:	10c00215 	stw	r3,8(r2)
 200352c:	e0bffe17 	ldw	r2,-8(fp)
 2003530:	10800003 	ldbu	r2,0(r2)
 2003534:	10803fcc 	andi	r2,r2,255
 2003538:	1080004c 	andi	r2,r2,1
 200353c:	10000726 	beq	r2,zero,200355c <DGifExtensionToGCB+0xcc>
 2003540:	e0bffe17 	ldw	r2,-8(fp)
 2003544:	108000c4 	addi	r2,r2,3
 2003548:	10800003 	ldbu	r2,0(r2)
 200354c:	10c03fcc 	andi	r3,r2,255
 2003550:	e0bfff17 	ldw	r2,-4(fp)
 2003554:	10c00315 	stw	r3,12(r2)
 2003558:	00000306 	br	2003568 <DGifExtensionToGCB+0xd8>
 200355c:	e0bfff17 	ldw	r2,-4(fp)
 2003560:	00ffffc4 	movi	r3,-1
 2003564:	10c00315 	stw	r3,12(r2)
 2003568:	00800044 	movi	r2,1
 200356c:	e037883a 	mov	sp,fp
 2003570:	df000017 	ldw	fp,0(sp)
 2003574:	dec00104 	addi	sp,sp,4
 2003578:	f800283a 	ret

0200357c <DGifSavedExtensionToGCB>:
 200357c:	defff804 	addi	sp,sp,-32
 2003580:	dfc00715 	stw	ra,28(sp)
 2003584:	df000615 	stw	fp,24(sp)
 2003588:	dc000515 	stw	r16,20(sp)
 200358c:	df000604 	addi	fp,sp,24
 2003590:	e13ffc15 	stw	r4,-16(fp)
 2003594:	e17ffd15 	stw	r5,-12(fp)
 2003598:	e1bffe15 	stw	r6,-8(fp)
 200359c:	e0bffd17 	ldw	r2,-12(fp)
 20035a0:	10000516 	blt	r2,zero,20035b8 <DGifSavedExtensionToGCB+0x3c>
 20035a4:	e0bffc17 	ldw	r2,-16(fp)
 20035a8:	10800617 	ldw	r2,24(r2)
 20035ac:	10ffffc4 	addi	r3,r2,-1
 20035b0:	e0bffd17 	ldw	r2,-12(fp)
 20035b4:	1880020e 	bge	r3,r2,20035c0 <DGifSavedExtensionToGCB+0x44>
 20035b8:	0005883a 	mov	r2,zero
 20035bc:	00003506 	br	2003694 <DGifSavedExtensionToGCB+0x118>
 20035c0:	e0bffe17 	ldw	r2,-8(fp)
 20035c4:	10000015 	stw	zero,0(r2)
 20035c8:	e0bffe17 	ldw	r2,-8(fp)
 20035cc:	10000105 	stb	zero,4(r2)
 20035d0:	e0bffe17 	ldw	r2,-8(fp)
 20035d4:	10000215 	stw	zero,8(r2)
 20035d8:	e0bffe17 	ldw	r2,-8(fp)
 20035dc:	00ffffc4 	movi	r3,-1
 20035e0:	10c00315 	stw	r3,12(r2)
 20035e4:	e03ffa15 	stw	zero,-24(fp)
 20035e8:	00001f06 	br	2003668 <DGifSavedExtensionToGCB+0xec>
 20035ec:	e0bffc17 	ldw	r2,-16(fp)
 20035f0:	14000d17 	ldw	r16,52(r2)
 20035f4:	e0bffd17 	ldw	r2,-12(fp)
 20035f8:	1009883a 	mov	r4,r2
 20035fc:	01400904 	movi	r5,36
 2003600:	20059200 	call	2005920 <__mulsi3>
 2003604:	8085883a 	add	r2,r16,r2
 2003608:	14000817 	ldw	r16,32(r2)
 200360c:	e0bffa17 	ldw	r2,-24(fp)
 2003610:	1009883a 	mov	r4,r2
 2003614:	01400304 	movi	r5,12
 2003618:	20059200 	call	2005920 <__mulsi3>
 200361c:	8085883a 	add	r2,r16,r2
 2003620:	e0bffb15 	stw	r2,-20(fp)
 2003624:	e0bffb17 	ldw	r2,-20(fp)
 2003628:	10800217 	ldw	r2,8(r2)
 200362c:	10803e58 	cmpnei	r2,r2,249
 2003630:	10000a1e 	bne	r2,zero,200365c <DGifSavedExtensionToGCB+0xe0>
 2003634:	e0bffb17 	ldw	r2,-20(fp)
 2003638:	10800017 	ldw	r2,0(r2)
 200363c:	1007883a 	mov	r3,r2
 2003640:	e0bffb17 	ldw	r2,-20(fp)
 2003644:	10800117 	ldw	r2,4(r2)
 2003648:	1809883a 	mov	r4,r3
 200364c:	100b883a 	mov	r5,r2
 2003650:	e1bffe17 	ldw	r6,-8(fp)
 2003654:	20034900 	call	2003490 <DGifExtensionToGCB>
 2003658:	00000e06 	br	2003694 <DGifSavedExtensionToGCB+0x118>
 200365c:	e0bffa17 	ldw	r2,-24(fp)
 2003660:	10800044 	addi	r2,r2,1
 2003664:	e0bffa15 	stw	r2,-24(fp)
 2003668:	e0bffc17 	ldw	r2,-16(fp)
 200366c:	14000d17 	ldw	r16,52(r2)
 2003670:	e0bffd17 	ldw	r2,-12(fp)
 2003674:	1009883a 	mov	r4,r2
 2003678:	01400904 	movi	r5,36
 200367c:	20059200 	call	2005920 <__mulsi3>
 2003680:	8085883a 	add	r2,r16,r2
 2003684:	10800717 	ldw	r2,28(r2)
 2003688:	e0fffa17 	ldw	r3,-24(fp)
 200368c:	18bfd716 	blt	r3,r2,20035ec <__reset+0xfdffa5ec>
 2003690:	0005883a 	mov	r2,zero
 2003694:	e6ffff04 	addi	sp,fp,-4
 2003698:	dfc00217 	ldw	ra,8(sp)
 200369c:	df000117 	ldw	fp,4(sp)
 20036a0:	dc000017 	ldw	r16,0(sp)
 20036a4:	dec00304 	addi	sp,sp,12
 20036a8:	f800283a 	ret

020036ac <DGifCloseFile>:
 20036ac:	defffb04 	addi	sp,sp,-20
 20036b0:	dfc00415 	stw	ra,16(sp)
 20036b4:	df000315 	stw	fp,12(sp)
 20036b8:	df000304 	addi	fp,sp,12
 20036bc:	e13ffe15 	stw	r4,-8(fp)
 20036c0:	e17fff15 	stw	r5,-4(fp)
 20036c4:	e0bffe17 	ldw	r2,-8(fp)
 20036c8:	10000326 	beq	r2,zero,20036d8 <DGifCloseFile+0x2c>
 20036cc:	e0bffe17 	ldw	r2,-8(fp)
 20036d0:	10801217 	ldw	r2,72(r2)
 20036d4:	1000021e 	bne	r2,zero,20036e0 <DGifCloseFile+0x34>
 20036d8:	0005883a 	mov	r2,zero
 20036dc:	00005406 	br	2003830 <DGifCloseFile+0x184>
 20036e0:	e0bffe17 	ldw	r2,-8(fp)
 20036e4:	10800c17 	ldw	r2,48(r2)
 20036e8:	10000626 	beq	r2,zero,2003704 <DGifCloseFile+0x58>
 20036ec:	e0bffe17 	ldw	r2,-8(fp)
 20036f0:	10800c17 	ldw	r2,48(r2)
 20036f4:	1009883a 	mov	r4,r2
 20036f8:	2004c380 	call	2004c38 <GifFreeMapObject>
 20036fc:	e0bffe17 	ldw	r2,-8(fp)
 2003700:	10000c15 	stw	zero,48(r2)
 2003704:	e0bffe17 	ldw	r2,-8(fp)
 2003708:	10800517 	ldw	r2,20(r2)
 200370c:	10000626 	beq	r2,zero,2003728 <DGifCloseFile+0x7c>
 2003710:	e0bffe17 	ldw	r2,-8(fp)
 2003714:	10800517 	ldw	r2,20(r2)
 2003718:	1009883a 	mov	r4,r2
 200371c:	2004c380 	call	2004c38 <GifFreeMapObject>
 2003720:	e0bffe17 	ldw	r2,-8(fp)
 2003724:	10000515 	stw	zero,20(r2)
 2003728:	e0bffe17 	ldw	r2,-8(fp)
 200372c:	10800d17 	ldw	r2,52(r2)
 2003730:	10000426 	beq	r2,zero,2003744 <DGifCloseFile+0x98>
 2003734:	e13ffe17 	ldw	r4,-8(fp)
 2003738:	20056780 	call	2005678 <GifFreeSavedImages>
 200373c:	e0bffe17 	ldw	r2,-8(fp)
 2003740:	10000d15 	stw	zero,52(r2)
 2003744:	e0bffe17 	ldw	r2,-8(fp)
 2003748:	10c00e04 	addi	r3,r2,56
 200374c:	e0bffe17 	ldw	r2,-8(fp)
 2003750:	10800f04 	addi	r2,r2,60
 2003754:	1809883a 	mov	r4,r3
 2003758:	100b883a 	mov	r5,r2
 200375c:	20052780 	call	2005278 <GifFreeExtensions>
 2003760:	e0bffe17 	ldw	r2,-8(fp)
 2003764:	10801217 	ldw	r2,72(r2)
 2003768:	e0bffd15 	stw	r2,-12(fp)
 200376c:	e0bffd17 	ldw	r2,-12(fp)
 2003770:	10800017 	ldw	r2,0(r2)
 2003774:	1080020c 	andi	r2,r2,8
 2003778:	10000d1e 	bne	r2,zero,20037b0 <DGifCloseFile+0x104>
 200377c:	e0bfff17 	ldw	r2,-4(fp)
 2003780:	10000326 	beq	r2,zero,2003790 <DGifCloseFile+0xe4>
 2003784:	e0bfff17 	ldw	r2,-4(fp)
 2003788:	00c01bc4 	movi	r3,111
 200378c:	10c00015 	stw	r3,0(r2)
 2003790:	e0bffe17 	ldw	r2,-8(fp)
 2003794:	10801217 	ldw	r2,72(r2)
 2003798:	1009883a 	mov	r4,r2
 200379c:	2007eb00 	call	2007eb0 <free>
 20037a0:	e13ffe17 	ldw	r4,-8(fp)
 20037a4:	2007eb00 	call	2007eb0 <free>
 20037a8:	0005883a 	mov	r2,zero
 20037ac:	00002006 	br	2003830 <DGifCloseFile+0x184>
 20037b0:	e0bffd17 	ldw	r2,-12(fp)
 20037b4:	10800e17 	ldw	r2,56(r2)
 20037b8:	10001226 	beq	r2,zero,2003804 <DGifCloseFile+0x158>
 20037bc:	e0bffd17 	ldw	r2,-12(fp)
 20037c0:	10800e17 	ldw	r2,56(r2)
 20037c4:	1009883a 	mov	r4,r2
 20037c8:	2006f0c0 	call	2006f0c <fclose>
 20037cc:	10000d26 	beq	r2,zero,2003804 <DGifCloseFile+0x158>
 20037d0:	e0bfff17 	ldw	r2,-4(fp)
 20037d4:	10000326 	beq	r2,zero,20037e4 <DGifCloseFile+0x138>
 20037d8:	e0bfff17 	ldw	r2,-4(fp)
 20037dc:	00c01b84 	movi	r3,110
 20037e0:	10c00015 	stw	r3,0(r2)
 20037e4:	e0bffe17 	ldw	r2,-8(fp)
 20037e8:	10801217 	ldw	r2,72(r2)
 20037ec:	1009883a 	mov	r4,r2
 20037f0:	2007eb00 	call	2007eb0 <free>
 20037f4:	e13ffe17 	ldw	r4,-8(fp)
 20037f8:	2007eb00 	call	2007eb0 <free>
 20037fc:	0005883a 	mov	r2,zero
 2003800:	00000b06 	br	2003830 <DGifCloseFile+0x184>
 2003804:	e0bffe17 	ldw	r2,-8(fp)
 2003808:	10801217 	ldw	r2,72(r2)
 200380c:	1009883a 	mov	r4,r2
 2003810:	2007eb00 	call	2007eb0 <free>
 2003814:	e13ffe17 	ldw	r4,-8(fp)
 2003818:	2007eb00 	call	2007eb0 <free>
 200381c:	e0bfff17 	ldw	r2,-4(fp)
 2003820:	10000226 	beq	r2,zero,200382c <DGifCloseFile+0x180>
 2003824:	e0bfff17 	ldw	r2,-4(fp)
 2003828:	10000015 	stw	zero,0(r2)
 200382c:	00800044 	movi	r2,1
 2003830:	e037883a 	mov	sp,fp
 2003834:	dfc00117 	ldw	ra,4(sp)
 2003838:	df000017 	ldw	fp,0(sp)
 200383c:	dec00204 	addi	sp,sp,8
 2003840:	f800283a 	ret

02003844 <DGifGetWord>:
 2003844:	defffb04 	addi	sp,sp,-20
 2003848:	dfc00415 	stw	ra,16(sp)
 200384c:	df000315 	stw	fp,12(sp)
 2003850:	df000304 	addi	fp,sp,12
 2003854:	e13ffe15 	stw	r4,-8(fp)
 2003858:	e17fff15 	stw	r5,-4(fp)
 200385c:	e0bffe17 	ldw	r2,-8(fp)
 2003860:	10801217 	ldw	r2,72(r2)
 2003864:	10800f17 	ldw	r2,60(r2)
 2003868:	10000926 	beq	r2,zero,2003890 <DGifGetWord+0x4c>
 200386c:	e0bffe17 	ldw	r2,-8(fp)
 2003870:	10801217 	ldw	r2,72(r2)
 2003874:	10800f17 	ldw	r2,60(r2)
 2003878:	e13ffe17 	ldw	r4,-8(fp)
 200387c:	e17ffd04 	addi	r5,fp,-12
 2003880:	01800084 	movi	r6,2
 2003884:	103ee83a 	callr	r2
 2003888:	10800098 	cmpnei	r2,r2,2
 200388c:	00000906 	br	20038b4 <DGifGetWord+0x70>
 2003890:	e0bffe17 	ldw	r2,-8(fp)
 2003894:	10801217 	ldw	r2,72(r2)
 2003898:	10800e17 	ldw	r2,56(r2)
 200389c:	e13ffd04 	addi	r4,fp,-12
 20038a0:	01400044 	movi	r5,1
 20038a4:	01800084 	movi	r6,2
 20038a8:	100f883a 	mov	r7,r2
 20038ac:	20078f00 	call	20078f0 <fread>
 20038b0:	10800098 	cmpnei	r2,r2,2
 20038b4:	10803fcc 	andi	r2,r2,255
 20038b8:	10000526 	beq	r2,zero,20038d0 <DGifGetWord+0x8c>
 20038bc:	e0bffe17 	ldw	r2,-8(fp)
 20038c0:	00c01984 	movi	r3,102
 20038c4:	10c01015 	stw	r3,64(r2)
 20038c8:	0005883a 	mov	r2,zero
 20038cc:	00000906 	br	20038f4 <DGifGetWord+0xb0>
 20038d0:	e0bffd03 	ldbu	r2,-12(fp)
 20038d4:	10c03fcc 	andi	r3,r2,255
 20038d8:	e0bffd43 	ldbu	r2,-11(fp)
 20038dc:	10803fcc 	andi	r2,r2,255
 20038e0:	1004923a 	slli	r2,r2,8
 20038e4:	1886b03a 	or	r3,r3,r2
 20038e8:	e0bfff17 	ldw	r2,-4(fp)
 20038ec:	10c00015 	stw	r3,0(r2)
 20038f0:	00800044 	movi	r2,1
 20038f4:	e037883a 	mov	sp,fp
 20038f8:	dfc00117 	ldw	ra,4(sp)
 20038fc:	df000017 	ldw	fp,0(sp)
 2003900:	dec00204 	addi	sp,sp,8
 2003904:	f800283a 	ret

02003908 <DGifGetCode>:
 2003908:	defffa04 	addi	sp,sp,-24
 200390c:	dfc00515 	stw	ra,20(sp)
 2003910:	df000415 	stw	fp,16(sp)
 2003914:	df000404 	addi	fp,sp,16
 2003918:	e13ffd15 	stw	r4,-12(fp)
 200391c:	e17ffe15 	stw	r5,-8(fp)
 2003920:	e1bfff15 	stw	r6,-4(fp)
 2003924:	e0bffd17 	ldw	r2,-12(fp)
 2003928:	10801217 	ldw	r2,72(r2)
 200392c:	e0bffc15 	stw	r2,-16(fp)
 2003930:	e0bffc17 	ldw	r2,-16(fp)
 2003934:	10800017 	ldw	r2,0(r2)
 2003938:	1080020c 	andi	r2,r2,8
 200393c:	1000051e 	bne	r2,zero,2003954 <DGifGetCode+0x4c>
 2003940:	e0bffd17 	ldw	r2,-12(fp)
 2003944:	00c01bc4 	movi	r3,111
 2003948:	10c01015 	stw	r3,64(r2)
 200394c:	0005883a 	mov	r2,zero
 2003950:	00000706 	br	2003970 <DGifGetCode+0x68>
 2003954:	e0bffc17 	ldw	r2,-16(fp)
 2003958:	10c00217 	ldw	r3,8(r2)
 200395c:	e0bffe17 	ldw	r2,-8(fp)
 2003960:	10c00015 	stw	r3,0(r2)
 2003964:	e13ffd17 	ldw	r4,-12(fp)
 2003968:	e17fff17 	ldw	r5,-4(fp)
 200396c:	20039840 	call	2003984 <DGifGetCodeNext>
 2003970:	e037883a 	mov	sp,fp
 2003974:	dfc00117 	ldw	ra,4(sp)
 2003978:	df000017 	ldw	fp,0(sp)
 200397c:	dec00204 	addi	sp,sp,8
 2003980:	f800283a 	ret

02003984 <DGifGetCodeNext>:
 2003984:	defffa04 	addi	sp,sp,-24
 2003988:	dfc00515 	stw	ra,20(sp)
 200398c:	df000415 	stw	fp,16(sp)
 2003990:	df000404 	addi	fp,sp,16
 2003994:	e13ffe15 	stw	r4,-8(fp)
 2003998:	e17fff15 	stw	r5,-4(fp)
 200399c:	e0bffe17 	ldw	r2,-8(fp)
 20039a0:	10801217 	ldw	r2,72(r2)
 20039a4:	e0bffc15 	stw	r2,-16(fp)
 20039a8:	e0bffe17 	ldw	r2,-8(fp)
 20039ac:	10801217 	ldw	r2,72(r2)
 20039b0:	10800f17 	ldw	r2,60(r2)
 20039b4:	10000a26 	beq	r2,zero,20039e0 <DGifGetCodeNext+0x5c>
 20039b8:	e0bffe17 	ldw	r2,-8(fp)
 20039bc:	10801217 	ldw	r2,72(r2)
 20039c0:	10800f17 	ldw	r2,60(r2)
 20039c4:	e0fffd04 	addi	r3,fp,-12
 20039c8:	e13ffe17 	ldw	r4,-8(fp)
 20039cc:	180b883a 	mov	r5,r3
 20039d0:	01800044 	movi	r6,1
 20039d4:	103ee83a 	callr	r2
 20039d8:	10800058 	cmpnei	r2,r2,1
 20039dc:	00000a06 	br	2003a08 <DGifGetCodeNext+0x84>
 20039e0:	e0bffe17 	ldw	r2,-8(fp)
 20039e4:	10801217 	ldw	r2,72(r2)
 20039e8:	10800e17 	ldw	r2,56(r2)
 20039ec:	e0fffd04 	addi	r3,fp,-12
 20039f0:	1809883a 	mov	r4,r3
 20039f4:	01400044 	movi	r5,1
 20039f8:	01800044 	movi	r6,1
 20039fc:	100f883a 	mov	r7,r2
 2003a00:	20078f00 	call	20078f0 <fread>
 2003a04:	10800058 	cmpnei	r2,r2,1
 2003a08:	10803fcc 	andi	r2,r2,255
 2003a0c:	10000526 	beq	r2,zero,2003a24 <DGifGetCodeNext+0xa0>
 2003a10:	e0bffe17 	ldw	r2,-8(fp)
 2003a14:	00c01984 	movi	r3,102
 2003a18:	10c01015 	stw	r3,64(r2)
 2003a1c:	0005883a 	mov	r2,zero
 2003a20:	00003606 	br	2003afc <DGifGetCodeNext+0x178>
 2003a24:	e0bffd03 	ldbu	r2,-12(fp)
 2003a28:	10803fcc 	andi	r2,r2,255
 2003a2c:	10002c26 	beq	r2,zero,2003ae0 <DGifGetCodeNext+0x15c>
 2003a30:	e0bffc17 	ldw	r2,-16(fp)
 2003a34:	10c01104 	addi	r3,r2,68
 2003a38:	e0bfff17 	ldw	r2,-4(fp)
 2003a3c:	10c00015 	stw	r3,0(r2)
 2003a40:	e0bfff17 	ldw	r2,-4(fp)
 2003a44:	10800017 	ldw	r2,0(r2)
 2003a48:	e0fffd03 	ldbu	r3,-12(fp)
 2003a4c:	10c00005 	stb	r3,0(r2)
 2003a50:	e0bffe17 	ldw	r2,-8(fp)
 2003a54:	10801217 	ldw	r2,72(r2)
 2003a58:	10800f17 	ldw	r2,60(r2)
 2003a5c:	10000c26 	beq	r2,zero,2003a90 <DGifGetCodeNext+0x10c>
 2003a60:	e0bffe17 	ldw	r2,-8(fp)
 2003a64:	10801217 	ldw	r2,72(r2)
 2003a68:	10800f17 	ldw	r2,60(r2)
 2003a6c:	e0ffff17 	ldw	r3,-4(fp)
 2003a70:	18c00017 	ldw	r3,0(r3)
 2003a74:	19400044 	addi	r5,r3,1
 2003a78:	e0fffd03 	ldbu	r3,-12(fp)
 2003a7c:	18c03fcc 	andi	r3,r3,255
 2003a80:	e13ffe17 	ldw	r4,-8(fp)
 2003a84:	180d883a 	mov	r6,r3
 2003a88:	103ee83a 	callr	r2
 2003a8c:	00000c06 	br	2003ac0 <DGifGetCodeNext+0x13c>
 2003a90:	e0bfff17 	ldw	r2,-4(fp)
 2003a94:	10800017 	ldw	r2,0(r2)
 2003a98:	11000044 	addi	r4,r2,1
 2003a9c:	e0bffd03 	ldbu	r2,-12(fp)
 2003aa0:	10c03fcc 	andi	r3,r2,255
 2003aa4:	e0bffe17 	ldw	r2,-8(fp)
 2003aa8:	10801217 	ldw	r2,72(r2)
 2003aac:	10800e17 	ldw	r2,56(r2)
 2003ab0:	01400044 	movi	r5,1
 2003ab4:	180d883a 	mov	r6,r3
 2003ab8:	100f883a 	mov	r7,r2
 2003abc:	20078f00 	call	20078f0 <fread>
 2003ac0:	e0fffd03 	ldbu	r3,-12(fp)
 2003ac4:	18c03fcc 	andi	r3,r3,255
 2003ac8:	10c00b26 	beq	r2,r3,2003af8 <DGifGetCodeNext+0x174>
 2003acc:	e0bffe17 	ldw	r2,-8(fp)
 2003ad0:	00c01984 	movi	r3,102
 2003ad4:	10c01015 	stw	r3,64(r2)
 2003ad8:	0005883a 	mov	r2,zero
 2003adc:	00000706 	br	2003afc <DGifGetCodeNext+0x178>
 2003ae0:	e0bfff17 	ldw	r2,-4(fp)
 2003ae4:	10000015 	stw	zero,0(r2)
 2003ae8:	e0bffc17 	ldw	r2,-16(fp)
 2003aec:	10001105 	stb	zero,68(r2)
 2003af0:	e0bffc17 	ldw	r2,-16(fp)
 2003af4:	10000d15 	stw	zero,52(r2)
 2003af8:	00800044 	movi	r2,1
 2003afc:	e037883a 	mov	sp,fp
 2003b00:	dfc00117 	ldw	ra,4(sp)
 2003b04:	df000017 	ldw	fp,0(sp)
 2003b08:	dec00204 	addi	sp,sp,8
 2003b0c:	f800283a 	ret

02003b10 <DGifSetupDecompress>:
 2003b10:	defff804 	addi	sp,sp,-32
 2003b14:	dfc00715 	stw	ra,28(sp)
 2003b18:	df000615 	stw	fp,24(sp)
 2003b1c:	df000604 	addi	fp,sp,24
 2003b20:	e13fff15 	stw	r4,-4(fp)
 2003b24:	e0bfff17 	ldw	r2,-4(fp)
 2003b28:	10801217 	ldw	r2,72(r2)
 2003b2c:	e0bffb15 	stw	r2,-20(fp)
 2003b30:	e0bfff17 	ldw	r2,-4(fp)
 2003b34:	10801217 	ldw	r2,72(r2)
 2003b38:	10800f17 	ldw	r2,60(r2)
 2003b3c:	10000a26 	beq	r2,zero,2003b68 <DGifSetupDecompress+0x58>
 2003b40:	e0bfff17 	ldw	r2,-4(fp)
 2003b44:	10801217 	ldw	r2,72(r2)
 2003b48:	10800f17 	ldw	r2,60(r2)
 2003b4c:	e0fffe04 	addi	r3,fp,-8
 2003b50:	e13fff17 	ldw	r4,-4(fp)
 2003b54:	180b883a 	mov	r5,r3
 2003b58:	01800044 	movi	r6,1
 2003b5c:	103ee83a 	callr	r2
 2003b60:	1005003a 	cmpeq	r2,r2,zero
 2003b64:	00000a06 	br	2003b90 <DGifSetupDecompress+0x80>
 2003b68:	e0bfff17 	ldw	r2,-4(fp)
 2003b6c:	10801217 	ldw	r2,72(r2)
 2003b70:	10800e17 	ldw	r2,56(r2)
 2003b74:	e0fffe04 	addi	r3,fp,-8
 2003b78:	1809883a 	mov	r4,r3
 2003b7c:	01400044 	movi	r5,1
 2003b80:	01800044 	movi	r6,1
 2003b84:	100f883a 	mov	r7,r2
 2003b88:	20078f00 	call	20078f0 <fread>
 2003b8c:	1005003a 	cmpeq	r2,r2,zero
 2003b90:	10803fcc 	andi	r2,r2,255
 2003b94:	10000226 	beq	r2,zero,2003ba0 <DGifSetupDecompress+0x90>
 2003b98:	0005883a 	mov	r2,zero
 2003b9c:	00004906 	br	2003cc4 <DGifSetupDecompress+0x1b4>
 2003ba0:	e0bffe03 	ldbu	r2,-8(fp)
 2003ba4:	10803fcc 	andi	r2,r2,255
 2003ba8:	e0bffc15 	stw	r2,-16(fp)
 2003bac:	e0bffc17 	ldw	r2,-16(fp)
 2003bb0:	10800248 	cmpgei	r2,r2,9
 2003bb4:	1000041e 	bne	r2,zero,2003bc8 <DGifSetupDecompress+0xb8>
 2003bb8:	e0bffb17 	ldw	r2,-20(fp)
 2003bbc:	10800617 	ldw	r2,24(r2)
 2003bc0:	10800850 	cmplti	r2,r2,33
 2003bc4:	1000051e 	bne	r2,zero,2003bdc <DGifSetupDecompress+0xcc>
 2003bc8:	e0bfff17 	ldw	r2,-4(fp)
 2003bcc:	00c01984 	movi	r3,102
 2003bd0:	10c01015 	stw	r3,64(r2)
 2003bd4:	0005883a 	mov	r2,zero
 2003bd8:	00003a06 	br	2003cc4 <DGifSetupDecompress+0x1b4>
 2003bdc:	e0bffb17 	ldw	r2,-20(fp)
 2003be0:	10001105 	stb	zero,68(r2)
 2003be4:	e0bffb17 	ldw	r2,-20(fp)
 2003be8:	e0fffc17 	ldw	r3,-16(fp)
 2003bec:	10c00215 	stw	r3,8(r2)
 2003bf0:	00c00044 	movi	r3,1
 2003bf4:	e0bffc17 	ldw	r2,-16(fp)
 2003bf8:	1886983a 	sll	r3,r3,r2
 2003bfc:	e0bffb17 	ldw	r2,-20(fp)
 2003c00:	10c00315 	stw	r3,12(r2)
 2003c04:	e0bffb17 	ldw	r2,-20(fp)
 2003c08:	10800317 	ldw	r2,12(r2)
 2003c0c:	10c00044 	addi	r3,r2,1
 2003c10:	e0bffb17 	ldw	r2,-20(fp)
 2003c14:	10c00415 	stw	r3,16(r2)
 2003c18:	e0bffb17 	ldw	r2,-20(fp)
 2003c1c:	10800417 	ldw	r2,16(r2)
 2003c20:	10c00044 	addi	r3,r2,1
 2003c24:	e0bffb17 	ldw	r2,-20(fp)
 2003c28:	10c00515 	stw	r3,20(r2)
 2003c2c:	e0bffc17 	ldw	r2,-16(fp)
 2003c30:	10c00044 	addi	r3,r2,1
 2003c34:	e0bffb17 	ldw	r2,-20(fp)
 2003c38:	10c00615 	stw	r3,24(r2)
 2003c3c:	e0bffb17 	ldw	r2,-20(fp)
 2003c40:	10800617 	ldw	r2,24(r2)
 2003c44:	00c00044 	movi	r3,1
 2003c48:	1886983a 	sll	r3,r3,r2
 2003c4c:	e0bffb17 	ldw	r2,-20(fp)
 2003c50:	10c00715 	stw	r3,28(r2)
 2003c54:	e0bffb17 	ldw	r2,-20(fp)
 2003c58:	10000a15 	stw	zero,40(r2)
 2003c5c:	e0bffb17 	ldw	r2,-20(fp)
 2003c60:	00c40084 	movi	r3,4098
 2003c64:	10c00815 	stw	r3,32(r2)
 2003c68:	e0bffb17 	ldw	r2,-20(fp)
 2003c6c:	10000b15 	stw	zero,44(r2)
 2003c70:	e0bffb17 	ldw	r2,-20(fp)
 2003c74:	10000c15 	stw	zero,48(r2)
 2003c78:	e0bffb17 	ldw	r2,-20(fp)
 2003c7c:	10885104 	addi	r2,r2,8516
 2003c80:	e0bffd15 	stw	r2,-12(fp)
 2003c84:	e03ffa15 	stw	zero,-24(fp)
 2003c88:	00000a06 	br	2003cb4 <DGifSetupDecompress+0x1a4>
 2003c8c:	e0bffa17 	ldw	r2,-24(fp)
 2003c90:	1085883a 	add	r2,r2,r2
 2003c94:	1085883a 	add	r2,r2,r2
 2003c98:	e0fffd17 	ldw	r3,-12(fp)
 2003c9c:	1885883a 	add	r2,r3,r2
 2003ca0:	00c40084 	movi	r3,4098
 2003ca4:	10c00015 	stw	r3,0(r2)
 2003ca8:	e0bffa17 	ldw	r2,-24(fp)
 2003cac:	10800044 	addi	r2,r2,1
 2003cb0:	e0bffa15 	stw	r2,-24(fp)
 2003cb4:	e0bffa17 	ldw	r2,-24(fp)
 2003cb8:	10840010 	cmplti	r2,r2,4096
 2003cbc:	103ff31e 	bne	r2,zero,2003c8c <__reset+0xfdffac8c>
 2003cc0:	00800044 	movi	r2,1
 2003cc4:	e037883a 	mov	sp,fp
 2003cc8:	dfc00117 	ldw	ra,4(sp)
 2003ccc:	df000017 	ldw	fp,0(sp)
 2003cd0:	dec00204 	addi	sp,sp,8
 2003cd4:	f800283a 	ret

02003cd8 <DGifDecompressLine>:
 2003cd8:	deffed04 	addi	sp,sp,-76
 2003cdc:	dfc01215 	stw	ra,72(sp)
 2003ce0:	df001115 	stw	fp,68(sp)
 2003ce4:	dc401015 	stw	r17,64(sp)
 2003ce8:	dc000f15 	stw	r16,60(sp)
 2003cec:	df001104 	addi	fp,sp,68
 2003cf0:	e13ffb15 	stw	r4,-20(fp)
 2003cf4:	e17ffc15 	stw	r5,-16(fp)
 2003cf8:	e1bffd15 	stw	r6,-12(fp)
 2003cfc:	e03fef15 	stw	zero,-68(fp)
 2003d00:	e0bffb17 	ldw	r2,-20(fp)
 2003d04:	10801217 	ldw	r2,72(r2)
 2003d08:	e0bff415 	stw	r2,-48(fp)
 2003d0c:	e0bff417 	ldw	r2,-48(fp)
 2003d10:	10800a17 	ldw	r2,40(r2)
 2003d14:	e0bff315 	stw	r2,-52(fp)
 2003d18:	e0bff417 	ldw	r2,-48(fp)
 2003d1c:	10885104 	addi	r2,r2,8516
 2003d20:	e0bff515 	stw	r2,-44(fp)
 2003d24:	e0bff417 	ldw	r2,-48(fp)
 2003d28:	108450c4 	addi	r2,r2,4419
 2003d2c:	e0bff615 	stw	r2,-40(fp)
 2003d30:	e0bff417 	ldw	r2,-48(fp)
 2003d34:	10805104 	addi	r2,r2,324
 2003d38:	e0bff715 	stw	r2,-36(fp)
 2003d3c:	e0bff417 	ldw	r2,-48(fp)
 2003d40:	10800417 	ldw	r2,16(r2)
 2003d44:	e0bff815 	stw	r2,-32(fp)
 2003d48:	e0bff417 	ldw	r2,-48(fp)
 2003d4c:	10800317 	ldw	r2,12(r2)
 2003d50:	e0bff915 	stw	r2,-28(fp)
 2003d54:	e0bff417 	ldw	r2,-48(fp)
 2003d58:	10800817 	ldw	r2,32(r2)
 2003d5c:	e0bff215 	stw	r2,-56(fp)
 2003d60:	e0bff317 	ldw	r2,-52(fp)
 2003d64:	10840010 	cmplti	r2,r2,4096
 2003d68:	1000021e 	bne	r2,zero,2003d74 <DGifDecompressLine+0x9c>
 2003d6c:	0005883a 	mov	r2,zero
 2003d70:	00010c06 	br	20041a4 <DGifDecompressLine+0x4cc>
 2003d74:	e0bff317 	ldw	r2,-52(fp)
 2003d78:	10001326 	beq	r2,zero,2003dc8 <DGifDecompressLine+0xf0>
 2003d7c:	00000d06 	br	2003db4 <DGifDecompressLine+0xdc>
 2003d80:	e0bfef17 	ldw	r2,-68(fp)
 2003d84:	10c00044 	addi	r3,r2,1
 2003d88:	e0ffef15 	stw	r3,-68(fp)
 2003d8c:	e0fffc17 	ldw	r3,-16(fp)
 2003d90:	1885883a 	add	r2,r3,r2
 2003d94:	e0fff317 	ldw	r3,-52(fp)
 2003d98:	18ffffc4 	addi	r3,r3,-1
 2003d9c:	e0fff315 	stw	r3,-52(fp)
 2003da0:	e0fff317 	ldw	r3,-52(fp)
 2003da4:	e13ff717 	ldw	r4,-36(fp)
 2003da8:	20c7883a 	add	r3,r4,r3
 2003dac:	18c00003 	ldbu	r3,0(r3)
 2003db0:	10c00005 	stb	r3,0(r2)
 2003db4:	e0bff317 	ldw	r2,-52(fp)
 2003db8:	10000326 	beq	r2,zero,2003dc8 <DGifDecompressLine+0xf0>
 2003dbc:	e0ffef17 	ldw	r3,-68(fp)
 2003dc0:	e0bffd17 	ldw	r2,-12(fp)
 2003dc4:	18bfee16 	blt	r3,r2,2003d80 <__reset+0xfdffad80>
 2003dc8:	0000ec06 	br	200417c <DGifDecompressLine+0x4a4>
 2003dcc:	e0bffa04 	addi	r2,fp,-24
 2003dd0:	e13ffb17 	ldw	r4,-20(fp)
 2003dd4:	100b883a 	mov	r5,r2
 2003dd8:	20043580 	call	2004358 <DGifDecompressInput>
 2003ddc:	1000021e 	bne	r2,zero,2003de8 <DGifDecompressLine+0x110>
 2003de0:	0005883a 	mov	r2,zero
 2003de4:	0000ef06 	br	20041a4 <DGifDecompressLine+0x4cc>
 2003de8:	e0fffa17 	ldw	r3,-24(fp)
 2003dec:	e0bff817 	ldw	r2,-32(fp)
 2003df0:	1880051e 	bne	r3,r2,2003e08 <DGifDecompressLine+0x130>
 2003df4:	e0bffb17 	ldw	r2,-20(fp)
 2003df8:	00c01c44 	movi	r3,113
 2003dfc:	10c01015 	stw	r3,64(r2)
 2003e00:	0005883a 	mov	r2,zero
 2003e04:	0000e706 	br	20041a4 <DGifDecompressLine+0x4cc>
 2003e08:	e0fffa17 	ldw	r3,-24(fp)
 2003e0c:	e0bff917 	ldw	r2,-28(fp)
 2003e10:	1880261e 	bne	r3,r2,2003eac <DGifDecompressLine+0x1d4>
 2003e14:	e03ff015 	stw	zero,-64(fp)
 2003e18:	00000a06 	br	2003e44 <DGifDecompressLine+0x16c>
 2003e1c:	e0bff017 	ldw	r2,-64(fp)
 2003e20:	1085883a 	add	r2,r2,r2
 2003e24:	1085883a 	add	r2,r2,r2
 2003e28:	e0fff517 	ldw	r3,-44(fp)
 2003e2c:	1885883a 	add	r2,r3,r2
 2003e30:	00c40084 	movi	r3,4098
 2003e34:	10c00015 	stw	r3,0(r2)
 2003e38:	e0bff017 	ldw	r2,-64(fp)
 2003e3c:	10800044 	addi	r2,r2,1
 2003e40:	e0bff015 	stw	r2,-64(fp)
 2003e44:	e0bff017 	ldw	r2,-64(fp)
 2003e48:	10840010 	cmplti	r2,r2,4096
 2003e4c:	103ff31e 	bne	r2,zero,2003e1c <__reset+0xfdffae1c>
 2003e50:	e0bff417 	ldw	r2,-48(fp)
 2003e54:	10800417 	ldw	r2,16(r2)
 2003e58:	10c00044 	addi	r3,r2,1
 2003e5c:	e0bff417 	ldw	r2,-48(fp)
 2003e60:	10c00515 	stw	r3,20(r2)
 2003e64:	e0bff417 	ldw	r2,-48(fp)
 2003e68:	10800217 	ldw	r2,8(r2)
 2003e6c:	10c00044 	addi	r3,r2,1
 2003e70:	e0bff417 	ldw	r2,-48(fp)
 2003e74:	10c00615 	stw	r3,24(r2)
 2003e78:	e0bff417 	ldw	r2,-48(fp)
 2003e7c:	10800617 	ldw	r2,24(r2)
 2003e80:	00c00044 	movi	r3,1
 2003e84:	1886983a 	sll	r3,r3,r2
 2003e88:	e0bff417 	ldw	r2,-48(fp)
 2003e8c:	10c00715 	stw	r3,28(r2)
 2003e90:	e0bff417 	ldw	r2,-48(fp)
 2003e94:	00c40084 	movi	r3,4098
 2003e98:	10c00815 	stw	r3,32(r2)
 2003e9c:	e0bff417 	ldw	r2,-48(fp)
 2003ea0:	10800817 	ldw	r2,32(r2)
 2003ea4:	e0bff215 	stw	r2,-56(fp)
 2003ea8:	0000b406 	br	200417c <DGifDecompressLine+0x4a4>
 2003eac:	e0fffa17 	ldw	r3,-24(fp)
 2003eb0:	e0bff917 	ldw	r2,-28(fp)
 2003eb4:	1880080e 	bge	r3,r2,2003ed8 <DGifDecompressLine+0x200>
 2003eb8:	e0bfef17 	ldw	r2,-68(fp)
 2003ebc:	10c00044 	addi	r3,r2,1
 2003ec0:	e0ffef15 	stw	r3,-68(fp)
 2003ec4:	e0fffc17 	ldw	r3,-16(fp)
 2003ec8:	1885883a 	add	r2,r3,r2
 2003ecc:	e0fffa17 	ldw	r3,-24(fp)
 2003ed0:	10c00005 	stb	r3,0(r2)
 2003ed4:	00007606 	br	20040b0 <DGifDecompressLine+0x3d8>
 2003ed8:	e0bffa17 	ldw	r2,-24(fp)
 2003edc:	1085883a 	add	r2,r2,r2
 2003ee0:	1085883a 	add	r2,r2,r2
 2003ee4:	e0fff517 	ldw	r3,-44(fp)
 2003ee8:	1885883a 	add	r2,r3,r2
 2003eec:	10800017 	ldw	r2,0(r2)
 2003ef0:	10840098 	cmpnei	r2,r2,4098
 2003ef4:	10002c1e 	bne	r2,zero,2003fa8 <DGifDecompressLine+0x2d0>
 2003ef8:	e0bff217 	ldw	r2,-56(fp)
 2003efc:	e0bff115 	stw	r2,-60(fp)
 2003f00:	e0bff417 	ldw	r2,-48(fp)
 2003f04:	10800517 	ldw	r2,20(r2)
 2003f08:	10ffff84 	addi	r3,r2,-2
 2003f0c:	e0bffa17 	ldw	r2,-24(fp)
 2003f10:	1880121e 	bne	r3,r2,2003f5c <DGifDecompressLine+0x284>
 2003f14:	e0bff417 	ldw	r2,-48(fp)
 2003f18:	10800517 	ldw	r2,20(r2)
 2003f1c:	10bfff84 	addi	r2,r2,-2
 2003f20:	e0fff617 	ldw	r3,-40(fp)
 2003f24:	18a3883a 	add	r17,r3,r2
 2003f28:	e0bff317 	ldw	r2,-52(fp)
 2003f2c:	10c00044 	addi	r3,r2,1
 2003f30:	e0fff315 	stw	r3,-52(fp)
 2003f34:	e0fff717 	ldw	r3,-36(fp)
 2003f38:	18a1883a 	add	r16,r3,r2
 2003f3c:	e13ff517 	ldw	r4,-44(fp)
 2003f40:	e17ff217 	ldw	r5,-56(fp)
 2003f44:	e1bff917 	ldw	r6,-28(fp)
 2003f48:	20041c00 	call	20041c0 <DGifGetPrefixChar>
 2003f4c:	80800005 	stb	r2,0(r16)
 2003f50:	80800003 	ldbu	r2,0(r16)
 2003f54:	88800005 	stb	r2,0(r17)
 2003f58:	00002706 	br	2003ff8 <DGifDecompressLine+0x320>
 2003f5c:	e0bff417 	ldw	r2,-48(fp)
 2003f60:	10800517 	ldw	r2,20(r2)
 2003f64:	10bfff84 	addi	r2,r2,-2
 2003f68:	e0fff617 	ldw	r3,-40(fp)
 2003f6c:	18a3883a 	add	r17,r3,r2
 2003f70:	e0bff317 	ldw	r2,-52(fp)
 2003f74:	10c00044 	addi	r3,r2,1
 2003f78:	e0fff315 	stw	r3,-52(fp)
 2003f7c:	e0fff717 	ldw	r3,-36(fp)
 2003f80:	18a1883a 	add	r16,r3,r2
 2003f84:	e0bffa17 	ldw	r2,-24(fp)
 2003f88:	e13ff517 	ldw	r4,-44(fp)
 2003f8c:	100b883a 	mov	r5,r2
 2003f90:	e1bff917 	ldw	r6,-28(fp)
 2003f94:	20041c00 	call	20041c0 <DGifGetPrefixChar>
 2003f98:	80800005 	stb	r2,0(r16)
 2003f9c:	80800003 	ldbu	r2,0(r16)
 2003fa0:	88800005 	stb	r2,0(r17)
 2003fa4:	00001406 	br	2003ff8 <DGifDecompressLine+0x320>
 2003fa8:	e0bffa17 	ldw	r2,-24(fp)
 2003fac:	e0bff115 	stw	r2,-60(fp)
 2003fb0:	00001106 	br	2003ff8 <DGifDecompressLine+0x320>
 2003fb4:	e0bff317 	ldw	r2,-52(fp)
 2003fb8:	10c00044 	addi	r3,r2,1
 2003fbc:	e0fff315 	stw	r3,-52(fp)
 2003fc0:	e0fff717 	ldw	r3,-36(fp)
 2003fc4:	1885883a 	add	r2,r3,r2
 2003fc8:	e0fff117 	ldw	r3,-60(fp)
 2003fcc:	e13ff617 	ldw	r4,-40(fp)
 2003fd0:	20c7883a 	add	r3,r4,r3
 2003fd4:	18c00003 	ldbu	r3,0(r3)
 2003fd8:	10c00005 	stb	r3,0(r2)
 2003fdc:	e0bff117 	ldw	r2,-60(fp)
 2003fe0:	1085883a 	add	r2,r2,r2
 2003fe4:	1085883a 	add	r2,r2,r2
 2003fe8:	e0fff517 	ldw	r3,-44(fp)
 2003fec:	1885883a 	add	r2,r3,r2
 2003ff0:	10800017 	ldw	r2,0(r2)
 2003ff4:	e0bff115 	stw	r2,-60(fp)
 2003ff8:	e0bff317 	ldw	r2,-52(fp)
 2003ffc:	1083ffc8 	cmpgei	r2,r2,4095
 2004000:	1000061e 	bne	r2,zero,200401c <DGifDecompressLine+0x344>
 2004004:	e0bff117 	ldw	r2,-60(fp)
 2004008:	e0fff917 	ldw	r3,-28(fp)
 200400c:	1880030e 	bge	r3,r2,200401c <DGifDecompressLine+0x344>
 2004010:	e0bff117 	ldw	r2,-60(fp)
 2004014:	10840010 	cmplti	r2,r2,4096
 2004018:	103fe61e 	bne	r2,zero,2003fb4 <__reset+0xfdffafb4>
 200401c:	e0bff317 	ldw	r2,-52(fp)
 2004020:	1083ffc8 	cmpgei	r2,r2,4095
 2004024:	1000031e 	bne	r2,zero,2004034 <DGifDecompressLine+0x35c>
 2004028:	e0bff117 	ldw	r2,-60(fp)
 200402c:	10840010 	cmplti	r2,r2,4096
 2004030:	1000051e 	bne	r2,zero,2004048 <DGifDecompressLine+0x370>
 2004034:	e0bffb17 	ldw	r2,-20(fp)
 2004038:	00c01c04 	movi	r3,112
 200403c:	10c01015 	stw	r3,64(r2)
 2004040:	0005883a 	mov	r2,zero
 2004044:	00005706 	br	20041a4 <DGifDecompressLine+0x4cc>
 2004048:	e0bff317 	ldw	r2,-52(fp)
 200404c:	10c00044 	addi	r3,r2,1
 2004050:	e0fff315 	stw	r3,-52(fp)
 2004054:	e0fff717 	ldw	r3,-36(fp)
 2004058:	1885883a 	add	r2,r3,r2
 200405c:	e0fff117 	ldw	r3,-60(fp)
 2004060:	10c00005 	stb	r3,0(r2)
 2004064:	00000d06 	br	200409c <DGifDecompressLine+0x3c4>
 2004068:	e0bfef17 	ldw	r2,-68(fp)
 200406c:	10c00044 	addi	r3,r2,1
 2004070:	e0ffef15 	stw	r3,-68(fp)
 2004074:	e0fffc17 	ldw	r3,-16(fp)
 2004078:	1885883a 	add	r2,r3,r2
 200407c:	e0fff317 	ldw	r3,-52(fp)
 2004080:	18ffffc4 	addi	r3,r3,-1
 2004084:	e0fff315 	stw	r3,-52(fp)
 2004088:	e0fff317 	ldw	r3,-52(fp)
 200408c:	e13ff717 	ldw	r4,-36(fp)
 2004090:	20c7883a 	add	r3,r4,r3
 2004094:	18c00003 	ldbu	r3,0(r3)
 2004098:	10c00005 	stb	r3,0(r2)
 200409c:	e0bff317 	ldw	r2,-52(fp)
 20040a0:	10000326 	beq	r2,zero,20040b0 <DGifDecompressLine+0x3d8>
 20040a4:	e0ffef17 	ldw	r3,-68(fp)
 20040a8:	e0bffd17 	ldw	r2,-12(fp)
 20040ac:	18bfee16 	blt	r3,r2,2004068 <__reset+0xfdffb068>
 20040b0:	e0bff217 	ldw	r2,-56(fp)
 20040b4:	108400a0 	cmpeqi	r2,r2,4098
 20040b8:	10002e1e 	bne	r2,zero,2004174 <DGifDecompressLine+0x49c>
 20040bc:	e0bff417 	ldw	r2,-48(fp)
 20040c0:	10800517 	ldw	r2,20(r2)
 20040c4:	1085883a 	add	r2,r2,r2
 20040c8:	1085883a 	add	r2,r2,r2
 20040cc:	10bffe04 	addi	r2,r2,-8
 20040d0:	e0fff517 	ldw	r3,-44(fp)
 20040d4:	1885883a 	add	r2,r3,r2
 20040d8:	10800017 	ldw	r2,0(r2)
 20040dc:	10840098 	cmpnei	r2,r2,4098
 20040e0:	1000241e 	bne	r2,zero,2004174 <DGifDecompressLine+0x49c>
 20040e4:	e0bff417 	ldw	r2,-48(fp)
 20040e8:	10800517 	ldw	r2,20(r2)
 20040ec:	1085883a 	add	r2,r2,r2
 20040f0:	1085883a 	add	r2,r2,r2
 20040f4:	10bffe04 	addi	r2,r2,-8
 20040f8:	e0fff517 	ldw	r3,-44(fp)
 20040fc:	1885883a 	add	r2,r3,r2
 2004100:	e0fff217 	ldw	r3,-56(fp)
 2004104:	10c00015 	stw	r3,0(r2)
 2004108:	e0bff417 	ldw	r2,-48(fp)
 200410c:	10800517 	ldw	r2,20(r2)
 2004110:	10ffff84 	addi	r3,r2,-2
 2004114:	e0bffa17 	ldw	r2,-24(fp)
 2004118:	18800b1e 	bne	r3,r2,2004148 <DGifDecompressLine+0x470>
 200411c:	e0bff417 	ldw	r2,-48(fp)
 2004120:	10800517 	ldw	r2,20(r2)
 2004124:	10bfff84 	addi	r2,r2,-2
 2004128:	e0fff617 	ldw	r3,-40(fp)
 200412c:	18a1883a 	add	r16,r3,r2
 2004130:	e13ff517 	ldw	r4,-44(fp)
 2004134:	e17ff217 	ldw	r5,-56(fp)
 2004138:	e1bff917 	ldw	r6,-28(fp)
 200413c:	20041c00 	call	20041c0 <DGifGetPrefixChar>
 2004140:	80800005 	stb	r2,0(r16)
 2004144:	00000b06 	br	2004174 <DGifDecompressLine+0x49c>
 2004148:	e0bff417 	ldw	r2,-48(fp)
 200414c:	10800517 	ldw	r2,20(r2)
 2004150:	10bfff84 	addi	r2,r2,-2
 2004154:	e0fff617 	ldw	r3,-40(fp)
 2004158:	18a1883a 	add	r16,r3,r2
 200415c:	e0bffa17 	ldw	r2,-24(fp)
 2004160:	e13ff517 	ldw	r4,-44(fp)
 2004164:	100b883a 	mov	r5,r2
 2004168:	e1bff917 	ldw	r6,-28(fp)
 200416c:	20041c00 	call	20041c0 <DGifGetPrefixChar>
 2004170:	80800005 	stb	r2,0(r16)
 2004174:	e0bffa17 	ldw	r2,-24(fp)
 2004178:	e0bff215 	stw	r2,-56(fp)
 200417c:	e0ffef17 	ldw	r3,-68(fp)
 2004180:	e0bffd17 	ldw	r2,-12(fp)
 2004184:	18bf1116 	blt	r3,r2,2003dcc <__reset+0xfdffadcc>
 2004188:	e0bff417 	ldw	r2,-48(fp)
 200418c:	e0fff217 	ldw	r3,-56(fp)
 2004190:	10c00815 	stw	r3,32(r2)
 2004194:	e0bff417 	ldw	r2,-48(fp)
 2004198:	e0fff317 	ldw	r3,-52(fp)
 200419c:	10c00a15 	stw	r3,40(r2)
 20041a0:	00800044 	movi	r2,1
 20041a4:	e6fffe04 	addi	sp,fp,-8
 20041a8:	dfc00317 	ldw	ra,12(sp)
 20041ac:	df000217 	ldw	fp,8(sp)
 20041b0:	dc400117 	ldw	r17,4(sp)
 20041b4:	dc000017 	ldw	r16,0(sp)
 20041b8:	dec00404 	addi	sp,sp,16
 20041bc:	f800283a 	ret

020041c0 <DGifGetPrefixChar>:
 20041c0:	defffb04 	addi	sp,sp,-20
 20041c4:	df000415 	stw	fp,16(sp)
 20041c8:	df000404 	addi	fp,sp,16
 20041cc:	e13ffd15 	stw	r4,-12(fp)
 20041d0:	e17ffe15 	stw	r5,-8(fp)
 20041d4:	e1bfff15 	stw	r6,-4(fp)
 20041d8:	e03ffc15 	stw	zero,-16(fp)
 20041dc:	00000c06 	br	2004210 <DGifGetPrefixChar+0x50>
 20041e0:	e0bffe17 	ldw	r2,-8(fp)
 20041e4:	10840010 	cmplti	r2,r2,4096
 20041e8:	1000021e 	bne	r2,zero,20041f4 <DGifGetPrefixChar+0x34>
 20041ec:	00840084 	movi	r2,4098
 20041f0:	00001006 	br	2004234 <DGifGetPrefixChar+0x74>
 20041f4:	e0bffe17 	ldw	r2,-8(fp)
 20041f8:	1085883a 	add	r2,r2,r2
 20041fc:	1085883a 	add	r2,r2,r2
 2004200:	e0fffd17 	ldw	r3,-12(fp)
 2004204:	1885883a 	add	r2,r3,r2
 2004208:	10800017 	ldw	r2,0(r2)
 200420c:	e0bffe15 	stw	r2,-8(fp)
 2004210:	e0bffe17 	ldw	r2,-8(fp)
 2004214:	e0ffff17 	ldw	r3,-4(fp)
 2004218:	1880050e 	bge	r3,r2,2004230 <DGifGetPrefixChar+0x70>
 200421c:	e0bffc17 	ldw	r2,-16(fp)
 2004220:	10c00044 	addi	r3,r2,1
 2004224:	e0fffc15 	stw	r3,-16(fp)
 2004228:	10840010 	cmplti	r2,r2,4096
 200422c:	103fec1e 	bne	r2,zero,20041e0 <__reset+0xfdffb1e0>
 2004230:	e0bffe17 	ldw	r2,-8(fp)
 2004234:	e037883a 	mov	sp,fp
 2004238:	df000017 	ldw	fp,0(sp)
 200423c:	dec00104 	addi	sp,sp,4
 2004240:	f800283a 	ret

02004244 <DGifGetLZCodes>:
 2004244:	defffa04 	addi	sp,sp,-24
 2004248:	dfc00515 	stw	ra,20(sp)
 200424c:	df000415 	stw	fp,16(sp)
 2004250:	df000404 	addi	fp,sp,16
 2004254:	e13ffe15 	stw	r4,-8(fp)
 2004258:	e17fff15 	stw	r5,-4(fp)
 200425c:	e0bffe17 	ldw	r2,-8(fp)
 2004260:	10801217 	ldw	r2,72(r2)
 2004264:	e0bffc15 	stw	r2,-16(fp)
 2004268:	e0bffc17 	ldw	r2,-16(fp)
 200426c:	10800017 	ldw	r2,0(r2)
 2004270:	1080020c 	andi	r2,r2,8
 2004274:	1000051e 	bne	r2,zero,200428c <DGifGetLZCodes+0x48>
 2004278:	e0bffe17 	ldw	r2,-8(fp)
 200427c:	00c01bc4 	movi	r3,111
 2004280:	10c01015 	stw	r3,64(r2)
 2004284:	0005883a 	mov	r2,zero
 2004288:	00002e06 	br	2004344 <DGifGetLZCodes+0x100>
 200428c:	e13ffe17 	ldw	r4,-8(fp)
 2004290:	e17fff17 	ldw	r5,-4(fp)
 2004294:	20043580 	call	2004358 <DGifDecompressInput>
 2004298:	1000021e 	bne	r2,zero,20042a4 <DGifGetLZCodes+0x60>
 200429c:	0005883a 	mov	r2,zero
 20042a0:	00002806 	br	2004344 <DGifGetLZCodes+0x100>
 20042a4:	e0bfff17 	ldw	r2,-4(fp)
 20042a8:	10c00017 	ldw	r3,0(r2)
 20042ac:	e0bffc17 	ldw	r2,-16(fp)
 20042b0:	10800417 	ldw	r2,16(r2)
 20042b4:	18800d1e 	bne	r3,r2,20042ec <DGifGetLZCodes+0xa8>
 20042b8:	e0bffd04 	addi	r2,fp,-12
 20042bc:	e13ffe17 	ldw	r4,-8(fp)
 20042c0:	100b883a 	mov	r5,r2
 20042c4:	20039840 	call	2003984 <DGifGetCodeNext>
 20042c8:	1000021e 	bne	r2,zero,20042d4 <DGifGetLZCodes+0x90>
 20042cc:	0005883a 	mov	r2,zero
 20042d0:	00001c06 	br	2004344 <DGifGetLZCodes+0x100>
 20042d4:	e0bffd17 	ldw	r2,-12(fp)
 20042d8:	103ff71e 	bne	r2,zero,20042b8 <__reset+0xfdffb2b8>
 20042dc:	e0bfff17 	ldw	r2,-4(fp)
 20042e0:	00ffffc4 	movi	r3,-1
 20042e4:	10c00015 	stw	r3,0(r2)
 20042e8:	00001506 	br	2004340 <DGifGetLZCodes+0xfc>
 20042ec:	e0bfff17 	ldw	r2,-4(fp)
 20042f0:	10c00017 	ldw	r3,0(r2)
 20042f4:	e0bffc17 	ldw	r2,-16(fp)
 20042f8:	10800317 	ldw	r2,12(r2)
 20042fc:	1880101e 	bne	r3,r2,2004340 <DGifGetLZCodes+0xfc>
 2004300:	e0bffc17 	ldw	r2,-16(fp)
 2004304:	10800417 	ldw	r2,16(r2)
 2004308:	10c00044 	addi	r3,r2,1
 200430c:	e0bffc17 	ldw	r2,-16(fp)
 2004310:	10c00515 	stw	r3,20(r2)
 2004314:	e0bffc17 	ldw	r2,-16(fp)
 2004318:	10800217 	ldw	r2,8(r2)
 200431c:	10c00044 	addi	r3,r2,1
 2004320:	e0bffc17 	ldw	r2,-16(fp)
 2004324:	10c00615 	stw	r3,24(r2)
 2004328:	e0bffc17 	ldw	r2,-16(fp)
 200432c:	10800617 	ldw	r2,24(r2)
 2004330:	00c00044 	movi	r3,1
 2004334:	1886983a 	sll	r3,r3,r2
 2004338:	e0bffc17 	ldw	r2,-16(fp)
 200433c:	10c00715 	stw	r3,28(r2)
 2004340:	00800044 	movi	r2,1
 2004344:	e037883a 	mov	sp,fp
 2004348:	dfc00117 	ldw	ra,4(sp)
 200434c:	df000017 	ldw	fp,0(sp)
 2004350:	dec00204 	addi	sp,sp,8
 2004354:	f800283a 	ret

02004358 <DGifDecompressInput>:
 2004358:	defffa04 	addi	sp,sp,-24
 200435c:	dfc00515 	stw	ra,20(sp)
 2004360:	df000415 	stw	fp,16(sp)
 2004364:	df000404 	addi	fp,sp,16
 2004368:	e13ffe15 	stw	r4,-8(fp)
 200436c:	e17fff15 	stw	r5,-4(fp)
 2004370:	e0bffe17 	ldw	r2,-8(fp)
 2004374:	10801217 	ldw	r2,72(r2)
 2004378:	e0bffc15 	stw	r2,-16(fp)
 200437c:	e0bffc17 	ldw	r2,-16(fp)
 2004380:	10800617 	ldw	r2,24(r2)
 2004384:	10800350 	cmplti	r2,r2,13
 2004388:	1000051e 	bne	r2,zero,20043a0 <DGifDecompressInput+0x48>
 200438c:	e0bffe17 	ldw	r2,-8(fp)
 2004390:	00c01c04 	movi	r3,112
 2004394:	10c01015 	stw	r3,64(r2)
 2004398:	0005883a 	mov	r2,zero
 200439c:	00005906 	br	2004504 <DGifDecompressInput+0x1ac>
 20043a0:	00001906 	br	2004408 <DGifDecompressInput+0xb0>
 20043a4:	e0bffc17 	ldw	r2,-16(fp)
 20043a8:	10c01104 	addi	r3,r2,68
 20043ac:	e0bffd04 	addi	r2,fp,-12
 20043b0:	e13ffe17 	ldw	r4,-8(fp)
 20043b4:	180b883a 	mov	r5,r3
 20043b8:	100d883a 	mov	r6,r2
 20043bc:	20045180 	call	2004518 <DGifBufferedInput>
 20043c0:	1000021e 	bne	r2,zero,20043cc <DGifDecompressInput+0x74>
 20043c4:	0005883a 	mov	r2,zero
 20043c8:	00004e06 	br	2004504 <DGifDecompressInput+0x1ac>
 20043cc:	e0bffc17 	ldw	r2,-16(fp)
 20043d0:	10c00c17 	ldw	r3,48(r2)
 20043d4:	e0bffd03 	ldbu	r2,-12(fp)
 20043d8:	11003fcc 	andi	r4,r2,255
 20043dc:	e0bffc17 	ldw	r2,-16(fp)
 20043e0:	10800b17 	ldw	r2,44(r2)
 20043e4:	2084983a 	sll	r2,r4,r2
 20043e8:	1886b03a 	or	r3,r3,r2
 20043ec:	e0bffc17 	ldw	r2,-16(fp)
 20043f0:	10c00c15 	stw	r3,48(r2)
 20043f4:	e0bffc17 	ldw	r2,-16(fp)
 20043f8:	10800b17 	ldw	r2,44(r2)
 20043fc:	10c00204 	addi	r3,r2,8
 2004400:	e0bffc17 	ldw	r2,-16(fp)
 2004404:	10c00b15 	stw	r3,44(r2)
 2004408:	e0bffc17 	ldw	r2,-16(fp)
 200440c:	10c00b17 	ldw	r3,44(r2)
 2004410:	e0bffc17 	ldw	r2,-16(fp)
 2004414:	10800617 	ldw	r2,24(r2)
 2004418:	18bfe216 	blt	r3,r2,20043a4 <__reset+0xfdffb3a4>
 200441c:	e0bffc17 	ldw	r2,-16(fp)
 2004420:	10c00c17 	ldw	r3,48(r2)
 2004424:	e0bffc17 	ldw	r2,-16(fp)
 2004428:	10800617 	ldw	r2,24(r2)
 200442c:	010080b4 	movhi	r4,514
 2004430:	213b6d04 	addi	r4,r4,-4684
 2004434:	1085883a 	add	r2,r2,r2
 2004438:	2085883a 	add	r2,r4,r2
 200443c:	1080000b 	ldhu	r2,0(r2)
 2004440:	10bfffcc 	andi	r2,r2,65535
 2004444:	1884703a 	and	r2,r3,r2
 2004448:	1007883a 	mov	r3,r2
 200444c:	e0bfff17 	ldw	r2,-4(fp)
 2004450:	10c00015 	stw	r3,0(r2)
 2004454:	e0bffc17 	ldw	r2,-16(fp)
 2004458:	10c00c17 	ldw	r3,48(r2)
 200445c:	e0bffc17 	ldw	r2,-16(fp)
 2004460:	10800617 	ldw	r2,24(r2)
 2004464:	1886d83a 	srl	r3,r3,r2
 2004468:	e0bffc17 	ldw	r2,-16(fp)
 200446c:	10c00c15 	stw	r3,48(r2)
 2004470:	e0bffc17 	ldw	r2,-16(fp)
 2004474:	10c00b17 	ldw	r3,44(r2)
 2004478:	e0bffc17 	ldw	r2,-16(fp)
 200447c:	10800617 	ldw	r2,24(r2)
 2004480:	1887c83a 	sub	r3,r3,r2
 2004484:	e0bffc17 	ldw	r2,-16(fp)
 2004488:	10c00b15 	stw	r3,44(r2)
 200448c:	e0bffc17 	ldw	r2,-16(fp)
 2004490:	10800517 	ldw	r2,20(r2)
 2004494:	10840048 	cmpgei	r2,r2,4097
 2004498:	1000191e 	bne	r2,zero,2004500 <DGifDecompressInput+0x1a8>
 200449c:	e0bffc17 	ldw	r2,-16(fp)
 20044a0:	10800517 	ldw	r2,20(r2)
 20044a4:	10c00044 	addi	r3,r2,1
 20044a8:	e0bffc17 	ldw	r2,-16(fp)
 20044ac:	10c00515 	stw	r3,20(r2)
 20044b0:	e0bffc17 	ldw	r2,-16(fp)
 20044b4:	10800517 	ldw	r2,20(r2)
 20044b8:	e0fffc17 	ldw	r3,-16(fp)
 20044bc:	18c00717 	ldw	r3,28(r3)
 20044c0:	18800f0e 	bge	r3,r2,2004500 <DGifDecompressInput+0x1a8>
 20044c4:	e0bffc17 	ldw	r2,-16(fp)
 20044c8:	10800617 	ldw	r2,24(r2)
 20044cc:	10800308 	cmpgei	r2,r2,12
 20044d0:	10000b1e 	bne	r2,zero,2004500 <DGifDecompressInput+0x1a8>
 20044d4:	e0bffc17 	ldw	r2,-16(fp)
 20044d8:	10800717 	ldw	r2,28(r2)
 20044dc:	1085883a 	add	r2,r2,r2
 20044e0:	1007883a 	mov	r3,r2
 20044e4:	e0bffc17 	ldw	r2,-16(fp)
 20044e8:	10c00715 	stw	r3,28(r2)
 20044ec:	e0bffc17 	ldw	r2,-16(fp)
 20044f0:	10800617 	ldw	r2,24(r2)
 20044f4:	10c00044 	addi	r3,r2,1
 20044f8:	e0bffc17 	ldw	r2,-16(fp)
 20044fc:	10c00615 	stw	r3,24(r2)
 2004500:	00800044 	movi	r2,1
 2004504:	e037883a 	mov	sp,fp
 2004508:	dfc00117 	ldw	ra,4(sp)
 200450c:	df000017 	ldw	fp,0(sp)
 2004510:	dec00204 	addi	sp,sp,8
 2004514:	f800283a 	ret

02004518 <DGifBufferedInput>:
 2004518:	defffb04 	addi	sp,sp,-20
 200451c:	dfc00415 	stw	ra,16(sp)
 2004520:	df000315 	stw	fp,12(sp)
 2004524:	df000304 	addi	fp,sp,12
 2004528:	e13ffd15 	stw	r4,-12(fp)
 200452c:	e17ffe15 	stw	r5,-8(fp)
 2004530:	e1bfff15 	stw	r6,-4(fp)
 2004534:	e0bffe17 	ldw	r2,-8(fp)
 2004538:	10800003 	ldbu	r2,0(r2)
 200453c:	10803fcc 	andi	r2,r2,255
 2004540:	10005a1e 	bne	r2,zero,20046ac <DGifBufferedInput+0x194>
 2004544:	e0bffd17 	ldw	r2,-12(fp)
 2004548:	10801217 	ldw	r2,72(r2)
 200454c:	10800f17 	ldw	r2,60(r2)
 2004550:	10000926 	beq	r2,zero,2004578 <DGifBufferedInput+0x60>
 2004554:	e0bffd17 	ldw	r2,-12(fp)
 2004558:	10801217 	ldw	r2,72(r2)
 200455c:	10800f17 	ldw	r2,60(r2)
 2004560:	e13ffd17 	ldw	r4,-12(fp)
 2004564:	e17ffe17 	ldw	r5,-8(fp)
 2004568:	01800044 	movi	r6,1
 200456c:	103ee83a 	callr	r2
 2004570:	10800058 	cmpnei	r2,r2,1
 2004574:	00000906 	br	200459c <DGifBufferedInput+0x84>
 2004578:	e0bffd17 	ldw	r2,-12(fp)
 200457c:	10801217 	ldw	r2,72(r2)
 2004580:	10800e17 	ldw	r2,56(r2)
 2004584:	e13ffe17 	ldw	r4,-8(fp)
 2004588:	01400044 	movi	r5,1
 200458c:	01800044 	movi	r6,1
 2004590:	100f883a 	mov	r7,r2
 2004594:	20078f00 	call	20078f0 <fread>
 2004598:	10800058 	cmpnei	r2,r2,1
 200459c:	10803fcc 	andi	r2,r2,255
 20045a0:	10000526 	beq	r2,zero,20045b8 <DGifBufferedInput+0xa0>
 20045a4:	e0bffd17 	ldw	r2,-12(fp)
 20045a8:	00c01984 	movi	r3,102
 20045ac:	10c01015 	stw	r3,64(r2)
 20045b0:	0005883a 	mov	r2,zero
 20045b4:	00004f06 	br	20046f4 <DGifBufferedInput+0x1dc>
 20045b8:	e0bffe17 	ldw	r2,-8(fp)
 20045bc:	10800003 	ldbu	r2,0(r2)
 20045c0:	10803fcc 	andi	r2,r2,255
 20045c4:	1000051e 	bne	r2,zero,20045dc <DGifBufferedInput+0xc4>
 20045c8:	e0bffd17 	ldw	r2,-12(fp)
 20045cc:	00c01c04 	movi	r3,112
 20045d0:	10c01015 	stw	r3,64(r2)
 20045d4:	0005883a 	mov	r2,zero
 20045d8:	00004606 	br	20046f4 <DGifBufferedInput+0x1dc>
 20045dc:	e0bffd17 	ldw	r2,-12(fp)
 20045e0:	10801217 	ldw	r2,72(r2)
 20045e4:	10800f17 	ldw	r2,60(r2)
 20045e8:	10000c26 	beq	r2,zero,200461c <DGifBufferedInput+0x104>
 20045ec:	e0bffd17 	ldw	r2,-12(fp)
 20045f0:	10801217 	ldw	r2,72(r2)
 20045f4:	10800f17 	ldw	r2,60(r2)
 20045f8:	e0fffe17 	ldw	r3,-8(fp)
 20045fc:	19400044 	addi	r5,r3,1
 2004600:	e0fffe17 	ldw	r3,-8(fp)
 2004604:	18c00003 	ldbu	r3,0(r3)
 2004608:	18c03fcc 	andi	r3,r3,255
 200460c:	e13ffd17 	ldw	r4,-12(fp)
 2004610:	180d883a 	mov	r6,r3
 2004614:	103ee83a 	callr	r2
 2004618:	00000c06 	br	200464c <DGifBufferedInput+0x134>
 200461c:	e0bffe17 	ldw	r2,-8(fp)
 2004620:	11000044 	addi	r4,r2,1
 2004624:	e0bffe17 	ldw	r2,-8(fp)
 2004628:	10800003 	ldbu	r2,0(r2)
 200462c:	10c03fcc 	andi	r3,r2,255
 2004630:	e0bffd17 	ldw	r2,-12(fp)
 2004634:	10801217 	ldw	r2,72(r2)
 2004638:	10800e17 	ldw	r2,56(r2)
 200463c:	01400044 	movi	r5,1
 2004640:	180d883a 	mov	r6,r3
 2004644:	100f883a 	mov	r7,r2
 2004648:	20078f00 	call	20078f0 <fread>
 200464c:	e0fffe17 	ldw	r3,-8(fp)
 2004650:	18c00003 	ldbu	r3,0(r3)
 2004654:	18c03fcc 	andi	r3,r3,255
 2004658:	10c00526 	beq	r2,r3,2004670 <DGifBufferedInput+0x158>
 200465c:	e0bffd17 	ldw	r2,-12(fp)
 2004660:	00c01984 	movi	r3,102
 2004664:	10c01015 	stw	r3,64(r2)
 2004668:	0005883a 	mov	r2,zero
 200466c:	00002106 	br	20046f4 <DGifBufferedInput+0x1dc>
 2004670:	e0bffe17 	ldw	r2,-8(fp)
 2004674:	10c00043 	ldbu	r3,1(r2)
 2004678:	e0bfff17 	ldw	r2,-4(fp)
 200467c:	10c00005 	stb	r3,0(r2)
 2004680:	e0bffe17 	ldw	r2,-8(fp)
 2004684:	10800044 	addi	r2,r2,1
 2004688:	00c00084 	movi	r3,2
 200468c:	10c00005 	stb	r3,0(r2)
 2004690:	e0bffe17 	ldw	r2,-8(fp)
 2004694:	10800003 	ldbu	r2,0(r2)
 2004698:	10bfffc4 	addi	r2,r2,-1
 200469c:	1007883a 	mov	r3,r2
 20046a0:	e0bffe17 	ldw	r2,-8(fp)
 20046a4:	10c00005 	stb	r3,0(r2)
 20046a8:	00001106 	br	20046f0 <DGifBufferedInput+0x1d8>
 20046ac:	e0bffe17 	ldw	r2,-8(fp)
 20046b0:	10c00044 	addi	r3,r2,1
 20046b4:	18800003 	ldbu	r2,0(r3)
 20046b8:	11000044 	addi	r4,r2,1
 20046bc:	19000005 	stb	r4,0(r3)
 20046c0:	10803fcc 	andi	r2,r2,255
 20046c4:	e0fffe17 	ldw	r3,-8(fp)
 20046c8:	1885883a 	add	r2,r3,r2
 20046cc:	10c00003 	ldbu	r3,0(r2)
 20046d0:	e0bfff17 	ldw	r2,-4(fp)
 20046d4:	10c00005 	stb	r3,0(r2)
 20046d8:	e0bffe17 	ldw	r2,-8(fp)
 20046dc:	10800003 	ldbu	r2,0(r2)
 20046e0:	10bfffc4 	addi	r2,r2,-1
 20046e4:	1007883a 	mov	r3,r2
 20046e8:	e0bffe17 	ldw	r2,-8(fp)
 20046ec:	10c00005 	stb	r3,0(r2)
 20046f0:	00800044 	movi	r2,1
 20046f4:	e037883a 	mov	sp,fp
 20046f8:	dfc00117 	ldw	ra,4(sp)
 20046fc:	df000017 	ldw	fp,0(sp)
 2004700:	dec00204 	addi	sp,sp,8
 2004704:	f800283a 	ret

02004708 <DGifSlurp>:
 2004708:	deffec04 	addi	sp,sp,-80
 200470c:	dfc01315 	stw	ra,76(sp)
 2004710:	df001215 	stw	fp,72(sp)
 2004714:	dc001115 	stw	r16,68(sp)
 2004718:	df001204 	addi	fp,sp,72
 200471c:	e13ffe15 	stw	r4,-8(fp)
 2004720:	e0bffe17 	ldw	r2,-8(fp)
 2004724:	10000f15 	stw	zero,60(r2)
 2004728:	e0bffe17 	ldw	r2,-8(fp)
 200472c:	10000e15 	stw	zero,56(r2)
 2004730:	e0bff304 	addi	r2,fp,-52
 2004734:	e13ffe17 	ldw	r4,-8(fp)
 2004738:	100b883a 	mov	r5,r2
 200473c:	2002a140 	call	2002a14 <DGifGetRecordType>
 2004740:	1000021e 	bne	r2,zero,200474c <DGifSlurp+0x44>
 2004744:	0005883a 	mov	r2,zero
 2004748:	0000e206 	br	2004ad4 <DGifSlurp+0x3cc>
 200474c:	e0bff317 	ldw	r2,-52(fp)
 2004750:	10c000e0 	cmpeqi	r3,r2,3
 2004754:	1800981e 	bne	r3,zero,20049b8 <DGifSlurp+0x2b0>
 2004758:	10c00120 	cmpeqi	r3,r2,4
 200475c:	1800d01e 	bne	r3,zero,2004aa0 <DGifSlurp+0x398>
 2004760:	108000a0 	cmpeqi	r2,r2,2
 2004764:	1000011e 	bne	r2,zero,200476c <DGifSlurp+0x64>
 2004768:	0000ce06 	br	2004aa4 <DGifSlurp+0x39c>
 200476c:	e13ffe17 	ldw	r4,-8(fp)
 2004770:	2002b600 	call	2002b60 <DGifGetImageDesc>
 2004774:	1000021e 	bne	r2,zero,2004780 <DGifSlurp+0x78>
 2004778:	0005883a 	mov	r2,zero
 200477c:	0000d506 	br	2004ad4 <DGifSlurp+0x3cc>
 2004780:	e0bffe17 	ldw	r2,-8(fp)
 2004784:	14000d17 	ldw	r16,52(r2)
 2004788:	e0bffe17 	ldw	r2,-8(fp)
 200478c:	10800617 	ldw	r2,24(r2)
 2004790:	1009883a 	mov	r4,r2
 2004794:	01400904 	movi	r5,36
 2004798:	20059200 	call	2005920 <__mulsi3>
 200479c:	10bff704 	addi	r2,r2,-36
 20047a0:	8085883a 	add	r2,r16,r2
 20047a4:	e0bff115 	stw	r2,-60(fp)
 20047a8:	e0bff117 	ldw	r2,-60(fp)
 20047ac:	10800217 	ldw	r2,8(r2)
 20047b0:	10000e0e 	bge	r2,zero,20047ec <DGifSlurp+0xe4>
 20047b4:	e0bff117 	ldw	r2,-60(fp)
 20047b8:	10800317 	ldw	r2,12(r2)
 20047bc:	10000b0e 	bge	r2,zero,20047ec <DGifSlurp+0xe4>
 20047c0:	e0bff117 	ldw	r2,-60(fp)
 20047c4:	14000217 	ldw	r16,8(r2)
 20047c8:	e0bff117 	ldw	r2,-60(fp)
 20047cc:	10800317 	ldw	r2,12(r2)
 20047d0:	01200034 	movhi	r4,32768
 20047d4:	213fffc4 	addi	r4,r4,-1
 20047d8:	100b883a 	mov	r5,r2
 20047dc:	200587c0 	call	200587c <__divsi3>
 20047e0:	1400020e 	bge	r2,r16,20047ec <DGifSlurp+0xe4>
 20047e4:	0005883a 	mov	r2,zero
 20047e8:	0000ba06 	br	2004ad4 <DGifSlurp+0x3cc>
 20047ec:	e0bff117 	ldw	r2,-60(fp)
 20047f0:	10c00217 	ldw	r3,8(r2)
 20047f4:	e0bff117 	ldw	r2,-60(fp)
 20047f8:	10800317 	ldw	r2,12(r2)
 20047fc:	1809883a 	mov	r4,r3
 2004800:	100b883a 	mov	r5,r2
 2004804:	20059200 	call	2005920 <__mulsi3>
 2004808:	e0bff215 	stw	r2,-56(fp)
 200480c:	0009883a 	mov	r4,zero
 2004810:	e17ff217 	ldw	r5,-56(fp)
 2004814:	01800044 	movi	r6,1
 2004818:	20057780 	call	2005778 <reallocarray>
 200481c:	1007883a 	mov	r3,r2
 2004820:	e0bff117 	ldw	r2,-60(fp)
 2004824:	10c00615 	stw	r3,24(r2)
 2004828:	e0bff117 	ldw	r2,-60(fp)
 200482c:	10800617 	ldw	r2,24(r2)
 2004830:	1000021e 	bne	r2,zero,200483c <DGifSlurp+0x134>
 2004834:	0005883a 	mov	r2,zero
 2004838:	0000a606 	br	2004ad4 <DGifSlurp+0x3cc>
 200483c:	e0bff117 	ldw	r2,-60(fp)
 2004840:	10800403 	ldbu	r2,16(r2)
 2004844:	10803fcc 	andi	r2,r2,255
 2004848:	10004026 	beq	r2,zero,200494c <DGifSlurp+0x244>
 200484c:	e03ff615 	stw	zero,-40(fp)
 2004850:	00800104 	movi	r2,4
 2004854:	e0bff715 	stw	r2,-36(fp)
 2004858:	00800084 	movi	r2,2
 200485c:	e0bff815 	stw	r2,-32(fp)
 2004860:	00800044 	movi	r2,1
 2004864:	e0bff915 	stw	r2,-28(fp)
 2004868:	00800204 	movi	r2,8
 200486c:	e0bffa15 	stw	r2,-24(fp)
 2004870:	00800204 	movi	r2,8
 2004874:	e0bffb15 	stw	r2,-20(fp)
 2004878:	00800104 	movi	r2,4
 200487c:	e0bffc15 	stw	r2,-16(fp)
 2004880:	00800084 	movi	r2,2
 2004884:	e0bffd15 	stw	r2,-12(fp)
 2004888:	e03fef15 	stw	zero,-68(fp)
 200488c:	00002b06 	br	200493c <DGifSlurp+0x234>
 2004890:	e0bfef17 	ldw	r2,-68(fp)
 2004894:	1085883a 	add	r2,r2,r2
 2004898:	1085883a 	add	r2,r2,r2
 200489c:	e0ffef04 	addi	r3,fp,-68
 20048a0:	1885883a 	add	r2,r3,r2
 20048a4:	10800704 	addi	r2,r2,28
 20048a8:	10800017 	ldw	r2,0(r2)
 20048ac:	e0bff015 	stw	r2,-64(fp)
 20048b0:	00001b06 	br	2004920 <DGifSlurp+0x218>
 20048b4:	e0bff117 	ldw	r2,-60(fp)
 20048b8:	14000617 	ldw	r16,24(r2)
 20048bc:	e0bff117 	ldw	r2,-60(fp)
 20048c0:	10800217 	ldw	r2,8(r2)
 20048c4:	1009883a 	mov	r4,r2
 20048c8:	e17ff017 	ldw	r5,-64(fp)
 20048cc:	20059200 	call	2005920 <__mulsi3>
 20048d0:	8087883a 	add	r3,r16,r2
 20048d4:	e0bff117 	ldw	r2,-60(fp)
 20048d8:	10800217 	ldw	r2,8(r2)
 20048dc:	e13ffe17 	ldw	r4,-8(fp)
 20048e0:	180b883a 	mov	r5,r3
 20048e4:	100d883a 	mov	r6,r2
 20048e8:	20030280 	call	2003028 <DGifGetLine>
 20048ec:	1000021e 	bne	r2,zero,20048f8 <DGifSlurp+0x1f0>
 20048f0:	0005883a 	mov	r2,zero
 20048f4:	00007706 	br	2004ad4 <DGifSlurp+0x3cc>
 20048f8:	e0bfef17 	ldw	r2,-68(fp)
 20048fc:	1085883a 	add	r2,r2,r2
 2004900:	1085883a 	add	r2,r2,r2
 2004904:	e0ffef04 	addi	r3,fp,-68
 2004908:	1885883a 	add	r2,r3,r2
 200490c:	10800b04 	addi	r2,r2,44
 2004910:	10800017 	ldw	r2,0(r2)
 2004914:	e0fff017 	ldw	r3,-64(fp)
 2004918:	1885883a 	add	r2,r3,r2
 200491c:	e0bff015 	stw	r2,-64(fp)
 2004920:	e0bff117 	ldw	r2,-60(fp)
 2004924:	10800317 	ldw	r2,12(r2)
 2004928:	e0fff017 	ldw	r3,-64(fp)
 200492c:	18bfe116 	blt	r3,r2,20048b4 <__reset+0xfdffb8b4>
 2004930:	e0bfef17 	ldw	r2,-68(fp)
 2004934:	10800044 	addi	r2,r2,1
 2004938:	e0bfef15 	stw	r2,-68(fp)
 200493c:	e0bfef17 	ldw	r2,-68(fp)
 2004940:	10800110 	cmplti	r2,r2,4
 2004944:	103fd21e 	bne	r2,zero,2004890 <__reset+0xfdffb890>
 2004948:	00000a06 	br	2004974 <DGifSlurp+0x26c>
 200494c:	e0bff117 	ldw	r2,-60(fp)
 2004950:	10c00617 	ldw	r3,24(r2)
 2004954:	e0bff217 	ldw	r2,-56(fp)
 2004958:	e13ffe17 	ldw	r4,-8(fp)
 200495c:	180b883a 	mov	r5,r3
 2004960:	100d883a 	mov	r6,r2
 2004964:	20030280 	call	2003028 <DGifGetLine>
 2004968:	1000021e 	bne	r2,zero,2004974 <DGifSlurp+0x26c>
 200496c:	0005883a 	mov	r2,zero
 2004970:	00005806 	br	2004ad4 <DGifSlurp+0x3cc>
 2004974:	e0bffe17 	ldw	r2,-8(fp)
 2004978:	10800f17 	ldw	r2,60(r2)
 200497c:	10000d26 	beq	r2,zero,20049b4 <DGifSlurp+0x2ac>
 2004980:	e0bffe17 	ldw	r2,-8(fp)
 2004984:	10c00f17 	ldw	r3,60(r2)
 2004988:	e0bff117 	ldw	r2,-60(fp)
 200498c:	10c00815 	stw	r3,32(r2)
 2004990:	e0bffe17 	ldw	r2,-8(fp)
 2004994:	10c00e17 	ldw	r3,56(r2)
 2004998:	e0bff117 	ldw	r2,-60(fp)
 200499c:	10c00715 	stw	r3,28(r2)
 20049a0:	e0bffe17 	ldw	r2,-8(fp)
 20049a4:	10000f15 	stw	zero,60(r2)
 20049a8:	e0bffe17 	ldw	r2,-8(fp)
 20049ac:	10000e15 	stw	zero,56(r2)
 20049b0:	00003c06 	br	2004aa4 <DGifSlurp+0x39c>
 20049b4:	00003b06 	br	2004aa4 <DGifSlurp+0x39c>
 20049b8:	e0fff504 	addi	r3,fp,-44
 20049bc:	e0bff404 	addi	r2,fp,-48
 20049c0:	e13ffe17 	ldw	r4,-8(fp)
 20049c4:	180b883a 	mov	r5,r3
 20049c8:	100d883a 	mov	r6,r2
 20049cc:	200321c0 	call	200321c <DGifGetExtension>
 20049d0:	1000021e 	bne	r2,zero,20049dc <DGifSlurp+0x2d4>
 20049d4:	0005883a 	mov	r2,zero
 20049d8:	00003e06 	br	2004ad4 <DGifSlurp+0x3cc>
 20049dc:	e0bff417 	ldw	r2,-48(fp)
 20049e0:	10001126 	beq	r2,zero,2004a28 <DGifSlurp+0x320>
 20049e4:	e0bffe17 	ldw	r2,-8(fp)
 20049e8:	11000e04 	addi	r4,r2,56
 20049ec:	e0bffe17 	ldw	r2,-8(fp)
 20049f0:	11400f04 	addi	r5,r2,60
 20049f4:	e0fff517 	ldw	r3,-44(fp)
 20049f8:	e0bff417 	ldw	r2,-48(fp)
 20049fc:	10800003 	ldbu	r2,0(r2)
 2004a00:	10803fcc 	andi	r2,r2,255
 2004a04:	e1bff417 	ldw	r6,-48(fp)
 2004a08:	31800044 	addi	r6,r6,1
 2004a0c:	d9800015 	stw	r6,0(sp)
 2004a10:	180d883a 	mov	r6,r3
 2004a14:	100f883a 	mov	r7,r2
 2004a18:	200510c0 	call	200510c <GifAddExtensionBlock>
 2004a1c:	1000021e 	bne	r2,zero,2004a28 <DGifSlurp+0x320>
 2004a20:	0005883a 	mov	r2,zero
 2004a24:	00002b06 	br	2004ad4 <DGifSlurp+0x3cc>
 2004a28:	00001a06 	br	2004a94 <DGifSlurp+0x38c>
 2004a2c:	e0bff404 	addi	r2,fp,-48
 2004a30:	e13ffe17 	ldw	r4,-8(fp)
 2004a34:	100b883a 	mov	r5,r2
 2004a38:	20033140 	call	2003314 <DGifGetExtensionNext>
 2004a3c:	1000021e 	bne	r2,zero,2004a48 <DGifSlurp+0x340>
 2004a40:	0005883a 	mov	r2,zero
 2004a44:	00002306 	br	2004ad4 <DGifSlurp+0x3cc>
 2004a48:	e0bff417 	ldw	r2,-48(fp)
 2004a4c:	10001126 	beq	r2,zero,2004a94 <DGifSlurp+0x38c>
 2004a50:	e0bffe17 	ldw	r2,-8(fp)
 2004a54:	11000e04 	addi	r4,r2,56
 2004a58:	e0bffe17 	ldw	r2,-8(fp)
 2004a5c:	10c00f04 	addi	r3,r2,60
 2004a60:	e0bff417 	ldw	r2,-48(fp)
 2004a64:	10800003 	ldbu	r2,0(r2)
 2004a68:	10803fcc 	andi	r2,r2,255
 2004a6c:	e17ff417 	ldw	r5,-48(fp)
 2004a70:	29400044 	addi	r5,r5,1
 2004a74:	d9400015 	stw	r5,0(sp)
 2004a78:	180b883a 	mov	r5,r3
 2004a7c:	000d883a 	mov	r6,zero
 2004a80:	100f883a 	mov	r7,r2
 2004a84:	200510c0 	call	200510c <GifAddExtensionBlock>
 2004a88:	1000021e 	bne	r2,zero,2004a94 <DGifSlurp+0x38c>
 2004a8c:	0005883a 	mov	r2,zero
 2004a90:	00001006 	br	2004ad4 <DGifSlurp+0x3cc>
 2004a94:	e0bff417 	ldw	r2,-48(fp)
 2004a98:	103fe41e 	bne	r2,zero,2004a2c <__reset+0xfdffba2c>
 2004a9c:	00000106 	br	2004aa4 <DGifSlurp+0x39c>
 2004aa0:	0001883a 	nop
 2004aa4:	e0bff317 	ldw	r2,-52(fp)
 2004aa8:	10800118 	cmpnei	r2,r2,4
 2004aac:	103f201e 	bne	r2,zero,2004730 <__reset+0xfdffb730>
 2004ab0:	e0bffe17 	ldw	r2,-8(fp)
 2004ab4:	10800617 	ldw	r2,24(r2)
 2004ab8:	1000051e 	bne	r2,zero,2004ad0 <DGifSlurp+0x3c8>
 2004abc:	e0bffe17 	ldw	r2,-8(fp)
 2004ac0:	00c01a44 	movi	r3,105
 2004ac4:	10c01015 	stw	r3,64(r2)
 2004ac8:	0005883a 	mov	r2,zero
 2004acc:	00000106 	br	2004ad4 <DGifSlurp+0x3cc>
 2004ad0:	00800044 	movi	r2,1
 2004ad4:	e6ffff04 	addi	sp,fp,-4
 2004ad8:	dfc00217 	ldw	ra,8(sp)
 2004adc:	df000117 	ldw	fp,4(sp)
 2004ae0:	dc000017 	ldw	r16,0(sp)
 2004ae4:	dec00304 	addi	sp,sp,12
 2004ae8:	f800283a 	ret

02004aec <GifBitSize>:
 2004aec:	defffd04 	addi	sp,sp,-12
 2004af0:	df000215 	stw	fp,8(sp)
 2004af4:	dc000115 	stw	r16,4(sp)
 2004af8:	df000204 	addi	fp,sp,8
 2004afc:	e13ffe15 	stw	r4,-8(fp)
 2004b00:	04000044 	movi	r16,1
 2004b04:	00000606 	br	2004b20 <GifBitSize+0x34>
 2004b08:	00800044 	movi	r2,1
 2004b0c:	1406983a 	sll	r3,r2,r16
 2004b10:	e0bffe17 	ldw	r2,-8(fp)
 2004b14:	18800116 	blt	r3,r2,2004b1c <GifBitSize+0x30>
 2004b18:	00000306 	br	2004b28 <GifBitSize+0x3c>
 2004b1c:	84000044 	addi	r16,r16,1
 2004b20:	80800250 	cmplti	r2,r16,9
 2004b24:	103ff81e 	bne	r2,zero,2004b08 <__reset+0xfdffbb08>
 2004b28:	8005883a 	mov	r2,r16
 2004b2c:	e6ffff04 	addi	sp,fp,-4
 2004b30:	df000117 	ldw	fp,4(sp)
 2004b34:	dc000017 	ldw	r16,0(sp)
 2004b38:	dec00204 	addi	sp,sp,8
 2004b3c:	f800283a 	ret

02004b40 <GifMakeMapObject>:
 2004b40:	defffb04 	addi	sp,sp,-20
 2004b44:	dfc00415 	stw	ra,16(sp)
 2004b48:	df000315 	stw	fp,12(sp)
 2004b4c:	df000304 	addi	fp,sp,12
 2004b50:	e13ffe15 	stw	r4,-8(fp)
 2004b54:	e17fff15 	stw	r5,-4(fp)
 2004b58:	e13ffe17 	ldw	r4,-8(fp)
 2004b5c:	2004aec0 	call	2004aec <GifBitSize>
 2004b60:	00c00044 	movi	r3,1
 2004b64:	1886983a 	sll	r3,r3,r2
 2004b68:	e0bffe17 	ldw	r2,-8(fp)
 2004b6c:	18800226 	beq	r3,r2,2004b78 <GifMakeMapObject+0x38>
 2004b70:	0005883a 	mov	r2,zero
 2004b74:	00002b06 	br	2004c24 <GifMakeMapObject+0xe4>
 2004b78:	01000404 	movi	r4,16
 2004b7c:	2007e9c0 	call	2007e9c <malloc>
 2004b80:	e0bffd15 	stw	r2,-12(fp)
 2004b84:	e0bffd17 	ldw	r2,-12(fp)
 2004b88:	1000021e 	bne	r2,zero,2004b94 <GifMakeMapObject+0x54>
 2004b8c:	0005883a 	mov	r2,zero
 2004b90:	00002406 	br	2004c24 <GifMakeMapObject+0xe4>
 2004b94:	e0bffe17 	ldw	r2,-8(fp)
 2004b98:	1009883a 	mov	r4,r2
 2004b9c:	014000c4 	movi	r5,3
 2004ba0:	2006ce00 	call	2006ce0 <calloc>
 2004ba4:	1007883a 	mov	r3,r2
 2004ba8:	e0bffd17 	ldw	r2,-12(fp)
 2004bac:	10c00315 	stw	r3,12(r2)
 2004bb0:	e0bffd17 	ldw	r2,-12(fp)
 2004bb4:	10800317 	ldw	r2,12(r2)
 2004bb8:	1000041e 	bne	r2,zero,2004bcc <GifMakeMapObject+0x8c>
 2004bbc:	e13ffd17 	ldw	r4,-12(fp)
 2004bc0:	2007eb00 	call	2007eb0 <free>
 2004bc4:	0005883a 	mov	r2,zero
 2004bc8:	00001606 	br	2004c24 <GifMakeMapObject+0xe4>
 2004bcc:	e0bffd17 	ldw	r2,-12(fp)
 2004bd0:	e0fffe17 	ldw	r3,-8(fp)
 2004bd4:	10c00015 	stw	r3,0(r2)
 2004bd8:	e13ffe17 	ldw	r4,-8(fp)
 2004bdc:	2004aec0 	call	2004aec <GifBitSize>
 2004be0:	1007883a 	mov	r3,r2
 2004be4:	e0bffd17 	ldw	r2,-12(fp)
 2004be8:	10c00115 	stw	r3,4(r2)
 2004bec:	e0bffd17 	ldw	r2,-12(fp)
 2004bf0:	10000205 	stb	zero,8(r2)
 2004bf4:	e0bfff17 	ldw	r2,-4(fp)
 2004bf8:	10000926 	beq	r2,zero,2004c20 <GifMakeMapObject+0xe0>
 2004bfc:	e0bffd17 	ldw	r2,-12(fp)
 2004c00:	11000317 	ldw	r4,12(r2)
 2004c04:	e0fffe17 	ldw	r3,-8(fp)
 2004c08:	1805883a 	mov	r2,r3
 2004c0c:	1085883a 	add	r2,r2,r2
 2004c10:	10c5883a 	add	r2,r2,r3
 2004c14:	e17fff17 	ldw	r5,-4(fp)
 2004c18:	100d883a 	mov	r6,r2
 2004c1c:	20087040 	call	2008704 <memcpy>
 2004c20:	e0bffd17 	ldw	r2,-12(fp)
 2004c24:	e037883a 	mov	sp,fp
 2004c28:	dfc00117 	ldw	ra,4(sp)
 2004c2c:	df000017 	ldw	fp,0(sp)
 2004c30:	dec00204 	addi	sp,sp,8
 2004c34:	f800283a 	ret

02004c38 <GifFreeMapObject>:
 2004c38:	defffd04 	addi	sp,sp,-12
 2004c3c:	dfc00215 	stw	ra,8(sp)
 2004c40:	df000115 	stw	fp,4(sp)
 2004c44:	df000104 	addi	fp,sp,4
 2004c48:	e13fff15 	stw	r4,-4(fp)
 2004c4c:	e0bfff17 	ldw	r2,-4(fp)
 2004c50:	10000626 	beq	r2,zero,2004c6c <GifFreeMapObject+0x34>
 2004c54:	e0bfff17 	ldw	r2,-4(fp)
 2004c58:	10800317 	ldw	r2,12(r2)
 2004c5c:	1009883a 	mov	r4,r2
 2004c60:	2007eb00 	call	2007eb0 <free>
 2004c64:	e13fff17 	ldw	r4,-4(fp)
 2004c68:	2007eb00 	call	2007eb0 <free>
 2004c6c:	e037883a 	mov	sp,fp
 2004c70:	dfc00117 	ldw	ra,4(sp)
 2004c74:	df000017 	ldw	fp,0(sp)
 2004c78:	dec00204 	addi	sp,sp,8
 2004c7c:	f800283a 	ret

02004c80 <GifUnionColorMap>:
 2004c80:	defff304 	addi	sp,sp,-52
 2004c84:	dfc00c15 	stw	ra,48(sp)
 2004c88:	df000b15 	stw	fp,44(sp)
 2004c8c:	dc000a15 	stw	r16,40(sp)
 2004c90:	df000b04 	addi	fp,sp,44
 2004c94:	e13ffc15 	stw	r4,-16(fp)
 2004c98:	e17ffd15 	stw	r5,-12(fp)
 2004c9c:	e1bffe15 	stw	r6,-8(fp)
 2004ca0:	e0bffd17 	ldw	r2,-12(fp)
 2004ca4:	10800017 	ldw	r2,0(r2)
 2004ca8:	e0fffc17 	ldw	r3,-16(fp)
 2004cac:	18c00017 	ldw	r3,0(r3)
 2004cb0:	10c0010e 	bge	r2,r3,2004cb8 <GifUnionColorMap+0x38>
 2004cb4:	1805883a 	mov	r2,r3
 2004cb8:	1085883a 	add	r2,r2,r2
 2004cbc:	1009883a 	mov	r4,r2
 2004cc0:	000b883a 	mov	r5,zero
 2004cc4:	2004b400 	call	2004b40 <GifMakeMapObject>
 2004cc8:	e0bff815 	stw	r2,-32(fp)
 2004ccc:	e0bff817 	ldw	r2,-32(fp)
 2004cd0:	1000021e 	bne	r2,zero,2004cdc <GifUnionColorMap+0x5c>
 2004cd4:	0005883a 	mov	r2,zero
 2004cd8:	0000dd06 	br	2005050 <GifUnionColorMap+0x3d0>
 2004cdc:	e03ff515 	stw	zero,-44(fp)
 2004ce0:	00001706 	br	2004d40 <GifUnionColorMap+0xc0>
 2004ce4:	e0bff817 	ldw	r2,-32(fp)
 2004ce8:	11000317 	ldw	r4,12(r2)
 2004cec:	e0fff517 	ldw	r3,-44(fp)
 2004cf0:	1805883a 	mov	r2,r3
 2004cf4:	1085883a 	add	r2,r2,r2
 2004cf8:	10c5883a 	add	r2,r2,r3
 2004cfc:	2087883a 	add	r3,r4,r2
 2004d00:	e0bffc17 	ldw	r2,-16(fp)
 2004d04:	11400317 	ldw	r5,12(r2)
 2004d08:	e13ff517 	ldw	r4,-44(fp)
 2004d0c:	2005883a 	mov	r2,r4
 2004d10:	1085883a 	add	r2,r2,r2
 2004d14:	1105883a 	add	r2,r2,r4
 2004d18:	2885883a 	add	r2,r5,r2
 2004d1c:	11000003 	ldbu	r4,0(r2)
 2004d20:	19000005 	stb	r4,0(r3)
 2004d24:	11000043 	ldbu	r4,1(r2)
 2004d28:	19000045 	stb	r4,1(r3)
 2004d2c:	10800083 	ldbu	r2,2(r2)
 2004d30:	18800085 	stb	r2,2(r3)
 2004d34:	e0bff517 	ldw	r2,-44(fp)
 2004d38:	10800044 	addi	r2,r2,1
 2004d3c:	e0bff515 	stw	r2,-44(fp)
 2004d40:	e0bffc17 	ldw	r2,-16(fp)
 2004d44:	10800017 	ldw	r2,0(r2)
 2004d48:	e0fff517 	ldw	r3,-44(fp)
 2004d4c:	18bfe516 	blt	r3,r2,2004ce4 <__reset+0xfdffbce4>
 2004d50:	e0bffc17 	ldw	r2,-16(fp)
 2004d54:	10800017 	ldw	r2,0(r2)
 2004d58:	e0bff715 	stw	r2,-36(fp)
 2004d5c:	00000306 	br	2004d6c <GifUnionColorMap+0xec>
 2004d60:	e0bff717 	ldw	r2,-36(fp)
 2004d64:	10bfffc4 	addi	r2,r2,-1
 2004d68:	e0bff715 	stw	r2,-36(fp)
 2004d6c:	e0bffc17 	ldw	r2,-16(fp)
 2004d70:	11000317 	ldw	r4,12(r2)
 2004d74:	e0fff717 	ldw	r3,-36(fp)
 2004d78:	1805883a 	mov	r2,r3
 2004d7c:	1085883a 	add	r2,r2,r2
 2004d80:	10c5883a 	add	r2,r2,r3
 2004d84:	10bfff44 	addi	r2,r2,-3
 2004d88:	2085883a 	add	r2,r4,r2
 2004d8c:	10800003 	ldbu	r2,0(r2)
 2004d90:	10803fcc 	andi	r2,r2,255
 2004d94:	1000161e 	bne	r2,zero,2004df0 <GifUnionColorMap+0x170>
 2004d98:	e0bffc17 	ldw	r2,-16(fp)
 2004d9c:	11000317 	ldw	r4,12(r2)
 2004da0:	e0fff717 	ldw	r3,-36(fp)
 2004da4:	1805883a 	mov	r2,r3
 2004da8:	1085883a 	add	r2,r2,r2
 2004dac:	10c5883a 	add	r2,r2,r3
 2004db0:	10bfff44 	addi	r2,r2,-3
 2004db4:	2085883a 	add	r2,r4,r2
 2004db8:	10800043 	ldbu	r2,1(r2)
 2004dbc:	10803fcc 	andi	r2,r2,255
 2004dc0:	10000b1e 	bne	r2,zero,2004df0 <GifUnionColorMap+0x170>
 2004dc4:	e0bffc17 	ldw	r2,-16(fp)
 2004dc8:	11000317 	ldw	r4,12(r2)
 2004dcc:	e0fff717 	ldw	r3,-36(fp)
 2004dd0:	1805883a 	mov	r2,r3
 2004dd4:	1085883a 	add	r2,r2,r2
 2004dd8:	10c5883a 	add	r2,r2,r3
 2004ddc:	10bfff44 	addi	r2,r2,-3
 2004de0:	2085883a 	add	r2,r4,r2
 2004de4:	10800083 	ldbu	r2,2(r2)
 2004de8:	10803fcc 	andi	r2,r2,255
 2004dec:	103fdc26 	beq	r2,zero,2004d60 <__reset+0xfdffbd60>
 2004df0:	e03ff515 	stw	zero,-44(fp)
 2004df4:	00004406 	br	2004f08 <GifUnionColorMap+0x288>
 2004df8:	e03ff615 	stw	zero,-40(fp)
 2004dfc:	00001606 	br	2004e58 <GifUnionColorMap+0x1d8>
 2004e00:	e0bffc17 	ldw	r2,-16(fp)
 2004e04:	11000317 	ldw	r4,12(r2)
 2004e08:	e0fff617 	ldw	r3,-40(fp)
 2004e0c:	1805883a 	mov	r2,r3
 2004e10:	1085883a 	add	r2,r2,r2
 2004e14:	10c5883a 	add	r2,r2,r3
 2004e18:	2089883a 	add	r4,r4,r2
 2004e1c:	e0bffd17 	ldw	r2,-12(fp)
 2004e20:	11400317 	ldw	r5,12(r2)
 2004e24:	e0fff517 	ldw	r3,-44(fp)
 2004e28:	1805883a 	mov	r2,r3
 2004e2c:	1085883a 	add	r2,r2,r2
 2004e30:	10c5883a 	add	r2,r2,r3
 2004e34:	2885883a 	add	r2,r5,r2
 2004e38:	100b883a 	mov	r5,r2
 2004e3c:	018000c4 	movi	r6,3
 2004e40:	20086880 	call	2008688 <memcmp>
 2004e44:	1000011e 	bne	r2,zero,2004e4c <GifUnionColorMap+0x1cc>
 2004e48:	00000706 	br	2004e68 <GifUnionColorMap+0x1e8>
 2004e4c:	e0bff617 	ldw	r2,-40(fp)
 2004e50:	10800044 	addi	r2,r2,1
 2004e54:	e0bff615 	stw	r2,-40(fp)
 2004e58:	e0bffc17 	ldw	r2,-16(fp)
 2004e5c:	10800017 	ldw	r2,0(r2)
 2004e60:	e0fff617 	ldw	r3,-40(fp)
 2004e64:	18bfe616 	blt	r3,r2,2004e00 <__reset+0xfdffbe00>
 2004e68:	e0bffc17 	ldw	r2,-16(fp)
 2004e6c:	10800017 	ldw	r2,0(r2)
 2004e70:	e0fff617 	ldw	r3,-40(fp)
 2004e74:	1880060e 	bge	r3,r2,2004e90 <GifUnionColorMap+0x210>
 2004e78:	e0bff517 	ldw	r2,-44(fp)
 2004e7c:	e0fffe17 	ldw	r3,-8(fp)
 2004e80:	1885883a 	add	r2,r3,r2
 2004e84:	e0fff617 	ldw	r3,-40(fp)
 2004e88:	10c00005 	stb	r3,0(r2)
 2004e8c:	00001b06 	br	2004efc <GifUnionColorMap+0x27c>
 2004e90:	e0bff817 	ldw	r2,-32(fp)
 2004e94:	11000317 	ldw	r4,12(r2)
 2004e98:	e0fff717 	ldw	r3,-36(fp)
 2004e9c:	1805883a 	mov	r2,r3
 2004ea0:	1085883a 	add	r2,r2,r2
 2004ea4:	10c5883a 	add	r2,r2,r3
 2004ea8:	2087883a 	add	r3,r4,r2
 2004eac:	e0bffd17 	ldw	r2,-12(fp)
 2004eb0:	11400317 	ldw	r5,12(r2)
 2004eb4:	e13ff517 	ldw	r4,-44(fp)
 2004eb8:	2005883a 	mov	r2,r4
 2004ebc:	1085883a 	add	r2,r2,r2
 2004ec0:	1105883a 	add	r2,r2,r4
 2004ec4:	2885883a 	add	r2,r5,r2
 2004ec8:	11000003 	ldbu	r4,0(r2)
 2004ecc:	19000005 	stb	r4,0(r3)
 2004ed0:	11000043 	ldbu	r4,1(r2)
 2004ed4:	19000045 	stb	r4,1(r3)
 2004ed8:	10800083 	ldbu	r2,2(r2)
 2004edc:	18800085 	stb	r2,2(r3)
 2004ee0:	e0bff517 	ldw	r2,-44(fp)
 2004ee4:	e0fffe17 	ldw	r3,-8(fp)
 2004ee8:	1887883a 	add	r3,r3,r2
 2004eec:	e0bff717 	ldw	r2,-36(fp)
 2004ef0:	11000044 	addi	r4,r2,1
 2004ef4:	e13ff715 	stw	r4,-36(fp)
 2004ef8:	18800005 	stb	r2,0(r3)
 2004efc:	e0bff517 	ldw	r2,-44(fp)
 2004f00:	10800044 	addi	r2,r2,1
 2004f04:	e0bff515 	stw	r2,-44(fp)
 2004f08:	e0bffd17 	ldw	r2,-12(fp)
 2004f0c:	10800017 	ldw	r2,0(r2)
 2004f10:	e0fff517 	ldw	r3,-44(fp)
 2004f14:	1880030e 	bge	r3,r2,2004f24 <GifUnionColorMap+0x2a4>
 2004f18:	e0bff717 	ldw	r2,-36(fp)
 2004f1c:	10804050 	cmplti	r2,r2,257
 2004f20:	103fb51e 	bne	r2,zero,2004df8 <__reset+0xfdffbdf8>
 2004f24:	e0bff717 	ldw	r2,-36(fp)
 2004f28:	10804050 	cmplti	r2,r2,257
 2004f2c:	1000041e 	bne	r2,zero,2004f40 <GifUnionColorMap+0x2c0>
 2004f30:	e13ff817 	ldw	r4,-32(fp)
 2004f34:	2004c380 	call	2004c38 <GifFreeMapObject>
 2004f38:	0005883a 	mov	r2,zero
 2004f3c:	00004406 	br	2005050 <GifUnionColorMap+0x3d0>
 2004f40:	e13ff717 	ldw	r4,-36(fp)
 2004f44:	2004aec0 	call	2004aec <GifBitSize>
 2004f48:	e0bff915 	stw	r2,-28(fp)
 2004f4c:	00c00044 	movi	r3,1
 2004f50:	e0bff917 	ldw	r2,-28(fp)
 2004f54:	1884983a 	sll	r2,r3,r2
 2004f58:	e0bffa15 	stw	r2,-24(fp)
 2004f5c:	e0bff817 	ldw	r2,-32(fp)
 2004f60:	10c00017 	ldw	r3,0(r2)
 2004f64:	e0bffa17 	ldw	r2,-24(fp)
 2004f68:	18803226 	beq	r3,r2,2005034 <GifUnionColorMap+0x3b4>
 2004f6c:	e0bff817 	ldw	r2,-32(fp)
 2004f70:	14000317 	ldw	r16,12(r2)
 2004f74:	e0bff717 	ldw	r2,-36(fp)
 2004f78:	e0bff615 	stw	r2,-40(fp)
 2004f7c:	00001706 	br	2004fdc <GifUnionColorMap+0x35c>
 2004f80:	e0fff617 	ldw	r3,-40(fp)
 2004f84:	1805883a 	mov	r2,r3
 2004f88:	1085883a 	add	r2,r2,r2
 2004f8c:	10c5883a 	add	r2,r2,r3
 2004f90:	808b883a 	add	r5,r16,r2
 2004f94:	e0fff617 	ldw	r3,-40(fp)
 2004f98:	1805883a 	mov	r2,r3
 2004f9c:	1085883a 	add	r2,r2,r2
 2004fa0:	10c5883a 	add	r2,r2,r3
 2004fa4:	8087883a 	add	r3,r16,r2
 2004fa8:	e13ff617 	ldw	r4,-40(fp)
 2004fac:	2005883a 	mov	r2,r4
 2004fb0:	1085883a 	add	r2,r2,r2
 2004fb4:	1105883a 	add	r2,r2,r4
 2004fb8:	8085883a 	add	r2,r16,r2
 2004fbc:	10000085 	stb	zero,2(r2)
 2004fc0:	10800083 	ldbu	r2,2(r2)
 2004fc4:	18800045 	stb	r2,1(r3)
 2004fc8:	18800043 	ldbu	r2,1(r3)
 2004fcc:	28800005 	stb	r2,0(r5)
 2004fd0:	e0bff617 	ldw	r2,-40(fp)
 2004fd4:	10800044 	addi	r2,r2,1
 2004fd8:	e0bff615 	stw	r2,-40(fp)
 2004fdc:	e0fff617 	ldw	r3,-40(fp)
 2004fe0:	e0bffa17 	ldw	r2,-24(fp)
 2004fe4:	18bfe616 	blt	r3,r2,2004f80 <__reset+0xfdffbf80>
 2004fe8:	e0bff817 	ldw	r2,-32(fp)
 2004fec:	10800017 	ldw	r2,0(r2)
 2004ff0:	e0fffa17 	ldw	r3,-24(fp)
 2004ff4:	18800f0e 	bge	r3,r2,2005034 <GifUnionColorMap+0x3b4>
 2004ff8:	e0bffa17 	ldw	r2,-24(fp)
 2004ffc:	8009883a 	mov	r4,r16
 2005000:	100b883a 	mov	r5,r2
 2005004:	018000c4 	movi	r6,3
 2005008:	20057780 	call	2005778 <reallocarray>
 200500c:	e0bffb15 	stw	r2,-20(fp)
 2005010:	e0bffb17 	ldw	r2,-20(fp)
 2005014:	1000041e 	bne	r2,zero,2005028 <GifUnionColorMap+0x3a8>
 2005018:	e13ff817 	ldw	r4,-32(fp)
 200501c:	2004c380 	call	2004c38 <GifFreeMapObject>
 2005020:	0005883a 	mov	r2,zero
 2005024:	00000a06 	br	2005050 <GifUnionColorMap+0x3d0>
 2005028:	e0bff817 	ldw	r2,-32(fp)
 200502c:	e0fffb17 	ldw	r3,-20(fp)
 2005030:	10c00315 	stw	r3,12(r2)
 2005034:	e0bff817 	ldw	r2,-32(fp)
 2005038:	e0fffa17 	ldw	r3,-24(fp)
 200503c:	10c00015 	stw	r3,0(r2)
 2005040:	e0bff817 	ldw	r2,-32(fp)
 2005044:	e0fff917 	ldw	r3,-28(fp)
 2005048:	10c00115 	stw	r3,4(r2)
 200504c:	e0bff817 	ldw	r2,-32(fp)
 2005050:	e6ffff04 	addi	sp,fp,-4
 2005054:	dfc00217 	ldw	ra,8(sp)
 2005058:	df000117 	ldw	fp,4(sp)
 200505c:	dc000017 	ldw	r16,0(sp)
 2005060:	dec00304 	addi	sp,sp,12
 2005064:	f800283a 	ret

02005068 <GifApplyTranslation>:
 2005068:	defffa04 	addi	sp,sp,-24
 200506c:	dfc00515 	stw	ra,20(sp)
 2005070:	df000415 	stw	fp,16(sp)
 2005074:	dc400315 	stw	r17,12(sp)
 2005078:	dc000215 	stw	r16,8(sp)
 200507c:	df000404 	addi	fp,sp,16
 2005080:	e13ffc15 	stw	r4,-16(fp)
 2005084:	e17ffd15 	stw	r5,-12(fp)
 2005088:	e0bffc17 	ldw	r2,-16(fp)
 200508c:	10c00317 	ldw	r3,12(r2)
 2005090:	e0bffc17 	ldw	r2,-16(fp)
 2005094:	10800217 	ldw	r2,8(r2)
 2005098:	1809883a 	mov	r4,r3
 200509c:	100b883a 	mov	r5,r2
 20050a0:	20059200 	call	2005920 <__mulsi3>
 20050a4:	1023883a 	mov	r17,r2
 20050a8:	0021883a 	mov	r16,zero
 20050ac:	00000f06 	br	20050ec <GifApplyTranslation+0x84>
 20050b0:	e0bffc17 	ldw	r2,-16(fp)
 20050b4:	10c00617 	ldw	r3,24(r2)
 20050b8:	8005883a 	mov	r2,r16
 20050bc:	1885883a 	add	r2,r3,r2
 20050c0:	e0fffc17 	ldw	r3,-16(fp)
 20050c4:	19000617 	ldw	r4,24(r3)
 20050c8:	8007883a 	mov	r3,r16
 20050cc:	20c7883a 	add	r3,r4,r3
 20050d0:	18c00003 	ldbu	r3,0(r3)
 20050d4:	18c03fcc 	andi	r3,r3,255
 20050d8:	e13ffd17 	ldw	r4,-12(fp)
 20050dc:	20c7883a 	add	r3,r4,r3
 20050e0:	18c00003 	ldbu	r3,0(r3)
 20050e4:	10c00005 	stb	r3,0(r2)
 20050e8:	84000044 	addi	r16,r16,1
 20050ec:	847ff016 	blt	r16,r17,20050b0 <__reset+0xfdffc0b0>
 20050f0:	e6fffe04 	addi	sp,fp,-8
 20050f4:	dfc00317 	ldw	ra,12(sp)
 20050f8:	df000217 	ldw	fp,8(sp)
 20050fc:	dc400117 	ldw	r17,4(sp)
 2005100:	dc000017 	ldw	r16,0(sp)
 2005104:	dec00404 	addi	sp,sp,16
 2005108:	f800283a 	ret

0200510c <GifAddExtensionBlock>:
 200510c:	defff504 	addi	sp,sp,-44
 2005110:	dfc00a15 	stw	ra,40(sp)
 2005114:	df000915 	stw	fp,36(sp)
 2005118:	dc000815 	stw	r16,32(sp)
 200511c:	df000904 	addi	fp,sp,36
 2005120:	e13ffb15 	stw	r4,-20(fp)
 2005124:	e17ffc15 	stw	r5,-16(fp)
 2005128:	e1bffd15 	stw	r6,-12(fp)
 200512c:	e1fffe15 	stw	r7,-8(fp)
 2005130:	e0bffc17 	ldw	r2,-16(fp)
 2005134:	10800017 	ldw	r2,0(r2)
 2005138:	1000061e 	bne	r2,zero,2005154 <GifAddExtensionBlock+0x48>
 200513c:	01000304 	movi	r4,12
 2005140:	2007e9c0 	call	2007e9c <malloc>
 2005144:	1007883a 	mov	r3,r2
 2005148:	e0bffc17 	ldw	r2,-16(fp)
 200514c:	10c00015 	stw	r3,0(r2)
 2005150:	00001106 	br	2005198 <GifAddExtensionBlock+0x8c>
 2005154:	e0bffc17 	ldw	r2,-16(fp)
 2005158:	10c00017 	ldw	r3,0(r2)
 200515c:	e0bffb17 	ldw	r2,-20(fp)
 2005160:	10800017 	ldw	r2,0(r2)
 2005164:	10800044 	addi	r2,r2,1
 2005168:	1809883a 	mov	r4,r3
 200516c:	100b883a 	mov	r5,r2
 2005170:	01800304 	movi	r6,12
 2005174:	20057780 	call	2005778 <reallocarray>
 2005178:	e0bff715 	stw	r2,-36(fp)
 200517c:	e0bff717 	ldw	r2,-36(fp)
 2005180:	1000021e 	bne	r2,zero,200518c <GifAddExtensionBlock+0x80>
 2005184:	0005883a 	mov	r2,zero
 2005188:	00003506 	br	2005260 <GifAddExtensionBlock+0x154>
 200518c:	e0bffc17 	ldw	r2,-16(fp)
 2005190:	e0fff717 	ldw	r3,-36(fp)
 2005194:	10c00015 	stw	r3,0(r2)
 2005198:	e0bffc17 	ldw	r2,-16(fp)
 200519c:	10800017 	ldw	r2,0(r2)
 20051a0:	1000021e 	bne	r2,zero,20051ac <GifAddExtensionBlock+0xa0>
 20051a4:	0005883a 	mov	r2,zero
 20051a8:	00002d06 	br	2005260 <GifAddExtensionBlock+0x154>
 20051ac:	e0bffb17 	ldw	r2,-20(fp)
 20051b0:	10800017 	ldw	r2,0(r2)
 20051b4:	e0bff815 	stw	r2,-32(fp)
 20051b8:	e0bffc17 	ldw	r2,-16(fp)
 20051bc:	14000017 	ldw	r16,0(r2)
 20051c0:	e0bff817 	ldw	r2,-32(fp)
 20051c4:	1009883a 	mov	r4,r2
 20051c8:	01400304 	movi	r5,12
 20051cc:	20059200 	call	2005920 <__mulsi3>
 20051d0:	8085883a 	add	r2,r16,r2
 20051d4:	e0bff915 	stw	r2,-28(fp)
 20051d8:	e0bff917 	ldw	r2,-28(fp)
 20051dc:	e0bffa15 	stw	r2,-24(fp)
 20051e0:	e0bffb17 	ldw	r2,-20(fp)
 20051e4:	10800017 	ldw	r2,0(r2)
 20051e8:	10c00044 	addi	r3,r2,1
 20051ec:	e0bffb17 	ldw	r2,-20(fp)
 20051f0:	10c00015 	stw	r3,0(r2)
 20051f4:	e0bffa17 	ldw	r2,-24(fp)
 20051f8:	e0fffd17 	ldw	r3,-12(fp)
 20051fc:	10c00215 	stw	r3,8(r2)
 2005200:	e0fffe17 	ldw	r3,-8(fp)
 2005204:	e0bffa17 	ldw	r2,-24(fp)
 2005208:	10c00015 	stw	r3,0(r2)
 200520c:	e0bffa17 	ldw	r2,-24(fp)
 2005210:	10800017 	ldw	r2,0(r2)
 2005214:	1009883a 	mov	r4,r2
 2005218:	2007e9c0 	call	2007e9c <malloc>
 200521c:	1007883a 	mov	r3,r2
 2005220:	e0bffa17 	ldw	r2,-24(fp)
 2005224:	10c00115 	stw	r3,4(r2)
 2005228:	e0bffa17 	ldw	r2,-24(fp)
 200522c:	10800117 	ldw	r2,4(r2)
 2005230:	1000021e 	bne	r2,zero,200523c <GifAddExtensionBlock+0x130>
 2005234:	0005883a 	mov	r2,zero
 2005238:	00000906 	br	2005260 <GifAddExtensionBlock+0x154>
 200523c:	e0800217 	ldw	r2,8(fp)
 2005240:	10000626 	beq	r2,zero,200525c <GifAddExtensionBlock+0x150>
 2005244:	e0bffa17 	ldw	r2,-24(fp)
 2005248:	10800117 	ldw	r2,4(r2)
 200524c:	1009883a 	mov	r4,r2
 2005250:	e1400217 	ldw	r5,8(fp)
 2005254:	e1bffe17 	ldw	r6,-8(fp)
 2005258:	20087040 	call	2008704 <memcpy>
 200525c:	00800044 	movi	r2,1
 2005260:	e6ffff04 	addi	sp,fp,-4
 2005264:	dfc00217 	ldw	ra,8(sp)
 2005268:	df000117 	ldw	fp,4(sp)
 200526c:	dc000017 	ldw	r16,0(sp)
 2005270:	dec00304 	addi	sp,sp,12
 2005274:	f800283a 	ret

02005278 <GifFreeExtensions>:
 2005278:	defffa04 	addi	sp,sp,-24
 200527c:	dfc00515 	stw	ra,20(sp)
 2005280:	df000415 	stw	fp,16(sp)
 2005284:	dc000315 	stw	r16,12(sp)
 2005288:	df000404 	addi	fp,sp,16
 200528c:	e13ffd15 	stw	r4,-12(fp)
 2005290:	e17ffe15 	stw	r5,-8(fp)
 2005294:	e0bffe17 	ldw	r2,-8(fp)
 2005298:	10800017 	ldw	r2,0(r2)
 200529c:	1000011e 	bne	r2,zero,20052a4 <GifFreeExtensions+0x2c>
 20052a0:	00001d06 	br	2005318 <GifFreeExtensions+0xa0>
 20052a4:	e0bffe17 	ldw	r2,-8(fp)
 20052a8:	10800017 	ldw	r2,0(r2)
 20052ac:	e0bffc15 	stw	r2,-16(fp)
 20052b0:	00000706 	br	20052d0 <GifFreeExtensions+0x58>
 20052b4:	e0bffc17 	ldw	r2,-16(fp)
 20052b8:	10800117 	ldw	r2,4(r2)
 20052bc:	1009883a 	mov	r4,r2
 20052c0:	2007eb00 	call	2007eb0 <free>
 20052c4:	e0bffc17 	ldw	r2,-16(fp)
 20052c8:	10800304 	addi	r2,r2,12
 20052cc:	e0bffc15 	stw	r2,-16(fp)
 20052d0:	e0bffe17 	ldw	r2,-8(fp)
 20052d4:	14000017 	ldw	r16,0(r2)
 20052d8:	e0bffd17 	ldw	r2,-12(fp)
 20052dc:	10800017 	ldw	r2,0(r2)
 20052e0:	1009883a 	mov	r4,r2
 20052e4:	01400304 	movi	r5,12
 20052e8:	20059200 	call	2005920 <__mulsi3>
 20052ec:	8085883a 	add	r2,r16,r2
 20052f0:	e0fffc17 	ldw	r3,-16(fp)
 20052f4:	18bfef36 	bltu	r3,r2,20052b4 <__reset+0xfdffc2b4>
 20052f8:	e0bffe17 	ldw	r2,-8(fp)
 20052fc:	10800017 	ldw	r2,0(r2)
 2005300:	1009883a 	mov	r4,r2
 2005304:	2007eb00 	call	2007eb0 <free>
 2005308:	e0bffe17 	ldw	r2,-8(fp)
 200530c:	10000015 	stw	zero,0(r2)
 2005310:	e0bffd17 	ldw	r2,-12(fp)
 2005314:	10000015 	stw	zero,0(r2)
 2005318:	e6ffff04 	addi	sp,fp,-4
 200531c:	dfc00217 	ldw	ra,8(sp)
 2005320:	df000117 	ldw	fp,4(sp)
 2005324:	dc000017 	ldw	r16,0(sp)
 2005328:	dec00304 	addi	sp,sp,12
 200532c:	f800283a 	ret

02005330 <FreeLastSavedImage>:
 2005330:	defffb04 	addi	sp,sp,-20
 2005334:	dfc00415 	stw	ra,16(sp)
 2005338:	df000315 	stw	fp,12(sp)
 200533c:	dc000215 	stw	r16,8(sp)
 2005340:	df000304 	addi	fp,sp,12
 2005344:	e13ffe15 	stw	r4,-8(fp)
 2005348:	e0bffe17 	ldw	r2,-8(fp)
 200534c:	10000326 	beq	r2,zero,200535c <FreeLastSavedImage+0x2c>
 2005350:	e0bffe17 	ldw	r2,-8(fp)
 2005354:	10800d17 	ldw	r2,52(r2)
 2005358:	1000011e 	bne	r2,zero,2005360 <FreeLastSavedImage+0x30>
 200535c:	00002506 	br	20053f4 <FreeLastSavedImage+0xc4>
 2005360:	e0bffe17 	ldw	r2,-8(fp)
 2005364:	10800617 	ldw	r2,24(r2)
 2005368:	10ffffc4 	addi	r3,r2,-1
 200536c:	e0bffe17 	ldw	r2,-8(fp)
 2005370:	10c00615 	stw	r3,24(r2)
 2005374:	e0bffe17 	ldw	r2,-8(fp)
 2005378:	14000d17 	ldw	r16,52(r2)
 200537c:	e0bffe17 	ldw	r2,-8(fp)
 2005380:	10800617 	ldw	r2,24(r2)
 2005384:	1009883a 	mov	r4,r2
 2005388:	01400904 	movi	r5,36
 200538c:	20059200 	call	2005920 <__mulsi3>
 2005390:	8085883a 	add	r2,r16,r2
 2005394:	e0bffd15 	stw	r2,-12(fp)
 2005398:	e0bffd17 	ldw	r2,-12(fp)
 200539c:	10800517 	ldw	r2,20(r2)
 20053a0:	10000626 	beq	r2,zero,20053bc <FreeLastSavedImage+0x8c>
 20053a4:	e0bffd17 	ldw	r2,-12(fp)
 20053a8:	10800517 	ldw	r2,20(r2)
 20053ac:	1009883a 	mov	r4,r2
 20053b0:	2004c380 	call	2004c38 <GifFreeMapObject>
 20053b4:	e0bffd17 	ldw	r2,-12(fp)
 20053b8:	10000515 	stw	zero,20(r2)
 20053bc:	e0bffd17 	ldw	r2,-12(fp)
 20053c0:	10800617 	ldw	r2,24(r2)
 20053c4:	10000426 	beq	r2,zero,20053d8 <FreeLastSavedImage+0xa8>
 20053c8:	e0bffd17 	ldw	r2,-12(fp)
 20053cc:	10800617 	ldw	r2,24(r2)
 20053d0:	1009883a 	mov	r4,r2
 20053d4:	2007eb00 	call	2007eb0 <free>
 20053d8:	e0bffd17 	ldw	r2,-12(fp)
 20053dc:	10c00704 	addi	r3,r2,28
 20053e0:	e0bffd17 	ldw	r2,-12(fp)
 20053e4:	10800804 	addi	r2,r2,32
 20053e8:	1809883a 	mov	r4,r3
 20053ec:	100b883a 	mov	r5,r2
 20053f0:	20052780 	call	2005278 <GifFreeExtensions>
 20053f4:	e6ffff04 	addi	sp,fp,-4
 20053f8:	dfc00217 	ldw	ra,8(sp)
 20053fc:	df000117 	ldw	fp,4(sp)
 2005400:	dc000017 	ldw	r16,0(sp)
 2005404:	dec00304 	addi	sp,sp,12
 2005408:	f800283a 	ret

0200540c <GifMakeSavedImage>:
 200540c:	defff904 	addi	sp,sp,-28
 2005410:	dfc00615 	stw	ra,24(sp)
 2005414:	df000515 	stw	fp,20(sp)
 2005418:	dc400415 	stw	r17,16(sp)
 200541c:	dc000315 	stw	r16,12(sp)
 2005420:	df000504 	addi	fp,sp,20
 2005424:	e13ffc15 	stw	r4,-16(fp)
 2005428:	e17ffd15 	stw	r5,-12(fp)
 200542c:	e0bffc17 	ldw	r2,-16(fp)
 2005430:	10800d17 	ldw	r2,52(r2)
 2005434:	1000061e 	bne	r2,zero,2005450 <GifMakeSavedImage+0x44>
 2005438:	01000904 	movi	r4,36
 200543c:	2007e9c0 	call	2007e9c <malloc>
 2005440:	1007883a 	mov	r3,r2
 2005444:	e0bffc17 	ldw	r2,-16(fp)
 2005448:	10c00d15 	stw	r3,52(r2)
 200544c:	00000c06 	br	2005480 <GifMakeSavedImage+0x74>
 2005450:	e0bffc17 	ldw	r2,-16(fp)
 2005454:	10c00d17 	ldw	r3,52(r2)
 2005458:	e0bffc17 	ldw	r2,-16(fp)
 200545c:	10800617 	ldw	r2,24(r2)
 2005460:	10800044 	addi	r2,r2,1
 2005464:	1809883a 	mov	r4,r3
 2005468:	100b883a 	mov	r5,r2
 200546c:	01800904 	movi	r6,36
 2005470:	20057780 	call	2005778 <reallocarray>
 2005474:	1007883a 	mov	r3,r2
 2005478:	e0bffc17 	ldw	r2,-16(fp)
 200547c:	10c00d15 	stw	r3,52(r2)
 2005480:	e0bffc17 	ldw	r2,-16(fp)
 2005484:	10800d17 	ldw	r2,52(r2)
 2005488:	1000021e 	bne	r2,zero,2005494 <GifMakeSavedImage+0x88>
 200548c:	0005883a 	mov	r2,zero
 2005490:	00007206 	br	200565c <GifMakeSavedImage+0x250>
 2005494:	e0bffc17 	ldw	r2,-16(fp)
 2005498:	14000d17 	ldw	r16,52(r2)
 200549c:	e0bffc17 	ldw	r2,-16(fp)
 20054a0:	10800617 	ldw	r2,24(r2)
 20054a4:	11000044 	addi	r4,r2,1
 20054a8:	e0fffc17 	ldw	r3,-16(fp)
 20054ac:	19000615 	stw	r4,24(r3)
 20054b0:	1009883a 	mov	r4,r2
 20054b4:	01400904 	movi	r5,36
 20054b8:	20059200 	call	2005920 <__mulsi3>
 20054bc:	8085883a 	add	r2,r16,r2
 20054c0:	e0bffb15 	stw	r2,-20(fp)
 20054c4:	e13ffb17 	ldw	r4,-20(fp)
 20054c8:	000b883a 	mov	r5,zero
 20054cc:	01800904 	movi	r6,36
 20054d0:	20088100 	call	2008810 <memset>
 20054d4:	e0bffd17 	ldw	r2,-12(fp)
 20054d8:	10005f26 	beq	r2,zero,2005658 <GifMakeSavedImage+0x24c>
 20054dc:	e13ffb17 	ldw	r4,-20(fp)
 20054e0:	e17ffd17 	ldw	r5,-12(fp)
 20054e4:	01800904 	movi	r6,36
 20054e8:	20087040 	call	2008704 <memcpy>
 20054ec:	e0bffb17 	ldw	r2,-20(fp)
 20054f0:	10800517 	ldw	r2,20(r2)
 20054f4:	10001326 	beq	r2,zero,2005544 <GifMakeSavedImage+0x138>
 20054f8:	e0bffd17 	ldw	r2,-12(fp)
 20054fc:	10800517 	ldw	r2,20(r2)
 2005500:	10c00017 	ldw	r3,0(r2)
 2005504:	e0bffd17 	ldw	r2,-12(fp)
 2005508:	10800517 	ldw	r2,20(r2)
 200550c:	10800317 	ldw	r2,12(r2)
 2005510:	1809883a 	mov	r4,r3
 2005514:	100b883a 	mov	r5,r2
 2005518:	2004b400 	call	2004b40 <GifMakeMapObject>
 200551c:	1007883a 	mov	r3,r2
 2005520:	e0bffb17 	ldw	r2,-20(fp)
 2005524:	10c00515 	stw	r3,20(r2)
 2005528:	e0bffb17 	ldw	r2,-20(fp)
 200552c:	10800517 	ldw	r2,20(r2)
 2005530:	1000041e 	bne	r2,zero,2005544 <GifMakeSavedImage+0x138>
 2005534:	e13ffc17 	ldw	r4,-16(fp)
 2005538:	20053300 	call	2005330 <FreeLastSavedImage>
 200553c:	0005883a 	mov	r2,zero
 2005540:	00004606 	br	200565c <GifMakeSavedImage+0x250>
 2005544:	e0bffd17 	ldw	r2,-12(fp)
 2005548:	10c00317 	ldw	r3,12(r2)
 200554c:	e0bffd17 	ldw	r2,-12(fp)
 2005550:	10800217 	ldw	r2,8(r2)
 2005554:	1809883a 	mov	r4,r3
 2005558:	100b883a 	mov	r5,r2
 200555c:	20059200 	call	2005920 <__mulsi3>
 2005560:	0009883a 	mov	r4,zero
 2005564:	100b883a 	mov	r5,r2
 2005568:	01800044 	movi	r6,1
 200556c:	20057780 	call	2005778 <reallocarray>
 2005570:	1007883a 	mov	r3,r2
 2005574:	e0bffb17 	ldw	r2,-20(fp)
 2005578:	10c00615 	stw	r3,24(r2)
 200557c:	e0bffb17 	ldw	r2,-20(fp)
 2005580:	10800617 	ldw	r2,24(r2)
 2005584:	1000041e 	bne	r2,zero,2005598 <GifMakeSavedImage+0x18c>
 2005588:	e13ffc17 	ldw	r4,-16(fp)
 200558c:	20053300 	call	2005330 <FreeLastSavedImage>
 2005590:	0005883a 	mov	r2,zero
 2005594:	00003106 	br	200565c <GifMakeSavedImage+0x250>
 2005598:	e0bffb17 	ldw	r2,-20(fp)
 200559c:	14400617 	ldw	r17,24(r2)
 20055a0:	e0bffd17 	ldw	r2,-12(fp)
 20055a4:	14000617 	ldw	r16,24(r2)
 20055a8:	e0bffd17 	ldw	r2,-12(fp)
 20055ac:	10800317 	ldw	r2,12(r2)
 20055b0:	1007883a 	mov	r3,r2
 20055b4:	e0bffd17 	ldw	r2,-12(fp)
 20055b8:	10800217 	ldw	r2,8(r2)
 20055bc:	1809883a 	mov	r4,r3
 20055c0:	100b883a 	mov	r5,r2
 20055c4:	20059200 	call	2005920 <__mulsi3>
 20055c8:	8809883a 	mov	r4,r17
 20055cc:	800b883a 	mov	r5,r16
 20055d0:	100d883a 	mov	r6,r2
 20055d4:	20087040 	call	2008704 <memcpy>
 20055d8:	e0bffb17 	ldw	r2,-20(fp)
 20055dc:	10800817 	ldw	r2,32(r2)
 20055e0:	10001d26 	beq	r2,zero,2005658 <GifMakeSavedImage+0x24c>
 20055e4:	e0bffd17 	ldw	r2,-12(fp)
 20055e8:	10800717 	ldw	r2,28(r2)
 20055ec:	0009883a 	mov	r4,zero
 20055f0:	100b883a 	mov	r5,r2
 20055f4:	01800304 	movi	r6,12
 20055f8:	20057780 	call	2005778 <reallocarray>
 20055fc:	1007883a 	mov	r3,r2
 2005600:	e0bffb17 	ldw	r2,-20(fp)
 2005604:	10c00815 	stw	r3,32(r2)
 2005608:	e0bffb17 	ldw	r2,-20(fp)
 200560c:	10800817 	ldw	r2,32(r2)
 2005610:	1000041e 	bne	r2,zero,2005624 <GifMakeSavedImage+0x218>
 2005614:	e13ffc17 	ldw	r4,-16(fp)
 2005618:	20053300 	call	2005330 <FreeLastSavedImage>
 200561c:	0005883a 	mov	r2,zero
 2005620:	00000e06 	br	200565c <GifMakeSavedImage+0x250>
 2005624:	e0bffb17 	ldw	r2,-20(fp)
 2005628:	14400817 	ldw	r17,32(r2)
 200562c:	e0bffd17 	ldw	r2,-12(fp)
 2005630:	14000817 	ldw	r16,32(r2)
 2005634:	e0bffd17 	ldw	r2,-12(fp)
 2005638:	10800717 	ldw	r2,28(r2)
 200563c:	1009883a 	mov	r4,r2
 2005640:	01400304 	movi	r5,12
 2005644:	20059200 	call	2005920 <__mulsi3>
 2005648:	8809883a 	mov	r4,r17
 200564c:	800b883a 	mov	r5,r16
 2005650:	100d883a 	mov	r6,r2
 2005654:	20087040 	call	2008704 <memcpy>
 2005658:	e0bffb17 	ldw	r2,-20(fp)
 200565c:	e6fffe04 	addi	sp,fp,-8
 2005660:	dfc00317 	ldw	ra,12(sp)
 2005664:	df000217 	ldw	fp,8(sp)
 2005668:	dc400117 	ldw	r17,4(sp)
 200566c:	dc000017 	ldw	r16,0(sp)
 2005670:	dec00404 	addi	sp,sp,16
 2005674:	f800283a 	ret

02005678 <GifFreeSavedImages>:
 2005678:	defffb04 	addi	sp,sp,-20
 200567c:	dfc00415 	stw	ra,16(sp)
 2005680:	df000315 	stw	fp,12(sp)
 2005684:	dc000215 	stw	r16,8(sp)
 2005688:	df000304 	addi	fp,sp,12
 200568c:	e13ffe15 	stw	r4,-8(fp)
 2005690:	e0bffe17 	ldw	r2,-8(fp)
 2005694:	10000326 	beq	r2,zero,20056a4 <GifFreeSavedImages+0x2c>
 2005698:	e0bffe17 	ldw	r2,-8(fp)
 200569c:	10800d17 	ldw	r2,52(r2)
 20056a0:	1000011e 	bne	r2,zero,20056a8 <GifFreeSavedImages+0x30>
 20056a4:	00002e06 	br	2005760 <GifFreeSavedImages+0xe8>
 20056a8:	e0bffe17 	ldw	r2,-8(fp)
 20056ac:	10800d17 	ldw	r2,52(r2)
 20056b0:	e0bffd15 	stw	r2,-12(fp)
 20056b4:	00001a06 	br	2005720 <GifFreeSavedImages+0xa8>
 20056b8:	e0bffd17 	ldw	r2,-12(fp)
 20056bc:	10800517 	ldw	r2,20(r2)
 20056c0:	10000626 	beq	r2,zero,20056dc <GifFreeSavedImages+0x64>
 20056c4:	e0bffd17 	ldw	r2,-12(fp)
 20056c8:	10800517 	ldw	r2,20(r2)
 20056cc:	1009883a 	mov	r4,r2
 20056d0:	2004c380 	call	2004c38 <GifFreeMapObject>
 20056d4:	e0bffd17 	ldw	r2,-12(fp)
 20056d8:	10000515 	stw	zero,20(r2)
 20056dc:	e0bffd17 	ldw	r2,-12(fp)
 20056e0:	10800617 	ldw	r2,24(r2)
 20056e4:	10000426 	beq	r2,zero,20056f8 <GifFreeSavedImages+0x80>
 20056e8:	e0bffd17 	ldw	r2,-12(fp)
 20056ec:	10800617 	ldw	r2,24(r2)
 20056f0:	1009883a 	mov	r4,r2
 20056f4:	2007eb00 	call	2007eb0 <free>
 20056f8:	e0bffd17 	ldw	r2,-12(fp)
 20056fc:	10c00704 	addi	r3,r2,28
 2005700:	e0bffd17 	ldw	r2,-12(fp)
 2005704:	10800804 	addi	r2,r2,32
 2005708:	1809883a 	mov	r4,r3
 200570c:	100b883a 	mov	r5,r2
 2005710:	20052780 	call	2005278 <GifFreeExtensions>
 2005714:	e0bffd17 	ldw	r2,-12(fp)
 2005718:	10800904 	addi	r2,r2,36
 200571c:	e0bffd15 	stw	r2,-12(fp)
 2005720:	e0bffe17 	ldw	r2,-8(fp)
 2005724:	14000d17 	ldw	r16,52(r2)
 2005728:	e0bffe17 	ldw	r2,-8(fp)
 200572c:	10800617 	ldw	r2,24(r2)
 2005730:	1009883a 	mov	r4,r2
 2005734:	01400904 	movi	r5,36
 2005738:	20059200 	call	2005920 <__mulsi3>
 200573c:	8085883a 	add	r2,r16,r2
 2005740:	e0fffd17 	ldw	r3,-12(fp)
 2005744:	18bfdc36 	bltu	r3,r2,20056b8 <__reset+0xfdffc6b8>
 2005748:	e0bffe17 	ldw	r2,-8(fp)
 200574c:	10800d17 	ldw	r2,52(r2)
 2005750:	1009883a 	mov	r4,r2
 2005754:	2007eb00 	call	2007eb0 <free>
 2005758:	e0bffe17 	ldw	r2,-8(fp)
 200575c:	10000d15 	stw	zero,52(r2)
 2005760:	e6ffff04 	addi	sp,fp,-4
 2005764:	dfc00217 	ldw	ra,8(sp)
 2005768:	df000117 	ldw	fp,4(sp)
 200576c:	dc000017 	ldw	r16,0(sp)
 2005770:	dec00304 	addi	sp,sp,12
 2005774:	f800283a 	ret

02005778 <reallocarray>:
 2005778:	defffb04 	addi	sp,sp,-20
 200577c:	dfc00415 	stw	ra,16(sp)
 2005780:	df000315 	stw	fp,12(sp)
 2005784:	df000304 	addi	fp,sp,12
 2005788:	e13ffd15 	stw	r4,-12(fp)
 200578c:	e17ffe15 	stw	r5,-8(fp)
 2005790:	e1bfff15 	stw	r6,-4(fp)
 2005794:	e0bffe17 	ldw	r2,-8(fp)
 2005798:	00ffffd4 	movui	r3,65535
 200579c:	18800336 	bltu	r3,r2,20057ac <reallocarray+0x34>
 20057a0:	e0bfff17 	ldw	r2,-4(fp)
 20057a4:	00ffffd4 	movui	r3,65535
 20057a8:	18800d2e 	bgeu	r3,r2,20057e0 <reallocarray+0x68>
 20057ac:	e0bffe17 	ldw	r2,-8(fp)
 20057b0:	10000b26 	beq	r2,zero,20057e0 <reallocarray+0x68>
 20057b4:	013fffc4 	movi	r4,-1
 20057b8:	e17ffe17 	ldw	r5,-8(fp)
 20057bc:	20059100 	call	2005910 <__udivsi3>
 20057c0:	1007883a 	mov	r3,r2
 20057c4:	e0bfff17 	ldw	r2,-4(fp)
 20057c8:	1880052e 	bgeu	r3,r2,20057e0 <reallocarray+0x68>
 20057cc:	2006dd40 	call	2006dd4 <__errno>
 20057d0:	00c00304 	movi	r3,12
 20057d4:	10c00015 	stw	r3,0(r2)
 20057d8:	0005883a 	mov	r2,zero
 20057dc:	00000606 	br	20057f8 <reallocarray+0x80>
 20057e0:	e13fff17 	ldw	r4,-4(fp)
 20057e4:	e17ffe17 	ldw	r5,-8(fp)
 20057e8:	20059200 	call	2005920 <__mulsi3>
 20057ec:	e13ffd17 	ldw	r4,-12(fp)
 20057f0:	100b883a 	mov	r5,r2
 20057f4:	200898c0 	call	200898c <realloc>
 20057f8:	e037883a 	mov	sp,fp
 20057fc:	dfc00117 	ldw	ra,4(sp)
 2005800:	df000017 	ldw	fp,0(sp)
 2005804:	dec00204 	addi	sp,sp,8
 2005808:	f800283a 	ret

0200580c <udivmodsi4>:
 200580c:	2900182e 	bgeu	r5,r4,2005870 <udivmodsi4+0x64>
 2005810:	28001716 	blt	r5,zero,2005870 <udivmodsi4+0x64>
 2005814:	00800804 	movi	r2,32
 2005818:	00c00044 	movi	r3,1
 200581c:	00000206 	br	2005828 <udivmodsi4+0x1c>
 2005820:	10001126 	beq	r2,zero,2005868 <udivmodsi4+0x5c>
 2005824:	28000516 	blt	r5,zero,200583c <udivmodsi4+0x30>
 2005828:	294b883a 	add	r5,r5,r5
 200582c:	10bfffc4 	addi	r2,r2,-1
 2005830:	18c7883a 	add	r3,r3,r3
 2005834:	293ffa36 	bltu	r5,r4,2005820 <__reset+0xfdffc820>
 2005838:	18000b26 	beq	r3,zero,2005868 <udivmodsi4+0x5c>
 200583c:	0005883a 	mov	r2,zero
 2005840:	21400236 	bltu	r4,r5,200584c <udivmodsi4+0x40>
 2005844:	2149c83a 	sub	r4,r4,r5
 2005848:	10c4b03a 	or	r2,r2,r3
 200584c:	1806d07a 	srli	r3,r3,1
 2005850:	280ad07a 	srli	r5,r5,1
 2005854:	183ffa1e 	bne	r3,zero,2005840 <__reset+0xfdffc840>
 2005858:	3000011e 	bne	r6,zero,2005860 <udivmodsi4+0x54>
 200585c:	f800283a 	ret
 2005860:	2005883a 	mov	r2,r4
 2005864:	f800283a 	ret
 2005868:	0005883a 	mov	r2,zero
 200586c:	003ffa06 	br	2005858 <__reset+0xfdffc858>
 2005870:	00c00044 	movi	r3,1
 2005874:	0005883a 	mov	r2,zero
 2005878:	003ff106 	br	2005840 <__reset+0xfdffc840>

0200587c <__divsi3>:
 200587c:	deffff04 	addi	sp,sp,-4
 2005880:	dfc00015 	stw	ra,0(sp)
 2005884:	20000916 	blt	r4,zero,20058ac <__divsi3+0x30>
 2005888:	000f883a 	mov	r7,zero
 200588c:	28000a16 	blt	r5,zero,20058b8 <__divsi3+0x3c>
 2005890:	000d883a 	mov	r6,zero
 2005894:	200580c0 	call	200580c <udivmodsi4>
 2005898:	38000126 	beq	r7,zero,20058a0 <__divsi3+0x24>
 200589c:	0085c83a 	sub	r2,zero,r2
 20058a0:	dfc00017 	ldw	ra,0(sp)
 20058a4:	dec00104 	addi	sp,sp,4
 20058a8:	f800283a 	ret
 20058ac:	0109c83a 	sub	r4,zero,r4
 20058b0:	01c00044 	movi	r7,1
 20058b4:	283ff60e 	bge	r5,zero,2005890 <__reset+0xfdffc890>
 20058b8:	014bc83a 	sub	r5,zero,r5
 20058bc:	39c0005c 	xori	r7,r7,1
 20058c0:	003ff306 	br	2005890 <__reset+0xfdffc890>

020058c4 <__modsi3>:
 20058c4:	20000316 	blt	r4,zero,20058d4 <__modsi3+0x10>
 20058c8:	28000c16 	blt	r5,zero,20058fc <__modsi3+0x38>
 20058cc:	01800044 	movi	r6,1
 20058d0:	200580c1 	jmpi	200580c <udivmodsi4>
 20058d4:	deffff04 	addi	sp,sp,-4
 20058d8:	dfc00015 	stw	ra,0(sp)
 20058dc:	0109c83a 	sub	r4,zero,r4
 20058e0:	28000916 	blt	r5,zero,2005908 <__modsi3+0x44>
 20058e4:	01800044 	movi	r6,1
 20058e8:	200580c0 	call	200580c <udivmodsi4>
 20058ec:	0085c83a 	sub	r2,zero,r2
 20058f0:	dfc00017 	ldw	ra,0(sp)
 20058f4:	dec00104 	addi	sp,sp,4
 20058f8:	f800283a 	ret
 20058fc:	014bc83a 	sub	r5,zero,r5
 2005900:	01800044 	movi	r6,1
 2005904:	200580c1 	jmpi	200580c <udivmodsi4>
 2005908:	014bc83a 	sub	r5,zero,r5
 200590c:	003ff506 	br	20058e4 <__reset+0xfdffc8e4>

02005910 <__udivsi3>:
 2005910:	000d883a 	mov	r6,zero
 2005914:	200580c1 	jmpi	200580c <udivmodsi4>

02005918 <__umodsi3>:
 2005918:	01800044 	movi	r6,1
 200591c:	200580c1 	jmpi	200580c <udivmodsi4>

02005920 <__mulsi3>:
 2005920:	0005883a 	mov	r2,zero
 2005924:	20000726 	beq	r4,zero,2005944 <__mulsi3+0x24>
 2005928:	20c0004c 	andi	r3,r4,1
 200592c:	2008d07a 	srli	r4,r4,1
 2005930:	18000126 	beq	r3,zero,2005938 <__mulsi3+0x18>
 2005934:	1145883a 	add	r2,r2,r5
 2005938:	294b883a 	add	r5,r5,r5
 200593c:	203ffa1e 	bne	r4,zero,2005928 <__reset+0xfdffc928>
 2005940:	f800283a 	ret
 2005944:	f800283a 	ret

02005948 <__divdf3>:
 2005948:	defff004 	addi	sp,sp,-64
 200594c:	dd000a15 	stw	r20,40(sp)
 2005950:	2828d53a 	srli	r20,r5,20
 2005954:	dd800c15 	stw	r22,48(sp)
 2005958:	282cd7fa 	srli	r22,r5,31
 200595c:	df000e15 	stw	fp,56(sp)
 2005960:	dcc00915 	stw	r19,36(sp)
 2005964:	dc800815 	stw	r18,32(sp)
 2005968:	04c00434 	movhi	r19,16
 200596c:	9cffffc4 	addi	r19,r19,-1
 2005970:	dfc00f15 	stw	ra,60(sp)
 2005974:	ddc00d15 	stw	r23,52(sp)
 2005978:	dd400b15 	stw	r21,44(sp)
 200597c:	dc400715 	stw	r17,28(sp)
 2005980:	dc000615 	stw	r16,24(sp)
 2005984:	a501ffcc 	andi	r20,r20,2047
 2005988:	2025883a 	mov	r18,r4
 200598c:	2ce6703a 	and	r19,r5,r19
 2005990:	b7003fcc 	andi	fp,r22,255
 2005994:	a0006a26 	beq	r20,zero,2005b40 <__divdf3+0x1f8>
 2005998:	0081ffc4 	movi	r2,2047
 200599c:	2021883a 	mov	r16,r4
 20059a0:	a0803726 	beq	r20,r2,2005a80 <__divdf3+0x138>
 20059a4:	98800434 	orhi	r2,r19,16
 20059a8:	100490fa 	slli	r2,r2,3
 20059ac:	2026d77a 	srli	r19,r4,29
 20059b0:	202090fa 	slli	r16,r4,3
 20059b4:	a53f0044 	addi	r20,r20,-1023
 20059b8:	14e6b03a 	or	r19,r2,r19
 20059bc:	002b883a 	mov	r21,zero
 20059c0:	0013883a 	mov	r9,zero
 20059c4:	3804d53a 	srli	r2,r7,20
 20059c8:	382ed7fa 	srli	r23,r7,31
 20059cc:	04400434 	movhi	r17,16
 20059d0:	8c7fffc4 	addi	r17,r17,-1
 20059d4:	1081ffcc 	andi	r2,r2,2047
 20059d8:	3025883a 	mov	r18,r6
 20059dc:	3c62703a 	and	r17,r7,r17
 20059e0:	ba803fcc 	andi	r10,r23,255
 20059e4:	10007326 	beq	r2,zero,2005bb4 <__divdf3+0x26c>
 20059e8:	0101ffc4 	movi	r4,2047
 20059ec:	11006b26 	beq	r2,r4,2005b9c <__divdf3+0x254>
 20059f0:	89000434 	orhi	r4,r17,16
 20059f4:	200890fa 	slli	r4,r4,3
 20059f8:	3022d77a 	srli	r17,r6,29
 20059fc:	302490fa 	slli	r18,r6,3
 2005a00:	10bf0044 	addi	r2,r2,-1023
 2005a04:	2462b03a 	or	r17,r4,r17
 2005a08:	000f883a 	mov	r7,zero
 2005a0c:	b5caf03a 	xor	r5,r22,r23
 2005a10:	3d48b03a 	or	r4,r7,r21
 2005a14:	00c003c4 	movi	r3,15
 2005a18:	2811883a 	mov	r8,r5
 2005a1c:	2d403fcc 	andi	r21,r5,255
 2005a20:	19009436 	bltu	r3,r4,2005c74 <__divdf3+0x32c>
 2005a24:	2109883a 	add	r4,r4,r4
 2005a28:	00c08034 	movhi	r3,512
 2005a2c:	18d69004 	addi	r3,r3,23104
 2005a30:	2109883a 	add	r4,r4,r4
 2005a34:	20c9883a 	add	r4,r4,r3
 2005a38:	20c00017 	ldw	r3,0(r4)
 2005a3c:	1800683a 	jmp	r3
 2005a40:	02005c74 	movhi	r8,369
 2005a44:	02005adc 	xori	r8,zero,363
 2005a48:	02005c64 	muli	r8,zero,369
 2005a4c:	02005aac 	andhi	r8,zero,362
 2005a50:	02005c64 	muli	r8,zero,369
 2005a54:	02005c4c 	andi	r8,zero,369
 2005a58:	02005c64 	muli	r8,zero,369
 2005a5c:	02005aac 	andhi	r8,zero,362
 2005a60:	02005adc 	xori	r8,zero,363
 2005a64:	02005adc 	xori	r8,zero,363
 2005a68:	02005c4c 	andi	r8,zero,369
 2005a6c:	02005aac 	andhi	r8,zero,362
 2005a70:	02005a9c 	xori	r8,zero,362
 2005a74:	02005a9c 	xori	r8,zero,362
 2005a78:	02005a9c 	xori	r8,zero,362
 2005a7c:	02006004 	movi	r8,384
 2005a80:	9904b03a 	or	r2,r19,r4
 2005a84:	10006e1e 	bne	r2,zero,2005c40 <__divdf3+0x2f8>
 2005a88:	05400204 	movi	r21,8
 2005a8c:	0027883a 	mov	r19,zero
 2005a90:	0021883a 	mov	r16,zero
 2005a94:	02400084 	movi	r9,2
 2005a98:	003fca06 	br	20059c4 <__reset+0xfdffc9c4>
 2005a9c:	9823883a 	mov	r17,r19
 2005aa0:	8025883a 	mov	r18,r16
 2005aa4:	e015883a 	mov	r10,fp
 2005aa8:	480f883a 	mov	r7,r9
 2005aac:	00800084 	movi	r2,2
 2005ab0:	38800926 	beq	r7,r2,2005ad8 <__divdf3+0x190>
 2005ab4:	008000c4 	movi	r2,3
 2005ab8:	38820226 	beq	r7,r2,20062c4 <__divdf3+0x97c>
 2005abc:	00800044 	movi	r2,1
 2005ac0:	3881b81e 	bne	r7,r2,20061a4 <__divdf3+0x85c>
 2005ac4:	5011883a 	mov	r8,r10
 2005ac8:	0005883a 	mov	r2,zero
 2005acc:	0027883a 	mov	r19,zero
 2005ad0:	0021883a 	mov	r16,zero
 2005ad4:	00000506 	br	2005aec <__divdf3+0x1a4>
 2005ad8:	502b883a 	mov	r21,r10
 2005adc:	aa00004c 	andi	r8,r21,1
 2005ae0:	0081ffc4 	movi	r2,2047
 2005ae4:	0027883a 	mov	r19,zero
 2005ae8:	0021883a 	mov	r16,zero
 2005aec:	1004953a 	slli	r2,r2,20
 2005af0:	42003fcc 	andi	r8,r8,255
 2005af4:	401097fa 	slli	r8,r8,31
 2005af8:	00c00434 	movhi	r3,16
 2005afc:	18ffffc4 	addi	r3,r3,-1
 2005b00:	98e6703a 	and	r19,r19,r3
 2005b04:	9886b03a 	or	r3,r19,r2
 2005b08:	1a06b03a 	or	r3,r3,r8
 2005b0c:	8005883a 	mov	r2,r16
 2005b10:	dfc00f17 	ldw	ra,60(sp)
 2005b14:	df000e17 	ldw	fp,56(sp)
 2005b18:	ddc00d17 	ldw	r23,52(sp)
 2005b1c:	dd800c17 	ldw	r22,48(sp)
 2005b20:	dd400b17 	ldw	r21,44(sp)
 2005b24:	dd000a17 	ldw	r20,40(sp)
 2005b28:	dcc00917 	ldw	r19,36(sp)
 2005b2c:	dc800817 	ldw	r18,32(sp)
 2005b30:	dc400717 	ldw	r17,28(sp)
 2005b34:	dc000617 	ldw	r16,24(sp)
 2005b38:	dec01004 	addi	sp,sp,64
 2005b3c:	f800283a 	ret
 2005b40:	9904b03a 	or	r2,r19,r4
