
LEDTileRandomizer.elf:     file format elf32-littlenios2
LEDTileRandomizer.elf
architecture: nios2, flags 0x00000112:
EXEC_P, HAS_SYMS, D_PAGED
start address 0x0200022c

Program Header:
    LOAD off    0x00001020 vaddr 0x02000020 paddr 0x02000020 align 2**12
         filesz 0x00020da8 memsz 0x00020f30 flags rwx
    LOAD off    0x00022000 vaddr 0x04009000 paddr 0x04009000 align 2**12
         filesz 0x00000000 memsz 0x00000000 flags r-x

Sections:
Idx Name          Size      VMA       LMA       File off  Algn
  0 .entry        00000000  04009000  04009000  00022000  2**5
                  CONTENTS, ALLOC, LOAD, READONLY, CODE
  1 .exceptions   0000020c  02000020  02000020  00001020  2**2
                  CONTENTS, ALLOC, LOAD, READONLY, CODE
  2 .text         0001692c  0200022c  0200022c  0000122c  2**2
                  CONTENTS, ALLOC, LOAD, READONLY, CODE
  3 .rodata       00008594  02016b58  02016b58  00017b58  2**2
                  CONTENTS, ALLOC, LOAD, READONLY, DATA
  4 .rwdata       00001cdc  0201f0ec  0201f0ec  000200ec  2**2
                  CONTENTS, ALLOC, LOAD, DATA, SMALL_DATA
  5 .bss          00000188  02020dc8  02020dc8  00021dc8  2**2
                  ALLOC, SMALL_DATA
  6 .sdram_controller 00000000  02020f50  02020f50  00022000  2**0
                  CONTENTS
  7 .onchip_memory2 00000000  04000000  04000000  00022000  2**0
                  CONTENTS
  8 .epcs_flash_controller 00000000  04009020  04009020  00022000  2**0
                  CONTENTS
  9 .comment      00000039  00000000  00000000  00022000  2**0
                  CONTENTS, READONLY
 10 .debug_aranges 00000f08  00000000  00000000  00022040  2**3
                  CONTENTS, READONLY, DEBUGGING
 11 .debug_info   0002c2e2  00000000  00000000  00022f48  2**0
                  CONTENTS, READONLY, DEBUGGING
 12 .debug_abbrev 0000ad07  00000000  00000000  0004f22a  2**0
                  CONTENTS, READONLY, DEBUGGING
 13 .debug_line   0000d57e  00000000  00000000  00059f31  2**0
                  CONTENTS, READONLY, DEBUGGING
 14 .debug_frame  00002ed8  00000000  00000000  000674b0  2**2
                  CONTENTS, READONLY, DEBUGGING
 15 .debug_str    00004b13  00000000  00000000  0006a388  2**0
                  CONTENTS, READONLY, DEBUGGING
 16 .debug_loc    000178ea  00000000  00000000  0006ee9b  2**0
                  CONTENTS, READONLY, DEBUGGING
 17 .debug_alt_sim_info 00000010  00000000  00000000  00086788  2**2
                  CONTENTS, READONLY, DEBUGGING
 18 .debug_ranges 00001348  00000000  00000000  00086798  2**3
                  CONTENTS, READONLY, DEBUGGING
 19 .thread_model 00000003  00000000  00000000  0008c07e  2**0
                  CONTENTS, READONLY
 20 .cpu          00000003  00000000  00000000  0008c081  2**0
                  CONTENTS, READONLY
 21 .qsys         00000001  00000000  00000000  0008c084  2**0
                  CONTENTS, READONLY
 22 .simulation_enabled 00000001  00000000  00000000  0008c085  2**0
                  CONTENTS, READONLY
 23 .sysid_hash   00000004  00000000  00000000  0008c086  2**0
                  CONTENTS, READONLY
 24 .sysid_base   00000004  00000000  00000000  0008c08a  2**0
                  CONTENTS, READONLY
 25 .sysid_time   00000004  00000000  00000000  0008c08e  2**0
                  CONTENTS, READONLY
 26 .stderr_dev   00000009  00000000  00000000  0008c092  2**0
                  CONTENTS, READONLY
 27 .stdin_dev    00000009  00000000  00000000  0008c09b  2**0
                  CONTENTS, READONLY
 28 .stdout_dev   00000009  00000000  00000000  0008c0a4  2**0
                  CONTENTS, READONLY
 29 .sopc_system_name 00000004  00000000  00000000  0008c0ad  2**0
                  CONTENTS, READONLY
 30 .sopcinfo     0007c166  00000000  00000000  0008c0b1  2**0
                  CONTENTS, READONLY
SYMBOL TABLE:
04009000 l    d  .entry	00000000 .entry
02000020 l    d  .exceptions	00000000 .exceptions
0200022c l    d  .text	00000000 .text
02016b58 l    d  .rodata	00000000 .rodata
0201f0ec l    d  .rwdata	00000000 .rwdata
02020dc8 l    d  .bss	00000000 .bss
02020f50 l    d  .sdram_controller	00000000 .sdram_controller
04000000 l    d  .onchip_memory2	00000000 .onchip_memory2
04009020 l    d  .epcs_flash_controller	00000000 .epcs_flash_controller
00000000 l    d  .comment	00000000 .comment
00000000 l    d  .debug_aranges	00000000 .debug_aranges
00000000 l    d  .debug_info	00000000 .debug_info
00000000 l    d  .debug_abbrev	00000000 .debug_abbrev
00000000 l    d  .debug_line	00000000 .debug_line
00000000 l    d  .debug_frame	00000000 .debug_frame
00000000 l    d  .debug_str	00000000 .debug_str
00000000 l    d  .debug_loc	00000000 .debug_loc
00000000 l    d  .debug_alt_sim_info	00000000 .debug_alt_sim_info
00000000 l    d  .debug_ranges	00000000 .debug_ranges
00000000 l    df *ABS*	00000000 ../LEDTile_BSP2//obj/HAL/src/crt0.o
02000260 l       .text	00000000 alt_after_alt_main
00000000 l    df *ABS*	00000000 alt_irq_handler.c
00000000 l    df *ABS*	00000000 alt_instruction_exception_entry.c
00000000 l    df *ABS*	00000000 main.c
0201b800 l     O .rodata	000000f0 __compound_literal.0
0201b904 l     O .rodata	0000167f __compound_literal.1
0201cfa0 l     O .rodata	00000178 __compound_literal.2
0201d12c l     O .rodata	000000cc __compound_literal.3
0201d210 l     O .rodata	000000a1 __compound_literal.4
0201d2d0 l     O .rodata	000000d2 __compound_literal.5
0201d3b8 l     O .rodata	000000bd __compound_literal.6
0201d48c l     O .rodata	00000234 __compound_literal.7
0201d6dc l     O .rodata	000001f4 __compound_literal.8
0201d8e4 l     O .rodata	0000013e __compound_literal.9
0201da3c l     O .rodata	00000393 __compound_literal.10
0201dde8 l     O .rodata	0000009e __compound_literal.11
0201de98 l     O .rodata	00000095 __compound_literal.12
0201df44 l     O .rodata	000000a3 __compound_literal.13
0201e000 l     O .rodata	000000a0 __compound_literal.14
0201e0bc l     O .rodata	00000107 __compound_literal.15
0201e1d8 l     O .rodata	0000013f __compound_literal.16
02020d7c l     O .rwdata	00000004 nextImageTime.2892
02020dd4 l     O .bss	00000004 gifIdx.2893
00000000 l    df *ABS*	00000000 LEDTileLib.c
00000000 l    df *ABS*	00000000 dgif_lib.c
02003844 l     F .text	000000c4 DGifGetWord
02003b10 l     F .text	000001c8 DGifSetupDecompress
02003cd8 l     F .text	000004e8 DGifDecompressLine
02004358 l     F .text	000001c0 DGifDecompressInput
020041c0 l     F .text	00000084 DGifGetPrefixChar
02004518 l     F .text	000001f0 DGifBufferedInput
0201edb4 l     O .rodata	0000001a CodeMasks.3759
00000000 l    df *ABS*	00000000 gifalloc.c
00000000 l    df *ABS*	00000000 openbsd-reallocarray.c
00000000 l    df *ABS*	00000000 lib2-divmod.c
0200580c l     F .text	00000070 udivmodsi4
00000000 l    df *ABS*	00000000 lib2-mul.c
00000000 l    df *ABS*	00000000 divdf3.c
00000000 l    df *ABS*	00000000 muldf3.c
00000000 l    df *ABS*	00000000 fixdfsi.c
00000000 l    df *ABS*	00000000 floatsidf.c
00000000 l    df *ABS*	00000000 libgcc2.c
00000000 l    df *ABS*	00000000 libgcc2.c
00000000 l    df *ABS*	00000000 calloc.c
00000000 l    df *ABS*	00000000 mallocr.c
00000000 l    df *ABS*	00000000 errno.c
00000000 l    df *ABS*	00000000 fclose.c
00000000 l    df *ABS*	00000000 fdopen.c
00000000 l    df *ABS*	00000000 fflush.c
00000000 l    df *ABS*	00000000 findfp.c
02007264 l     F .text	00000008 __fp_lock
0200726c l     F .text	00000008 __fp_unlock
00000000 l    df *ABS*	00000000 flags.c
00000000 l    df *ABS*	00000000 fread.c
00000000 l    df *ABS*	00000000 mallocr.c
00000000 l    df *ABS*	00000000 fwalk.c
00000000 l    df *ABS*	00000000 impure.c
0201f140 l     O .rwdata	00000424 impure_data
00000000 l    df *ABS*	00000000 malloc.c
00000000 l    df *ABS*	00000000 mallocr.c
00000000 l    df *ABS*	00000000 memcmp.c
00000000 l    df *ABS*	00000000 memcpy.c
00000000 l    df *ABS*	00000000 memset.c
00000000 l    df *ABS*	00000000 printf.c
00000000 l    df *ABS*	00000000 realloc.c
00000000 l    df *ABS*	00000000 mallocr.c
00000000 l    df *ABS*	00000000 refill.c
02008f0c l     F .text	0000001c lflush
00000000 l    df *ABS*	00000000 sbrkr.c
00000000 l    df *ABS*	00000000 stdio.c
00000000 l    df *ABS*	00000000 strncmp.c
00000000 l    df *ABS*	00000000 vfprintf.c
0201ef16 l     O .rodata	00000010 zeroes.4155
0201ef26 l     O .rodata	00000010 blanks.4154
00000000 l    df *ABS*	00000000 writer.c
00000000 l    df *ABS*	00000000 wsetup.c
00000000 l    df *ABS*	00000000 closer.c
00000000 l    df *ABS*	00000000 dtoa.c
0200b71c l     F .text	00000228 quorem
00000000 l    df *ABS*	00000000 int_errno.c
00000000 l    df *ABS*	00000000 locale.c
0201f98c l     O .rwdata	00000020 lc_ctype_charset
0201f96c l     O .rwdata	00000020 lc_message_charset
0201f9ac l     O .rwdata	00000038 lconv
00000000 l    df *ABS*	00000000 lseekr.c
00000000 l    df *ABS*	00000000 makebuf.c
00000000 l    df *ABS*	00000000 memchr.c
00000000 l    df *ABS*	00000000 memmove.c
00000000 l    df *ABS*	00000000 mprec.c
0201ef54 l     O .rodata	0000000c p05.2652
00000000 l    df *ABS*	00000000 readr.c
00000000 l    df *ABS*	00000000 s_fpclassify.c
00000000 l    df *ABS*	00000000 strcmp.c
00000000 l    df *ABS*	00000000 strlen.c
00000000 l    df *ABS*	00000000 vfprintf.c
0200e6c4 l     F .text	000000fc __sprint_r.part.0
0201f088 l     O .rodata	00000010 blanks.4099
0201f078 l     O .rodata	00000010 zeroes.4100
00000000 l    df *ABS*	00000000 fputwc.c
00000000 l    df *ABS*	00000000 fstatr.c
00000000 l    df *ABS*	00000000 fvwrite.c
00000000 l    df *ABS*	00000000 isattyr.c
00000000 l    df *ABS*	00000000 wbuf.c
00000000 l    df *ABS*	00000000 wcrtomb.c
00000000 l    df *ABS*	00000000 wctomb_r.c
00000000 l    df *ABS*	00000000 libgcc2.c
00000000 l    df *ABS*	00000000 libgcc2.c
00000000 l    df *ABS*	00000000 adddf3.c
00000000 l    df *ABS*	00000000 eqdf2.c
00000000 l    df *ABS*	00000000 gedf2.c
00000000 l    df *ABS*	00000000 ledf2.c
00000000 l    df *ABS*	00000000 subdf3.c
00000000 l    df *ABS*	00000000 floatunsidf.c
00000000 l    df *ABS*	00000000 alt_alarm_start.c
00000000 l    df *ABS*	00000000 alt_close.c
02012908 l     F .text	00000050 alt_get_errno
00000000 l    df *ABS*	00000000 alt_dev.c
02012a28 l     F .text	0000002c alt_dev_null_write
00000000 l    df *ABS*	00000000 alt_errno.c
00000000 l    df *ABS*	00000000 alt_fstat.c
02012a54 l     F .text	00000050 alt_get_errno
00000000 l    df *ABS*	00000000 alt_isatty.c
02012b58 l     F .text	00000050 alt_get_errno
00000000 l    df *ABS*	00000000 alt_lseek.c
02012c50 l     F .text	00000050 alt_get_errno
00000000 l    df *ABS*	00000000 alt_main.c
00000000 l    df *ABS*	00000000 alt_malloc_lock.c
00000000 l    df *ABS*	00000000 alt_open.c
02012e30 l     F .text	00000050 alt_get_errno
02012e80 l     F .text	000000f4 alt_file_locked
00000000 l    df *ABS*	00000000 alt_read.c
020130d0 l     F .text	00000050 alt_get_errno
00000000 l    df *ABS*	00000000 alt_release_fd.c
00000000 l    df *ABS*	00000000 alt_sbrk.c
02020db0 l     O .rwdata	00000004 heap_end
00000000 l    df *ABS*	00000000 alt_tick.c
00000000 l    df *ABS*	00000000 alt_write.c
020134e4 l     F .text	00000050 alt_get_errno
00000000 l    df *ABS*	00000000 alt_sys_init.c
02013628 l     F .text	00000038 alt_dev_reg
0201fb8c l     O .rwdata	000000c8 epcs_flash_controller
0201fc54 l     O .rwdata	00001060 jtag_uart
02020cb4 l     O .rwdata	000000c4 uart_0
00000000 l    df *ABS*	00000000 altera_avalon_epcs_flash_controller.c
02013720 l     F .text	00000038 alt_flash_device_register
020137ac l     F .text	000003f8 alt_epcs_flash_query
02013ba4 l     F .text	000000e8 alt_epcs_flash_memcmp
02013f78 l     F .text	00000094 alt_epcs_test_address
00000000 l    df *ABS*	00000000 altera_avalon_jtag_uart_fd.c
00000000 l    df *ABS*	00000000 altera_avalon_jtag_uart_init.c
02014440 l     F .text	000001fc altera_avalon_jtag_uart_irq
0201463c l     F .text	000000a4 altera_avalon_jtag_uart_timeout
00000000 l    df *ABS*	00000000 altera_avalon_jtag_uart_ioctl.c
00000000 l    df *ABS*	00000000 altera_avalon_jtag_uart_read.c
00000000 l    df *ABS*	00000000 altera_avalon_jtag_uart_write.c
00000000 l    df *ABS*	00000000 altera_avalon_timer_sc.c
02014c54 l     F .text	00000074 alt_avalon_timer_sc_irq
00000000 l    df *ABS*	00000000 altera_avalon_uart_fd.c
00000000 l    df *ABS*	00000000 altera_avalon_uart_init.c
02014f08 l     F .text	00000098 altera_avalon_uart_irq
02014fa0 l     F .text	000000dc altera_avalon_uart_rxirq
0201507c l     F .text	00000144 altera_avalon_uart_txirq
00000000 l    df *ABS*	00000000 altera_avalon_uart_read.c
02015214 l     F .text	00000050 alt_get_errno
00000000 l    df *ABS*	00000000 altera_avalon_uart_write.c
02015440 l     F .text	00000050 alt_get_errno
00000000 l    df *ABS*	00000000 epcs_commands.c
02015694 l     F .text	00000038 epcs_test_wip
020156cc l     F .text	00000038 epcs_await_wip_released
00000000 l    df *ABS*	00000000 alt_dev_llist_insert.c
02015c64 l     F .text	00000050 alt_get_errno
00000000 l    df *ABS*	00000000 alt_do_ctors.c
00000000 l    df *ABS*	00000000 alt_do_dtors.c
00000000 l    df *ABS*	00000000 alt_find_dev.c
00000000 l    df *ABS*	00000000 alt_find_file.c
00000000 l    df *ABS*	00000000 alt_flash_dev.c
00000000 l    df *ABS*	00000000 alt_get_fd.c
00000000 l    df *ABS*	00000000 alt_iic.c
00000000 l    df *ABS*	00000000 alt_iic_isr_register.c
00000000 l    df *ABS*	00000000 alt_io_redirect.c
02016404 l     F .text	000000e0 alt_open_fd
00000000 l    df *ABS*	00000000 alt_irq_vars.c
00000000 l    df *ABS*	00000000 altera_nios2_gen2_irq.c
00000000 l    df *ABS*	00000000 altera_avalon_spi.c
00000000 l    df *ABS*	00000000 atexit.c
00000000 l    df *ABS*	00000000 exit.c
00000000 l    df *ABS*	00000000 __atexit.c
00000000 l    df *ABS*	00000000 __call_atexit.c
00000000 l    df *ABS*	00000000 alt_exit.c
02020e0c g     O .bss	00000004 alt_instruction_exception_handler
0200e34c g     F .text	00000074 _mprec_log10
02013eec g     F .text	0000008c alt_epcs_flash_get_info
0200e438 g     F .text	00000088 __any_on
02010354 g     F .text	00000064 _isatty_r
0201ef60 g     O .rodata	00000028 __mprec_tinytens
02012d78 g     F .text	00000078 alt_main
02020e50 g     O .bss	00000100 alt_irq
0200d054 g     F .text	0000006c _lseek_r
0201cf94 g     O .rodata	0000000c fishswimming1
02007608 g     F .text	00000098 __sflags
02011c58 g     F .text	00000084 .hidden __eqdf2
02020f50 g       *ABS*	00000000 __alt_heap_start
02000660 g     F .text	000000d8 blank
02003314 g     F .text	0000017c DGifGetExtensionNext
02008950 g     F .text	0000003c printf
02010554 g     F .text	0000009c _wcrtomb_r
0200923c g     F .text	0000005c __sseek
02007310 g     F .text	0000019c __sinit
020103b8 g     F .text	00000180 __swbuf_r
0200cf80 g     F .text	00000070 _setlocale_r
02007280 g     F .text	00000078 __sfmoreglue
02012e10 g     F .text	00000020 __malloc_unlock
02000264 g     F .text	0000023c frame_callback
0201dddc g     O .rodata	0000000c CupOfWishes
02020e38 g     O .bss	00000018 frameAlarm
02002a14 g     F .text	0000014c DGifGetRecordType
02002b60 g     F .text	000004c8 DGifGetImageDesc
0201eba8 g     O .rodata	00000200 gamma46half
0200d35c g     F .text	0000013c memmove
02004708 g     F .text	000003e4 DGifSlurp
020072f8 g     F .text	00000018 _cleanup
0200d498 g     F .text	000000a8 _Balloc
02011cdc g     F .text	000000d8 .hidden __gtdf2
0201655c g     F .text	00000020 altera_nios2_gen2_irq_init
02006dd4 g     F .text	00000010 __errno
02015704 g     F .text	000000f8 epcs_sector_erase
04009000 g     F .entry	00000000 __reset
020021d0 g     F .text	00000078 DGifOpenFileName
0200fe40 g     F .text	00000068 _fstat_r
02020de4 g     O .bss	00000004 errno
020091b8 g     F .text	00000008 __seofread
02000000 g       *ABS*	00000000 __alt_mem_sdram_controller
02020df8 g     O .bss	00000004 alt_argv
02028d78 g       *ABS*	00000000 _gp
0201e1cc g     O .rodata	0000000c Notepad
020175e8 g     O .rodata	00002abf cattailbytes
0201a0c0 g     O .rodata	0000010a DrWBytes
0201a31c g     O .rodata	000014ca pharmacybytes
0201fa0c g     O .rwdata	00000180 alt_fd_list
02015940 g     F .text	00000068 epcs_write_status_register
02015e0c g     F .text	00000090 alt_find_dev
02008704 g     F .text	0000010c memcpy
02007274 g     F .text	0000000c _cleanup_r
02006b64 g     F .text	000000d0 .hidden __floatsidf
0201e5a8 g     O .rodata	00000200 cie1931
020164e4 g     F .text	00000078 alt_io_redirect
02011db4 g     F .text	000000ec .hidden __ltdf2
02016b58 g       *ABS*	00000000 __DTOR_END__
02016778 g     F .text	000000a0 alt_exception_cause_generated_bad_addr
02002248 g     F .text	00000260 DGifOpenFileHandle
02004c38 g     F .text	00000048 GifFreeMapObject
02014080 g     F .text	00000104 alt_epcs_flash_write_block
0201a1d4 g     O .rodata	0000000c DrW
0200e52c g     F .text	00000068 __fpclassifyd
0200e2ac g     F .text	000000a0 __ratio
0200fc20 g     F .text	00000024 __vfiprintf_internal
0201f0ec g     O .rwdata	00000054 memoryGifs
02014834 g     F .text	00000208 altera_avalon_jtag_uart_read
02007e9c g     F .text	00000014 malloc
02008924 g     F .text	0000002c _printf_r
02005910 g     F .text	00000008 .hidden __udivsi3
02012ba8 g     F .text	000000a8 isatty
0201efb0 g     O .rodata	000000c8 __mprec_tens
0201b8f8 g     O .rodata	0000000c Link
0200cff0 g     F .text	0000000c __locale_charset
02003490 g     F .text	000000ec DGifExtensionToGCB
02020de0 g     O .bss	00000004 __malloc_top_pad
02020d90 g     O .rwdata	00000004 __mb_cur_max
0200d020 g     F .text	0000000c _localeconv_r
02005330 g     F .text	000000dc FreeLastSavedImage
0200fea8 g     F .text	000004ac __sfvwrite_r
0200d8c8 g     F .text	0000003c __i2b
0201de8c g     O .rodata	0000000c Mac
02009100 g     F .text	00000064 _sbrk_r
0200e4c0 g     F .text	0000006c _read_r
020026e4 g     F .text	00000330 DGifGetScreenDesc
02020da8 g     O .rwdata	00000004 alt_max_fd
0201d120 g     O .rodata	0000000c Goomba
02006de4 g     F .text	00000128 _fclose_r
0200312c g     F .text	000000f0 DGifGetPixel
02016b58 g     O .rodata	00000189 margepolicebytes
02007234 g     F .text	00000030 fflush
02020ddc g     O .bss	00000004 __malloc_max_sbrked_mem
0200540c g     F .text	0000026c GifMakeSavedImage
020113dc g     F .text	0000087c .hidden __adddf3
02020dcc g     O .bss	00000004 gFrameIndex
0201400c g     F .text	00000074 alt_epcs_flash_erase_block
0200e078 g     F .text	000000f0 __b2d
02010da8 g     F .text	00000634 .hidden __umoddi3
02012ca0 g     F .text	000000d8 lseek
02020d80 g     O .rwdata	00000004 _global_impure_ptr
02015c08 g     F .text	0000005c epcs_exit_4_bytes_mode
020089a8 g     F .text	00000564 _realloc_r
02003028 g     F .text	00000104 DGifGetLine
02020f50 g       *ABS*	00000000 __bss_end
02016314 g     F .text	000000f0 alt_iic_isr_register
020133e0 g     F .text	00000104 alt_tick
02010754 g     F .text	00000654 .hidden __udivdi3
0200fc44 g     F .text	00000184 _fputwc_r
0201ef88 g     O .rodata	00000028 __mprec_bigtens
0200d6ac g     F .text	00000104 __s2b
02012728 g     F .text	000000a0 .hidden __floatunsidf
0201a0b4 g     O .rodata	0000000c cattail
0200de08 g     F .text	00000060 __mcmp
02014e60 g     F .text	000000a8 altera_avalon_uart_init
0201e7a8 g     O .rodata	00000200 gamma149half
020075d8 g     F .text	00000018 __fp_lock_all
020162c8 g     F .text	0000004c alt_ic_irq_enabled
02013348 g     F .text	00000098 alt_alarm_stop
02020e08 g     O .bss	00000004 alt_irq_active
020000fc g     F .exceptions	000000d0 alt_irq_handler
0201f9e4 g     O .rwdata	00000028 alt_dev_null
02016cfc g     O .rodata	00000589 psyduckbytes
020036ac g     F .text	00000198 DGifCloseFile
0200d7b0 g     F .text	00000068 __hi0bits
02006ce0 g     F .text	0000001c calloc
02006ae4 g     F .text	00000080 .hidden __fixdfsi
02004aec g     F .text	00000054 GifBitSize
02020da0 g     O .rwdata	00000008 alt_dev_list
02013534 g     F .text	000000f4 write
02012aa4 g     F .text	000000b4 fstat
02001d6c g     F .text	00000464 displayGamma46ColourBars
02011db4 g     F .text	000000ec .hidden __ledf2
0200db70 g     F .text	00000148 __pow5mult
0200e7d8 g     F .text	00001448 ___vfiprintf_internal_r
02020df0 g     O .bss	00000004 __nlocale_changed
02005918 g     F .text	00000008 .hidden __umodsi3
02015ac4 g     F .text	00000068 epcs_read_electronic_signature
02020f50 g       *ABS*	00000000 end
02015490 g     F .text	000001a8 altera_avalon_uart_write
02014380 g     F .text	000000c0 altera_avalon_jtag_uart_init
020001cc g     F .exceptions	00000060 alt_instruction_exception_entry
02016b58 g       *ABS*	00000000 __CTOR_LIST__
04000000 g       *ABS*	00000000 __alt_stack_pointer
02014cc8 g     F .text	00000088 alt_avalon_timer_sc_init
02014db0 g     F .text	00000060 altera_avalon_uart_write_fd
02006c34 g     F .text	000000ac .hidden __clzsi2
02014e10 g     F .text	00000050 altera_avalon_uart_close_fd
02014a3c g     F .text	00000218 altera_avalon_jtag_uart_write
020075c8 g     F .text	00000004 __sfp_lock_acquire
0200d274 g     F .text	000000e8 memchr
02004244 g     F .text	00000114 DGifGetLZCodes
0200939c g     F .text	00002154 ___vfprintf_internal_r
02007a6c g     F .text	000002d0 _free_r
0200cffc g     F .text	00000010 __locale_mb_cur_max
02016980 g     F .text	000001a4 __call_exitprocs
0201a310 g     O .rodata	0000000c girlpraying
02020d78 g     O .rwdata	00000004 numGIFs
02020dec g     O .bss	00000004 __mlocale_changed
02020d88 g     O .rwdata	00000004 __malloc_sbrk_base
0200022c g     F .text	00000038 _start
02020e00 g     O .bss	00000004 _alt_tick_rate
0200321c g     F .text	000000f8 DGifGetExtension
0200dcb8 g     F .text	00000150 __lshift
0201657c g     F .text	000001fc alt_avalon_spi_command
02020e04 g     O .bss	00000004 _alt_nticks
02013120 g     F .text	000000f8 read
02013694 g     F .text	0000008c alt_sys_init
02016864 g     F .text	0000011c __register_exitproc
020092a0 g     F .text	000000fc strncmp
0200d904 g     F .text	0000026c __multiply
0201da30 g     O .rodata	0000000c RydiaStone
020146e0 g     F .text	00000068 altera_avalon_jtag_uart_close
02017490 g     O .rodata	0000000c FF4ChestGIF
02005920 g     F .text	00000028 .hidden __mulsi3
02020e10 g     O .bss	00000028 __malloc_current_mallinfo
0200e168 g     F .text	00000144 __d2b
020014a4 g     F .text	00000464 displayGamma149ColourBars
02015638 g     F .text	0000005c epcs_read_status_register
0201e320 g     O .rodata	0000000c CDROM
0200898c g     F .text	0000001c realloc
02020dd0 g     O .bss	00000004 gCurrentGIF
0201421c g     F .text	00000060 altera_avalon_jtag_uart_read_fd
02006f20 g     F .text	000000b4 _fdopen_r
02016068 g     F .text	000000d4 alt_get_fd
0200b6b8 g     F .text	00000064 _close_r
02005068 g     F .text	000000a4 GifApplyTranslation
0201d8d8 g     O .rodata	0000000c Rydia
02015b2c g     F .text	00000080 epcs_read_device_id
02008688 g     F .text	0000007c memcmp
020142dc g     F .text	00000050 altera_avalon_jtag_uart_close_fd
02020f50 g       *ABS*	00000000 __alt_stack_base
0201432c g     F .text	00000054 altera_avalon_jtag_uart_ioctl_fd
02006fd4 g     F .text	0000001c fdopen
02004b40 g     F .text	000000f8 GifMakeMapObject
0200b580 g     F .text	00000138 __swsetup_r
02005948 g     F .text	0000099c .hidden __divdf3
020074ac g     F .text	0000011c __sfp
0200e3c0 g     F .text	00000078 __copybits
0201f564 g     O .rwdata	00000408 __malloc_av_
020075d4 g     F .text	00000004 __sinit_lock_release
020062e4 g     F .text	00000800 .hidden __muldf3
04009000 g       *ABS*	00000000 __alt_mem_epcs_flash_controller
02009164 g     F .text	00000054 __sread
020078f0 g     F .text	00000040 fread
02015e9c g     F .text	00000114 alt_find_file
02015cb4 g     F .text	000000a0 alt_dev_llist_insert
02012df0 g     F .text	00000020 __malloc_lock
0201d3ac g     O .rodata	0000000c Candle
02013298 g     F .text	000000b0 sbrk
02000738 g     F .text	00000144 displayBitmap
02006ff0 g     F .text	00000244 _fflush_r
02006cfc g     F .text	000000d8 _calloc_r
02017294 g     O .rodata	0000000c psyduck
02020dbc g     O .rwdata	00000008 alt_flash_dev_list
02001908 g     F .text	00000464 displayGamma98ColourBars
02004c80 g     F .text	000003e8 GifUnionColorMap
02020dc8 g       *ABS*	00000000 __bss_start
0200087c g     F .text	000007c4 displayColourBars
02008810 g     F .text	00000114 memset
02003908 g     F .text	0000007c DGifGetCode
0200054c g     F .text	000000dc main
02005678 g     F .text	00000100 GifFreeSavedImages
020172a0 g     O .rodata	000001e1 FF4ChestGifBytes
02020dfc g     O .bss	00000004 alt_envp
02020dd8 g     O .bss	00000004 __malloc_max_total_mem
02020dc8 g     O .bss	00000004 gMemoryGifBytesRead
0201427c g     F .text	00000060 altera_avalon_jtag_uart_write_fd
02010538 g     F .text	0000001c __swbuf
020076a0 g     F .text	00000250 _fread_r
02016cf0 g     O .rodata	0000000c margepolice
02009298 g     F .text	00000008 __sclose
04000000 g       *ABS*	00000000 __alt_heap_limit
02006f0c g     F .text	00000014 fclose
0201b7f4 g     O .rodata	0000000c pharmacy
0200b944 g     F .text	0000163c _dtoa_r
02007ec4 g     F .text	000007c4 _malloc_r
020106c8 g     F .text	00000030 __ascii_wctomb
02020dac g     O .rwdata	00000004 alt_errno
02007d3c g     F .text	000000a8 _fwalk
0200587c g     F .text	00000048 .hidden __divsi3
02007930 g     F .text	0000013c _malloc_trim_r
02016b58 g       *ABS*	00000000 __CTOR_END__
0201d2c4 g     O .rodata	0000000c StairsDown2
02013c8c g     F .text	00000260 alt_epcs_flash_write
0200e594 g     F .text	000000a4 strcmp
02016b58 g       *ABS*	00000000 __DTOR_LIST__
0201d6d0 g     O .rodata	0000000c CecilWalking
02000628 g     F .text	00000038 delay
02011c58 g     F .text	00000084 .hidden __nedf2
02013660 g     F .text	00000034 alt_irq_init
02013218 g     F .text	00000080 alt_release_fd
0201edd0 g     O .rodata	00000100 .hidden __clz_tab
02020de8 g     O .bss	00000004 _PathLocale
02016818 g     F .text	00000014 atexit
0200b514 g     F .text	0000006c _write_r
0200d02c g     F .text	0000001c setlocale
02020d84 g     O .rwdata	00000004 _impure_ptr
02020df4 g     O .bss	00000004 alt_argc
02015db0 g     F .text	0000005c _do_dtors
0200d018 g     F .text	00000008 __locale_cjk_lang
02008f28 g     F .text	000001d8 __srefill_r
02000020 g       .exceptions	00000000 alt_irq_entry
0200e018 g     F .text	00000060 __ulp
0200357c g     F .text	00000130 DGifSavedExtensionToGCB
020075f0 g     F .text	00000018 __fp_unlock_all
02020d98 g     O .rwdata	00000008 alt_fs_list
0201d480 g     O .rodata	0000000c Letter
020024a8 g     F .text	0000023c DGifOpen
020175dc g     O .rodata	0000000c WiggumGIF
0200d048 g     F .text	0000000c localeconv
020157fc g     F .text	000000f4 epcs_read_buffer
04000000 g       *ABS*	00000000 __alt_mem_onchip_memory2
02013758 g     F .text	00000054 alt_epcs_flash_init
0201613c g     F .text	00000050 alt_ic_isr_register
0201a1e0 g     O .rodata	00000122 girlprayingbytes
02020dc8 g       *ABS*	00000000 _edata
02014d50 g     F .text	00000060 altera_avalon_uart_read_fd
02020f50 g       *ABS*	00000000 _end
02015fb0 g     F .text	00000068 alt_flash_open_dev
02014748 g     F .text	000000ec altera_avalon_jtag_uart_ioctl
0201749c g     O .rodata	00000135 WiggumGifBytes
02005278 g     F .text	000000b8 GifFreeExtensions
02016228 g     F .text	000000a0 alt_ic_irq_disable
02015bac g     F .text	0000005c epcs_enter_4_bytes_mode
020091c0 g     F .text	0000007c __swrite
02020d8c g     O .rwdata	00000004 __malloc_trim_threshold
0200d00c g     F .text	0000000c __locale_msgcharset
0201682c g     F .text	00000038 exit
02007de4 g     F .text	000000b8 _fwalk_reent
0200de68 g     F .text	000001b0 __mdiff
02003984 g     F .text	0000018c DGifGetCodeNext
02016018 g     F .text	00000050 alt_flash_close_dev
020058c4 g     F .text	0000004c .hidden __modsi3
04000000 g       *ABS*	00000000 __alt_data_end
02000020 g     F .exceptions	00000000 alt_exception
020075cc g     F .text	00000004 __sfp_lock_release
0201df38 g     O .rodata	0000000c Mouse
020151c0 g     F .text	00000054 altera_avalon_uart_close
0201d204 g     O .rodata	0000000c WeaponShop2
02016b24 g     F .text	00000034 _exit
020127c8 g     F .text	00000140 alt_alarm_start
0200d0c0 g     F .text	000001b4 __smakebuf_r
020004a0 g     F .text	000000ac MemoryGIFRead
0200e638 g     F .text	0000008c strlen
020158f0 g     F .text	00000050 epcs_write_enable
02012f74 g     F .text	0000015c open
02011cdc g     F .text	000000d8 .hidden __gedf2
02001040 g     F .text	00000464 displayCIEColourBars
02020d94 g     O .rwdata	00000004 __wctomb
0200510c g     F .text	0000016c GifAddExtensionBlock
0200e7c0 g     F .text	00000018 __sprint_r
0201dff4 g     O .rodata	0000000c TeachText
02020dc4 g     O .rwdata	00000004 alt_priority_mask
02005778 g     F .text	00000094 reallocarray
0201618c g     F .text	0000009c alt_ic_irq_enable
0200b4f0 g     F .text	00000024 __vfprintf_internal
02015264 g     F .text	000001dc altera_avalon_uart_read
020106f8 g     F .text	0000005c _wctomb_r
02011ea0 g     F .text	00000888 .hidden __subdf3
0201e9a8 g     O .rodata	00000200 gamma98half
02014184 g     F .text	00000098 alt_epcs_flash_read
0200d818 g     F .text	000000b0 __lo0bits
02020db4 g     O .rwdata	00000008 alt_alarm_list
02015d54 g     F .text	0000005c _do_ctors
020105f0 g     F .text	000000d8 wcrtomb
0201e3a8 g     O .rodata	00000200 linearRGB
02012958 g     F .text	000000d0 close
0201e0b0 g     O .rodata	0000000c TrashBulging
0200fdc8 g     F .text	00000078 fputwc
02007eb0 g     F .text	00000014 free
020075d0 g     F .text	00000004 __sinit_lock_acquire
020159a8 g     F .text	0000011c epcs_write_buffer
0200d568 g     F .text	00000144 __multadd
0200d540 g     F .text	00000028 _Bfree



Disassembly of section .exceptions:

02000020 <alt_exception>:
 2000020:	deffed04 	addi	sp,sp,-76
 2000024:	dfc00015 	stw	ra,0(sp)
 2000028:	d8400215 	stw	at,8(sp)
 200002c:	d8800315 	stw	r2,12(sp)
 2000030:	d8c00415 	stw	r3,16(sp)
 2000034:	d9000515 	stw	r4,20(sp)
 2000038:	d9400615 	stw	r5,24(sp)
 200003c:	d9800715 	stw	r6,28(sp)
 2000040:	d9c00815 	stw	r7,32(sp)
 2000044:	000b307a 	rdctl	r5,estatus
 2000048:	da000915 	stw	r8,36(sp)
 200004c:	da400a15 	stw	r9,40(sp)
 2000050:	da800b15 	stw	r10,44(sp)
 2000054:	dac00c15 	stw	r11,48(sp)
 2000058:	db000d15 	stw	r12,52(sp)
 200005c:	db400e15 	stw	r13,56(sp)
 2000060:	db800f15 	stw	r14,60(sp)
 2000064:	dbc01015 	stw	r15,64(sp)
 2000068:	d9401115 	stw	r5,68(sp)
 200006c:	ebffff04 	addi	r15,ea,-4
 2000070:	dbc01215 	stw	r15,72(sp)
 2000074:	0009313a 	rdctl	r4,ipending
 2000078:	2880004c 	andi	r2,r5,1
 200007c:	10000326 	beq	r2,zero,200008c <alt_exception+0x6c>
 2000080:	20000226 	beq	r4,zero,200008c <alt_exception+0x6c>
 2000084:	20000fc0 	call	20000fc <alt_irq_handler>
 2000088:	00000706 	br	20000a8 <alt_exception+0x88>
 200008c:	df401215 	stw	ea,72(sp)
 2000090:	e8bfff17 	ldw	r2,-4(ea)
 2000094:	e93fff04 	addi	r4,ea,-4
 2000098:	20001cc0 	call	20001cc <alt_instruction_exception_entry>
 200009c:	1000021e 	bne	r2,zero,20000a8 <alt_exception+0x88>
 20000a0:	ebffff04 	addi	r15,ea,-4
 20000a4:	dbc01215 	stw	r15,72(sp)
 20000a8:	d9401117 	ldw	r5,68(sp)
 20000ac:	df401217 	ldw	ea,72(sp)
 20000b0:	dfc00017 	ldw	ra,0(sp)
 20000b4:	2801707a 	wrctl	estatus,r5
 20000b8:	d8400217 	ldw	at,8(sp)
 20000bc:	d8800317 	ldw	r2,12(sp)
 20000c0:	d8c00417 	ldw	r3,16(sp)
 20000c4:	d9000517 	ldw	r4,20(sp)
 20000c8:	d9400617 	ldw	r5,24(sp)
 20000cc:	d9800717 	ldw	r6,28(sp)
 20000d0:	d9c00817 	ldw	r7,32(sp)
 20000d4:	da000917 	ldw	r8,36(sp)
 20000d8:	da400a17 	ldw	r9,40(sp)
 20000dc:	da800b17 	ldw	r10,44(sp)
 20000e0:	dac00c17 	ldw	r11,48(sp)
 20000e4:	db000d17 	ldw	r12,52(sp)
 20000e8:	db400e17 	ldw	r13,56(sp)
 20000ec:	db800f17 	ldw	r14,60(sp)
 20000f0:	dbc01017 	ldw	r15,64(sp)
 20000f4:	dec01304 	addi	sp,sp,76
 20000f8:	ef80083a 	eret

020000fc <alt_irq_handler>:
 20000fc:	defff904 	addi	sp,sp,-28
 2000100:	dfc00615 	stw	ra,24(sp)
 2000104:	df000515 	stw	fp,20(sp)
 2000108:	df000504 	addi	fp,sp,20
 200010c:	0001883a 	nop
 2000110:	0005313a 	rdctl	r2,ipending
 2000114:	e0bffe15 	stw	r2,-8(fp)
 2000118:	e0bffe17 	ldw	r2,-8(fp)
 200011c:	e0bffb15 	stw	r2,-20(fp)
 2000120:	e03ffd15 	stw	zero,-12(fp)
 2000124:	00800044 	movi	r2,1
 2000128:	e0bffc15 	stw	r2,-16(fp)
 200012c:	e0fffb17 	ldw	r3,-20(fp)
 2000130:	e0bffc17 	ldw	r2,-16(fp)
 2000134:	1884703a 	and	r2,r3,r2
 2000138:	10001726 	beq	r2,zero,2000198 <alt_irq_handler+0x9c>
 200013c:	00c080b4 	movhi	r3,514
 2000140:	18c39404 	addi	r3,r3,3664
 2000144:	e0bffd17 	ldw	r2,-12(fp)
 2000148:	100490fa 	slli	r2,r2,3
 200014c:	1885883a 	add	r2,r3,r2
 2000150:	10800017 	ldw	r2,0(r2)
 2000154:	010080b4 	movhi	r4,514
 2000158:	21039404 	addi	r4,r4,3664
 200015c:	e0fffd17 	ldw	r3,-12(fp)
 2000160:	180690fa 	slli	r3,r3,3
 2000164:	20c7883a 	add	r3,r4,r3
 2000168:	18c00104 	addi	r3,r3,4
 200016c:	18c00017 	ldw	r3,0(r3)
 2000170:	1809883a 	mov	r4,r3
 2000174:	103ee83a 	callr	r2
 2000178:	0001883a 	nop
 200017c:	0005313a 	rdctl	r2,ipending
 2000180:	e0bfff15 	stw	r2,-4(fp)
 2000184:	e0bfff17 	ldw	r2,-4(fp)
 2000188:	e0bffb15 	stw	r2,-20(fp)
 200018c:	e0bffb17 	ldw	r2,-20(fp)
 2000190:	103fe31e 	bne	r2,zero,2000120 <__reset+0xfdff7120>
 2000194:	00000706 	br	20001b4 <alt_irq_handler+0xb8>
 2000198:	e0bffc17 	ldw	r2,-16(fp)
 200019c:	1085883a 	add	r2,r2,r2
 20001a0:	e0bffc15 	stw	r2,-16(fp)
 20001a4:	e0bffd17 	ldw	r2,-12(fp)
 20001a8:	10800044 	addi	r2,r2,1
 20001ac:	e0bffd15 	stw	r2,-12(fp)
 20001b0:	003fde06 	br	200012c <__reset+0xfdff712c>
 20001b4:	0001883a 	nop
 20001b8:	e037883a 	mov	sp,fp
 20001bc:	dfc00117 	ldw	ra,4(sp)
 20001c0:	df000017 	ldw	fp,0(sp)
 20001c4:	dec00204 	addi	sp,sp,8
 20001c8:	f800283a 	ret

020001cc <alt_instruction_exception_entry>:
 20001cc:	defffb04 	addi	sp,sp,-20
 20001d0:	dfc00415 	stw	ra,16(sp)
 20001d4:	df000315 	stw	fp,12(sp)
 20001d8:	df000304 	addi	fp,sp,12
 20001dc:	e13fff15 	stw	r4,-4(fp)
 20001e0:	00bfffc4 	movi	r2,-1
 20001e4:	e0bffd15 	stw	r2,-12(fp)
 20001e8:	e03ffe15 	stw	zero,-8(fp)
 20001ec:	d0a02517 	ldw	r2,-32620(gp)
 20001f0:	10000726 	beq	r2,zero,2000210 <alt_instruction_exception_entry+0x44>
 20001f4:	d0a02517 	ldw	r2,-32620(gp)
 20001f8:	e0fffd17 	ldw	r3,-12(fp)
 20001fc:	1809883a 	mov	r4,r3
 2000200:	e17fff17 	ldw	r5,-4(fp)
 2000204:	e1bffe17 	ldw	r6,-8(fp)
 2000208:	103ee83a 	callr	r2
 200020c:	00000206 	br	2000218 <alt_instruction_exception_entry+0x4c>
 2000210:	003da03a 	break	0
 2000214:	0005883a 	mov	r2,zero
 2000218:	e037883a 	mov	sp,fp
 200021c:	dfc00117 	ldw	ra,4(sp)
 2000220:	df000017 	ldw	fp,0(sp)
 2000224:	dec00204 	addi	sp,sp,8
 2000228:	f800283a 	ret

Disassembly of section .text:

0200022c <_start>:
 200022c:	06c10034 	movhi	sp,1024
 2000230:	dec00014 	ori	sp,sp,0
 2000234:	068080b4 	movhi	gp,514
 2000238:	d6a35e14 	ori	gp,gp,36216
 200023c:	008080b4 	movhi	r2,514
 2000240:	10837214 	ori	r2,r2,3528
 2000244:	00c080b4 	movhi	r3,514
 2000248:	18c3d414 	ori	r3,r3,3920
 200024c:	10c00326 	beq	r2,r3,200025c <_start+0x30>
 2000250:	10000015 	stw	zero,0(r2)
 2000254:	10800104 	addi	r2,r2,4
 2000258:	10fffd36 	bltu	r2,r3,2000250 <__reset+0xfdff7250>
 200025c:	2012d780 	call	2012d78 <alt_main>

02000260 <alt_after_alt_main>:
 2000260:	003fff06 	br	2000260 <__reset+0xfdff7260>

02000264 <frame_callback>:
 2000264:	defbf304 	addi	sp,sp,-4148
 2000268:	dfc40c15 	stw	ra,4144(sp)
 200026c:	df040b15 	stw	fp,4140(sp)
 2000270:	dc440a15 	stw	r17,4136(sp)
 2000274:	dc040915 	stw	r16,4132(sp)
 2000278:	df040b04 	addi	fp,sp,4140
 200027c:	e13ffd15 	stw	r4,-12(fp)
 2000280:	008080b4 	movhi	r2,514
 2000284:	10838104 	addi	r2,r2,3588
 2000288:	10800017 	ldw	r2,0(r2)
 200028c:	d0e00117 	ldw	r3,-32764(gp)
 2000290:	1880282e 	bgeu	r3,r2,2000334 <frame_callback+0xd0>
 2000294:	d0a01717 	ldw	r2,-32676(gp)
 2000298:	10c00044 	addi	r3,r2,1
 200029c:	00800044 	movi	r2,1
 20002a0:	1809883a 	mov	r4,r3
 20002a4:	100b883a 	mov	r5,r2
 20002a8:	20058c40 	call	20058c4 <__modsi3>
 20002ac:	d0a01715 	stw	r2,-32676(gp)
 20002b0:	d0e01617 	ldw	r3,-32680(gp)
 20002b4:	e0bffb04 	addi	r2,fp,-20
 20002b8:	1809883a 	mov	r4,r3
 20002bc:	100b883a 	mov	r5,r2
 20002c0:	20036ac0 	call	20036ac <DGifCloseFile>
 20002c4:	d0201415 	stw	zero,-32688(gp)
 20002c8:	d0a01717 	ldw	r2,-32676(gp)
 20002cc:	00c080b4 	movhi	r3,514
 20002d0:	18fc3b04 	addi	r3,r3,-3860
 20002d4:	1085883a 	add	r2,r2,r2
 20002d8:	1085883a 	add	r2,r2,r2
 20002dc:	1885883a 	add	r2,r3,r2
 20002e0:	10c00017 	ldw	r3,0(r2)
 20002e4:	e0bffb04 	addi	r2,fp,-20
 20002e8:	1809883a 	mov	r4,r3
 20002ec:	01408034 	movhi	r5,512
 20002f0:	29412804 	addi	r5,r5,1184
 20002f4:	100d883a 	mov	r6,r2
 20002f8:	20024a80 	call	20024a8 <DGifOpen>
 20002fc:	d0a01615 	stw	r2,-32680(gp)
 2000300:	d0a01617 	ldw	r2,-32680(gp)
 2000304:	1009883a 	mov	r4,r2
 2000308:	20047080 	call	2004708 <DGifSlurp>
 200030c:	e0bbf715 	stw	r2,-4132(fp)
 2000310:	e0bffb17 	ldw	r2,-20(fp)
 2000314:	010080b4 	movhi	r4,514
 2000318:	2138cb04 	addi	r4,r4,-7380
 200031c:	100b883a 	mov	r5,r2
 2000320:	e1bbf717 	ldw	r6,-4132(fp)
 2000324:	20089500 	call	2008950 <printf>
 2000328:	d0a00117 	ldw	r2,-32764(gp)
 200032c:	1081f404 	addi	r2,r2,2000
 2000330:	d0a00115 	stw	r2,-32764(gp)
 2000334:	e03bf515 	stw	zero,-4140(fp)
 2000338:	00004306 	br	2000448 <frame_callback+0x1e4>
 200033c:	e03bf615 	stw	zero,-4136(fp)
 2000340:	00003b06 	br	2000430 <frame_callback+0x1cc>
 2000344:	d0a01617 	ldw	r2,-32680(gp)
 2000348:	10800517 	ldw	r2,20(r2)
 200034c:	14000317 	ldw	r16,12(r2)
 2000350:	d0a01617 	ldw	r2,-32680(gp)
 2000354:	14400d17 	ldw	r17,52(r2)
 2000358:	d0a01517 	ldw	r2,-32684(gp)
 200035c:	1009883a 	mov	r4,r2
 2000360:	01400904 	movi	r5,36
 2000364:	20059200 	call	2005920 <__mulsi3>
 2000368:	8885883a 	add	r2,r17,r2
 200036c:	10c00617 	ldw	r3,24(r2)
 2000370:	e0bbf517 	ldw	r2,-4140(fp)
 2000374:	1008917a 	slli	r4,r2,5
 2000378:	e0bbf617 	ldw	r2,-4136(fp)
 200037c:	2085883a 	add	r2,r4,r2
 2000380:	1885883a 	add	r2,r3,r2
 2000384:	10800003 	ldbu	r2,0(r2)
 2000388:	10c03fcc 	andi	r3,r2,255
 200038c:	1805883a 	mov	r2,r3
 2000390:	1085883a 	add	r2,r2,r2
 2000394:	10c5883a 	add	r2,r2,r3
 2000398:	8085883a 	add	r2,r16,r2
 200039c:	10c00003 	ldbu	r3,0(r2)
 20003a0:	e0fffc05 	stb	r3,-16(fp)
 20003a4:	10c00043 	ldbu	r3,1(r2)
 20003a8:	e0fffc45 	stb	r3,-15(fp)
 20003ac:	10800083 	ldbu	r2,2(r2)
 20003b0:	e0bffc85 	stb	r2,-14(fp)
 20003b4:	e0bffc03 	ldbu	r2,-16(fp)
 20003b8:	10803fcc 	andi	r2,r2,255
 20003bc:	e0bbf80d 	sth	r2,-4128(fp)
 20003c0:	e0bffc43 	ldbu	r2,-15(fp)
 20003c4:	10803fcc 	andi	r2,r2,255
 20003c8:	e0bbf88d 	sth	r2,-4126(fp)
 20003cc:	e0bffc83 	ldbu	r2,-14(fp)
 20003d0:	10803fcc 	andi	r2,r2,255
 20003d4:	e0bbf90d 	sth	r2,-4124(fp)
 20003d8:	e0bbf90b 	ldhu	r2,-4124(fp)
 20003dc:	1006943a 	slli	r3,r2,16
 20003e0:	e0bbf88b 	ldhu	r2,-4126(fp)
 20003e4:	1004923a 	slli	r2,r2,8
 20003e8:	1886b03a 	or	r3,r3,r2
 20003ec:	e0bbf80b 	ldhu	r2,-4128(fp)
 20003f0:	1884b03a 	or	r2,r3,r2
 20003f4:	e0bbfa15 	stw	r2,-4120(fp)
 20003f8:	e0bbf617 	ldw	r2,-4136(fp)
 20003fc:	1006917a 	slli	r3,r2,5
 2000400:	e0bbf517 	ldw	r2,-4140(fp)
 2000404:	1885883a 	add	r2,r3,r2
 2000408:	1085883a 	add	r2,r2,r2
 200040c:	1085883a 	add	r2,r2,r2
 2000410:	e0fbf504 	addi	r3,fp,-4140
 2000414:	1885883a 	add	r2,r3,r2
 2000418:	10800604 	addi	r2,r2,24
 200041c:	e0fbfa17 	ldw	r3,-4120(fp)
 2000420:	10c00015 	stw	r3,0(r2)
 2000424:	e0bbf617 	ldw	r2,-4136(fp)
 2000428:	10800044 	addi	r2,r2,1
 200042c:	e0bbf615 	stw	r2,-4136(fp)
 2000430:	e0bbf617 	ldw	r2,-4136(fp)
 2000434:	10800810 	cmplti	r2,r2,32
 2000438:	103fc21e 	bne	r2,zero,2000344 <__reset+0xfdff7344>
 200043c:	e0bbf517 	ldw	r2,-4140(fp)
 2000440:	10800044 	addi	r2,r2,1
 2000444:	e0bbf515 	stw	r2,-4140(fp)
 2000448:	e0bbf517 	ldw	r2,-4140(fp)
 200044c:	10800810 	cmplti	r2,r2,32
 2000450:	103fba1e 	bne	r2,zero,200033c <__reset+0xfdff733c>
 2000454:	e0bbfb04 	addi	r2,fp,-4116
 2000458:	1009883a 	mov	r4,r2
 200045c:	20007380 	call	2000738 <displayBitmap>
 2000460:	d0a01517 	ldw	r2,-32684(gp)
 2000464:	10c00044 	addi	r3,r2,1
 2000468:	d0a01617 	ldw	r2,-32680(gp)
 200046c:	10800617 	ldw	r2,24(r2)
 2000470:	1809883a 	mov	r4,r3
 2000474:	100b883a 	mov	r5,r2
 2000478:	20059180 	call	2005918 <__umodsi3>
 200047c:	d0a01515 	stw	r2,-32684(gp)
 2000480:	00801904 	movi	r2,100
 2000484:	e6fffe04 	addi	sp,fp,-8
 2000488:	dfc00317 	ldw	ra,12(sp)
 200048c:	df000217 	ldw	fp,8(sp)
 2000490:	dc400117 	ldw	r17,4(sp)
 2000494:	dc000017 	ldw	r16,0(sp)
 2000498:	dec00404 	addi	sp,sp,16
 200049c:	f800283a 	ret

020004a0 <MemoryGIFRead>:
 20004a0:	defff804 	addi	sp,sp,-32
 20004a4:	dfc00715 	stw	ra,28(sp)
 20004a8:	df000615 	stw	fp,24(sp)
 20004ac:	df000604 	addi	fp,sp,24
 20004b0:	e13ffd15 	stw	r4,-12(fp)
 20004b4:	e17ffe15 	stw	r5,-8(fp)
 20004b8:	e1bfff15 	stw	r6,-4(fp)
 20004bc:	e0bffd17 	ldw	r2,-12(fp)
 20004c0:	10801117 	ldw	r2,68(r2)
 20004c4:	e0bffb15 	stw	r2,-20(fp)
 20004c8:	e0bffb17 	ldw	r2,-20(fp)
 20004cc:	10c00117 	ldw	r3,4(r2)
 20004d0:	d0a01417 	ldw	r2,-32688(gp)
 20004d4:	1885c83a 	sub	r2,r3,r2
 20004d8:	e0bffc15 	stw	r2,-16(fp)
 20004dc:	e03ffa15 	stw	zero,-24(fp)
 20004e0:	e0bfff17 	ldw	r2,-4(fp)
 20004e4:	e0fffc17 	ldw	r3,-16(fp)
 20004e8:	1880030e 	bge	r3,r2,20004f8 <MemoryGIFRead+0x58>
 20004ec:	e0bffc17 	ldw	r2,-16(fp)
 20004f0:	e0bffa15 	stw	r2,-24(fp)
 20004f4:	00000206 	br	2000500 <MemoryGIFRead+0x60>
 20004f8:	e0bfff17 	ldw	r2,-4(fp)
 20004fc:	e0bffa15 	stw	r2,-24(fp)
 2000500:	e0bffb17 	ldw	r2,-20(fp)
 2000504:	10c00217 	ldw	r3,8(r2)
 2000508:	d0a01417 	ldw	r2,-32688(gp)
 200050c:	1887883a 	add	r3,r3,r2
 2000510:	e0bffa17 	ldw	r2,-24(fp)
 2000514:	e13ffe17 	ldw	r4,-8(fp)
 2000518:	180b883a 	mov	r5,r3
 200051c:	100d883a 	mov	r6,r2
 2000520:	20087040 	call	2008704 <memcpy>
 2000524:	d0e01417 	ldw	r3,-32688(gp)
 2000528:	e0bffa17 	ldw	r2,-24(fp)
 200052c:	1885883a 	add	r2,r3,r2
 2000530:	d0a01415 	stw	r2,-32688(gp)
 2000534:	e0bffa17 	ldw	r2,-24(fp)
 2000538:	e037883a 	mov	sp,fp
 200053c:	dfc00117 	ldw	ra,4(sp)
 2000540:	df000017 	ldw	fp,0(sp)
 2000544:	dec00204 	addi	sp,sp,8
 2000548:	f800283a 	ret

0200054c <main>:
 200054c:	defffd04 	addi	sp,sp,-12
 2000550:	dfc00215 	stw	ra,8(sp)
 2000554:	df000115 	stw	fp,4(sp)
 2000558:	df000104 	addi	fp,sp,4
 200055c:	0007883a 	mov	r3,zero
 2000560:	00810074 	movhi	r2,1025
 2000564:	10a81804 	addi	r2,r2,-24480
 2000568:	10c00035 	stwio	r3,0(r2)
 200056c:	e03fff15 	stw	zero,-4(fp)
 2000570:	d0201415 	stw	zero,-32688(gp)
 2000574:	200087c0 	call	200087c <displayColourBars>
 2000578:	008080b4 	movhi	r2,514
 200057c:	10bc3b04 	addi	r2,r2,-3860
 2000580:	10800017 	ldw	r2,0(r2)
 2000584:	1009883a 	mov	r4,r2
 2000588:	01408034 	movhi	r5,512
 200058c:	29412804 	addi	r5,r5,1184
 2000590:	e1bfff04 	addi	r6,fp,-4
 2000594:	20024a80 	call	20024a8 <DGifOpen>
 2000598:	d0a01615 	stw	r2,-32680(gp)
 200059c:	e0bfff17 	ldw	r2,-4(fp)
 20005a0:	010080b4 	movhi	r4,514
 20005a4:	2138d704 	addi	r4,r4,-7332
 20005a8:	100b883a 	mov	r5,r2
 20005ac:	20089500 	call	2008950 <printf>
 20005b0:	d0a01617 	ldw	r2,-32680(gp)
 20005b4:	1009883a 	mov	r4,r2
 20005b8:	20047080 	call	2004708 <DGifSlurp>
 20005bc:	e0bfff15 	stw	r2,-4(fp)
 20005c0:	e0bfff17 	ldw	r2,-4(fp)
 20005c4:	010080b4 	movhi	r4,514
 20005c8:	2138de04 	addi	r4,r4,-7304
 20005cc:	100b883a 	mov	r5,r2
 20005d0:	20089500 	call	2008950 <printf>
 20005d4:	e0bfff17 	ldw	r2,-4(fp)
 20005d8:	10800060 	cmpeqi	r2,r2,1
 20005dc:	10000a1e 	bne	r2,zero,2000608 <main+0xbc>
 20005e0:	d0a01617 	ldw	r2,-32680(gp)
 20005e4:	10801017 	ldw	r2,64(r2)
 20005e8:	010080b4 	movhi	r4,514
 20005ec:	2138e504 	addi	r4,r4,-7276
 20005f0:	100b883a 	mov	r5,r2
 20005f4:	20089500 	call	2008950 <printf>
 20005f8:	d0a01617 	ldw	r2,-32680(gp)
 20005fc:	1009883a 	mov	r4,r2
 2000600:	e17fff04 	addi	r5,fp,-4
 2000604:	20036ac0 	call	20036ac <DGifCloseFile>
 2000608:	010080b4 	movhi	r4,514
 200060c:	21038e04 	addi	r4,r4,3640
 2000610:	01401904 	movi	r5,100
 2000614:	01808034 	movhi	r6,512
 2000618:	31809904 	addi	r6,r6,612
 200061c:	000f883a 	mov	r7,zero
 2000620:	20127c80 	call	20127c8 <alt_alarm_start>
 2000624:	003fff06 	br	2000624 <__reset+0xfdff7624>

02000628 <delay>:
 2000628:	defffe04 	addi	sp,sp,-8
 200062c:	df000115 	stw	fp,4(sp)
 2000630:	df000104 	addi	fp,sp,4
 2000634:	e03fff15 	stw	zero,-4(fp)
 2000638:	00000306 	br	2000648 <delay+0x20>
 200063c:	e0bfff17 	ldw	r2,-4(fp)
 2000640:	10800044 	addi	r2,r2,1
 2000644:	e0bfff15 	stw	r2,-4(fp)
 2000648:	e0bfff17 	ldw	r2,-4(fp)
 200064c:	00bffb0e 	bge	zero,r2,200063c <__reset+0xfdff763c>
 2000650:	e037883a 	mov	sp,fp
 2000654:	df000017 	ldw	fp,0(sp)
 2000658:	dec00104 	addi	sp,sp,4
 200065c:	f800283a 	ret

02000660 <blank>:
 2000660:	defffb04 	addi	sp,sp,-20
 2000664:	dfc00415 	stw	ra,16(sp)
 2000668:	df000315 	stw	fp,12(sp)
 200066c:	df000304 	addi	fp,sp,12
 2000670:	e03ffd15 	stw	zero,-12(fp)
 2000674:	00002806 	br	2000718 <blank+0xb8>
 2000678:	e03ffe15 	stw	zero,-8(fp)
 200067c:	00002006 	br	2000700 <blank+0xa0>
 2000680:	00810004 	movi	r2,1024
 2000684:	e0bfff15 	stw	r2,-4(fp)
 2000688:	e0bffd17 	ldw	r2,-12(fp)
 200068c:	1004917a 	slli	r2,r2,5
 2000690:	e0ffff17 	ldw	r3,-4(fp)
 2000694:	1885883a 	add	r2,r3,r2
 2000698:	e0bfff15 	stw	r2,-4(fp)
 200069c:	e0ffff17 	ldw	r3,-4(fp)
 20006a0:	e0bffe17 	ldw	r2,-8(fp)
 20006a4:	1885883a 	add	r2,r3,r2
 20006a8:	e0bfff15 	stw	r2,-4(fp)
 20006ac:	00810074 	movhi	r2,1025
 20006b0:	10a82004 	addi	r2,r2,-24448
 20006b4:	e0ffff17 	ldw	r3,-4(fp)
 20006b8:	10c00035 	stwio	r3,0(r2)
 20006bc:	0007883a 	mov	r3,zero
 20006c0:	00810074 	movhi	r2,1025
 20006c4:	10a81c04 	addi	r2,r2,-24464
 20006c8:	10c00035 	stwio	r3,0(r2)
 20006cc:	20006280 	call	2000628 <delay>
 20006d0:	00c00044 	movi	r3,1
 20006d4:	00810074 	movhi	r2,1025
 20006d8:	10a81804 	addi	r2,r2,-24480
 20006dc:	10c00035 	stwio	r3,0(r2)
 20006e0:	20006280 	call	2000628 <delay>
 20006e4:	0007883a 	mov	r3,zero
 20006e8:	00810074 	movhi	r2,1025
 20006ec:	10a81804 	addi	r2,r2,-24480
 20006f0:	10c00035 	stwio	r3,0(r2)
 20006f4:	e0bffe17 	ldw	r2,-8(fp)
 20006f8:	10800044 	addi	r2,r2,1
 20006fc:	e0bffe15 	stw	r2,-8(fp)
 2000700:	e0bffe17 	ldw	r2,-8(fp)
 2000704:	10800810 	cmplti	r2,r2,32
 2000708:	103fdd1e 	bne	r2,zero,2000680 <__reset+0xfdff7680>
 200070c:	e0bffd17 	ldw	r2,-12(fp)
 2000710:	10800044 	addi	r2,r2,1
 2000714:	e0bffd15 	stw	r2,-12(fp)
 2000718:	e0bffd17 	ldw	r2,-12(fp)
 200071c:	10800810 	cmplti	r2,r2,32
 2000720:	103fd51e 	bne	r2,zero,2000678 <__reset+0xfdff7678>
 2000724:	e037883a 	mov	sp,fp
 2000728:	dfc00117 	ldw	ra,4(sp)
 200072c:	df000017 	ldw	fp,0(sp)
 2000730:	dec00204 	addi	sp,sp,8
 2000734:	f800283a 	ret

02000738 <displayBitmap>:
 2000738:	defff804 	addi	sp,sp,-32
 200073c:	df000715 	stw	fp,28(sp)
 2000740:	df000704 	addi	fp,sp,28
 2000744:	e13fff15 	stw	r4,-4(fp)
 2000748:	e03ff915 	stw	zero,-28(fp)
 200074c:	00004406 	br	2000860 <displayBitmap+0x128>
 2000750:	e0bff917 	ldw	r2,-28(fp)
 2000754:	10810004 	addi	r2,r2,1024
 2000758:	e0bffa15 	stw	r2,-24(fp)
 200075c:	e0bff917 	ldw	r2,-28(fp)
 2000760:	1085883a 	add	r2,r2,r2
 2000764:	1085883a 	add	r2,r2,r2
 2000768:	e0ffff17 	ldw	r3,-4(fp)
 200076c:	1885883a 	add	r2,r3,r2
 2000770:	10800017 	ldw	r2,0(r2)
 2000774:	e0bffb15 	stw	r2,-20(fp)
 2000778:	e0bffb17 	ldw	r2,-20(fp)
 200077c:	1004d43a 	srli	r2,r2,16
 2000780:	10803fcc 	andi	r2,r2,255
 2000784:	00c080b4 	movhi	r3,514
 2000788:	18faea04 	addi	r3,r3,-5208
 200078c:	1085883a 	add	r2,r2,r2
 2000790:	1885883a 	add	r2,r3,r2
 2000794:	1080000b 	ldhu	r2,0(r2)
 2000798:	e0bffc0d 	sth	r2,-16(fp)
 200079c:	e0bffb17 	ldw	r2,-20(fp)
 20007a0:	1004d23a 	srli	r2,r2,8
 20007a4:	10803fcc 	andi	r2,r2,255
 20007a8:	00c080b4 	movhi	r3,514
 20007ac:	18faea04 	addi	r3,r3,-5208
 20007b0:	1085883a 	add	r2,r2,r2
 20007b4:	1885883a 	add	r2,r3,r2
 20007b8:	1080000b 	ldhu	r2,0(r2)
 20007bc:	e0bffc8d 	sth	r2,-14(fp)
 20007c0:	e0bffb17 	ldw	r2,-20(fp)
 20007c4:	10803fcc 	andi	r2,r2,255
 20007c8:	00c080b4 	movhi	r3,514
 20007cc:	18faea04 	addi	r3,r3,-5208
 20007d0:	1085883a 	add	r2,r2,r2
 20007d4:	1885883a 	add	r2,r3,r2
 20007d8:	1080000b 	ldhu	r2,0(r2)
 20007dc:	e0bffd0d 	sth	r2,-12(fp)
 20007e0:	e0bffd0b 	ldhu	r2,-12(fp)
 20007e4:	1004953a 	slli	r2,r2,20
 20007e8:	10cffc2c 	andhi	r3,r2,16368
 20007ec:	e0bffc8b 	ldhu	r2,-14(fp)
 20007f0:	100892ba 	slli	r4,r2,10
 20007f4:	00800434 	movhi	r2,16
 20007f8:	10bf0004 	addi	r2,r2,-1024
 20007fc:	2084703a 	and	r2,r4,r2
 2000800:	1886b03a 	or	r3,r3,r2
 2000804:	e0bffc0b 	ldhu	r2,-16(fp)
 2000808:	1080ffcc 	andi	r2,r2,1023
 200080c:	1884b03a 	or	r2,r3,r2
 2000810:	e0bffe15 	stw	r2,-8(fp)
 2000814:	00810074 	movhi	r2,1025
 2000818:	10a82004 	addi	r2,r2,-24448
 200081c:	e0fffa17 	ldw	r3,-24(fp)
 2000820:	10c00035 	stwio	r3,0(r2)
 2000824:	e0fffe17 	ldw	r3,-8(fp)
 2000828:	00810074 	movhi	r2,1025
 200082c:	10a81c04 	addi	r2,r2,-24464
 2000830:	10c00035 	stwio	r3,0(r2)
 2000834:	00c00044 	movi	r3,1
 2000838:	00810074 	movhi	r2,1025
 200083c:	10a81804 	addi	r2,r2,-24480
 2000840:	10c00035 	stwio	r3,0(r2)
 2000844:	0007883a 	mov	r3,zero
 2000848:	00810074 	movhi	r2,1025
 200084c:	10a81804 	addi	r2,r2,-24480
 2000850:	10c00035 	stwio	r3,0(r2)
 2000854:	e0bff917 	ldw	r2,-28(fp)
 2000858:	10800044 	addi	r2,r2,1
 200085c:	e0bff915 	stw	r2,-28(fp)
 2000860:	e0bff917 	ldw	r2,-28(fp)
 2000864:	10810010 	cmplti	r2,r2,1024
 2000868:	103fb91e 	bne	r2,zero,2000750 <__reset+0xfdff7750>
 200086c:	e037883a 	mov	sp,fp
 2000870:	df000017 	ldw	fp,0(sp)
 2000874:	dec00104 	addi	sp,sp,4
 2000878:	f800283a 	ret

0200087c <displayColourBars>:
 200087c:	defff804 	addi	sp,sp,-32
 2000880:	dfc00715 	stw	ra,28(sp)
 2000884:	df000615 	stw	fp,24(sp)
 2000888:	df000604 	addi	fp,sp,24
 200088c:	e03ffa15 	stw	zero,-24(fp)
 2000890:	0001e306 	br	2001020 <displayColourBars+0x7a4>
 2000894:	e03ffb15 	stw	zero,-20(fp)
 2000898:	0001db06 	br	2001008 <displayColourBars+0x78c>
 200089c:	00810004 	movi	r2,1024
 20008a0:	e0bffe15 	stw	r2,-8(fp)
 20008a4:	e0bffa17 	ldw	r2,-24(fp)
 20008a8:	1004917a 	slli	r2,r2,5
 20008ac:	e0fffe17 	ldw	r3,-8(fp)
 20008b0:	1885883a 	add	r2,r3,r2
 20008b4:	e0bffe15 	stw	r2,-8(fp)
 20008b8:	e0fffe17 	ldw	r3,-8(fp)
 20008bc:	e0bffb17 	ldw	r2,-20(fp)
 20008c0:	1885883a 	add	r2,r3,r2
 20008c4:	e0bffe15 	stw	r2,-8(fp)
 20008c8:	e0bffa17 	ldw	r2,-24(fp)
 20008cc:	10800108 	cmpgei	r2,r2,4
 20008d0:	1000231e 	bne	r2,zero,2000960 <displayColourBars+0xe4>
 20008d4:	e13ffb17 	ldw	r4,-20(fp)
 20008d8:	2006b640 	call	2006b64 <__floatsidf>
 20008dc:	100b883a 	mov	r5,r2
 20008e0:	180d883a 	mov	r6,r3
 20008e4:	2809883a 	mov	r4,r5
 20008e8:	300b883a 	mov	r5,r6
 20008ec:	000d883a 	mov	r6,zero
 20008f0:	01d00ff4 	movhi	r7,16447
 20008f4:	20059480 	call	2005948 <__divdf3>
 20008f8:	1009883a 	mov	r4,r2
 20008fc:	180b883a 	mov	r5,r3
 2000900:	2005883a 	mov	r2,r4
 2000904:	2807883a 	mov	r3,r5
 2000908:	1009883a 	mov	r4,r2
 200090c:	180b883a 	mov	r5,r3
 2000910:	000d883a 	mov	r6,zero
 2000914:	01d01c34 	movhi	r7,16496
 2000918:	39f80004 	addi	r7,r7,-8192
 200091c:	20062e40 	call	20062e4 <__muldf3>
 2000920:	1009883a 	mov	r4,r2
 2000924:	180b883a 	mov	r5,r3
 2000928:	2005883a 	mov	r2,r4
 200092c:	2807883a 	mov	r3,r5
 2000930:	1009883a 	mov	r4,r2
 2000934:	180b883a 	mov	r5,r3
 2000938:	2006ae40 	call	2006ae4 <__fixdfsi>
 200093c:	00c080b4 	movhi	r3,514
 2000940:	18f8ea04 	addi	r3,r3,-7256
 2000944:	1085883a 	add	r2,r2,r2
 2000948:	1885883a 	add	r2,r3,r2
 200094c:	1080000b 	ldhu	r2,0(r2)
 2000950:	e0bffc0d 	sth	r2,-16(fp)
 2000954:	e03ffc8d 	sth	zero,-14(fp)
 2000958:	e03ffd0d 	sth	zero,-12(fp)
 200095c:	00018a06 	br	2000f88 <displayColourBars+0x70c>
 2000960:	e0bffa17 	ldw	r2,-24(fp)
 2000964:	10800110 	cmplti	r2,r2,4
 2000968:	1000451e 	bne	r2,zero,2000a80 <displayColourBars+0x204>
 200096c:	e0bffa17 	ldw	r2,-24(fp)
 2000970:	10800208 	cmpgei	r2,r2,8
 2000974:	1000421e 	bne	r2,zero,2000a80 <displayColourBars+0x204>
 2000978:	e13ffb17 	ldw	r4,-20(fp)
 200097c:	2006b640 	call	2006b64 <__floatsidf>
 2000980:	100b883a 	mov	r5,r2
 2000984:	180d883a 	mov	r6,r3
 2000988:	2809883a 	mov	r4,r5
 200098c:	300b883a 	mov	r5,r6
 2000990:	000d883a 	mov	r6,zero
 2000994:	01d00ff4 	movhi	r7,16447
 2000998:	20059480 	call	2005948 <__divdf3>
 200099c:	1009883a 	mov	r4,r2
 20009a0:	180b883a 	mov	r5,r3
 20009a4:	2005883a 	mov	r2,r4
 20009a8:	2807883a 	mov	r3,r5
 20009ac:	1009883a 	mov	r4,r2
 20009b0:	180b883a 	mov	r5,r3
 20009b4:	000d883a 	mov	r6,zero
 20009b8:	01d01c34 	movhi	r7,16496
 20009bc:	39f80004 	addi	r7,r7,-8192
 20009c0:	20062e40 	call	20062e4 <__muldf3>
 20009c4:	1009883a 	mov	r4,r2
 20009c8:	180b883a 	mov	r5,r3
 20009cc:	2005883a 	mov	r2,r4
 20009d0:	2807883a 	mov	r3,r5
 20009d4:	1009883a 	mov	r4,r2
 20009d8:	180b883a 	mov	r5,r3
 20009dc:	2006ae40 	call	2006ae4 <__fixdfsi>
 20009e0:	00c080b4 	movhi	r3,514
 20009e4:	18f8ea04 	addi	r3,r3,-7256
 20009e8:	1085883a 	add	r2,r2,r2
 20009ec:	1885883a 	add	r2,r3,r2
 20009f0:	1080000b 	ldhu	r2,0(r2)
 20009f4:	e0bffc0d 	sth	r2,-16(fp)
 20009f8:	e13ffb17 	ldw	r4,-20(fp)
 20009fc:	2006b640 	call	2006b64 <__floatsidf>
 2000a00:	100b883a 	mov	r5,r2
 2000a04:	180d883a 	mov	r6,r3
 2000a08:	2809883a 	mov	r4,r5
 2000a0c:	300b883a 	mov	r5,r6
 2000a10:	000d883a 	mov	r6,zero
 2000a14:	01d00ff4 	movhi	r7,16447
 2000a18:	20059480 	call	2005948 <__divdf3>
 2000a1c:	1009883a 	mov	r4,r2
 2000a20:	180b883a 	mov	r5,r3
 2000a24:	2005883a 	mov	r2,r4
 2000a28:	2807883a 	mov	r3,r5
 2000a2c:	1009883a 	mov	r4,r2
 2000a30:	180b883a 	mov	r5,r3
 2000a34:	000d883a 	mov	r6,zero
 2000a38:	01d01c34 	movhi	r7,16496
 2000a3c:	39f80004 	addi	r7,r7,-8192
 2000a40:	20062e40 	call	20062e4 <__muldf3>
 2000a44:	1009883a 	mov	r4,r2
 2000a48:	180b883a 	mov	r5,r3
 2000a4c:	2005883a 	mov	r2,r4
 2000a50:	2807883a 	mov	r3,r5
 2000a54:	1009883a 	mov	r4,r2
 2000a58:	180b883a 	mov	r5,r3
 2000a5c:	2006ae40 	call	2006ae4 <__fixdfsi>
 2000a60:	00c080b4 	movhi	r3,514
 2000a64:	18f8ea04 	addi	r3,r3,-7256
 2000a68:	1085883a 	add	r2,r2,r2
 2000a6c:	1885883a 	add	r2,r3,r2
 2000a70:	1080000b 	ldhu	r2,0(r2)
 2000a74:	e0bffc8d 	sth	r2,-14(fp)
 2000a78:	e03ffd0d 	sth	zero,-12(fp)
 2000a7c:	00014206 	br	2000f88 <displayColourBars+0x70c>
 2000a80:	e0bffa17 	ldw	r2,-24(fp)
 2000a84:	10800210 	cmplti	r2,r2,8
 2000a88:	1000261e 	bne	r2,zero,2000b24 <displayColourBars+0x2a8>
 2000a8c:	e0bffa17 	ldw	r2,-24(fp)
 2000a90:	10800308 	cmpgei	r2,r2,12
 2000a94:	1000231e 	bne	r2,zero,2000b24 <displayColourBars+0x2a8>
 2000a98:	e03ffc0d 	sth	zero,-16(fp)
 2000a9c:	e13ffb17 	ldw	r4,-20(fp)
 2000aa0:	2006b640 	call	2006b64 <__floatsidf>
 2000aa4:	100b883a 	mov	r5,r2
 2000aa8:	180d883a 	mov	r6,r3
 2000aac:	2809883a 	mov	r4,r5
 2000ab0:	300b883a 	mov	r5,r6
 2000ab4:	000d883a 	mov	r6,zero
 2000ab8:	01d00ff4 	movhi	r7,16447
 2000abc:	20059480 	call	2005948 <__divdf3>
 2000ac0:	1009883a 	mov	r4,r2
 2000ac4:	180b883a 	mov	r5,r3
 2000ac8:	2005883a 	mov	r2,r4
 2000acc:	2807883a 	mov	r3,r5
 2000ad0:	1009883a 	mov	r4,r2
 2000ad4:	180b883a 	mov	r5,r3
 2000ad8:	000d883a 	mov	r6,zero
 2000adc:	01d01c34 	movhi	r7,16496
 2000ae0:	39f80004 	addi	r7,r7,-8192
 2000ae4:	20062e40 	call	20062e4 <__muldf3>
 2000ae8:	1009883a 	mov	r4,r2
 2000aec:	180b883a 	mov	r5,r3
 2000af0:	2005883a 	mov	r2,r4
 2000af4:	2807883a 	mov	r3,r5
 2000af8:	1009883a 	mov	r4,r2
 2000afc:	180b883a 	mov	r5,r3
 2000b00:	2006ae40 	call	2006ae4 <__fixdfsi>
 2000b04:	00c080b4 	movhi	r3,514
 2000b08:	18f8ea04 	addi	r3,r3,-7256
 2000b0c:	1085883a 	add	r2,r2,r2
 2000b10:	1885883a 	add	r2,r3,r2
 2000b14:	1080000b 	ldhu	r2,0(r2)
 2000b18:	e0bffc8d 	sth	r2,-14(fp)
 2000b1c:	e03ffd0d 	sth	zero,-12(fp)
 2000b20:	00011906 	br	2000f88 <displayColourBars+0x70c>
 2000b24:	e0bffa17 	ldw	r2,-24(fp)
 2000b28:	10800310 	cmplti	r2,r2,12
 2000b2c:	1000451e 	bne	r2,zero,2000c44 <displayColourBars+0x3c8>
 2000b30:	e0bffa17 	ldw	r2,-24(fp)
 2000b34:	10800408 	cmpgei	r2,r2,16
 2000b38:	1000421e 	bne	r2,zero,2000c44 <displayColourBars+0x3c8>
 2000b3c:	e03ffc0d 	sth	zero,-16(fp)
 2000b40:	e13ffb17 	ldw	r4,-20(fp)
 2000b44:	2006b640 	call	2006b64 <__floatsidf>
 2000b48:	100b883a 	mov	r5,r2
 2000b4c:	180d883a 	mov	r6,r3
 2000b50:	2809883a 	mov	r4,r5
 2000b54:	300b883a 	mov	r5,r6
 2000b58:	000d883a 	mov	r6,zero
 2000b5c:	01d00ff4 	movhi	r7,16447
 2000b60:	20059480 	call	2005948 <__divdf3>
 2000b64:	1009883a 	mov	r4,r2
 2000b68:	180b883a 	mov	r5,r3
 2000b6c:	2005883a 	mov	r2,r4
 2000b70:	2807883a 	mov	r3,r5
 2000b74:	1009883a 	mov	r4,r2
 2000b78:	180b883a 	mov	r5,r3
 2000b7c:	000d883a 	mov	r6,zero
 2000b80:	01d01c34 	movhi	r7,16496
 2000b84:	39f80004 	addi	r7,r7,-8192
 2000b88:	20062e40 	call	20062e4 <__muldf3>
 2000b8c:	1009883a 	mov	r4,r2
 2000b90:	180b883a 	mov	r5,r3
 2000b94:	2005883a 	mov	r2,r4
 2000b98:	2807883a 	mov	r3,r5
 2000b9c:	1009883a 	mov	r4,r2
 2000ba0:	180b883a 	mov	r5,r3
 2000ba4:	2006ae40 	call	2006ae4 <__fixdfsi>
 2000ba8:	00c080b4 	movhi	r3,514
 2000bac:	18f8ea04 	addi	r3,r3,-7256
 2000bb0:	1085883a 	add	r2,r2,r2
 2000bb4:	1885883a 	add	r2,r3,r2
 2000bb8:	1080000b 	ldhu	r2,0(r2)
 2000bbc:	e0bffc8d 	sth	r2,-14(fp)
 2000bc0:	e13ffb17 	ldw	r4,-20(fp)
 2000bc4:	2006b640 	call	2006b64 <__floatsidf>
 2000bc8:	100b883a 	mov	r5,r2
 2000bcc:	180d883a 	mov	r6,r3
 2000bd0:	2809883a 	mov	r4,r5
 2000bd4:	300b883a 	mov	r5,r6
 2000bd8:	000d883a 	mov	r6,zero
 2000bdc:	01d00ff4 	movhi	r7,16447
 2000be0:	20059480 	call	2005948 <__divdf3>
 2000be4:	1009883a 	mov	r4,r2
 2000be8:	180b883a 	mov	r5,r3
 2000bec:	2005883a 	mov	r2,r4
 2000bf0:	2807883a 	mov	r3,r5
 2000bf4:	1009883a 	mov	r4,r2
 2000bf8:	180b883a 	mov	r5,r3
 2000bfc:	000d883a 	mov	r6,zero
 2000c00:	01d01c34 	movhi	r7,16496
 2000c04:	39f80004 	addi	r7,r7,-8192
 2000c08:	20062e40 	call	20062e4 <__muldf3>
 2000c0c:	1009883a 	mov	r4,r2
 2000c10:	180b883a 	mov	r5,r3
 2000c14:	2005883a 	mov	r2,r4
 2000c18:	2807883a 	mov	r3,r5
 2000c1c:	1009883a 	mov	r4,r2
 2000c20:	180b883a 	mov	r5,r3
 2000c24:	2006ae40 	call	2006ae4 <__fixdfsi>
 2000c28:	00c080b4 	movhi	r3,514
 2000c2c:	18f8ea04 	addi	r3,r3,-7256
 2000c30:	1085883a 	add	r2,r2,r2
 2000c34:	1885883a 	add	r2,r3,r2
 2000c38:	1080000b 	ldhu	r2,0(r2)
 2000c3c:	e0bffd0d 	sth	r2,-12(fp)
 2000c40:	0000d106 	br	2000f88 <displayColourBars+0x70c>
 2000c44:	e0bffa17 	ldw	r2,-24(fp)
 2000c48:	10800410 	cmplti	r2,r2,16
 2000c4c:	1000261e 	bne	r2,zero,2000ce8 <displayColourBars+0x46c>
 2000c50:	e0bffa17 	ldw	r2,-24(fp)
 2000c54:	10800508 	cmpgei	r2,r2,20
 2000c58:	1000231e 	bne	r2,zero,2000ce8 <displayColourBars+0x46c>
 2000c5c:	e03ffc0d 	sth	zero,-16(fp)
 2000c60:	e03ffc8d 	sth	zero,-14(fp)
 2000c64:	e13ffb17 	ldw	r4,-20(fp)
 2000c68:	2006b640 	call	2006b64 <__floatsidf>
 2000c6c:	100b883a 	mov	r5,r2
 2000c70:	180d883a 	mov	r6,r3
 2000c74:	2809883a 	mov	r4,r5
 2000c78:	300b883a 	mov	r5,r6
 2000c7c:	000d883a 	mov	r6,zero
 2000c80:	01d00ff4 	movhi	r7,16447
 2000c84:	20059480 	call	2005948 <__divdf3>
 2000c88:	1009883a 	mov	r4,r2
 2000c8c:	180b883a 	mov	r5,r3
 2000c90:	2005883a 	mov	r2,r4
 2000c94:	2807883a 	mov	r3,r5
 2000c98:	1009883a 	mov	r4,r2
 2000c9c:	180b883a 	mov	r5,r3
 2000ca0:	000d883a 	mov	r6,zero
 2000ca4:	01d01c34 	movhi	r7,16496
 2000ca8:	39f80004 	addi	r7,r7,-8192
 2000cac:	20062e40 	call	20062e4 <__muldf3>
 2000cb0:	1009883a 	mov	r4,r2
 2000cb4:	180b883a 	mov	r5,r3
 2000cb8:	2005883a 	mov	r2,r4
 2000cbc:	2807883a 	mov	r3,r5
 2000cc0:	1009883a 	mov	r4,r2
 2000cc4:	180b883a 	mov	r5,r3
 2000cc8:	2006ae40 	call	2006ae4 <__fixdfsi>
 2000ccc:	00c080b4 	movhi	r3,514
 2000cd0:	18f8ea04 	addi	r3,r3,-7256
 2000cd4:	1085883a 	add	r2,r2,r2
 2000cd8:	1885883a 	add	r2,r3,r2
 2000cdc:	1080000b 	ldhu	r2,0(r2)
 2000ce0:	e0bffd0d 	sth	r2,-12(fp)
 2000ce4:	0000a806 	br	2000f88 <displayColourBars+0x70c>
 2000ce8:	e0bffa17 	ldw	r2,-24(fp)
 2000cec:	10800510 	cmplti	r2,r2,20
 2000cf0:	1000451e 	bne	r2,zero,2000e08 <displayColourBars+0x58c>
 2000cf4:	e0bffa17 	ldw	r2,-24(fp)
 2000cf8:	10800608 	cmpgei	r2,r2,24
 2000cfc:	1000421e 	bne	r2,zero,2000e08 <displayColourBars+0x58c>
 2000d00:	e13ffb17 	ldw	r4,-20(fp)
 2000d04:	2006b640 	call	2006b64 <__floatsidf>
 2000d08:	100b883a 	mov	r5,r2
 2000d0c:	180d883a 	mov	r6,r3
 2000d10:	2809883a 	mov	r4,r5
 2000d14:	300b883a 	mov	r5,r6
 2000d18:	000d883a 	mov	r6,zero
 2000d1c:	01d00ff4 	movhi	r7,16447
 2000d20:	20059480 	call	2005948 <__divdf3>
 2000d24:	1009883a 	mov	r4,r2
 2000d28:	180b883a 	mov	r5,r3
 2000d2c:	2005883a 	mov	r2,r4
 2000d30:	2807883a 	mov	r3,r5
 2000d34:	1009883a 	mov	r4,r2
 2000d38:	180b883a 	mov	r5,r3
 2000d3c:	000d883a 	mov	r6,zero
 2000d40:	01d01c34 	movhi	r7,16496
 2000d44:	39f80004 	addi	r7,r7,-8192
 2000d48:	20062e40 	call	20062e4 <__muldf3>
 2000d4c:	1009883a 	mov	r4,r2
 2000d50:	180b883a 	mov	r5,r3
 2000d54:	2005883a 	mov	r2,r4
 2000d58:	2807883a 	mov	r3,r5
 2000d5c:	1009883a 	mov	r4,r2
 2000d60:	180b883a 	mov	r5,r3
 2000d64:	2006ae40 	call	2006ae4 <__fixdfsi>
 2000d68:	00c080b4 	movhi	r3,514
 2000d6c:	18f8ea04 	addi	r3,r3,-7256
 2000d70:	1085883a 	add	r2,r2,r2
 2000d74:	1885883a 	add	r2,r3,r2
 2000d78:	1080000b 	ldhu	r2,0(r2)
 2000d7c:	e0bffc0d 	sth	r2,-16(fp)
 2000d80:	e03ffc8d 	sth	zero,-14(fp)
 2000d84:	e13ffb17 	ldw	r4,-20(fp)
 2000d88:	2006b640 	call	2006b64 <__floatsidf>
 2000d8c:	100b883a 	mov	r5,r2
 2000d90:	180d883a 	mov	r6,r3
 2000d94:	2809883a 	mov	r4,r5
 2000d98:	300b883a 	mov	r5,r6
 2000d9c:	000d883a 	mov	r6,zero
 2000da0:	01d00ff4 	movhi	r7,16447
 2000da4:	20059480 	call	2005948 <__divdf3>
 2000da8:	1009883a 	mov	r4,r2
 2000dac:	180b883a 	mov	r5,r3
 2000db0:	2005883a 	mov	r2,r4
 2000db4:	2807883a 	mov	r3,r5
 2000db8:	1009883a 	mov	r4,r2
 2000dbc:	180b883a 	mov	r5,r3
 2000dc0:	000d883a 	mov	r6,zero
 2000dc4:	01d01c34 	movhi	r7,16496
 2000dc8:	39f80004 	addi	r7,r7,-8192
 2000dcc:	20062e40 	call	20062e4 <__muldf3>
 2000dd0:	1009883a 	mov	r4,r2
 2000dd4:	180b883a 	mov	r5,r3
 2000dd8:	2005883a 	mov	r2,r4
 2000ddc:	2807883a 	mov	r3,r5
 2000de0:	1009883a 	mov	r4,r2
 2000de4:	180b883a 	mov	r5,r3
 2000de8:	2006ae40 	call	2006ae4 <__fixdfsi>
 2000dec:	00c080b4 	movhi	r3,514
 2000df0:	18f8ea04 	addi	r3,r3,-7256
 2000df4:	1085883a 	add	r2,r2,r2
 2000df8:	1885883a 	add	r2,r3,r2
 2000dfc:	1080000b 	ldhu	r2,0(r2)
 2000e00:	e0bffd0d 	sth	r2,-12(fp)
 2000e04:	00006006 	br	2000f88 <displayColourBars+0x70c>
 2000e08:	e13ffb17 	ldw	r4,-20(fp)
 2000e0c:	2006b640 	call	2006b64 <__floatsidf>
 2000e10:	100b883a 	mov	r5,r2
 2000e14:	180d883a 	mov	r6,r3
 2000e18:	2809883a 	mov	r4,r5
 2000e1c:	300b883a 	mov	r5,r6
 2000e20:	000d883a 	mov	r6,zero
 2000e24:	01d00ff4 	movhi	r7,16447
 2000e28:	20059480 	call	2005948 <__divdf3>
 2000e2c:	1009883a 	mov	r4,r2
 2000e30:	180b883a 	mov	r5,r3
 2000e34:	2005883a 	mov	r2,r4
 2000e38:	2807883a 	mov	r3,r5
 2000e3c:	1009883a 	mov	r4,r2
 2000e40:	180b883a 	mov	r5,r3
 2000e44:	000d883a 	mov	r6,zero
 2000e48:	01d01c34 	movhi	r7,16496
 2000e4c:	39f80004 	addi	r7,r7,-8192
 2000e50:	20062e40 	call	20062e4 <__muldf3>
 2000e54:	1009883a 	mov	r4,r2
 2000e58:	180b883a 	mov	r5,r3
 2000e5c:	2005883a 	mov	r2,r4
 2000e60:	2807883a 	mov	r3,r5
 2000e64:	1009883a 	mov	r4,r2
 2000e68:	180b883a 	mov	r5,r3
 2000e6c:	2006ae40 	call	2006ae4 <__fixdfsi>
 2000e70:	00c080b4 	movhi	r3,514
 2000e74:	18f8ea04 	addi	r3,r3,-7256
 2000e78:	1085883a 	add	r2,r2,r2
 2000e7c:	1885883a 	add	r2,r3,r2
 2000e80:	1080000b 	ldhu	r2,0(r2)
 2000e84:	e0bffc0d 	sth	r2,-16(fp)
 2000e88:	e13ffb17 	ldw	r4,-20(fp)
 2000e8c:	2006b640 	call	2006b64 <__floatsidf>
 2000e90:	100b883a 	mov	r5,r2
 2000e94:	180d883a 	mov	r6,r3
 2000e98:	2809883a 	mov	r4,r5
 2000e9c:	300b883a 	mov	r5,r6
 2000ea0:	000d883a 	mov	r6,zero
 2000ea4:	01d00ff4 	movhi	r7,16447
 2000ea8:	20059480 	call	2005948 <__divdf3>
 2000eac:	1009883a 	mov	r4,r2
 2000eb0:	180b883a 	mov	r5,r3
 2000eb4:	2005883a 	mov	r2,r4
 2000eb8:	2807883a 	mov	r3,r5
 2000ebc:	1009883a 	mov	r4,r2
 2000ec0:	180b883a 	mov	r5,r3
 2000ec4:	000d883a 	mov	r6,zero
 2000ec8:	01d01c34 	movhi	r7,16496
 2000ecc:	39f80004 	addi	r7,r7,-8192
 2000ed0:	20062e40 	call	20062e4 <__muldf3>
 2000ed4:	1009883a 	mov	r4,r2
 2000ed8:	180b883a 	mov	r5,r3
 2000edc:	2005883a 	mov	r2,r4
 2000ee0:	2807883a 	mov	r3,r5
 2000ee4:	1009883a 	mov	r4,r2
 2000ee8:	180b883a 	mov	r5,r3
 2000eec:	2006ae40 	call	2006ae4 <__fixdfsi>
 2000ef0:	00c080b4 	movhi	r3,514
 2000ef4:	18f8ea04 	addi	r3,r3,-7256
 2000ef8:	1085883a 	add	r2,r2,r2
 2000efc:	1885883a 	add	r2,r3,r2
 2000f00:	1080000b 	ldhu	r2,0(r2)
 2000f04:	e0bffc8d 	sth	r2,-14(fp)
 2000f08:	e13ffb17 	ldw	r4,-20(fp)
 2000f0c:	2006b640 	call	2006b64 <__floatsidf>
 2000f10:	100b883a 	mov	r5,r2
 2000f14:	180d883a 	mov	r6,r3
 2000f18:	2809883a 	mov	r4,r5
 2000f1c:	300b883a 	mov	r5,r6
 2000f20:	000d883a 	mov	r6,zero
 2000f24:	01d00ff4 	movhi	r7,16447
 2000f28:	20059480 	call	2005948 <__divdf3>
 2000f2c:	1009883a 	mov	r4,r2
 2000f30:	180b883a 	mov	r5,r3
 2000f34:	2005883a 	mov	r2,r4
 2000f38:	2807883a 	mov	r3,r5
 2000f3c:	1009883a 	mov	r4,r2
 2000f40:	180b883a 	mov	r5,r3
 2000f44:	000d883a 	mov	r6,zero
 2000f48:	01d01c34 	movhi	r7,16496
 2000f4c:	39f80004 	addi	r7,r7,-8192
 2000f50:	20062e40 	call	20062e4 <__muldf3>
 2000f54:	1009883a 	mov	r4,r2
 2000f58:	180b883a 	mov	r5,r3
 2000f5c:	2005883a 	mov	r2,r4
 2000f60:	2807883a 	mov	r3,r5
 2000f64:	1009883a 	mov	r4,r2
 2000f68:	180b883a 	mov	r5,r3
 2000f6c:	2006ae40 	call	2006ae4 <__fixdfsi>
 2000f70:	00c080b4 	movhi	r3,514
 2000f74:	18f8ea04 	addi	r3,r3,-7256
 2000f78:	1085883a 	add	r2,r2,r2
 2000f7c:	1885883a 	add	r2,r3,r2
 2000f80:	1080000b 	ldhu	r2,0(r2)
 2000f84:	e0bffd0d 	sth	r2,-12(fp)
 2000f88:	e0bffc0b 	ldhu	r2,-16(fp)
 2000f8c:	1004953a 	slli	r2,r2,20
 2000f90:	10cffc2c 	andhi	r3,r2,16368
 2000f94:	e0bffc8b 	ldhu	r2,-14(fp)
 2000f98:	100892ba 	slli	r4,r2,10
 2000f9c:	00800434 	movhi	r2,16
 2000fa0:	10bf0004 	addi	r2,r2,-1024
 2000fa4:	2084703a 	and	r2,r4,r2
 2000fa8:	1886b03a 	or	r3,r3,r2
 2000fac:	e0bffd0b 	ldhu	r2,-12(fp)
 2000fb0:	1080ffcc 	andi	r2,r2,1023
 2000fb4:	1884b03a 	or	r2,r3,r2
 2000fb8:	e0bfff15 	stw	r2,-4(fp)
 2000fbc:	00810074 	movhi	r2,1025
 2000fc0:	10a82004 	addi	r2,r2,-24448
 2000fc4:	e0fffe17 	ldw	r3,-8(fp)
 2000fc8:	10c00035 	stwio	r3,0(r2)
 2000fcc:	e0ffff17 	ldw	r3,-4(fp)
 2000fd0:	00810074 	movhi	r2,1025
 2000fd4:	10a81c04 	addi	r2,r2,-24464
 2000fd8:	10c00035 	stwio	r3,0(r2)
 2000fdc:	00c00044 	movi	r3,1
 2000fe0:	00810074 	movhi	r2,1025
 2000fe4:	10a81804 	addi	r2,r2,-24480
 2000fe8:	10c00035 	stwio	r3,0(r2)
 2000fec:	0007883a 	mov	r3,zero
 2000ff0:	00810074 	movhi	r2,1025
 2000ff4:	10a81804 	addi	r2,r2,-24480
 2000ff8:	10c00035 	stwio	r3,0(r2)
 2000ffc:	e0bffb17 	ldw	r2,-20(fp)
 2001000:	10800044 	addi	r2,r2,1
 2001004:	e0bffb15 	stw	r2,-20(fp)
 2001008:	e0bffb17 	ldw	r2,-20(fp)
 200100c:	10800810 	cmplti	r2,r2,32
 2001010:	103e221e 	bne	r2,zero,200089c <__reset+0xfdff789c>
 2001014:	e0bffa17 	ldw	r2,-24(fp)
 2001018:	10800044 	addi	r2,r2,1
 200101c:	e0bffa15 	stw	r2,-24(fp)
 2001020:	e0bffa17 	ldw	r2,-24(fp)
 2001024:	10800810 	cmplti	r2,r2,32
 2001028:	103e1a1e 	bne	r2,zero,2000894 <__reset+0xfdff7894>
 200102c:	e037883a 	mov	sp,fp
 2001030:	dfc00117 	ldw	ra,4(sp)
 2001034:	df000017 	ldw	fp,0(sp)
 2001038:	dec00204 	addi	sp,sp,8
 200103c:	f800283a 	ret

02001040 <displayCIEColourBars>:
 2001040:	defff804 	addi	sp,sp,-32
 2001044:	dfc00715 	stw	ra,28(sp)
 2001048:	df000615 	stw	fp,24(sp)
 200104c:	df000604 	addi	fp,sp,24
 2001050:	e03ffa15 	stw	zero,-24(fp)
 2001054:	00010b06 	br	2001484 <displayCIEColourBars+0x444>
 2001058:	e03ffb15 	stw	zero,-20(fp)
 200105c:	00010306 	br	200146c <displayCIEColourBars+0x42c>
 2001060:	00810004 	movi	r2,1024
 2001064:	e0bffe15 	stw	r2,-8(fp)
 2001068:	e0bffa17 	ldw	r2,-24(fp)
 200106c:	1004917a 	slli	r2,r2,5
 2001070:	e0fffe17 	ldw	r3,-8(fp)
 2001074:	1885883a 	add	r2,r3,r2
 2001078:	e0bffe15 	stw	r2,-8(fp)
 200107c:	e0fffe17 	ldw	r3,-8(fp)
 2001080:	e0bffb17 	ldw	r2,-20(fp)
 2001084:	1885883a 	add	r2,r3,r2
 2001088:	e0bffe15 	stw	r2,-8(fp)
 200108c:	e0bffa17 	ldw	r2,-24(fp)
 2001090:	10800208 	cmpgei	r2,r2,8
 2001094:	1000231e 	bne	r2,zero,2001124 <displayCIEColourBars+0xe4>
 2001098:	e13ffb17 	ldw	r4,-20(fp)
 200109c:	2006b640 	call	2006b64 <__floatsidf>
 20010a0:	100b883a 	mov	r5,r2
 20010a4:	180d883a 	mov	r6,r3
 20010a8:	2809883a 	mov	r4,r5
 20010ac:	300b883a 	mov	r5,r6
 20010b0:	000d883a 	mov	r6,zero
 20010b4:	01d00ff4 	movhi	r7,16447
 20010b8:	20059480 	call	2005948 <__divdf3>
 20010bc:	1009883a 	mov	r4,r2
 20010c0:	180b883a 	mov	r5,r3
 20010c4:	2005883a 	mov	r2,r4
 20010c8:	2807883a 	mov	r3,r5
 20010cc:	1009883a 	mov	r4,r2
 20010d0:	180b883a 	mov	r5,r3
 20010d4:	000d883a 	mov	r6,zero
 20010d8:	01d01c34 	movhi	r7,16496
 20010dc:	39f80004 	addi	r7,r7,-8192
 20010e0:	20062e40 	call	20062e4 <__muldf3>
 20010e4:	1009883a 	mov	r4,r2
 20010e8:	180b883a 	mov	r5,r3
 20010ec:	2005883a 	mov	r2,r4
 20010f0:	2807883a 	mov	r3,r5
 20010f4:	1009883a 	mov	r4,r2
 20010f8:	180b883a 	mov	r5,r3
 20010fc:	2006ae40 	call	2006ae4 <__fixdfsi>
 2001100:	00c080b4 	movhi	r3,514
 2001104:	18f96a04 	addi	r3,r3,-6744
 2001108:	1085883a 	add	r2,r2,r2
 200110c:	1885883a 	add	r2,r3,r2
 2001110:	1080000b 	ldhu	r2,0(r2)
 2001114:	e0bffc0d 	sth	r2,-16(fp)
 2001118:	e03ffc8d 	sth	zero,-14(fp)
 200111c:	e03ffd0d 	sth	zero,-12(fp)
 2001120:	0000b206 	br	20013ec <displayCIEColourBars+0x3ac>
 2001124:	e0bffa17 	ldw	r2,-24(fp)
 2001128:	10800210 	cmplti	r2,r2,8
 200112c:	1000261e 	bne	r2,zero,20011c8 <displayCIEColourBars+0x188>
 2001130:	e0bffa17 	ldw	r2,-24(fp)
 2001134:	10800408 	cmpgei	r2,r2,16
 2001138:	1000231e 	bne	r2,zero,20011c8 <displayCIEColourBars+0x188>
 200113c:	e03ffc0d 	sth	zero,-16(fp)
 2001140:	e13ffb17 	ldw	r4,-20(fp)
 2001144:	2006b640 	call	2006b64 <__floatsidf>
 2001148:	100b883a 	mov	r5,r2
 200114c:	180d883a 	mov	r6,r3
 2001150:	2809883a 	mov	r4,r5
 2001154:	300b883a 	mov	r5,r6
 2001158:	000d883a 	mov	r6,zero
 200115c:	01d00ff4 	movhi	r7,16447
 2001160:	20059480 	call	2005948 <__divdf3>
 2001164:	1009883a 	mov	r4,r2
 2001168:	180b883a 	mov	r5,r3
 200116c:	2005883a 	mov	r2,r4
 2001170:	2807883a 	mov	r3,r5
 2001174:	1009883a 	mov	r4,r2
 2001178:	180b883a 	mov	r5,r3
 200117c:	000d883a 	mov	r6,zero
 2001180:	01d01c34 	movhi	r7,16496
 2001184:	39f80004 	addi	r7,r7,-8192
 2001188:	20062e40 	call	20062e4 <__muldf3>
 200118c:	1009883a 	mov	r4,r2
 2001190:	180b883a 	mov	r5,r3
 2001194:	2005883a 	mov	r2,r4
 2001198:	2807883a 	mov	r3,r5
 200119c:	1009883a 	mov	r4,r2
 20011a0:	180b883a 	mov	r5,r3
 20011a4:	2006ae40 	call	2006ae4 <__fixdfsi>
 20011a8:	00c080b4 	movhi	r3,514
 20011ac:	18f96a04 	addi	r3,r3,-6744
 20011b0:	1085883a 	add	r2,r2,r2
 20011b4:	1885883a 	add	r2,r3,r2
 20011b8:	1080000b 	ldhu	r2,0(r2)
 20011bc:	e0bffc8d 	sth	r2,-14(fp)
 20011c0:	e03ffd0d 	sth	zero,-12(fp)
 20011c4:	00008906 	br	20013ec <displayCIEColourBars+0x3ac>
 20011c8:	e0bffa17 	ldw	r2,-24(fp)
 20011cc:	10800410 	cmplti	r2,r2,16
 20011d0:	1000261e 	bne	r2,zero,200126c <displayCIEColourBars+0x22c>
 20011d4:	e0bffa17 	ldw	r2,-24(fp)
 20011d8:	10800608 	cmpgei	r2,r2,24
 20011dc:	1000231e 	bne	r2,zero,200126c <displayCIEColourBars+0x22c>
 20011e0:	e03ffc0d 	sth	zero,-16(fp)
 20011e4:	e03ffc8d 	sth	zero,-14(fp)
 20011e8:	e13ffb17 	ldw	r4,-20(fp)
 20011ec:	2006b640 	call	2006b64 <__floatsidf>
 20011f0:	100b883a 	mov	r5,r2
 20011f4:	180d883a 	mov	r6,r3
 20011f8:	2809883a 	mov	r4,r5
 20011fc:	300b883a 	mov	r5,r6
 2001200:	000d883a 	mov	r6,zero
 2001204:	01d00ff4 	movhi	r7,16447
 2001208:	20059480 	call	2005948 <__divdf3>
 200120c:	1009883a 	mov	r4,r2
 2001210:	180b883a 	mov	r5,r3
 2001214:	2005883a 	mov	r2,r4
 2001218:	2807883a 	mov	r3,r5
 200121c:	1009883a 	mov	r4,r2
 2001220:	180b883a 	mov	r5,r3
 2001224:	000d883a 	mov	r6,zero
 2001228:	01d01c34 	movhi	r7,16496
 200122c:	39f80004 	addi	r7,r7,-8192
 2001230:	20062e40 	call	20062e4 <__muldf3>
 2001234:	1009883a 	mov	r4,r2
 2001238:	180b883a 	mov	r5,r3
 200123c:	2005883a 	mov	r2,r4
 2001240:	2807883a 	mov	r3,r5
 2001244:	1009883a 	mov	r4,r2
 2001248:	180b883a 	mov	r5,r3
 200124c:	2006ae40 	call	2006ae4 <__fixdfsi>
 2001250:	00c080b4 	movhi	r3,514
 2001254:	18f96a04 	addi	r3,r3,-6744
 2001258:	1085883a 	add	r2,r2,r2
 200125c:	1885883a 	add	r2,r3,r2
 2001260:	1080000b 	ldhu	r2,0(r2)
 2001264:	e0bffd0d 	sth	r2,-12(fp)
 2001268:	00006006 	br	20013ec <displayCIEColourBars+0x3ac>
 200126c:	e13ffb17 	ldw	r4,-20(fp)
 2001270:	2006b640 	call	2006b64 <__floatsidf>
 2001274:	100b883a 	mov	r5,r2
 2001278:	180d883a 	mov	r6,r3
 200127c:	2809883a 	mov	r4,r5
 2001280:	300b883a 	mov	r5,r6
 2001284:	000d883a 	mov	r6,zero
 2001288:	01d00ff4 	movhi	r7,16447
 200128c:	20059480 	call	2005948 <__divdf3>
 2001290:	1009883a 	mov	r4,r2
 2001294:	180b883a 	mov	r5,r3
 2001298:	2005883a 	mov	r2,r4
 200129c:	2807883a 	mov	r3,r5
 20012a0:	1009883a 	mov	r4,r2
 20012a4:	180b883a 	mov	r5,r3
 20012a8:	000d883a 	mov	r6,zero
 20012ac:	01d01c34 	movhi	r7,16496
 20012b0:	39f80004 	addi	r7,r7,-8192
 20012b4:	20062e40 	call	20062e4 <__muldf3>
 20012b8:	1009883a 	mov	r4,r2
 20012bc:	180b883a 	mov	r5,r3
 20012c0:	2005883a 	mov	r2,r4
 20012c4:	2807883a 	mov	r3,r5
 20012c8:	1009883a 	mov	r4,r2
 20012cc:	180b883a 	mov	r5,r3
 20012d0:	2006ae40 	call	2006ae4 <__fixdfsi>
 20012d4:	00c080b4 	movhi	r3,514
 20012d8:	18f96a04 	addi	r3,r3,-6744
 20012dc:	1085883a 	add	r2,r2,r2
 20012e0:	1885883a 	add	r2,r3,r2
 20012e4:	1080000b 	ldhu	r2,0(r2)
 20012e8:	e0bffc0d 	sth	r2,-16(fp)
 20012ec:	e13ffb17 	ldw	r4,-20(fp)
 20012f0:	2006b640 	call	2006b64 <__floatsidf>
 20012f4:	100b883a 	mov	r5,r2
 20012f8:	180d883a 	mov	r6,r3
 20012fc:	2809883a 	mov	r4,r5
 2001300:	300b883a 	mov	r5,r6
 2001304:	000d883a 	mov	r6,zero
 2001308:	01d00ff4 	movhi	r7,16447
 200130c:	20059480 	call	2005948 <__divdf3>
 2001310:	1009883a 	mov	r4,r2
 2001314:	180b883a 	mov	r5,r3
 2001318:	2005883a 	mov	r2,r4
 200131c:	2807883a 	mov	r3,r5
 2001320:	1009883a 	mov	r4,r2
 2001324:	180b883a 	mov	r5,r3
 2001328:	000d883a 	mov	r6,zero
 200132c:	01d01c34 	movhi	r7,16496
 2001330:	39f80004 	addi	r7,r7,-8192
 2001334:	20062e40 	call	20062e4 <__muldf3>
 2001338:	1009883a 	mov	r4,r2
 200133c:	180b883a 	mov	r5,r3
 2001340:	2005883a 	mov	r2,r4
 2001344:	2807883a 	mov	r3,r5
 2001348:	1009883a 	mov	r4,r2
 200134c:	180b883a 	mov	r5,r3
 2001350:	2006ae40 	call	2006ae4 <__fixdfsi>
 2001354:	00c080b4 	movhi	r3,514
 2001358:	18f96a04 	addi	r3,r3,-6744
 200135c:	1085883a 	add	r2,r2,r2
 2001360:	1885883a 	add	r2,r3,r2
 2001364:	1080000b 	ldhu	r2,0(r2)
 2001368:	e0bffc8d 	sth	r2,-14(fp)
 200136c:	e13ffb17 	ldw	r4,-20(fp)
 2001370:	2006b640 	call	2006b64 <__floatsidf>
 2001374:	100b883a 	mov	r5,r2
 2001378:	180d883a 	mov	r6,r3
 200137c:	2809883a 	mov	r4,r5
 2001380:	300b883a 	mov	r5,r6
 2001384:	000d883a 	mov	r6,zero
 2001388:	01d00ff4 	movhi	r7,16447
 200138c:	20059480 	call	2005948 <__divdf3>
 2001390:	1009883a 	mov	r4,r2
 2001394:	180b883a 	mov	r5,r3
 2001398:	2005883a 	mov	r2,r4
 200139c:	2807883a 	mov	r3,r5
 20013a0:	1009883a 	mov	r4,r2
 20013a4:	180b883a 	mov	r5,r3
 20013a8:	000d883a 	mov	r6,zero
 20013ac:	01d01c34 	movhi	r7,16496
 20013b0:	39f80004 	addi	r7,r7,-8192
 20013b4:	20062e40 	call	20062e4 <__muldf3>
 20013b8:	1009883a 	mov	r4,r2
 20013bc:	180b883a 	mov	r5,r3
 20013c0:	2005883a 	mov	r2,r4
 20013c4:	2807883a 	mov	r3,r5
 20013c8:	1009883a 	mov	r4,r2
 20013cc:	180b883a 	mov	r5,r3
 20013d0:	2006ae40 	call	2006ae4 <__fixdfsi>
 20013d4:	00c080b4 	movhi	r3,514
 20013d8:	18f96a04 	addi	r3,r3,-6744
 20013dc:	1085883a 	add	r2,r2,r2
 20013e0:	1885883a 	add	r2,r3,r2
 20013e4:	1080000b 	ldhu	r2,0(r2)
 20013e8:	e0bffd0d 	sth	r2,-12(fp)
 20013ec:	e0bffc0b 	ldhu	r2,-16(fp)
 20013f0:	1004953a 	slli	r2,r2,20
 20013f4:	10cffc2c 	andhi	r3,r2,16368
 20013f8:	e0bffc8b 	ldhu	r2,-14(fp)
 20013fc:	100892ba 	slli	r4,r2,10
 2001400:	00800434 	movhi	r2,16
 2001404:	10bf0004 	addi	r2,r2,-1024
 2001408:	2084703a 	and	r2,r4,r2
 200140c:	1886b03a 	or	r3,r3,r2
 2001410:	e0bffd0b 	ldhu	r2,-12(fp)
 2001414:	1080ffcc 	andi	r2,r2,1023
 2001418:	1884b03a 	or	r2,r3,r2
 200141c:	e0bfff15 	stw	r2,-4(fp)
 2001420:	00810074 	movhi	r2,1025
 2001424:	10a82004 	addi	r2,r2,-24448
 2001428:	e0fffe17 	ldw	r3,-8(fp)
 200142c:	10c00035 	stwio	r3,0(r2)
 2001430:	e0ffff17 	ldw	r3,-4(fp)
 2001434:	00810074 	movhi	r2,1025
 2001438:	10a81c04 	addi	r2,r2,-24464
 200143c:	10c00035 	stwio	r3,0(r2)
 2001440:	00c00044 	movi	r3,1
 2001444:	00810074 	movhi	r2,1025
 2001448:	10a81804 	addi	r2,r2,-24480
 200144c:	10c00035 	stwio	r3,0(r2)
 2001450:	0007883a 	mov	r3,zero
 2001454:	00810074 	movhi	r2,1025
 2001458:	10a81804 	addi	r2,r2,-24480
 200145c:	10c00035 	stwio	r3,0(r2)
 2001460:	e0bffb17 	ldw	r2,-20(fp)
 2001464:	10800044 	addi	r2,r2,1
 2001468:	e0bffb15 	stw	r2,-20(fp)
 200146c:	e0bffb17 	ldw	r2,-20(fp)
 2001470:	10800810 	cmplti	r2,r2,32
 2001474:	103efa1e 	bne	r2,zero,2001060 <__reset+0xfdff8060>
 2001478:	e0bffa17 	ldw	r2,-24(fp)
 200147c:	10800044 	addi	r2,r2,1
 2001480:	e0bffa15 	stw	r2,-24(fp)
 2001484:	e0bffa17 	ldw	r2,-24(fp)
 2001488:	10800810 	cmplti	r2,r2,32
 200148c:	103ef21e 	bne	r2,zero,2001058 <__reset+0xfdff8058>
 2001490:	e037883a 	mov	sp,fp
 2001494:	dfc00117 	ldw	ra,4(sp)
 2001498:	df000017 	ldw	fp,0(sp)
 200149c:	dec00204 	addi	sp,sp,8
 20014a0:	f800283a 	ret

020014a4 <displayGamma149ColourBars>:
 20014a4:	defff804 	addi	sp,sp,-32
 20014a8:	dfc00715 	stw	ra,28(sp)
 20014ac:	df000615 	stw	fp,24(sp)
 20014b0:	df000604 	addi	fp,sp,24
 20014b4:	e03ffa15 	stw	zero,-24(fp)
 20014b8:	00010b06 	br	20018e8 <displayGamma149ColourBars+0x444>
 20014bc:	e03ffb15 	stw	zero,-20(fp)
 20014c0:	00010306 	br	20018d0 <displayGamma149ColourBars+0x42c>
 20014c4:	00810004 	movi	r2,1024
 20014c8:	e0bffe15 	stw	r2,-8(fp)
 20014cc:	e0bffa17 	ldw	r2,-24(fp)
 20014d0:	1004917a 	slli	r2,r2,5
 20014d4:	e0fffe17 	ldw	r3,-8(fp)
 20014d8:	1885883a 	add	r2,r3,r2
 20014dc:	e0bffe15 	stw	r2,-8(fp)
 20014e0:	e0fffe17 	ldw	r3,-8(fp)
 20014e4:	e0bffb17 	ldw	r2,-20(fp)
 20014e8:	1885883a 	add	r2,r3,r2
 20014ec:	e0bffe15 	stw	r2,-8(fp)
 20014f0:	e0bffa17 	ldw	r2,-24(fp)
 20014f4:	10800208 	cmpgei	r2,r2,8
 20014f8:	1000231e 	bne	r2,zero,2001588 <displayGamma149ColourBars+0xe4>
 20014fc:	e13ffb17 	ldw	r4,-20(fp)
 2001500:	2006b640 	call	2006b64 <__floatsidf>
 2001504:	100b883a 	mov	r5,r2
 2001508:	180d883a 	mov	r6,r3
 200150c:	2809883a 	mov	r4,r5
 2001510:	300b883a 	mov	r5,r6
 2001514:	000d883a 	mov	r6,zero
 2001518:	01d00ff4 	movhi	r7,16447
 200151c:	20059480 	call	2005948 <__divdf3>
 2001520:	1009883a 	mov	r4,r2
 2001524:	180b883a 	mov	r5,r3
 2001528:	2005883a 	mov	r2,r4
 200152c:	2807883a 	mov	r3,r5
 2001530:	1009883a 	mov	r4,r2
 2001534:	180b883a 	mov	r5,r3
 2001538:	000d883a 	mov	r6,zero
 200153c:	01d01c34 	movhi	r7,16496
 2001540:	39f80004 	addi	r7,r7,-8192
 2001544:	20062e40 	call	20062e4 <__muldf3>
 2001548:	1009883a 	mov	r4,r2
 200154c:	180b883a 	mov	r5,r3
 2001550:	2005883a 	mov	r2,r4
 2001554:	2807883a 	mov	r3,r5
 2001558:	1009883a 	mov	r4,r2
 200155c:	180b883a 	mov	r5,r3
 2001560:	2006ae40 	call	2006ae4 <__fixdfsi>
 2001564:	00c080b4 	movhi	r3,514
 2001568:	18f9ea04 	addi	r3,r3,-6232
 200156c:	1085883a 	add	r2,r2,r2
 2001570:	1885883a 	add	r2,r3,r2
 2001574:	1080000b 	ldhu	r2,0(r2)
 2001578:	e0bffc0d 	sth	r2,-16(fp)
 200157c:	e03ffc8d 	sth	zero,-14(fp)
 2001580:	e03ffd0d 	sth	zero,-12(fp)
 2001584:	0000b206 	br	2001850 <displayGamma149ColourBars+0x3ac>
 2001588:	e0bffa17 	ldw	r2,-24(fp)
 200158c:	10800210 	cmplti	r2,r2,8
 2001590:	1000261e 	bne	r2,zero,200162c <displayGamma149ColourBars+0x188>
 2001594:	e0bffa17 	ldw	r2,-24(fp)
 2001598:	10800408 	cmpgei	r2,r2,16
 200159c:	1000231e 	bne	r2,zero,200162c <displayGamma149ColourBars+0x188>
 20015a0:	e03ffc0d 	sth	zero,-16(fp)
 20015a4:	e13ffb17 	ldw	r4,-20(fp)
 20015a8:	2006b640 	call	2006b64 <__floatsidf>
 20015ac:	100b883a 	mov	r5,r2
 20015b0:	180d883a 	mov	r6,r3
 20015b4:	2809883a 	mov	r4,r5
 20015b8:	300b883a 	mov	r5,r6
 20015bc:	000d883a 	mov	r6,zero
 20015c0:	01d00ff4 	movhi	r7,16447
 20015c4:	20059480 	call	2005948 <__divdf3>
 20015c8:	1009883a 	mov	r4,r2
 20015cc:	180b883a 	mov	r5,r3
 20015d0:	2005883a 	mov	r2,r4
 20015d4:	2807883a 	mov	r3,r5
 20015d8:	1009883a 	mov	r4,r2
 20015dc:	180b883a 	mov	r5,r3
 20015e0:	000d883a 	mov	r6,zero
 20015e4:	01d01c34 	movhi	r7,16496
 20015e8:	39f80004 	addi	r7,r7,-8192
 20015ec:	20062e40 	call	20062e4 <__muldf3>
 20015f0:	1009883a 	mov	r4,r2
 20015f4:	180b883a 	mov	r5,r3
 20015f8:	2005883a 	mov	r2,r4
 20015fc:	2807883a 	mov	r3,r5
 2001600:	1009883a 	mov	r4,r2
 2001604:	180b883a 	mov	r5,r3
 2001608:	2006ae40 	call	2006ae4 <__fixdfsi>
 200160c:	00c080b4 	movhi	r3,514
 2001610:	18f9ea04 	addi	r3,r3,-6232
 2001614:	1085883a 	add	r2,r2,r2
 2001618:	1885883a 	add	r2,r3,r2
 200161c:	1080000b 	ldhu	r2,0(r2)
 2001620:	e0bffc8d 	sth	r2,-14(fp)
 2001624:	e03ffd0d 	sth	zero,-12(fp)
 2001628:	00008906 	br	2001850 <displayGamma149ColourBars+0x3ac>
 200162c:	e0bffa17 	ldw	r2,-24(fp)
 2001630:	10800410 	cmplti	r2,r2,16
 2001634:	1000261e 	bne	r2,zero,20016d0 <displayGamma149ColourBars+0x22c>
 2001638:	e0bffa17 	ldw	r2,-24(fp)
 200163c:	10800608 	cmpgei	r2,r2,24
 2001640:	1000231e 	bne	r2,zero,20016d0 <displayGamma149ColourBars+0x22c>
 2001644:	e03ffc0d 	sth	zero,-16(fp)
 2001648:	e03ffc8d 	sth	zero,-14(fp)
 200164c:	e13ffb17 	ldw	r4,-20(fp)
 2001650:	2006b640 	call	2006b64 <__floatsidf>
 2001654:	100b883a 	mov	r5,r2
 2001658:	180d883a 	mov	r6,r3
 200165c:	2809883a 	mov	r4,r5
 2001660:	300b883a 	mov	r5,r6
 2001664:	000d883a 	mov	r6,zero
 2001668:	01d00ff4 	movhi	r7,16447
 200166c:	20059480 	call	2005948 <__divdf3>
 2001670:	1009883a 	mov	r4,r2
 2001674:	180b883a 	mov	r5,r3
 2001678:	2005883a 	mov	r2,r4
 200167c:	2807883a 	mov	r3,r5
 2001680:	1009883a 	mov	r4,r2
 2001684:	180b883a 	mov	r5,r3
 2001688:	000d883a 	mov	r6,zero
 200168c:	01d01c34 	movhi	r7,16496
 2001690:	39f80004 	addi	r7,r7,-8192
 2001694:	20062e40 	call	20062e4 <__muldf3>
 2001698:	1009883a 	mov	r4,r2
 200169c:	180b883a 	mov	r5,r3
 20016a0:	2005883a 	mov	r2,r4
 20016a4:	2807883a 	mov	r3,r5
 20016a8:	1009883a 	mov	r4,r2
 20016ac:	180b883a 	mov	r5,r3
 20016b0:	2006ae40 	call	2006ae4 <__fixdfsi>
 20016b4:	00c080b4 	movhi	r3,514
 20016b8:	18f9ea04 	addi	r3,r3,-6232
 20016bc:	1085883a 	add	r2,r2,r2
 20016c0:	1885883a 	add	r2,r3,r2
 20016c4:	1080000b 	ldhu	r2,0(r2)
 20016c8:	e0bffd0d 	sth	r2,-12(fp)
 20016cc:	00006006 	br	2001850 <displayGamma149ColourBars+0x3ac>
 20016d0:	e13ffb17 	ldw	r4,-20(fp)
 20016d4:	2006b640 	call	2006b64 <__floatsidf>
 20016d8:	100b883a 	mov	r5,r2
 20016dc:	180d883a 	mov	r6,r3
 20016e0:	2809883a 	mov	r4,r5
 20016e4:	300b883a 	mov	r5,r6
 20016e8:	000d883a 	mov	r6,zero
 20016ec:	01d00ff4 	movhi	r7,16447
 20016f0:	20059480 	call	2005948 <__divdf3>
 20016f4:	1009883a 	mov	r4,r2
 20016f8:	180b883a 	mov	r5,r3
 20016fc:	2005883a 	mov	r2,r4
 2001700:	2807883a 	mov	r3,r5
 2001704:	1009883a 	mov	r4,r2
 2001708:	180b883a 	mov	r5,r3
 200170c:	000d883a 	mov	r6,zero
 2001710:	01d01c34 	movhi	r7,16496
 2001714:	39f80004 	addi	r7,r7,-8192
 2001718:	20062e40 	call	20062e4 <__muldf3>
 200171c:	1009883a 	mov	r4,r2
 2001720:	180b883a 	mov	r5,r3
 2001724:	2005883a 	mov	r2,r4
 2001728:	2807883a 	mov	r3,r5
 200172c:	1009883a 	mov	r4,r2
 2001730:	180b883a 	mov	r5,r3
 2001734:	2006ae40 	call	2006ae4 <__fixdfsi>
 2001738:	00c080b4 	movhi	r3,514
 200173c:	18f9ea04 	addi	r3,r3,-6232
 2001740:	1085883a 	add	r2,r2,r2
 2001744:	1885883a 	add	r2,r3,r2
 2001748:	1080000b 	ldhu	r2,0(r2)
 200174c:	e0bffc0d 	sth	r2,-16(fp)
 2001750:	e13ffb17 	ldw	r4,-20(fp)
 2001754:	2006b640 	call	2006b64 <__floatsidf>
 2001758:	100b883a 	mov	r5,r2
 200175c:	180d883a 	mov	r6,r3
 2001760:	2809883a 	mov	r4,r5
 2001764:	300b883a 	mov	r5,r6
 2001768:	000d883a 	mov	r6,zero
 200176c:	01d00ff4 	movhi	r7,16447
 2001770:	20059480 	call	2005948 <__divdf3>
 2001774:	1009883a 	mov	r4,r2
 2001778:	180b883a 	mov	r5,r3
 200177c:	2005883a 	mov	r2,r4
 2001780:	2807883a 	mov	r3,r5
 2001784:	1009883a 	mov	r4,r2
 2001788:	180b883a 	mov	r5,r3
 200178c:	000d883a 	mov	r6,zero
 2001790:	01d01c34 	movhi	r7,16496
 2001794:	39f80004 	addi	r7,r7,-8192
 2001798:	20062e40 	call	20062e4 <__muldf3>
 200179c:	1009883a 	mov	r4,r2
 20017a0:	180b883a 	mov	r5,r3
 20017a4:	2005883a 	mov	r2,r4
 20017a8:	2807883a 	mov	r3,r5
 20017ac:	1009883a 	mov	r4,r2
 20017b0:	180b883a 	mov	r5,r3
 20017b4:	2006ae40 	call	2006ae4 <__fixdfsi>
 20017b8:	00c080b4 	movhi	r3,514
 20017bc:	18f9ea04 	addi	r3,r3,-6232
 20017c0:	1085883a 	add	r2,r2,r2
 20017c4:	1885883a 	add	r2,r3,r2
 20017c8:	1080000b 	ldhu	r2,0(r2)
 20017cc:	e0bffc8d 	sth	r2,-14(fp)
 20017d0:	e13ffb17 	ldw	r4,-20(fp)
 20017d4:	2006b640 	call	2006b64 <__floatsidf>
 20017d8:	100b883a 	mov	r5,r2
 20017dc:	180d883a 	mov	r6,r3
 20017e0:	2809883a 	mov	r4,r5
 20017e4:	300b883a 	mov	r5,r6
 20017e8:	000d883a 	mov	r6,zero
 20017ec:	01d00ff4 	movhi	r7,16447
 20017f0:	20059480 	call	2005948 <__divdf3>
 20017f4:	1009883a 	mov	r4,r2
 20017f8:	180b883a 	mov	r5,r3
 20017fc:	2005883a 	mov	r2,r4
 2001800:	2807883a 	mov	r3,r5
 2001804:	1009883a 	mov	r4,r2
 2001808:	180b883a 	mov	r5,r3
 200180c:	000d883a 	mov	r6,zero
 2001810:	01d01c34 	movhi	r7,16496
 2001814:	39f80004 	addi	r7,r7,-8192
 2001818:	20062e40 	call	20062e4 <__muldf3>
 200181c:	1009883a 	mov	r4,r2
 2001820:	180b883a 	mov	r5,r3
 2001824:	2005883a 	mov	r2,r4
 2001828:	2807883a 	mov	r3,r5
 200182c:	1009883a 	mov	r4,r2
 2001830:	180b883a 	mov	r5,r3
 2001834:	2006ae40 	call	2006ae4 <__fixdfsi>
 2001838:	00c080b4 	movhi	r3,514
 200183c:	18f9ea04 	addi	r3,r3,-6232
 2001840:	1085883a 	add	r2,r2,r2
 2001844:	1885883a 	add	r2,r3,r2
 2001848:	1080000b 	ldhu	r2,0(r2)
 200184c:	e0bffd0d 	sth	r2,-12(fp)
 2001850:	e0bffc0b 	ldhu	r2,-16(fp)
 2001854:	1004953a 	slli	r2,r2,20
 2001858:	10cffc2c 	andhi	r3,r2,16368
 200185c:	e0bffc8b 	ldhu	r2,-14(fp)
 2001860:	100892ba 	slli	r4,r2,10
 2001864:	00800434 	movhi	r2,16
 2001868:	10bf0004 	addi	r2,r2,-1024
 200186c:	2084703a 	and	r2,r4,r2
 2001870:	1886b03a 	or	r3,r3,r2
 2001874:	e0bffd0b 	ldhu	r2,-12(fp)
 2001878:	1080ffcc 	andi	r2,r2,1023
 200187c:	1884b03a 	or	r2,r3,r2
 2001880:	e0bfff15 	stw	r2,-4(fp)
 2001884:	00810074 	movhi	r2,1025
 2001888:	10a82004 	addi	r2,r2,-24448
 200188c:	e0fffe17 	ldw	r3,-8(fp)
 2001890:	10c00035 	stwio	r3,0(r2)
 2001894:	e0ffff17 	ldw	r3,-4(fp)
 2001898:	00810074 	movhi	r2,1025
 200189c:	10a81c04 	addi	r2,r2,-24464
 20018a0:	10c00035 	stwio	r3,0(r2)
 20018a4:	00c00044 	movi	r3,1
 20018a8:	00810074 	movhi	r2,1025
 20018ac:	10a81804 	addi	r2,r2,-24480
 20018b0:	10c00035 	stwio	r3,0(r2)
 20018b4:	0007883a 	mov	r3,zero
 20018b8:	00810074 	movhi	r2,1025
 20018bc:	10a81804 	addi	r2,r2,-24480
 20018c0:	10c00035 	stwio	r3,0(r2)
 20018c4:	e0bffb17 	ldw	r2,-20(fp)
 20018c8:	10800044 	addi	r2,r2,1
 20018cc:	e0bffb15 	stw	r2,-20(fp)
 20018d0:	e0bffb17 	ldw	r2,-20(fp)
 20018d4:	10800810 	cmplti	r2,r2,32
 20018d8:	103efa1e 	bne	r2,zero,20014c4 <__reset+0xfdff84c4>
 20018dc:	e0bffa17 	ldw	r2,-24(fp)
 20018e0:	10800044 	addi	r2,r2,1
 20018e4:	e0bffa15 	stw	r2,-24(fp)
 20018e8:	e0bffa17 	ldw	r2,-24(fp)
 20018ec:	10800810 	cmplti	r2,r2,32
 20018f0:	103ef21e 	bne	r2,zero,20014bc <__reset+0xfdff84bc>
 20018f4:	e037883a 	mov	sp,fp
 20018f8:	dfc00117 	ldw	ra,4(sp)
 20018fc:	df000017 	ldw	fp,0(sp)
 2001900:	dec00204 	addi	sp,sp,8
 2001904:	f800283a 	ret

02001908 <displayGamma98ColourBars>:
 2001908:	defff804 	addi	sp,sp,-32
 200190c:	dfc00715 	stw	ra,28(sp)
 2001910:	df000615 	stw	fp,24(sp)
 2001914:	df000604 	addi	fp,sp,24
 2001918:	e03ffa15 	stw	zero,-24(fp)
 200191c:	00010b06 	br	2001d4c <displayGamma98ColourBars+0x444>
 2001920:	e03ffb15 	stw	zero,-20(fp)
 2001924:	00010306 	br	2001d34 <displayGamma98ColourBars+0x42c>
 2001928:	00810004 	movi	r2,1024
 200192c:	e0bffe15 	stw	r2,-8(fp)
 2001930:	e0bffa17 	ldw	r2,-24(fp)
 2001934:	1004917a 	slli	r2,r2,5
 2001938:	e0fffe17 	ldw	r3,-8(fp)
 200193c:	1885883a 	add	r2,r3,r2
 2001940:	e0bffe15 	stw	r2,-8(fp)
 2001944:	e0fffe17 	ldw	r3,-8(fp)
 2001948:	e0bffb17 	ldw	r2,-20(fp)
 200194c:	1885883a 	add	r2,r3,r2
 2001950:	e0bffe15 	stw	r2,-8(fp)
 2001954:	e0bffa17 	ldw	r2,-24(fp)
 2001958:	10800208 	cmpgei	r2,r2,8
 200195c:	1000231e 	bne	r2,zero,20019ec <displayGamma98ColourBars+0xe4>
 2001960:	e13ffb17 	ldw	r4,-20(fp)
 2001964:	2006b640 	call	2006b64 <__floatsidf>
 2001968:	100b883a 	mov	r5,r2
 200196c:	180d883a 	mov	r6,r3
 2001970:	2809883a 	mov	r4,r5
 2001974:	300b883a 	mov	r5,r6
 2001978:	000d883a 	mov	r6,zero
 200197c:	01d00ff4 	movhi	r7,16447
 2001980:	20059480 	call	2005948 <__divdf3>
 2001984:	1009883a 	mov	r4,r2
 2001988:	180b883a 	mov	r5,r3
 200198c:	2005883a 	mov	r2,r4
 2001990:	2807883a 	mov	r3,r5
 2001994:	1009883a 	mov	r4,r2
 2001998:	180b883a 	mov	r5,r3
 200199c:	000d883a 	mov	r6,zero
 20019a0:	01d01c34 	movhi	r7,16496
 20019a4:	39f80004 	addi	r7,r7,-8192
 20019a8:	20062e40 	call	20062e4 <__muldf3>
 20019ac:	1009883a 	mov	r4,r2
 20019b0:	180b883a 	mov	r5,r3
 20019b4:	2005883a 	mov	r2,r4
 20019b8:	2807883a 	mov	r3,r5
 20019bc:	1009883a 	mov	r4,r2
 20019c0:	180b883a 	mov	r5,r3
 20019c4:	2006ae40 	call	2006ae4 <__fixdfsi>
 20019c8:	00c080b4 	movhi	r3,514
 20019cc:	18fa6a04 	addi	r3,r3,-5720
 20019d0:	1085883a 	add	r2,r2,r2
 20019d4:	1885883a 	add	r2,r3,r2
 20019d8:	1080000b 	ldhu	r2,0(r2)
 20019dc:	e0bffc0d 	sth	r2,-16(fp)
 20019e0:	e03ffc8d 	sth	zero,-14(fp)
 20019e4:	e03ffd0d 	sth	zero,-12(fp)
 20019e8:	0000b206 	br	2001cb4 <displayGamma98ColourBars+0x3ac>
 20019ec:	e0bffa17 	ldw	r2,-24(fp)
 20019f0:	10800210 	cmplti	r2,r2,8
 20019f4:	1000261e 	bne	r2,zero,2001a90 <displayGamma98ColourBars+0x188>
 20019f8:	e0bffa17 	ldw	r2,-24(fp)
 20019fc:	10800408 	cmpgei	r2,r2,16
 2001a00:	1000231e 	bne	r2,zero,2001a90 <displayGamma98ColourBars+0x188>
 2001a04:	e03ffc0d 	sth	zero,-16(fp)
 2001a08:	e13ffb17 	ldw	r4,-20(fp)
 2001a0c:	2006b640 	call	2006b64 <__floatsidf>
 2001a10:	100b883a 	mov	r5,r2
 2001a14:	180d883a 	mov	r6,r3
 2001a18:	2809883a 	mov	r4,r5
 2001a1c:	300b883a 	mov	r5,r6
 2001a20:	000d883a 	mov	r6,zero
 2001a24:	01d00ff4 	movhi	r7,16447
 2001a28:	20059480 	call	2005948 <__divdf3>
 2001a2c:	1009883a 	mov	r4,r2
 2001a30:	180b883a 	mov	r5,r3
 2001a34:	2005883a 	mov	r2,r4
 2001a38:	2807883a 	mov	r3,r5
 2001a3c:	1009883a 	mov	r4,r2
 2001a40:	180b883a 	mov	r5,r3
 2001a44:	000d883a 	mov	r6,zero
 2001a48:	01d01c34 	movhi	r7,16496
 2001a4c:	39f80004 	addi	r7,r7,-8192
 2001a50:	20062e40 	call	20062e4 <__muldf3>
 2001a54:	1009883a 	mov	r4,r2
 2001a58:	180b883a 	mov	r5,r3
 2001a5c:	2005883a 	mov	r2,r4
 2001a60:	2807883a 	mov	r3,r5
 2001a64:	1009883a 	mov	r4,r2
 2001a68:	180b883a 	mov	r5,r3
 2001a6c:	2006ae40 	call	2006ae4 <__fixdfsi>
 2001a70:	00c080b4 	movhi	r3,514
 2001a74:	18fa6a04 	addi	r3,r3,-5720
 2001a78:	1085883a 	add	r2,r2,r2
 2001a7c:	1885883a 	add	r2,r3,r2
 2001a80:	1080000b 	ldhu	r2,0(r2)
 2001a84:	e0bffc8d 	sth	r2,-14(fp)
 2001a88:	e03ffd0d 	sth	zero,-12(fp)
 2001a8c:	00008906 	br	2001cb4 <displayGamma98ColourBars+0x3ac>
 2001a90:	e0bffa17 	ldw	r2,-24(fp)
 2001a94:	10800410 	cmplti	r2,r2,16
 2001a98:	1000261e 	bne	r2,zero,2001b34 <displayGamma98ColourBars+0x22c>
 2001a9c:	e0bffa17 	ldw	r2,-24(fp)
 2001aa0:	10800608 	cmpgei	r2,r2,24
 2001aa4:	1000231e 	bne	r2,zero,2001b34 <displayGamma98ColourBars+0x22c>
 2001aa8:	e03ffc0d 	sth	zero,-16(fp)
 2001aac:	e03ffc8d 	sth	zero,-14(fp)
 2001ab0:	e13ffb17 	ldw	r4,-20(fp)
 2001ab4:	2006b640 	call	2006b64 <__floatsidf>
 2001ab8:	100b883a 	mov	r5,r2
 2001abc:	180d883a 	mov	r6,r3
 2001ac0:	2809883a 	mov	r4,r5
 2001ac4:	300b883a 	mov	r5,r6
 2001ac8:	000d883a 	mov	r6,zero
 2001acc:	01d00ff4 	movhi	r7,16447
 2001ad0:	20059480 	call	2005948 <__divdf3>
 2001ad4:	1009883a 	mov	r4,r2
 2001ad8:	180b883a 	mov	r5,r3
 2001adc:	2005883a 	mov	r2,r4
 2001ae0:	2807883a 	mov	r3,r5
 2001ae4:	1009883a 	mov	r4,r2
 2001ae8:	180b883a 	mov	r5,r3
 2001aec:	000d883a 	mov	r6,zero
 2001af0:	01d01c34 	movhi	r7,16496
 2001af4:	39f80004 	addi	r7,r7,-8192
 2001af8:	20062e40 	call	20062e4 <__muldf3>
 2001afc:	1009883a 	mov	r4,r2
 2001b00:	180b883a 	mov	r5,r3
 2001b04:	2005883a 	mov	r2,r4
 2001b08:	2807883a 	mov	r3,r5
 2001b0c:	1009883a 	mov	r4,r2
 2001b10:	180b883a 	mov	r5,r3
 2001b14:	2006ae40 	call	2006ae4 <__fixdfsi>
 2001b18:	00c080b4 	movhi	r3,514
 2001b1c:	18fa6a04 	addi	r3,r3,-5720
 2001b20:	1085883a 	add	r2,r2,r2
 2001b24:	1885883a 	add	r2,r3,r2
 2001b28:	1080000b 	ldhu	r2,0(r2)
 2001b2c:	e0bffd0d 	sth	r2,-12(fp)
 2001b30:	00006006 	br	2001cb4 <displayGamma98ColourBars+0x3ac>
 2001b34:	e13ffb17 	ldw	r4,-20(fp)
 2001b38:	2006b640 	call	2006b64 <__floatsidf>
 2001b3c:	100b883a 	mov	r5,r2
 2001b40:	180d883a 	mov	r6,r3
 2001b44:	2809883a 	mov	r4,r5
 2001b48:	300b883a 	mov	r5,r6
 2001b4c:	000d883a 	mov	r6,zero
 2001b50:	01d00ff4 	movhi	r7,16447
 2001b54:	20059480 	call	2005948 <__divdf3>
 2001b58:	1009883a 	mov	r4,r2
 2001b5c:	180b883a 	mov	r5,r3
 2001b60:	2005883a 	mov	r2,r4
 2001b64:	2807883a 	mov	r3,r5
 2001b68:	1009883a 	mov	r4,r2
 2001b6c:	180b883a 	mov	r5,r3
 2001b70:	000d883a 	mov	r6,zero
 2001b74:	01d01c34 	movhi	r7,16496
 2001b78:	39f80004 	addi	r7,r7,-8192
 2001b7c:	20062e40 	call	20062e4 <__muldf3>
 2001b80:	1009883a 	mov	r4,r2
 2001b84:	180b883a 	mov	r5,r3
 2001b88:	2005883a 	mov	r2,r4
 2001b8c:	2807883a 	mov	r3,r5
 2001b90:	1009883a 	mov	r4,r2
 2001b94:	180b883a 	mov	r5,r3
 2001b98:	2006ae40 	call	2006ae4 <__fixdfsi>
 2001b9c:	00c080b4 	movhi	r3,514
 2001ba0:	18fa6a04 	addi	r3,r3,-5720
 2001ba4:	1085883a 	add	r2,r2,r2
 2001ba8:	1885883a 	add	r2,r3,r2
 2001bac:	1080000b 	ldhu	r2,0(r2)
 2001bb0:	e0bffc0d 	sth	r2,-16(fp)
 2001bb4:	e13ffb17 	ldw	r4,-20(fp)
 2001bb8:	2006b640 	call	2006b64 <__floatsidf>
 2001bbc:	100b883a 	mov	r5,r2
 2001bc0:	180d883a 	mov	r6,r3
 2001bc4:	2809883a 	mov	r4,r5
 2001bc8:	300b883a 	mov	r5,r6
 2001bcc:	000d883a 	mov	r6,zero
 2001bd0:	01d00ff4 	movhi	r7,16447
 2001bd4:	20059480 	call	2005948 <__divdf3>
 2001bd8:	1009883a 	mov	r4,r2
 2001bdc:	180b883a 	mov	r5,r3
 2001be0:	2005883a 	mov	r2,r4
 2001be4:	2807883a 	mov	r3,r5
 2001be8:	1009883a 	mov	r4,r2
 2001bec:	180b883a 	mov	r5,r3
 2001bf0:	000d883a 	mov	r6,zero
 2001bf4:	01d01c34 	movhi	r7,16496
 2001bf8:	39f80004 	addi	r7,r7,-8192
 2001bfc:	20062e40 	call	20062e4 <__muldf3>
 2001c00:	1009883a 	mov	r4,r2
 2001c04:	180b883a 	mov	r5,r3
 2001c08:	2005883a 	mov	r2,r4
 2001c0c:	2807883a 	mov	r3,r5
 2001c10:	1009883a 	mov	r4,r2
 2001c14:	180b883a 	mov	r5,r3
 2001c18:	2006ae40 	call	2006ae4 <__fixdfsi>
 2001c1c:	00c080b4 	movhi	r3,514
 2001c20:	18fa6a04 	addi	r3,r3,-5720
 2001c24:	1085883a 	add	r2,r2,r2
 2001c28:	1885883a 	add	r2,r3,r2
 2001c2c:	1080000b 	ldhu	r2,0(r2)
 2001c30:	e0bffc8d 	sth	r2,-14(fp)
 2001c34:	e13ffb17 	ldw	r4,-20(fp)
 2001c38:	2006b640 	call	2006b64 <__floatsidf>
 2001c3c:	100b883a 	mov	r5,r2
 2001c40:	180d883a 	mov	r6,r3
 2001c44:	2809883a 	mov	r4,r5
 2001c48:	300b883a 	mov	r5,r6
 2001c4c:	000d883a 	mov	r6,zero
 2001c50:	01d00ff4 	movhi	r7,16447
 2001c54:	20059480 	call	2005948 <__divdf3>
 2001c58:	1009883a 	mov	r4,r2
 2001c5c:	180b883a 	mov	r5,r3
 2001c60:	2005883a 	mov	r2,r4
 2001c64:	2807883a 	mov	r3,r5
 2001c68:	1009883a 	mov	r4,r2
 2001c6c:	180b883a 	mov	r5,r3
 2001c70:	000d883a 	mov	r6,zero
 2001c74:	01d01c34 	movhi	r7,16496
 2001c78:	39f80004 	addi	r7,r7,-8192
 2001c7c:	20062e40 	call	20062e4 <__muldf3>
 2001c80:	1009883a 	mov	r4,r2
 2001c84:	180b883a 	mov	r5,r3
 2001c88:	2005883a 	mov	r2,r4
 2001c8c:	2807883a 	mov	r3,r5
 2001c90:	1009883a 	mov	r4,r2
 2001c94:	180b883a 	mov	r5,r3
 2001c98:	2006ae40 	call	2006ae4 <__fixdfsi>
 2001c9c:	00c080b4 	movhi	r3,514
 2001ca0:	18fa6a04 	addi	r3,r3,-5720
 2001ca4:	1085883a 	add	r2,r2,r2
 2001ca8:	1885883a 	add	r2,r3,r2
 2001cac:	1080000b 	ldhu	r2,0(r2)
 2001cb0:	e0bffd0d 	sth	r2,-12(fp)
 2001cb4:	e0bffc0b 	ldhu	r2,-16(fp)
 2001cb8:	1004953a 	slli	r2,r2,20
 2001cbc:	10cffc2c 	andhi	r3,r2,16368
 2001cc0:	e0bffc8b 	ldhu	r2,-14(fp)
 2001cc4:	100892ba 	slli	r4,r2,10
 2001cc8:	00800434 	movhi	r2,16
 2001ccc:	10bf0004 	addi	r2,r2,-1024
 2001cd0:	2084703a 	and	r2,r4,r2
 2001cd4:	1886b03a 	or	r3,r3,r2
 2001cd8:	e0bffd0b 	ldhu	r2,-12(fp)
 2001cdc:	1080ffcc 	andi	r2,r2,1023
 2001ce0:	1884b03a 	or	r2,r3,r2
 2001ce4:	e0bfff15 	stw	r2,-4(fp)
 2001ce8:	00810074 	movhi	r2,1025
 2001cec:	10a82004 	addi	r2,r2,-24448
 2001cf0:	e0fffe17 	ldw	r3,-8(fp)
 2001cf4:	10c00035 	stwio	r3,0(r2)
 2001cf8:	e0ffff17 	ldw	r3,-4(fp)
 2001cfc:	00810074 	movhi	r2,1025
 2001d00:	10a81c04 	addi	r2,r2,-24464
 2001d04:	10c00035 	stwio	r3,0(r2)
 2001d08:	00c00044 	movi	r3,1
 2001d0c:	00810074 	movhi	r2,1025
 2001d10:	10a81804 	addi	r2,r2,-24480
 2001d14:	10c00035 	stwio	r3,0(r2)
 2001d18:	0007883a 	mov	r3,zero
 2001d1c:	00810074 	movhi	r2,1025
 2001d20:	10a81804 	addi	r2,r2,-24480
 2001d24:	10c00035 	stwio	r3,0(r2)
 2001d28:	e0bffb17 	ldw	r2,-20(fp)
 2001d2c:	10800044 	addi	r2,r2,1
 2001d30:	e0bffb15 	stw	r2,-20(fp)
 2001d34:	e0bffb17 	ldw	r2,-20(fp)
 2001d38:	10800810 	cmplti	r2,r2,32
 2001d3c:	103efa1e 	bne	r2,zero,2001928 <__reset+0xfdff8928>
 2001d40:	e0bffa17 	ldw	r2,-24(fp)
 2001d44:	10800044 	addi	r2,r2,1
 2001d48:	e0bffa15 	stw	r2,-24(fp)
 2001d4c:	e0bffa17 	ldw	r2,-24(fp)
 2001d50:	10800810 	cmplti	r2,r2,32
 2001d54:	103ef21e 	bne	r2,zero,2001920 <__reset+0xfdff8920>
 2001d58:	e037883a 	mov	sp,fp
 2001d5c:	dfc00117 	ldw	ra,4(sp)
 2001d60:	df000017 	ldw	fp,0(sp)
 2001d64:	dec00204 	addi	sp,sp,8
 2001d68:	f800283a 	ret

02001d6c <displayGamma46ColourBars>:
 2001d6c:	defff804 	addi	sp,sp,-32
 2001d70:	dfc00715 	stw	ra,28(sp)
 2001d74:	df000615 	stw	fp,24(sp)
 2001d78:	df000604 	addi	fp,sp,24
 2001d7c:	e03ffa15 	stw	zero,-24(fp)
 2001d80:	00010b06 	br	20021b0 <displayGamma46ColourBars+0x444>
 2001d84:	e03ffb15 	stw	zero,-20(fp)
 2001d88:	00010306 	br	2002198 <displayGamma46ColourBars+0x42c>
 2001d8c:	00810004 	movi	r2,1024
 2001d90:	e0bffe15 	stw	r2,-8(fp)
 2001d94:	e0bffa17 	ldw	r2,-24(fp)
 2001d98:	1004917a 	slli	r2,r2,5
 2001d9c:	e0fffe17 	ldw	r3,-8(fp)
 2001da0:	1885883a 	add	r2,r3,r2
 2001da4:	e0bffe15 	stw	r2,-8(fp)
 2001da8:	e0fffe17 	ldw	r3,-8(fp)
 2001dac:	e0bffb17 	ldw	r2,-20(fp)
 2001db0:	1885883a 	add	r2,r3,r2
 2001db4:	e0bffe15 	stw	r2,-8(fp)
 2001db8:	e0bffa17 	ldw	r2,-24(fp)
 2001dbc:	10800208 	cmpgei	r2,r2,8
 2001dc0:	1000231e 	bne	r2,zero,2001e50 <displayGamma46ColourBars+0xe4>
 2001dc4:	e13ffb17 	ldw	r4,-20(fp)
 2001dc8:	2006b640 	call	2006b64 <__floatsidf>
 2001dcc:	100b883a 	mov	r5,r2
 2001dd0:	180d883a 	mov	r6,r3
 2001dd4:	2809883a 	mov	r4,r5
 2001dd8:	300b883a 	mov	r5,r6
 2001ddc:	000d883a 	mov	r6,zero
 2001de0:	01d00ff4 	movhi	r7,16447
 2001de4:	20059480 	call	2005948 <__divdf3>
 2001de8:	1009883a 	mov	r4,r2
 2001dec:	180b883a 	mov	r5,r3
 2001df0:	2005883a 	mov	r2,r4
 2001df4:	2807883a 	mov	r3,r5
 2001df8:	1009883a 	mov	r4,r2
 2001dfc:	180b883a 	mov	r5,r3
 2001e00:	000d883a 	mov	r6,zero
 2001e04:	01d01c34 	movhi	r7,16496
 2001e08:	39f80004 	addi	r7,r7,-8192
 2001e0c:	20062e40 	call	20062e4 <__muldf3>
 2001e10:	1009883a 	mov	r4,r2
 2001e14:	180b883a 	mov	r5,r3
 2001e18:	2005883a 	mov	r2,r4
 2001e1c:	2807883a 	mov	r3,r5
 2001e20:	1009883a 	mov	r4,r2
 2001e24:	180b883a 	mov	r5,r3
 2001e28:	2006ae40 	call	2006ae4 <__fixdfsi>
 2001e2c:	00c080b4 	movhi	r3,514
 2001e30:	18faea04 	addi	r3,r3,-5208
 2001e34:	1085883a 	add	r2,r2,r2
 2001e38:	1885883a 	add	r2,r3,r2
 2001e3c:	1080000b 	ldhu	r2,0(r2)
 2001e40:	e0bffc0d 	sth	r2,-16(fp)
 2001e44:	e03ffc8d 	sth	zero,-14(fp)
 2001e48:	e03ffd0d 	sth	zero,-12(fp)
 2001e4c:	0000b206 	br	2002118 <displayGamma46ColourBars+0x3ac>
 2001e50:	e0bffa17 	ldw	r2,-24(fp)
 2001e54:	10800210 	cmplti	r2,r2,8
 2001e58:	1000261e 	bne	r2,zero,2001ef4 <displayGamma46ColourBars+0x188>
 2001e5c:	e0bffa17 	ldw	r2,-24(fp)
 2001e60:	10800408 	cmpgei	r2,r2,16
 2001e64:	1000231e 	bne	r2,zero,2001ef4 <displayGamma46ColourBars+0x188>
 2001e68:	e03ffc0d 	sth	zero,-16(fp)
 2001e6c:	e13ffb17 	ldw	r4,-20(fp)
 2001e70:	2006b640 	call	2006b64 <__floatsidf>
 2001e74:	100b883a 	mov	r5,r2
 2001e78:	180d883a 	mov	r6,r3
 2001e7c:	2809883a 	mov	r4,r5
 2001e80:	300b883a 	mov	r5,r6
 2001e84:	000d883a 	mov	r6,zero
 2001e88:	01d00ff4 	movhi	r7,16447
 2001e8c:	20059480 	call	2005948 <__divdf3>
 2001e90:	1009883a 	mov	r4,r2
 2001e94:	180b883a 	mov	r5,r3
 2001e98:	2005883a 	mov	r2,r4
 2001e9c:	2807883a 	mov	r3,r5
 2001ea0:	1009883a 	mov	r4,r2
 2001ea4:	180b883a 	mov	r5,r3
 2001ea8:	000d883a 	mov	r6,zero
 2001eac:	01d01c34 	movhi	r7,16496
 2001eb0:	39f80004 	addi	r7,r7,-8192
 2001eb4:	20062e40 	call	20062e4 <__muldf3>
 2001eb8:	1009883a 	mov	r4,r2
 2001ebc:	180b883a 	mov	r5,r3
 2001ec0:	2005883a 	mov	r2,r4
 2001ec4:	2807883a 	mov	r3,r5
 2001ec8:	1009883a 	mov	r4,r2
 2001ecc:	180b883a 	mov	r5,r3
 2001ed0:	2006ae40 	call	2006ae4 <__fixdfsi>
 2001ed4:	00c080b4 	movhi	r3,514
 2001ed8:	18faea04 	addi	r3,r3,-5208
 2001edc:	1085883a 	add	r2,r2,r2
 2001ee0:	1885883a 	add	r2,r3,r2
 2001ee4:	1080000b 	ldhu	r2,0(r2)
 2001ee8:	e0bffc8d 	sth	r2,-14(fp)
 2001eec:	e03ffd0d 	sth	zero,-12(fp)
 2001ef0:	00008906 	br	2002118 <displayGamma46ColourBars+0x3ac>
 2001ef4:	e0bffa17 	ldw	r2,-24(fp)
 2001ef8:	10800410 	cmplti	r2,r2,16
 2001efc:	1000261e 	bne	r2,zero,2001f98 <displayGamma46ColourBars+0x22c>
 2001f00:	e0bffa17 	ldw	r2,-24(fp)
 2001f04:	10800608 	cmpgei	r2,r2,24
 2001f08:	1000231e 	bne	r2,zero,2001f98 <displayGamma46ColourBars+0x22c>
 2001f0c:	e03ffc0d 	sth	zero,-16(fp)
 2001f10:	e03ffc8d 	sth	zero,-14(fp)
 2001f14:	e13ffb17 	ldw	r4,-20(fp)
 2001f18:	2006b640 	call	2006b64 <__floatsidf>
 2001f1c:	100b883a 	mov	r5,r2
 2001f20:	180d883a 	mov	r6,r3
 2001f24:	2809883a 	mov	r4,r5
 2001f28:	300b883a 	mov	r5,r6
 2001f2c:	000d883a 	mov	r6,zero
 2001f30:	01d00ff4 	movhi	r7,16447
 2001f34:	20059480 	call	2005948 <__divdf3>
 2001f38:	1009883a 	mov	r4,r2
 2001f3c:	180b883a 	mov	r5,r3
 2001f40:	2005883a 	mov	r2,r4
 2001f44:	2807883a 	mov	r3,r5
 2001f48:	1009883a 	mov	r4,r2
 2001f4c:	180b883a 	mov	r5,r3
 2001f50:	000d883a 	mov	r6,zero
 2001f54:	01d01c34 	movhi	r7,16496
 2001f58:	39f80004 	addi	r7,r7,-8192
 2001f5c:	20062e40 	call	20062e4 <__muldf3>
 2001f60:	1009883a 	mov	r4,r2
 2001f64:	180b883a 	mov	r5,r3
 2001f68:	2005883a 	mov	r2,r4
 2001f6c:	2807883a 	mov	r3,r5
 2001f70:	1009883a 	mov	r4,r2
 2001f74:	180b883a 	mov	r5,r3
 2001f78:	2006ae40 	call	2006ae4 <__fixdfsi>
 2001f7c:	00c080b4 	movhi	r3,514
 2001f80:	18faea04 	addi	r3,r3,-5208
 2001f84:	1085883a 	add	r2,r2,r2
 2001f88:	1885883a 	add	r2,r3,r2
 2001f8c:	1080000b 	ldhu	r2,0(r2)
 2001f90:	e0bffd0d 	sth	r2,-12(fp)
 2001f94:	00006006 	br	2002118 <displayGamma46ColourBars+0x3ac>
 2001f98:	e13ffb17 	ldw	r4,-20(fp)
 2001f9c:	2006b640 	call	2006b64 <__floatsidf>
 2001fa0:	100b883a 	mov	r5,r2
 2001fa4:	180d883a 	mov	r6,r3
 2001fa8:	2809883a 	mov	r4,r5
 2001fac:	300b883a 	mov	r5,r6
 2001fb0:	000d883a 	mov	r6,zero
 2001fb4:	01d00ff4 	movhi	r7,16447
 2001fb8:	20059480 	call	2005948 <__divdf3>
 2001fbc:	1009883a 	mov	r4,r2
 2001fc0:	180b883a 	mov	r5,r3
 2001fc4:	2005883a 	mov	r2,r4
 2001fc8:	2807883a 	mov	r3,r5
 2001fcc:	1009883a 	mov	r4,r2
 2001fd0:	180b883a 	mov	r5,r3
 2001fd4:	000d883a 	mov	r6,zero
 2001fd8:	01d01c34 	movhi	r7,16496
 2001fdc:	39f80004 	addi	r7,r7,-8192
 2001fe0:	20062e40 	call	20062e4 <__muldf3>
 2001fe4:	1009883a 	mov	r4,r2
 2001fe8:	180b883a 	mov	r5,r3
 2001fec:	2005883a 	mov	r2,r4
 2001ff0:	2807883a 	mov	r3,r5
 2001ff4:	1009883a 	mov	r4,r2
 2001ff8:	180b883a 	mov	r5,r3
 2001ffc:	2006ae40 	call	2006ae4 <__fixdfsi>
 2002000:	00c080b4 	movhi	r3,514
 2002004:	18faea04 	addi	r3,r3,-5208
 2002008:	1085883a 	add	r2,r2,r2
 200200c:	1885883a 	add	r2,r3,r2
 2002010:	1080000b 	ldhu	r2,0(r2)
 2002014:	e0bffc0d 	sth	r2,-16(fp)
 2002018:	e13ffb17 	ldw	r4,-20(fp)
 200201c:	2006b640 	call	2006b64 <__floatsidf>
 2002020:	100b883a 	mov	r5,r2
 2002024:	180d883a 	mov	r6,r3
 2002028:	2809883a 	mov	r4,r5
 200202c:	300b883a 	mov	r5,r6
 2002030:	000d883a 	mov	r6,zero
 2002034:	01d00ff4 	movhi	r7,16447
 2002038:	20059480 	call	2005948 <__divdf3>
 200203c:	1009883a 	mov	r4,r2
 2002040:	180b883a 	mov	r5,r3
 2002044:	2005883a 	mov	r2,r4
 2002048:	2807883a 	mov	r3,r5
 200204c:	1009883a 	mov	r4,r2
 2002050:	180b883a 	mov	r5,r3
 2002054:	000d883a 	mov	r6,zero
 2002058:	01d01c34 	movhi	r7,16496
 200205c:	39f80004 	addi	r7,r7,-8192
 2002060:	20062e40 	call	20062e4 <__muldf3>
 2002064:	1009883a 	mov	r4,r2
 2002068:	180b883a 	mov	r5,r3
 200206c:	2005883a 	mov	r2,r4
 2002070:	2807883a 	mov	r3,r5
 2002074:	1009883a 	mov	r4,r2
 2002078:	180b883a 	mov	r5,r3
 200207c:	2006ae40 	call	2006ae4 <__fixdfsi>
 2002080:	00c080b4 	movhi	r3,514
 2002084:	18faea04 	addi	r3,r3,-5208
 2002088:	1085883a 	add	r2,r2,r2
 200208c:	1885883a 	add	r2,r3,r2
 2002090:	1080000b 	ldhu	r2,0(r2)
 2002094:	e0bffc8d 	sth	r2,-14(fp)
 2002098:	e13ffb17 	ldw	r4,-20(fp)
 200209c:	2006b640 	call	2006b64 <__floatsidf>
 20020a0:	100b883a 	mov	r5,r2
 20020a4:	180d883a 	mov	r6,r3
 20020a8:	2809883a 	mov	r4,r5
 20020ac:	300b883a 	mov	r5,r6
 20020b0:	000d883a 	mov	r6,zero
 20020b4:	01d00ff4 	movhi	r7,16447
 20020b8:	20059480 	call	2005948 <__divdf3>
 20020bc:	1009883a 	mov	r4,r2
 20020c0:	180b883a 	mov	r5,r3
 20020c4:	2005883a 	mov	r2,r4
 20020c8:	2807883a 	mov	r3,r5
 20020cc:	1009883a 	mov	r4,r2
 20020d0:	180b883a 	mov	r5,r3
 20020d4:	000d883a 	mov	r6,zero
 20020d8:	01d01c34 	movhi	r7,16496
 20020dc:	39f80004 	addi	r7,r7,-8192
 20020e0:	20062e40 	call	20062e4 <__muldf3>
 20020e4:	1009883a 	mov	r4,r2
 20020e8:	180b883a 	mov	r5,r3
 20020ec:	2005883a 	mov	r2,r4
 20020f0:	2807883a 	mov	r3,r5
 20020f4:	1009883a 	mov	r4,r2
 20020f8:	180b883a 	mov	r5,r3
 20020fc:	2006ae40 	call	2006ae4 <__fixdfsi>
 2002100:	00c080b4 	movhi	r3,514
 2002104:	18faea04 	addi	r3,r3,-5208
 2002108:	1085883a 	add	r2,r2,r2
 200210c:	1885883a 	add	r2,r3,r2
 2002110:	1080000b 	ldhu	r2,0(r2)
 2002114:	e0bffd0d 	sth	r2,-12(fp)
 2002118:	e0bffc0b 	ldhu	r2,-16(fp)
 200211c:	1004953a 	slli	r2,r2,20
 2002120:	10cffc2c 	andhi	r3,r2,16368
 2002124:	e0bffc8b 	ldhu	r2,-14(fp)
 2002128:	100892ba 	slli	r4,r2,10
 200212c:	00800434 	movhi	r2,16
 2002130:	10bf0004 	addi	r2,r2,-1024
 2002134:	2084703a 	and	r2,r4,r2
 2002138:	1886b03a 	or	r3,r3,r2
 200213c:	e0bffd0b 	ldhu	r2,-12(fp)
 2002140:	1080ffcc 	andi	r2,r2,1023
 2002144:	1884b03a 	or	r2,r3,r2
 2002148:	e0bfff15 	stw	r2,-4(fp)
 200214c:	00810074 	movhi	r2,1025
 2002150:	10a82004 	addi	r2,r2,-24448
 2002154:	e0fffe17 	ldw	r3,-8(fp)
 2002158:	10c00035 	stwio	r3,0(r2)
 200215c:	e0ffff17 	ldw	r3,-4(fp)
 2002160:	00810074 	movhi	r2,1025
 2002164:	10a81c04 	addi	r2,r2,-24464
 2002168:	10c00035 	stwio	r3,0(r2)
 200216c:	00c00044 	movi	r3,1
 2002170:	00810074 	movhi	r2,1025
 2002174:	10a81804 	addi	r2,r2,-24480
 2002178:	10c00035 	stwio	r3,0(r2)
 200217c:	0007883a 	mov	r3,zero
 2002180:	00810074 	movhi	r2,1025
 2002184:	10a81804 	addi	r2,r2,-24480
 2002188:	10c00035 	stwio	r3,0(r2)
 200218c:	e0bffb17 	ldw	r2,-20(fp)
 2002190:	10800044 	addi	r2,r2,1
 2002194:	e0bffb15 	stw	r2,-20(fp)
 2002198:	e0bffb17 	ldw	r2,-20(fp)
 200219c:	10800810 	cmplti	r2,r2,32
 20021a0:	103efa1e 	bne	r2,zero,2001d8c <__reset+0xfdff8d8c>
 20021a4:	e0bffa17 	ldw	r2,-24(fp)
 20021a8:	10800044 	addi	r2,r2,1
 20021ac:	e0bffa15 	stw	r2,-24(fp)
 20021b0:	e0bffa17 	ldw	r2,-24(fp)
 20021b4:	10800810 	cmplti	r2,r2,32
 20021b8:	103ef21e 	bne	r2,zero,2001d84 <__reset+0xfdff8d84>
 20021bc:	e037883a 	mov	sp,fp
 20021c0:	dfc00117 	ldw	ra,4(sp)
 20021c4:	df000017 	ldw	fp,0(sp)
 20021c8:	dec00204 	addi	sp,sp,8
 20021cc:	f800283a 	ret

020021d0 <DGifOpenFileName>:
 20021d0:	defffa04 	addi	sp,sp,-24
 20021d4:	dfc00515 	stw	ra,20(sp)
 20021d8:	df000415 	stw	fp,16(sp)
 20021dc:	df000404 	addi	fp,sp,16
 20021e0:	e13ffe15 	stw	r4,-8(fp)
 20021e4:	e17fff15 	stw	r5,-4(fp)
 20021e8:	e13ffe17 	ldw	r4,-8(fp)
 20021ec:	000b883a 	mov	r5,zero
 20021f0:	2012f740 	call	2012f74 <open>
 20021f4:	e0bffc15 	stw	r2,-16(fp)
 20021f8:	e0bffc17 	ldw	r2,-16(fp)
 20021fc:	10bfffd8 	cmpnei	r2,r2,-1
 2002200:	1000071e 	bne	r2,zero,2002220 <DGifOpenFileName+0x50>
 2002204:	e0bfff17 	ldw	r2,-4(fp)
 2002208:	10000326 	beq	r2,zero,2002218 <DGifOpenFileName+0x48>
 200220c:	e0bfff17 	ldw	r2,-4(fp)
 2002210:	00c01944 	movi	r3,101
 2002214:	10c00015 	stw	r3,0(r2)
 2002218:	0005883a 	mov	r2,zero
 200221c:	00000506 	br	2002234 <DGifOpenFileName+0x64>
 2002220:	e13ffc17 	ldw	r4,-16(fp)
 2002224:	e17fff17 	ldw	r5,-4(fp)
 2002228:	20022480 	call	2002248 <DGifOpenFileHandle>
 200222c:	e0bffd15 	stw	r2,-12(fp)
 2002230:	e0bffd17 	ldw	r2,-12(fp)
 2002234:	e037883a 	mov	sp,fp
 2002238:	dfc00117 	ldw	ra,4(sp)
 200223c:	df000017 	ldw	fp,0(sp)
 2002240:	dec00204 	addi	sp,sp,8
 2002244:	f800283a 	ret

02002248 <DGifOpenFileHandle>:
 2002248:	defff704 	addi	sp,sp,-36
 200224c:	dfc00815 	stw	ra,32(sp)
 2002250:	df000715 	stw	fp,28(sp)
 2002254:	df000704 	addi	fp,sp,28
 2002258:	e13ffe15 	stw	r4,-8(fp)
 200225c:	e17fff15 	stw	r5,-4(fp)
 2002260:	01001304 	movi	r4,76
 2002264:	2007e9c0 	call	2007e9c <malloc>
 2002268:	e0bff915 	stw	r2,-28(fp)
 200226c:	e0bff917 	ldw	r2,-28(fp)
 2002270:	1000091e 	bne	r2,zero,2002298 <DGifOpenFileHandle+0x50>
 2002274:	e0bfff17 	ldw	r2,-4(fp)
 2002278:	10000326 	beq	r2,zero,2002288 <DGifOpenFileHandle+0x40>
 200227c:	e0bfff17 	ldw	r2,-4(fp)
 2002280:	00c01b44 	movi	r3,109
 2002284:	10c00015 	stw	r3,0(r2)
 2002288:	e13ffe17 	ldw	r4,-8(fp)
 200228c:	20129580 	call	2012958 <close>
 2002290:	0005883a 	mov	r2,zero
 2002294:	00007f06 	br	2002494 <DGifOpenFileHandle+0x24c>
 2002298:	e13ff917 	ldw	r4,-28(fp)
 200229c:	000b883a 	mov	r5,zero
 20022a0:	01801304 	movi	r6,76
 20022a4:	20088100 	call	2008810 <memset>
 20022a8:	e0bff917 	ldw	r2,-28(fp)
 20022ac:	10000d15 	stw	zero,52(r2)
 20022b0:	e0bff917 	ldw	r2,-28(fp)
 20022b4:	10000515 	stw	zero,20(r2)
 20022b8:	01185304 	movi	r4,24908
 20022bc:	2007e9c0 	call	2007e9c <malloc>
 20022c0:	e0bffa15 	stw	r2,-24(fp)
 20022c4:	e0bffa17 	ldw	r2,-24(fp)
 20022c8:	10000b1e 	bne	r2,zero,20022f8 <DGifOpenFileHandle+0xb0>
 20022cc:	e0bfff17 	ldw	r2,-4(fp)
 20022d0:	10000326 	beq	r2,zero,20022e0 <DGifOpenFileHandle+0x98>
 20022d4:	e0bfff17 	ldw	r2,-4(fp)
 20022d8:	00c01b44 	movi	r3,109
 20022dc:	10c00015 	stw	r3,0(r2)
 20022e0:	e13ffe17 	ldw	r4,-8(fp)
 20022e4:	20129580 	call	2012958 <close>
 20022e8:	e13ff917 	ldw	r4,-28(fp)
 20022ec:	2007eb00 	call	2007eb0 <free>
 20022f0:	0005883a 	mov	r2,zero
 20022f4:	00006706 	br	2002494 <DGifOpenFileHandle+0x24c>
 20022f8:	e13ffe17 	ldw	r4,-8(fp)
 20022fc:	014080b4 	movhi	r5,514
 2002300:	297b6a04 	addi	r5,r5,-4696
 2002304:	2006fd40 	call	2006fd4 <fdopen>
 2002308:	e0bffb15 	stw	r2,-20(fp)
 200230c:	e0bff917 	ldw	r2,-28(fp)
 2002310:	e0fffa17 	ldw	r3,-24(fp)
 2002314:	10c01215 	stw	r3,72(r2)
 2002318:	e0bffa17 	ldw	r2,-24(fp)
 200231c:	e0fffe17 	ldw	r3,-8(fp)
 2002320:	10c00115 	stw	r3,4(r2)
 2002324:	e0bffa17 	ldw	r2,-24(fp)
 2002328:	e0fffb17 	ldw	r3,-20(fp)
 200232c:	10c00e15 	stw	r3,56(r2)
 2002330:	e0bffa17 	ldw	r2,-24(fp)
 2002334:	00c00204 	movi	r3,8
 2002338:	10c00015 	stw	r3,0(r2)
 200233c:	e0bffa17 	ldw	r2,-24(fp)
 2002340:	10000f15 	stw	zero,60(r2)
 2002344:	e0bff917 	ldw	r2,-28(fp)
 2002348:	10001115 	stw	zero,68(r2)
 200234c:	e0bff917 	ldw	r2,-28(fp)
 2002350:	10801217 	ldw	r2,72(r2)
 2002354:	10800f17 	ldw	r2,60(r2)
 2002358:	10000a26 	beq	r2,zero,2002384 <DGifOpenFileHandle+0x13c>
 200235c:	e0bff917 	ldw	r2,-28(fp)
 2002360:	10801217 	ldw	r2,72(r2)
 2002364:	10800f17 	ldw	r2,60(r2)
 2002368:	e0fffc04 	addi	r3,fp,-16
 200236c:	e13ff917 	ldw	r4,-28(fp)
 2002370:	180b883a 	mov	r5,r3
 2002374:	01800184 	movi	r6,6
 2002378:	103ee83a 	callr	r2
 200237c:	10800198 	cmpnei	r2,r2,6
 2002380:	00000a06 	br	20023ac <DGifOpenFileHandle+0x164>
 2002384:	e0bff917 	ldw	r2,-28(fp)
 2002388:	10801217 	ldw	r2,72(r2)
 200238c:	10800e17 	ldw	r2,56(r2)
 2002390:	e0fffc04 	addi	r3,fp,-16
 2002394:	1809883a 	mov	r4,r3
 2002398:	01400044 	movi	r5,1
 200239c:	01800184 	movi	r6,6
 20023a0:	100f883a 	mov	r7,r2
 20023a4:	20078f00 	call	20078f0 <fread>
 20023a8:	10800198 	cmpnei	r2,r2,6
 20023ac:	10803fcc 	andi	r2,r2,255
 20023b0:	10000d26 	beq	r2,zero,20023e8 <DGifOpenFileHandle+0x1a0>
 20023b4:	e0bfff17 	ldw	r2,-4(fp)
 20023b8:	10000326 	beq	r2,zero,20023c8 <DGifOpenFileHandle+0x180>
 20023bc:	e0bfff17 	ldw	r2,-4(fp)
 20023c0:	00c01984 	movi	r3,102
 20023c4:	10c00015 	stw	r3,0(r2)
 20023c8:	e13ffb17 	ldw	r4,-20(fp)
 20023cc:	2006f0c0 	call	2006f0c <fclose>
 20023d0:	e13ffa17 	ldw	r4,-24(fp)
 20023d4:	2007eb00 	call	2007eb0 <free>
 20023d8:	e13ff917 	ldw	r4,-28(fp)
 20023dc:	2007eb00 	call	2007eb0 <free>
 20023e0:	0005883a 	mov	r2,zero
 20023e4:	00002b06 	br	2002494 <DGifOpenFileHandle+0x24c>
 20023e8:	e03ffd85 	stb	zero,-10(fp)
 20023ec:	e0bffc04 	addi	r2,fp,-16
 20023f0:	010080b4 	movhi	r4,514
 20023f4:	213b6b04 	addi	r4,r4,-4692
 20023f8:	100b883a 	mov	r5,r2
 20023fc:	018000c4 	movi	r6,3
 2002400:	20092a00 	call	20092a0 <strncmp>
 2002404:	10000d26 	beq	r2,zero,200243c <DGifOpenFileHandle+0x1f4>
 2002408:	e0bfff17 	ldw	r2,-4(fp)
 200240c:	10000326 	beq	r2,zero,200241c <DGifOpenFileHandle+0x1d4>
 2002410:	e0bfff17 	ldw	r2,-4(fp)
 2002414:	00c019c4 	movi	r3,103
 2002418:	10c00015 	stw	r3,0(r2)
 200241c:	e13ffb17 	ldw	r4,-20(fp)
 2002420:	2006f0c0 	call	2006f0c <fclose>
 2002424:	e13ffa17 	ldw	r4,-24(fp)
 2002428:	2007eb00 	call	2007eb0 <free>
 200242c:	e13ff917 	ldw	r4,-28(fp)
 2002430:	2007eb00 	call	2007eb0 <free>
 2002434:	0005883a 	mov	r2,zero
 2002438:	00001606 	br	2002494 <DGifOpenFileHandle+0x24c>
 200243c:	e13ff917 	ldw	r4,-28(fp)
 2002440:	20026e40 	call	20026e4 <DGifGetScreenDesc>
 2002444:	1000081e 	bne	r2,zero,2002468 <DGifOpenFileHandle+0x220>
 2002448:	e13ffb17 	ldw	r4,-20(fp)
 200244c:	2006f0c0 	call	2006f0c <fclose>
 2002450:	e13ffa17 	ldw	r4,-24(fp)
 2002454:	2007eb00 	call	2007eb0 <free>
 2002458:	e13ff917 	ldw	r4,-28(fp)
 200245c:	2007eb00 	call	2007eb0 <free>
 2002460:	0005883a 	mov	r2,zero
 2002464:	00000b06 	br	2002494 <DGifOpenFileHandle+0x24c>
 2002468:	e0bff917 	ldw	r2,-28(fp)
 200246c:	10001015 	stw	zero,64(r2)
 2002470:	e0bffcc3 	ldbu	r2,-13(fp)
 2002474:	10803fcc 	andi	r2,r2,255
 2002478:	1080201c 	xori	r2,r2,128
 200247c:	10bfe004 	addi	r2,r2,-128
 2002480:	10800e60 	cmpeqi	r2,r2,57
 2002484:	1007883a 	mov	r3,r2
 2002488:	e0bffa17 	ldw	r2,-24(fp)
 200248c:	10d85205 	stb	r3,24904(r2)
 2002490:	e0bff917 	ldw	r2,-28(fp)
 2002494:	e037883a 	mov	sp,fp
 2002498:	dfc00117 	ldw	ra,4(sp)
 200249c:	df000017 	ldw	fp,0(sp)
 20024a0:	dec00204 	addi	sp,sp,8
 20024a4:	f800283a 	ret

020024a8 <DGifOpen>:
 20024a8:	defff704 	addi	sp,sp,-36
 20024ac:	dfc00815 	stw	ra,32(sp)
 20024b0:	df000715 	stw	fp,28(sp)
 20024b4:	df000704 	addi	fp,sp,28
 20024b8:	e13ffd15 	stw	r4,-12(fp)
 20024bc:	e17ffe15 	stw	r5,-8(fp)
 20024c0:	e1bfff15 	stw	r6,-4(fp)
 20024c4:	01001304 	movi	r4,76
 20024c8:	2007e9c0 	call	2007e9c <malloc>
 20024cc:	e0bff915 	stw	r2,-28(fp)
 20024d0:	e0bff917 	ldw	r2,-28(fp)
 20024d4:	1000071e 	bne	r2,zero,20024f4 <DGifOpen+0x4c>
 20024d8:	e0bfff17 	ldw	r2,-4(fp)
 20024dc:	10000326 	beq	r2,zero,20024ec <DGifOpen+0x44>
 20024e0:	e0bfff17 	ldw	r2,-4(fp)
 20024e4:	00c01b44 	movi	r3,109
 20024e8:	10c00015 	stw	r3,0(r2)
 20024ec:	0005883a 	mov	r2,zero
 20024f0:	00007706 	br	20026d0 <DGifOpen+0x228>
 20024f4:	e13ff917 	ldw	r4,-28(fp)
 20024f8:	000b883a 	mov	r5,zero
 20024fc:	01801304 	movi	r6,76
 2002500:	20088100 	call	2008810 <memset>
 2002504:	e0bff917 	ldw	r2,-28(fp)
 2002508:	10000d15 	stw	zero,52(r2)
 200250c:	e0bff917 	ldw	r2,-28(fp)
 2002510:	10000515 	stw	zero,20(r2)
 2002514:	01185304 	movi	r4,24908
 2002518:	2007e9c0 	call	2007e9c <malloc>
 200251c:	e0bffa15 	stw	r2,-24(fp)
 2002520:	e0bffa17 	ldw	r2,-24(fp)
 2002524:	1000091e 	bne	r2,zero,200254c <DGifOpen+0xa4>
 2002528:	e0bfff17 	ldw	r2,-4(fp)
 200252c:	10000326 	beq	r2,zero,200253c <DGifOpen+0x94>
 2002530:	e0bfff17 	ldw	r2,-4(fp)
 2002534:	00c01b44 	movi	r3,109
 2002538:	10c00015 	stw	r3,0(r2)
 200253c:	e13ff917 	ldw	r4,-28(fp)
 2002540:	2007eb00 	call	2007eb0 <free>
 2002544:	0005883a 	mov	r2,zero
 2002548:	00006106 	br	20026d0 <DGifOpen+0x228>
 200254c:	e0bff917 	ldw	r2,-28(fp)
 2002550:	e0fffa17 	ldw	r3,-24(fp)
 2002554:	10c01215 	stw	r3,72(r2)
 2002558:	e0bffa17 	ldw	r2,-24(fp)
 200255c:	10000115 	stw	zero,4(r2)
 2002560:	e0bffa17 	ldw	r2,-24(fp)
 2002564:	10000e15 	stw	zero,56(r2)
 2002568:	e0bffa17 	ldw	r2,-24(fp)
 200256c:	00c00204 	movi	r3,8
 2002570:	10c00015 	stw	r3,0(r2)
 2002574:	e0bffa17 	ldw	r2,-24(fp)
 2002578:	e0fffe17 	ldw	r3,-8(fp)
 200257c:	10c00f15 	stw	r3,60(r2)
 2002580:	e0bff917 	ldw	r2,-28(fp)
 2002584:	e0fffd17 	ldw	r3,-12(fp)
 2002588:	10c01115 	stw	r3,68(r2)
 200258c:	e0bff917 	ldw	r2,-28(fp)
 2002590:	10801217 	ldw	r2,72(r2)
 2002594:	10800f17 	ldw	r2,60(r2)
 2002598:	10000a26 	beq	r2,zero,20025c4 <DGifOpen+0x11c>
 200259c:	e0bff917 	ldw	r2,-28(fp)
 20025a0:	10801217 	ldw	r2,72(r2)
 20025a4:	10800f17 	ldw	r2,60(r2)
 20025a8:	e0fffb04 	addi	r3,fp,-20
 20025ac:	e13ff917 	ldw	r4,-28(fp)
 20025b0:	180b883a 	mov	r5,r3
 20025b4:	01800184 	movi	r6,6
 20025b8:	103ee83a 	callr	r2
 20025bc:	10800198 	cmpnei	r2,r2,6
 20025c0:	00000a06 	br	20025ec <DGifOpen+0x144>
 20025c4:	e0bff917 	ldw	r2,-28(fp)
 20025c8:	10801217 	ldw	r2,72(r2)
 20025cc:	10800e17 	ldw	r2,56(r2)
 20025d0:	e0fffb04 	addi	r3,fp,-20
 20025d4:	1809883a 	mov	r4,r3
 20025d8:	01400044 	movi	r5,1
 20025dc:	01800184 	movi	r6,6
 20025e0:	100f883a 	mov	r7,r2
 20025e4:	20078f00 	call	20078f0 <fread>
 20025e8:	10800198 	cmpnei	r2,r2,6
 20025ec:	10803fcc 	andi	r2,r2,255
 20025f0:	10000b26 	beq	r2,zero,2002620 <DGifOpen+0x178>
 20025f4:	e0bfff17 	ldw	r2,-4(fp)
 20025f8:	10000326 	beq	r2,zero,2002608 <DGifOpen+0x160>
 20025fc:	e0bfff17 	ldw	r2,-4(fp)
 2002600:	00c01984 	movi	r3,102
 2002604:	10c00015 	stw	r3,0(r2)
 2002608:	e13ffa17 	ldw	r4,-24(fp)
 200260c:	2007eb00 	call	2007eb0 <free>
 2002610:	e13ff917 	ldw	r4,-28(fp)
 2002614:	2007eb00 	call	2007eb0 <free>
 2002618:	0005883a 	mov	r2,zero
 200261c:	00002c06 	br	20026d0 <DGifOpen+0x228>
 2002620:	e03ffc85 	stb	zero,-14(fp)
 2002624:	e0bffb04 	addi	r2,fp,-20
 2002628:	010080b4 	movhi	r4,514
 200262c:	213b6b04 	addi	r4,r4,-4692
 2002630:	100b883a 	mov	r5,r2
 2002634:	018000c4 	movi	r6,3
 2002638:	20092a00 	call	20092a0 <strncmp>
 200263c:	10000b26 	beq	r2,zero,200266c <DGifOpen+0x1c4>
 2002640:	e0bfff17 	ldw	r2,-4(fp)
 2002644:	10000326 	beq	r2,zero,2002654 <DGifOpen+0x1ac>
 2002648:	e0bfff17 	ldw	r2,-4(fp)
 200264c:	00c019c4 	movi	r3,103
 2002650:	10c00015 	stw	r3,0(r2)
 2002654:	e13ffa17 	ldw	r4,-24(fp)
 2002658:	2007eb00 	call	2007eb0 <free>
 200265c:	e13ff917 	ldw	r4,-28(fp)
 2002660:	2007eb00 	call	2007eb0 <free>
 2002664:	0005883a 	mov	r2,zero
 2002668:	00001906 	br	20026d0 <DGifOpen+0x228>
 200266c:	e13ff917 	ldw	r4,-28(fp)
 2002670:	20026e40 	call	20026e4 <DGifGetScreenDesc>
 2002674:	10000b1e 	bne	r2,zero,20026a4 <DGifOpen+0x1fc>
 2002678:	e13ffa17 	ldw	r4,-24(fp)
 200267c:	2007eb00 	call	2007eb0 <free>
 2002680:	e13ff917 	ldw	r4,-28(fp)
 2002684:	2007eb00 	call	2007eb0 <free>
 2002688:	e0bfff17 	ldw	r2,-4(fp)
 200268c:	10000326 	beq	r2,zero,200269c <DGifOpen+0x1f4>
 2002690:	e0bfff17 	ldw	r2,-4(fp)
 2002694:	00c01a04 	movi	r3,104
 2002698:	10c00015 	stw	r3,0(r2)
 200269c:	0005883a 	mov	r2,zero
 20026a0:	00000b06 	br	20026d0 <DGifOpen+0x228>
 20026a4:	e0bff917 	ldw	r2,-28(fp)
 20026a8:	10001015 	stw	zero,64(r2)
 20026ac:	e0bffbc3 	ldbu	r2,-17(fp)
 20026b0:	10803fcc 	andi	r2,r2,255
 20026b4:	1080201c 	xori	r2,r2,128
 20026b8:	10bfe004 	addi	r2,r2,-128
 20026bc:	10800e60 	cmpeqi	r2,r2,57
 20026c0:	1007883a 	mov	r3,r2
 20026c4:	e0bffa17 	ldw	r2,-24(fp)
 20026c8:	10d85205 	stb	r3,24904(r2)
 20026cc:	e0bff917 	ldw	r2,-28(fp)
 20026d0:	e037883a 	mov	sp,fp
 20026d4:	dfc00117 	ldw	ra,4(sp)
 20026d8:	df000017 	ldw	fp,0(sp)
 20026dc:	dec00204 	addi	sp,sp,8
 20026e0:	f800283a 	ret

020026e4 <DGifGetScreenDesc>:
 20026e4:	defff804 	addi	sp,sp,-32
 20026e8:	dfc00715 	stw	ra,28(sp)
 20026ec:	df000615 	stw	fp,24(sp)
 20026f0:	df000604 	addi	fp,sp,24
 20026f4:	e13fff15 	stw	r4,-4(fp)
 20026f8:	e0bfff17 	ldw	r2,-4(fp)
 20026fc:	10801217 	ldw	r2,72(r2)
 2002700:	e0bffb15 	stw	r2,-20(fp)
 2002704:	e0bffb17 	ldw	r2,-20(fp)
 2002708:	10800017 	ldw	r2,0(r2)
 200270c:	1080020c 	andi	r2,r2,8
 2002710:	1000051e 	bne	r2,zero,2002728 <DGifGetScreenDesc+0x44>
 2002714:	e0bfff17 	ldw	r2,-4(fp)
 2002718:	00c01bc4 	movi	r3,111
 200271c:	10c01015 	stw	r3,64(r2)
 2002720:	0005883a 	mov	r2,zero
 2002724:	0000b606 	br	2002a00 <DGifGetScreenDesc+0x31c>
 2002728:	e0bfff17 	ldw	r2,-4(fp)
 200272c:	e13fff17 	ldw	r4,-4(fp)
 2002730:	100b883a 	mov	r5,r2
 2002734:	20038440 	call	2003844 <DGifGetWord>
 2002738:	10000626 	beq	r2,zero,2002754 <DGifGetScreenDesc+0x70>
 200273c:	e0bfff17 	ldw	r2,-4(fp)
 2002740:	10800104 	addi	r2,r2,4
 2002744:	e13fff17 	ldw	r4,-4(fp)
 2002748:	100b883a 	mov	r5,r2
 200274c:	20038440 	call	2003844 <DGifGetWord>
 2002750:	1000021e 	bne	r2,zero,200275c <DGifGetScreenDesc+0x78>
 2002754:	0005883a 	mov	r2,zero
 2002758:	0000a906 	br	2002a00 <DGifGetScreenDesc+0x31c>
 200275c:	e0bfff17 	ldw	r2,-4(fp)
 2002760:	10801217 	ldw	r2,72(r2)
 2002764:	10800f17 	ldw	r2,60(r2)
 2002768:	10000a26 	beq	r2,zero,2002794 <DGifGetScreenDesc+0xb0>
 200276c:	e0bfff17 	ldw	r2,-4(fp)
 2002770:	10801217 	ldw	r2,72(r2)
 2002774:	10800f17 	ldw	r2,60(r2)
 2002778:	e0fffe04 	addi	r3,fp,-8
 200277c:	e13fff17 	ldw	r4,-4(fp)
 2002780:	180b883a 	mov	r5,r3
 2002784:	018000c4 	movi	r6,3
 2002788:	103ee83a 	callr	r2
 200278c:	108000d8 	cmpnei	r2,r2,3
 2002790:	00000a06 	br	20027bc <DGifGetScreenDesc+0xd8>
 2002794:	e0bfff17 	ldw	r2,-4(fp)
 2002798:	10801217 	ldw	r2,72(r2)
 200279c:	10800e17 	ldw	r2,56(r2)
 20027a0:	e0fffe04 	addi	r3,fp,-8
 20027a4:	1809883a 	mov	r4,r3
 20027a8:	01400044 	movi	r5,1
 20027ac:	018000c4 	movi	r6,3
 20027b0:	100f883a 	mov	r7,r2
 20027b4:	20078f00 	call	20078f0 <fread>
 20027b8:	108000d8 	cmpnei	r2,r2,3
 20027bc:	10803fcc 	andi	r2,r2,255
 20027c0:	10000b26 	beq	r2,zero,20027f0 <DGifGetScreenDesc+0x10c>
 20027c4:	e0bfff17 	ldw	r2,-4(fp)
 20027c8:	00c01984 	movi	r3,102
 20027cc:	10c01015 	stw	r3,64(r2)
 20027d0:	e0bfff17 	ldw	r2,-4(fp)
 20027d4:	10800517 	ldw	r2,20(r2)
 20027d8:	1009883a 	mov	r4,r2
 20027dc:	2004c380 	call	2004c38 <GifFreeMapObject>
 20027e0:	e0bfff17 	ldw	r2,-4(fp)
 20027e4:	10000515 	stw	zero,20(r2)
 20027e8:	0005883a 	mov	r2,zero
 20027ec:	00008406 	br	2002a00 <DGifGetScreenDesc+0x31c>
 20027f0:	e0bffe03 	ldbu	r2,-8(fp)
 20027f4:	10803fcc 	andi	r2,r2,255
 20027f8:	10801c0c 	andi	r2,r2,112
 20027fc:	10800044 	addi	r2,r2,1
 2002800:	1005d13a 	srai	r2,r2,4
 2002804:	10c00044 	addi	r3,r2,1
 2002808:	e0bfff17 	ldw	r2,-4(fp)
 200280c:	10c00215 	stw	r3,8(r2)
 2002810:	e0bffe03 	ldbu	r2,-8(fp)
 2002814:	10803fcc 	andi	r2,r2,255
 2002818:	1080020c 	andi	r2,r2,8
 200281c:	1004c03a 	cmpne	r2,r2,zero
 2002820:	e0bffc05 	stb	r2,-16(fp)
 2002824:	e0bffe03 	ldbu	r2,-8(fp)
 2002828:	10803fcc 	andi	r2,r2,255
 200282c:	108001cc 	andi	r2,r2,7
 2002830:	10800044 	addi	r2,r2,1
 2002834:	e0bffd15 	stw	r2,-12(fp)
 2002838:	e0bffe43 	ldbu	r2,-7(fp)
 200283c:	10c03fcc 	andi	r3,r2,255
 2002840:	e0bfff17 	ldw	r2,-4(fp)
 2002844:	10c00315 	stw	r3,12(r2)
 2002848:	e0fffe83 	ldbu	r3,-6(fp)
 200284c:	e0bfff17 	ldw	r2,-4(fp)
 2002850:	10c00405 	stb	r3,16(r2)
 2002854:	e0bffe03 	ldbu	r2,-8(fp)
 2002858:	10803fcc 	andi	r2,r2,255
 200285c:	1080201c 	xori	r2,r2,128
 2002860:	10bfe004 	addi	r2,r2,-128
 2002864:	1000630e 	bge	r2,zero,20029f4 <DGifGetScreenDesc+0x310>
 2002868:	00c00044 	movi	r3,1
 200286c:	e0bffd17 	ldw	r2,-12(fp)
 2002870:	1884983a 	sll	r2,r3,r2
 2002874:	1009883a 	mov	r4,r2
 2002878:	000b883a 	mov	r5,zero
 200287c:	2004b400 	call	2004b40 <GifMakeMapObject>
 2002880:	1007883a 	mov	r3,r2
 2002884:	e0bfff17 	ldw	r2,-4(fp)
 2002888:	10c00515 	stw	r3,20(r2)
 200288c:	e0bfff17 	ldw	r2,-4(fp)
 2002890:	10800517 	ldw	r2,20(r2)
 2002894:	1000051e 	bne	r2,zero,20028ac <DGifGetScreenDesc+0x1c8>
 2002898:	e0bfff17 	ldw	r2,-4(fp)
 200289c:	00c01b44 	movi	r3,109
 20028a0:	10c01015 	stw	r3,64(r2)
 20028a4:	0005883a 	mov	r2,zero
 20028a8:	00005506 	br	2002a00 <DGifGetScreenDesc+0x31c>
 20028ac:	e0bfff17 	ldw	r2,-4(fp)
 20028b0:	10800517 	ldw	r2,20(r2)
 20028b4:	e0fffc03 	ldbu	r3,-16(fp)
 20028b8:	10c00205 	stb	r3,8(r2)
 20028bc:	e03ffa15 	stw	zero,-24(fp)
 20028c0:	00004606 	br	20029dc <DGifGetScreenDesc+0x2f8>
 20028c4:	e0bfff17 	ldw	r2,-4(fp)
 20028c8:	10801217 	ldw	r2,72(r2)
 20028cc:	10800f17 	ldw	r2,60(r2)
 20028d0:	10000a26 	beq	r2,zero,20028fc <DGifGetScreenDesc+0x218>
 20028d4:	e0bfff17 	ldw	r2,-4(fp)
 20028d8:	10801217 	ldw	r2,72(r2)
 20028dc:	10800f17 	ldw	r2,60(r2)
 20028e0:	e0fffe04 	addi	r3,fp,-8
 20028e4:	e13fff17 	ldw	r4,-4(fp)
 20028e8:	180b883a 	mov	r5,r3
 20028ec:	018000c4 	movi	r6,3
 20028f0:	103ee83a 	callr	r2
 20028f4:	108000d8 	cmpnei	r2,r2,3
 20028f8:	00000a06 	br	2002924 <DGifGetScreenDesc+0x240>
 20028fc:	e0bfff17 	ldw	r2,-4(fp)
 2002900:	10801217 	ldw	r2,72(r2)
 2002904:	10800e17 	ldw	r2,56(r2)
 2002908:	e0fffe04 	addi	r3,fp,-8
 200290c:	1809883a 	mov	r4,r3
 2002910:	01400044 	movi	r5,1
 2002914:	018000c4 	movi	r6,3
 2002918:	100f883a 	mov	r7,r2
 200291c:	20078f00 	call	20078f0 <fread>
 2002920:	108000d8 	cmpnei	r2,r2,3
 2002924:	10803fcc 	andi	r2,r2,255
 2002928:	10000b26 	beq	r2,zero,2002958 <DGifGetScreenDesc+0x274>
 200292c:	e0bfff17 	ldw	r2,-4(fp)
 2002930:	10800517 	ldw	r2,20(r2)
 2002934:	1009883a 	mov	r4,r2
 2002938:	2004c380 	call	2004c38 <GifFreeMapObject>
 200293c:	e0bfff17 	ldw	r2,-4(fp)
 2002940:	10000515 	stw	zero,20(r2)
 2002944:	e0bfff17 	ldw	r2,-4(fp)
 2002948:	00c01984 	movi	r3,102
 200294c:	10c01015 	stw	r3,64(r2)
 2002950:	0005883a 	mov	r2,zero
 2002954:	00002a06 	br	2002a00 <DGifGetScreenDesc+0x31c>
 2002958:	e0bfff17 	ldw	r2,-4(fp)
 200295c:	10800517 	ldw	r2,20(r2)
 2002960:	11000317 	ldw	r4,12(r2)
 2002964:	e0fffa17 	ldw	r3,-24(fp)
 2002968:	1805883a 	mov	r2,r3
 200296c:	1085883a 	add	r2,r2,r2
 2002970:	10c5883a 	add	r2,r2,r3
 2002974:	2085883a 	add	r2,r4,r2
 2002978:	e0fffe03 	ldbu	r3,-8(fp)
 200297c:	10c00005 	stb	r3,0(r2)
 2002980:	e0bfff17 	ldw	r2,-4(fp)
 2002984:	10800517 	ldw	r2,20(r2)
 2002988:	11000317 	ldw	r4,12(r2)
 200298c:	e0fffa17 	ldw	r3,-24(fp)
 2002990:	1805883a 	mov	r2,r3
 2002994:	1085883a 	add	r2,r2,r2
 2002998:	10c5883a 	add	r2,r2,r3
 200299c:	2085883a 	add	r2,r4,r2
 20029a0:	e0fffe43 	ldbu	r3,-7(fp)
 20029a4:	10c00045 	stb	r3,1(r2)
 20029a8:	e0bfff17 	ldw	r2,-4(fp)
 20029ac:	10800517 	ldw	r2,20(r2)
 20029b0:	11000317 	ldw	r4,12(r2)
 20029b4:	e0fffa17 	ldw	r3,-24(fp)
 20029b8:	1805883a 	mov	r2,r3
 20029bc:	1085883a 	add	r2,r2,r2
 20029c0:	10c5883a 	add	r2,r2,r3
 20029c4:	2085883a 	add	r2,r4,r2
 20029c8:	e0fffe83 	ldbu	r3,-6(fp)
 20029cc:	10c00085 	stb	r3,2(r2)
 20029d0:	e0bffa17 	ldw	r2,-24(fp)
 20029d4:	10800044 	addi	r2,r2,1
 20029d8:	e0bffa15 	stw	r2,-24(fp)
 20029dc:	e0bfff17 	ldw	r2,-4(fp)
 20029e0:	10800517 	ldw	r2,20(r2)
 20029e4:	10800017 	ldw	r2,0(r2)
 20029e8:	e0fffa17 	ldw	r3,-24(fp)
 20029ec:	18bfb516 	blt	r3,r2,20028c4 <__reset+0xfdff98c4>
 20029f0:	00000206 	br	20029fc <DGifGetScreenDesc+0x318>
 20029f4:	e0bfff17 	ldw	r2,-4(fp)
 20029f8:	10000515 	stw	zero,20(r2)
 20029fc:	00800044 	movi	r2,1
 2002a00:	e037883a 	mov	sp,fp
 2002a04:	dfc00117 	ldw	ra,4(sp)
 2002a08:	df000017 	ldw	fp,0(sp)
 2002a0c:	dec00204 	addi	sp,sp,8
 2002a10:	f800283a 	ret

02002a14 <DGifGetRecordType>:
 2002a14:	defffa04 	addi	sp,sp,-24
 2002a18:	dfc00515 	stw	ra,20(sp)
 2002a1c:	df000415 	stw	fp,16(sp)
 2002a20:	df000404 	addi	fp,sp,16
 2002a24:	e13ffe15 	stw	r4,-8(fp)
 2002a28:	e17fff15 	stw	r5,-4(fp)
 2002a2c:	e0bffe17 	ldw	r2,-8(fp)
 2002a30:	10801217 	ldw	r2,72(r2)
 2002a34:	e0bffc15 	stw	r2,-16(fp)
 2002a38:	e0bffc17 	ldw	r2,-16(fp)
 2002a3c:	10800017 	ldw	r2,0(r2)
 2002a40:	1080020c 	andi	r2,r2,8
 2002a44:	1000051e 	bne	r2,zero,2002a5c <DGifGetRecordType+0x48>
 2002a48:	e0bffe17 	ldw	r2,-8(fp)
 2002a4c:	00c01bc4 	movi	r3,111
 2002a50:	10c01015 	stw	r3,64(r2)
 2002a54:	0005883a 	mov	r2,zero
 2002a58:	00003c06 	br	2002b4c <DGifGetRecordType+0x138>
 2002a5c:	e0bffe17 	ldw	r2,-8(fp)
 2002a60:	10801217 	ldw	r2,72(r2)
 2002a64:	10800f17 	ldw	r2,60(r2)
 2002a68:	10000a26 	beq	r2,zero,2002a94 <DGifGetRecordType+0x80>
 2002a6c:	e0bffe17 	ldw	r2,-8(fp)
 2002a70:	10801217 	ldw	r2,72(r2)
 2002a74:	10800f17 	ldw	r2,60(r2)
 2002a78:	e0fffd04 	addi	r3,fp,-12
 2002a7c:	e13ffe17 	ldw	r4,-8(fp)
 2002a80:	180b883a 	mov	r5,r3
 2002a84:	01800044 	movi	r6,1
 2002a88:	103ee83a 	callr	r2
 2002a8c:	10800058 	cmpnei	r2,r2,1
 2002a90:	00000a06 	br	2002abc <DGifGetRecordType+0xa8>
 2002a94:	e0bffe17 	ldw	r2,-8(fp)
 2002a98:	10801217 	ldw	r2,72(r2)
 2002a9c:	10800e17 	ldw	r2,56(r2)
 2002aa0:	e0fffd04 	addi	r3,fp,-12
 2002aa4:	1809883a 	mov	r4,r3
 2002aa8:	01400044 	movi	r5,1
 2002aac:	01800044 	movi	r6,1
 2002ab0:	100f883a 	mov	r7,r2
 2002ab4:	20078f00 	call	20078f0 <fread>
 2002ab8:	10800058 	cmpnei	r2,r2,1
 2002abc:	10803fcc 	andi	r2,r2,255
 2002ac0:	10000526 	beq	r2,zero,2002ad8 <DGifGetRecordType+0xc4>
 2002ac4:	e0bffe17 	ldw	r2,-8(fp)
 2002ac8:	00c01984 	movi	r3,102
 2002acc:	10c01015 	stw	r3,64(r2)
 2002ad0:	0005883a 	mov	r2,zero
 2002ad4:	00001d06 	br	2002b4c <DGifGetRecordType+0x138>
 2002ad8:	e0bffd03 	ldbu	r2,-12(fp)
 2002adc:	10803fcc 	andi	r2,r2,255
 2002ae0:	10c00b20 	cmpeqi	r3,r2,44
 2002ae4:	1800051e 	bne	r3,zero,2002afc <DGifGetRecordType+0xe8>
 2002ae8:	10c00ee0 	cmpeqi	r3,r2,59
 2002aec:	18000b1e 	bne	r3,zero,2002b1c <DGifGetRecordType+0x108>
 2002af0:	10800860 	cmpeqi	r2,r2,33
 2002af4:	1000051e 	bne	r2,zero,2002b0c <DGifGetRecordType+0xf8>
 2002af8:	00000c06 	br	2002b2c <DGifGetRecordType+0x118>
 2002afc:	e0bfff17 	ldw	r2,-4(fp)
 2002b00:	00c00084 	movi	r3,2
 2002b04:	10c00015 	stw	r3,0(r2)
 2002b08:	00000f06 	br	2002b48 <DGifGetRecordType+0x134>
 2002b0c:	e0bfff17 	ldw	r2,-4(fp)
 2002b10:	00c000c4 	movi	r3,3
 2002b14:	10c00015 	stw	r3,0(r2)
 2002b18:	00000b06 	br	2002b48 <DGifGetRecordType+0x134>
 2002b1c:	e0bfff17 	ldw	r2,-4(fp)
 2002b20:	00c00104 	movi	r3,4
 2002b24:	10c00015 	stw	r3,0(r2)
 2002b28:	00000706 	br	2002b48 <DGifGetRecordType+0x134>
 2002b2c:	e0bfff17 	ldw	r2,-4(fp)
 2002b30:	10000015 	stw	zero,0(r2)
 2002b34:	e0bffe17 	ldw	r2,-8(fp)
 2002b38:	00c01ac4 	movi	r3,107
 2002b3c:	10c01015 	stw	r3,64(r2)
 2002b40:	0005883a 	mov	r2,zero
 2002b44:	00000106 	br	2002b4c <DGifGetRecordType+0x138>
 2002b48:	00800044 	movi	r2,1
 2002b4c:	e037883a 	mov	sp,fp
 2002b50:	dfc00117 	ldw	ra,4(sp)
 2002b54:	df000017 	ldw	fp,0(sp)
 2002b58:	dec00204 	addi	sp,sp,8
 2002b5c:	f800283a 	ret

02002b60 <DGifGetImageDesc>:
 2002b60:	defff604 	addi	sp,sp,-40
 2002b64:	dfc00915 	stw	ra,36(sp)
 2002b68:	df000815 	stw	fp,32(sp)
 2002b6c:	dc000715 	stw	r16,28(sp)
 2002b70:	df000804 	addi	fp,sp,32
 2002b74:	e13ffe15 	stw	r4,-8(fp)
 2002b78:	e0bffe17 	ldw	r2,-8(fp)
 2002b7c:	10801217 	ldw	r2,72(r2)
 2002b80:	e0bff915 	stw	r2,-28(fp)
 2002b84:	e0bff917 	ldw	r2,-28(fp)
 2002b88:	10800017 	ldw	r2,0(r2)
 2002b8c:	1080020c 	andi	r2,r2,8
 2002b90:	1000051e 	bne	r2,zero,2002ba8 <DGifGetImageDesc+0x48>
 2002b94:	e0bffe17 	ldw	r2,-8(fp)
 2002b98:	00c01bc4 	movi	r3,111
 2002b9c:	10c01015 	stw	r3,64(r2)
 2002ba0:	0005883a 	mov	r2,zero
 2002ba4:	00011a06 	br	2003010 <DGifGetImageDesc+0x4b0>
 2002ba8:	e0bffe17 	ldw	r2,-8(fp)
 2002bac:	10800704 	addi	r2,r2,28
 2002bb0:	e13ffe17 	ldw	r4,-8(fp)
 2002bb4:	100b883a 	mov	r5,r2
 2002bb8:	20038440 	call	2003844 <DGifGetWord>
 2002bbc:	10001226 	beq	r2,zero,2002c08 <DGifGetImageDesc+0xa8>
 2002bc0:	e0bffe17 	ldw	r2,-8(fp)
 2002bc4:	10800804 	addi	r2,r2,32
 2002bc8:	e13ffe17 	ldw	r4,-8(fp)
 2002bcc:	100b883a 	mov	r5,r2
 2002bd0:	20038440 	call	2003844 <DGifGetWord>
 2002bd4:	10000c26 	beq	r2,zero,2002c08 <DGifGetImageDesc+0xa8>
 2002bd8:	e0bffe17 	ldw	r2,-8(fp)
 2002bdc:	10800904 	addi	r2,r2,36
 2002be0:	e13ffe17 	ldw	r4,-8(fp)
 2002be4:	100b883a 	mov	r5,r2
 2002be8:	20038440 	call	2003844 <DGifGetWord>
 2002bec:	10000626 	beq	r2,zero,2002c08 <DGifGetImageDesc+0xa8>
 2002bf0:	e0bffe17 	ldw	r2,-8(fp)
 2002bf4:	10800a04 	addi	r2,r2,40
 2002bf8:	e13ffe17 	ldw	r4,-8(fp)
 2002bfc:	100b883a 	mov	r5,r2
 2002c00:	20038440 	call	2003844 <DGifGetWord>
 2002c04:	1000021e 	bne	r2,zero,2002c10 <DGifGetImageDesc+0xb0>
 2002c08:	0005883a 	mov	r2,zero
 2002c0c:	00010006 	br	2003010 <DGifGetImageDesc+0x4b0>
 2002c10:	e0bffe17 	ldw	r2,-8(fp)
 2002c14:	10801217 	ldw	r2,72(r2)
 2002c18:	10800f17 	ldw	r2,60(r2)
 2002c1c:	10000a26 	beq	r2,zero,2002c48 <DGifGetImageDesc+0xe8>
 2002c20:	e0bffe17 	ldw	r2,-8(fp)
 2002c24:	10801217 	ldw	r2,72(r2)
 2002c28:	10800f17 	ldw	r2,60(r2)
 2002c2c:	e0fffd04 	addi	r3,fp,-12
 2002c30:	e13ffe17 	ldw	r4,-8(fp)
 2002c34:	180b883a 	mov	r5,r3
 2002c38:	01800044 	movi	r6,1
 2002c3c:	103ee83a 	callr	r2
 2002c40:	10800058 	cmpnei	r2,r2,1
 2002c44:	00000a06 	br	2002c70 <DGifGetImageDesc+0x110>
 2002c48:	e0bffe17 	ldw	r2,-8(fp)
 2002c4c:	10801217 	ldw	r2,72(r2)
 2002c50:	10800e17 	ldw	r2,56(r2)
 2002c54:	e0fffd04 	addi	r3,fp,-12
 2002c58:	1809883a 	mov	r4,r3
 2002c5c:	01400044 	movi	r5,1
 2002c60:	01800044 	movi	r6,1
 2002c64:	100f883a 	mov	r7,r2
 2002c68:	20078f00 	call	20078f0 <fread>
 2002c6c:	10800058 	cmpnei	r2,r2,1
 2002c70:	10803fcc 	andi	r2,r2,255
 2002c74:	10000b26 	beq	r2,zero,2002ca4 <DGifGetImageDesc+0x144>
 2002c78:	e0bffe17 	ldw	r2,-8(fp)
 2002c7c:	00c01984 	movi	r3,102
 2002c80:	10c01015 	stw	r3,64(r2)
 2002c84:	e0bffe17 	ldw	r2,-8(fp)
 2002c88:	10800c17 	ldw	r2,48(r2)
 2002c8c:	1009883a 	mov	r4,r2
 2002c90:	2004c380 	call	2004c38 <GifFreeMapObject>
 2002c94:	e0bffe17 	ldw	r2,-8(fp)
 2002c98:	10000c15 	stw	zero,48(r2)
 2002c9c:	0005883a 	mov	r2,zero
 2002ca0:	0000db06 	br	2003010 <DGifGetImageDesc+0x4b0>
 2002ca4:	e0bffd03 	ldbu	r2,-12(fp)
 2002ca8:	10803fcc 	andi	r2,r2,255
 2002cac:	108001cc 	andi	r2,r2,7
 2002cb0:	10800044 	addi	r2,r2,1
 2002cb4:	e0bffa15 	stw	r2,-24(fp)
 2002cb8:	e0bffd03 	ldbu	r2,-12(fp)
 2002cbc:	10803fcc 	andi	r2,r2,255
 2002cc0:	1080100c 	andi	r2,r2,64
 2002cc4:	1004c03a 	cmpne	r2,r2,zero
 2002cc8:	1007883a 	mov	r3,r2
 2002ccc:	e0bffe17 	ldw	r2,-8(fp)
 2002cd0:	10c00b05 	stb	r3,44(r2)
 2002cd4:	e0bffe17 	ldw	r2,-8(fp)
 2002cd8:	10800c17 	ldw	r2,48(r2)
 2002cdc:	10000626 	beq	r2,zero,2002cf8 <DGifGetImageDesc+0x198>
 2002ce0:	e0bffe17 	ldw	r2,-8(fp)
 2002ce4:	10800c17 	ldw	r2,48(r2)
 2002ce8:	1009883a 	mov	r4,r2
 2002cec:	2004c380 	call	2004c38 <GifFreeMapObject>
 2002cf0:	e0bffe17 	ldw	r2,-8(fp)
 2002cf4:	10000c15 	stw	zero,48(r2)
 2002cf8:	e0bffd03 	ldbu	r2,-12(fp)
 2002cfc:	10803fcc 	andi	r2,r2,255
 2002d00:	1080201c 	xori	r2,r2,128
 2002d04:	10bfe004 	addi	r2,r2,-128
 2002d08:	10005e0e 	bge	r2,zero,2002e84 <DGifGetImageDesc+0x324>
 2002d0c:	e0bffa17 	ldw	r2,-24(fp)
 2002d10:	00c00044 	movi	r3,1
 2002d14:	1884983a 	sll	r2,r3,r2
 2002d18:	1009883a 	mov	r4,r2
 2002d1c:	000b883a 	mov	r5,zero
 2002d20:	2004b400 	call	2004b40 <GifMakeMapObject>
 2002d24:	1007883a 	mov	r3,r2
 2002d28:	e0bffe17 	ldw	r2,-8(fp)
 2002d2c:	10c00c15 	stw	r3,48(r2)
 2002d30:	e0bffe17 	ldw	r2,-8(fp)
 2002d34:	10800c17 	ldw	r2,48(r2)
 2002d38:	1000051e 	bne	r2,zero,2002d50 <DGifGetImageDesc+0x1f0>
 2002d3c:	e0bffe17 	ldw	r2,-8(fp)
 2002d40:	00c01b44 	movi	r3,109
 2002d44:	10c01015 	stw	r3,64(r2)
 2002d48:	0005883a 	mov	r2,zero
 2002d4c:	0000b006 	br	2003010 <DGifGetImageDesc+0x4b0>
 2002d50:	e03ff815 	stw	zero,-32(fp)
 2002d54:	00004606 	br	2002e70 <DGifGetImageDesc+0x310>
 2002d58:	e0bffe17 	ldw	r2,-8(fp)
 2002d5c:	10801217 	ldw	r2,72(r2)
 2002d60:	10800f17 	ldw	r2,60(r2)
 2002d64:	10000a26 	beq	r2,zero,2002d90 <DGifGetImageDesc+0x230>
 2002d68:	e0bffe17 	ldw	r2,-8(fp)
 2002d6c:	10801217 	ldw	r2,72(r2)
 2002d70:	10800f17 	ldw	r2,60(r2)
 2002d74:	e0fffd04 	addi	r3,fp,-12
 2002d78:	e13ffe17 	ldw	r4,-8(fp)
 2002d7c:	180b883a 	mov	r5,r3
 2002d80:	018000c4 	movi	r6,3
 2002d84:	103ee83a 	callr	r2
 2002d88:	108000d8 	cmpnei	r2,r2,3
 2002d8c:	00000a06 	br	2002db8 <DGifGetImageDesc+0x258>
 2002d90:	e0bffe17 	ldw	r2,-8(fp)
 2002d94:	10801217 	ldw	r2,72(r2)
 2002d98:	10800e17 	ldw	r2,56(r2)
 2002d9c:	e0fffd04 	addi	r3,fp,-12
 2002da0:	1809883a 	mov	r4,r3
 2002da4:	01400044 	movi	r5,1
 2002da8:	018000c4 	movi	r6,3
 2002dac:	100f883a 	mov	r7,r2
 2002db0:	20078f00 	call	20078f0 <fread>
 2002db4:	108000d8 	cmpnei	r2,r2,3
 2002db8:	10803fcc 	andi	r2,r2,255
 2002dbc:	10000b26 	beq	r2,zero,2002dec <DGifGetImageDesc+0x28c>
 2002dc0:	e0bffe17 	ldw	r2,-8(fp)
 2002dc4:	10800c17 	ldw	r2,48(r2)
 2002dc8:	1009883a 	mov	r4,r2
 2002dcc:	2004c380 	call	2004c38 <GifFreeMapObject>
 2002dd0:	e0bffe17 	ldw	r2,-8(fp)
 2002dd4:	00c01984 	movi	r3,102
 2002dd8:	10c01015 	stw	r3,64(r2)
 2002ddc:	e0bffe17 	ldw	r2,-8(fp)
 2002de0:	10000c15 	stw	zero,48(r2)
 2002de4:	0005883a 	mov	r2,zero
 2002de8:	00008906 	br	2003010 <DGifGetImageDesc+0x4b0>
 2002dec:	e0bffe17 	ldw	r2,-8(fp)
 2002df0:	10800c17 	ldw	r2,48(r2)
 2002df4:	11000317 	ldw	r4,12(r2)
 2002df8:	e0fff817 	ldw	r3,-32(fp)
 2002dfc:	1805883a 	mov	r2,r3
 2002e00:	1085883a 	add	r2,r2,r2
 2002e04:	10c5883a 	add	r2,r2,r3
 2002e08:	2085883a 	add	r2,r4,r2
 2002e0c:	e0fffd03 	ldbu	r3,-12(fp)
 2002e10:	10c00005 	stb	r3,0(r2)
 2002e14:	e0bffe17 	ldw	r2,-8(fp)
 2002e18:	10800c17 	ldw	r2,48(r2)
 2002e1c:	11000317 	ldw	r4,12(r2)
 2002e20:	e0fff817 	ldw	r3,-32(fp)
 2002e24:	1805883a 	mov	r2,r3
 2002e28:	1085883a 	add	r2,r2,r2
 2002e2c:	10c5883a 	add	r2,r2,r3
 2002e30:	2085883a 	add	r2,r4,r2
 2002e34:	e0fffd43 	ldbu	r3,-11(fp)
 2002e38:	10c00045 	stb	r3,1(r2)
 2002e3c:	e0bffe17 	ldw	r2,-8(fp)
 2002e40:	10800c17 	ldw	r2,48(r2)
 2002e44:	11000317 	ldw	r4,12(r2)
 2002e48:	e0fff817 	ldw	r3,-32(fp)
 2002e4c:	1805883a 	mov	r2,r3
 2002e50:	1085883a 	add	r2,r2,r2
 2002e54:	10c5883a 	add	r2,r2,r3
 2002e58:	2085883a 	add	r2,r4,r2
 2002e5c:	e0fffd83 	ldbu	r3,-10(fp)
 2002e60:	10c00085 	stb	r3,2(r2)
 2002e64:	e0bff817 	ldw	r2,-32(fp)
 2002e68:	10800044 	addi	r2,r2,1
 2002e6c:	e0bff815 	stw	r2,-32(fp)
 2002e70:	e0bffe17 	ldw	r2,-8(fp)
 2002e74:	10800c17 	ldw	r2,48(r2)
 2002e78:	10800017 	ldw	r2,0(r2)
 2002e7c:	e0fff817 	ldw	r3,-32(fp)
 2002e80:	18bfb536 	bltu	r3,r2,2002d58 <__reset+0xfdff9d58>
 2002e84:	e0bffe17 	ldw	r2,-8(fp)
 2002e88:	10800d17 	ldw	r2,52(r2)
 2002e8c:	10001526 	beq	r2,zero,2002ee4 <DGifGetImageDesc+0x384>
 2002e90:	e0bffe17 	ldw	r2,-8(fp)
 2002e94:	10c00d17 	ldw	r3,52(r2)
 2002e98:	e0bffe17 	ldw	r2,-8(fp)
 2002e9c:	10800617 	ldw	r2,24(r2)
 2002ea0:	10800044 	addi	r2,r2,1
 2002ea4:	1809883a 	mov	r4,r3
 2002ea8:	100b883a 	mov	r5,r2
 2002eac:	01800904 	movi	r6,36
 2002eb0:	20057780 	call	2005778 <reallocarray>
 2002eb4:	e0bffb15 	stw	r2,-20(fp)
 2002eb8:	e0bffb17 	ldw	r2,-20(fp)
 2002ebc:	1000051e 	bne	r2,zero,2002ed4 <DGifGetImageDesc+0x374>
 2002ec0:	e0bffe17 	ldw	r2,-8(fp)
 2002ec4:	00c01b44 	movi	r3,109
 2002ec8:	10c01015 	stw	r3,64(r2)
 2002ecc:	0005883a 	mov	r2,zero
 2002ed0:	00004f06 	br	2003010 <DGifGetImageDesc+0x4b0>
 2002ed4:	e0bffe17 	ldw	r2,-8(fp)
 2002ed8:	e0fffb17 	ldw	r3,-20(fp)
 2002edc:	10c00d15 	stw	r3,52(r2)
 2002ee0:	00000d06 	br	2002f18 <DGifGetImageDesc+0x3b8>
 2002ee4:	01000904 	movi	r4,36
 2002ee8:	2007e9c0 	call	2007e9c <malloc>
 2002eec:	1007883a 	mov	r3,r2
 2002ef0:	e0bffe17 	ldw	r2,-8(fp)
 2002ef4:	10c00d15 	stw	r3,52(r2)
 2002ef8:	e0bffe17 	ldw	r2,-8(fp)
 2002efc:	10800d17 	ldw	r2,52(r2)
 2002f00:	1000051e 	bne	r2,zero,2002f18 <DGifGetImageDesc+0x3b8>
 2002f04:	e0bffe17 	ldw	r2,-8(fp)
 2002f08:	00c01b44 	movi	r3,109
 2002f0c:	10c01015 	stw	r3,64(r2)
 2002f10:	0005883a 	mov	r2,zero
 2002f14:	00003e06 	br	2003010 <DGifGetImageDesc+0x4b0>
 2002f18:	e0bffe17 	ldw	r2,-8(fp)
 2002f1c:	14000d17 	ldw	r16,52(r2)
 2002f20:	e0bffe17 	ldw	r2,-8(fp)
 2002f24:	10800617 	ldw	r2,24(r2)
 2002f28:	1009883a 	mov	r4,r2
 2002f2c:	01400904 	movi	r5,36
 2002f30:	20059200 	call	2005920 <__mulsi3>
 2002f34:	8085883a 	add	r2,r16,r2
 2002f38:	e0bffc15 	stw	r2,-16(fp)
 2002f3c:	e0fffc17 	ldw	r3,-16(fp)
 2002f40:	e0bffe17 	ldw	r2,-8(fp)
 2002f44:	10800704 	addi	r2,r2,28
 2002f48:	1809883a 	mov	r4,r3
 2002f4c:	100b883a 	mov	r5,r2
 2002f50:	01800604 	movi	r6,24
 2002f54:	20087040 	call	2008704 <memcpy>
 2002f58:	e0bffe17 	ldw	r2,-8(fp)
 2002f5c:	10800c17 	ldw	r2,48(r2)
 2002f60:	10001426 	beq	r2,zero,2002fb4 <DGifGetImageDesc+0x454>
 2002f64:	e0bffe17 	ldw	r2,-8(fp)
 2002f68:	10800c17 	ldw	r2,48(r2)
 2002f6c:	10c00017 	ldw	r3,0(r2)
 2002f70:	e0bffe17 	ldw	r2,-8(fp)
 2002f74:	10800c17 	ldw	r2,48(r2)
 2002f78:	10800317 	ldw	r2,12(r2)
 2002f7c:	1809883a 	mov	r4,r3
 2002f80:	100b883a 	mov	r5,r2
 2002f84:	2004b400 	call	2004b40 <GifMakeMapObject>
 2002f88:	1007883a 	mov	r3,r2
 2002f8c:	e0bffc17 	ldw	r2,-16(fp)
 2002f90:	10c00515 	stw	r3,20(r2)
 2002f94:	e0bffc17 	ldw	r2,-16(fp)
 2002f98:	10800517 	ldw	r2,20(r2)
 2002f9c:	1000051e 	bne	r2,zero,2002fb4 <DGifGetImageDesc+0x454>
 2002fa0:	e0bffe17 	ldw	r2,-8(fp)
 2002fa4:	00c01b44 	movi	r3,109
 2002fa8:	10c01015 	stw	r3,64(r2)
 2002fac:	0005883a 	mov	r2,zero
 2002fb0:	00001706 	br	2003010 <DGifGetImageDesc+0x4b0>
 2002fb4:	e0bffc17 	ldw	r2,-16(fp)
 2002fb8:	10000615 	stw	zero,24(r2)
 2002fbc:	e0bffc17 	ldw	r2,-16(fp)
 2002fc0:	10000715 	stw	zero,28(r2)
 2002fc4:	e0bffc17 	ldw	r2,-16(fp)
 2002fc8:	10000815 	stw	zero,32(r2)
 2002fcc:	e0bffe17 	ldw	r2,-8(fp)
 2002fd0:	10800617 	ldw	r2,24(r2)
 2002fd4:	10c00044 	addi	r3,r2,1
 2002fd8:	e0bffe17 	ldw	r2,-8(fp)
 2002fdc:	10c00615 	stw	r3,24(r2)
 2002fe0:	e0bffe17 	ldw	r2,-8(fp)
 2002fe4:	10c00917 	ldw	r3,36(r2)
 2002fe8:	e0bffe17 	ldw	r2,-8(fp)
 2002fec:	10800a17 	ldw	r2,40(r2)
 2002ff0:	1809883a 	mov	r4,r3
 2002ff4:	100b883a 	mov	r5,r2
 2002ff8:	20059200 	call	2005920 <__mulsi3>
 2002ffc:	1007883a 	mov	r3,r2
 2003000:	e0bff917 	ldw	r2,-28(fp)
 2003004:	10c00d15 	stw	r3,52(r2)
 2003008:	e13ffe17 	ldw	r4,-8(fp)
 200300c:	2003b100 	call	2003b10 <DGifSetupDecompress>
 2003010:	e6ffff04 	addi	sp,fp,-4
 2003014:	dfc00217 	ldw	ra,8(sp)
 2003018:	df000117 	ldw	fp,4(sp)
 200301c:	dc000017 	ldw	r16,0(sp)
 2003020:	dec00304 	addi	sp,sp,12
 2003024:	f800283a 	ret

02003028 <DGifGetLine>:
 2003028:	defff904 	addi	sp,sp,-28
 200302c:	dfc00615 	stw	ra,24(sp)
 2003030:	df000515 	stw	fp,20(sp)
 2003034:	df000504 	addi	fp,sp,20
 2003038:	e13ffd15 	stw	r4,-12(fp)
 200303c:	e17ffe15 	stw	r5,-8(fp)
 2003040:	e1bfff15 	stw	r6,-4(fp)
 2003044:	e0bffd17 	ldw	r2,-12(fp)
 2003048:	10801217 	ldw	r2,72(r2)
 200304c:	e0bffb15 	stw	r2,-20(fp)
 2003050:	e0bffb17 	ldw	r2,-20(fp)
 2003054:	10800017 	ldw	r2,0(r2)
 2003058:	1080020c 	andi	r2,r2,8
 200305c:	1000051e 	bne	r2,zero,2003074 <DGifGetLine+0x4c>
 2003060:	e0bffd17 	ldw	r2,-12(fp)
 2003064:	00c01bc4 	movi	r3,111
 2003068:	10c01015 	stw	r3,64(r2)
 200306c:	0005883a 	mov	r2,zero
 2003070:	00002906 	br	2003118 <DGifGetLine+0xf0>
 2003074:	e0bfff17 	ldw	r2,-4(fp)
 2003078:	1000031e 	bne	r2,zero,2003088 <DGifGetLine+0x60>
 200307c:	e0bffd17 	ldw	r2,-12(fp)
 2003080:	10800917 	ldw	r2,36(r2)
 2003084:	e0bfff15 	stw	r2,-4(fp)
 2003088:	e0bffb17 	ldw	r2,-20(fp)
 200308c:	10c00d17 	ldw	r3,52(r2)
 2003090:	e0bfff17 	ldw	r2,-4(fp)
 2003094:	1887c83a 	sub	r3,r3,r2
 2003098:	e0bffb17 	ldw	r2,-20(fp)
 200309c:	10c00d15 	stw	r3,52(r2)
 20030a0:	e0bffb17 	ldw	r2,-20(fp)
 20030a4:	10800d17 	ldw	r2,52(r2)
 20030a8:	00fffff4 	movhi	r3,65535
 20030ac:	1880052e 	bgeu	r3,r2,20030c4 <DGifGetLine+0x9c>
 20030b0:	e0bffd17 	ldw	r2,-12(fp)
 20030b4:	00c01b04 	movi	r3,108
 20030b8:	10c01015 	stw	r3,64(r2)
 20030bc:	0005883a 	mov	r2,zero
 20030c0:	00001506 	br	2003118 <DGifGetLine+0xf0>
 20030c4:	e13ffd17 	ldw	r4,-12(fp)
 20030c8:	e17ffe17 	ldw	r5,-8(fp)
 20030cc:	e1bfff17 	ldw	r6,-4(fp)
 20030d0:	2003cd80 	call	2003cd8 <DGifDecompressLine>
 20030d4:	10800058 	cmpnei	r2,r2,1
 20030d8:	10000e1e 	bne	r2,zero,2003114 <DGifGetLine+0xec>
 20030dc:	e0bffb17 	ldw	r2,-20(fp)
 20030e0:	10800d17 	ldw	r2,52(r2)
 20030e4:	1000091e 	bne	r2,zero,200310c <DGifGetLine+0xe4>
 20030e8:	e0bffc04 	addi	r2,fp,-16
 20030ec:	e13ffd17 	ldw	r4,-12(fp)
 20030f0:	100b883a 	mov	r5,r2
 20030f4:	20039840 	call	2003984 <DGifGetCodeNext>
 20030f8:	1000021e 	bne	r2,zero,2003104 <DGifGetLine+0xdc>
 20030fc:	0005883a 	mov	r2,zero
 2003100:	00000506 	br	2003118 <DGifGetLine+0xf0>
 2003104:	e0bffc17 	ldw	r2,-16(fp)
 2003108:	103ff71e 	bne	r2,zero,20030e8 <__reset+0xfdffa0e8>
 200310c:	00800044 	movi	r2,1
 2003110:	00000106 	br	2003118 <DGifGetLine+0xf0>
 2003114:	0005883a 	mov	r2,zero
 2003118:	e037883a 	mov	sp,fp
 200311c:	dfc00117 	ldw	ra,4(sp)
 2003120:	df000017 	ldw	fp,0(sp)
 2003124:	dec00204 	addi	sp,sp,8
 2003128:	f800283a 	ret

0200312c <DGifGetPixel>:
 200312c:	defffa04 	addi	sp,sp,-24
 2003130:	dfc00515 	stw	ra,20(sp)
 2003134:	df000415 	stw	fp,16(sp)
 2003138:	df000404 	addi	fp,sp,16
 200313c:	e13ffe15 	stw	r4,-8(fp)
 2003140:	2805883a 	mov	r2,r5
 2003144:	e0bfff05 	stb	r2,-4(fp)
 2003148:	e0bffe17 	ldw	r2,-8(fp)
 200314c:	10801217 	ldw	r2,72(r2)
 2003150:	e0bffc15 	stw	r2,-16(fp)
 2003154:	e0bffc17 	ldw	r2,-16(fp)
 2003158:	10800017 	ldw	r2,0(r2)
 200315c:	1080020c 	andi	r2,r2,8
 2003160:	1000051e 	bne	r2,zero,2003178 <DGifGetPixel+0x4c>
 2003164:	e0bffe17 	ldw	r2,-8(fp)
 2003168:	00c01bc4 	movi	r3,111
 200316c:	10c01015 	stw	r3,64(r2)
 2003170:	0005883a 	mov	r2,zero
 2003174:	00002406 	br	2003208 <DGifGetPixel+0xdc>
 2003178:	e0bffc17 	ldw	r2,-16(fp)
 200317c:	10800d17 	ldw	r2,52(r2)
 2003180:	10ffffc4 	addi	r3,r2,-1
 2003184:	e0bffc17 	ldw	r2,-16(fp)
 2003188:	10c00d15 	stw	r3,52(r2)
 200318c:	e0bffc17 	ldw	r2,-16(fp)
 2003190:	10800d17 	ldw	r2,52(r2)
 2003194:	00fffff4 	movhi	r3,65535
 2003198:	1880052e 	bgeu	r3,r2,20031b0 <DGifGetPixel+0x84>
 200319c:	e0bffe17 	ldw	r2,-8(fp)
 20031a0:	00c01b04 	movi	r3,108
 20031a4:	10c01015 	stw	r3,64(r2)
 20031a8:	0005883a 	mov	r2,zero
 20031ac:	00001606 	br	2003208 <DGifGetPixel+0xdc>
 20031b0:	e0bfff04 	addi	r2,fp,-4
 20031b4:	e13ffe17 	ldw	r4,-8(fp)
 20031b8:	100b883a 	mov	r5,r2
 20031bc:	01800044 	movi	r6,1
 20031c0:	2003cd80 	call	2003cd8 <DGifDecompressLine>
 20031c4:	10800058 	cmpnei	r2,r2,1
 20031c8:	10000e1e 	bne	r2,zero,2003204 <DGifGetPixel+0xd8>
 20031cc:	e0bffc17 	ldw	r2,-16(fp)
 20031d0:	10800d17 	ldw	r2,52(r2)
 20031d4:	1000091e 	bne	r2,zero,20031fc <DGifGetPixel+0xd0>
 20031d8:	e0bffd04 	addi	r2,fp,-12
 20031dc:	e13ffe17 	ldw	r4,-8(fp)
 20031e0:	100b883a 	mov	r5,r2
 20031e4:	20039840 	call	2003984 <DGifGetCodeNext>
 20031e8:	1000021e 	bne	r2,zero,20031f4 <DGifGetPixel+0xc8>
 20031ec:	0005883a 	mov	r2,zero
 20031f0:	00000506 	br	2003208 <DGifGetPixel+0xdc>
 20031f4:	e0bffd17 	ldw	r2,-12(fp)
 20031f8:	103ff71e 	bne	r2,zero,20031d8 <__reset+0xfdffa1d8>
 20031fc:	00800044 	movi	r2,1
 2003200:	00000106 	br	2003208 <DGifGetPixel+0xdc>
 2003204:	0005883a 	mov	r2,zero
 2003208:	e037883a 	mov	sp,fp
 200320c:	dfc00117 	ldw	ra,4(sp)
 2003210:	df000017 	ldw	fp,0(sp)
 2003214:	dec00204 	addi	sp,sp,8
 2003218:	f800283a 	ret

0200321c <DGifGetExtension>:
 200321c:	defff904 	addi	sp,sp,-28
 2003220:	dfc00615 	stw	ra,24(sp)
 2003224:	df000515 	stw	fp,20(sp)
 2003228:	df000504 	addi	fp,sp,20
 200322c:	e13ffd15 	stw	r4,-12(fp)
 2003230:	e17ffe15 	stw	r5,-8(fp)
 2003234:	e1bfff15 	stw	r6,-4(fp)
 2003238:	e0bffd17 	ldw	r2,-12(fp)
 200323c:	10801217 	ldw	r2,72(r2)
 2003240:	e0bffb15 	stw	r2,-20(fp)
 2003244:	e0bffb17 	ldw	r2,-20(fp)
 2003248:	10800017 	ldw	r2,0(r2)
 200324c:	1080020c 	andi	r2,r2,8
 2003250:	1000051e 	bne	r2,zero,2003268 <DGifGetExtension+0x4c>
 2003254:	e0bffd17 	ldw	r2,-12(fp)
 2003258:	00c01bc4 	movi	r3,111
 200325c:	10c01015 	stw	r3,64(r2)
 2003260:	0005883a 	mov	r2,zero
 2003264:	00002606 	br	2003300 <DGifGetExtension+0xe4>
 2003268:	e0bffd17 	ldw	r2,-12(fp)
 200326c:	10801217 	ldw	r2,72(r2)
 2003270:	10800f17 	ldw	r2,60(r2)
 2003274:	10000a26 	beq	r2,zero,20032a0 <DGifGetExtension+0x84>
 2003278:	e0bffd17 	ldw	r2,-12(fp)
 200327c:	10801217 	ldw	r2,72(r2)
 2003280:	10800f17 	ldw	r2,60(r2)
 2003284:	e0fffc04 	addi	r3,fp,-16
 2003288:	e13ffd17 	ldw	r4,-12(fp)
 200328c:	180b883a 	mov	r5,r3
 2003290:	01800044 	movi	r6,1
 2003294:	103ee83a 	callr	r2
 2003298:	10800058 	cmpnei	r2,r2,1
 200329c:	00000a06 	br	20032c8 <DGifGetExtension+0xac>
 20032a0:	e0bffd17 	ldw	r2,-12(fp)
 20032a4:	10801217 	ldw	r2,72(r2)
 20032a8:	10800e17 	ldw	r2,56(r2)
 20032ac:	e0fffc04 	addi	r3,fp,-16
 20032b0:	1809883a 	mov	r4,r3
 20032b4:	01400044 	movi	r5,1
 20032b8:	01800044 	movi	r6,1
 20032bc:	100f883a 	mov	r7,r2
 20032c0:	20078f00 	call	20078f0 <fread>
 20032c4:	10800058 	cmpnei	r2,r2,1
 20032c8:	10803fcc 	andi	r2,r2,255
 20032cc:	10000526 	beq	r2,zero,20032e4 <DGifGetExtension+0xc8>
 20032d0:	e0bffd17 	ldw	r2,-12(fp)
 20032d4:	00c01984 	movi	r3,102
 20032d8:	10c01015 	stw	r3,64(r2)
 20032dc:	0005883a 	mov	r2,zero
 20032e0:	00000706 	br	2003300 <DGifGetExtension+0xe4>
 20032e4:	e0bffc03 	ldbu	r2,-16(fp)
 20032e8:	10c03fcc 	andi	r3,r2,255
 20032ec:	e0bffe17 	ldw	r2,-8(fp)
 20032f0:	10c00015 	stw	r3,0(r2)
 20032f4:	e13ffd17 	ldw	r4,-12(fp)
 20032f8:	e17fff17 	ldw	r5,-4(fp)
 20032fc:	20033140 	call	2003314 <DGifGetExtensionNext>
 2003300:	e037883a 	mov	sp,fp
 2003304:	dfc00117 	ldw	ra,4(sp)
 2003308:	df000017 	ldw	fp,0(sp)
 200330c:	dec00204 	addi	sp,sp,8
 2003310:	f800283a 	ret

02003314 <DGifGetExtensionNext>:
 2003314:	defffa04 	addi	sp,sp,-24
 2003318:	dfc00515 	stw	ra,20(sp)
 200331c:	df000415 	stw	fp,16(sp)
 2003320:	df000404 	addi	fp,sp,16
 2003324:	e13ffe15 	stw	r4,-8(fp)
 2003328:	e17fff15 	stw	r5,-4(fp)
 200332c:	e0bffe17 	ldw	r2,-8(fp)
 2003330:	10801217 	ldw	r2,72(r2)
 2003334:	e0bffc15 	stw	r2,-16(fp)
 2003338:	e0bffe17 	ldw	r2,-8(fp)
 200333c:	10801217 	ldw	r2,72(r2)
 2003340:	10800f17 	ldw	r2,60(r2)
 2003344:	10000a26 	beq	r2,zero,2003370 <DGifGetExtensionNext+0x5c>
 2003348:	e0bffe17 	ldw	r2,-8(fp)
 200334c:	10801217 	ldw	r2,72(r2)
 2003350:	10800f17 	ldw	r2,60(r2)
 2003354:	e0fffd04 	addi	r3,fp,-12
 2003358:	e13ffe17 	ldw	r4,-8(fp)
 200335c:	180b883a 	mov	r5,r3
 2003360:	01800044 	movi	r6,1
 2003364:	103ee83a 	callr	r2
 2003368:	10800058 	cmpnei	r2,r2,1
 200336c:	00000a06 	br	2003398 <DGifGetExtensionNext+0x84>
 2003370:	e0bffe17 	ldw	r2,-8(fp)
 2003374:	10801217 	ldw	r2,72(r2)
 2003378:	10800e17 	ldw	r2,56(r2)
 200337c:	e0fffd04 	addi	r3,fp,-12
 2003380:	1809883a 	mov	r4,r3
 2003384:	01400044 	movi	r5,1
 2003388:	01800044 	movi	r6,1
 200338c:	100f883a 	mov	r7,r2
 2003390:	20078f00 	call	20078f0 <fread>
 2003394:	10800058 	cmpnei	r2,r2,1
 2003398:	10803fcc 	andi	r2,r2,255
 200339c:	10000526 	beq	r2,zero,20033b4 <DGifGetExtensionNext+0xa0>
 20033a0:	e0bffe17 	ldw	r2,-8(fp)
 20033a4:	00c01984 	movi	r3,102
 20033a8:	10c01015 	stw	r3,64(r2)
 20033ac:	0005883a 	mov	r2,zero
 20033b0:	00003206 	br	200347c <DGifGetExtensionNext+0x168>
 20033b4:	e0bffd03 	ldbu	r2,-12(fp)
 20033b8:	10803fcc 	andi	r2,r2,255
 20033bc:	10002c26 	beq	r2,zero,2003470 <DGifGetExtensionNext+0x15c>
 20033c0:	e0bffc17 	ldw	r2,-16(fp)
 20033c4:	10c01104 	addi	r3,r2,68
 20033c8:	e0bfff17 	ldw	r2,-4(fp)
 20033cc:	10c00015 	stw	r3,0(r2)
 20033d0:	e0bfff17 	ldw	r2,-4(fp)
 20033d4:	10800017 	ldw	r2,0(r2)
 20033d8:	e0fffd03 	ldbu	r3,-12(fp)
 20033dc:	10c00005 	stb	r3,0(r2)
 20033e0:	e0bffe17 	ldw	r2,-8(fp)
 20033e4:	10801217 	ldw	r2,72(r2)
 20033e8:	10800f17 	ldw	r2,60(r2)
 20033ec:	10000c26 	beq	r2,zero,2003420 <DGifGetExtensionNext+0x10c>
 20033f0:	e0bffe17 	ldw	r2,-8(fp)
 20033f4:	10801217 	ldw	r2,72(r2)
 20033f8:	10800f17 	ldw	r2,60(r2)
 20033fc:	e0ffff17 	ldw	r3,-4(fp)
 2003400:	18c00017 	ldw	r3,0(r3)
 2003404:	19400044 	addi	r5,r3,1
 2003408:	e0fffd03 	ldbu	r3,-12(fp)
 200340c:	18c03fcc 	andi	r3,r3,255
 2003410:	e13ffe17 	ldw	r4,-8(fp)
 2003414:	180d883a 	mov	r6,r3
 2003418:	103ee83a 	callr	r2
 200341c:	00000c06 	br	2003450 <DGifGetExtensionNext+0x13c>
 2003420:	e0bfff17 	ldw	r2,-4(fp)
 2003424:	10800017 	ldw	r2,0(r2)
 2003428:	11000044 	addi	r4,r2,1
 200342c:	e0bffd03 	ldbu	r2,-12(fp)
 2003430:	10c03fcc 	andi	r3,r2,255
 2003434:	e0bffe17 	ldw	r2,-8(fp)
 2003438:	10801217 	ldw	r2,72(r2)
 200343c:	10800e17 	ldw	r2,56(r2)
 2003440:	01400044 	movi	r5,1
 2003444:	180d883a 	mov	r6,r3
 2003448:	100f883a 	mov	r7,r2
 200344c:	20078f00 	call	20078f0 <fread>
 2003450:	e0fffd03 	ldbu	r3,-12(fp)
 2003454:	18c03fcc 	andi	r3,r3,255
 2003458:	10c00726 	beq	r2,r3,2003478 <DGifGetExtensionNext+0x164>
 200345c:	e0bffe17 	ldw	r2,-8(fp)
 2003460:	00c01984 	movi	r3,102
 2003464:	10c01015 	stw	r3,64(r2)
 2003468:	0005883a 	mov	r2,zero
 200346c:	00000306 	br	200347c <DGifGetExtensionNext+0x168>
 2003470:	e0bfff17 	ldw	r2,-4(fp)
 2003474:	10000015 	stw	zero,0(r2)
 2003478:	00800044 	movi	r2,1
 200347c:	e037883a 	mov	sp,fp
 2003480:	dfc00117 	ldw	ra,4(sp)
 2003484:	df000017 	ldw	fp,0(sp)
 2003488:	dec00204 	addi	sp,sp,8
 200348c:	f800283a 	ret

02003490 <DGifExtensionToGCB>:
 2003490:	defffc04 	addi	sp,sp,-16
 2003494:	df000315 	stw	fp,12(sp)
 2003498:	df000304 	addi	fp,sp,12
 200349c:	e13ffd15 	stw	r4,-12(fp)
 20034a0:	e17ffe15 	stw	r5,-8(fp)
 20034a4:	e1bfff15 	stw	r6,-4(fp)
 20034a8:	e0bffd17 	ldw	r2,-12(fp)
 20034ac:	10800120 	cmpeqi	r2,r2,4
 20034b0:	1000021e 	bne	r2,zero,20034bc <DGifExtensionToGCB+0x2c>
 20034b4:	0005883a 	mov	r2,zero
 20034b8:	00002c06 	br	200356c <DGifExtensionToGCB+0xdc>
 20034bc:	e0bffe17 	ldw	r2,-8(fp)
 20034c0:	10800003 	ldbu	r2,0(r2)
 20034c4:	10803fcc 	andi	r2,r2,255
 20034c8:	1004d0ba 	srli	r2,r2,2
 20034cc:	10803fcc 	andi	r2,r2,255
 20034d0:	10c001cc 	andi	r3,r2,7
 20034d4:	e0bfff17 	ldw	r2,-4(fp)
 20034d8:	10c00015 	stw	r3,0(r2)
 20034dc:	e0bffe17 	ldw	r2,-8(fp)
 20034e0:	10800003 	ldbu	r2,0(r2)
 20034e4:	10803fcc 	andi	r2,r2,255
 20034e8:	1080008c 	andi	r2,r2,2
 20034ec:	1004c03a 	cmpne	r2,r2,zero
 20034f0:	1007883a 	mov	r3,r2
 20034f4:	e0bfff17 	ldw	r2,-4(fp)
 20034f8:	10c00105 	stb	r3,4(r2)
 20034fc:	e0bffe17 	ldw	r2,-8(fp)
 2003500:	10800044 	addi	r2,r2,1
 2003504:	10800003 	ldbu	r2,0(r2)
 2003508:	10c03fcc 	andi	r3,r2,255
 200350c:	e0bffe17 	ldw	r2,-8(fp)
 2003510:	10800084 	addi	r2,r2,2
 2003514:	10800003 	ldbu	r2,0(r2)
 2003518:	10803fcc 	andi	r2,r2,255
 200351c:	1004923a 	slli	r2,r2,8
 2003520:	1886b03a 	or	r3,r3,r2
 2003524:	e0bfff17 	ldw	r2,-4(fp)
 2003528:	10c00215 	stw	r3,8(r2)
 200352c:	e0bffe17 	ldw	r2,-8(fp)
 2003530:	10800003 	ldbu	r2,0(r2)
 2003534:	10803fcc 	andi	r2,r2,255
 2003538:	1080004c 	andi	r2,r2,1
 200353c:	10000726 	beq	r2,zero,200355c <DGifExtensionToGCB+0xcc>
 2003540:	e0bffe17 	ldw	r2,-8(fp)
 2003544:	108000c4 	addi	r2,r2,3
 2003548:	10800003 	ldbu	r2,0(r2)
 200354c:	10c03fcc 	andi	r3,r2,255
 2003550:	e0bfff17 	ldw	r2,-4(fp)
 2003554:	10c00315 	stw	r3,12(r2)
 2003558:	00000306 	br	2003568 <DGifExtensionToGCB+0xd8>
 200355c:	e0bfff17 	ldw	r2,-4(fp)
 2003560:	00ffffc4 	movi	r3,-1
 2003564:	10c00315 	stw	r3,12(r2)
 2003568:	00800044 	movi	r2,1
 200356c:	e037883a 	mov	sp,fp
 2003570:	df000017 	ldw	fp,0(sp)
 2003574:	dec00104 	addi	sp,sp,4
 2003578:	f800283a 	ret

0200357c <DGifSavedExtensionToGCB>:
 200357c:	defff804 	addi	sp,sp,-32
 2003580:	dfc00715 	stw	ra,28(sp)
 2003584:	df000615 	stw	fp,24(sp)
 2003588:	dc000515 	stw	r16,20(sp)
 200358c:	df000604 	addi	fp,sp,24
 2003590:	e13ffc15 	stw	r4,-16(fp)
 2003594:	e17ffd15 	stw	r5,-12(fp)
 2003598:	e1bffe15 	stw	r6,-8(fp)
 200359c:	e0bffd17 	ldw	r2,-12(fp)
 20035a0:	10000516 	blt	r2,zero,20035b8 <DGifSavedExtensionToGCB+0x3c>
 20035a4:	e0bffc17 	ldw	r2,-16(fp)
 20035a8:	10800617 	ldw	r2,24(r2)
 20035ac:	10ffffc4 	addi	r3,r2,-1
 20035b0:	e0bffd17 	ldw	r2,-12(fp)
 20035b4:	1880020e 	bge	r3,r2,20035c0 <DGifSavedExtensionToGCB+0x44>
 20035b8:	0005883a 	mov	r2,zero
 20035bc:	00003506 	br	2003694 <DGifSavedExtensionToGCB+0x118>
 20035c0:	e0bffe17 	ldw	r2,-8(fp)
 20035c4:	10000015 	stw	zero,0(r2)
 20035c8:	e0bffe17 	ldw	r2,-8(fp)
 20035cc:	10000105 	stb	zero,4(r2)
 20035d0:	e0bffe17 	ldw	r2,-8(fp)
 20035d4:	10000215 	stw	zero,8(r2)
 20035d8:	e0bffe17 	ldw	r2,-8(fp)
 20035dc:	00ffffc4 	movi	r3,-1
 20035e0:	10c00315 	stw	r3,12(r2)
 20035e4:	e03ffa15 	stw	zero,-24(fp)
 20035e8:	00001f06 	br	2003668 <DGifSavedExtensionToGCB+0xec>
 20035ec:	e0bffc17 	ldw	r2,-16(fp)
 20035f0:	14000d17 	ldw	r16,52(r2)
 20035f4:	e0bffd17 	ldw	r2,-12(fp)
 20035f8:	1009883a 	mov	r4,r2
 20035fc:	01400904 	movi	r5,36
 2003600:	20059200 	call	2005920 <__mulsi3>
 2003604:	8085883a 	add	r2,r16,r2
 2003608:	14000817 	ldw	r16,32(r2)
 200360c:	e0bffa17 	ldw	r2,-24(fp)
 2003610:	1009883a 	mov	r4,r2
 2003614:	01400304 	movi	r5,12
 2003618:	20059200 	call	2005920 <__mulsi3>
 200361c:	8085883a 	add	r2,r16,r2
 2003620:	e0bffb15 	stw	r2,-20(fp)
 2003624:	e0bffb17 	ldw	r2,-20(fp)
 2003628:	10800217 	ldw	r2,8(r2)
 200362c:	10803e58 	cmpnei	r2,r2,249
 2003630:	10000a1e 	bne	r2,zero,200365c <DGifSavedExtensionToGCB+0xe0>
 2003634:	e0bffb17 	ldw	r2,-20(fp)
 2003638:	10800017 	ldw	r2,0(r2)
 200363c:	1007883a 	mov	r3,r2
 2003640:	e0bffb17 	ldw	r2,-20(fp)
 2003644:	10800117 	ldw	r2,4(r2)
 2003648:	1809883a 	mov	r4,r3
 200364c:	100b883a 	mov	r5,r2
 2003650:	e1bffe17 	ldw	r6,-8(fp)
 2003654:	20034900 	call	2003490 <DGifExtensionToGCB>
 2003658:	00000e06 	br	2003694 <DGifSavedExtensionToGCB+0x118>
 200365c:	e0bffa17 	ldw	r2,-24(fp)
 2003660:	10800044 	addi	r2,r2,1
 2003664:	e0bffa15 	stw	r2,-24(fp)
 2003668:	e0bffc17 	ldw	r2,-16(fp)
 200366c:	14000d17 	ldw	r16,52(r2)
 2003670:	e0bffd17 	ldw	r2,-12(fp)
 2003674:	1009883a 	mov	r4,r2
 2003678:	01400904 	movi	r5,36
 200367c:	20059200 	call	2005920 <__mulsi3>
 2003680:	8085883a 	add	r2,r16,r2
 2003684:	10800717 	ldw	r2,28(r2)
 2003688:	e0fffa17 	ldw	r3,-24(fp)
 200368c:	18bfd716 	blt	r3,r2,20035ec <__reset+0xfdffa5ec>
 2003690:	0005883a 	mov	r2,zero
 2003694:	e6ffff04 	addi	sp,fp,-4
 2003698:	dfc00217 	ldw	ra,8(sp)
 200369c:	df000117 	ldw	fp,4(sp)
 20036a0:	dc000017 	ldw	r16,0(sp)
 20036a4:	dec00304 	addi	sp,sp,12
 20036a8:	f800283a 	ret

020036ac <DGifCloseFile>:
 20036ac:	defffb04 	addi	sp,sp,-20
 20036b0:	dfc00415 	stw	ra,16(sp)
 20036b4:	df000315 	stw	fp,12(sp)
 20036b8:	df000304 	addi	fp,sp,12
 20036bc:	e13ffe15 	stw	r4,-8(fp)
 20036c0:	e17fff15 	stw	r5,-4(fp)
 20036c4:	e0bffe17 	ldw	r2,-8(fp)
 20036c8:	10000326 	beq	r2,zero,20036d8 <DGifCloseFile+0x2c>
 20036cc:	e0bffe17 	ldw	r2,-8(fp)
 20036d0:	10801217 	ldw	r2,72(r2)
 20036d4:	1000021e 	bne	r2,zero,20036e0 <DGifCloseFile+0x34>
 20036d8:	0005883a 	mov	r2,zero
 20036dc:	00005406 	br	2003830 <DGifCloseFile+0x184>
 20036e0:	e0bffe17 	ldw	r2,-8(fp)
 20036e4:	10800c17 	ldw	r2,48(r2)
 20036e8:	10000626 	beq	r2,zero,2003704 <DGifCloseFile+0x58>
 20036ec:	e0bffe17 	ldw	r2,-8(fp)
 20036f0:	10800c17 	ldw	r2,48(r2)
 20036f4:	1009883a 	mov	r4,r2
 20036f8:	2004c380 	call	2004c38 <GifFreeMapObject>
 20036fc:	e0bffe17 	ldw	r2,-8(fp)
 2003700:	10000c15 	stw	zero,48(r2)
 2003704:	e0bffe17 	ldw	r2,-8(fp)
 2003708:	10800517 	ldw	r2,20(r2)
 200370c:	10000626 	beq	r2,zero,2003728 <DGifCloseFile+0x7c>
 2003710:	e0bffe17 	ldw	r2,-8(fp)
 2003714:	10800517 	ldw	r2,20(r2)
 2003718:	1009883a 	mov	r4,r2
 200371c:	2004c380 	call	2004c38 <GifFreeMapObject>
 2003720:	e0bffe17 	ldw	r2,-8(fp)
 2003724:	10000515 	stw	zero,20(r2)
 2003728:	e0bffe17 	ldw	r2,-8(fp)
 200372c:	10800d17 	ldw	r2,52(r2)
 2003730:	10000426 	beq	r2,zero,2003744 <DGifCloseFile+0x98>
 2003734:	e13ffe17 	ldw	r4,-8(fp)
 2003738:	20056780 	call	2005678 <GifFreeSavedImages>
 200373c:	e0bffe17 	ldw	r2,-8(fp)
 2003740:	10000d15 	stw	zero,52(r2)
 2003744:	e0bffe17 	ldw	r2,-8(fp)
 2003748:	10c00e04 	addi	r3,r2,56
 200374c:	e0bffe17 	ldw	r2,-8(fp)
 2003750:	10800f04 	addi	r2,r2,60
 2003754:	1809883a 	mov	r4,r3
 2003758:	100b883a 	mov	r5,r2
 200375c:	20052780 	call	2005278 <GifFreeExtensions>
 2003760:	e0bffe17 	ldw	r2,-8(fp)
 2003764:	10801217 	ldw	r2,72(r2)
 2003768:	e0bffd15 	stw	r2,-12(fp)
 200376c:	e0bffd17 	ldw	r2,-12(fp)
 2003770:	10800017 	ldw	r2,0(r2)
 2003774:	1080020c 	andi	r2,r2,8
 2003778:	10000d1e 	bne	r2,zero,20037b0 <DGifCloseFile+0x104>
 200377c:	e0bfff17 	ldw	r2,-4(fp)
 2003780:	10000326 	beq	r2,zero,2003790 <DGifCloseFile+0xe4>
 2003784:	e0bfff17 	ldw	r2,-4(fp)
 2003788:	00c01bc4 	movi	r3,111
 200378c:	10c00015 	stw	r3,0(r2)
 2003790:	e0bffe17 	ldw	r2,-8(fp)
 2003794:	10801217 	ldw	r2,72(r2)
 2003798:	1009883a 	mov	r4,r2
 200379c:	2007eb00 	call	2007eb0 <free>
 20037a0:	e13ffe17 	ldw	r4,-8(fp)
 20037a4:	2007eb00 	call	2007eb0 <free>
 20037a8:	0005883a 	mov	r2,zero
 20037ac:	00002006 	br	2003830 <DGifCloseFile+0x184>
 20037b0:	e0bffd17 	ldw	r2,-12(fp)
 20037b4:	10800e17 	ldw	r2,56(r2)
 20037b8:	10001226 	beq	r2,zero,2003804 <DGifCloseFile+0x158>
 20037bc:	e0bffd17 	ldw	r2,-12(fp)
 20037c0:	10800e17 	ldw	r2,56(r2)
 20037c4:	1009883a 	mov	r4,r2
 20037c8:	2006f0c0 	call	2006f0c <fclose>
 20037cc:	10000d26 	beq	r2,zero,2003804 <DGifCloseFile+0x158>
 20037d0:	e0bfff17 	ldw	r2,-4(fp)
 20037d4:	10000326 	beq	r2,zero,20037e4 <DGifCloseFile+0x138>
 20037d8:	e0bfff17 	ldw	r2,-4(fp)
 20037dc:	00c01b84 	movi	r3,110
 20037e0:	10c00015 	stw	r3,0(r2)
 20037e4:	e0bffe17 	ldw	r2,-8(fp)
 20037e8:	10801217 	ldw	r2,72(r2)
 20037ec:	1009883a 	mov	r4,r2
 20037f0:	2007eb00 	call	2007eb0 <free>
 20037f4:	e13ffe17 	ldw	r4,-8(fp)
 20037f8:	2007eb00 	call	2007eb0 <free>
 20037fc:	0005883a 	mov	r2,zero
 2003800:	00000b06 	br	2003830 <DGifCloseFile+0x184>
 2003804:	e0bffe17 	ldw	r2,-8(fp)
 2003808:	10801217 	ldw	r2,72(r2)
 200380c:	1009883a 	mov	r4,r2
 2003810:	2007eb00 	call	2007eb0 <free>
 2003814:	e13ffe17 	ldw	r4,-8(fp)
 2003818:	2007eb00 	call	2007eb0 <free>
 200381c:	e0bfff17 	ldw	r2,-4(fp)
 2003820:	10000226 	beq	r2,zero,200382c <DGifCloseFile+0x180>
 2003824:	e0bfff17 	ldw	r2,-4(fp)
 2003828:	10000015 	stw	zero,0(r2)
 200382c:	00800044 	movi	r2,1
 2003830:	e037883a 	mov	sp,fp
 2003834:	dfc00117 	ldw	ra,4(sp)
 2003838:	df000017 	ldw	fp,0(sp)
 200383c:	dec00204 	addi	sp,sp,8
 2003840:	f800283a 	ret

02003844 <DGifGetWord>:
 2003844:	defffb04 	addi	sp,sp,-20
 2003848:	dfc00415 	stw	ra,16(sp)
 200384c:	df000315 	stw	fp,12(sp)
 2003850:	df000304 	addi	fp,sp,12
 2003854:	e13ffe15 	stw	r4,-8(fp)
 2003858:	e17fff15 	stw	r5,-4(fp)
 200385c:	e0bffe17 	ldw	r2,-8(fp)
 2003860:	10801217 	ldw	r2,72(r2)
 2003864:	10800f17 	ldw	r2,60(r2)
 2003868:	10000926 	beq	r2,zero,2003890 <DGifGetWord+0x4c>
 200386c:	e0bffe17 	ldw	r2,-8(fp)
 2003870:	10801217 	ldw	r2,72(r2)
 2003874:	10800f17 	ldw	r2,60(r2)
 2003878:	e13ffe17 	ldw	r4,-8(fp)
 200387c:	e17ffd04 	addi	r5,fp,-12
 2003880:	01800084 	movi	r6,2
 2003884:	103ee83a 	callr	r2
 2003888:	10800098 	cmpnei	r2,r2,2
 200388c:	00000906 	br	20038b4 <DGifGetWord+0x70>
 2003890:	e0bffe17 	ldw	r2,-8(fp)
 2003894:	10801217 	ldw	r2,72(r2)
 2003898:	10800e17 	ldw	r2,56(r2)
 200389c:	e13ffd04 	addi	r4,fp,-12
 20038a0:	01400044 	movi	r5,1
 20038a4:	01800084 	movi	r6,2
 20038a8:	100f883a 	mov	r7,r2
 20038ac:	20078f00 	call	20078f0 <fread>
 20038b0:	10800098 	cmpnei	r2,r2,2
 20038b4:	10803fcc 	andi	r2,r2,255
 20038b8:	10000526 	beq	r2,zero,20038d0 <DGifGetWord+0x8c>
 20038bc:	e0bffe17 	ldw	r2,-8(fp)
 20038c0:	00c01984 	movi	r3,102
 20038c4:	10c01015 	stw	r3,64(r2)
 20038c8:	0005883a 	mov	r2,zero
 20038cc:	00000906 	br	20038f4 <DGifGetWord+0xb0>
 20038d0:	e0bffd03 	ldbu	r2,-12(fp)
 20038d4:	10c03fcc 	andi	r3,r2,255
 20038d8:	e0bffd43 	ldbu	r2,-11(fp)
 20038dc:	10803fcc 	andi	r2,r2,255
 20038e0:	1004923a 	slli	r2,r2,8
 20038e4:	1886b03a 	or	r3,r3,r2
 20038e8:	e0bfff17 	ldw	r2,-4(fp)
 20038ec:	10c00015 	stw	r3,0(r2)
 20038f0:	00800044 	movi	r2,1
 20038f4:	e037883a 	mov	sp,fp
 20038f8:	dfc00117 	ldw	ra,4(sp)
 20038fc:	df000017 	ldw	fp,0(sp)
 2003900:	dec00204 	addi	sp,sp,8
 2003904:	f800283a 	ret

02003908 <DGifGetCode>:
 2003908:	defffa04 	addi	sp,sp,-24
 200390c:	dfc00515 	stw	ra,20(sp)
 2003910:	df000415 	stw	fp,16(sp)
 2003914:	df000404 	addi	fp,sp,16
 2003918:	e13ffd15 	stw	r4,-12(fp)
 200391c:	e17ffe15 	stw	r5,-8(fp)
 2003920:	e1bfff15 	stw	r6,-4(fp)
 2003924:	e0bffd17 	ldw	r2,-12(fp)
 2003928:	10801217 	ldw	r2,72(r2)
 200392c:	e0bffc15 	stw	r2,-16(fp)
 2003930:	e0bffc17 	ldw	r2,-16(fp)
 2003934:	10800017 	ldw	r2,0(r2)
 2003938:	1080020c 	andi	r2,r2,8
 200393c:	1000051e 	bne	r2,zero,2003954 <DGifGetCode+0x4c>
 2003940:	e0bffd17 	ldw	r2,-12(fp)
 2003944:	00c01bc4 	movi	r3,111
 2003948:	10c01015 	stw	r3,64(r2)
 200394c:	0005883a 	mov	r2,zero
 2003950:	00000706 	br	2003970 <DGifGetCode+0x68>
 2003954:	e0bffc17 	ldw	r2,-16(fp)
 2003958:	10c00217 	ldw	r3,8(r2)
 200395c:	e0bffe17 	ldw	r2,-8(fp)
 2003960:	10c00015 	stw	r3,0(r2)
 2003964:	e13ffd17 	ldw	r4,-12(fp)
 2003968:	e17fff17 	ldw	r5,-4(fp)
 200396c:	20039840 	call	2003984 <DGifGetCodeNext>
 2003970:	e037883a 	mov	sp,fp
 2003974:	dfc00117 	ldw	ra,4(sp)
 2003978:	df000017 	ldw	fp,0(sp)
 200397c:	dec00204 	addi	sp,sp,8
 2003980:	f800283a 	ret

02003984 <DGifGetCodeNext>:
 2003984:	defffa04 	addi	sp,sp,-24
 2003988:	dfc00515 	stw	ra,20(sp)
 200398c:	df000415 	stw	fp,16(sp)
 2003990:	df000404 	addi	fp,sp,16
 2003994:	e13ffe15 	stw	r4,-8(fp)
 2003998:	e17fff15 	stw	r5,-4(fp)
 200399c:	e0bffe17 	ldw	r2,-8(fp)
 20039a0:	10801217 	ldw	r2,72(r2)
 20039a4:	e0bffc15 	stw	r2,-16(fp)
 20039a8:	e0bffe17 	ldw	r2,-8(fp)
 20039ac:	10801217 	ldw	r2,72(r2)
 20039b0:	10800f17 	ldw	r2,60(r2)
 20039b4:	10000a26 	beq	r2,zero,20039e0 <DGifGetCodeNext+0x5c>
 20039b8:	e0bffe17 	ldw	r2,-8(fp)
 20039bc:	10801217 	ldw	r2,72(r2)
 20039c0:	10800f17 	ldw	r2,60(r2)
 20039c4:	e0fffd04 	addi	r3,fp,-12
 20039c8:	e13ffe17 	ldw	r4,-8(fp)
 20039cc:	180b883a 	mov	r5,r3
 20039d0:	01800044 	movi	r6,1
 20039d4:	103ee83a 	callr	r2
 20039d8:	10800058 	cmpnei	r2,r2,1
 20039dc:	00000a06 	br	2003a08 <DGifGetCodeNext+0x84>
 20039e0:	e0bffe17 	ldw	r2,-8(fp)
 20039e4:	10801217 	ldw	r2,72(r2)
 20039e8:	10800e17 	ldw	r2,56(r2)
 20039ec:	e0fffd04 	addi	r3,fp,-12
 20039f0:	1809883a 	mov	r4,r3
 20039f4:	01400044 	movi	r5,1
 20039f8:	01800044 	movi	r6,1
 20039fc:	100f883a 	mov	r7,r2
 2003a00:	20078f00 	call	20078f0 <fread>
 2003a04:	10800058 	cmpnei	r2,r2,1
 2003a08:	10803fcc 	andi	r2,r2,255
 2003a0c:	10000526 	beq	r2,zero,2003a24 <DGifGetCodeNext+0xa0>
 2003a10:	e0bffe17 	ldw	r2,-8(fp)
 2003a14:	00c01984 	movi	r3,102
 2003a18:	10c01015 	stw	r3,64(r2)
 2003a1c:	0005883a 	mov	r2,zero
 2003a20:	00003606 	br	2003afc <DGifGetCodeNext+0x178>
 2003a24:	e0bffd03 	ldbu	r2,-12(fp)
 2003a28:	10803fcc 	andi	r2,r2,255
 2003a2c:	10002c26 	beq	r2,zero,2003ae0 <DGifGetCodeNext+0x15c>
 2003a30:	e0bffc17 	ldw	r2,-16(fp)
 2003a34:	10c01104 	addi	r3,r2,68
 2003a38:	e0bfff17 	ldw	r2,-4(fp)
 2003a3c:	10c00015 	stw	r3,0(r2)
 2003a40:	e0bfff17 	ldw	r2,-4(fp)
 2003a44:	10800017 	ldw	r2,0(r2)
 2003a48:	e0fffd03 	ldbu	r3,-12(fp)
 2003a4c:	10c00005 	stb	r3,0(r2)
 2003a50:	e0bffe17 	ldw	r2,-8(fp)
 2003a54:	10801217 	ldw	r2,72(r2)
 2003a58:	10800f17 	ldw	r2,60(r2)
 2003a5c:	10000c26 	beq	r2,zero,2003a90 <DGifGetCodeNext+0x10c>
 2003a60:	e0bffe17 	ldw	r2,-8(fp)
 2003a64:	10801217 	ldw	r2,72(r2)
 2003a68:	10800f17 	ldw	r2,60(r2)
 2003a6c:	e0ffff17 	ldw	r3,-4(fp)
 2003a70:	18c00017 	ldw	r3,0(r3)
 2003a74:	19400044 	addi	r5,r3,1
 2003a78:	e0fffd03 	ldbu	r3,-12(fp)
 2003a7c:	18c03fcc 	andi	r3,r3,255
 2003a80:	e13ffe17 	ldw	r4,-8(fp)
 2003a84:	180d883a 	mov	r6,r3
 2003a88:	103ee83a 	callr	r2
 2003a8c:	00000c06 	br	2003ac0 <DGifGetCodeNext+0x13c>
 2003a90:	e0bfff17 	ldw	r2,-4(fp)
 2003a94:	10800017 	ldw	r2,0(r2)
 2003a98:	11000044 	addi	r4,r2,1
 2003a9c:	e0bffd03 	ldbu	r2,-12(fp)
 2003aa0:	10c03fcc 	andi	r3,r2,255
 2003aa4:	e0bffe17 	ldw	r2,-8(fp)
 2003aa8:	10801217 	ldw	r2,72(r2)
 2003aac:	10800e17 	ldw	r2,56(r2)
 2003ab0:	01400044 	movi	r5,1
 2003ab4:	180d883a 	mov	r6,r3
 2003ab8:	100f883a 	mov	r7,r2
 2003abc:	20078f00 	call	20078f0 <fread>
 2003ac0:	e0fffd03 	ldbu	r3,-12(fp)
 2003ac4:	18c03fcc 	andi	r3,r3,255
 2003ac8:	10c00b26 	beq	r2,r3,2003af8 <DGifGetCodeNext+0x174>
 2003acc:	e0bffe17 	ldw	r2,-8(fp)
 2003ad0:	00c01984 	movi	r3,102
 2003ad4:	10c01015 	stw	r3,64(r2)
 2003ad8:	0005883a 	mov	r2,zero
 2003adc:	00000706 	br	2003afc <DGifGetCodeNext+0x178>
 2003ae0:	e0bfff17 	ldw	r2,-4(fp)
 2003ae4:	10000015 	stw	zero,0(r2)
 2003ae8:	e0bffc17 	ldw	r2,-16(fp)
 2003aec:	10001105 	stb	zero,68(r2)
 2003af0:	e0bffc17 	ldw	r2,-16(fp)
 2003af4:	10000d15 	stw	zero,52(r2)
 2003af8:	00800044 	movi	r2,1
 2003afc:	e037883a 	mov	sp,fp
 2003b00:	dfc00117 	ldw	ra,4(sp)
 2003b04:	df000017 	ldw	fp,0(sp)
 2003b08:	dec00204 	addi	sp,sp,8
 2003b0c:	f800283a 	ret

02003b10 <DGifSetupDecompress>:
 2003b10:	defff804 	addi	sp,sp,-32
 2003b14:	dfc00715 	stw	ra,28(sp)
 2003b18:	df000615 	stw	fp,24(sp)
 2003b1c:	df000604 	addi	fp,sp,24
 2003b20:	e13fff15 	stw	r4,-4(fp)
 2003b24:	e0bfff17 	ldw	r2,-4(fp)
 2003b28:	10801217 	ldw	r2,72(r2)
 2003b2c:	e0bffb15 	stw	r2,-20(fp)
 2003b30:	e0bfff17 	ldw	r2,-4(fp)
 2003b34:	10801217 	ldw	r2,72(r2)
 2003b38:	10800f17 	ldw	r2,60(r2)
 2003b3c:	10000a26 	beq	r2,zero,2003b68 <DGifSetupDecompress+0x58>
 2003b40:	e0bfff17 	ldw	r2,-4(fp)
 2003b44:	10801217 	ldw	r2,72(r2)
 2003b48:	10800f17 	ldw	r2,60(r2)
 2003b4c:	e0fffe04 	addi	r3,fp,-8
 2003b50:	e13fff17 	ldw	r4,-4(fp)
 2003b54:	180b883a 	mov	r5,r3
 2003b58:	01800044 	movi	r6,1
 2003b5c:	103ee83a 	callr	r2
 2003b60:	1005003a 	cmpeq	r2,r2,zero
 2003b64:	00000a06 	br	2003b90 <DGifSetupDecompress+0x80>
 2003b68:	e0bfff17 	ldw	r2,-4(fp)
 2003b6c:	10801217 	ldw	r2,72(r2)
 2003b70:	10800e17 	ldw	r2,56(r2)
 2003b74:	e0fffe04 	addi	r3,fp,-8
 2003b78:	1809883a 	mov	r4,r3
 2003b7c:	01400044 	movi	r5,1
 2003b80:	01800044 	movi	r6,1
 2003b84:	100f883a 	mov	r7,r2
 2003b88:	20078f00 	call	20078f0 <fread>
 2003b8c:	1005003a 	cmpeq	r2,r2,zero
 2003b90:	10803fcc 	andi	r2,r2,255
 2003b94:	10000226 	beq	r2,zero,2003ba0 <DGifSetupDecompress+0x90>
 2003b98:	0005883a 	mov	r2,zero
 2003b9c:	00004906 	br	2003cc4 <DGifSetupDecompress+0x1b4>
 2003ba0:	e0bffe03 	ldbu	r2,-8(fp)
 2003ba4:	10803fcc 	andi	r2,r2,255
 2003ba8:	e0bffc15 	stw	r2,-16(fp)
 2003bac:	e0bffc17 	ldw	r2,-16(fp)
 2003bb0:	10800248 	cmpgei	r2,r2,9
 2003bb4:	1000041e 	bne	r2,zero,2003bc8 <DGifSetupDecompress+0xb8>
 2003bb8:	e0bffb17 	ldw	r2,-20(fp)
 2003bbc:	10800617 	ldw	r2,24(r2)
 2003bc0:	10800850 	cmplti	r2,r2,33
 2003bc4:	1000051e 	bne	r2,zero,2003bdc <DGifSetupDecompress+0xcc>
 2003bc8:	e0bfff17 	ldw	r2,-4(fp)
 2003bcc:	00c01984 	movi	r3,102
 2003bd0:	10c01015 	stw	r3,64(r2)
 2003bd4:	0005883a 	mov	r2,zero
 2003bd8:	00003a06 	br	2003cc4 <DGifSetupDecompress+0x1b4>
 2003bdc:	e0bffb17 	ldw	r2,-20(fp)
 2003be0:	10001105 	stb	zero,68(r2)
 2003be4:	e0bffb17 	ldw	r2,-20(fp)
 2003be8:	e0fffc17 	ldw	r3,-16(fp)
 2003bec:	10c00215 	stw	r3,8(r2)
 2003bf0:	00c00044 	movi	r3,1
 2003bf4:	e0bffc17 	ldw	r2,-16(fp)
 2003bf8:	1886983a 	sll	r3,r3,r2
 2003bfc:	e0bffb17 	ldw	r2,-20(fp)
 2003c00:	10c00315 	stw	r3,12(r2)
 2003c04:	e0bffb17 	ldw	r2,-20(fp)
 2003c08:	10800317 	ldw	r2,12(r2)
 2003c0c:	10c00044 	addi	r3,r2,1
 2003c10:	e0bffb17 	ldw	r2,-20(fp)
 2003c14:	10c00415 	stw	r3,16(r2)
 2003c18:	e0bffb17 	ldw	r2,-20(fp)
 2003c1c:	10800417 	ldw	r2,16(r2)
 2003c20:	10c00044 	addi	r3,r2,1
 2003c24:	e0bffb17 	ldw	r2,-20(fp)
 2003c28:	10c00515 	stw	r3,20(r2)
 2003c2c:	e0bffc17 	ldw	r2,-16(fp)
 2003c30:	10c00044 	addi	r3,r2,1
 2003c34:	e0bffb17 	ldw	r2,-20(fp)
 2003c38:	10c00615 	stw	r3,24(r2)
 2003c3c:	e0bffb17 	ldw	r2,-20(fp)
 2003c40:	10800617 	ldw	r2,24(r2)
 2003c44:	00c00044 	movi	r3,1
 2003c48:	1886983a 	sll	r3,r3,r2
 2003c4c:	e0bffb17 	ldw	r2,-20(fp)
 2003c50:	10c00715 	stw	r3,28(r2)
 2003c54:	e0bffb17 	ldw	r2,-20(fp)
 2003c58:	10000a15 	stw	zero,40(r2)
 2003c5c:	e0bffb17 	ldw	r2,-20(fp)
 2003c60:	00c40084 	movi	r3,4098
 2003c64:	10c00815 	stw	r3,32(r2)
 2003c68:	e0bffb17 	ldw	r2,-20(fp)
 2003c6c:	10000b15 	stw	zero,44(r2)
 2003c70:	e0bffb17 	ldw	r2,-20(fp)
 2003c74:	10000c15 	stw	zero,48(r2)
 2003c78:	e0bffb17 	ldw	r2,-20(fp)
 2003c7c:	10885104 	addi	r2,r2,8516
 2003c80:	e0bffd15 	stw	r2,-12(fp)
 2003c84:	e03ffa15 	stw	zero,-24(fp)
 2003c88:	00000a06 	br	2003cb4 <DGifSetupDecompress+0x1a4>
 2003c8c:	e0bffa17 	ldw	r2,-24(fp)
 2003c90:	1085883a 	add	r2,r2,r2
 2003c94:	1085883a 	add	r2,r2,r2
 2003c98:	e0fffd17 	ldw	r3,-12(fp)
 2003c9c:	1885883a 	add	r2,r3,r2
 2003ca0:	00c40084 	movi	r3,4098
 2003ca4:	10c00015 	stw	r3,0(r2)
 2003ca8:	e0bffa17 	ldw	r2,-24(fp)
 2003cac:	10800044 	addi	r2,r2,1
 2003cb0:	e0bffa15 	stw	r2,-24(fp)
 2003cb4:	e0bffa17 	ldw	r2,-24(fp)
 2003cb8:	10840010 	cmplti	r2,r2,4096
 2003cbc:	103ff31e 	bne	r2,zero,2003c8c <__reset+0xfdffac8c>
 2003cc0:	00800044 	movi	r2,1
 2003cc4:	e037883a 	mov	sp,fp
 2003cc8:	dfc00117 	ldw	ra,4(sp)
 2003ccc:	df000017 	ldw	fp,0(sp)
 2003cd0:	dec00204 	addi	sp,sp,8
 2003cd4:	f800283a 	ret

02003cd8 <DGifDecompressLine>:
 2003cd8:	deffed04 	addi	sp,sp,-76
 2003cdc:	dfc01215 	stw	ra,72(sp)
 2003ce0:	df001115 	stw	fp,68(sp)
 2003ce4:	dc401015 	stw	r17,64(sp)
 2003ce8:	dc000f15 	stw	r16,60(sp)
 2003cec:	df001104 	addi	fp,sp,68
 2003cf0:	e13ffb15 	stw	r4,-20(fp)
 2003cf4:	e17ffc15 	stw	r5,-16(fp)
 2003cf8:	e1bffd15 	stw	r6,-12(fp)
 2003cfc:	e03fef15 	stw	zero,-68(fp)
 2003d00:	e0bffb17 	ldw	r2,-20(fp)
 2003d04:	10801217 	ldw	r2,72(r2)
 2003d08:	e0bff415 	stw	r2,-48(fp)
 2003d0c:	e0bff417 	ldw	r2,-48(fp)
 2003d10:	10800a17 	ldw	r2,40(r2)
 2003d14:	e0bff315 	stw	r2,-52(fp)
 2003d18:	e0bff417 	ldw	r2,-48(fp)
 2003d1c:	10885104 	addi	r2,r2,8516
 2003d20:	e0bff515 	stw	r2,-44(fp)
 2003d24:	e0bff417 	ldw	r2,-48(fp)
 2003d28:	108450c4 	addi	r2,r2,4419
 2003d2c:	e0bff615 	stw	r2,-40(fp)
 2003d30:	e0bff417 	ldw	r2,-48(fp)
 2003d34:	10805104 	addi	r2,r2,324
 2003d38:	e0bff715 	stw	r2,-36(fp)
 2003d3c:	e0bff417 	ldw	r2,-48(fp)
 2003d40:	10800417 	ldw	r2,16(r2)
 2003d44:	e0bff815 	stw	r2,-32(fp)
 2003d48:	e0bff417 	ldw	r2,-48(fp)
 2003d4c:	10800317 	ldw	r2,12(r2)
 2003d50:	e0bff915 	stw	r2,-28(fp)
 2003d54:	e0bff417 	ldw	r2,-48(fp)
 2003d58:	10800817 	ldw	r2,32(r2)
 2003d5c:	e0bff215 	stw	r2,-56(fp)
 2003d60:	e0bff317 	ldw	r2,-52(fp)
 2003d64:	10840010 	cmplti	r2,r2,4096
 2003d68:	1000021e 	bne	r2,zero,2003d74 <DGifDecompressLine+0x9c>
 2003d6c:	0005883a 	mov	r2,zero
 2003d70:	00010c06 	br	20041a4 <DGifDecompressLine+0x4cc>
 2003d74:	e0bff317 	ldw	r2,-52(fp)
 2003d78:	10001326 	beq	r2,zero,2003dc8 <DGifDecompressLine+0xf0>
 2003d7c:	00000d06 	br	2003db4 <DGifDecompressLine+0xdc>
 2003d80:	e0bfef17 	ldw	r2,-68(fp)
 2003d84:	10c00044 	addi	r3,r2,1
 2003d88:	e0ffef15 	stw	r3,-68(fp)
 2003d8c:	e0fffc17 	ldw	r3,-16(fp)
 2003d90:	1885883a 	add	r2,r3,r2
 2003d94:	e0fff317 	ldw	r3,-52(fp)
 2003d98:	18ffffc4 	addi	r3,r3,-1
 2003d9c:	e0fff315 	stw	r3,-52(fp)
 2003da0:	e0fff317 	ldw	r3,-52(fp)
 2003da4:	e13ff717 	ldw	r4,-36(fp)
 2003da8:	20c7883a 	add	r3,r4,r3
 2003dac:	18c00003 	ldbu	r3,0(r3)
 2003db0:	10c00005 	stb	r3,0(r2)
 2003db4:	e0bff317 	ldw	r2,-52(fp)
 2003db8:	10000326 	beq	r2,zero,2003dc8 <DGifDecompressLine+0xf0>
 2003dbc:	e0ffef17 	ldw	r3,-68(fp)
 2003dc0:	e0bffd17 	ldw	r2,-12(fp)
 2003dc4:	18bfee16 	blt	r3,r2,2003d80 <__reset+0xfdffad80>
 2003dc8:	0000ec06 	br	200417c <DGifDecompressLine+0x4a4>
 2003dcc:	e0bffa04 	addi	r2,fp,-24
 2003dd0:	e13ffb17 	ldw	r4,-20(fp)
 2003dd4:	100b883a 	mov	r5,r2
 2003dd8:	20043580 	call	2004358 <DGifDecompressInput>
 2003ddc:	1000021e 	bne	r2,zero,2003de8 <DGifDecompressLine+0x110>
 2003de0:	0005883a 	mov	r2,zero
 2003de4:	0000ef06 	br	20041a4 <DGifDecompressLine+0x4cc>
 2003de8:	e0fffa17 	ldw	r3,-24(fp)
 2003dec:	e0bff817 	ldw	r2,-32(fp)
 2003df0:	1880051e 	bne	r3,r2,2003e08 <DGifDecompressLine+0x130>
 2003df4:	e0bffb17 	ldw	r2,-20(fp)
 2003df8:	00c01c44 	movi	r3,113
 2003dfc:	10c01015 	stw	r3,64(r2)
 2003e00:	0005883a 	mov	r2,zero
 2003e04:	0000e706 	br	20041a4 <DGifDecompressLine+0x4cc>
 2003e08:	e0fffa17 	ldw	r3,-24(fp)
 2003e0c:	e0bff917 	ldw	r2,-28(fp)
 2003e10:	1880261e 	bne	r3,r2,2003eac <DGifDecompressLine+0x1d4>
 2003e14:	e03ff015 	stw	zero,-64(fp)
 2003e18:	00000a06 	br	2003e44 <DGifDecompressLine+0x16c>
 2003e1c:	e0bff017 	ldw	r2,-64(fp)
 2003e20:	1085883a 	add	r2,r2,r2
 2003e24:	1085883a 	add	r2,r2,r2
 2003e28:	e0fff517 	ldw	r3,-44(fp)
 2003e2c:	1885883a 	add	r2,r3,r2
 2003e30:	00c40084 	movi	r3,4098
 2003e34:	10c00015 	stw	r3,0(r2)
 2003e38:	e0bff017 	ldw	r2,-64(fp)
 2003e3c:	10800044 	addi	r2,r2,1
 2003e40:	e0bff015 	stw	r2,-64(fp)
 2003e44:	e0bff017 	ldw	r2,-64(fp)
 2003e48:	10840010 	cmplti	r2,r2,4096
 2003e4c:	103ff31e 	bne	r2,zero,2003e1c <__reset+0xfdffae1c>
 2003e50:	e0bff417 	ldw	r2,-48(fp)
 2003e54:	10800417 	ldw	r2,16(r2)
 2003e58:	10c00044 	addi	r3,r2,1
 2003e5c:	e0bff417 	ldw	r2,-48(fp)
 2003e60:	10c00515 	stw	r3,20(r2)
 2003e64:	e0bff417 	ldw	r2,-48(fp)
 2003e68:	10800217 	ldw	r2,8(r2)
 2003e6c:	10c00044 	addi	r3,r2,1
 2003e70:	e0bff417 	ldw	r2,-48(fp)
 2003e74:	10c00615 	stw	r3,24(r2)
 2003e78:	e0bff417 	ldw	r2,-48(fp)
 2003e7c:	10800617 	ldw	r2,24(r2)
 2003e80:	00c00044 	movi	r3,1
 2003e84:	1886983a 	sll	r3,r3,r2
 2003e88:	e0bff417 	ldw	r2,-48(fp)
 2003e8c:	10c00715 	stw	r3,28(r2)
 2003e90:	e0bff417 	ldw	r2,-48(fp)
 2003e94:	00c40084 	movi	r3,4098
 2003e98:	10c00815 	stw	r3,32(r2)
 2003e9c:	e0bff417 	ldw	r2,-48(fp)
 2003ea0:	10800817 	ldw	r2,32(r2)
 2003ea4:	e0bff215 	stw	r2,-56(fp)
 2003ea8:	0000b406 	br	200417c <DGifDecompressLine+0x4a4>
 2003eac:	e0fffa17 	ldw	r3,-24(fp)
 2003eb0:	e0bff917 	ldw	r2,-28(fp)
 2003eb4:	1880080e 	bge	r3,r2,2003ed8 <DGifDecompressLine+0x200>
 2003eb8:	e0bfef17 	ldw	r2,-68(fp)
 2003ebc:	10c00044 	addi	r3,r2,1
 2003ec0:	e0ffef15 	stw	r3,-68(fp)
 2003ec4:	e0fffc17 	ldw	r3,-16(fp)
 2003ec8:	1885883a 	add	r2,r3,r2
 2003ecc:	e0fffa17 	ldw	r3,-24(fp)
 2003ed0:	10c00005 	stb	r3,0(r2)
 2003ed4:	00007606 	br	20040b0 <DGifDecompressLine+0x3d8>
 2003ed8:	e0bffa17 	ldw	r2,-24(fp)
 2003edc:	1085883a 	add	r2,r2,r2
 2003ee0:	1085883a 	add	r2,r2,r2
 2003ee4:	e0fff517 	ldw	r3,-44(fp)
 2003ee8:	1885883a 	add	r2,r3,r2
 2003eec:	10800017 	ldw	r2,0(r2)
 2003ef0:	10840098 	cmpnei	r2,r2,4098
 2003ef4:	10002c1e 	bne	r2,zero,2003fa8 <DGifDecompressLine+0x2d0>
 2003ef8:	e0bff217 	ldw	r2,-56(fp)
 2003efc:	e0bff115 	stw	r2,-60(fp)
 2003f00:	e0bff417 	ldw	r2,-48(fp)
 2003f04:	10800517 	ldw	r2,20(r2)
 2003f08:	10ffff84 	addi	r3,r2,-2
 2003f0c:	e0bffa17 	ldw	r2,-24(fp)
 2003f10:	1880121e 	bne	r3,r2,2003f5c <DGifDecompressLine+0x284>
 2003f14:	e0bff417 	ldw	r2,-48(fp)
 2003f18:	10800517 	ldw	r2,20(r2)
 2003f1c:	10bfff84 	addi	r2,r2,-2
 2003f20:	e0fff617 	ldw	r3,-40(fp)
 2003f24:	18a3883a 	add	r17,r3,r2
 2003f28:	e0bff317 	ldw	r2,-52(fp)
 2003f2c:	10c00044 	addi	r3,r2,1
 2003f30:	e0fff315 	stw	r3,-52(fp)
 2003f34:	e0fff717 	ldw	r3,-36(fp)
 2003f38:	18a1883a 	add	r16,r3,r2
 2003f3c:	e13ff517 	ldw	r4,-44(fp)
 2003f40:	e17ff217 	ldw	r5,-56(fp)
 2003f44:	e1bff917 	ldw	r6,-28(fp)
 2003f48:	20041c00 	call	20041c0 <DGifGetPrefixChar>
 2003f4c:	80800005 	stb	r2,0(r16)
 2003f50:	80800003 	ldbu	r2,0(r16)
 2003f54:	88800005 	stb	r2,0(r17)
 2003f58:	00002706 	br	2003ff8 <DGifDecompressLine+0x320>
 2003f5c:	e0bff417 	ldw	r2,-48(fp)
 2003f60:	10800517 	ldw	r2,20(r2)
 2003f64:	10bfff84 	addi	r2,r2,-2
 2003f68:	e0fff617 	ldw	r3,-40(fp)
 2003f6c:	18a3883a 	add	r17,r3,r2
 2003f70:	e0bff317 	ldw	r2,-52(fp)
 2003f74:	10c00044 	addi	r3,r2,1
 2003f78:	e0fff315 	stw	r3,-52(fp)
 2003f7c:	e0fff717 	ldw	r3,-36(fp)
 2003f80:	18a1883a 	add	r16,r3,r2
 2003f84:	e0bffa17 	ldw	r2,-24(fp)
 2003f88:	e13ff517 	ldw	r4,-44(fp)
 2003f8c:	100b883a 	mov	r5,r2
 2003f90:	e1bff917 	ldw	r6,-28(fp)
 2003f94:	20041c00 	call	20041c0 <DGifGetPrefixChar>
 2003f98:	80800005 	stb	r2,0(r16)
 2003f9c:	80800003 	ldbu	r2,0(r16)
 2003fa0:	88800005 	stb	r2,0(r17)
 2003fa4:	00001406 	br	2003ff8 <DGifDecompressLine+0x320>
 2003fa8:	e0bffa17 	ldw	r2,-24(fp)
 2003fac:	e0bff115 	stw	r2,-60(fp)
 2003fb0:	00001106 	br	2003ff8 <DGifDecompressLine+0x320>
 2003fb4:	e0bff317 	ldw	r2,-52(fp)
 2003fb8:	10c00044 	addi	r3,r2,1
 2003fbc:	e0fff315 	stw	r3,-52(fp)
 2003fc0:	e0fff717 	ldw	r3,-36(fp)
 2003fc4:	1885883a 	add	r2,r3,r2
 2003fc8:	e0fff117 	ldw	r3,-60(fp)
 2003fcc:	e13ff617 	ldw	r4,-40(fp)
 2003fd0:	20c7883a 	add	r3,r4,r3
 2003fd4:	18c00003 	ldbu	r3,0(r3)
 2003fd8:	10c00005 	stb	r3,0(r2)
 2003fdc:	e0bff117 	ldw	r2,-60(fp)
 2003fe0:	1085883a 	add	r2,r2,r2
 2003fe4:	1085883a 	add	r2,r2,r2
 2003fe8:	e0fff517 	ldw	r3,-44(fp)
 2003fec:	1885883a 	add	r2,r3,r2
 2003ff0:	10800017 	ldw	r2,0(r2)
 2003ff4:	e0bff115 	stw	r2,-60(fp)
 2003ff8:	e0bff317 	ldw	r2,-52(fp)
 2003ffc:	1083ffc8 	cmpgei	r2,r2,4095
 2004000:	1000061e 	bne	r2,zero,200401c <DGifDecompressLine+0x344>
 2004004:	e0bff117 	ldw	r2,-60(fp)
 2004008:	e0fff917 	ldw	r3,-28(fp)
 200400c:	1880030e 	bge	r3,r2,200401c <DGifDecompressLine+0x344>
 2004010:	e0bff117 	ldw	r2,-60(fp)
 2004014:	10840010 	cmplti	r2,r2,4096
 2004018:	103fe61e 	bne	r2,zero,2003fb4 <__reset+0xfdffafb4>
 200401c:	e0bff317 	ldw	r2,-52(fp)
 2004020:	1083ffc8 	cmpgei	r2,r2,4095
 2004024:	1000031e 	bne	r2,zero,2004034 <DGifDecompressLine+0x35c>
 2004028:	e0bff117 	ldw	r2,-60(fp)
 200402c:	10840010 	cmplti	r2,r2,4096
 2004030:	1000051e 	bne	r2,zero,2004048 <DGifDecompressLine+0x370>
 2004034:	e0bffb17 	ldw	r2,-20(fp)
 2004038:	00c01c04 	movi	r3,112
 200403c:	10c01015 	stw	r3,64(r2)
 2004040:	0005883a 	mov	r2,zero
 2004044:	00005706 	br	20041a4 <DGifDecompressLine+0x4cc>
 2004048:	e0bff317 	ldw	r2,-52(fp)
 200404c:	10c00044 	addi	r3,r2,1
 2004050:	e0fff315 	stw	r3,-52(fp)
 2004054:	e0fff717 	ldw	r3,-36(fp)
 2004058:	1885883a 	add	r2,r3,r2
 200405c:	e0fff117 	ldw	r3,-60(fp)
 2004060:	10c00005 	stb	r3,0(r2)
 2004064:	00000d06 	br	200409c <DGifDecompressLine+0x3c4>
 2004068:	e0bfef17 	ldw	r2,-68(fp)
 200406c:	10c00044 	addi	r3,r2,1
 2004070:	e0ffef15 	stw	r3,-68(fp)
 2004074:	e0fffc17 	ldw	r3,-16(fp)
 2004078:	1885883a 	add	r2,r3,r2
 200407c:	e0fff317 	ldw	r3,-52(fp)
 2004080:	18ffffc4 	addi	r3,r3,-1
 2004084:	e0fff315 	stw	r3,-52(fp)
 2004088:	e0fff317 	ldw	r3,-52(fp)
 200408c:	e13ff717 	ldw	r4,-36(fp)
 2004090:	20c7883a 	add	r3,r4,r3
 2004094:	18c00003 	ldbu	r3,0(r3)
 2004098:	10c00005 	stb	r3,0(r2)
 200409c:	e0bff317 	ldw	r2,-52(fp)
 20040a0:	10000326 	beq	r2,zero,20040b0 <DGifDecompressLine+0x3d8>
 20040a4:	e0ffef17 	ldw	r3,-68(fp)
 20040a8:	e0bffd17 	ldw	r2,-12(fp)
 20040ac:	18bfee16 	blt	r3,r2,2004068 <__reset+0xfdffb068>
 20040b0:	e0bff217 	ldw	r2,-56(fp)
 20040b4:	108400a0 	cmpeqi	r2,r2,4098
 20040b8:	10002e1e 	bne	r2,zero,2004174 <DGifDecompressLine+0x49c>
 20040bc:	e0bff417 	ldw	r2,-48(fp)
 20040c0:	10800517 	ldw	r2,20(r2)
 20040c4:	1085883a 	add	r2,r2,r2
 20040c8:	1085883a 	add	r2,r2,r2
 20040cc:	10bffe04 	addi	r2,r2,-8
 20040d0:	e0fff517 	ldw	r3,-44(fp)
 20040d4:	1885883a 	add	r2,r3,r2
 20040d8:	10800017 	ldw	r2,0(r2)
 20040dc:	10840098 	cmpnei	r2,r2,4098
 20040e0:	1000241e 	bne	r2,zero,2004174 <DGifDecompressLine+0x49c>
 20040e4:	e0bff417 	ldw	r2,-48(fp)
 20040e8:	10800517 	ldw	r2,20(r2)
 20040ec:	1085883a 	add	r2,r2,r2
 20040f0:	1085883a 	add	r2,r2,r2
 20040f4:	10bffe04 	addi	r2,r2,-8
 20040f8:	e0fff517 	ldw	r3,-44(fp)
 20040fc:	1885883a 	add	r2,r3,r2
 2004100:	e0fff217 	ldw	r3,-56(fp)
 2004104:	10c00015 	stw	r3,0(r2)
 2004108:	e0bff417 	ldw	r2,-48(fp)
 200410c:	10800517 	ldw	r2,20(r2)
 2004110:	10ffff84 	addi	r3,r2,-2
 2004114:	e0bffa17 	ldw	r2,-24(fp)
 2004118:	18800b1e 	bne	r3,r2,2004148 <DGifDecompressLine+0x470>
 200411c:	e0bff417 	ldw	r2,-48(fp)
 2004120:	10800517 	ldw	r2,20(r2)
 2004124:	10bfff84 	addi	r2,r2,-2
 2004128:	e0fff617 	ldw	r3,-40(fp)
 200412c:	18a1883a 	add	r16,r3,r2
 2004130:	e13ff517 	ldw	r4,-44(fp)
 2004134:	e17ff217 	ldw	r5,-56(fp)
 2004138:	e1bff917 	ldw	r6,-28(fp)
 200413c:	20041c00 	call	20041c0 <DGifGetPrefixChar>
 2004140:	80800005 	stb	r2,0(r16)
 2004144:	00000b06 	br	2004174 <DGifDecompressLine+0x49c>
 2004148:	e0bff417 	ldw	r2,-48(fp)
 200414c:	10800517 	ldw	r2,20(r2)
 2004150:	10bfff84 	addi	r2,r2,-2
 2004154:	e0fff617 	ldw	r3,-40(fp)
 2004158:	18a1883a 	add	r16,r3,r2
 200415c:	e0bffa17 	ldw	r2,-24(fp)
 2004160:	e13ff517 	ldw	r4,-44(fp)
 2004164:	100b883a 	mov	r5,r2
 2004168:	e1bff917 	ldw	r6,-28(fp)
 200416c:	20041c00 	call	20041c0 <DGifGetPrefixChar>
 2004170:	80800005 	stb	r2,0(r16)
 2004174:	e0bffa17 	ldw	r2,-24(fp)
 2004178:	e0bff215 	stw	r2,-56(fp)
 200417c:	e0ffef17 	ldw	r3,-68(fp)
 2004180:	e0bffd17 	ldw	r2,-12(fp)
 2004184:	18bf1116 	blt	r3,r2,2003dcc <__reset+0xfdffadcc>
 2004188:	e0bff417 	ldw	r2,-48(fp)
 200418c:	e0fff217 	ldw	r3,-56(fp)
 2004190:	10c00815 	stw	r3,32(r2)
 2004194:	e0bff417 	ldw	r2,-48(fp)
 2004198:	e0fff317 	ldw	r3,-52(fp)
 200419c:	10c00a15 	stw	r3,40(r2)
 20041a0:	00800044 	movi	r2,1
 20041a4:	e6fffe04 	addi	sp,fp,-8
 20041a8:	dfc00317 	ldw	ra,12(sp)
 20041ac:	df000217 	ldw	fp,8(sp)
 20041b0:	dc400117 	ldw	r17,4(sp)
 20041b4:	dc000017 	ldw	r16,0(sp)
 20041b8:	dec00404 	addi	sp,sp,16
 20041bc:	f800283a 	ret

020041c0 <DGifGetPrefixChar>:
 20041c0:	defffb04 	addi	sp,sp,-20
 20041c4:	df000415 	stw	fp,16(sp)
 20041c8:	df000404 	addi	fp,sp,16
 20041cc:	e13ffd15 	stw	r4,-12(fp)
 20041d0:	e17ffe15 	stw	r5,-8(fp)
 20041d4:	e1bfff15 	stw	r6,-4(fp)
 20041d8:	e03ffc15 	stw	zero,-16(fp)
 20041dc:	00000c06 	br	2004210 <DGifGetPrefixChar+0x50>
 20041e0:	e0bffe17 	ldw	r2,-8(fp)
 20041e4:	10840010 	cmplti	r2,r2,4096
 20041e8:	1000021e 	bne	r2,zero,20041f4 <DGifGetPrefixChar+0x34>
 20041ec:	00840084 	movi	r2,4098
 20041f0:	00001006 	br	2004234 <DGifGetPrefixChar+0x74>
 20041f4:	e0bffe17 	ldw	r2,-8(fp)
 20041f8:	1085883a 	add	r2,r2,r2
 20041fc:	1085883a 	add	r2,r2,r2
 2004200:	e0fffd17 	ldw	r3,-12(fp)
 2004204:	1885883a 	add	r2,r3,r2
 2004208:	10800017 	ldw	r2,0(r2)
 200420c:	e0bffe15 	stw	r2,-8(fp)
 2004210:	e0bffe17 	ldw	r2,-8(fp)
 2004214:	e0ffff17 	ldw	r3,-4(fp)
 2004218:	1880050e 	bge	r3,r2,2004230 <DGifGetPrefixChar+0x70>
 200421c:	e0bffc17 	ldw	r2,-16(fp)
 2004220:	10c00044 	addi	r3,r2,1
 2004224:	e0fffc15 	stw	r3,-16(fp)
 2004228:	10840010 	cmplti	r2,r2,4096
 200422c:	103fec1e 	bne	r2,zero,20041e0 <__reset+0xfdffb1e0>
 2004230:	e0bffe17 	ldw	r2,-8(fp)
 2004234:	e037883a 	mov	sp,fp
 2004238:	df000017 	ldw	fp,0(sp)
 200423c:	dec00104 	addi	sp,sp,4
 2004240:	f800283a 	ret

02004244 <DGifGetLZCodes>:
 2004244:	defffa04 	addi	sp,sp,-24
 2004248:	dfc00515 	stw	ra,20(sp)
 200424c:	df000415 	stw	fp,16(sp)
 2004250:	df000404 	addi	fp,sp,16
 2004254:	e13ffe15 	stw	r4,-8(fp)
 2004258:	e17fff15 	stw	r5,-4(fp)
 200425c:	e0bffe17 	ldw	r2,-8(fp)
 2004260:	10801217 	ldw	r2,72(r2)
 2004264:	e0bffc15 	stw	r2,-16(fp)
 2004268:	e0bffc17 	ldw	r2,-16(fp)
 200426c:	10800017 	ldw	r2,0(r2)
 2004270:	1080020c 	andi	r2,r2,8
 2004274:	1000051e 	bne	r2,zero,200428c <DGifGetLZCodes+0x48>
 2004278:	e0bffe17 	ldw	r2,-8(fp)
 200427c:	00c01bc4 	movi	r3,111
 2004280:	10c01015 	stw	r3,64(r2)
 2004284:	0005883a 	mov	r2,zero
 2004288:	00002e06 	br	2004344 <DGifGetLZCodes+0x100>
 200428c:	e13ffe17 	ldw	r4,-8(fp)
 2004290:	e17fff17 	ldw	r5,-4(fp)
 2004294:	20043580 	call	2004358 <DGifDecompressInput>
 2004298:	1000021e 	bne	r2,zero,20042a4 <DGifGetLZCodes+0x60>
 200429c:	0005883a 	mov	r2,zero
 20042a0:	00002806 	br	2004344 <DGifGetLZCodes+0x100>
 20042a4:	e0bfff17 	ldw	r2,-4(fp)
 20042a8:	10c00017 	ldw	r3,0(r2)
 20042ac:	e0bffc17 	ldw	r2,-16(fp)
 20042b0:	10800417 	ldw	r2,16(r2)
 20042b4:	18800d1e 	bne	r3,r2,20042ec <DGifGetLZCodes+0xa8>
 20042b8:	e0bffd04 	addi	r2,fp,-12
 20042bc:	e13ffe17 	ldw	r4,-8(fp)
 20042c0:	100b883a 	mov	r5,r2
 20042c4:	20039840 	call	2003984 <DGifGetCodeNext>
 20042c8:	1000021e 	bne	r2,zero,20042d4 <DGifGetLZCodes+0x90>
 20042cc:	0005883a 	mov	r2,zero
 20042d0:	00001c06 	br	2004344 <DGifGetLZCodes+0x100>
 20042d4:	e0bffd17 	ldw	r2,-12(fp)
 20042d8:	103ff71e 	bne	r2,zero,20042b8 <__reset+0xfdffb2b8>
 20042dc:	e0bfff17 	ldw	r2,-4(fp)
 20042e0:	00ffffc4 	movi	r3,-1
 20042e4:	10c00015 	stw	r3,0(r2)
 20042e8:	00001506 	br	2004340 <DGifGetLZCodes+0xfc>
 20042ec:	e0bfff17 	ldw	r2,-4(fp)
 20042f0:	10c00017 	ldw	r3,0(r2)
 20042f4:	e0bffc17 	ldw	r2,-16(fp)
 20042f8:	10800317 	ldw	r2,12(r2)
 20042fc:	1880101e 	bne	r3,r2,2004340 <DGifGetLZCodes+0xfc>
 2004300:	e0bffc17 	ldw	r2,-16(fp)
 2004304:	10800417 	ldw	r2,16(r2)
 2004308:	10c00044 	addi	r3,r2,1
 200430c:	e0bffc17 	ldw	r2,-16(fp)
 2004310:	10c00515 	stw	r3,20(r2)
 2004314:	e0bffc17 	ldw	r2,-16(fp)
 2004318:	10800217 	ldw	r2,8(r2)
 200431c:	10c00044 	addi	r3,r2,1
 2004320:	e0bffc17 	ldw	r2,-16(fp)
 2004324:	10c00615 	stw	r3,24(r2)
 2004328:	e0bffc17 	ldw	r2,-16(fp)
 200432c:	10800617 	ldw	r2,24(r2)
 2004330:	00c00044 	movi	r3,1
 2004334:	1886983a 	sll	r3,r3,r2
 2004338:	e0bffc17 	ldw	r2,-16(fp)
 200433c:	10c00715 	stw	r3,28(r2)
 2004340:	00800044 	movi	r2,1
 2004344:	e037883a 	mov	sp,fp
 2004348:	dfc00117 	ldw	ra,4(sp)
 200434c:	df000017 	ldw	fp,0(sp)
 2004350:	dec00204 	addi	sp,sp,8
 2004354:	f800283a 	ret

02004358 <DGifDecompressInput>:
 2004358:	defffa04 	addi	sp,sp,-24
 200435c:	dfc00515 	stw	ra,20(sp)
 2004360:	df000415 	stw	fp,16(sp)
 2004364:	df000404 	addi	fp,sp,16
 2004368:	e13ffe15 	stw	r4,-8(fp)
 200436c:	e17fff15 	stw	r5,-4(fp)
 2004370:	e0bffe17 	ldw	r2,-8(fp)
 2004374:	10801217 	ldw	r2,72(r2)
 2004378:	e0bffc15 	stw	r2,-16(fp)
 200437c:	e0bffc17 	ldw	r2,-16(fp)
 2004380:	10800617 	ldw	r2,24(r2)
 2004384:	10800350 	cmplti	r2,r2,13
 2004388:	1000051e 	bne	r2,zero,20043a0 <DGifDecompressInput+0x48>
 200438c:	e0bffe17 	ldw	r2,-8(fp)
 2004390:	00c01c04 	movi	r3,112
 2004394:	10c01015 	stw	r3,64(r2)
 2004398:	0005883a 	mov	r2,zero
 200439c:	00005906 	br	2004504 <DGifDecompressInput+0x1ac>
 20043a0:	00001906 	br	2004408 <DGifDecompressInput+0xb0>
 20043a4:	e0bffc17 	ldw	r2,-16(fp)
 20043a8:	10c01104 	addi	r3,r2,68
 20043ac:	e0bffd04 	addi	r2,fp,-12
 20043b0:	e13ffe17 	ldw	r4,-8(fp)
 20043b4:	180b883a 	mov	r5,r3
 20043b8:	100d883a 	mov	r6,r2
 20043bc:	20045180 	call	2004518 <DGifBufferedInput>
 20043c0:	1000021e 	bne	r2,zero,20043cc <DGifDecompressInput+0x74>
 20043c4:	0005883a 	mov	r2,zero
 20043c8:	00004e06 	br	2004504 <DGifDecompressInput+0x1ac>
 20043cc:	e0bffc17 	ldw	r2,-16(fp)
 20043d0:	10c00c17 	ldw	r3,48(r2)
 20043d4:	e0bffd03 	ldbu	r2,-12(fp)
 20043d8:	11003fcc 	andi	r4,r2,255
 20043dc:	e0bffc17 	ldw	r2,-16(fp)
 20043e0:	10800b17 	ldw	r2,44(r2)
 20043e4:	2084983a 	sll	r2,r4,r2
 20043e8:	1886b03a 	or	r3,r3,r2
 20043ec:	e0bffc17 	ldw	r2,-16(fp)
 20043f0:	10c00c15 	stw	r3,48(r2)
 20043f4:	e0bffc17 	ldw	r2,-16(fp)
 20043f8:	10800b17 	ldw	r2,44(r2)
 20043fc:	10c00204 	addi	r3,r2,8
 2004400:	e0bffc17 	ldw	r2,-16(fp)
 2004404:	10c00b15 	stw	r3,44(r2)
 2004408:	e0bffc17 	ldw	r2,-16(fp)
 200440c:	10c00b17 	ldw	r3,44(r2)
 2004410:	e0bffc17 	ldw	r2,-16(fp)
 2004414:	10800617 	ldw	r2,24(r2)
 2004418:	18bfe216 	blt	r3,r2,20043a4 <__reset+0xfdffb3a4>
 200441c:	e0bffc17 	ldw	r2,-16(fp)
 2004420:	10c00c17 	ldw	r3,48(r2)
 2004424:	e0bffc17 	ldw	r2,-16(fp)
 2004428:	10800617 	ldw	r2,24(r2)
 200442c:	010080b4 	movhi	r4,514
 2004430:	213b6d04 	addi	r4,r4,-4684
 2004434:	1085883a 	add	r2,r2,r2
 2004438:	2085883a 	add	r2,r4,r2
 200443c:	1080000b 	ldhu	r2,0(r2)
 2004440:	10bfffcc 	andi	r2,r2,65535
 2004444:	1884703a 	and	r2,r3,r2
 2004448:	1007883a 	mov	r3,r2
 200444c:	e0bfff17 	ldw	r2,-4(fp)
 2004450:	10c00015 	stw	r3,0(r2)
 2004454:	e0bffc17 	ldw	r2,-16(fp)
 2004458:	10c00c17 	ldw	r3,48(r2)
 200445c:	e0bffc17 	ldw	r2,-16(fp)
 2004460:	10800617 	ldw	r2,24(r2)
 2004464:	1886d83a 	srl	r3,r3,r2
 2004468:	e0bffc17 	ldw	r2,-16(fp)
 200446c:	10c00c15 	stw	r3,48(r2)
 2004470:	e0bffc17 	ldw	r2,-16(fp)
 2004474:	10c00b17 	ldw	r3,44(r2)
 2004478:	e0bffc17 	ldw	r2,-16(fp)
 200447c:	10800617 	ldw	r2,24(r2)
 2004480:	1887c83a 	sub	r3,r3,r2
 2004484:	e0bffc17 	ldw	r2,-16(fp)
 2004488:	10c00b15 	stw	r3,44(r2)
 200448c:	e0bffc17 	ldw	r2,-16(fp)
 2004490:	10800517 	ldw	r2,20(r2)
 2004494:	10840048 	cmpgei	r2,r2,4097
 2004498:	1000191e 	bne	r2,zero,2004500 <DGifDecompressInput+0x1a8>
 200449c:	e0bffc17 	ldw	r2,-16(fp)
 20044a0:	10800517 	ldw	r2,20(r2)
 20044a4:	10c00044 	addi	r3,r2,1
 20044a8:	e0bffc17 	ldw	r2,-16(fp)
 20044ac:	10c00515 	stw	r3,20(r2)
 20044b0:	e0bffc17 	ldw	r2,-16(fp)
 20044b4:	10800517 	ldw	r2,20(r2)
 20044b8:	e0fffc17 	ldw	r3,-16(fp)
 20044bc:	18c00717 	ldw	r3,28(r3)
 20044c0:	18800f0e 	bge	r3,r2,2004500 <DGifDecompressInput+0x1a8>
 20044c4:	e0bffc17 	ldw	r2,-16(fp)
 20044c8:	10800617 	ldw	r2,24(r2)
 20044cc:	10800308 	cmpgei	r2,r2,12
 20044d0:	10000b1e 	bne	r2,zero,2004500 <DGifDecompressInput+0x1a8>
 20044d4:	e0bffc17 	ldw	r2,-16(fp)
 20044d8:	10800717 	ldw	r2,28(r2)
 20044dc:	1085883a 	add	r2,r2,r2
 20044e0:	1007883a 	mov	r3,r2
 20044e4:	e0bffc17 	ldw	r2,-16(fp)
 20044e8:	10c00715 	stw	r3,28(r2)
 20044ec:	e0bffc17 	ldw	r2,-16(fp)
 20044f0:	10800617 	ldw	r2,24(r2)
 20044f4:	10c00044 	addi	r3,r2,1
 20044f8:	e0bffc17 	ldw	r2,-16(fp)
 20044fc:	10c00615 	stw	r3,24(r2)
 2004500:	00800044 	movi	r2,1
 2004504:	e037883a 	mov	sp,fp
 2004508:	dfc00117 	ldw	ra,4(sp)
 200450c:	df000017 	ldw	fp,0(sp)
 2004510:	dec00204 	addi	sp,sp,8
 2004514:	f800283a 	ret

02004518 <DGifBufferedInput>:
 2004518:	defffb04 	addi	sp,sp,-20
 200451c:	dfc00415 	stw	ra,16(sp)
 2004520:	df000315 	stw	fp,12(sp)
 2004524:	df000304 	addi	fp,sp,12
 2004528:	e13ffd15 	stw	r4,-12(fp)
 200452c:	e17ffe15 	stw	r5,-8(fp)
 2004530:	e1bfff15 	stw	r6,-4(fp)
 2004534:	e0bffe17 	ldw	r2,-8(fp)
 2004538:	10800003 	ldbu	r2,0(r2)
 200453c:	10803fcc 	andi	r2,r2,255
 2004540:	10005a1e 	bne	r2,zero,20046ac <DGifBufferedInput+0x194>
 2004544:	e0bffd17 	ldw	r2,-12(fp)
 2004548:	10801217 	ldw	r2,72(r2)
 200454c:	10800f17 	ldw	r2,60(r2)
 2004550:	10000926 	beq	r2,zero,2004578 <DGifBufferedInput+0x60>
 2004554:	e0bffd17 	ldw	r2,-12(fp)
 2004558:	10801217 	ldw	r2,72(r2)
 200455c:	10800f17 	ldw	r2,60(r2)
 2004560:	e13ffd17 	ldw	r4,-12(fp)
 2004564:	e17ffe17 	ldw	r5,-8(fp)
 2004568:	01800044 	movi	r6,1
 200456c:	103ee83a 	callr	r2
 2004570:	10800058 	cmpnei	r2,r2,1
 2004574:	00000906 	br	200459c <DGifBufferedInput+0x84>
 2004578:	e0bffd17 	ldw	r2,-12(fp)
 200457c:	10801217 	ldw	r2,72(r2)
 2004580:	10800e17 	ldw	r2,56(r2)
 2004584:	e13ffe17 	ldw	r4,-8(fp)
 2004588:	01400044 	movi	r5,1
 200458c:	01800044 	movi	r6,1
 2004590:	100f883a 	mov	r7,r2
 2004594:	20078f00 	call	20078f0 <fread>
 2004598:	10800058 	cmpnei	r2,r2,1
 200459c:	10803fcc 	andi	r2,r2,255
 20045a0:	10000526 	beq	r2,zero,20045b8 <DGifBufferedInput+0xa0>
 20045a4:	e0bffd17 	ldw	r2,-12(fp)
 20045a8:	00c01984 	movi	r3,102
 20045ac:	10c01015 	stw	r3,64(r2)
 20045b0:	0005883a 	mov	r2,zero
 20045b4:	00004f06 	br	20046f4 <DGifBufferedInput+0x1dc>
 20045b8:	e0bffe17 	ldw	r2,-8(fp)
 20045bc:	10800003 	ldbu	r2,0(r2)
 20045c0:	10803fcc 	andi	r2,r2,255
 20045c4:	1000051e 	bne	r2,zero,20045dc <DGifBufferedInput+0xc4>
 20045c8:	e0bffd17 	ldw	r2,-12(fp)
 20045cc:	00c01c04 	movi	r3,112
 20045d0:	10c01015 	stw	r3,64(r2)
 20045d4:	0005883a 	mov	r2,zero
 20045d8:	00004606 	br	20046f4 <DGifBufferedInput+0x1dc>
 20045dc:	e0bffd17 	ldw	r2,-12(fp)
 20045e0:	10801217 	ldw	r2,72(r2)
 20045e4:	10800f17 	ldw	r2,60(r2)
 20045e8:	10000c26 	beq	r2,zero,200461c <DGifBufferedInput+0x104>
 20045ec:	e0bffd17 	ldw	r2,-12(fp)
 20045f0:	10801217 	ldw	r2,72(r2)
 20045f4:	10800f17 	ldw	r2,60(r2)
 20045f8:	e0fffe17 	ldw	r3,-8(fp)
 20045fc:	19400044 	addi	r5,r3,1
 2004600:	e0fffe17 	ldw	r3,-8(fp)
 2004604:	18c00003 	ldbu	r3,0(r3)
 2004608:	18c03fcc 	andi	r3,r3,255
 200460c:	e13ffd17 	ldw	r4,-12(fp)
 2004610:	180d883a 	mov	r6,r3
 2004614:	103ee83a 	callr	r2
 2004618:	00000c06 	br	200464c <DGifBufferedInput+0x134>
 200461c:	e0bffe17 	ldw	r2,-8(fp)
 2004620:	11000044 	addi	r4,r2,1
 2004624:	e0bffe17 	ldw	r2,-8(fp)
 2004628:	10800003 	ldbu	r2,0(r2)
 200462c:	10c03fcc 	andi	r3,r2,255
 2004630:	e0bffd17 	ldw	r2,-12(fp)
 2004634:	10801217 	ldw	r2,72(r2)
 2004638:	10800e17 	ldw	r2,56(r2)
 200463c:	01400044 	movi	r5,1
 2004640:	180d883a 	mov	r6,r3
 2004644:	100f883a 	mov	r7,r2
 2004648:	20078f00 	call	20078f0 <fread>
 200464c:	e0fffe17 	ldw	r3,-8(fp)
 2004650:	18c00003 	ldbu	r3,0(r3)
 2004654:	18c03fcc 	andi	r3,r3,255
 2004658:	10c00526 	beq	r2,r3,2004670 <DGifBufferedInput+0x158>
 200465c:	e0bffd17 	ldw	r2,-12(fp)
 2004660:	00c01984 	movi	r3,102
 2004664:	10c01015 	stw	r3,64(r2)
 2004668:	0005883a 	mov	r2,zero
 200466c:	00002106 	br	20046f4 <DGifBufferedInput+0x1dc>
 2004670:	e0bffe17 	ldw	r2,-8(fp)
 2004674:	10c00043 	ldbu	r3,1(r2)
 2004678:	e0bfff17 	ldw	r2,-4(fp)
 200467c:	10c00005 	stb	r3,0(r2)
 2004680:	e0bffe17 	ldw	r2,-8(fp)
 2004684:	10800044 	addi	r2,r2,1
 2004688:	00c00084 	movi	r3,2
 200468c:	10c00005 	stb	r3,0(r2)
 2004690:	e0bffe17 	ldw	r2,-8(fp)
 2004694:	10800003 	ldbu	r2,0(r2)
 2004698:	10bfffc4 	addi	r2,r2,-1
 200469c:	1007883a 	mov	r3,r2
 20046a0:	e0bffe17 	ldw	r2,-8(fp)
 20046a4:	10c00005 	stb	r3,0(r2)
 20046a8:	00001106 	br	20046f0 <DGifBufferedInput+0x1d8>
 20046ac:	e0bffe17 	ldw	r2,-8(fp)
 20046b0:	10c00044 	addi	r3,r2,1
 20046b4:	18800003 	ldbu	r2,0(r3)
 20046b8:	11000044 	addi	r4,r2,1
 20046bc:	19000005 	stb	r4,0(r3)
 20046c0:	10803fcc 	andi	r2,r2,255
 20046c4:	e0fffe17 	ldw	r3,-8(fp)
 20046c8:	1885883a 	add	r2,r3,r2
 20046cc:	10c00003 	ldbu	r3,0(r2)
 20046d0:	e0bfff17 	ldw	r2,-4(fp)
 20046d4:	10c00005 	stb	r3,0(r2)
 20046d8:	e0bffe17 	ldw	r2,-8(fp)
 20046dc:	10800003 	ldbu	r2,0(r2)
 20046e0:	10bfffc4 	addi	r2,r2,-1
 20046e4:	1007883a 	mov	r3,r2
 20046e8:	e0bffe17 	ldw	r2,-8(fp)
 20046ec:	10c00005 	stb	r3,0(r2)
 20046f0:	00800044 	movi	r2,1
 20046f4:	e037883a 	mov	sp,fp
 20046f8:	dfc00117 	ldw	ra,4(sp)
 20046fc:	df000017 	ldw	fp,0(sp)
 2004700:	dec00204 	addi	sp,sp,8
 2004704:	f800283a 	ret

02004708 <DGifSlurp>:
 2004708:	deffec04 	addi	sp,sp,-80
 200470c:	dfc01315 	stw	ra,76(sp)
 2004710:	df001215 	stw	fp,72(sp)
 2004714:	dc001115 	stw	r16,68(sp)
 2004718:	df001204 	addi	fp,sp,72
 200471c:	e13ffe15 	stw	r4,-8(fp)
 2004720:	e0bffe17 	ldw	r2,-8(fp)
 2004724:	10000f15 	stw	zero,60(r2)
 2004728:	e0bffe17 	ldw	r2,-8(fp)
 200472c:	10000e15 	stw	zero,56(r2)
 2004730:	e0bff304 	addi	r2,fp,-52
 2004734:	e13ffe17 	ldw	r4,-8(fp)
 2004738:	100b883a 	mov	r5,r2
 200473c:	2002a140 	call	2002a14 <DGifGetRecordType>
 2004740:	1000021e 	bne	r2,zero,200474c <DGifSlurp+0x44>
 2004744:	0005883a 	mov	r2,zero
 2004748:	0000e206 	br	2004ad4 <DGifSlurp+0x3cc>
 200474c:	e0bff317 	ldw	r2,-52(fp)
 2004750:	10c000e0 	cmpeqi	r3,r2,3
 2004754:	1800981e 	bne	r3,zero,20049b8 <DGifSlurp+0x2b0>
 2004758:	10c00120 	cmpeqi	r3,r2,4
 200475c:	1800d01e 	bne	r3,zero,2004aa0 <DGifSlurp+0x398>
 2004760:	108000a0 	cmpeqi	r2,r2,2
 2004764:	1000011e 	bne	r2,zero,200476c <DGifSlurp+0x64>
 2004768:	0000ce06 	br	2004aa4 <DGifSlurp+0x39c>
 200476c:	e13ffe17 	ldw	r4,-8(fp)
 2004770:	2002b600 	call	2002b60 <DGifGetImageDesc>
 2004774:	1000021e 	bne	r2,zero,2004780 <DGifSlurp+0x78>
 2004778:	0005883a 	mov	r2,zero
 200477c:	0000d506 	br	2004ad4 <DGifSlurp+0x3cc>
 2004780:	e0bffe17 	ldw	r2,-8(fp)
 2004784:	14000d17 	ldw	r16,52(r2)
 2004788:	e0bffe17 	ldw	r2,-8(fp)
 200478c:	10800617 	ldw	r2,24(r2)
 2004790:	1009883a 	mov	r4,r2
 2004794:	01400904 	movi	r5,36
 2004798:	20059200 	call	2005920 <__mulsi3>
 200479c:	10bff704 	addi	r2,r2,-36
 20047a0:	8085883a 	add	r2,r16,r2
 20047a4:	e0bff115 	stw	r2,-60(fp)
 20047a8:	e0bff117 	ldw	r2,-60(fp)
 20047ac:	10800217 	ldw	r2,8(r2)
 20047b0:	10000e0e 	bge	r2,zero,20047ec <DGifSlurp+0xe4>
 20047b4:	e0bff117 	ldw	r2,-60(fp)
 20047b8:	10800317 	ldw	r2,12(r2)
 20047bc:	10000b0e 	bge	r2,zero,20047ec <DGifSlurp+0xe4>
 20047c0:	e0bff117 	ldw	r2,-60(fp)
 20047c4:	14000217 	ldw	r16,8(r2)
 20047c8:	e0bff117 	ldw	r2,-60(fp)
 20047cc:	10800317 	ldw	r2,12(r2)
 20047d0:	01200034 	movhi	r4,32768
 20047d4:	213fffc4 	addi	r4,r4,-1
 20047d8:	100b883a 	mov	r5,r2
 20047dc:	200587c0 	call	200587c <__divsi3>
 20047e0:	1400020e 	bge	r2,r16,20047ec <DGifSlurp+0xe4>
 20047e4:	0005883a 	mov	r2,zero
 20047e8:	0000ba06 	br	2004ad4 <DGifSlurp+0x3cc>
 20047ec:	e0bff117 	ldw	r2,-60(fp)
 20047f0:	10c00217 	ldw	r3,8(r2)
 20047f4:	e0bff117 	ldw	r2,-60(fp)
 20047f8:	10800317 	ldw	r2,12(r2)
 20047fc:	1809883a 	mov	r4,r3
 2004800:	100b883a 	mov	r5,r2
 2004804:	20059200 	call	2005920 <__mulsi3>
 2004808:	e0bff215 	stw	r2,-56(fp)
 200480c:	0009883a 	mov	r4,zero
 2004810:	e17ff217 	ldw	r5,-56(fp)
 2004814:	01800044 	movi	r6,1
 2004818:	20057780 	call	2005778 <reallocarray>
 200481c:	1007883a 	mov	r3,r2
 2004820:	e0bff117 	ldw	r2,-60(fp)
 2004824:	10c00615 	stw	r3,24(r2)
 2004828:	e0bff117 	ldw	r2,-60(fp)
 200482c:	10800617 	ldw	r2,24(r2)
 2004830:	1000021e 	bne	r2,zero,200483c <DGifSlurp+0x134>
 2004834:	0005883a 	mov	r2,zero
 2004838:	0000a606 	br	2004ad4 <DGifSlurp+0x3cc>
 200483c:	e0bff117 	ldw	r2,-60(fp)
 2004840:	10800403 	ldbu	r2,16(r2)
 2004844:	10803fcc 	andi	r2,r2,255
 2004848:	10004026 	beq	r2,zero,200494c <DGifSlurp+0x244>
 200484c:	e03ff615 	stw	zero,-40(fp)
 2004850:	00800104 	movi	r2,4
 2004854:	e0bff715 	stw	r2,-36(fp)
 2004858:	00800084 	movi	r2,2
 200485c:	e0bff815 	stw	r2,-32(fp)
 2004860:	00800044 	movi	r2,1
 2004864:	e0bff915 	stw	r2,-28(fp)
 2004868:	00800204 	movi	r2,8
 200486c:	e0bffa15 	stw	r2,-24(fp)
 2004870:	00800204 	movi	r2,8
 2004874:	e0bffb15 	stw	r2,-20(fp)
 2004878:	00800104 	movi	r2,4
 200487c:	e0bffc15 	stw	r2,-16(fp)
 2004880:	00800084 	movi	r2,2
 2004884:	e0bffd15 	stw	r2,-12(fp)
 2004888:	e03fef15 	stw	zero,-68(fp)
 200488c:	00002b06 	br	200493c <DGifSlurp+0x234>
 2004890:	e0bfef17 	ldw	r2,-68(fp)
 2004894:	1085883a 	add	r2,r2,r2
 2004898:	1085883a 	add	r2,r2,r2
 200489c:	e0ffef04 	addi	r3,fp,-68
 20048a0:	1885883a 	add	r2,r3,r2
 20048a4:	10800704 	addi	r2,r2,28
 20048a8:	10800017 	ldw	r2,0(r2)
 20048ac:	e0bff015 	stw	r2,-64(fp)
 20048b0:	00001b06 	br	2004920 <DGifSlurp+0x218>
 20048b4:	e0bff117 	ldw	r2,-60(fp)
 20048b8:	14000617 	ldw	r16,24(r2)
 20048bc:	e0bff117 	ldw	r2,-60(fp)
 20048c0:	10800217 	ldw	r2,8(r2)
 20048c4:	1009883a 	mov	r4,r2
 20048c8:	e17ff017 	ldw	r5,-64(fp)
 20048cc:	20059200 	call	2005920 <__mulsi3>
 20048d0:	8087883a 	add	r3,r16,r2
 20048d4:	e0bff117 	ldw	r2,-60(fp)
 20048d8:	10800217 	ldw	r2,8(r2)
 20048dc:	e13ffe17 	ldw	r4,-8(fp)
 20048e0:	180b883a 	mov	r5,r3
 20048e4:	100d883a 	mov	r6,r2
 20048e8:	20030280 	call	2003028 <DGifGetLine>
 20048ec:	1000021e 	bne	r2,zero,20048f8 <DGifSlurp+0x1f0>
 20048f0:	0005883a 	mov	r2,zero
 20048f4:	00007706 	br	2004ad4 <DGifSlurp+0x3cc>
 20048f8:	e0bfef17 	ldw	r2,-68(fp)
 20048fc:	1085883a 	add	r2,r2,r2
 2004900:	1085883a 	add	r2,r2,r2
 2004904:	e0ffef04 	addi	r3,fp,-68
 2004908:	1885883a 	add	r2,r3,r2
 200490c:	10800b04 	addi	r2,r2,44
 2004910:	10800017 	ldw	r2,0(r2)
 2004914:	e0fff017 	ldw	r3,-64(fp)
 2004918:	1885883a 	add	r2,r3,r2
 200491c:	e0bff015 	stw	r2,-64(fp)
 2004920:	e0bff117 	ldw	r2,-60(fp)
 2004924:	10800317 	ldw	r2,12(r2)
 2004928:	e0fff017 	ldw	r3,-64(fp)
 200492c:	18bfe116 	blt	r3,r2,20048b4 <__reset+0xfdffb8b4>
 2004930:	e0bfef17 	ldw	r2,-68(fp)
 2004934:	10800044 	addi	r2,r2,1
 2004938:	e0bfef15 	stw	r2,-68(fp)
 200493c:	e0bfef17 	ldw	r2,-68(fp)
 2004940:	10800110 	cmplti	r2,r2,4
 2004944:	103fd21e 	bne	r2,zero,2004890 <__reset+0xfdffb890>
 2004948:	00000a06 	br	2004974 <DGifSlurp+0x26c>
 200494c:	e0bff117 	ldw	r2,-60(fp)
 2004950:	10c00617 	ldw	r3,24(r2)
 2004954:	e0bff217 	ldw	r2,-56(fp)
 2004958:	e13ffe17 	ldw	r4,-8(fp)
 200495c:	180b883a 	mov	r5,r3
 2004960:	100d883a 	mov	r6,r2
 2004964:	20030280 	call	2003028 <DGifGetLine>
 2004968:	1000021e 	bne	r2,zero,2004974 <DGifSlurp+0x26c>
 200496c:	0005883a 	mov	r2,zero
 2004970:	00005806 	br	2004ad4 <DGifSlurp+0x3cc>
 2004974:	e0bffe17 	ldw	r2,-8(fp)
 2004978:	10800f17 	ldw	r2,60(r2)
 200497c:	10000d26 	beq	r2,zero,20049b4 <DGifSlurp+0x2ac>
 2004980:	e0bffe17 	ldw	r2,-8(fp)
 2004984:	10c00f17 	ldw	r3,60(r2)
 2004988:	e0bff117 	ldw	r2,-60(fp)
 200498c:	10c00815 	stw	r3,32(r2)
 2004990:	e0bffe17 	ldw	r2,-8(fp)
 2004994:	10c00e17 	ldw	r3,56(r2)
 2004998:	e0bff117 	ldw	r2,-60(fp)
 200499c:	10c00715 	stw	r3,28(r2)
 20049a0:	e0bffe17 	ldw	r2,-8(fp)
 20049a4:	10000f15 	stw	zero,60(r2)
 20049a8:	e0bffe17 	ldw	r2,-8(fp)
 20049ac:	10000e15 	stw	zero,56(r2)
 20049b0:	00003c06 	br	2004aa4 <DGifSlurp+0x39c>
 20049b4:	00003b06 	br	2004aa4 <DGifSlurp+0x39c>
 20049b8:	e0fff504 	addi	r3,fp,-44
 20049bc:	e0bff404 	addi	r2,fp,-48
 20049c0:	e13ffe17 	ldw	r4,-8(fp)
 20049c4:	180b883a 	mov	r5,r3
 20049c8:	100d883a 	mov	r6,r2
 20049cc:	200321c0 	call	200321c <DGifGetExtension>
 20049d0:	1000021e 	bne	r2,zero,20049dc <DGifSlurp+0x2d4>
 20049d4:	0005883a 	mov	r2,zero
 20049d8:	00003e06 	br	2004ad4 <DGifSlurp+0x3cc>
 20049dc:	e0bff417 	ldw	r2,-48(fp)
 20049e0:	10001126 	beq	r2,zero,2004a28 <DGifSlurp+0x320>
 20049e4:	e0bffe17 	ldw	r2,-8(fp)
 20049e8:	11000e04 	addi	r4,r2,56
 20049ec:	e0bffe17 	ldw	r2,-8(fp)
 20049f0:	11400f04 	addi	r5,r2,60
 20049f4:	e0fff517 	ldw	r3,-44(fp)
 20049f8:	e0bff417 	ldw	r2,-48(fp)
 20049fc:	10800003 	ldbu	r2,0(r2)
 2004a00:	10803fcc 	andi	r2,r2,255
 2004a04:	e1bff417 	ldw	r6,-48(fp)
 2004a08:	31800044 	addi	r6,r6,1
 2004a0c:	d9800015 	stw	r6,0(sp)
 2004a10:	180d883a 	mov	r6,r3
 2004a14:	100f883a 	mov	r7,r2
 2004a18:	200510c0 	call	200510c <GifAddExtensionBlock>
 2004a1c:	1000021e 	bne	r2,zero,2004a28 <DGifSlurp+0x320>
 2004a20:	0005883a 	mov	r2,zero
 2004a24:	00002b06 	br	2004ad4 <DGifSlurp+0x3cc>
 2004a28:	00001a06 	br	2004a94 <DGifSlurp+0x38c>
 2004a2c:	e0bff404 	addi	r2,fp,-48
 2004a30:	e13ffe17 	ldw	r4,-8(fp)
 2004a34:	100b883a 	mov	r5,r2
 2004a38:	20033140 	call	2003314 <DGifGetExtensionNext>
 2004a3c:	1000021e 	bne	r2,zero,2004a48 <DGifSlurp+0x340>
 2004a40:	0005883a 	mov	r2,zero
 2004a44:	00002306 	br	2004ad4 <DGifSlurp+0x3cc>
 2004a48:	e0bff417 	ldw	r2,-48(fp)
 2004a4c:	10001126 	beq	r2,zero,2004a94 <DGifSlurp+0x38c>
 2004a50:	e0bffe17 	ldw	r2,-8(fp)
 2004a54:	11000e04 	addi	r4,r2,56
 2004a58:	e0bffe17 	ldw	r2,-8(fp)
 2004a5c:	10c00f04 	addi	r3,r2,60
 2004a60:	e0bff417 	ldw	r2,-48(fp)
 2004a64:	10800003 	ldbu	r2,0(r2)
 2004a68:	10803fcc 	andi	r2,r2,255
 2004a6c:	e17ff417 	ldw	r5,-48(fp)
 2004a70:	29400044 	addi	r5,r5,1
 2004a74:	d9400015 	stw	r5,0(sp)
 2004a78:	180b883a 	mov	r5,r3
 2004a7c:	000d883a 	mov	r6,zero
 2004a80:	100f883a 	mov	r7,r2
 2004a84:	200510c0 	call	200510c <GifAddExtensionBlock>
 2004a88:	1000021e 	bne	r2,zero,2004a94 <DGifSlurp+0x38c>
 2004a8c:	0005883a 	mov	r2,zero
 2004a90:	00001006 	br	2004ad4 <DGifSlurp+0x3cc>
 2004a94:	e0bff417 	ldw	r2,-48(fp)
 2004a98:	103fe41e 	bne	r2,zero,2004a2c <__reset+0xfdffba2c>
 2004a9c:	00000106 	br	2004aa4 <DGifSlurp+0x39c>
 2004aa0:	0001883a 	nop
 2004aa4:	e0bff317 	ldw	r2,-52(fp)
 2004aa8:	10800118 	cmpnei	r2,r2,4
 2004aac:	103f201e 	bne	r2,zero,2004730 <__reset+0xfdffb730>
 2004ab0:	e0bffe17 	ldw	r2,-8(fp)
 2004ab4:	10800617 	ldw	r2,24(r2)
 2004ab8:	1000051e 	bne	r2,zero,2004ad0 <DGifSlurp+0x3c8>
 2004abc:	e0bffe17 	ldw	r2,-8(fp)
 2004ac0:	00c01a44 	movi	r3,105
 2004ac4:	10c01015 	stw	r3,64(r2)
 2004ac8:	0005883a 	mov	r2,zero
 2004acc:	00000106 	br	2004ad4 <DGifSlurp+0x3cc>
 2004ad0:	00800044 	movi	r2,1
 2004ad4:	e6ffff04 	addi	sp,fp,-4
 2004ad8:	dfc00217 	ldw	ra,8(sp)
 2004adc:	df000117 	ldw	fp,4(sp)
 2004ae0:	dc000017 	ldw	r16,0(sp)
 2004ae4:	dec00304 	addi	sp,sp,12
 2004ae8:	f800283a 	ret

02004aec <GifBitSize>:
 2004aec:	defffd04 	addi	sp,sp,-12
 2004af0:	df000215 	stw	fp,8(sp)
 2004af4:	dc000115 	stw	r16,4(sp)
 2004af8:	df000204 	addi	fp,sp,8
 2004afc:	e13ffe15 	stw	r4,-8(fp)
 2004b00:	04000044 	movi	r16,1
 2004b04:	00000606 	br	2004b20 <GifBitSize+0x34>
 2004b08:	00800044 	movi	r2,1
 2004b0c:	1406983a 	sll	r3,r2,r16
 2004b10:	e0bffe17 	ldw	r2,-8(fp)
 2004b14:	18800116 	blt	r3,r2,2004b1c <GifBitSize+0x30>
 2004b18:	00000306 	br	2004b28 <GifBitSize+0x3c>
 2004b1c:	84000044 	addi	r16,r16,1
 2004b20:	80800250 	cmplti	r2,r16,9
 2004b24:	103ff81e 	bne	r2,zero,2004b08 <__reset+0xfdffbb08>
 2004b28:	8005883a 	mov	r2,r16
 2004b2c:	e6ffff04 	addi	sp,fp,-4
 2004b30:	df000117 	ldw	fp,4(sp)
 2004b34:	dc000017 	ldw	r16,0(sp)
 2004b38:	dec00204 	addi	sp,sp,8
 2004b3c:	f800283a 	ret

02004b40 <GifMakeMapObject>:
 2004b40:	defffb04 	addi	sp,sp,-20
 2004b44:	dfc00415 	stw	ra,16(sp)
 2004b48:	df000315 	stw	fp,12(sp)
 2004b4c:	df000304 	addi	fp,sp,12
 2004b50:	e13ffe15 	stw	r4,-8(fp)
 2004b54:	e17fff15 	stw	r5,-4(fp)
 2004b58:	e13ffe17 	ldw	r4,-8(fp)
 2004b5c:	2004aec0 	call	2004aec <GifBitSize>
 2004b60:	00c00044 	movi	r3,1
 2004b64:	1886983a 	sll	r3,r3,r2
 2004b68:	e0bffe17 	ldw	r2,-8(fp)
 2004b6c:	18800226 	beq	r3,r2,2004b78 <GifMakeMapObject+0x38>
 2004b70:	0005883a 	mov	r2,zero
 2004b74:	00002b06 	br	2004c24 <GifMakeMapObject+0xe4>
 2004b78:	01000404 	movi	r4,16
 2004b7c:	2007e9c0 	call	2007e9c <malloc>
 2004b80:	e0bffd15 	stw	r2,-12(fp)
 2004b84:	e0bffd17 	ldw	r2,-12(fp)
 2004b88:	1000021e 	bne	r2,zero,2004b94 <GifMakeMapObject+0x54>
 2004b8c:	0005883a 	mov	r2,zero
 2004b90:	00002406 	br	2004c24 <GifMakeMapObject+0xe4>
 2004b94:	e0bffe17 	ldw	r2,-8(fp)
 2004b98:	1009883a 	mov	r4,r2
 2004b9c:	014000c4 	movi	r5,3
 2004ba0:	2006ce00 	call	2006ce0 <calloc>
 2004ba4:	1007883a 	mov	r3,r2
 2004ba8:	e0bffd17 	ldw	r2,-12(fp)
 2004bac:	10c00315 	stw	r3,12(r2)
 2004bb0:	e0bffd17 	ldw	r2,-12(fp)
 2004bb4:	10800317 	ldw	r2,12(r2)
 2004bb8:	1000041e 	bne	r2,zero,2004bcc <GifMakeMapObject+0x8c>
 2004bbc:	e13ffd17 	ldw	r4,-12(fp)
 2004bc0:	2007eb00 	call	2007eb0 <free>
 2004bc4:	0005883a 	mov	r2,zero
 2004bc8:	00001606 	br	2004c24 <GifMakeMapObject+0xe4>
 2004bcc:	e0bffd17 	ldw	r2,-12(fp)
 2004bd0:	e0fffe17 	ldw	r3,-8(fp)
 2004bd4:	10c00015 	stw	r3,0(r2)
 2004bd8:	e13ffe17 	ldw	r4,-8(fp)
 2004bdc:	2004aec0 	call	2004aec <GifBitSize>
 2004be0:	1007883a 	mov	r3,r2
 2004be4:	e0bffd17 	ldw	r2,-12(fp)
 2004be8:	10c00115 	stw	r3,4(r2)
 2004bec:	e0bffd17 	ldw	r2,-12(fp)
 2004bf0:	10000205 	stb	zero,8(r2)
 2004bf4:	e0bfff17 	ldw	r2,-4(fp)
 2004bf8:	10000926 	beq	r2,zero,2004c20 <GifMakeMapObject+0xe0>
 2004bfc:	e0bffd17 	ldw	r2,-12(fp)
 2004c00:	11000317 	ldw	r4,12(r2)
 2004c04:	e0fffe17 	ldw	r3,-8(fp)
 2004c08:	1805883a 	mov	r2,r3
 2004c0c:	1085883a 	add	r2,r2,r2
 2004c10:	10c5883a 	add	r2,r2,r3
 2004c14:	e17fff17 	ldw	r5,-4(fp)
 2004c18:	100d883a 	mov	r6,r2
 2004c1c:	20087040 	call	2008704 <memcpy>
 2004c20:	e0bffd17 	ldw	r2,-12(fp)
 2004c24:	e037883a 	mov	sp,fp
 2004c28:	dfc00117 	ldw	ra,4(sp)
 2004c2c:	df000017 	ldw	fp,0(sp)
 2004c30:	dec00204 	addi	sp,sp,8
 2004c34:	f800283a 	ret

02004c38 <GifFreeMapObject>:
 2004c38:	defffd04 	addi	sp,sp,-12
 2004c3c:	dfc00215 	stw	ra,8(sp)
 2004c40:	df000115 	stw	fp,4(sp)
 2004c44:	df000104 	addi	fp,sp,4
 2004c48:	e13fff15 	stw	r4,-4(fp)
 2004c4c:	e0bfff17 	ldw	r2,-4(fp)
 2004c50:	10000626 	beq	r2,zero,2004c6c <GifFreeMapObject+0x34>
 2004c54:	e0bfff17 	ldw	r2,-4(fp)
 2004c58:	10800317 	ldw	r2,12(r2)
 2004c5c:	1009883a 	mov	r4,r2
 2004c60:	2007eb00 	call	2007eb0 <free>
 2004c64:	e13fff17 	ldw	r4,-4(fp)
 2004c68:	2007eb00 	call	2007eb0 <free>
 2004c6c:	e037883a 	mov	sp,fp
 2004c70:	dfc00117 	ldw	ra,4(sp)
 2004c74:	df000017 	ldw	fp,0(sp)
 2004c78:	dec00204 	addi	sp,sp,8
 2004c7c:	f800283a 	ret

02004c80 <GifUnionColorMap>:
 2004c80:	defff304 	addi	sp,sp,-52
 2004c84:	dfc00c15 	stw	ra,48(sp)
 2004c88:	df000b15 	stw	fp,44(sp)
 2004c8c:	dc000a15 	stw	r16,40(sp)
 2004c90:	df000b04 	addi	fp,sp,44
 2004c94:	e13ffc15 	stw	r4,-16(fp)
 2004c98:	e17ffd15 	stw	r5,-12(fp)
 2004c9c:	e1bffe15 	stw	r6,-8(fp)
 2004ca0:	e0bffd17 	ldw	r2,-12(fp)
 2004ca4:	10800017 	ldw	r2,0(r2)
 2004ca8:	e0fffc17 	ldw	r3,-16(fp)
 2004cac:	18c00017 	ldw	r3,0(r3)
 2004cb0:	10c0010e 	bge	r2,r3,2004cb8 <GifUnionColorMap+0x38>
 2004cb4:	1805883a 	mov	r2,r3
 2004cb8:	1085883a 	add	r2,r2,r2
 2004cbc:	1009883a 	mov	r4,r2
 2004cc0:	000b883a 	mov	r5,zero
 2004cc4:	2004b400 	call	2004b40 <GifMakeMapObject>
 2004cc8:	e0bff815 	stw	r2,-32(fp)
 2004ccc:	e0bff817 	ldw	r2,-32(fp)
 2004cd0:	1000021e 	bne	r2,zero,2004cdc <GifUnionColorMap+0x5c>
 2004cd4:	0005883a 	mov	r2,zero
 2004cd8:	0000dd06 	br	2005050 <GifUnionColorMap+0x3d0>
 2004cdc:	e03ff515 	stw	zero,-44(fp)
 2004ce0:	00001706 	br	2004d40 <GifUnionColorMap+0xc0>
 2004ce4:	e0bff817 	ldw	r2,-32(fp)
 2004ce8:	11000317 	ldw	r4,12(r2)
 2004cec:	e0fff517 	ldw	r3,-44(fp)
 2004cf0:	1805883a 	mov	r2,r3
 2004cf4:	1085883a 	add	r2,r2,r2
 2004cf8:	10c5883a 	add	r2,r2,r3
 2004cfc:	2087883a 	add	r3,r4,r2
 2004d00:	e0bffc17 	ldw	r2,-16(fp)
 2004d04:	11400317 	ldw	r5,12(r2)
 2004d08:	e13ff517 	ldw	r4,-44(fp)
 2004d0c:	2005883a 	mov	r2,r4
 2004d10:	1085883a 	add	r2,r2,r2
 2004d14:	1105883a 	add	r2,r2,r4
 2004d18:	2885883a 	add	r2,r5,r2
 2004d1c:	11000003 	ldbu	r4,0(r2)
 2004d20:	19000005 	stb	r4,0(r3)
 2004d24:	11000043 	ldbu	r4,1(r2)
 2004d28:	19000045 	stb	r4,1(r3)
 2004d2c:	10800083 	ldbu	r2,2(r2)
 2004d30:	18800085 	stb	r2,2(r3)
 2004d34:	e0bff517 	ldw	r2,-44(fp)
 2004d38:	10800044 	addi	r2,r2,1
 2004d3c:	e0bff515 	stw	r2,-44(fp)
 2004d40:	e0bffc17 	ldw	r2,-16(fp)
 2004d44:	10800017 	ldw	r2,0(r2)
 2004d48:	e0fff517 	ldw	r3,-44(fp)
 2004d4c:	18bfe516 	blt	r3,r2,2004ce4 <__reset+0xfdffbce4>
 2004d50:	e0bffc17 	ldw	r2,-16(fp)
 2004d54:	10800017 	ldw	r2,0(r2)
 2004d58:	e0bff715 	stw	r2,-36(fp)
 2004d5c:	00000306 	br	2004d6c <GifUnionColorMap+0xec>
 2004d60:	e0bff717 	ldw	r2,-36(fp)
 2004d64:	10bfffc4 	addi	r2,r2,-1
 2004d68:	e0bff715 	stw	r2,-36(fp)
 2004d6c:	e0bffc17 	ldw	r2,-16(fp)
 2004d70:	11000317 	ldw	r4,12(r2)
 2004d74:	e0fff717 	ldw	r3,-36(fp)
 2004d78:	1805883a 	mov	r2,r3
 2004d7c:	1085883a 	add	r2,r2,r2
 2004d80:	10c5883a 	add	r2,r2,r3
 2004d84:	10bfff44 	addi	r2,r2,-3
 2004d88:	2085883a 	add	r2,r4,r2
 2004d8c:	10800003 	ldbu	r2,0(r2)
 2004d90:	10803fcc 	andi	r2,r2,255
 2004d94:	1000161e 	bne	r2,zero,2004df0 <GifUnionColorMap+0x170>
 2004d98:	e0bffc17 	ldw	r2,-16(fp)
 2004d9c:	11000317 	ldw	r4,12(r2)
 2004da0:	e0fff717 	ldw	r3,-36(fp)
 2004da4:	1805883a 	mov	r2,r3
 2004da8:	1085883a 	add	r2,r2,r2
 2004dac:	10c5883a 	add	r2,r2,r3
 2004db0:	10bfff44 	addi	r2,r2,-3
 2004db4:	2085883a 	add	r2,r4,r2
 2004db8:	10800043 	ldbu	r2,1(r2)
 2004dbc:	10803fcc 	andi	r2,r2,255
 2004dc0:	10000b1e 	bne	r2,zero,2004df0 <GifUnionColorMap+0x170>
 2004dc4:	e0bffc17 	ldw	r2,-16(fp)
 2004dc8:	11000317 	ldw	r4,12(r2)
 2004dcc:	e0fff717 	ldw	r3,-36(fp)
 2004dd0:	1805883a 	mov	r2,r3
 2004dd4:	1085883a 	add	r2,r2,r2
 2004dd8:	10c5883a 	add	r2,r2,r3
 2004ddc:	10bfff44 	addi	r2,r2,-3
 2004de0:	2085883a 	add	r2,r4,r2
 2004de4:	10800083 	ldbu	r2,2(r2)
 2004de8:	10803fcc 	andi	r2,r2,255
 2004dec:	103fdc26 	beq	r2,zero,2004d60 <__reset+0xfdffbd60>
 2004df0:	e03ff515 	stw	zero,-44(fp)
 2004df4:	00004406 	br	2004f08 <GifUnionColorMap+0x288>
 2004df8:	e03ff615 	stw	zero,-40(fp)
 2004dfc:	00001606 	br	2004e58 <GifUnionColorMap+0x1d8>
 2004e00:	e0bffc17 	ldw	r2,-16(fp)
 2004e04:	11000317 	ldw	r4,12(r2)
 2004e08:	e0fff617 	ldw	r3,-40(fp)
 2004e0c:	1805883a 	mov	r2,r3
 2004e10:	1085883a 	add	r2,r2,r2
 2004e14:	10c5883a 	add	r2,r2,r3
 2004e18:	2089883a 	add	r4,r4,r2
 2004e1c:	e0bffd17 	ldw	r2,-12(fp)
 2004e20:	11400317 	ldw	r5,12(r2)
 2004e24:	e0fff517 	ldw	r3,-44(fp)
 2004e28:	1805883a 	mov	r2,r3
 2004e2c:	1085883a 	add	r2,r2,r2
 2004e30:	10c5883a 	add	r2,r2,r3
 2004e34:	2885883a 	add	r2,r5,r2
 2004e38:	100b883a 	mov	r5,r2
 2004e3c:	018000c4 	movi	r6,3
 2004e40:	20086880 	call	2008688 <memcmp>
 2004e44:	1000011e 	bne	r2,zero,2004e4c <GifUnionColorMap+0x1cc>
 2004e48:	00000706 	br	2004e68 <GifUnionColorMap+0x1e8>
 2004e4c:	e0bff617 	ldw	r2,-40(fp)
 2004e50:	10800044 	addi	r2,r2,1
 2004e54:	e0bff615 	stw	r2,-40(fp)
 2004e58:	e0bffc17 	ldw	r2,-16(fp)
 2004e5c:	10800017 	ldw	r2,0(r2)
 2004e60:	e0fff617 	ldw	r3,-40(fp)
 2004e64:	18bfe616 	blt	r3,r2,2004e00 <__reset+0xfdffbe00>
 2004e68:	e0bffc17 	ldw	r2,-16(fp)
 2004e6c:	10800017 	ldw	r2,0(r2)
 2004e70:	e0fff617 	ldw	r3,-40(fp)
 2004e74:	1880060e 	bge	r3,r2,2004e90 <GifUnionColorMap+0x210>
 2004e78:	e0bff517 	ldw	r2,-44(fp)
 2004e7c:	e0fffe17 	ldw	r3,-8(fp)
 2004e80:	1885883a 	add	r2,r3,r2
 2004e84:	e0fff617 	ldw	r3,-40(fp)
 2004e88:	10c00005 	stb	r3,0(r2)
 2004e8c:	00001b06 	br	2004efc <GifUnionColorMap+0x27c>
 2004e90:	e0bff817 	ldw	r2,-32(fp)
 2004e94:	11000317 	ldw	r4,12(r2)
 2004e98:	e0fff717 	ldw	r3,-36(fp)
 2004e9c:	1805883a 	mov	r2,r3
 2004ea0:	1085883a 	add	r2,r2,r2
 2004ea4:	10c5883a 	add	r2,r2,r3
 2004ea8:	2087883a 	add	r3,r4,r2
 2004eac:	e0bffd17 	ldw	r2,-12(fp)
 2004eb0:	11400317 	ldw	r5,12(r2)
 2004eb4:	e13ff517 	ldw	r4,-44(fp)
 2004eb8:	2005883a 	mov	r2,r4
 2004ebc:	1085883a 	add	r2,r2,r2
 2004ec0:	1105883a 	add	r2,r2,r4
 2004ec4:	2885883a 	add	r2,r5,r2
 2004ec8:	11000003 	ldbu	r4,0(r2)
 2004ecc:	19000005 	stb	r4,0(r3)
 2004ed0:	11000043 	ldbu	r4,1(r2)
 2004ed4:	19000045 	stb	r4,1(r3)
 2004ed8:	10800083 	ldbu	r2,2(r2)
 2004edc:	18800085 	stb	r2,2(r3)
 2004ee0:	e0bff517 	ldw	r2,-44(fp)
 2004ee4:	e0fffe17 	ldw	r3,-8(fp)
 2004ee8:	1887883a 	add	r3,r3,r2
 2004eec:	e0bff717 	ldw	r2,-36(fp)
 2004ef0:	11000044 	addi	r4,r2,1
 2004ef4:	e13ff715 	stw	r4,-36(fp)
 2004ef8:	18800005 	stb	r2,0(r3)
 2004efc:	e0bff517 	ldw	r2,-44(fp)
 2004f00:	10800044 	addi	r2,r2,1
 2004f04:	e0bff515 	stw	r2,-44(fp)
 2004f08:	e0bffd17 	ldw	r2,-12(fp)
 2004f0c:	10800017 	ldw	r2,0(r2)
 2004f10:	e0fff517 	ldw	r3,-44(fp)
 2004f14:	1880030e 	bge	r3,r2,2004f24 <GifUnionColorMap+0x2a4>
 2004f18:	e0bff717 	ldw	r2,-36(fp)
 2004f1c:	10804050 	cmplti	r2,r2,257
 2004f20:	103fb51e 	bne	r2,zero,2004df8 <__reset+0xfdffbdf8>
 2004f24:	e0bff717 	ldw	r2,-36(fp)
 2004f28:	10804050 	cmplti	r2,r2,257
 2004f2c:	1000041e 	bne	r2,zero,2004f40 <GifUnionColorMap+0x2c0>
 2004f30:	e13ff817 	ldw	r4,-32(fp)
 2004f34:	2004c380 	call	2004c38 <GifFreeMapObject>
 2004f38:	0005883a 	mov	r2,zero
 2004f3c:	00004406 	br	2005050 <GifUnionColorMap+0x3d0>
 2004f40:	e13ff717 	ldw	r4,-36(fp)
 2004f44:	2004aec0 	call	2004aec <GifBitSize>
 2004f48:	e0bff915 	stw	r2,-28(fp)
 2004f4c:	00c00044 	movi	r3,1
 2004f50:	e0bff917 	ldw	r2,-28(fp)
 2004f54:	1884983a 	sll	r2,r3,r2
 2004f58:	e0bffa15 	stw	r2,-24(fp)
 2004f5c:	e0bff817 	ldw	r2,-32(fp)
 2004f60:	10c00017 	ldw	r3,0(r2)
 2004f64:	e0bffa17 	ldw	r2,-24(fp)
 2004f68:	18803226 	beq	r3,r2,2005034 <GifUnionColorMap+0x3b4>
 2004f6c:	e0bff817 	ldw	r2,-32(fp)
 2004f70:	14000317 	ldw	r16,12(r2)
 2004f74:	e0bff717 	ldw	r2,-36(fp)
 2004f78:	e0bff615 	stw	r2,-40(fp)
 2004f7c:	00001706 	br	2004fdc <GifUnionColorMap+0x35c>
 2004f80:	e0fff617 	ldw	r3,-40(fp)
 2004f84:	1805883a 	mov	r2,r3
 2004f88:	1085883a 	add	r2,r2,r2
 2004f8c:	10c5883a 	add	r2,r2,r3
 2004f90:	808b883a 	add	r5,r16,r2
 2004f94:	e0fff617 	ldw	r3,-40(fp)
 2004f98:	1805883a 	mov	r2,r3
 2004f9c:	1085883a 	add	r2,r2,r2
 2004fa0:	10c5883a 	add	r2,r2,r3
 2004fa4:	8087883a 	add	r3,r16,r2
 2004fa8:	e13ff617 	ldw	r4,-40(fp)
 2004fac:	2005883a 	mov	r2,r4
 2004fb0:	1085883a 	add	r2,r2,r2
 2004fb4:	1105883a 	add	r2,r2,r4
 2004fb8:	8085883a 	add	r2,r16,r2
 2004fbc:	10000085 	stb	zero,2(r2)
 2004fc0:	10800083 	ldbu	r2,2(r2)
 2004fc4:	18800045 	stb	r2,1(r3)
 2004fc8:	18800043 	ldbu	r2,1(r3)
 2004fcc:	28800005 	stb	r2,0(r5)
 2004fd0:	e0bff617 	ldw	r2,-40(fp)
 2004fd4:	10800044 	addi	r2,r2,1
 2004fd8:	e0bff615 	stw	r2,-40(fp)
 2004fdc:	e0fff617 	ldw	r3,-40(fp)
 2004fe0:	e0bffa17 	ldw	r2,-24(fp)
 2004fe4:	18bfe616 	blt	r3,r2,2004f80 <__reset+0xfdffbf80>
 2004fe8:	e0bff817 	ldw	r2,-32(fp)
 2004fec:	10800017 	ldw	r2,0(r2)
 2004ff0:	e0fffa17 	ldw	r3,-24(fp)
 2004ff4:	18800f0e 	bge	r3,r2,2005034 <GifUnionColorMap+0x3b4>
 2004ff8:	e0bffa17 	ldw	r2,-24(fp)
 2004ffc:	8009883a 	mov	r4,r16
 2005000:	100b883a 	mov	r5,r2
 2005004:	018000c4 	movi	r6,3
 2005008:	20057780 	call	2005778 <reallocarray>
 200500c:	e0bffb15 	stw	r2,-20(fp)
 2005010:	e0bffb17 	ldw	r2,-20(fp)
 2005014:	1000041e 	bne	r2,zero,2005028 <GifUnionColorMap+0x3a8>
 2005018:	e13ff817 	ldw	r4,-32(fp)
 200501c:	2004c380 	call	2004c38 <GifFreeMapObject>
 2005020:	0005883a 	mov	r2,zero
 2005024:	00000a06 	br	2005050 <GifUnionColorMap+0x3d0>
 2005028:	e0bff817 	ldw	r2,-32(fp)
 200502c:	e0fffb17 	ldw	r3,-20(fp)
 2005030:	10c00315 	stw	r3,12(r2)
 2005034:	e0bff817 	ldw	r2,-32(fp)
 2005038:	e0fffa17 	ldw	r3,-24(fp)
 200503c:	10c00015 	stw	r3,0(r2)
 2005040:	e0bff817 	ldw	r2,-32(fp)
 2005044:	e0fff917 	ldw	r3,-28(fp)
 2005048:	10c00115 	stw	r3,4(r2)
 200504c:	e0bff817 	ldw	r2,-32(fp)
 2005050:	e6ffff04 	addi	sp,fp,-4
 2005054:	dfc00217 	ldw	ra,8(sp)
 2005058:	df000117 	ldw	fp,4(sp)
 200505c:	dc000017 	ldw	r16,0(sp)
 2005060:	dec00304 	addi	sp,sp,12
 2005064:	f800283a 	ret

02005068 <GifApplyTranslation>:
 2005068:	defffa04 	addi	sp,sp,-24
 200506c:	dfc00515 	stw	ra,20(sp)
 2005070:	df000415 	stw	fp,16(sp)
 2005074:	dc400315 	stw	r17,12(sp)
 2005078:	dc000215 	stw	r16,8(sp)
 200507c:	df000404 	addi	fp,sp,16
 2005080:	e13ffc15 	stw	r4,-16(fp)
 2005084:	e17ffd15 	stw	r5,-12(fp)
 2005088:	e0bffc17 	ldw	r2,-16(fp)
 200508c:	10c00317 	ldw	r3,12(r2)
 2005090:	e0bffc17 	ldw	r2,-16(fp)
 2005094:	10800217 	ldw	r2,8(r2)
 2005098:	1809883a 	mov	r4,r3
 200509c:	100b883a 	mov	r5,r2
 20050a0:	20059200 	call	2005920 <__mulsi3>
 20050a4:	1023883a 	mov	r17,r2
 20050a8:	0021883a 	mov	r16,zero
 20050ac:	00000f06 	br	20050ec <GifApplyTranslation+0x84>
 20050b0:	e0bffc17 	ldw	r2,-16(fp)
 20050b4:	10c00617 	ldw	r3,24(r2)
 20050b8:	8005883a 	mov	r2,r16
 20050bc:	1885883a 	add	r2,r3,r2
 20050c0:	e0fffc17 	ldw	r3,-16(fp)
 20050c4:	19000617 	ldw	r4,24(r3)
 20050c8:	8007883a 	mov	r3,r16
 20050cc:	20c7883a 	add	r3,r4,r3
 20050d0:	18c00003 	ldbu	r3,0(r3)
 20050d4:	18c03fcc 	andi	r3,r3,255
 20050d8:	e13ffd17 	ldw	r4,-12(fp)
 20050dc:	20c7883a 	add	r3,r4,r3
 20050e0:	18c00003 	ldbu	r3,0(r3)
 20050e4:	10c00005 	stb	r3,0(r2)
 20050e8:	84000044 	addi	r16,r16,1
 20050ec:	847ff016 	blt	r16,r17,20050b0 <__reset+0xfdffc0b0>
 20050f0:	e6fffe04 	addi	sp,fp,-8
 20050f4:	dfc00317 	ldw	ra,12(sp)
 20050f8:	df000217 	ldw	fp,8(sp)
 20050fc:	dc400117 	ldw	r17,4(sp)
 2005100:	dc000017 	ldw	r16,0(sp)
 2005104:	dec00404 	addi	sp,sp,16
 2005108:	f800283a 	ret

0200510c <GifAddExtensionBlock>:
 200510c:	defff504 	addi	sp,sp,-44
 2005110:	dfc00a15 	stw	ra,40(sp)
 2005114:	df000915 	stw	fp,36(sp)
 2005118:	dc000815 	stw	r16,32(sp)
 200511c:	df000904 	addi	fp,sp,36
 2005120:	e13ffb15 	stw	r4,-20(fp)
 2005124:	e17ffc15 	stw	r5,-16(fp)
 2005128:	e1bffd15 	stw	r6,-12(fp)
 200512c:	e1fffe15 	stw	r7,-8(fp)
 2005130:	e0bffc17 	ldw	r2,-16(fp)
 2005134:	10800017 	ldw	r2,0(r2)
 2005138:	1000061e 	bne	r2,zero,2005154 <GifAddExtensionBlock+0x48>
 200513c:	01000304 	movi	r4,12
 2005140:	2007e9c0 	call	2007e9c <malloc>
 2005144:	1007883a 	mov	r3,r2
 2005148:	e0bffc17 	ldw	r2,-16(fp)
 200514c:	10c00015 	stw	r3,0(r2)
 2005150:	00001106 	br	2005198 <GifAddExtensionBlock+0x8c>
 2005154:	e0bffc17 	ldw	r2,-16(fp)
 2005158:	10c00017 	ldw	r3,0(r2)
 200515c:	e0bffb17 	ldw	r2,-20(fp)
 2005160:	10800017 	ldw	r2,0(r2)
 2005164:	10800044 	addi	r2,r2,1
 2005168:	1809883a 	mov	r4,r3
 200516c:	100b883a 	mov	r5,r2
 2005170:	01800304 	movi	r6,12
 2005174:	20057780 	call	2005778 <reallocarray>
 2005178:	e0bff715 	stw	r2,-36(fp)
 200517c:	e0bff717 	ldw	r2,-36(fp)
 2005180:	1000021e 	bne	r2,zero,200518c <GifAddExtensionBlock+0x80>
 2005184:	0005883a 	mov	r2,zero
 2005188:	00003506 	br	2005260 <GifAddExtensionBlock+0x154>
 200518c:	e0bffc17 	ldw	r2,-16(fp)
 2005190:	e0fff717 	ldw	r3,-36(fp)
 2005194:	10c00015 	stw	r3,0(r2)
 2005198:	e0bffc17 	ldw	r2,-16(fp)
 200519c:	10800017 	ldw	r2,0(r2)
 20051a0:	1000021e 	bne	r2,zero,20051ac <GifAddExtensionBlock+0xa0>
 20051a4:	0005883a 	mov	r2,zero
 20051a8:	00002d06 	br	2005260 <GifAddExtensionBlock+0x154>
 20051ac:	e0bffb17 	ldw	r2,-20(fp)
 20051b0:	10800017 	ldw	r2,0(r2)
 20051b4:	e0bff815 	stw	r2,-32(fp)
 20051b8:	e0bffc17 	ldw	r2,-16(fp)
 20051bc:	14000017 	ldw	r16,0(r2)
 20051c0:	e0bff817 	ldw	r2,-32(fp)
 20051c4:	1009883a 	mov	r4,r2
 20051c8:	01400304 	movi	r5,12
 20051cc:	20059200 	call	2005920 <__mulsi3>
 20051d0:	8085883a 	add	r2,r16,r2
 20051d4:	e0bff915 	stw	r2,-28(fp)
 20051d8:	e0bff917 	ldw	r2,-28(fp)
 20051dc:	e0bffa15 	stw	r2,-24(fp)
 20051e0:	e0bffb17 	ldw	r2,-20(fp)
 20051e4:	10800017 	ldw	r2,0(r2)
 20051e8:	10c00044 	addi	r3,r2,1
 20051ec:	e0bffb17 	ldw	r2,-20(fp)
 20051f0:	10c00015 	stw	r3,0(r2)
 20051f4:	e0bffa17 	ldw	r2,-24(fp)
 20051f8:	e0fffd17 	ldw	r3,-12(fp)
 20051fc:	10c00215 	stw	r3,8(r2)
 2005200:	e0fffe17 	ldw	r3,-8(fp)
 2005204:	e0bffa17 	ldw	r2,-24(fp)
 2005208:	10c00015 	stw	r3,0(r2)
 200520c:	e0bffa17 	ldw	r2,-24(fp)
 2005210:	10800017 	ldw	r2,0(r2)
 2005214:	1009883a 	mov	r4,r2
 2005218:	2007e9c0 	call	2007e9c <malloc>
 200521c:	1007883a 	mov	r3,r2
 2005220:	e0bffa17 	ldw	r2,-24(fp)
 2005224:	10c00115 	stw	r3,4(r2)
 2005228:	e0bffa17 	ldw	r2,-24(fp)
 200522c:	10800117 	ldw	r2,4(r2)
 2005230:	1000021e 	bne	r2,zero,200523c <GifAddExtensionBlock+0x130>
 2005234:	0005883a 	mov	r2,zero
 2005238:	00000906 	br	2005260 <GifAddExtensionBlock+0x154>
 200523c:	e0800217 	ldw	r2,8(fp)
 2005240:	10000626 	beq	r2,zero,200525c <GifAddExtensionBlock+0x150>
 2005244:	e0bffa17 	ldw	r2,-24(fp)
 2005248:	10800117 	ldw	r2,4(r2)
 200524c:	1009883a 	mov	r4,r2
 2005250:	e1400217 	ldw	r5,8(fp)
 2005254:	e1bffe17 	ldw	r6,-8(fp)
 2005258:	20087040 	call	2008704 <memcpy>
 200525c:	00800044 	movi	r2,1
 2005260:	e6ffff04 	addi	sp,fp,-4
 2005264:	dfc00217 	ldw	ra,8(sp)
 2005268:	df000117 	ldw	fp,4(sp)
 200526c:	dc000017 	ldw	r16,0(sp)
 2005270:	dec00304 	addi	sp,sp,12
 2005274:	f800283a 	ret

02005278 <GifFreeExtensions>:
 2005278:	defffa04 	addi	sp,sp,-24
 200527c:	dfc00515 	stw	ra,20(sp)
 2005280:	df000415 	stw	fp,16(sp)
 2005284:	dc000315 	stw	r16,12(sp)
 2005288:	df000404 	addi	fp,sp,16
 200528c:	e13ffd15 	stw	r4,-12(fp)
 2005290:	e17ffe15 	stw	r5,-8(fp)
 2005294:	e0bffe17 	ldw	r2,-8(fp)
 2005298:	10800017 	ldw	r2,0(r2)
 200529c:	1000011e 	bne	r2,zero,20052a4 <GifFreeExtensions+0x2c>
 20052a0:	00001d06 	br	2005318 <GifFreeExtensions+0xa0>
 20052a4:	e0bffe17 	ldw	r2,-8(fp)
 20052a8:	10800017 	ldw	r2,0(r2)
 20052ac:	e0bffc15 	stw	r2,-16(fp)
 20052b0:	00000706 	br	20052d0 <GifFreeExtensions+0x58>
 20052b4:	e0bffc17 	ldw	r2,-16(fp)
 20052b8:	10800117 	ldw	r2,4(r2)
 20052bc:	1009883a 	mov	r4,r2
 20052c0:	2007eb00 	call	2007eb0 <free>
 20052c4:	e0bffc17 	ldw	r2,-16(fp)
 20052c8:	10800304 	addi	r2,r2,12
 20052cc:	e0bffc15 	stw	r2,-16(fp)
 20052d0:	e0bffe17 	ldw	r2,-8(fp)
 20052d4:	14000017 	ldw	r16,0(r2)
 20052d8:	e0bffd17 	ldw	r2,-12(fp)
 20052dc:	10800017 	ldw	r2,0(r2)
 20052e0:	1009883a 	mov	r4,r2
 20052e4:	01400304 	movi	r5,12
 20052e8:	20059200 	call	2005920 <__mulsi3>
 20052ec:	8085883a 	add	r2,r16,r2
 20052f0:	e0fffc17 	ldw	r3,-16(fp)
 20052f4:	18bfef36 	bltu	r3,r2,20052b4 <__reset+0xfdffc2b4>
 20052f8:	e0bffe17 	ldw	r2,-8(fp)
 20052fc:	10800017 	ldw	r2,0(r2)
 2005300:	1009883a 	mov	r4,r2
 2005304:	2007eb00 	call	2007eb0 <free>
 2005308:	e0bffe17 	ldw	r2,-8(fp)
 200530c:	10000015 	stw	zero,0(r2)
 2005310:	e0bffd17 	ldw	r2,-12(fp)
 2005314:	10000015 	stw	zero,0(r2)
 2005318:	e6ffff04 	addi	sp,fp,-4
 200531c:	dfc00217 	ldw	ra,8(sp)
 2005320:	df000117 	ldw	fp,4(sp)
 2005324:	dc000017 	ldw	r16,0(sp)
 2005328:	dec00304 	addi	sp,sp,12
 200532c:	f800283a 	ret

02005330 <FreeLastSavedImage>:
 2005330:	defffb04 	addi	sp,sp,-20
 2005334:	dfc00415 	stw	ra,16(sp)
 2005338:	df000315 	stw	fp,12(sp)
 200533c:	dc000215 	stw	r16,8(sp)
 2005340:	df000304 	addi	fp,sp,12
 2005344:	e13ffe15 	stw	r4,-8(fp)
 2005348:	e0bffe17 	ldw	r2,-8(fp)
 200534c:	10000326 	beq	r2,zero,200535c <FreeLastSavedImage+0x2c>
 2005350:	e0bffe17 	ldw	r2,-8(fp)
 2005354:	10800d17 	ldw	r2,52(r2)
 2005358:	1000011e 	bne	r2,zero,2005360 <FreeLastSavedImage+0x30>
 200535c:	00002506 	br	20053f4 <FreeLastSavedImage+0xc4>
 2005360:	e0bffe17 	ldw	r2,-8(fp)
 2005364:	10800617 	ldw	r2,24(r2)
 2005368:	10ffffc4 	addi	r3,r2,-1
 200536c:	e0bffe17 	ldw	r2,-8(fp)
 2005370:	10c00615 	stw	r3,24(r2)
 2005374:	e0bffe17 	ldw	r2,-8(fp)
 2005378:	14000d17 	ldw	r16,52(r2)
 200537c:	e0bffe17 	ldw	r2,-8(fp)
 2005380:	10800617 	ldw	r2,24(r2)
 2005384:	1009883a 	mov	r4,r2
 2005388:	01400904 	movi	r5,36
 200538c:	20059200 	call	2005920 <__mulsi3>
 2005390:	8085883a 	add	r2,r16,r2
 2005394:	e0bffd15 	stw	r2,-12(fp)
 2005398:	e0bffd17 	ldw	r2,-12(fp)
 200539c:	10800517 	ldw	r2,20(r2)
 20053a0:	10000626 	beq	r2,zero,20053bc <FreeLastSavedImage+0x8c>
 20053a4:	e0bffd17 	ldw	r2,-12(fp)
 20053a8:	10800517 	ldw	r2,20(r2)
 20053ac:	1009883a 	mov	r4,r2
 20053b0:	2004c380 	call	2004c38 <GifFreeMapObject>
 20053b4:	e0bffd17 	ldw	r2,-12(fp)
 20053b8:	10000515 	stw	zero,20(r2)
 20053bc:	e0bffd17 	ldw	r2,-12(fp)
 20053c0:	10800617 	ldw	r2,24(r2)
 20053c4:	10000426 	beq	r2,zero,20053d8 <FreeLastSavedImage+0xa8>
 20053c8:	e0bffd17 	ldw	r2,-12(fp)
 20053cc:	10800617 	ldw	r2,24(r2)
 20053d0:	1009883a 	mov	r4,r2
 20053d4:	2007eb00 	call	2007eb0 <free>
 20053d8:	e0bffd17 	ldw	r2,-12(fp)
 20053dc:	10c00704 	addi	r3,r2,28
 20053e0:	e0bffd17 	ldw	r2,-12(fp)
 20053e4:	10800804 	addi	r2,r2,32
 20053e8:	1809883a 	mov	r4,r3
 20053ec:	100b883a 	mov	r5,r2
 20053f0:	20052780 	call	2005278 <GifFreeExtensions>
 20053f4:	e6ffff04 	addi	sp,fp,-4
 20053f8:	dfc00217 	ldw	ra,8(sp)
 20053fc:	df000117 	ldw	fp,4(sp)
 2005400:	dc000017 	ldw	r16,0(sp)
 2005404:	dec00304 	addi	sp,sp,12
 2005408:	f800283a 	ret

0200540c <GifMakeSavedImage>:
 200540c:	defff904 	addi	sp,sp,-28
 2005410:	dfc00615 	stw	ra,24(sp)
 2005414:	df000515 	stw	fp,20(sp)
 2005418:	dc400415 	stw	r17,16(sp)
 200541c:	dc000315 	stw	r16,12(sp)
 2005420:	df000504 	addi	fp,sp,20
 2005424:	e13ffc15 	stw	r4,-16(fp)
 2005428:	e17ffd15 	stw	r5,-12(fp)
 200542c:	e0bffc17 	ldw	r2,-16(fp)
 2005430:	10800d17 	ldw	r2,52(r2)
 2005434:	1000061e 	bne	r2,zero,2005450 <GifMakeSavedImage+0x44>
 2005438:	01000904 	movi	r4,36
 200543c:	2007e9c0 	call	2007e9c <malloc>
 2005440:	1007883a 	mov	r3,r2
 2005444:	e0bffc17 	ldw	r2,-16(fp)
 2005448:	10c00d15 	stw	r3,52(r2)
 200544c:	00000c06 	br	2005480 <GifMakeSavedImage+0x74>
 2005450:	e0bffc17 	ldw	r2,-16(fp)
 2005454:	10c00d17 	ldw	r3,52(r2)
 2005458:	e0bffc17 	ldw	r2,-16(fp)
 200545c:	10800617 	ldw	r2,24(r2)
 2005460:	10800044 	addi	r2,r2,1
 2005464:	1809883a 	mov	r4,r3
 2005468:	100b883a 	mov	r5,r2
 200546c:	01800904 	movi	r6,36
 2005470:	20057780 	call	2005778 <reallocarray>
 2005474:	1007883a 	mov	r3,r2
 2005478:	e0bffc17 	ldw	r2,-16(fp)
 200547c:	10c00d15 	stw	r3,52(r2)
 2005480:	e0bffc17 	ldw	r2,-16(fp)
 2005484:	10800d17 	ldw	r2,52(r2)
 2005488:	1000021e 	bne	r2,zero,2005494 <GifMakeSavedImage+0x88>
 200548c:	0005883a 	mov	r2,zero
 2005490:	00007206 	br	200565c <GifMakeSavedImage+0x250>
 2005494:	e0bffc17 	ldw	r2,-16(fp)
 2005498:	14000d17 	ldw	r16,52(r2)
 200549c:	e0bffc17 	ldw	r2,-16(fp)
 20054a0:	10800617 	ldw	r2,24(r2)
 20054a4:	11000044 	addi	r4,r2,1
 20054a8:	e0fffc17 	ldw	r3,-16(fp)
 20054ac:	19000615 	stw	r4,24(r3)
 20054b0:	1009883a 	mov	r4,r2
 20054b4:	01400904 	movi	r5,36
 20054b8:	20059200 	call	2005920 <__mulsi3>
 20054bc:	8085883a 	add	r2,r16,r2
 20054c0:	e0bffb15 	stw	r2,-20(fp)
 20054c4:	e13ffb17 	ldw	r4,-20(fp)
 20054c8:	000b883a 	mov	r5,zero
 20054cc:	01800904 	movi	r6,36
 20054d0:	20088100 	call	2008810 <memset>
 20054d4:	e0bffd17 	ldw	r2,-12(fp)
 20054d8:	10005f26 	beq	r2,zero,2005658 <GifMakeSavedImage+0x24c>
 20054dc:	e13ffb17 	ldw	r4,-20(fp)
 20054e0:	e17ffd17 	ldw	r5,-12(fp)
 20054e4:	01800904 	movi	r6,36
 20054e8:	20087040 	call	2008704 <memcpy>
 20054ec:	e0bffb17 	ldw	r2,-20(fp)
 20054f0:	10800517 	ldw	r2,20(r2)
 20054f4:	10001326 	beq	r2,zero,2005544 <GifMakeSavedImage+0x138>
 20054f8:	e0bffd17 	ldw	r2,-12(fp)
 20054fc:	10800517 	ldw	r2,20(r2)
 2005500:	10c00017 	ldw	r3,0(r2)
 2005504:	e0bffd17 	ldw	r2,-12(fp)
 2005508:	10800517 	ldw	r2,20(r2)
 200550c:	10800317 	ldw	r2,12(r2)
 2005510:	1809883a 	mov	r4,r3
 2005514:	100b883a 	mov	r5,r2
 2005518:	2004b400 	call	2004b40 <GifMakeMapObject>
 200551c:	1007883a 	mov	r3,r2
 2005520:	e0bffb17 	ldw	r2,-20(fp)
 2005524:	10c00515 	stw	r3,20(r2)
 2005528:	e0bffb17 	ldw	r2,-20(fp)
 200552c:	10800517 	ldw	r2,20(r2)
 2005530:	1000041e 	bne	r2,zero,2005544 <GifMakeSavedImage+0x138>
 2005534:	e13ffc17 	ldw	r4,-16(fp)
 2005538:	20053300 	call	2005330 <FreeLastSavedImage>
 200553c:	0005883a 	mov	r2,zero
 2005540:	00004606 	br	200565c <GifMakeSavedImage+0x250>
 2005544:	e0bffd17 	ldw	r2,-12(fp)
 2005548:	10c00317 	ldw	r3,12(r2)
 200554c:	e0bffd17 	ldw	r2,-12(fp)
 2005550:	10800217 	ldw	r2,8(r2)
 2005554:	1809883a 	mov	r4,r3
 2005558:	100b883a 	mov	r5,r2
 200555c:	20059200 	call	2005920 <__mulsi3>
 2005560:	0009883a 	mov	r4,zero
 2005564:	100b883a 	mov	r5,r2
 2005568:	01800044 	movi	r6,1
 200556c:	20057780 	call	2005778 <reallocarray>
 2005570:	1007883a 	mov	r3,r2
 2005574:	e0bffb17 	ldw	r2,-20(fp)
 2005578:	10c00615 	stw	r3,24(r2)
 200557c:	e0bffb17 	ldw	r2,-20(fp)
 2005580:	10800617 	ldw	r2,24(r2)
 2005584:	1000041e 	bne	r2,zero,2005598 <GifMakeSavedImage+0x18c>
 2005588:	e13ffc17 	ldw	r4,-16(fp)
 200558c:	20053300 	call	2005330 <FreeLastSavedImage>
 2005590:	0005883a 	mov	r2,zero
 2005594:	00003106 	br	200565c <GifMakeSavedImage+0x250>
 2005598:	e0bffb17 	ldw	r2,-20(fp)
 200559c:	14400617 	ldw	r17,24(r2)
 20055a0:	e0bffd17 	ldw	r2,-12(fp)
 20055a4:	14000617 	ldw	r16,24(r2)
 20055a8:	e0bffd17 	ldw	r2,-12(fp)
 20055ac:	10800317 	ldw	r2,12(r2)
 20055b0:	1007883a 	mov	r3,r2
 20055b4:	e0bffd17 	ldw	r2,-12(fp)
 20055b8:	10800217 	ldw	r2,8(r2)
 20055bc:	1809883a 	mov	r4,r3
 20055c0:	100b883a 	mov	r5,r2
 20055c4:	20059200 	call	2005920 <__mulsi3>
 20055c8:	8809883a 	mov	r4,r17
 20055cc:	800b883a 	mov	r5,r16
 20055d0:	100d883a 	mov	r6,r2
 20055d4:	20087040 	call	2008704 <memcpy>
 20055d8:	e0bffb17 	ldw	r2,-20(fp)
 20055dc:	10800817 	ldw	r2,32(r2)
 20055e0:	10001d26 	beq	r2,zero,2005658 <GifMakeSavedImage+0x24c>
 20055e4:	e0bffd17 	ldw	r2,-12(fp)
 20055e8:	10800717 	ldw	r2,28(r2)
 20055ec:	0009883a 	mov	r4,zero
 20055f0:	100b883a 	mov	r5,r2
 20055f4:	01800304 	movi	r6,12
 20055f8:	20057780 	call	2005778 <reallocarray>
 20055fc:	1007883a 	mov	r3,r2
 2005600:	e0bffb17 	ldw	r2,-20(fp)
 2005604:	10c00815 	stw	r3,32(r2)
 2005608:	e0bffb17 	ldw	r2,-20(fp)
 200560c:	10800817 	ldw	r2,32(r2)
 2005610:	1000041e 	bne	r2,zero,2005624 <GifMakeSavedImage+0x218>
 2005614:	e13ffc17 	ldw	r4,-16(fp)
 2005618:	20053300 	call	2005330 <FreeLastSavedImage>
 200561c:	0005883a 	mov	r2,zero
 2005620:	00000e06 	br	200565c <GifMakeSavedImage+0x250>
 2005624:	e0bffb17 	ldw	r2,-20(fp)
 2005628:	14400817 	ldw	r17,32(r2)
 200562c:	e0bffd17 	ldw	r2,-12(fp)
 2005630:	14000817 	ldw	r16,32(r2)
 2005634:	e0bffd17 	ldw	r2,-12(fp)
 2005638:	10800717 	ldw	r2,28(r2)
 200563c:	1009883a 	mov	r4,r2
 2005640:	01400304 	movi	r5,12
 2005644:	20059200 	call	2005920 <__mulsi3>
 2005648:	8809883a 	mov	r4,r17
 200564c:	800b883a 	mov	r5,r16
 2005650:	100d883a 	mov	r6,r2
 2005654:	20087040 	call	2008704 <memcpy>
 2005658:	e0bffb17 	ldw	r2,-20(fp)
 200565c:	e6fffe04 	addi	sp,fp,-8
 2005660:	dfc00317 	ldw	ra,12(sp)
 2005664:	df000217 	ldw	fp,8(sp)
 2005668:	dc400117 	ldw	r17,4(sp)
 200566c:	dc000017 	ldw	r16,0(sp)
 2005670:	dec00404 	addi	sp,sp,16
 2005674:	f800283a 	ret

02005678 <GifFreeSavedImages>:
 2005678:	defffb04 	addi	sp,sp,-20
 200567c:	dfc00415 	stw	ra,16(sp)
 2005680:	df000315 	stw	fp,12(sp)
 2005684:	dc000215 	stw	r16,8(sp)
 2005688:	df000304 	addi	fp,sp,12
 200568c:	e13ffe15 	stw	r4,-8(fp)
 2005690:	e0bffe17 	ldw	r2,-8(fp)
 2005694:	10000326 	beq	r2,zero,20056a4 <GifFreeSavedImages+0x2c>
 2005698:	e0bffe17 	ldw	r2,-8(fp)
 200569c:	10800d17 	ldw	r2,52(r2)
 20056a0:	1000011e 	bne	r2,zero,20056a8 <GifFreeSavedImages+0x30>
 20056a4:	00002e06 	br	2005760 <GifFreeSavedImages+0xe8>
 20056a8:	e0bffe17 	ldw	r2,-8(fp)
 20056ac:	10800d17 	ldw	r2,52(r2)
 20056b0:	e0bffd15 	stw	r2,-12(fp)
 20056b4:	00001a06 	br	2005720 <GifFreeSavedImages+0xa8>
 20056b8:	e0bffd17 	ldw	r2,-12(fp)
 20056bc:	10800517 	ldw	r2,20(r2)
 20056c0:	10000626 	beq	r2,zero,20056dc <GifFreeSavedImages+0x64>
 20056c4:	e0bffd17 	ldw	r2,-12(fp)
 20056c8:	10800517 	ldw	r2,20(r2)
 20056cc:	1009883a 	mov	r4,r2
 20056d0:	2004c380 	call	2004c38 <GifFreeMapObject>
 20056d4:	e0bffd17 	ldw	r2,-12(fp)
 20056d8:	10000515 	stw	zero,20(r2)
 20056dc:	e0bffd17 	ldw	r2,-12(fp)
 20056e0:	10800617 	ldw	r2,24(r2)
 20056e4:	10000426 	beq	r2,zero,20056f8 <GifFreeSavedImages+0x80>
 20056e8:	e0bffd17 	ldw	r2,-12(fp)
 20056ec:	10800617 	ldw	r2,24(r2)
 20056f0:	1009883a 	mov	r4,r2
 20056f4:	2007eb00 	call	2007eb0 <free>
 20056f8:	e0bffd17 	ldw	r2,-12(fp)
 20056fc:	10c00704 	addi	r3,r2,28
 2005700:	e0bffd17 	ldw	r2,-12(fp)
 2005704:	10800804 	addi	r2,r2,32
 2005708:	1809883a 	mov	r4,r3
 200570c:	100b883a 	mov	r5,r2
 2005710:	20052780 	call	2005278 <GifFreeExtensions>
 2005714:	e0bffd17 	ldw	r2,-12(fp)
 2005718:	10800904 	addi	r2,r2,36
 200571c:	e0bffd15 	stw	r2,-12(fp)
 2005720:	e0bffe17 	ldw	r2,-8(fp)
 2005724:	14000d17 	ldw	r16,52(r2)
 2005728:	e0bffe17 	ldw	r2,-8(fp)
 200572c:	10800617 	ldw	r2,24(r2)
 2005730:	1009883a 	mov	r4,r2
 2005734:	01400904 	movi	r5,36
 2005738:	20059200 	call	2005920 <__mulsi3>
 200573c:	8085883a 	add	r2,r16,r2
 2005740:	e0fffd17 	ldw	r3,-12(fp)
 2005744:	18bfdc36 	bltu	r3,r2,20056b8 <__reset+0xfdffc6b8>
 2005748:	e0bffe17 	ldw	r2,-8(fp)
 200574c:	10800d17 	ldw	r2,52(r2)
 2005750:	1009883a 	mov	r4,r2
 2005754:	2007eb00 	call	2007eb0 <free>
 2005758:	e0bffe17 	ldw	r2,-8(fp)
 200575c:	10000d15 	stw	zero,52(r2)
 2005760:	e6ffff04 	addi	sp,fp,-4
 2005764:	dfc00217 	ldw	ra,8(sp)
 2005768:	df000117 	ldw	fp,4(sp)
 200576c:	dc000017 	ldw	r16,0(sp)
 2005770:	dec00304 	addi	sp,sp,12
 2005774:	f800283a 	ret

02005778 <reallocarray>:
 2005778:	defffb04 	addi	sp,sp,-20
 200577c:	dfc00415 	stw	ra,16(sp)
 2005780:	df000315 	stw	fp,12(sp)
 2005784:	df000304 	addi	fp,sp,12
 2005788:	e13ffd15 	stw	r4,-12(fp)
 200578c:	e17ffe15 	stw	r5,-8(fp)
 2005790:	e1bfff15 	stw	r6,-4(fp)
 2005794:	e0bffe17 	ldw	r2,-8(fp)
 2005798:	00ffffd4 	movui	r3,65535
 200579c:	18800336 	bltu	r3,r2,20057ac <reallocarray+0x34>
 20057a0:	e0bfff17 	ldw	r2,-4(fp)
 20057a4:	00ffffd4 	movui	r3,65535
 20057a8:	18800d2e 	bgeu	r3,r2,20057e0 <reallocarray+0x68>
 20057ac:	e0bffe17 	ldw	r2,-8(fp)
 20057b0:	10000b26 	beq	r2,zero,20057e0 <reallocarray+0x68>
 20057b4:	013fffc4 	movi	r4,-1
 20057b8:	e17ffe17 	ldw	r5,-8(fp)
 20057bc:	20059100 	call	2005910 <__udivsi3>
 20057c0:	1007883a 	mov	r3,r2
 20057c4:	e0bfff17 	ldw	r2,-4(fp)
 20057c8:	1880052e 	bgeu	r3,r2,20057e0 <reallocarray+0x68>
 20057cc:	2006dd40 	call	2006dd4 <__errno>
 20057d0:	00c00304 	movi	r3,12
 20057d4:	10c00015 	stw	r3,0(r2)
 20057d8:	0005883a 	mov	r2,zero
 20057dc:	00000606 	br	20057f8 <reallocarray+0x80>
 20057e0:	e13fff17 	ldw	r4,-4(fp)
 20057e4:	e17ffe17 	ldw	r5,-8(fp)
 20057e8:	20059200 	call	2005920 <__mulsi3>
 20057ec:	e13ffd17 	ldw	r4,-12(fp)
 20057f0:	100b883a 	mov	r5,r2
 20057f4:	200898c0 	call	200898c <realloc>
 20057f8:	e037883a 	mov	sp,fp
 20057fc:	dfc00117 	ldw	ra,4(sp)
 2005800:	df000017 	ldw	fp,0(sp)
 2005804:	dec00204 	addi	sp,sp,8
 2005808:	f800283a 	ret

0200580c <udivmodsi4>:
 200580c:	2900182e 	bgeu	r5,r4,2005870 <udivmodsi4+0x64>
 2005810:	28001716 	blt	r5,zero,2005870 <udivmodsi4+0x64>
 2005814:	00800804 	movi	r2,32
 2005818:	00c00044 	movi	r3,1
 200581c:	00000206 	br	2005828 <udivmodsi4+0x1c>
 2005820:	10001126 	beq	r2,zero,2005868 <udivmodsi4+0x5c>
 2005824:	28000516 	blt	r5,zero,200583c <udivmodsi4+0x30>
 2005828:	294b883a 	add	r5,r5,r5
 200582c:	10bfffc4 	addi	r2,r2,-1
 2005830:	18c7883a 	add	r3,r3,r3
 2005834:	293ffa36 	bltu	r5,r4,2005820 <__reset+0xfdffc820>
 2005838:	18000b26 	beq	r3,zero,2005868 <udivmodsi4+0x5c>
 200583c:	0005883a 	mov	r2,zero
 2005840:	21400236 	bltu	r4,r5,200584c <udivmodsi4+0x40>
 2005844:	2149c83a 	sub	r4,r4,r5
 2005848:	10c4b03a 	or	r2,r2,r3
 200584c:	1806d07a 	srli	r3,r3,1
 2005850:	280ad07a 	srli	r5,r5,1
 2005854:	183ffa1e 	bne	r3,zero,2005840 <__reset+0xfdffc840>
 2005858:	3000011e 	bne	r6,zero,2005860 <udivmodsi4+0x54>
 200585c:	f800283a 	ret
 2005860:	2005883a 	mov	r2,r4
 2005864:	f800283a 	ret
 2005868:	0005883a 	mov	r2,zero
 200586c:	003ffa06 	br	2005858 <__reset+0xfdffc858>
 2005870:	00c00044 	movi	r3,1
 2005874:	0005883a 	mov	r2,zero
 2005878:	003ff106 	br	2005840 <__reset+0xfdffc840>

0200587c <__divsi3>:
 200587c:	deffff04 	addi	sp,sp,-4
 2005880:	dfc00015 	stw	ra,0(sp)
 2005884:	20000916 	blt	r4,zero,20058ac <__divsi3+0x30>
 2005888:	000f883a 	mov	r7,zero
 200588c:	28000a16 	blt	r5,zero,20058b8 <__divsi3+0x3c>
 2005890:	000d883a 	mov	r6,zero
 2005894:	200580c0 	call	200580c <udivmodsi4>
 2005898:	38000126 	beq	r7,zero,20058a0 <__divsi3+0x24>
 200589c:	0085c83a 	sub	r2,zero,r2
 20058a0:	dfc00017 	ldw	ra,0(sp)
 20058a4:	dec00104 	addi	sp,sp,4
 20058a8:	f800283a 	ret
 20058ac:	0109c83a 	sub	r4,zero,r4
 20058b0:	01c00044 	movi	r7,1
 20058b4:	283ff60e 	bge	r5,zero,2005890 <__reset+0xfdffc890>
 20058b8:	014bc83a 	sub	r5,zero,r5
 20058bc:	39c0005c 	xori	r7,r7,1
 20058c0:	003ff306 	br	2005890 <__reset+0xfdffc890>

020058c4 <__modsi3>:
 20058c4:	20000316 	blt	r4,zero,20058d4 <__modsi3+0x10>
 20058c8:	28000c16 	blt	r5,zero,20058fc <__modsi3+0x38>
 20058cc:	01800044 	movi	r6,1
 20058d0:	200580c1 	jmpi	200580c <udivmodsi4>
 20058d4:	deffff04 	addi	sp,sp,-4
 20058d8:	dfc00015 	stw	ra,0(sp)
 20058dc:	0109c83a 	sub	r4,zero,r4
 20058e0:	28000916 	blt	r5,zero,2005908 <__modsi3+0x44>
 20058e4:	01800044 	movi	r6,1
 20058e8:	200580c0 	call	200580c <udivmodsi4>
 20058ec:	0085c83a 	sub	r2,zero,r2
 20058f0:	dfc00017 	ldw	ra,0(sp)
 20058f4:	dec00104 	addi	sp,sp,4
 20058f8:	f800283a 	ret
 20058fc:	014bc83a 	sub	r5,zero,r5
 2005900:	01800044 	movi	r6,1
 2005904:	200580c1 	jmpi	200580c <udivmodsi4>
 2005908:	014bc83a 	sub	r5,zero,r5
 200590c:	003ff506 	br	20058e4 <__reset+0xfdffc8e4>

02005910 <__udivsi3>:
 2005910:	000d883a 	mov	r6,zero
 2005914:	200580c1 	jmpi	200580c <udivmodsi4>

02005918 <__umodsi3>:
 2005918:	01800044 	movi	r6,1
 200591c:	200580c1 	jmpi	200580c <udivmodsi4>

02005920 <__mulsi3>:
 2005920:	0005883a 	mov	r2,zero
 2005924:	20000726 	beq	r4,zero,2005944 <__mulsi3+0x24>
 2005928:	20c0004c 	andi	r3,r4,1
 200592c:	2008d07a 	srli	r4,r4,1
 2005930:	18000126 	beq	r3,zero,2005938 <__mulsi3+0x18>
 2005934:	1145883a 	add	r2,r2,r5
 2005938:	294b883a 	add	r5,r5,r5
 200593c:	203ffa1e 	bne	r4,zero,2005928 <__reset+0xfdffc928>
 2005940:	f800283a 	ret
 2005944:	f800283a 	ret

02005948 <__divdf3>:
 2005948:	defff004 	addi	sp,sp,-64
 200594c:	dd000a15 	stw	r20,40(sp)
 2005950:	2828d53a 	srli	r20,r5,20
 2005954:	dd800c15 	stw	r22,48(sp)
 2005958:	282cd7fa 	srli	r22,r5,31
 200595c:	df000e15 	stw	fp,56(sp)
 2005960:	dcc00915 	stw	r19,36(sp)
 2005964:	dc800815 	stw	r18,32(sp)
 2005968:	04c00434 	movhi	r19,16
 200596c:	9cffffc4 	addi	r19,r19,-1
 2005970:	dfc00f15 	stw	ra,60(sp)
 2005974:	ddc00d15 	stw	r23,52(sp)
 2005978:	dd400b15 	stw	r21,44(sp)
 200597c:	dc400715 	stw	r17,28(sp)
 2005980:	dc000615 	stw	r16,24(sp)
 2005984:	a501ffcc 	andi	r20,r20,2047
 2005988:	2025883a 	mov	r18,r4
 200598c:	2ce6703a 	and	r19,r5,r19
 2005990:	b7003fcc 	andi	fp,r22,255
 2005994:	a0006a26 	beq	r20,zero,2005b40 <__divdf3+0x1f8>
 2005998:	0081ffc4 	movi	r2,2047
 200599c:	2021883a 	mov	r16,r4
 20059a0:	a0803726 	beq	r20,r2,2005a80 <__divdf3+0x138>
 20059a4:	98800434 	orhi	r2,r19,16
 20059a8:	100490fa 	slli	r2,r2,3
 20059ac:	2026d77a 	srli	r19,r4,29
 20059b0:	202090fa 	slli	r16,r4,3
 20059b4:	a53f0044 	addi	r20,r20,-1023
 20059b8:	14e6b03a 	or	r19,r2,r19
 20059bc:	002b883a 	mov	r21,zero
 20059c0:	0013883a 	mov	r9,zero
 20059c4:	3804d53a 	srli	r2,r7,20
 20059c8:	382ed7fa 	srli	r23,r7,31
 20059cc:	04400434 	movhi	r17,16
 20059d0:	8c7fffc4 	addi	r17,r17,-1
 20059d4:	1081ffcc 	andi	r2,r2,2047
 20059d8:	3025883a 	mov	r18,r6
 20059dc:	3c62703a 	and	r17,r7,r17
 20059e0:	ba803fcc 	andi	r10,r23,255
 20059e4:	10007326 	beq	r2,zero,2005bb4 <__divdf3+0x26c>
 20059e8:	0101ffc4 	movi	r4,2047
 20059ec:	11006b26 	beq	r2,r4,2005b9c <__divdf3+0x254>
 20059f0:	89000434 	orhi	r4,r17,16
 20059f4:	200890fa 	slli	r4,r4,3
 20059f8:	3022d77a 	srli	r17,r6,29
 20059fc:	302490fa 	slli	r18,r6,3
 2005a00:	10bf0044 	addi	r2,r2,-1023
 2005a04:	2462b03a 	or	r17,r4,r17
 2005a08:	000f883a 	mov	r7,zero
 2005a0c:	b5caf03a 	xor	r5,r22,r23
 2005a10:	3d48b03a 	or	r4,r7,r21
 2005a14:	00c003c4 	movi	r3,15
 2005a18:	2811883a 	mov	r8,r5
 2005a1c:	2d403fcc 	andi	r21,r5,255
 2005a20:	19009436 	bltu	r3,r4,2005c74 <__divdf3+0x32c>
 2005a24:	2109883a 	add	r4,r4,r4
 2005a28:	00c08034 	movhi	r3,512
 2005a2c:	18d69004 	addi	r3,r3,23104
 2005a30:	2109883a 	add	r4,r4,r4
 2005a34:	20c9883a 	add	r4,r4,r3
 2005a38:	20c00017 	ldw	r3,0(r4)
 2005a3c:	1800683a 	jmp	r3
 2005a40:	02005c74 	movhi	r8,369
 2005a44:	02005adc 	xori	r8,zero,363
 2005a48:	02005c64 	muli	r8,zero,369
 2005a4c:	02005aac 	andhi	r8,zero,362
 2005a50:	02005c64 	muli	r8,zero,369
 2005a54:	02005c4c 	andi	r8,zero,369
 2005a58:	02005c64 	muli	r8,zero,369
 2005a5c:	02005aac 	andhi	r8,zero,362
 2005a60:	02005adc 	xori	r8,zero,363
 2005a64:	02005adc 	xori	r8,zero,363
 2005a68:	02005c4c 	andi	r8,zero,369
 2005a6c:	02005aac 	andhi	r8,zero,362
 2005a70:	02005a9c 	xori	r8,zero,362
 2005a74:	02005a9c 	xori	r8,zero,362
 2005a78:	02005a9c 	xori	r8,zero,362
 2005a7c:	02006004 	movi	r8,384
 2005a80:	9904b03a 	or	r2,r19,r4
 2005a84:	10006e1e 	bne	r2,zero,2005c40 <__divdf3+0x2f8>
 2005a88:	05400204 	movi	r21,8
 2005a8c:	0027883a 	mov	r19,zero
 2005a90:	0021883a 	mov	r16,zero
 2005a94:	02400084 	movi	r9,2
 2005a98:	003fca06 	br	20059c4 <__reset+0xfdffc9c4>
 2005a9c:	9823883a 	mov	r17,r19
 2005aa0:	8025883a 	mov	r18,r16
 2005aa4:	e015883a 	mov	r10,fp
 2005aa8:	480f883a 	mov	r7,r9
 2005aac:	00800084 	movi	r2,2
 2005ab0:	38800926 	beq	r7,r2,2005ad8 <__divdf3+0x190>
 2005ab4:	008000c4 	movi	r2,3
 2005ab8:	38820226 	beq	r7,r2,20062c4 <__divdf3+0x97c>
 2005abc:	00800044 	movi	r2,1
 2005ac0:	3881b81e 	bne	r7,r2,20061a4 <__divdf3+0x85c>
 2005ac4:	5011883a 	mov	r8,r10
 2005ac8:	0005883a 	mov	r2,zero
 2005acc:	0027883a 	mov	r19,zero
 2005ad0:	0021883a 	mov	r16,zero
 2005ad4:	00000506 	br	2005aec <__divdf3+0x1a4>
 2005ad8:	502b883a 	mov	r21,r10
 2005adc:	aa00004c 	andi	r8,r21,1
 2005ae0:	0081ffc4 	movi	r2,2047
 2005ae4:	0027883a 	mov	r19,zero
 2005ae8:	0021883a 	mov	r16,zero
 2005aec:	1004953a 	slli	r2,r2,20
 2005af0:	42003fcc 	andi	r8,r8,255
 2005af4:	401097fa 	slli	r8,r8,31
 2005af8:	00c00434 	movhi	r3,16
 2005afc:	18ffffc4 	addi	r3,r3,-1
 2005b00:	98e6703a 	and	r19,r19,r3
 2005b04:	9886b03a 	or	r3,r19,r2
 2005b08:	1a06b03a 	or	r3,r3,r8
 2005b0c:	8005883a 	mov	r2,r16
 2005b10:	dfc00f17 	ldw	ra,60(sp)
 2005b14:	df000e17 	ldw	fp,56(sp)
 2005b18:	ddc00d17 	ldw	r23,52(sp)
 2005b1c:	dd800c17 	ldw	r22,48(sp)
 2005b20:	dd400b17 	ldw	r21,44(sp)
 2005b24:	dd000a17 	ldw	r20,40(sp)
 2005b28:	dcc00917 	ldw	r19,36(sp)
 2005b2c:	dc800817 	ldw	r18,32(sp)
 2005b30:	dc400717 	ldw	r17,28(sp)
 2005b34:	dc000617 	ldw	r16,24(sp)
 2005b38:	dec01004 	addi	sp,sp,64
 2005b3c:	f800283a 	ret
 2005b40:	9904b03a 	or	r2,r19,r4
 2005b44:	10003926 	beq	r2,zero,2005c2c <__divdf3+0x2e4>
 2005b48:	98015326 	beq	r19,zero,2006098 <__divdf3+0x750>
 2005b4c:	9809883a 	mov	r4,r19
 2005b50:	d9800215 	stw	r6,8(sp)
 2005b54:	d9c00515 	stw	r7,20(sp)
 2005b58:	2006c340 	call	2006c34 <__clzsi2>
 2005b5c:	d9800217 	ldw	r6,8(sp)
 2005b60:	d9c00517 	ldw	r7,20(sp)
 2005b64:	00c009c4 	movi	r3,39
 2005b68:	18814716 	blt	r3,r2,2006088 <__divdf3+0x740>
 2005b6c:	01400a04 	movi	r5,40
 2005b70:	143ffe04 	addi	r16,r2,-8
 2005b74:	288bc83a 	sub	r5,r5,r2
 2005b78:	9c26983a 	sll	r19,r19,r16
 2005b7c:	914ad83a 	srl	r5,r18,r5
 2005b80:	9420983a 	sll	r16,r18,r16
 2005b84:	2ce6b03a 	or	r19,r5,r19
 2005b88:	053f0344 	movi	r20,-1011
 2005b8c:	a0a9c83a 	sub	r20,r20,r2
 2005b90:	002b883a 	mov	r21,zero
 2005b94:	0013883a 	mov	r9,zero
 2005b98:	003f8a06 	br	20059c4 <__reset+0xfdffc9c4>
 2005b9c:	8988b03a 	or	r4,r17,r6
 2005ba0:	2000201e 	bne	r4,zero,2005c24 <__divdf3+0x2dc>
 2005ba4:	0023883a 	mov	r17,zero
 2005ba8:	0025883a 	mov	r18,zero
 2005bac:	01c00084 	movi	r7,2
 2005bb0:	003f9606 	br	2005a0c <__reset+0xfdffca0c>
 2005bb4:	8988b03a 	or	r4,r17,r6
 2005bb8:	20001626 	beq	r4,zero,2005c14 <__divdf3+0x2cc>
 2005bbc:	88012826 	beq	r17,zero,2006060 <__divdf3+0x718>
 2005bc0:	8809883a 	mov	r4,r17
 2005bc4:	d9800215 	stw	r6,8(sp)
 2005bc8:	da400315 	stw	r9,12(sp)
 2005bcc:	da800415 	stw	r10,16(sp)
 2005bd0:	2006c340 	call	2006c34 <__clzsi2>
 2005bd4:	d9800217 	ldw	r6,8(sp)
 2005bd8:	da400317 	ldw	r9,12(sp)
 2005bdc:	da800417 	ldw	r10,16(sp)
 2005be0:	010009c4 	movi	r4,39
 2005be4:	20811a16 	blt	r4,r2,2006050 <__divdf3+0x708>
 2005be8:	01000a04 	movi	r4,40
 2005bec:	14bffe04 	addi	r18,r2,-8
 2005bf0:	2089c83a 	sub	r4,r4,r2
 2005bf4:	8ca2983a 	sll	r17,r17,r18
 2005bf8:	3108d83a 	srl	r4,r6,r4
 2005bfc:	34a4983a 	sll	r18,r6,r18
 2005c00:	2462b03a 	or	r17,r4,r17
 2005c04:	013f0344 	movi	r4,-1011
 2005c08:	2085c83a 	sub	r2,r4,r2
 2005c0c:	000f883a 	mov	r7,zero
 2005c10:	003f7e06 	br	2005a0c <__reset+0xfdffca0c>
 2005c14:	0023883a 	mov	r17,zero
 2005c18:	0025883a 	mov	r18,zero
 2005c1c:	01c00044 	movi	r7,1
 2005c20:	003f7a06 	br	2005a0c <__reset+0xfdffca0c>
 2005c24:	01c000c4 	movi	r7,3
 2005c28:	003f7806 	br	2005a0c <__reset+0xfdffca0c>
 2005c2c:	05400104 	movi	r21,4
 2005c30:	0027883a 	mov	r19,zero
 2005c34:	0021883a 	mov	r16,zero
 2005c38:	02400044 	movi	r9,1
 2005c3c:	003f6106 	br	20059c4 <__reset+0xfdffc9c4>
 2005c40:	05400304 	movi	r21,12
 2005c44:	024000c4 	movi	r9,3
 2005c48:	003f5e06 	br	20059c4 <__reset+0xfdffc9c4>
 2005c4c:	0011883a 	mov	r8,zero
 2005c50:	04c00434 	movhi	r19,16
 2005c54:	9cffffc4 	addi	r19,r19,-1
 2005c58:	043fffc4 	movi	r16,-1
 2005c5c:	0081ffc4 	movi	r2,2047
 2005c60:	003fa206 	br	2005aec <__reset+0xfdffcaec>
 2005c64:	0005883a 	mov	r2,zero
 2005c68:	0027883a 	mov	r19,zero
 2005c6c:	0021883a 	mov	r16,zero
 2005c70:	003f9e06 	br	2005aec <__reset+0xfdffcaec>
 2005c74:	a085c83a 	sub	r2,r20,r2
 2005c78:	d8800115 	stw	r2,4(sp)
 2005c7c:	8cc11b36 	bltu	r17,r19,20060ec <__divdf3+0x7a4>
 2005c80:	9c411926 	beq	r19,r17,20060e8 <__divdf3+0x7a0>
 2005c84:	d8c00117 	ldw	r3,4(sp)
 2005c88:	002d883a 	mov	r22,zero
 2005c8c:	18ffffc4 	addi	r3,r3,-1
 2005c90:	d8c00115 	stw	r3,4(sp)
 2005c94:	9006d63a 	srli	r3,r18,24
 2005c98:	8822923a 	slli	r17,r17,8
 2005c9c:	9024923a 	slli	r18,r18,8
 2005ca0:	9809883a 	mov	r4,r19
 2005ca4:	1c6eb03a 	or	r23,r3,r17
 2005ca8:	b828d43a 	srli	r20,r23,16
 2005cac:	dc800015 	stw	r18,0(sp)
 2005cb0:	bcbfffcc 	andi	r18,r23,65535
 2005cb4:	a00b883a 	mov	r5,r20
 2005cb8:	20059100 	call	2005910 <__udivsi3>
 2005cbc:	1009883a 	mov	r4,r2
 2005cc0:	900b883a 	mov	r5,r18
 2005cc4:	1039883a 	mov	fp,r2
 2005cc8:	20059200 	call	2005920 <__mulsi3>
 2005ccc:	9809883a 	mov	r4,r19
 2005cd0:	a00b883a 	mov	r5,r20
 2005cd4:	1023883a 	mov	r17,r2
 2005cd8:	20059180 	call	2005918 <__umodsi3>
 2005cdc:	1004943a 	slli	r2,r2,16
 2005ce0:	8008d43a 	srli	r4,r16,16
 2005ce4:	110ab03a 	or	r5,r2,r4
 2005ce8:	2c40062e 	bgeu	r5,r17,2005d04 <__divdf3+0x3bc>
 2005cec:	2dcb883a 	add	r5,r5,r23
 2005cf0:	e0bfffc4 	addi	r2,fp,-1
 2005cf4:	2dc11136 	bltu	r5,r23,200613c <__divdf3+0x7f4>
 2005cf8:	2c41102e 	bgeu	r5,r17,200613c <__divdf3+0x7f4>
 2005cfc:	e73fff84 	addi	fp,fp,-2
 2005d00:	2dcb883a 	add	r5,r5,r23
 2005d04:	2c67c83a 	sub	r19,r5,r17
 2005d08:	9809883a 	mov	r4,r19
 2005d0c:	a00b883a 	mov	r5,r20
 2005d10:	20059100 	call	2005910 <__udivsi3>
 2005d14:	1009883a 	mov	r4,r2
 2005d18:	900b883a 	mov	r5,r18
 2005d1c:	1023883a 	mov	r17,r2
 2005d20:	20059200 	call	2005920 <__mulsi3>
 2005d24:	9809883a 	mov	r4,r19
 2005d28:	a00b883a 	mov	r5,r20
 2005d2c:	d8800215 	stw	r2,8(sp)
 2005d30:	20059180 	call	2005918 <__umodsi3>
 2005d34:	1004943a 	slli	r2,r2,16
 2005d38:	da000217 	ldw	r8,8(sp)
 2005d3c:	843fffcc 	andi	r16,r16,65535
 2005d40:	140eb03a 	or	r7,r2,r16
 2005d44:	3a00062e 	bgeu	r7,r8,2005d60 <__divdf3+0x418>
 2005d48:	3dcf883a 	add	r7,r7,r23
 2005d4c:	88bfffc4 	addi	r2,r17,-1
 2005d50:	3dc0f836 	bltu	r7,r23,2006134 <__divdf3+0x7ec>
 2005d54:	3a00f72e 	bgeu	r7,r8,2006134 <__divdf3+0x7ec>
 2005d58:	8c7fff84 	addi	r17,r17,-2
 2005d5c:	3dcf883a 	add	r7,r7,r23
 2005d60:	e004943a 	slli	r2,fp,16
 2005d64:	d8c00017 	ldw	r3,0(sp)
 2005d68:	3a0fc83a 	sub	r7,r7,r8
 2005d6c:	88a2b03a 	or	r17,r17,r2
 2005d70:	1f3fffcc 	andi	fp,r3,65535
 2005d74:	8a7fffcc 	andi	r9,r17,65535
 2005d78:	4809883a 	mov	r4,r9
 2005d7c:	e00b883a 	mov	r5,fp
 2005d80:	1826d43a 	srli	r19,r3,16
 2005d84:	d9c00515 	stw	r7,20(sp)
 2005d88:	da400315 	stw	r9,12(sp)
 2005d8c:	20059200 	call	2005920 <__mulsi3>
 2005d90:	da400317 	ldw	r9,12(sp)
 2005d94:	8820d43a 	srli	r16,r17,16
 2005d98:	980b883a 	mov	r5,r19
 2005d9c:	4809883a 	mov	r4,r9
 2005da0:	d8800215 	stw	r2,8(sp)
 2005da4:	20059200 	call	2005920 <__mulsi3>
 2005da8:	8009883a 	mov	r4,r16
 2005dac:	e00b883a 	mov	r5,fp
 2005db0:	d8800415 	stw	r2,16(sp)
 2005db4:	20059200 	call	2005920 <__mulsi3>
 2005db8:	8009883a 	mov	r4,r16
 2005dbc:	980b883a 	mov	r5,r19
 2005dc0:	d8800315 	stw	r2,12(sp)
 2005dc4:	20059200 	call	2005920 <__mulsi3>
 2005dc8:	da000217 	ldw	r8,8(sp)
 2005dcc:	da400317 	ldw	r9,12(sp)
 2005dd0:	da800417 	ldw	r10,16(sp)
 2005dd4:	100b883a 	mov	r5,r2
 2005dd8:	4004d43a 	srli	r2,r8,16
 2005ddc:	4a89883a 	add	r4,r9,r10
 2005de0:	d9c00517 	ldw	r7,20(sp)
 2005de4:	2089883a 	add	r4,r4,r2
 2005de8:	2240022e 	bgeu	r4,r9,2005df4 <__divdf3+0x4ac>
 2005dec:	00800074 	movhi	r2,1
 2005df0:	288b883a 	add	r5,r5,r2
 2005df4:	2004d43a 	srli	r2,r4,16
 2005df8:	2020943a 	slli	r16,r4,16
 2005dfc:	423fffcc 	andi	r8,r8,65535
 2005e00:	288b883a 	add	r5,r5,r2
 2005e04:	8221883a 	add	r16,r16,r8
 2005e08:	3940ab36 	bltu	r7,r5,20060b8 <__divdf3+0x770>
 2005e0c:	3940a926 	beq	r7,r5,20060b4 <__divdf3+0x76c>
 2005e10:	394bc83a 	sub	r5,r7,r5
 2005e14:	b421c83a 	sub	r16,r22,r16
 2005e18:	b42d803a 	cmpltu	r22,r22,r16
 2005e1c:	2dadc83a 	sub	r22,r5,r22
 2005e20:	b5c0da26 	beq	r22,r23,200618c <__divdf3+0x844>
 2005e24:	b009883a 	mov	r4,r22
 2005e28:	a00b883a 	mov	r5,r20
 2005e2c:	20059100 	call	2005910 <__udivsi3>
 2005e30:	1009883a 	mov	r4,r2
 2005e34:	900b883a 	mov	r5,r18
 2005e38:	d8800215 	stw	r2,8(sp)
 2005e3c:	20059200 	call	2005920 <__mulsi3>
 2005e40:	b009883a 	mov	r4,r22
 2005e44:	a00b883a 	mov	r5,r20
 2005e48:	d8800515 	stw	r2,20(sp)
 2005e4c:	20059180 	call	2005918 <__umodsi3>
 2005e50:	1004943a 	slli	r2,r2,16
 2005e54:	8008d43a 	srli	r4,r16,16
 2005e58:	d9c00517 	ldw	r7,20(sp)
 2005e5c:	da000217 	ldw	r8,8(sp)
 2005e60:	110ab03a 	or	r5,r2,r4
 2005e64:	29c0062e 	bgeu	r5,r7,2005e80 <__divdf3+0x538>
 2005e68:	2dcb883a 	add	r5,r5,r23
 2005e6c:	40bfffc4 	addi	r2,r8,-1
 2005e70:	2dc0ca36 	bltu	r5,r23,200619c <__divdf3+0x854>
 2005e74:	29c0c92e 	bgeu	r5,r7,200619c <__divdf3+0x854>
 2005e78:	423fff84 	addi	r8,r8,-2
 2005e7c:	2dcb883a 	add	r5,r5,r23
 2005e80:	29cfc83a 	sub	r7,r5,r7
 2005e84:	3809883a 	mov	r4,r7
 2005e88:	a00b883a 	mov	r5,r20
 2005e8c:	da000215 	stw	r8,8(sp)
 2005e90:	d9c00515 	stw	r7,20(sp)
 2005e94:	20059100 	call	2005910 <__udivsi3>
 2005e98:	900b883a 	mov	r5,r18
 2005e9c:	1009883a 	mov	r4,r2
 2005ea0:	102d883a 	mov	r22,r2
 2005ea4:	20059200 	call	2005920 <__mulsi3>
 2005ea8:	d9c00517 	ldw	r7,20(sp)
 2005eac:	a00b883a 	mov	r5,r20
 2005eb0:	1025883a 	mov	r18,r2
 2005eb4:	3809883a 	mov	r4,r7
 2005eb8:	20059180 	call	2005918 <__umodsi3>
 2005ebc:	1004943a 	slli	r2,r2,16
 2005ec0:	843fffcc 	andi	r16,r16,65535
 2005ec4:	da000217 	ldw	r8,8(sp)
 2005ec8:	140eb03a 	or	r7,r2,r16
 2005ecc:	3c80062e 	bgeu	r7,r18,2005ee8 <__divdf3+0x5a0>
 2005ed0:	3dcf883a 	add	r7,r7,r23
 2005ed4:	b0bfffc4 	addi	r2,r22,-1
 2005ed8:	3dc0ae36 	bltu	r7,r23,2006194 <__divdf3+0x84c>
 2005edc:	3c80ad2e 	bgeu	r7,r18,2006194 <__divdf3+0x84c>
 2005ee0:	b5bfff84 	addi	r22,r22,-2
 2005ee4:	3dcf883a 	add	r7,r7,r23
 2005ee8:	4010943a 	slli	r8,r8,16
 2005eec:	3ca9c83a 	sub	r20,r7,r18
 2005ef0:	e00b883a 	mov	r5,fp
 2005ef4:	b224b03a 	or	r18,r22,r8
 2005ef8:	91ffffcc 	andi	r7,r18,65535
 2005efc:	3809883a 	mov	r4,r7
 2005f00:	d9c00515 	stw	r7,20(sp)
 2005f04:	20059200 	call	2005920 <__mulsi3>
 2005f08:	d9c00517 	ldw	r7,20(sp)
 2005f0c:	9020d43a 	srli	r16,r18,16
 2005f10:	980b883a 	mov	r5,r19
 2005f14:	3809883a 	mov	r4,r7
 2005f18:	102d883a 	mov	r22,r2
 2005f1c:	20059200 	call	2005920 <__mulsi3>
 2005f20:	e00b883a 	mov	r5,fp
 2005f24:	8009883a 	mov	r4,r16
 2005f28:	d8800515 	stw	r2,20(sp)
 2005f2c:	20059200 	call	2005920 <__mulsi3>
 2005f30:	8009883a 	mov	r4,r16
 2005f34:	980b883a 	mov	r5,r19
 2005f38:	1039883a 	mov	fp,r2
 2005f3c:	20059200 	call	2005920 <__mulsi3>
 2005f40:	d9c00517 	ldw	r7,20(sp)
 2005f44:	100b883a 	mov	r5,r2
 2005f48:	b004d43a 	srli	r2,r22,16
 2005f4c:	e1c9883a 	add	r4,fp,r7
 2005f50:	2089883a 	add	r4,r4,r2
 2005f54:	2700022e 	bgeu	r4,fp,2005f60 <__divdf3+0x618>
 2005f58:	00800074 	movhi	r2,1
 2005f5c:	288b883a 	add	r5,r5,r2
 2005f60:	2004d43a 	srli	r2,r4,16
 2005f64:	2008943a 	slli	r4,r4,16
 2005f68:	b5bfffcc 	andi	r22,r22,65535
 2005f6c:	288b883a 	add	r5,r5,r2
 2005f70:	25ad883a 	add	r22,r4,r22
 2005f74:	a140632e 	bgeu	r20,r5,2006104 <__divdf3+0x7bc>
 2005f78:	a5e9883a 	add	r20,r20,r23
 2005f7c:	90bfffc4 	addi	r2,r18,-1
 2005f80:	a5c0702e 	bgeu	r20,r23,2006144 <__divdf3+0x7fc>
 2005f84:	1025883a 	mov	r18,r2
 2005f88:	a1406126 	beq	r20,r5,2006110 <__divdf3+0x7c8>
 2005f8c:	94800054 	ori	r18,r18,1
 2005f90:	d8c00117 	ldw	r3,4(sp)
 2005f94:	1880ffc4 	addi	r2,r3,1023
 2005f98:	0080720e 	bge	zero,r2,2006164 <__divdf3+0x81c>
 2005f9c:	90c001cc 	andi	r3,r18,7
 2005fa0:	18000726 	beq	r3,zero,2005fc0 <__divdf3+0x678>
 2005fa4:	910003cc 	andi	r4,r18,15
 2005fa8:	00c00104 	movi	r3,4
 2005fac:	20c00426 	beq	r4,r3,2005fc0 <__divdf3+0x678>
 2005fb0:	90c7883a 	add	r3,r18,r3
 2005fb4:	1ca5803a 	cmpltu	r18,r3,r18
 2005fb8:	8ca3883a 	add	r17,r17,r18
 2005fbc:	1825883a 	mov	r18,r3
 2005fc0:	88c0402c 	andhi	r3,r17,256
 2005fc4:	18000526 	beq	r3,zero,2005fdc <__divdf3+0x694>
 2005fc8:	d8c00117 	ldw	r3,4(sp)
 2005fcc:	00bfc034 	movhi	r2,65280
 2005fd0:	10bfffc4 	addi	r2,r2,-1
 2005fd4:	88a2703a 	and	r17,r17,r2
 2005fd8:	18810004 	addi	r2,r3,1024
 2005fdc:	00c1ff84 	movi	r3,2046
 2005fe0:	18bebe16 	blt	r3,r2,2005adc <__reset+0xfdffcadc>
 2005fe4:	8820977a 	slli	r16,r17,29
 2005fe8:	9024d0fa 	srli	r18,r18,3
 2005fec:	8822927a 	slli	r17,r17,9
 2005ff0:	1081ffcc 	andi	r2,r2,2047
 2005ff4:	84a0b03a 	or	r16,r16,r18
 2005ff8:	8826d33a 	srli	r19,r17,12
 2005ffc:	aa00004c 	andi	r8,r21,1
 2006000:	003eba06 	br	2005aec <__reset+0xfdffcaec>
 2006004:	9880022c 	andhi	r2,r19,8
 2006008:	10000a26 	beq	r2,zero,2006034 <__divdf3+0x6ec>
 200600c:	8880022c 	andhi	r2,r17,8
 2006010:	1000081e 	bne	r2,zero,2006034 <__divdf3+0x6ec>
 2006014:	00800434 	movhi	r2,16
 2006018:	10bfffc4 	addi	r2,r2,-1
 200601c:	8cc00234 	orhi	r19,r17,8
 2006020:	98a6703a 	and	r19,r19,r2
 2006024:	b811883a 	mov	r8,r23
 2006028:	9021883a 	mov	r16,r18
 200602c:	0081ffc4 	movi	r2,2047
 2006030:	003eae06 	br	2005aec <__reset+0xfdffcaec>
 2006034:	00800434 	movhi	r2,16
 2006038:	10bfffc4 	addi	r2,r2,-1
 200603c:	9cc00234 	orhi	r19,r19,8
 2006040:	98a6703a 	and	r19,r19,r2
 2006044:	b011883a 	mov	r8,r22
 2006048:	0081ffc4 	movi	r2,2047
 200604c:	003ea706 	br	2005aec <__reset+0xfdffcaec>
 2006050:	147ff604 	addi	r17,r2,-40
 2006054:	3462983a 	sll	r17,r6,r17
 2006058:	0025883a 	mov	r18,zero
 200605c:	003ee906 	br	2005c04 <__reset+0xfdffcc04>
 2006060:	3009883a 	mov	r4,r6
 2006064:	d9800215 	stw	r6,8(sp)
 2006068:	da400315 	stw	r9,12(sp)
 200606c:	da800415 	stw	r10,16(sp)
 2006070:	2006c340 	call	2006c34 <__clzsi2>
 2006074:	10800804 	addi	r2,r2,32
 2006078:	da800417 	ldw	r10,16(sp)
 200607c:	da400317 	ldw	r9,12(sp)
 2006080:	d9800217 	ldw	r6,8(sp)
 2006084:	003ed606 	br	2005be0 <__reset+0xfdffcbe0>
 2006088:	14fff604 	addi	r19,r2,-40
 200608c:	94e6983a 	sll	r19,r18,r19
 2006090:	0021883a 	mov	r16,zero
 2006094:	003ebc06 	br	2005b88 <__reset+0xfdffcb88>
 2006098:	d9800215 	stw	r6,8(sp)
 200609c:	d9c00515 	stw	r7,20(sp)
 20060a0:	2006c340 	call	2006c34 <__clzsi2>
 20060a4:	10800804 	addi	r2,r2,32
 20060a8:	d9c00517 	ldw	r7,20(sp)
 20060ac:	d9800217 	ldw	r6,8(sp)
 20060b0:	003eac06 	br	2005b64 <__reset+0xfdffcb64>
 20060b4:	b400292e 	bgeu	r22,r16,200615c <__divdf3+0x814>
 20060b8:	d8c00017 	ldw	r3,0(sp)
 20060bc:	b0ed883a 	add	r22,r22,r3
 20060c0:	b0c5803a 	cmpltu	r2,r22,r3
 20060c4:	15c5883a 	add	r2,r2,r23
 20060c8:	11cf883a 	add	r7,r2,r7
 20060cc:	88bfffc4 	addi	r2,r17,-1
 20060d0:	b9c0122e 	bgeu	r23,r7,200611c <__divdf3+0x7d4>
 20060d4:	39405036 	bltu	r7,r5,2006218 <__divdf3+0x8d0>
 20060d8:	29c01e26 	beq	r5,r7,2006154 <__divdf3+0x80c>
 20060dc:	394bc83a 	sub	r5,r7,r5
 20060e0:	1023883a 	mov	r17,r2
 20060e4:	003f4b06 	br	2005e14 <__reset+0xfdffce14>
 20060e8:	943ee62e 	bgeu	r18,r16,2005c84 <__reset+0xfdffcc84>
 20060ec:	980497fa 	slli	r2,r19,31
 20060f0:	8006d07a 	srli	r3,r16,1
 20060f4:	802c97fa 	slli	r22,r16,31
 20060f8:	9826d07a 	srli	r19,r19,1
 20060fc:	18a0b03a 	or	r16,r3,r2
 2006100:	003ee406 	br	2005c94 <__reset+0xfdffcc94>
 2006104:	a17fa11e 	bne	r20,r5,2005f8c <__reset+0xfdffcf8c>
 2006108:	b03f9b1e 	bne	r22,zero,2005f78 <__reset+0xfdffcf78>
 200610c:	d8000015 	stw	zero,0(sp)
 2006110:	d8c00017 	ldw	r3,0(sp)
 2006114:	1dbf9d1e 	bne	r3,r22,2005f8c <__reset+0xfdffcf8c>
 2006118:	003f9d06 	br	2005f90 <__reset+0xfdffcf90>
 200611c:	3dffef1e 	bne	r7,r23,20060dc <__reset+0xfdffd0dc>
 2006120:	d8c00017 	ldw	r3,0(sp)
 2006124:	b0ffeb2e 	bgeu	r22,r3,20060d4 <__reset+0xfdffd0d4>
 2006128:	b94bc83a 	sub	r5,r23,r5
 200612c:	1023883a 	mov	r17,r2
 2006130:	003f3806 	br	2005e14 <__reset+0xfdffce14>
 2006134:	1023883a 	mov	r17,r2
 2006138:	003f0906 	br	2005d60 <__reset+0xfdffcd60>
 200613c:	1039883a 	mov	fp,r2
 2006140:	003ef006 	br	2005d04 <__reset+0xfdffcd04>
 2006144:	a1403b36 	bltu	r20,r5,2006234 <__divdf3+0x8ec>
 2006148:	2d005826 	beq	r5,r20,20062ac <__divdf3+0x964>
 200614c:	1025883a 	mov	r18,r2
 2006150:	003f8e06 	br	2005f8c <__reset+0xfdffcf8c>
 2006154:	b4003036 	bltu	r22,r16,2006218 <__divdf3+0x8d0>
 2006158:	1023883a 	mov	r17,r2
 200615c:	000b883a 	mov	r5,zero
 2006160:	003f2c06 	br	2005e14 <__reset+0xfdffce14>
 2006164:	d8c00117 	ldw	r3,4(sp)
 2006168:	00bf0084 	movi	r2,-1022
 200616c:	10c5c83a 	sub	r2,r2,r3
 2006170:	00c00e04 	movi	r3,56
 2006174:	18800d0e 	bge	r3,r2,20061ac <__divdf3+0x864>
 2006178:	aa00004c 	andi	r8,r21,1
 200617c:	0005883a 	mov	r2,zero
 2006180:	0027883a 	mov	r19,zero
 2006184:	0021883a 	mov	r16,zero
 2006188:	003e5806 	br	2005aec <__reset+0xfdffcaec>
 200618c:	04bfffc4 	movi	r18,-1
 2006190:	003f7f06 	br	2005f90 <__reset+0xfdffcf90>
 2006194:	102d883a 	mov	r22,r2
 2006198:	003f5306 	br	2005ee8 <__reset+0xfdffcee8>
 200619c:	1011883a 	mov	r8,r2
 20061a0:	003f3706 	br	2005e80 <__reset+0xfdffce80>
 20061a4:	502b883a 	mov	r21,r10
 20061a8:	003f7906 	br	2005f90 <__reset+0xfdffcf90>
 20061ac:	00c007c4 	movi	r3,31
 20061b0:	18802816 	blt	r3,r2,2006254 <__divdf3+0x90c>
 20061b4:	d9000117 	ldw	r4,4(sp)
 20061b8:	908ad83a 	srl	r5,r18,r2
 20061bc:	8884d83a 	srl	r2,r17,r2
 20061c0:	20c10784 	addi	r3,r4,1054
 20061c4:	88c8983a 	sll	r4,r17,r3
 20061c8:	90c6983a 	sll	r3,r18,r3
 20061cc:	2908b03a 	or	r4,r5,r4
 20061d0:	1806c03a 	cmpne	r3,r3,zero
 20061d4:	20c6b03a 	or	r3,r4,r3
 20061d8:	190001cc 	andi	r4,r3,7
 20061dc:	20000726 	beq	r4,zero,20061fc <__divdf3+0x8b4>
 20061e0:	194003cc 	andi	r5,r3,15
 20061e4:	01000104 	movi	r4,4
 20061e8:	29000426 	beq	r5,r4,20061fc <__divdf3+0x8b4>
 20061ec:	1909883a 	add	r4,r3,r4
 20061f0:	20c7803a 	cmpltu	r3,r4,r3
 20061f4:	10c5883a 	add	r2,r2,r3
 20061f8:	2007883a 	mov	r3,r4
 20061fc:	1100202c 	andhi	r4,r2,128
 2006200:	20002226 	beq	r4,zero,200628c <__divdf3+0x944>
 2006204:	aa00004c 	andi	r8,r21,1
 2006208:	00800044 	movi	r2,1
 200620c:	0027883a 	mov	r19,zero
 2006210:	0021883a 	mov	r16,zero
 2006214:	003e3506 	br	2005aec <__reset+0xfdffcaec>
 2006218:	d8c00017 	ldw	r3,0(sp)
 200621c:	8c7fff84 	addi	r17,r17,-2
 2006220:	b0ed883a 	add	r22,r22,r3
 2006224:	b0c5803a 	cmpltu	r2,r22,r3
 2006228:	15c5883a 	add	r2,r2,r23
 200622c:	11cf883a 	add	r7,r2,r7
 2006230:	003ef706 	br	2005e10 <__reset+0xfdffce10>
 2006234:	d8c00017 	ldw	r3,0(sp)
 2006238:	18c9883a 	add	r4,r3,r3
 200623c:	20c5803a 	cmpltu	r2,r4,r3
 2006240:	15c7883a 	add	r3,r2,r23
 2006244:	a0e9883a 	add	r20,r20,r3
 2006248:	90bfff84 	addi	r2,r18,-2
 200624c:	d9000015 	stw	r4,0(sp)
 2006250:	003f4c06 	br	2005f84 <__reset+0xfdffcf84>
 2006254:	d9000117 	ldw	r4,4(sp)
 2006258:	00fef884 	movi	r3,-1054
 200625c:	1907c83a 	sub	r3,r3,r4
 2006260:	01000804 	movi	r4,32
 2006264:	88c6d83a 	srl	r3,r17,r3
 2006268:	11001426 	beq	r2,r4,20062bc <__divdf3+0x974>
 200626c:	d9000117 	ldw	r4,4(sp)
 2006270:	20810f84 	addi	r2,r4,1086
 2006274:	8884983a 	sll	r2,r17,r2
 2006278:	1484b03a 	or	r2,r2,r18
 200627c:	1004c03a 	cmpne	r2,r2,zero
 2006280:	10c6b03a 	or	r3,r2,r3
 2006284:	0005883a 	mov	r2,zero
 2006288:	003fd306 	br	20061d8 <__reset+0xfdffd1d8>
 200628c:	1020977a 	slli	r16,r2,29
 2006290:	1806d0fa 	srli	r3,r3,3
 2006294:	1004927a 	slli	r2,r2,9
 2006298:	aa00004c 	andi	r8,r21,1
 200629c:	80e0b03a 	or	r16,r16,r3
 20062a0:	1026d33a 	srli	r19,r2,12
 20062a4:	0005883a 	mov	r2,zero
 20062a8:	003e1006 	br	2005aec <__reset+0xfdffcaec>
 20062ac:	d8c00017 	ldw	r3,0(sp)
 20062b0:	1dbfe036 	bltu	r3,r22,2006234 <__reset+0xfdffd234>
 20062b4:	1025883a 	mov	r18,r2
 20062b8:	003f9506 	br	2006110 <__reset+0xfdffd110>
 20062bc:	0005883a 	mov	r2,zero
 20062c0:	003fed06 	br	2006278 <__reset+0xfdffd278>
 20062c4:	00800434 	movhi	r2,16
 20062c8:	10bfffc4 	addi	r2,r2,-1
 20062cc:	8cc00234 	orhi	r19,r17,8
 20062d0:	98a6703a 	and	r19,r19,r2
 20062d4:	5011883a 	mov	r8,r10
 20062d8:	9021883a 	mov	r16,r18
 20062dc:	0081ffc4 	movi	r2,2047
 20062e0:	003e0206 	br	2005aec <__reset+0xfdffcaec>

020062e4 <__muldf3>:
 20062e4:	deffee04 	addi	sp,sp,-72
 20062e8:	dc400915 	stw	r17,36(sp)
 20062ec:	2822d53a 	srli	r17,r5,20
 20062f0:	dc000815 	stw	r16,32(sp)
 20062f4:	2820d7fa 	srli	r16,r5,31
 20062f8:	df001015 	stw	fp,64(sp)
 20062fc:	dd000c15 	stw	r20,48(sp)
 2006300:	dcc00b15 	stw	r19,44(sp)
 2006304:	dfc01115 	stw	ra,68(sp)
 2006308:	04c00434 	movhi	r19,16
 200630c:	9cffffc4 	addi	r19,r19,-1
 2006310:	ddc00f15 	stw	r23,60(sp)
 2006314:	dd800e15 	stw	r22,56(sp)
 2006318:	dd400d15 	stw	r21,52(sp)
 200631c:	dc800a15 	stw	r18,40(sp)
 2006320:	8c41ffcc 	andi	r17,r17,2047
 2006324:	2029883a 	mov	r20,r4
 2006328:	2ce6703a 	and	r19,r5,r19
 200632c:	8039883a 	mov	fp,r16
 2006330:	82003fcc 	andi	r8,r16,255
 2006334:	88005d26 	beq	r17,zero,20064ac <__muldf3+0x1c8>
 2006338:	0081ffc4 	movi	r2,2047
 200633c:	202f883a 	mov	r23,r4
 2006340:	88803326 	beq	r17,r2,2006410 <__muldf3+0x12c>
 2006344:	98800434 	orhi	r2,r19,16
 2006348:	100490fa 	slli	r2,r2,3
 200634c:	2026d77a 	srli	r19,r4,29
 2006350:	202e90fa 	slli	r23,r4,3
 2006354:	8c7f0044 	addi	r17,r17,-1023
 2006358:	14e6b03a 	or	r19,r2,r19
 200635c:	002d883a 	mov	r22,zero
 2006360:	000b883a 	mov	r5,zero
 2006364:	3804d53a 	srli	r2,r7,20
 2006368:	3828d7fa 	srli	r20,r7,31
 200636c:	04800434 	movhi	r18,16
 2006370:	94bfffc4 	addi	r18,r18,-1
 2006374:	1081ffcc 	andi	r2,r2,2047
 2006378:	302b883a 	mov	r21,r6
 200637c:	3ca4703a 	and	r18,r7,r18
 2006380:	a2403fcc 	andi	r9,r20,255
 2006384:	10006826 	beq	r2,zero,2006528 <__muldf3+0x244>
 2006388:	00c1ffc4 	movi	r3,2047
 200638c:	10c06026 	beq	r2,r3,2006510 <__muldf3+0x22c>
 2006390:	90c00434 	orhi	r3,r18,16
 2006394:	180690fa 	slli	r3,r3,3
 2006398:	3024d77a 	srli	r18,r6,29
 200639c:	302a90fa 	slli	r21,r6,3
 20063a0:	10bf0044 	addi	r2,r2,-1023
 20063a4:	1ca4b03a 	or	r18,r3,r18
 20063a8:	0007883a 	mov	r3,zero
 20063ac:	1d88b03a 	or	r4,r3,r22
 20063b0:	2109883a 	add	r4,r4,r4
 20063b4:	2109883a 	add	r4,r4,r4
 20063b8:	01808034 	movhi	r6,512
 20063bc:	3198f404 	addi	r6,r6,25552
 20063c0:	2189883a 	add	r4,r4,r6
 20063c4:	21000017 	ldw	r4,0(r4)
 20063c8:	852cf03a 	xor	r22,r16,r20
 20063cc:	2000683a 	jmp	r4
 20063d0:	02006618 	cmpnei	r8,zero,408
 20063d4:	02006608 	cmpgei	r8,zero,408
 20063d8:	02006608 	cmpgei	r8,zero,408
 20063dc:	020065f4 	movhi	r8,407
 20063e0:	02006430 	cmpltui	r8,zero,400
 20063e4:	02006430 	cmpltui	r8,zero,400
 20063e8:	020065dc 	xori	r8,zero,407
 20063ec:	020065f4 	movhi	r8,407
 20063f0:	02006430 	cmpltui	r8,zero,400
 20063f4:	020065dc 	xori	r8,zero,407
 20063f8:	02006430 	cmpltui	r8,zero,400
 20063fc:	020065f4 	movhi	r8,407
 2006400:	0200642c 	andhi	r8,zero,400
 2006404:	0200642c 	andhi	r8,zero,400
 2006408:	0200642c 	andhi	r8,zero,400
 200640c:	02006930 	cmpltui	r8,zero,420
 2006410:	9904b03a 	or	r2,r19,r4
 2006414:	10006e1e 	bne	r2,zero,20065d0 <__muldf3+0x2ec>
 2006418:	05800204 	movi	r22,8
 200641c:	0027883a 	mov	r19,zero
 2006420:	002f883a 	mov	r23,zero
 2006424:	01400084 	movi	r5,2
 2006428:	003fce06 	br	2006364 <__reset+0xfdffd364>
 200642c:	402d883a 	mov	r22,r8
 2006430:	00800084 	movi	r2,2
 2006434:	28805626 	beq	r5,r2,2006590 <__muldf3+0x2ac>
 2006438:	008000c4 	movi	r2,3
 200643c:	2881a226 	beq	r5,r2,2006ac8 <__muldf3+0x7e4>
 2006440:	00800044 	movi	r2,1
 2006444:	28811d1e 	bne	r5,r2,20068bc <__muldf3+0x5d8>
 2006448:	b039883a 	mov	fp,r22
 200644c:	0005883a 	mov	r2,zero
 2006450:	0027883a 	mov	r19,zero
 2006454:	002f883a 	mov	r23,zero
 2006458:	1004953a 	slli	r2,r2,20
 200645c:	e7003fcc 	andi	fp,fp,255
 2006460:	e03897fa 	slli	fp,fp,31
 2006464:	00c00434 	movhi	r3,16
 2006468:	18ffffc4 	addi	r3,r3,-1
 200646c:	98e6703a 	and	r19,r19,r3
 2006470:	9886b03a 	or	r3,r19,r2
 2006474:	1f06b03a 	or	r3,r3,fp
 2006478:	b805883a 	mov	r2,r23
 200647c:	dfc01117 	ldw	ra,68(sp)
 2006480:	df001017 	ldw	fp,64(sp)
 2006484:	ddc00f17 	ldw	r23,60(sp)
 2006488:	dd800e17 	ldw	r22,56(sp)
 200648c:	dd400d17 	ldw	r21,52(sp)
 2006490:	dd000c17 	ldw	r20,48(sp)
 2006494:	dcc00b17 	ldw	r19,44(sp)
 2006498:	dc800a17 	ldw	r18,40(sp)
 200649c:	dc400917 	ldw	r17,36(sp)
 20064a0:	dc000817 	ldw	r16,32(sp)
 20064a4:	dec01204 	addi	sp,sp,72
 20064a8:	f800283a 	ret
 20064ac:	9904b03a 	or	r2,r19,r4
 20064b0:	10004226 	beq	r2,zero,20065bc <__muldf3+0x2d8>
 20064b4:	98013426 	beq	r19,zero,2006988 <__muldf3+0x6a4>
 20064b8:	9809883a 	mov	r4,r19
 20064bc:	d9800515 	stw	r6,20(sp)
 20064c0:	d9c00415 	stw	r7,16(sp)
 20064c4:	da000615 	stw	r8,24(sp)
 20064c8:	2006c340 	call	2006c34 <__clzsi2>
 20064cc:	d9800517 	ldw	r6,20(sp)
 20064d0:	d9c00417 	ldw	r7,16(sp)
 20064d4:	da000617 	ldw	r8,24(sp)
 20064d8:	00c009c4 	movi	r3,39
 20064dc:	18812616 	blt	r3,r2,2006978 <__muldf3+0x694>
 20064e0:	00c00a04 	movi	r3,40
 20064e4:	15fffe04 	addi	r23,r2,-8
 20064e8:	1887c83a 	sub	r3,r3,r2
 20064ec:	9de6983a 	sll	r19,r19,r23
 20064f0:	a0c6d83a 	srl	r3,r20,r3
 20064f4:	a5ee983a 	sll	r23,r20,r23
 20064f8:	1ce6b03a 	or	r19,r3,r19
 20064fc:	047f0344 	movi	r17,-1011
 2006500:	88a3c83a 	sub	r17,r17,r2
 2006504:	002d883a 	mov	r22,zero
 2006508:	000b883a 	mov	r5,zero
 200650c:	003f9506 	br	2006364 <__reset+0xfdffd364>
 2006510:	9186b03a 	or	r3,r18,r6
 2006514:	1800271e 	bne	r3,zero,20065b4 <__muldf3+0x2d0>
 2006518:	0025883a 	mov	r18,zero
 200651c:	002b883a 	mov	r21,zero
 2006520:	00c00084 	movi	r3,2
 2006524:	003fa106 	br	20063ac <__reset+0xfdffd3ac>
 2006528:	9186b03a 	or	r3,r18,r6
 200652c:	18001d26 	beq	r3,zero,20065a4 <__muldf3+0x2c0>
 2006530:	90012226 	beq	r18,zero,20069bc <__muldf3+0x6d8>
 2006534:	9009883a 	mov	r4,r18
 2006538:	d9400415 	stw	r5,16(sp)
 200653c:	d9800515 	stw	r6,20(sp)
 2006540:	da000615 	stw	r8,24(sp)
 2006544:	da400715 	stw	r9,28(sp)
 2006548:	2006c340 	call	2006c34 <__clzsi2>
 200654c:	d9400417 	ldw	r5,16(sp)
 2006550:	d9800517 	ldw	r6,20(sp)
 2006554:	da000617 	ldw	r8,24(sp)
 2006558:	da400717 	ldw	r9,28(sp)
 200655c:	00c009c4 	movi	r3,39
 2006560:	18811216 	blt	r3,r2,20069ac <__muldf3+0x6c8>
 2006564:	01c00a04 	movi	r7,40
 2006568:	157ffe04 	addi	r21,r2,-8
 200656c:	388fc83a 	sub	r7,r7,r2
 2006570:	9564983a 	sll	r18,r18,r21
 2006574:	31ced83a 	srl	r7,r6,r7
 2006578:	356a983a 	sll	r21,r6,r21
 200657c:	3ca4b03a 	or	r18,r7,r18
 2006580:	00ff0344 	movi	r3,-1011
 2006584:	1885c83a 	sub	r2,r3,r2
 2006588:	0007883a 	mov	r3,zero
 200658c:	003f8706 	br	20063ac <__reset+0xfdffd3ac>
 2006590:	b039883a 	mov	fp,r22
 2006594:	0081ffc4 	movi	r2,2047
 2006598:	0027883a 	mov	r19,zero
 200659c:	002f883a 	mov	r23,zero
 20065a0:	003fad06 	br	2006458 <__reset+0xfdffd458>
 20065a4:	0025883a 	mov	r18,zero
 20065a8:	002b883a 	mov	r21,zero
 20065ac:	00c00044 	movi	r3,1
 20065b0:	003f7e06 	br	20063ac <__reset+0xfdffd3ac>
 20065b4:	00c000c4 	movi	r3,3
 20065b8:	003f7c06 	br	20063ac <__reset+0xfdffd3ac>
 20065bc:	05800104 	movi	r22,4
 20065c0:	0027883a 	mov	r19,zero
 20065c4:	002f883a 	mov	r23,zero
 20065c8:	01400044 	movi	r5,1
 20065cc:	003f6506 	br	2006364 <__reset+0xfdffd364>
 20065d0:	05800304 	movi	r22,12
 20065d4:	014000c4 	movi	r5,3
 20065d8:	003f6206 	br	2006364 <__reset+0xfdffd364>
 20065dc:	0039883a 	mov	fp,zero
 20065e0:	04c00434 	movhi	r19,16
 20065e4:	9cffffc4 	addi	r19,r19,-1
 20065e8:	05ffffc4 	movi	r23,-1
 20065ec:	0081ffc4 	movi	r2,2047
 20065f0:	003f9906 	br	2006458 <__reset+0xfdffd458>
 20065f4:	9027883a 	mov	r19,r18
 20065f8:	a82f883a 	mov	r23,r21
 20065fc:	482d883a 	mov	r22,r9
 2006600:	180b883a 	mov	r5,r3
 2006604:	003f8a06 	br	2006430 <__reset+0xfdffd430>
 2006608:	9027883a 	mov	r19,r18
 200660c:	a82f883a 	mov	r23,r21
 2006610:	180b883a 	mov	r5,r3
 2006614:	003f8606 	br	2006430 <__reset+0xfdffd430>
 2006618:	a828d43a 	srli	r20,r21,16
 200661c:	b820d43a 	srli	r16,r23,16
 2006620:	ad7fffcc 	andi	r21,r21,65535
 2006624:	bdffffcc 	andi	r23,r23,65535
 2006628:	8885883a 	add	r2,r17,r2
 200662c:	a809883a 	mov	r4,r21
 2006630:	b80b883a 	mov	r5,r23
 2006634:	d8800015 	stw	r2,0(sp)
 2006638:	20059200 	call	2005920 <__mulsi3>
 200663c:	a009883a 	mov	r4,r20
 2006640:	b80b883a 	mov	r5,r23
 2006644:	d8800415 	stw	r2,16(sp)
 2006648:	20059200 	call	2005920 <__mulsi3>
 200664c:	a809883a 	mov	r4,r21
 2006650:	800b883a 	mov	r5,r16
 2006654:	d8800615 	stw	r2,24(sp)
 2006658:	20059200 	call	2005920 <__mulsi3>
 200665c:	a009883a 	mov	r4,r20
 2006660:	800b883a 	mov	r5,r16
 2006664:	1023883a 	mov	r17,r2
 2006668:	20059200 	call	2005920 <__mulsi3>
 200666c:	d9c00417 	ldw	r7,16(sp)
 2006670:	da000617 	ldw	r8,24(sp)
 2006674:	1039883a 	mov	fp,r2
 2006678:	3804d43a 	srli	r2,r7,16
 200667c:	8a07883a 	add	r3,r17,r8
 2006680:	1887883a 	add	r3,r3,r2
 2006684:	1c40022e 	bgeu	r3,r17,2006690 <__muldf3+0x3ac>
 2006688:	00800074 	movhi	r2,1
 200668c:	e0b9883a 	add	fp,fp,r2
 2006690:	1804943a 	slli	r2,r3,16
 2006694:	1806d43a 	srli	r3,r3,16
 2006698:	9022d43a 	srli	r17,r18,16
 200669c:	39ffffcc 	andi	r7,r7,65535
 20066a0:	94bfffcc 	andi	r18,r18,65535
 20066a4:	11cf883a 	add	r7,r2,r7
 20066a8:	b80b883a 	mov	r5,r23
 20066ac:	9009883a 	mov	r4,r18
 20066b0:	d8c00215 	stw	r3,8(sp)
 20066b4:	d9c00315 	stw	r7,12(sp)
 20066b8:	20059200 	call	2005920 <__mulsi3>
 20066bc:	b80b883a 	mov	r5,r23
 20066c0:	8809883a 	mov	r4,r17
 20066c4:	d8800415 	stw	r2,16(sp)
 20066c8:	20059200 	call	2005920 <__mulsi3>
 20066cc:	9009883a 	mov	r4,r18
 20066d0:	800b883a 	mov	r5,r16
 20066d4:	d8800715 	stw	r2,28(sp)
 20066d8:	20059200 	call	2005920 <__mulsi3>
 20066dc:	8809883a 	mov	r4,r17
 20066e0:	800b883a 	mov	r5,r16
 20066e4:	102f883a 	mov	r23,r2
 20066e8:	20059200 	call	2005920 <__mulsi3>
 20066ec:	d9c00417 	ldw	r7,16(sp)
 20066f0:	da400717 	ldw	r9,28(sp)
 20066f4:	1011883a 	mov	r8,r2
 20066f8:	3804d43a 	srli	r2,r7,16
 20066fc:	ba47883a 	add	r3,r23,r9
 2006700:	1887883a 	add	r3,r3,r2
 2006704:	1dc0022e 	bgeu	r3,r23,2006710 <__muldf3+0x42c>
 2006708:	00800074 	movhi	r2,1
 200670c:	4091883a 	add	r8,r8,r2
 2006710:	1804d43a 	srli	r2,r3,16
 2006714:	182e943a 	slli	r23,r3,16
 2006718:	9820d43a 	srli	r16,r19,16
 200671c:	9cffffcc 	andi	r19,r19,65535
 2006720:	39ffffcc 	andi	r7,r7,65535
 2006724:	4085883a 	add	r2,r8,r2
 2006728:	a809883a 	mov	r4,r21
 200672c:	980b883a 	mov	r5,r19
 2006730:	b9ef883a 	add	r23,r23,r7
 2006734:	d8800115 	stw	r2,4(sp)
 2006738:	20059200 	call	2005920 <__mulsi3>
 200673c:	a009883a 	mov	r4,r20
 2006740:	980b883a 	mov	r5,r19
 2006744:	d8800415 	stw	r2,16(sp)
 2006748:	20059200 	call	2005920 <__mulsi3>
 200674c:	a809883a 	mov	r4,r21
 2006750:	800b883a 	mov	r5,r16
 2006754:	d8800715 	stw	r2,28(sp)
 2006758:	20059200 	call	2005920 <__mulsi3>
 200675c:	a009883a 	mov	r4,r20
 2006760:	800b883a 	mov	r5,r16
 2006764:	102b883a 	mov	r21,r2
 2006768:	20059200 	call	2005920 <__mulsi3>
 200676c:	d9c00417 	ldw	r7,16(sp)
 2006770:	da400717 	ldw	r9,28(sp)
 2006774:	1011883a 	mov	r8,r2
 2006778:	3804d43a 	srli	r2,r7,16
 200677c:	aa47883a 	add	r3,r21,r9
 2006780:	1887883a 	add	r3,r3,r2
 2006784:	1d40022e 	bgeu	r3,r21,2006790 <__muldf3+0x4ac>
 2006788:	00800074 	movhi	r2,1
 200678c:	4091883a 	add	r8,r8,r2
 2006790:	1828d43a 	srli	r20,r3,16
 2006794:	1806943a 	slli	r3,r3,16
 2006798:	39ffffcc 	andi	r7,r7,65535
 200679c:	9009883a 	mov	r4,r18
 20067a0:	980b883a 	mov	r5,r19
 20067a4:	19eb883a 	add	r21,r3,r7
 20067a8:	4529883a 	add	r20,r8,r20
 20067ac:	20059200 	call	2005920 <__mulsi3>
 20067b0:	980b883a 	mov	r5,r19
 20067b4:	8809883a 	mov	r4,r17
 20067b8:	d8800415 	stw	r2,16(sp)
 20067bc:	20059200 	call	2005920 <__mulsi3>
 20067c0:	9009883a 	mov	r4,r18
 20067c4:	800b883a 	mov	r5,r16
 20067c8:	1027883a 	mov	r19,r2
 20067cc:	20059200 	call	2005920 <__mulsi3>
 20067d0:	8809883a 	mov	r4,r17
 20067d4:	800b883a 	mov	r5,r16
 20067d8:	1025883a 	mov	r18,r2
 20067dc:	20059200 	call	2005920 <__mulsi3>
 20067e0:	d9c00417 	ldw	r7,16(sp)
 20067e4:	1011883a 	mov	r8,r2
 20067e8:	94c7883a 	add	r3,r18,r19
 20067ec:	3804d43a 	srli	r2,r7,16
 20067f0:	1887883a 	add	r3,r3,r2
 20067f4:	1c80022e 	bgeu	r3,r18,2006800 <__muldf3+0x51c>
 20067f8:	00800074 	movhi	r2,1
 20067fc:	4091883a 	add	r8,r8,r2
 2006800:	1804943a 	slli	r2,r3,16
 2006804:	d9400217 	ldw	r5,8(sp)
 2006808:	39ffffcc 	andi	r7,r7,65535
 200680c:	11cf883a 	add	r7,r2,r7
 2006810:	d8800117 	ldw	r2,4(sp)
 2006814:	b949883a 	add	r4,r23,r5
 2006818:	2739883a 	add	fp,r4,fp
 200681c:	e5ef803a 	cmpltu	r23,fp,r23
 2006820:	388f883a 	add	r7,r7,r2
 2006824:	3dcb883a 	add	r5,r7,r23
 2006828:	a149883a 	add	r4,r20,r5
 200682c:	2def803a 	cmpltu	r23,r5,r23
 2006830:	d9400117 	ldw	r5,4(sp)
 2006834:	e579883a 	add	fp,fp,r21
 2006838:	e56b803a 	cmpltu	r21,fp,r21
 200683c:	1804d43a 	srli	r2,r3,16
 2006840:	394f803a 	cmpltu	r7,r7,r5
 2006844:	2547883a 	add	r3,r4,r21
 2006848:	b9e6b03a 	or	r19,r23,r7
 200684c:	1d6b803a 	cmpltu	r21,r3,r21
 2006850:	2529803a 	cmpltu	r20,r4,r20
 2006854:	98a7883a 	add	r19,r19,r2
 2006858:	ad2ab03a 	or	r21,r21,r20
 200685c:	9d67883a 	add	r19,r19,r21
 2006860:	e02e927a 	slli	r23,fp,9
 2006864:	9a27883a 	add	r19,r19,r8
 2006868:	d9000317 	ldw	r4,12(sp)
 200686c:	1804d5fa 	srli	r2,r3,23
 2006870:	9826927a 	slli	r19,r19,9
 2006874:	e038d5fa 	srli	fp,fp,23
 2006878:	b92eb03a 	or	r23,r23,r4
 200687c:	1806927a 	slli	r3,r3,9
 2006880:	98a6b03a 	or	r19,r19,r2
 2006884:	b82ec03a 	cmpne	r23,r23,zero
 2006888:	bf2eb03a 	or	r23,r23,fp
 200688c:	9880402c 	andhi	r2,r19,256
 2006890:	b8eeb03a 	or	r23,r23,r3
 2006894:	10000926 	beq	r2,zero,20068bc <__muldf3+0x5d8>
 2006898:	b806d07a 	srli	r3,r23,1
 200689c:	bdc0004c 	andi	r23,r23,1
 20068a0:	980497fa 	slli	r2,r19,31
 20068a4:	b8eeb03a 	or	r23,r23,r3
 20068a8:	d8c00017 	ldw	r3,0(sp)
 20068ac:	9826d07a 	srli	r19,r19,1
 20068b0:	b8aeb03a 	or	r23,r23,r2
 20068b4:	18c00044 	addi	r3,r3,1
 20068b8:	d8c00015 	stw	r3,0(sp)
 20068bc:	d8c00017 	ldw	r3,0(sp)
 20068c0:	1880ffc4 	addi	r2,r3,1023
 20068c4:	0080490e 	bge	zero,r2,20069ec <__muldf3+0x708>
 20068c8:	b8c001cc 	andi	r3,r23,7
 20068cc:	18000726 	beq	r3,zero,20068ec <__muldf3+0x608>
 20068d0:	b90003cc 	andi	r4,r23,15
 20068d4:	00c00104 	movi	r3,4
 20068d8:	20c00426 	beq	r4,r3,20068ec <__muldf3+0x608>
 20068dc:	b8c7883a 	add	r3,r23,r3
 20068e0:	1def803a 	cmpltu	r23,r3,r23
 20068e4:	9de7883a 	add	r19,r19,r23
 20068e8:	182f883a 	mov	r23,r3
 20068ec:	98c0402c 	andhi	r3,r19,256
 20068f0:	18000526 	beq	r3,zero,2006908 <__muldf3+0x624>
 20068f4:	d8c00017 	ldw	r3,0(sp)
 20068f8:	00bfc034 	movhi	r2,65280
 20068fc:	10bfffc4 	addi	r2,r2,-1
 2006900:	98a6703a 	and	r19,r19,r2
 2006904:	18810004 	addi	r2,r3,1024
 2006908:	00c1ff84 	movi	r3,2046
 200690c:	18bf2016 	blt	r3,r2,2006590 <__reset+0xfdffd590>
 2006910:	9806977a 	slli	r3,r19,29
 2006914:	b82ed0fa 	srli	r23,r23,3
 2006918:	9826927a 	slli	r19,r19,9
 200691c:	1081ffcc 	andi	r2,r2,2047
 2006920:	1deeb03a 	or	r23,r3,r23
 2006924:	9826d33a 	srli	r19,r19,12
 2006928:	b039883a 	mov	fp,r22
 200692c:	003eca06 	br	2006458 <__reset+0xfdffd458>
 2006930:	9880022c 	andhi	r2,r19,8
 2006934:	10000a26 	beq	r2,zero,2006960 <__muldf3+0x67c>
 2006938:	9080022c 	andhi	r2,r18,8
 200693c:	1000081e 	bne	r2,zero,2006960 <__muldf3+0x67c>
 2006940:	00800434 	movhi	r2,16
 2006944:	10bfffc4 	addi	r2,r2,-1
 2006948:	94c00234 	orhi	r19,r18,8
 200694c:	98a6703a 	and	r19,r19,r2
 2006950:	a039883a 	mov	fp,r20
 2006954:	a82f883a 	mov	r23,r21
 2006958:	0081ffc4 	movi	r2,2047
 200695c:	003ebe06 	br	2006458 <__reset+0xfdffd458>
 2006960:	00800434 	movhi	r2,16
 2006964:	10bfffc4 	addi	r2,r2,-1
 2006968:	9cc00234 	orhi	r19,r19,8
 200696c:	98a6703a 	and	r19,r19,r2
 2006970:	0081ffc4 	movi	r2,2047
 2006974:	003eb806 	br	2006458 <__reset+0xfdffd458>
 2006978:	14fff604 	addi	r19,r2,-40
 200697c:	a4e6983a 	sll	r19,r20,r19
 2006980:	002f883a 	mov	r23,zero
 2006984:	003edd06 	br	20064fc <__reset+0xfdffd4fc>
 2006988:	d9800515 	stw	r6,20(sp)
 200698c:	d9c00415 	stw	r7,16(sp)
 2006990:	da000615 	stw	r8,24(sp)
 2006994:	2006c340 	call	2006c34 <__clzsi2>
 2006998:	10800804 	addi	r2,r2,32
 200699c:	da000617 	ldw	r8,24(sp)
 20069a0:	d9c00417 	ldw	r7,16(sp)
 20069a4:	d9800517 	ldw	r6,20(sp)
 20069a8:	003ecb06 	br	20064d8 <__reset+0xfdffd4d8>
 20069ac:	14bff604 	addi	r18,r2,-40
 20069b0:	34a4983a 	sll	r18,r6,r18
 20069b4:	002b883a 	mov	r21,zero
 20069b8:	003ef106 	br	2006580 <__reset+0xfdffd580>
 20069bc:	3009883a 	mov	r4,r6
 20069c0:	d9400415 	stw	r5,16(sp)
 20069c4:	d9800515 	stw	r6,20(sp)
 20069c8:	da000615 	stw	r8,24(sp)
 20069cc:	da400715 	stw	r9,28(sp)
 20069d0:	2006c340 	call	2006c34 <__clzsi2>
 20069d4:	10800804 	addi	r2,r2,32
 20069d8:	da400717 	ldw	r9,28(sp)
 20069dc:	da000617 	ldw	r8,24(sp)
 20069e0:	d9800517 	ldw	r6,20(sp)
 20069e4:	d9400417 	ldw	r5,16(sp)
 20069e8:	003edc06 	br	200655c <__reset+0xfdffd55c>
 20069ec:	d8c00017 	ldw	r3,0(sp)
 20069f0:	00bf0084 	movi	r2,-1022
 20069f4:	10c5c83a 	sub	r2,r2,r3
 20069f8:	00c00e04 	movi	r3,56
 20069fc:	18be9216 	blt	r3,r2,2006448 <__reset+0xfdffd448>
 2006a00:	00c007c4 	movi	r3,31
 2006a04:	18801916 	blt	r3,r2,2006a6c <__muldf3+0x788>
 2006a08:	d9000017 	ldw	r4,0(sp)
 2006a0c:	b88ad83a 	srl	r5,r23,r2
 2006a10:	9884d83a 	srl	r2,r19,r2
 2006a14:	20c10784 	addi	r3,r4,1054
 2006a18:	98c8983a 	sll	r4,r19,r3
 2006a1c:	b8c6983a 	sll	r3,r23,r3
 2006a20:	2908b03a 	or	r4,r5,r4
 2006a24:	1806c03a 	cmpne	r3,r3,zero
 2006a28:	20c6b03a 	or	r3,r4,r3
 2006a2c:	190001cc 	andi	r4,r3,7
 2006a30:	20000726 	beq	r4,zero,2006a50 <__muldf3+0x76c>
 2006a34:	194003cc 	andi	r5,r3,15
 2006a38:	01000104 	movi	r4,4
 2006a3c:	29000426 	beq	r5,r4,2006a50 <__muldf3+0x76c>
 2006a40:	1909883a 	add	r4,r3,r4
 2006a44:	20c7803a 	cmpltu	r3,r4,r3
 2006a48:	10c5883a 	add	r2,r2,r3
 2006a4c:	2007883a 	mov	r3,r4
 2006a50:	1100202c 	andhi	r4,r2,128
 2006a54:	20001226 	beq	r4,zero,2006aa0 <__muldf3+0x7bc>
 2006a58:	b039883a 	mov	fp,r22
 2006a5c:	00800044 	movi	r2,1
 2006a60:	0027883a 	mov	r19,zero
 2006a64:	002f883a 	mov	r23,zero
 2006a68:	003e7b06 	br	2006458 <__reset+0xfdffd458>
 2006a6c:	d9400017 	ldw	r5,0(sp)
 2006a70:	00fef884 	movi	r3,-1054
 2006a74:	01000804 	movi	r4,32
 2006a78:	1947c83a 	sub	r3,r3,r5
 2006a7c:	98c6d83a 	srl	r3,r19,r3
 2006a80:	11000f26 	beq	r2,r4,2006ac0 <__muldf3+0x7dc>
 2006a84:	28810f84 	addi	r2,r5,1086
 2006a88:	9884983a 	sll	r2,r19,r2
 2006a8c:	15c4b03a 	or	r2,r2,r23
 2006a90:	1004c03a 	cmpne	r2,r2,zero
 2006a94:	10c6b03a 	or	r3,r2,r3
 2006a98:	0005883a 	mov	r2,zero
 2006a9c:	003fe306 	br	2006a2c <__reset+0xfdffda2c>
 2006aa0:	102e977a 	slli	r23,r2,29
 2006aa4:	1806d0fa 	srli	r3,r3,3
 2006aa8:	1004927a 	slli	r2,r2,9
 2006aac:	b039883a 	mov	fp,r22
 2006ab0:	b8eeb03a 	or	r23,r23,r3
 2006ab4:	1026d33a 	srli	r19,r2,12
 2006ab8:	0005883a 	mov	r2,zero
 2006abc:	003e6606 	br	2006458 <__reset+0xfdffd458>
 2006ac0:	0005883a 	mov	r2,zero
 2006ac4:	003ff106 	br	2006a8c <__reset+0xfdffda8c>
 2006ac8:	00800434 	movhi	r2,16
 2006acc:	10bfffc4 	addi	r2,r2,-1
 2006ad0:	9cc00234 	orhi	r19,r19,8
 2006ad4:	98a6703a 	and	r19,r19,r2
 2006ad8:	b039883a 	mov	fp,r22
 2006adc:	0081ffc4 	movi	r2,2047
 2006ae0:	003e5d06 	br	2006458 <__reset+0xfdffd458>

02006ae4 <__fixdfsi>:
 2006ae4:	2806d53a 	srli	r3,r5,20
 2006ae8:	00800434 	movhi	r2,16
 2006aec:	10bfffc4 	addi	r2,r2,-1
 2006af0:	0180ff84 	movi	r6,1022
 2006af4:	18c1ffcc 	andi	r3,r3,2047
 2006af8:	2884703a 	and	r2,r5,r2
 2006afc:	280ad7fa 	srli	r5,r5,31
 2006b00:	30c0120e 	bge	r6,r3,2006b4c <__fixdfsi+0x68>
 2006b04:	01810744 	movi	r6,1053
 2006b08:	30c00c16 	blt	r6,r3,2006b3c <__fixdfsi+0x58>
 2006b0c:	01810cc4 	movi	r6,1075
 2006b10:	30cdc83a 	sub	r6,r6,r3
 2006b14:	01c007c4 	movi	r7,31
 2006b18:	10800434 	orhi	r2,r2,16
 2006b1c:	39800d16 	blt	r7,r6,2006b54 <__fixdfsi+0x70>
 2006b20:	18fefb44 	addi	r3,r3,-1043
 2006b24:	2188d83a 	srl	r4,r4,r6
 2006b28:	10c4983a 	sll	r2,r2,r3
 2006b2c:	2084b03a 	or	r2,r4,r2
 2006b30:	28000726 	beq	r5,zero,2006b50 <__fixdfsi+0x6c>
 2006b34:	0085c83a 	sub	r2,zero,r2
 2006b38:	f800283a 	ret
 2006b3c:	00a00034 	movhi	r2,32768
 2006b40:	10bfffc4 	addi	r2,r2,-1
 2006b44:	2885883a 	add	r2,r5,r2
 2006b48:	f800283a 	ret
 2006b4c:	0005883a 	mov	r2,zero
 2006b50:	f800283a 	ret
 2006b54:	010104c4 	movi	r4,1043
 2006b58:	20c7c83a 	sub	r3,r4,r3
 2006b5c:	10c4d83a 	srl	r2,r2,r3
 2006b60:	003ff306 	br	2006b30 <__reset+0xfdffdb30>

02006b64 <__floatsidf>:
 2006b64:	defffd04 	addi	sp,sp,-12
 2006b68:	dc000015 	stw	r16,0(sp)
 2006b6c:	dfc00215 	stw	ra,8(sp)
 2006b70:	dc400115 	stw	r17,4(sp)
 2006b74:	2021883a 	mov	r16,r4
 2006b78:	20002926 	beq	r4,zero,2006c20 <__floatsidf+0xbc>
 2006b7c:	2022d7fa 	srli	r17,r4,31
 2006b80:	88000126 	beq	r17,zero,2006b88 <__floatsidf+0x24>
 2006b84:	0121c83a 	sub	r16,zero,r4
 2006b88:	8009883a 	mov	r4,r16
 2006b8c:	2006c340 	call	2006c34 <__clzsi2>
 2006b90:	01810784 	movi	r6,1054
 2006b94:	00c00284 	movi	r3,10
 2006b98:	308dc83a 	sub	r6,r6,r2
 2006b9c:	1880150e 	bge	r3,r2,2006bf4 <__floatsidf+0x90>
 2006ba0:	113ffd44 	addi	r4,r2,-11
 2006ba4:	8108983a 	sll	r4,r16,r4
 2006ba8:	00800434 	movhi	r2,16
 2006bac:	10bfffc4 	addi	r2,r2,-1
 2006bb0:	3181ffcc 	andi	r6,r6,2047
 2006bb4:	2088703a 	and	r4,r4,r2
 2006bb8:	880b883a 	mov	r5,r17
 2006bbc:	0005883a 	mov	r2,zero
 2006bc0:	300c953a 	slli	r6,r6,20
 2006bc4:	29403fcc 	andi	r5,r5,255
 2006bc8:	280a97fa 	slli	r5,r5,31
 2006bcc:	00c00434 	movhi	r3,16
 2006bd0:	18ffffc4 	addi	r3,r3,-1
 2006bd4:	20c8703a 	and	r4,r4,r3
 2006bd8:	2186b03a 	or	r3,r4,r6
 2006bdc:	1946b03a 	or	r3,r3,r5
 2006be0:	dfc00217 	ldw	ra,8(sp)
 2006be4:	dc400117 	ldw	r17,4(sp)
 2006be8:	dc000017 	ldw	r16,0(sp)
 2006bec:	dec00304 	addi	sp,sp,12
 2006bf0:	f800283a 	ret
 2006bf4:	010002c4 	movi	r4,11
 2006bf8:	2089c83a 	sub	r4,r4,r2
 2006bfc:	8108d83a 	srl	r4,r16,r4
 2006c00:	10800544 	addi	r2,r2,21
 2006c04:	00c00434 	movhi	r3,16
 2006c08:	18ffffc4 	addi	r3,r3,-1
 2006c0c:	8084983a 	sll	r2,r16,r2
 2006c10:	20c8703a 	and	r4,r4,r3
 2006c14:	3181ffcc 	andi	r6,r6,2047
 2006c18:	880b883a 	mov	r5,r17
 2006c1c:	003fe806 	br	2006bc0 <__reset+0xfdffdbc0>
 2006c20:	000b883a 	mov	r5,zero
 2006c24:	000d883a 	mov	r6,zero
 2006c28:	0009883a 	mov	r4,zero
 2006c2c:	0005883a 	mov	r2,zero
 2006c30:	003fe306 	br	2006bc0 <__reset+0xfdffdbc0>

02006c34 <__clzsi2>:
 2006c34:	00bfffd4 	movui	r2,65535
 2006c38:	11000b36 	bltu	r2,r4,2006c68 <__clzsi2+0x34>
 2006c3c:	00803fc4 	movi	r2,255
 2006c40:	11001e2e 	bgeu	r2,r4,2006cbc <__clzsi2+0x88>
 2006c44:	00c00204 	movi	r3,8
 2006c48:	20c8d83a 	srl	r4,r4,r3
 2006c4c:	00c080b4 	movhi	r3,514
 2006c50:	18fb7404 	addi	r3,r3,-4656
 2006c54:	00800604 	movi	r2,24
 2006c58:	1909883a 	add	r4,r3,r4
 2006c5c:	20c00003 	ldbu	r3,0(r4)
 2006c60:	10c5c83a 	sub	r2,r2,r3
 2006c64:	f800283a 	ret
 2006c68:	00804034 	movhi	r2,256
 2006c6c:	10bfffc4 	addi	r2,r2,-1
 2006c70:	11000936 	bltu	r2,r4,2006c98 <__clzsi2+0x64>
 2006c74:	00800404 	movi	r2,16
 2006c78:	1007883a 	mov	r3,r2
 2006c7c:	20c8d83a 	srl	r4,r4,r3
 2006c80:	00c080b4 	movhi	r3,514
 2006c84:	18fb7404 	addi	r3,r3,-4656
 2006c88:	1909883a 	add	r4,r3,r4
 2006c8c:	20c00003 	ldbu	r3,0(r4)
 2006c90:	10c5c83a 	sub	r2,r2,r3
 2006c94:	f800283a 	ret
 2006c98:	00c00604 	movi	r3,24
 2006c9c:	20c8d83a 	srl	r4,r4,r3
 2006ca0:	00c080b4 	movhi	r3,514
 2006ca4:	18fb7404 	addi	r3,r3,-4656
 2006ca8:	00800204 	movi	r2,8
 2006cac:	1909883a 	add	r4,r3,r4
 2006cb0:	20c00003 	ldbu	r3,0(r4)
 2006cb4:	10c5c83a 	sub	r2,r2,r3
 2006cb8:	f800283a 	ret
 2006cbc:	0007883a 	mov	r3,zero
 2006cc0:	20c8d83a 	srl	r4,r4,r3
 2006cc4:	00c080b4 	movhi	r3,514
 2006cc8:	18fb7404 	addi	r3,r3,-4656
 2006ccc:	00800804 	movi	r2,32
 2006cd0:	1909883a 	add	r4,r3,r4
 2006cd4:	20c00003 	ldbu	r3,0(r4)
 2006cd8:	10c5c83a 	sub	r2,r2,r3
 2006cdc:	f800283a 	ret

02006ce0 <calloc>:
 2006ce0:	00c080b4 	movhi	r3,514
 2006ce4:	18c36104 	addi	r3,r3,3460
 2006ce8:	2005883a 	mov	r2,r4
 2006cec:	19000017 	ldw	r4,0(r3)
 2006cf0:	280d883a 	mov	r6,r5
 2006cf4:	100b883a 	mov	r5,r2
 2006cf8:	2006cfc1 	jmpi	2006cfc <_calloc_r>

02006cfc <_calloc_r>:
 2006cfc:	defffe04 	addi	sp,sp,-8
 2006d00:	dc000015 	stw	r16,0(sp)
 2006d04:	2021883a 	mov	r16,r4
 2006d08:	2809883a 	mov	r4,r5
 2006d0c:	300b883a 	mov	r5,r6
 2006d10:	dfc00115 	stw	ra,4(sp)
 2006d14:	20059200 	call	2005920 <__mulsi3>
 2006d18:	8009883a 	mov	r4,r16
 2006d1c:	100b883a 	mov	r5,r2
 2006d20:	2007ec40 	call	2007ec4 <_malloc_r>
 2006d24:	1021883a 	mov	r16,r2
 2006d28:	10002826 	beq	r2,zero,2006dcc <_calloc_r+0xd0>
 2006d2c:	11bfff17 	ldw	r6,-4(r2)
 2006d30:	00ffff04 	movi	r3,-4
 2006d34:	00800904 	movi	r2,36
 2006d38:	30cc703a 	and	r6,r6,r3
 2006d3c:	30cd883a 	add	r6,r6,r3
 2006d40:	11801436 	bltu	r2,r6,2006d94 <_calloc_r+0x98>
 2006d44:	00c004c4 	movi	r3,19
 2006d48:	19800936 	bltu	r3,r6,2006d70 <_calloc_r+0x74>
 2006d4c:	8005883a 	mov	r2,r16
 2006d50:	10000015 	stw	zero,0(r2)
 2006d54:	10000115 	stw	zero,4(r2)
 2006d58:	10000215 	stw	zero,8(r2)
 2006d5c:	8005883a 	mov	r2,r16
 2006d60:	dfc00117 	ldw	ra,4(sp)
 2006d64:	dc000017 	ldw	r16,0(sp)
 2006d68:	dec00204 	addi	sp,sp,8
 2006d6c:	f800283a 	ret
 2006d70:	80000015 	stw	zero,0(r16)
 2006d74:	80000115 	stw	zero,4(r16)
 2006d78:	00c006c4 	movi	r3,27
 2006d7c:	19800d2e 	bgeu	r3,r6,2006db4 <_calloc_r+0xb8>
 2006d80:	80000215 	stw	zero,8(r16)
 2006d84:	80000315 	stw	zero,12(r16)
 2006d88:	30800c26 	beq	r6,r2,2006dbc <_calloc_r+0xc0>
 2006d8c:	80800404 	addi	r2,r16,16
 2006d90:	003fef06 	br	2006d50 <__reset+0xfdffdd50>
 2006d94:	8009883a 	mov	r4,r16
 2006d98:	000b883a 	mov	r5,zero
 2006d9c:	20088100 	call	2008810 <memset>
 2006da0:	8005883a 	mov	r2,r16
 2006da4:	dfc00117 	ldw	ra,4(sp)
 2006da8:	dc000017 	ldw	r16,0(sp)
 2006dac:	dec00204 	addi	sp,sp,8
 2006db0:	f800283a 	ret
 2006db4:	80800204 	addi	r2,r16,8
 2006db8:	003fe506 	br	2006d50 <__reset+0xfdffdd50>
 2006dbc:	80000415 	stw	zero,16(r16)
 2006dc0:	80800604 	addi	r2,r16,24
 2006dc4:	80000515 	stw	zero,20(r16)
 2006dc8:	003fe106 	br	2006d50 <__reset+0xfdffdd50>
 2006dcc:	0005883a 	mov	r2,zero
 2006dd0:	003fe306 	br	2006d60 <__reset+0xfdffdd60>

02006dd4 <__errno>:
 2006dd4:	008080b4 	movhi	r2,514
 2006dd8:	10836104 	addi	r2,r2,3460
 2006ddc:	10800017 	ldw	r2,0(r2)
 2006de0:	f800283a 	ret

02006de4 <_fclose_r>:
 2006de4:	defffc04 	addi	sp,sp,-16
 2006de8:	dc000015 	stw	r16,0(sp)
 2006dec:	dfc00315 	stw	ra,12(sp)
 2006df0:	dc800215 	stw	r18,8(sp)
 2006df4:	dc400115 	stw	r17,4(sp)
 2006df8:	2821883a 	mov	r16,r5
 2006dfc:	28003126 	beq	r5,zero,2006ec4 <_fclose_r+0xe0>
 2006e00:	2023883a 	mov	r17,r4
 2006e04:	20075c80 	call	20075c8 <__sfp_lock_acquire>
 2006e08:	88000226 	beq	r17,zero,2006e14 <_fclose_r+0x30>
 2006e0c:	88800e17 	ldw	r2,56(r17)
 2006e10:	10003326 	beq	r2,zero,2006ee0 <_fclose_r+0xfc>
 2006e14:	8080030f 	ldh	r2,12(r16)
 2006e18:	10002226 	beq	r2,zero,2006ea4 <_fclose_r+0xc0>
 2006e1c:	8809883a 	mov	r4,r17
 2006e20:	800b883a 	mov	r5,r16
 2006e24:	2006ff00 	call	2006ff0 <_fflush_r>
 2006e28:	80c00b17 	ldw	r3,44(r16)
 2006e2c:	1025883a 	mov	r18,r2
 2006e30:	18000426 	beq	r3,zero,2006e44 <_fclose_r+0x60>
 2006e34:	81400717 	ldw	r5,28(r16)
 2006e38:	8809883a 	mov	r4,r17
 2006e3c:	183ee83a 	callr	r3
 2006e40:	10003016 	blt	r2,zero,2006f04 <_fclose_r+0x120>
 2006e44:	8080030b 	ldhu	r2,12(r16)
 2006e48:	1080200c 	andi	r2,r2,128
 2006e4c:	1000291e 	bne	r2,zero,2006ef4 <_fclose_r+0x110>
 2006e50:	81400c17 	ldw	r5,48(r16)
 2006e54:	28000526 	beq	r5,zero,2006e6c <_fclose_r+0x88>
 2006e58:	80801004 	addi	r2,r16,64
 2006e5c:	28800226 	beq	r5,r2,2006e68 <_fclose_r+0x84>
 2006e60:	8809883a 	mov	r4,r17
 2006e64:	2007a6c0 	call	2007a6c <_free_r>
 2006e68:	80000c15 	stw	zero,48(r16)
 2006e6c:	81401117 	ldw	r5,68(r16)
 2006e70:	28000326 	beq	r5,zero,2006e80 <_fclose_r+0x9c>
 2006e74:	8809883a 	mov	r4,r17
 2006e78:	2007a6c0 	call	2007a6c <_free_r>
 2006e7c:	80001115 	stw	zero,68(r16)
 2006e80:	8000030d 	sth	zero,12(r16)
 2006e84:	20075cc0 	call	20075cc <__sfp_lock_release>
 2006e88:	9005883a 	mov	r2,r18
 2006e8c:	dfc00317 	ldw	ra,12(sp)
 2006e90:	dc800217 	ldw	r18,8(sp)
 2006e94:	dc400117 	ldw	r17,4(sp)
 2006e98:	dc000017 	ldw	r16,0(sp)
 2006e9c:	dec00404 	addi	sp,sp,16
 2006ea0:	f800283a 	ret
 2006ea4:	20075cc0 	call	20075cc <__sfp_lock_release>
 2006ea8:	0005883a 	mov	r2,zero
 2006eac:	dfc00317 	ldw	ra,12(sp)
 2006eb0:	dc800217 	ldw	r18,8(sp)
 2006eb4:	dc400117 	ldw	r17,4(sp)
 2006eb8:	dc000017 	ldw	r16,0(sp)
 2006ebc:	dec00404 	addi	sp,sp,16
 2006ec0:	f800283a 	ret
 2006ec4:	0005883a 	mov	r2,zero
 2006ec8:	dfc00317 	ldw	ra,12(sp)
 2006ecc:	dc800217 	ldw	r18,8(sp)
 2006ed0:	dc400117 	ldw	r17,4(sp)
 2006ed4:	dc000017 	ldw	r16,0(sp)
 2006ed8:	dec00404 	addi	sp,sp,16
 2006edc:	f800283a 	ret
 2006ee0:	8809883a 	mov	r4,r17
 2006ee4:	20073100 	call	2007310 <__sinit>
 2006ee8:	8080030f 	ldh	r2,12(r16)
 2006eec:	103fcb1e 	bne	r2,zero,2006e1c <__reset+0xfdffde1c>
 2006ef0:	003fec06 	br	2006ea4 <__reset+0xfdffdea4>
 2006ef4:	81400417 	ldw	r5,16(r16)
 2006ef8:	8809883a 	mov	r4,r17
 2006efc:	2007a6c0 	call	2007a6c <_free_r>
 2006f00:	003fd306 	br	2006e50 <__reset+0xfdffde50>
 2006f04:	04bfffc4 	movi	r18,-1
 2006f08:	003fce06 	br	2006e44 <__reset+0xfdffde44>

02006f0c <fclose>:
 2006f0c:	008080b4 	movhi	r2,514
 2006f10:	10836104 	addi	r2,r2,3460
 2006f14:	200b883a 	mov	r5,r4
 2006f18:	11000017 	ldw	r4,0(r2)
 2006f1c:	2006de41 	jmpi	2006de4 <_fclose_r>

02006f20 <_fdopen_r>:
 2006f20:	defffb04 	addi	sp,sp,-20
 2006f24:	dc800315 	stw	r18,12(sp)
 2006f28:	2825883a 	mov	r18,r5
 2006f2c:	300b883a 	mov	r5,r6
 2006f30:	d80d883a 	mov	r6,sp
 2006f34:	dc400215 	stw	r17,8(sp)
 2006f38:	dc000115 	stw	r16,4(sp)
 2006f3c:	dfc00415 	stw	ra,16(sp)
 2006f40:	2023883a 	mov	r17,r4
 2006f44:	20076080 	call	2007608 <__sflags>
 2006f48:	1021883a 	mov	r16,r2
 2006f4c:	10001a26 	beq	r2,zero,2006fb8 <_fdopen_r+0x98>
 2006f50:	8809883a 	mov	r4,r17
 2006f54:	20074ac0 	call	20074ac <__sfp>
 2006f58:	1007883a 	mov	r3,r2
 2006f5c:	10001626 	beq	r2,zero,2006fb8 <_fdopen_r+0x98>
 2006f60:	1400030d 	sth	r16,12(r2)
 2006f64:	1480038d 	sth	r18,14(r2)
 2006f68:	18800715 	stw	r2,28(r3)
 2006f6c:	00808074 	movhi	r2,513
 2006f70:	10a45904 	addi	r2,r2,-28316
 2006f74:	18800815 	stw	r2,32(r3)
 2006f78:	00808074 	movhi	r2,513
 2006f7c:	10a47004 	addi	r2,r2,-28224
 2006f80:	18800915 	stw	r2,36(r3)
 2006f84:	00808074 	movhi	r2,513
 2006f88:	10a48f04 	addi	r2,r2,-28100
 2006f8c:	18800a15 	stw	r2,40(r3)
 2006f90:	00808074 	movhi	r2,513
 2006f94:	10a4a604 	addi	r2,r2,-28008
 2006f98:	18800b15 	stw	r2,44(r3)
 2006f9c:	1805883a 	mov	r2,r3
 2006fa0:	dfc00417 	ldw	ra,16(sp)
 2006fa4:	dc800317 	ldw	r18,12(sp)
 2006fa8:	dc400217 	ldw	r17,8(sp)
 2006fac:	dc000117 	ldw	r16,4(sp)
 2006fb0:	dec00504 	addi	sp,sp,20
 2006fb4:	f800283a 	ret
 2006fb8:	0005883a 	mov	r2,zero
 2006fbc:	dfc00417 	ldw	ra,16(sp)
 2006fc0:	dc800317 	ldw	r18,12(sp)
 2006fc4:	dc400217 	ldw	r17,8(sp)
 2006fc8:	dc000117 	ldw	r16,4(sp)
 2006fcc:	dec00504 	addi	sp,sp,20
 2006fd0:	f800283a 	ret

02006fd4 <fdopen>:
 2006fd4:	00c080b4 	movhi	r3,514
 2006fd8:	18c36104 	addi	r3,r3,3460
 2006fdc:	2005883a 	mov	r2,r4
 2006fe0:	19000017 	ldw	r4,0(r3)
 2006fe4:	280d883a 	mov	r6,r5
 2006fe8:	100b883a 	mov	r5,r2
 2006fec:	2006f201 	jmpi	2006f20 <_fdopen_r>

02006ff0 <_fflush_r>:
 2006ff0:	defffb04 	addi	sp,sp,-20
 2006ff4:	dcc00315 	stw	r19,12(sp)
 2006ff8:	dc400115 	stw	r17,4(sp)
 2006ffc:	dfc00415 	stw	ra,16(sp)
 2007000:	dc800215 	stw	r18,8(sp)
 2007004:	dc000015 	stw	r16,0(sp)
 2007008:	2027883a 	mov	r19,r4
 200700c:	2823883a 	mov	r17,r5
 2007010:	20000226 	beq	r4,zero,200701c <_fflush_r+0x2c>
 2007014:	20800e17 	ldw	r2,56(r4)
 2007018:	10005826 	beq	r2,zero,200717c <_fflush_r+0x18c>
 200701c:	8880030b 	ldhu	r2,12(r17)
 2007020:	10ffffcc 	andi	r3,r2,65535
 2007024:	18e0001c 	xori	r3,r3,32768
 2007028:	18e00004 	addi	r3,r3,-32768
 200702c:	18002b26 	beq	r3,zero,20070dc <_fflush_r+0xec>
 2007030:	10c0020c 	andi	r3,r2,8
 2007034:	1800311e 	bne	r3,zero,20070fc <_fflush_r+0x10c>
 2007038:	88c00117 	ldw	r3,4(r17)
 200703c:	10820014 	ori	r2,r2,2048
 2007040:	8880030d 	sth	r2,12(r17)
 2007044:	00c05c0e 	bge	zero,r3,20071b8 <_fflush_r+0x1c8>
 2007048:	88c00a17 	ldw	r3,40(r17)
 200704c:	18002326 	beq	r3,zero,20070dc <_fflush_r+0xec>
 2007050:	9c000017 	ldw	r16,0(r19)
 2007054:	1104000c 	andi	r4,r2,4096
 2007058:	98000015 	stw	zero,0(r19)
 200705c:	20004b26 	beq	r4,zero,200718c <_fflush_r+0x19c>
 2007060:	89801417 	ldw	r6,80(r17)
 2007064:	1080010c 	andi	r2,r2,4
 2007068:	10000626 	beq	r2,zero,2007084 <_fflush_r+0x94>
 200706c:	89000117 	ldw	r4,4(r17)
 2007070:	88800c17 	ldw	r2,48(r17)
 2007074:	310dc83a 	sub	r6,r6,r4
 2007078:	10000226 	beq	r2,zero,2007084 <_fflush_r+0x94>
 200707c:	88800f17 	ldw	r2,60(r17)
 2007080:	308dc83a 	sub	r6,r6,r2
 2007084:	89400717 	ldw	r5,28(r17)
 2007088:	9809883a 	mov	r4,r19
 200708c:	000f883a 	mov	r7,zero
 2007090:	183ee83a 	callr	r3
 2007094:	00ffffc4 	movi	r3,-1
 2007098:	10c04a26 	beq	r2,r3,20071c4 <_fflush_r+0x1d4>
 200709c:	88c0030b 	ldhu	r3,12(r17)
 20070a0:	89000417 	ldw	r4,16(r17)
 20070a4:	88000115 	stw	zero,4(r17)
 20070a8:	197dffcc 	andi	r5,r3,63487
 20070ac:	8940030d 	sth	r5,12(r17)
 20070b0:	89000015 	stw	r4,0(r17)
 20070b4:	18c4000c 	andi	r3,r3,4096
 20070b8:	1800581e 	bne	r3,zero,200721c <_fflush_r+0x22c>
 20070bc:	89400c17 	ldw	r5,48(r17)
 20070c0:	9c000015 	stw	r16,0(r19)
 20070c4:	28000526 	beq	r5,zero,20070dc <_fflush_r+0xec>
 20070c8:	88801004 	addi	r2,r17,64
 20070cc:	28800226 	beq	r5,r2,20070d8 <_fflush_r+0xe8>
 20070d0:	9809883a 	mov	r4,r19
 20070d4:	2007a6c0 	call	2007a6c <_free_r>
 20070d8:	88000c15 	stw	zero,48(r17)
 20070dc:	0005883a 	mov	r2,zero
 20070e0:	dfc00417 	ldw	ra,16(sp)
 20070e4:	dcc00317 	ldw	r19,12(sp)
 20070e8:	dc800217 	ldw	r18,8(sp)
 20070ec:	dc400117 	ldw	r17,4(sp)
 20070f0:	dc000017 	ldw	r16,0(sp)
 20070f4:	dec00504 	addi	sp,sp,20
 20070f8:	f800283a 	ret
 20070fc:	8c800417 	ldw	r18,16(r17)
 2007100:	903ff626 	beq	r18,zero,20070dc <__reset+0xfdffe0dc>
 2007104:	8c000017 	ldw	r16,0(r17)
 2007108:	108000cc 	andi	r2,r2,3
 200710c:	8c800015 	stw	r18,0(r17)
 2007110:	84a1c83a 	sub	r16,r16,r18
 2007114:	10001b26 	beq	r2,zero,2007184 <_fflush_r+0x194>
 2007118:	0005883a 	mov	r2,zero
 200711c:	88800215 	stw	r2,8(r17)
 2007120:	04000316 	blt	zero,r16,2007130 <_fflush_r+0x140>
 2007124:	003fed06 	br	20070dc <__reset+0xfdffe0dc>
 2007128:	90a5883a 	add	r18,r18,r2
 200712c:	043feb0e 	bge	zero,r16,20070dc <__reset+0xfdffe0dc>
 2007130:	88800917 	ldw	r2,36(r17)
 2007134:	89400717 	ldw	r5,28(r17)
 2007138:	800f883a 	mov	r7,r16
 200713c:	900d883a 	mov	r6,r18
 2007140:	9809883a 	mov	r4,r19
 2007144:	103ee83a 	callr	r2
 2007148:	80a1c83a 	sub	r16,r16,r2
 200714c:	00bff616 	blt	zero,r2,2007128 <__reset+0xfdffe128>
 2007150:	88c0030b 	ldhu	r3,12(r17)
 2007154:	00bfffc4 	movi	r2,-1
 2007158:	18c01014 	ori	r3,r3,64
 200715c:	88c0030d 	sth	r3,12(r17)
 2007160:	dfc00417 	ldw	ra,16(sp)
 2007164:	dcc00317 	ldw	r19,12(sp)
 2007168:	dc800217 	ldw	r18,8(sp)
 200716c:	dc400117 	ldw	r17,4(sp)
 2007170:	dc000017 	ldw	r16,0(sp)
 2007174:	dec00504 	addi	sp,sp,20
 2007178:	f800283a 	ret
 200717c:	20073100 	call	2007310 <__sinit>
 2007180:	003fa606 	br	200701c <__reset+0xfdffe01c>
 2007184:	88800517 	ldw	r2,20(r17)
 2007188:	003fe406 	br	200711c <__reset+0xfdffe11c>
 200718c:	89400717 	ldw	r5,28(r17)
 2007190:	000d883a 	mov	r6,zero
 2007194:	9809883a 	mov	r4,r19
 2007198:	01c00044 	movi	r7,1
 200719c:	183ee83a 	callr	r3
 20071a0:	100d883a 	mov	r6,r2
 20071a4:	00bfffc4 	movi	r2,-1
 20071a8:	30801326 	beq	r6,r2,20071f8 <_fflush_r+0x208>
 20071ac:	8880030b 	ldhu	r2,12(r17)
 20071b0:	88c00a17 	ldw	r3,40(r17)
 20071b4:	003fab06 	br	2007064 <__reset+0xfdffe064>
 20071b8:	88c00f17 	ldw	r3,60(r17)
 20071bc:	00ffa216 	blt	zero,r3,2007048 <__reset+0xfdffe048>
 20071c0:	003fc606 	br	20070dc <__reset+0xfdffe0dc>
 20071c4:	98c00017 	ldw	r3,0(r19)
 20071c8:	183fb426 	beq	r3,zero,200709c <__reset+0xfdffe09c>
 20071cc:	01000744 	movi	r4,29
 20071d0:	19000226 	beq	r3,r4,20071dc <_fflush_r+0x1ec>
 20071d4:	01000584 	movi	r4,22
 20071d8:	1900121e 	bne	r3,r4,2007224 <_fflush_r+0x234>
 20071dc:	88c0030b 	ldhu	r3,12(r17)
 20071e0:	88800417 	ldw	r2,16(r17)
 20071e4:	88000115 	stw	zero,4(r17)
 20071e8:	18fdffcc 	andi	r3,r3,63487
 20071ec:	88c0030d 	sth	r3,12(r17)
 20071f0:	88800015 	stw	r2,0(r17)
 20071f4:	003fb106 	br	20070bc <__reset+0xfdffe0bc>
 20071f8:	98800017 	ldw	r2,0(r19)
 20071fc:	103feb26 	beq	r2,zero,20071ac <__reset+0xfdffe1ac>
 2007200:	00c00744 	movi	r3,29
 2007204:	10c00226 	beq	r2,r3,2007210 <_fflush_r+0x220>
 2007208:	00c00584 	movi	r3,22
 200720c:	10ffd01e 	bne	r2,r3,2007150 <__reset+0xfdffe150>
 2007210:	9c000015 	stw	r16,0(r19)
 2007214:	0005883a 	mov	r2,zero
 2007218:	003fb106 	br	20070e0 <__reset+0xfdffe0e0>
 200721c:	88801415 	stw	r2,80(r17)
 2007220:	003fa606 	br	20070bc <__reset+0xfdffe0bc>
 2007224:	88c0030b 	ldhu	r3,12(r17)
 2007228:	18c01014 	ori	r3,r3,64
 200722c:	88c0030d 	sth	r3,12(r17)
 2007230:	003fab06 	br	20070e0 <__reset+0xfdffe0e0>

02007234 <fflush>:
 2007234:	200b883a 	mov	r5,r4
 2007238:	20000426 	beq	r4,zero,200724c <fflush+0x18>
 200723c:	008080b4 	movhi	r2,514
 2007240:	10836104 	addi	r2,r2,3460
 2007244:	11000017 	ldw	r4,0(r2)
 2007248:	2006ff01 	jmpi	2006ff0 <_fflush_r>
 200724c:	008080b4 	movhi	r2,514
 2007250:	10836004 	addi	r2,r2,3456
 2007254:	11000017 	ldw	r4,0(r2)
 2007258:	01408034 	movhi	r5,512
 200725c:	295bfc04 	addi	r5,r5,28656
 2007260:	2007de41 	jmpi	2007de4 <_fwalk_reent>

02007264 <__fp_lock>:
 2007264:	0005883a 	mov	r2,zero
 2007268:	f800283a 	ret

0200726c <__fp_unlock>:
 200726c:	0005883a 	mov	r2,zero
 2007270:	f800283a 	ret

02007274 <_cleanup_r>:
 2007274:	01408034 	movhi	r5,512
 2007278:	295bc304 	addi	r5,r5,28428
 200727c:	2007d3c1 	jmpi	2007d3c <_fwalk>

02007280 <__sfmoreglue>:
 2007280:	defffc04 	addi	sp,sp,-16
 2007284:	dc800215 	stw	r18,8(sp)
 2007288:	2825883a 	mov	r18,r5
 200728c:	dc000015 	stw	r16,0(sp)
 2007290:	01401a04 	movi	r5,104
 2007294:	2021883a 	mov	r16,r4
 2007298:	9009883a 	mov	r4,r18
 200729c:	dfc00315 	stw	ra,12(sp)
 20072a0:	dc400115 	stw	r17,4(sp)
 20072a4:	20059200 	call	2005920 <__mulsi3>
 20072a8:	8009883a 	mov	r4,r16
 20072ac:	11400304 	addi	r5,r2,12
 20072b0:	1023883a 	mov	r17,r2
 20072b4:	2007ec40 	call	2007ec4 <_malloc_r>
 20072b8:	1021883a 	mov	r16,r2
 20072bc:	10000726 	beq	r2,zero,20072dc <__sfmoreglue+0x5c>
 20072c0:	11000304 	addi	r4,r2,12
 20072c4:	10000015 	stw	zero,0(r2)
 20072c8:	14800115 	stw	r18,4(r2)
 20072cc:	11000215 	stw	r4,8(r2)
 20072d0:	000b883a 	mov	r5,zero
 20072d4:	880d883a 	mov	r6,r17
 20072d8:	20088100 	call	2008810 <memset>
 20072dc:	8005883a 	mov	r2,r16
 20072e0:	dfc00317 	ldw	ra,12(sp)
 20072e4:	dc800217 	ldw	r18,8(sp)
 20072e8:	dc400117 	ldw	r17,4(sp)
 20072ec:	dc000017 	ldw	r16,0(sp)
 20072f0:	dec00404 	addi	sp,sp,16
 20072f4:	f800283a 	ret

020072f8 <_cleanup>:
 20072f8:	008080b4 	movhi	r2,514
 20072fc:	10836004 	addi	r2,r2,3456
 2007300:	11000017 	ldw	r4,0(r2)
 2007304:	01408034 	movhi	r5,512
 2007308:	295bc304 	addi	r5,r5,28428
 200730c:	2007d3c1 	jmpi	2007d3c <_fwalk>

02007310 <__sinit>:
 2007310:	20800e17 	ldw	r2,56(r4)
 2007314:	defff704 	addi	sp,sp,-36
 2007318:	dc800215 	stw	r18,8(sp)
 200731c:	dfc00815 	stw	ra,32(sp)
 2007320:	ddc00715 	stw	r23,28(sp)
 2007324:	dd800615 	stw	r22,24(sp)
 2007328:	dd400515 	stw	r21,20(sp)
 200732c:	dd000415 	stw	r20,16(sp)
 2007330:	dcc00315 	stw	r19,12(sp)
 2007334:	dc400115 	stw	r17,4(sp)
 2007338:	dc000015 	stw	r16,0(sp)
 200733c:	2025883a 	mov	r18,r4
 2007340:	10004f1e 	bne	r2,zero,2007480 <__sinit+0x170>
 2007344:	24000117 	ldw	r16,4(r4)
 2007348:	00c08034 	movhi	r3,512
 200734c:	18dc9d04 	addi	r3,r3,29300
 2007350:	20c00f15 	stw	r3,60(r4)
 2007354:	2080bb04 	addi	r2,r4,748
 2007358:	00c000c4 	movi	r3,3
 200735c:	05c00044 	movi	r23,1
 2007360:	20c0b915 	stw	r3,740(r4)
 2007364:	2080ba15 	stw	r2,744(r4)
 2007368:	25c00e15 	stw	r23,56(r4)
 200736c:	2000b815 	stw	zero,736(r4)
 2007370:	00800104 	movi	r2,4
 2007374:	81001704 	addi	r4,r16,92
 2007378:	000b883a 	mov	r5,zero
 200737c:	01800204 	movi	r6,8
 2007380:	80000015 	stw	zero,0(r16)
 2007384:	80000115 	stw	zero,4(r16)
 2007388:	80000215 	stw	zero,8(r16)
 200738c:	8080030d 	sth	r2,12(r16)
 2007390:	80001915 	stw	zero,100(r16)
 2007394:	8000038d 	sth	zero,14(r16)
 2007398:	80000415 	stw	zero,16(r16)
 200739c:	80000515 	stw	zero,20(r16)
 20073a0:	80000615 	stw	zero,24(r16)
 20073a4:	20088100 	call	2008810 <memset>
 20073a8:	94400217 	ldw	r17,8(r18)
 20073ac:	05808074 	movhi	r22,513
 20073b0:	b5a45904 	addi	r22,r22,-28316
 20073b4:	05408074 	movhi	r21,513
 20073b8:	ad647004 	addi	r21,r21,-28224
 20073bc:	05008074 	movhi	r20,513
 20073c0:	a5248f04 	addi	r20,r20,-28100
 20073c4:	04c08074 	movhi	r19,513
 20073c8:	9ce4a604 	addi	r19,r19,-28008
 20073cc:	84000715 	stw	r16,28(r16)
 20073d0:	85800815 	stw	r22,32(r16)
 20073d4:	85400915 	stw	r21,36(r16)
 20073d8:	85000a15 	stw	r20,40(r16)
 20073dc:	84c00b15 	stw	r19,44(r16)
 20073e0:	00800284 	movi	r2,10
 20073e4:	89001704 	addi	r4,r17,92
 20073e8:	000b883a 	mov	r5,zero
 20073ec:	01800204 	movi	r6,8
 20073f0:	88000015 	stw	zero,0(r17)
 20073f4:	88000115 	stw	zero,4(r17)
 20073f8:	88000215 	stw	zero,8(r17)
 20073fc:	8880030d 	sth	r2,12(r17)
 2007400:	88001915 	stw	zero,100(r17)
 2007404:	8dc0038d 	sth	r23,14(r17)
 2007408:	88000415 	stw	zero,16(r17)
 200740c:	88000515 	stw	zero,20(r17)
 2007410:	88000615 	stw	zero,24(r17)
 2007414:	20088100 	call	2008810 <memset>
 2007418:	94000317 	ldw	r16,12(r18)
 200741c:	00800484 	movi	r2,18
 2007420:	8c400715 	stw	r17,28(r17)
 2007424:	8d800815 	stw	r22,32(r17)
 2007428:	8d400915 	stw	r21,36(r17)
 200742c:	8d000a15 	stw	r20,40(r17)
 2007430:	8cc00b15 	stw	r19,44(r17)
 2007434:	8080030d 	sth	r2,12(r16)
 2007438:	00800084 	movi	r2,2
 200743c:	80000015 	stw	zero,0(r16)
 2007440:	80000115 	stw	zero,4(r16)
 2007444:	80000215 	stw	zero,8(r16)
 2007448:	80001915 	stw	zero,100(r16)
 200744c:	8080038d 	sth	r2,14(r16)
 2007450:	80000415 	stw	zero,16(r16)
 2007454:	80000515 	stw	zero,20(r16)
 2007458:	80000615 	stw	zero,24(r16)
 200745c:	81001704 	addi	r4,r16,92
 2007460:	000b883a 	mov	r5,zero
 2007464:	01800204 	movi	r6,8
 2007468:	20088100 	call	2008810 <memset>
 200746c:	84000715 	stw	r16,28(r16)
 2007470:	85800815 	stw	r22,32(r16)
 2007474:	85400915 	stw	r21,36(r16)
 2007478:	85000a15 	stw	r20,40(r16)
 200747c:	84c00b15 	stw	r19,44(r16)
 2007480:	dfc00817 	ldw	ra,32(sp)
 2007484:	ddc00717 	ldw	r23,28(sp)
 2007488:	dd800617 	ldw	r22,24(sp)
 200748c:	dd400517 	ldw	r21,20(sp)
 2007490:	dd000417 	ldw	r20,16(sp)
 2007494:	dcc00317 	ldw	r19,12(sp)
 2007498:	dc800217 	ldw	r18,8(sp)
 200749c:	dc400117 	ldw	r17,4(sp)
 20074a0:	dc000017 	ldw	r16,0(sp)
 20074a4:	dec00904 	addi	sp,sp,36
 20074a8:	f800283a 	ret

020074ac <__sfp>:
 20074ac:	defffb04 	addi	sp,sp,-20
 20074b0:	008080b4 	movhi	r2,514
 20074b4:	10836004 	addi	r2,r2,3456
 20074b8:	dc800215 	stw	r18,8(sp)
 20074bc:	14800017 	ldw	r18,0(r2)
 20074c0:	dcc00315 	stw	r19,12(sp)
 20074c4:	dfc00415 	stw	ra,16(sp)
 20074c8:	90800e17 	ldw	r2,56(r18)
 20074cc:	dc400115 	stw	r17,4(sp)
 20074d0:	dc000015 	stw	r16,0(sp)
 20074d4:	2027883a 	mov	r19,r4
 20074d8:	10002f26 	beq	r2,zero,2007598 <__sfp+0xec>
 20074dc:	9480b804 	addi	r18,r18,736
 20074e0:	047fffc4 	movi	r17,-1
 20074e4:	91400117 	ldw	r5,4(r18)
 20074e8:	94000217 	ldw	r16,8(r18)
 20074ec:	297fffc4 	addi	r5,r5,-1
 20074f0:	28000a16 	blt	r5,zero,200751c <__sfp+0x70>
 20074f4:	8080030f 	ldh	r2,12(r16)
 20074f8:	10000c26 	beq	r2,zero,200752c <__sfp+0x80>
 20074fc:	80c01d04 	addi	r3,r16,116
 2007500:	00000206 	br	200750c <__sfp+0x60>
 2007504:	18bfe60f 	ldh	r2,-104(r3)
 2007508:	10000826 	beq	r2,zero,200752c <__sfp+0x80>
 200750c:	297fffc4 	addi	r5,r5,-1
 2007510:	1c3ffd04 	addi	r16,r3,-12
 2007514:	18c01a04 	addi	r3,r3,104
 2007518:	2c7ffa1e 	bne	r5,r17,2007504 <__reset+0xfdffe504>
 200751c:	90800017 	ldw	r2,0(r18)
 2007520:	10002026 	beq	r2,zero,20075a4 <__sfp+0xf8>
 2007524:	1025883a 	mov	r18,r2
 2007528:	003fee06 	br	20074e4 <__reset+0xfdffe4e4>
 200752c:	00bfffc4 	movi	r2,-1
 2007530:	8080038d 	sth	r2,14(r16)
 2007534:	00800044 	movi	r2,1
 2007538:	8080030d 	sth	r2,12(r16)
 200753c:	80001915 	stw	zero,100(r16)
 2007540:	80000015 	stw	zero,0(r16)
 2007544:	80000215 	stw	zero,8(r16)
 2007548:	80000115 	stw	zero,4(r16)
 200754c:	80000415 	stw	zero,16(r16)
 2007550:	80000515 	stw	zero,20(r16)
 2007554:	80000615 	stw	zero,24(r16)
 2007558:	81001704 	addi	r4,r16,92
 200755c:	000b883a 	mov	r5,zero
 2007560:	01800204 	movi	r6,8
 2007564:	20088100 	call	2008810 <memset>
 2007568:	8005883a 	mov	r2,r16
 200756c:	80000c15 	stw	zero,48(r16)
 2007570:	80000d15 	stw	zero,52(r16)
 2007574:	80001115 	stw	zero,68(r16)
 2007578:	80001215 	stw	zero,72(r16)
 200757c:	dfc00417 	ldw	ra,16(sp)
 2007580:	dcc00317 	ldw	r19,12(sp)
 2007584:	dc800217 	ldw	r18,8(sp)
 2007588:	dc400117 	ldw	r17,4(sp)
 200758c:	dc000017 	ldw	r16,0(sp)
 2007590:	dec00504 	addi	sp,sp,20
 2007594:	f800283a 	ret
 2007598:	9009883a 	mov	r4,r18
 200759c:	20073100 	call	2007310 <__sinit>
 20075a0:	003fce06 	br	20074dc <__reset+0xfdffe4dc>
 20075a4:	9809883a 	mov	r4,r19
 20075a8:	01400104 	movi	r5,4
 20075ac:	20072800 	call	2007280 <__sfmoreglue>
 20075b0:	90800015 	stw	r2,0(r18)
 20075b4:	103fdb1e 	bne	r2,zero,2007524 <__reset+0xfdffe524>
 20075b8:	00800304 	movi	r2,12
 20075bc:	98800015 	stw	r2,0(r19)
 20075c0:	0005883a 	mov	r2,zero
 20075c4:	003fed06 	br	200757c <__reset+0xfdffe57c>

020075c8 <__sfp_lock_acquire>:
 20075c8:	f800283a 	ret

020075cc <__sfp_lock_release>:
 20075cc:	f800283a 	ret

020075d0 <__sinit_lock_acquire>:
 20075d0:	f800283a 	ret

020075d4 <__sinit_lock_release>:
 20075d4:	f800283a 	ret

020075d8 <__fp_lock_all>:
 20075d8:	008080b4 	movhi	r2,514
 20075dc:	10836104 	addi	r2,r2,3460
 20075e0:	11000017 	ldw	r4,0(r2)
 20075e4:	01408034 	movhi	r5,512
 20075e8:	295c9904 	addi	r5,r5,29284
 20075ec:	2007d3c1 	jmpi	2007d3c <_fwalk>

020075f0 <__fp_unlock_all>:
 20075f0:	008080b4 	movhi	r2,514
 20075f4:	10836104 	addi	r2,r2,3460
 20075f8:	11000017 	ldw	r4,0(r2)
 20075fc:	01408034 	movhi	r5,512
 2007600:	295c9b04 	addi	r5,r5,29292
 2007604:	2007d3c1 	jmpi	2007d3c <_fwalk>

02007608 <__sflags>:
 2007608:	28800007 	ldb	r2,0(r5)
 200760c:	00c01c84 	movi	r3,114
 2007610:	10c01826 	beq	r2,r3,2007674 <__sflags+0x6c>
 2007614:	00c01dc4 	movi	r3,119
 2007618:	10c01226 	beq	r2,r3,2007664 <__sflags+0x5c>
 200761c:	00c01844 	movi	r3,97
 2007620:	10c00426 	beq	r2,r3,2007634 <__sflags+0x2c>
 2007624:	00800584 	movi	r2,22
 2007628:	20800015 	stw	r2,0(r4)
 200762c:	0005883a 	mov	r2,zero
 2007630:	f800283a 	ret
 2007634:	01c08204 	movi	r7,520
 2007638:	01000044 	movi	r4,1
 200763c:	00804204 	movi	r2,264
 2007640:	28c00047 	ldb	r3,1(r5)
 2007644:	18000426 	beq	r3,zero,2007658 <__sflags+0x50>
 2007648:	02000ac4 	movi	r8,43
 200764c:	1a000d26 	beq	r3,r8,2007684 <__sflags+0x7c>
 2007650:	28c00087 	ldb	r3,2(r5)
 2007654:	1a000b26 	beq	r3,r8,2007684 <__sflags+0x7c>
 2007658:	21c8b03a 	or	r4,r4,r7
 200765c:	31000015 	stw	r4,0(r6)
 2007660:	f800283a 	ret
 2007664:	01c18004 	movi	r7,1536
 2007668:	01000044 	movi	r4,1
 200766c:	00800204 	movi	r2,8
 2007670:	003ff306 	br	2007640 <__reset+0xfdffe640>
 2007674:	000f883a 	mov	r7,zero
 2007678:	0009883a 	mov	r4,zero
 200767c:	00800104 	movi	r2,4
 2007680:	003fef06 	br	2007640 <__reset+0xfdffe640>
 2007684:	00fff8c4 	movi	r3,-29
 2007688:	01000084 	movi	r4,2
 200768c:	10c4703a 	and	r2,r2,r3
 2007690:	21c8b03a 	or	r4,r4,r7
 2007694:	10800414 	ori	r2,r2,16
 2007698:	31000015 	stw	r4,0(r6)
 200769c:	f800283a 	ret

020076a0 <_fread_r>:
 20076a0:	defff504 	addi	sp,sp,-44
 20076a4:	dd000515 	stw	r20,20(sp)
 20076a8:	dc800315 	stw	r18,12(sp)
 20076ac:	2029883a 	mov	r20,r4
 20076b0:	2825883a 	mov	r18,r5
 20076b4:	3809883a 	mov	r4,r7
 20076b8:	300b883a 	mov	r5,r6
 20076bc:	ddc00815 	stw	r23,32(sp)
 20076c0:	dd800715 	stw	r22,28(sp)
 20076c4:	dd400615 	stw	r21,24(sp)
 20076c8:	dc000115 	stw	r16,4(sp)
 20076cc:	dfc00a15 	stw	ra,40(sp)
 20076d0:	df000915 	stw	fp,36(sp)
 20076d4:	dcc00415 	stw	r19,16(sp)
 20076d8:	dc400215 	stw	r17,8(sp)
 20076dc:	302f883a 	mov	r23,r6
 20076e0:	382d883a 	mov	r22,r7
 20076e4:	20059200 	call	2005920 <__mulsi3>
 20076e8:	102b883a 	mov	r21,r2
 20076ec:	dc000b17 	ldw	r16,44(sp)
 20076f0:	10003926 	beq	r2,zero,20077d8 <_fread_r+0x138>
 20076f4:	a0000226 	beq	r20,zero,2007700 <_fread_r+0x60>
 20076f8:	a0800e17 	ldw	r2,56(r20)
 20076fc:	10007326 	beq	r2,zero,20078cc <_fread_r+0x22c>
 2007700:	20075c80 	call	20075c8 <__sfp_lock_acquire>
 2007704:	8080030b 	ldhu	r2,12(r16)
 2007708:	10c8000c 	andi	r3,r2,8192
 200770c:	1800061e 	bne	r3,zero,2007728 <_fread_r+0x88>
 2007710:	81001917 	ldw	r4,100(r16)
 2007714:	00f7ffc4 	movi	r3,-8193
 2007718:	10880014 	ori	r2,r2,8192
 200771c:	20c6703a 	and	r3,r4,r3
 2007720:	8080030d 	sth	r2,12(r16)
 2007724:	80c01915 	stw	r3,100(r16)
 2007728:	84400117 	ldw	r17,4(r16)
 200772c:	88003116 	blt	r17,zero,20077f4 <_fread_r+0x154>
 2007730:	1080008c 	andi	r2,r2,2
 2007734:	8807883a 	mov	r3,r17
 2007738:	1000331e 	bne	r2,zero,2007808 <_fread_r+0x168>
 200773c:	a827883a 	mov	r19,r21
 2007740:	00000b06 	br	2007770 <_fread_r+0xd0>
 2007744:	20087040 	call	2008704 <memcpy>
 2007748:	80800017 	ldw	r2,0(r16)
 200774c:	9465883a 	add	r18,r18,r17
 2007750:	9c67c83a 	sub	r19,r19,r17
 2007754:	1463883a 	add	r17,r2,r17
 2007758:	a009883a 	mov	r4,r20
 200775c:	800b883a 	mov	r5,r16
 2007760:	84400015 	stw	r17,0(r16)
 2007764:	2008f280 	call	2008f28 <__srefill_r>
 2007768:	10001d1e 	bne	r2,zero,20077e0 <_fread_r+0x140>
 200776c:	84400117 	ldw	r17,4(r16)
 2007770:	9009883a 	mov	r4,r18
 2007774:	880d883a 	mov	r6,r17
 2007778:	81400017 	ldw	r5,0(r16)
 200777c:	8cfff136 	bltu	r17,r19,2007744 <__reset+0xfdffe744>
 2007780:	980d883a 	mov	r6,r19
 2007784:	20087040 	call	2008704 <memcpy>
 2007788:	80800117 	ldw	r2,4(r16)
 200778c:	80c00017 	ldw	r3,0(r16)
 2007790:	14c5c83a 	sub	r2,r2,r19
 2007794:	1ce7883a 	add	r19,r3,r19
 2007798:	80800115 	stw	r2,4(r16)
 200779c:	84c00015 	stw	r19,0(r16)
 20077a0:	20075cc0 	call	20075cc <__sfp_lock_release>
 20077a4:	b005883a 	mov	r2,r22
 20077a8:	dfc00a17 	ldw	ra,40(sp)
 20077ac:	df000917 	ldw	fp,36(sp)
 20077b0:	ddc00817 	ldw	r23,32(sp)
 20077b4:	dd800717 	ldw	r22,28(sp)
 20077b8:	dd400617 	ldw	r21,24(sp)
 20077bc:	dd000517 	ldw	r20,20(sp)
 20077c0:	dcc00417 	ldw	r19,16(sp)
 20077c4:	dc800317 	ldw	r18,12(sp)
 20077c8:	dc400217 	ldw	r17,8(sp)
 20077cc:	dc000117 	ldw	r16,4(sp)
 20077d0:	dec00b04 	addi	sp,sp,44
 20077d4:	f800283a 	ret
 20077d8:	0005883a 	mov	r2,zero
 20077dc:	003ff206 	br	20077a8 <__reset+0xfdffe7a8>
 20077e0:	20075cc0 	call	20075cc <__sfp_lock_release>
 20077e4:	acc9c83a 	sub	r4,r21,r19
 20077e8:	b80b883a 	mov	r5,r23
 20077ec:	20059100 	call	2005910 <__udivsi3>
 20077f0:	003fed06 	br	20077a8 <__reset+0xfdffe7a8>
 20077f4:	80000115 	stw	zero,4(r16)
 20077f8:	1080008c 	andi	r2,r2,2
 20077fc:	0007883a 	mov	r3,zero
 2007800:	0023883a 	mov	r17,zero
 2007804:	103fcd26 	beq	r2,zero,200773c <__reset+0xfdffe73c>
 2007808:	1823883a 	mov	r17,r3
 200780c:	a8c0012e 	bgeu	r21,r3,2007814 <_fread_r+0x174>
 2007810:	a823883a 	mov	r17,r21
 2007814:	81400017 	ldw	r5,0(r16)
 2007818:	9009883a 	mov	r4,r18
 200781c:	880d883a 	mov	r6,r17
 2007820:	20087040 	call	2008704 <memcpy>
 2007824:	80800117 	ldw	r2,4(r16)
 2007828:	84c00017 	ldw	r19,0(r16)
 200782c:	81400c17 	ldw	r5,48(r16)
 2007830:	1445c83a 	sub	r2,r2,r17
 2007834:	9c67883a 	add	r19,r19,r17
 2007838:	84c00015 	stw	r19,0(r16)
 200783c:	80800115 	stw	r2,4(r16)
 2007840:	9465883a 	add	r18,r18,r17
 2007844:	ac63c83a 	sub	r17,r21,r17
 2007848:	28002726 	beq	r5,zero,20078e8 <_fread_r+0x248>
 200784c:	883fd426 	beq	r17,zero,20077a0 <__reset+0xfdffe7a0>
 2007850:	80801004 	addi	r2,r16,64
 2007854:	28800326 	beq	r5,r2,2007864 <_fread_r+0x1c4>
 2007858:	a009883a 	mov	r4,r20
 200785c:	2007a6c0 	call	2007a6c <_free_r>
 2007860:	84c00017 	ldw	r19,0(r16)
 2007864:	80000c15 	stw	zero,48(r16)
 2007868:	80c00417 	ldw	r3,16(r16)
 200786c:	87000517 	ldw	fp,20(r16)
 2007870:	d8c00015 	stw	r3,0(sp)
 2007874:	00000106 	br	200787c <_fread_r+0x1dc>
 2007878:	883fc926 	beq	r17,zero,20077a0 <__reset+0xfdffe7a0>
 200787c:	84800415 	stw	r18,16(r16)
 2007880:	84400515 	stw	r17,20(r16)
 2007884:	84800015 	stw	r18,0(r16)
 2007888:	a009883a 	mov	r4,r20
 200788c:	800b883a 	mov	r5,r16
 2007890:	2008f280 	call	2008f28 <__srefill_r>
 2007894:	d8c00017 	ldw	r3,0(sp)
 2007898:	81000117 	ldw	r4,4(r16)
 200789c:	87000515 	stw	fp,20(r16)
 20078a0:	80c00415 	stw	r3,16(r16)
 20078a4:	84c00015 	stw	r19,0(r16)
 20078a8:	80000115 	stw	zero,4(r16)
 20078ac:	8923c83a 	sub	r17,r17,r4
 20078b0:	9125883a 	add	r18,r18,r4
 20078b4:	103ff026 	beq	r2,zero,2007878 <__reset+0xfdffe878>
 20078b8:	20075cc0 	call	20075cc <__sfp_lock_release>
 20078bc:	ac49c83a 	sub	r4,r21,r17
 20078c0:	b80b883a 	mov	r5,r23
 20078c4:	20059100 	call	2005910 <__udivsi3>
 20078c8:	003fb706 	br	20077a8 <__reset+0xfdffe7a8>
 20078cc:	a009883a 	mov	r4,r20
 20078d0:	20073100 	call	2007310 <__sinit>
 20078d4:	20075c80 	call	20075c8 <__sfp_lock_acquire>
 20078d8:	8080030b 	ldhu	r2,12(r16)
 20078dc:	10c8000c 	andi	r3,r2,8192
 20078e0:	183f911e 	bne	r3,zero,2007728 <__reset+0xfdffe728>
 20078e4:	003f8a06 	br	2007710 <__reset+0xfdffe710>
 20078e8:	883fdf1e 	bne	r17,zero,2007868 <__reset+0xfdffe868>
 20078ec:	003fac06 	br	20077a0 <__reset+0xfdffe7a0>

020078f0 <fread>:
 20078f0:	008080b4 	movhi	r2,514
 20078f4:	10836104 	addi	r2,r2,3460
 20078f8:	2011883a 	mov	r8,r4
 20078fc:	11000017 	ldw	r4,0(r2)
 2007900:	defffe04 	addi	sp,sp,-8
 2007904:	2807883a 	mov	r3,r5
 2007908:	3005883a 	mov	r2,r6
 200790c:	d9c00015 	stw	r7,0(sp)
 2007910:	400b883a 	mov	r5,r8
 2007914:	180d883a 	mov	r6,r3
 2007918:	100f883a 	mov	r7,r2
 200791c:	dfc00115 	stw	ra,4(sp)
 2007920:	20076a00 	call	20076a0 <_fread_r>
 2007924:	dfc00117 	ldw	ra,4(sp)
 2007928:	dec00204 	addi	sp,sp,8
 200792c:	f800283a 	ret

02007930 <_malloc_trim_r>:
 2007930:	defffb04 	addi	sp,sp,-20
 2007934:	dcc00315 	stw	r19,12(sp)
 2007938:	dc800215 	stw	r18,8(sp)
 200793c:	dc400115 	stw	r17,4(sp)
 2007940:	dc000015 	stw	r16,0(sp)
 2007944:	2827883a 	mov	r19,r5
 2007948:	dfc00415 	stw	ra,16(sp)
 200794c:	044080b4 	movhi	r17,514
 2007950:	8c7d5904 	addi	r17,r17,-2716
 2007954:	2021883a 	mov	r16,r4
 2007958:	2012df00 	call	2012df0 <__malloc_lock>
 200795c:	88800217 	ldw	r2,8(r17)
 2007960:	14800117 	ldw	r18,4(r2)
 2007964:	00bfff04 	movi	r2,-4
 2007968:	90a4703a 	and	r18,r18,r2
 200796c:	94e7c83a 	sub	r19,r18,r19
 2007970:	9cc3fbc4 	addi	r19,r19,4079
 2007974:	9826d33a 	srli	r19,r19,12
 2007978:	0083ffc4 	movi	r2,4095
 200797c:	9cffffc4 	addi	r19,r19,-1
 2007980:	9826933a 	slli	r19,r19,12
 2007984:	14c0060e 	bge	r2,r19,20079a0 <_malloc_trim_r+0x70>
 2007988:	8009883a 	mov	r4,r16
 200798c:	000b883a 	mov	r5,zero
 2007990:	20091000 	call	2009100 <_sbrk_r>
 2007994:	88c00217 	ldw	r3,8(r17)
 2007998:	1c87883a 	add	r3,r3,r18
 200799c:	10c00a26 	beq	r2,r3,20079c8 <_malloc_trim_r+0x98>
 20079a0:	8009883a 	mov	r4,r16
 20079a4:	2012e100 	call	2012e10 <__malloc_unlock>
 20079a8:	0005883a 	mov	r2,zero
 20079ac:	dfc00417 	ldw	ra,16(sp)
 20079b0:	dcc00317 	ldw	r19,12(sp)
 20079b4:	dc800217 	ldw	r18,8(sp)
 20079b8:	dc400117 	ldw	r17,4(sp)
 20079bc:	dc000017 	ldw	r16,0(sp)
 20079c0:	dec00504 	addi	sp,sp,20
 20079c4:	f800283a 	ret
 20079c8:	8009883a 	mov	r4,r16
 20079cc:	04cbc83a 	sub	r5,zero,r19
 20079d0:	20091000 	call	2009100 <_sbrk_r>
 20079d4:	00ffffc4 	movi	r3,-1
 20079d8:	10c01326 	beq	r2,r3,2007a28 <_malloc_trim_r+0xf8>
 20079dc:	008080b4 	movhi	r2,514
 20079e0:	10838404 	addi	r2,r2,3600
 20079e4:	11000017 	ldw	r4,0(r2)
 20079e8:	88c00217 	ldw	r3,8(r17)
 20079ec:	94e5c83a 	sub	r18,r18,r19
 20079f0:	94800054 	ori	r18,r18,1
 20079f4:	24e7c83a 	sub	r19,r4,r19
 20079f8:	1c800115 	stw	r18,4(r3)
 20079fc:	8009883a 	mov	r4,r16
 2007a00:	14c00015 	stw	r19,0(r2)
 2007a04:	2012e100 	call	2012e10 <__malloc_unlock>
 2007a08:	00800044 	movi	r2,1
 2007a0c:	dfc00417 	ldw	ra,16(sp)
 2007a10:	dcc00317 	ldw	r19,12(sp)
 2007a14:	dc800217 	ldw	r18,8(sp)
 2007a18:	dc400117 	ldw	r17,4(sp)
 2007a1c:	dc000017 	ldw	r16,0(sp)
 2007a20:	dec00504 	addi	sp,sp,20
 2007a24:	f800283a 	ret
 2007a28:	8009883a 	mov	r4,r16
 2007a2c:	000b883a 	mov	r5,zero
 2007a30:	20091000 	call	2009100 <_sbrk_r>
 2007a34:	88c00217 	ldw	r3,8(r17)
 2007a38:	014003c4 	movi	r5,15
 2007a3c:	10c9c83a 	sub	r4,r2,r3
 2007a40:	293fd70e 	bge	r5,r4,20079a0 <__reset+0xfdffe9a0>
 2007a44:	014080b4 	movhi	r5,514
 2007a48:	29436204 	addi	r5,r5,3464
 2007a4c:	29400017 	ldw	r5,0(r5)
 2007a50:	21000054 	ori	r4,r4,1
 2007a54:	19000115 	stw	r4,4(r3)
 2007a58:	1145c83a 	sub	r2,r2,r5
 2007a5c:	014080b4 	movhi	r5,514
 2007a60:	29438404 	addi	r5,r5,3600
 2007a64:	28800015 	stw	r2,0(r5)
 2007a68:	003fcd06 	br	20079a0 <__reset+0xfdffe9a0>

02007a6c <_free_r>:
 2007a6c:	defffd04 	addi	sp,sp,-12
 2007a70:	dc000015 	stw	r16,0(sp)
 2007a74:	dfc00215 	stw	ra,8(sp)
 2007a78:	dc400115 	stw	r17,4(sp)
 2007a7c:	2821883a 	mov	r16,r5
 2007a80:	28004c26 	beq	r5,zero,2007bb4 <_free_r+0x148>
 2007a84:	2023883a 	mov	r17,r4
 2007a88:	2012df00 	call	2012df0 <__malloc_lock>
 2007a8c:	823fff17 	ldw	r8,-4(r16)
 2007a90:	00bfff84 	movi	r2,-2
 2007a94:	81bffe04 	addi	r6,r16,-8
 2007a98:	4084703a 	and	r2,r8,r2
 2007a9c:	3087883a 	add	r3,r6,r2
 2007aa0:	014080b4 	movhi	r5,514
 2007aa4:	297d5904 	addi	r5,r5,-2716
 2007aa8:	1a400117 	ldw	r9,4(r3)
 2007aac:	29000217 	ldw	r4,8(r5)
 2007ab0:	01ffff04 	movi	r7,-4
 2007ab4:	49ce703a 	and	r7,r9,r7
 2007ab8:	20c06526 	beq	r4,r3,2007c50 <_free_r+0x1e4>
 2007abc:	19c00115 	stw	r7,4(r3)
 2007ac0:	4200004c 	andi	r8,r8,1
 2007ac4:	40003026 	beq	r8,zero,2007b88 <_free_r+0x11c>
 2007ac8:	0009883a 	mov	r4,zero
 2007acc:	19d1883a 	add	r8,r3,r7
 2007ad0:	42000117 	ldw	r8,4(r8)
 2007ad4:	4200004c 	andi	r8,r8,1
 2007ad8:	4000061e 	bne	r8,zero,2007af4 <_free_r+0x88>
 2007adc:	11c5883a 	add	r2,r2,r7
 2007ae0:	19c00217 	ldw	r7,8(r3)
 2007ae4:	20004e26 	beq	r4,zero,2007c20 <_free_r+0x1b4>
 2007ae8:	18c00317 	ldw	r3,12(r3)
 2007aec:	38c00315 	stw	r3,12(r7)
 2007af0:	19c00215 	stw	r7,8(r3)
 2007af4:	10c00054 	ori	r3,r2,1
 2007af8:	30c00115 	stw	r3,4(r6)
 2007afc:	3087883a 	add	r3,r6,r2
 2007b00:	18800015 	stw	r2,0(r3)
 2007b04:	20001a1e 	bne	r4,zero,2007b70 <_free_r+0x104>
 2007b08:	00c07fc4 	movi	r3,511
 2007b0c:	18802e2e 	bgeu	r3,r2,2007bc8 <_free_r+0x15c>
 2007b10:	1006d27a 	srli	r3,r2,9
 2007b14:	01000104 	movi	r4,4
 2007b18:	20c06636 	bltu	r4,r3,2007cb4 <_free_r+0x248>
 2007b1c:	1008d1ba 	srli	r4,r2,6
 2007b20:	21000e04 	addi	r4,r4,56
 2007b24:	210f883a 	add	r7,r4,r4
 2007b28:	39cf883a 	add	r7,r7,r7
 2007b2c:	39cf883a 	add	r7,r7,r7
 2007b30:	29cf883a 	add	r7,r5,r7
 2007b34:	38c00217 	ldw	r3,8(r7)
 2007b38:	014080b4 	movhi	r5,514
 2007b3c:	297d5904 	addi	r5,r5,-2716
 2007b40:	19c06126 	beq	r3,r7,2007cc8 <_free_r+0x25c>
 2007b44:	013fff04 	movi	r4,-4
 2007b48:	19400117 	ldw	r5,4(r3)
 2007b4c:	290a703a 	and	r5,r5,r4
 2007b50:	1140022e 	bgeu	r2,r5,2007b5c <_free_r+0xf0>
 2007b54:	18c00217 	ldw	r3,8(r3)
 2007b58:	38fffb1e 	bne	r7,r3,2007b48 <__reset+0xfdffeb48>
 2007b5c:	18800317 	ldw	r2,12(r3)
 2007b60:	30800315 	stw	r2,12(r6)
 2007b64:	30c00215 	stw	r3,8(r6)
 2007b68:	11800215 	stw	r6,8(r2)
 2007b6c:	19800315 	stw	r6,12(r3)
 2007b70:	8809883a 	mov	r4,r17
 2007b74:	dfc00217 	ldw	ra,8(sp)
 2007b78:	dc400117 	ldw	r17,4(sp)
 2007b7c:	dc000017 	ldw	r16,0(sp)
 2007b80:	dec00304 	addi	sp,sp,12
 2007b84:	2012e101 	jmpi	2012e10 <__malloc_unlock>
 2007b88:	813ffe17 	ldw	r4,-8(r16)
 2007b8c:	2a400204 	addi	r9,r5,8
 2007b90:	310dc83a 	sub	r6,r6,r4
 2007b94:	32000217 	ldw	r8,8(r6)
 2007b98:	1105883a 	add	r2,r2,r4
 2007b9c:	42404326 	beq	r8,r9,2007cac <_free_r+0x240>
 2007ba0:	32400317 	ldw	r9,12(r6)
 2007ba4:	0009883a 	mov	r4,zero
 2007ba8:	42400315 	stw	r9,12(r8)
 2007bac:	4a000215 	stw	r8,8(r9)
 2007bb0:	003fc606 	br	2007acc <__reset+0xfdffeacc>
 2007bb4:	dfc00217 	ldw	ra,8(sp)
 2007bb8:	dc400117 	ldw	r17,4(sp)
 2007bbc:	dc000017 	ldw	r16,0(sp)
 2007bc0:	dec00304 	addi	sp,sp,12
 2007bc4:	f800283a 	ret
 2007bc8:	1004d0fa 	srli	r2,r2,3
 2007bcc:	02000044 	movi	r8,1
 2007bd0:	29c00117 	ldw	r7,4(r5)
 2007bd4:	1087883a 	add	r3,r2,r2
 2007bd8:	18c7883a 	add	r3,r3,r3
 2007bdc:	18c7883a 	add	r3,r3,r3
 2007be0:	28c7883a 	add	r3,r5,r3
 2007be4:	1005d0ba 	srai	r2,r2,2
 2007be8:	19000217 	ldw	r4,8(r3)
 2007bec:	30c00315 	stw	r3,12(r6)
 2007bf0:	4084983a 	sll	r2,r8,r2
 2007bf4:	31000215 	stw	r4,8(r6)
 2007bf8:	19800215 	stw	r6,8(r3)
 2007bfc:	11c4b03a 	or	r2,r2,r7
 2007c00:	21800315 	stw	r6,12(r4)
 2007c04:	8809883a 	mov	r4,r17
 2007c08:	28800115 	stw	r2,4(r5)
 2007c0c:	dfc00217 	ldw	ra,8(sp)
 2007c10:	dc400117 	ldw	r17,4(sp)
 2007c14:	dc000017 	ldw	r16,0(sp)
 2007c18:	dec00304 	addi	sp,sp,12
 2007c1c:	2012e101 	jmpi	2012e10 <__malloc_unlock>
 2007c20:	020080b4 	movhi	r8,514
 2007c24:	423d5b04 	addi	r8,r8,-2708
 2007c28:	3a3faf1e 	bne	r7,r8,2007ae8 <__reset+0xfdffeae8>
 2007c2c:	29800515 	stw	r6,20(r5)
 2007c30:	29800415 	stw	r6,16(r5)
 2007c34:	10c00054 	ori	r3,r2,1
 2007c38:	31c00315 	stw	r7,12(r6)
 2007c3c:	31c00215 	stw	r7,8(r6)
 2007c40:	30c00115 	stw	r3,4(r6)
 2007c44:	308d883a 	add	r6,r6,r2
 2007c48:	30800015 	stw	r2,0(r6)
 2007c4c:	003fc806 	br	2007b70 <__reset+0xfdffeb70>
 2007c50:	4200004c 	andi	r8,r8,1
 2007c54:	3885883a 	add	r2,r7,r2
 2007c58:	4000071e 	bne	r8,zero,2007c78 <_free_r+0x20c>
 2007c5c:	81fffe17 	ldw	r7,-8(r16)
 2007c60:	31cdc83a 	sub	r6,r6,r7
 2007c64:	30c00317 	ldw	r3,12(r6)
 2007c68:	31000217 	ldw	r4,8(r6)
 2007c6c:	11c5883a 	add	r2,r2,r7
 2007c70:	20c00315 	stw	r3,12(r4)
 2007c74:	19000215 	stw	r4,8(r3)
 2007c78:	00c080b4 	movhi	r3,514
 2007c7c:	18c36304 	addi	r3,r3,3468
 2007c80:	11000054 	ori	r4,r2,1
 2007c84:	18c00017 	ldw	r3,0(r3)
 2007c88:	31000115 	stw	r4,4(r6)
 2007c8c:	29800215 	stw	r6,8(r5)
 2007c90:	10ffb736 	bltu	r2,r3,2007b70 <__reset+0xfdffeb70>
 2007c94:	008080b4 	movhi	r2,514
 2007c98:	10837804 	addi	r2,r2,3552
 2007c9c:	11400017 	ldw	r5,0(r2)
 2007ca0:	8809883a 	mov	r4,r17
 2007ca4:	20079300 	call	2007930 <_malloc_trim_r>
 2007ca8:	003fb106 	br	2007b70 <__reset+0xfdffeb70>
 2007cac:	01000044 	movi	r4,1
 2007cb0:	003f8606 	br	2007acc <__reset+0xfdffeacc>
 2007cb4:	01000504 	movi	r4,20
 2007cb8:	20c00b36 	bltu	r4,r3,2007ce8 <_free_r+0x27c>
 2007cbc:	190016c4 	addi	r4,r3,91
 2007cc0:	210f883a 	add	r7,r4,r4
 2007cc4:	003f9806 	br	2007b28 <__reset+0xfdffeb28>
 2007cc8:	2009d0ba 	srai	r4,r4,2
 2007ccc:	00800044 	movi	r2,1
 2007cd0:	29c00117 	ldw	r7,4(r5)
 2007cd4:	1108983a 	sll	r4,r2,r4
 2007cd8:	1805883a 	mov	r2,r3
 2007cdc:	21c8b03a 	or	r4,r4,r7
 2007ce0:	29000115 	stw	r4,4(r5)
 2007ce4:	003f9e06 	br	2007b60 <__reset+0xfdffeb60>
 2007ce8:	01001504 	movi	r4,84
 2007cec:	20c00436 	bltu	r4,r3,2007d00 <_free_r+0x294>
 2007cf0:	1008d33a 	srli	r4,r2,12
 2007cf4:	21001b84 	addi	r4,r4,110
 2007cf8:	210f883a 	add	r7,r4,r4
 2007cfc:	003f8a06 	br	2007b28 <__reset+0xfdffeb28>
 2007d00:	01005504 	movi	r4,340
 2007d04:	20c00436 	bltu	r4,r3,2007d18 <_free_r+0x2ac>
 2007d08:	1008d3fa 	srli	r4,r2,15
 2007d0c:	21001dc4 	addi	r4,r4,119
 2007d10:	210f883a 	add	r7,r4,r4
 2007d14:	003f8406 	br	2007b28 <__reset+0xfdffeb28>
 2007d18:	01015504 	movi	r4,1364
 2007d1c:	20c00436 	bltu	r4,r3,2007d30 <_free_r+0x2c4>
 2007d20:	1008d4ba 	srli	r4,r2,18
 2007d24:	21001f04 	addi	r4,r4,124
 2007d28:	210f883a 	add	r7,r4,r4
 2007d2c:	003f7e06 	br	2007b28 <__reset+0xfdffeb28>
 2007d30:	01c03f04 	movi	r7,252
 2007d34:	01001f84 	movi	r4,126
 2007d38:	003f7b06 	br	2007b28 <__reset+0xfdffeb28>

02007d3c <_fwalk>:
 2007d3c:	defff904 	addi	sp,sp,-28
 2007d40:	dcc00315 	stw	r19,12(sp)
 2007d44:	24c0b804 	addi	r19,r4,736
 2007d48:	dd400515 	stw	r21,20(sp)
 2007d4c:	dd000415 	stw	r20,16(sp)
 2007d50:	dfc00615 	stw	ra,24(sp)
 2007d54:	dc800215 	stw	r18,8(sp)
 2007d58:	dc400115 	stw	r17,4(sp)
 2007d5c:	dc000015 	stw	r16,0(sp)
 2007d60:	282b883a 	mov	r21,r5
 2007d64:	0029883a 	mov	r20,zero
 2007d68:	20075c80 	call	20075c8 <__sfp_lock_acquire>
 2007d6c:	98001226 	beq	r19,zero,2007db8 <_fwalk+0x7c>
 2007d70:	04bfffc4 	movi	r18,-1
 2007d74:	9c400117 	ldw	r17,4(r19)
 2007d78:	9c000217 	ldw	r16,8(r19)
 2007d7c:	8c7fffc4 	addi	r17,r17,-1
 2007d80:	88000b16 	blt	r17,zero,2007db0 <_fwalk+0x74>
 2007d84:	84000304 	addi	r16,r16,12
 2007d88:	80c0000f 	ldh	r3,0(r16)
 2007d8c:	8c7fffc4 	addi	r17,r17,-1
 2007d90:	813ffd04 	addi	r4,r16,-12
 2007d94:	18000426 	beq	r3,zero,2007da8 <_fwalk+0x6c>
 2007d98:	80c0008f 	ldh	r3,2(r16)
 2007d9c:	1c800226 	beq	r3,r18,2007da8 <_fwalk+0x6c>
 2007da0:	a83ee83a 	callr	r21
 2007da4:	a0a8b03a 	or	r20,r20,r2
 2007da8:	84001a04 	addi	r16,r16,104
 2007dac:	8cbff61e 	bne	r17,r18,2007d88 <__reset+0xfdffed88>
 2007db0:	9cc00017 	ldw	r19,0(r19)
 2007db4:	983fef1e 	bne	r19,zero,2007d74 <__reset+0xfdffed74>
 2007db8:	20075cc0 	call	20075cc <__sfp_lock_release>
 2007dbc:	a005883a 	mov	r2,r20
 2007dc0:	dfc00617 	ldw	ra,24(sp)
 2007dc4:	dd400517 	ldw	r21,20(sp)
 2007dc8:	dd000417 	ldw	r20,16(sp)
 2007dcc:	dcc00317 	ldw	r19,12(sp)
 2007dd0:	dc800217 	ldw	r18,8(sp)
 2007dd4:	dc400117 	ldw	r17,4(sp)
 2007dd8:	dc000017 	ldw	r16,0(sp)
 2007ddc:	dec00704 	addi	sp,sp,28
 2007de0:	f800283a 	ret

02007de4 <_fwalk_reent>:
 2007de4:	defff804 	addi	sp,sp,-32
 2007de8:	dcc00315 	stw	r19,12(sp)
 2007dec:	24c0b804 	addi	r19,r4,736
 2007df0:	dd800615 	stw	r22,24(sp)
 2007df4:	dd400515 	stw	r21,20(sp)
 2007df8:	dd000415 	stw	r20,16(sp)
 2007dfc:	dfc00715 	stw	ra,28(sp)
 2007e00:	dc800215 	stw	r18,8(sp)
 2007e04:	dc400115 	stw	r17,4(sp)
 2007e08:	dc000015 	stw	r16,0(sp)
 2007e0c:	2029883a 	mov	r20,r4
 2007e10:	282b883a 	mov	r21,r5
 2007e14:	002d883a 	mov	r22,zero
 2007e18:	20075c80 	call	20075c8 <__sfp_lock_acquire>
 2007e1c:	98001326 	beq	r19,zero,2007e6c <_fwalk_reent+0x88>
 2007e20:	04bfffc4 	movi	r18,-1
 2007e24:	9c400117 	ldw	r17,4(r19)
 2007e28:	9c000217 	ldw	r16,8(r19)
 2007e2c:	8c7fffc4 	addi	r17,r17,-1
 2007e30:	88000c16 	blt	r17,zero,2007e64 <_fwalk_reent+0x80>
 2007e34:	84000304 	addi	r16,r16,12
 2007e38:	80c0000f 	ldh	r3,0(r16)
 2007e3c:	8c7fffc4 	addi	r17,r17,-1
 2007e40:	817ffd04 	addi	r5,r16,-12
 2007e44:	18000526 	beq	r3,zero,2007e5c <_fwalk_reent+0x78>
 2007e48:	80c0008f 	ldh	r3,2(r16)
 2007e4c:	a009883a 	mov	r4,r20
 2007e50:	1c800226 	beq	r3,r18,2007e5c <_fwalk_reent+0x78>
 2007e54:	a83ee83a 	callr	r21
 2007e58:	b0acb03a 	or	r22,r22,r2
 2007e5c:	84001a04 	addi	r16,r16,104
 2007e60:	8cbff51e 	bne	r17,r18,2007e38 <__reset+0xfdffee38>
 2007e64:	9cc00017 	ldw	r19,0(r19)
 2007e68:	983fee1e 	bne	r19,zero,2007e24 <__reset+0xfdffee24>
 2007e6c:	20075cc0 	call	20075cc <__sfp_lock_release>
 2007e70:	b005883a 	mov	r2,r22
 2007e74:	dfc00717 	ldw	ra,28(sp)
 2007e78:	dd800617 	ldw	r22,24(sp)
 2007e7c:	dd400517 	ldw	r21,20(sp)
 2007e80:	dd000417 	ldw	r20,16(sp)
 2007e84:	dcc00317 	ldw	r19,12(sp)
 2007e88:	dc800217 	ldw	r18,8(sp)
 2007e8c:	dc400117 	ldw	r17,4(sp)
 2007e90:	dc000017 	ldw	r16,0(sp)
 2007e94:	dec00804 	addi	sp,sp,32
 2007e98:	f800283a 	ret

02007e9c <malloc>:
 2007e9c:	008080b4 	movhi	r2,514
 2007ea0:	10836104 	addi	r2,r2,3460
 2007ea4:	200b883a 	mov	r5,r4
 2007ea8:	11000017 	ldw	r4,0(r2)
 2007eac:	2007ec41 	jmpi	2007ec4 <_malloc_r>

02007eb0 <free>:
 2007eb0:	008080b4 	movhi	r2,514
 2007eb4:	10836104 	addi	r2,r2,3460
 2007eb8:	200b883a 	mov	r5,r4
 2007ebc:	11000017 	ldw	r4,0(r2)
 2007ec0:	2007a6c1 	jmpi	2007a6c <_free_r>

02007ec4 <_malloc_r>:
 2007ec4:	defff504 	addi	sp,sp,-44
 2007ec8:	dc800315 	stw	r18,12(sp)
 2007ecc:	dfc00a15 	stw	ra,40(sp)
 2007ed0:	df000915 	stw	fp,36(sp)
 2007ed4:	ddc00815 	stw	r23,32(sp)
 2007ed8:	dd800715 	stw	r22,28(sp)
 2007edc:	dd400615 	stw	r21,24(sp)
 2007ee0:	dd000515 	stw	r20,20(sp)
 2007ee4:	dcc00415 	stw	r19,16(sp)
 2007ee8:	dc400215 	stw	r17,8(sp)
 2007eec:	dc000115 	stw	r16,4(sp)
 2007ef0:	288002c4 	addi	r2,r5,11
 2007ef4:	00c00584 	movi	r3,22
 2007ef8:	2025883a 	mov	r18,r4
 2007efc:	18802b2e 	bgeu	r3,r2,2007fac <_malloc_r+0xe8>
 2007f00:	047ffe04 	movi	r17,-8
 2007f04:	1462703a 	and	r17,r2,r17
 2007f08:	88002a16 	blt	r17,zero,2007fb4 <_malloc_r+0xf0>
 2007f0c:	89402936 	bltu	r17,r5,2007fb4 <_malloc_r+0xf0>
 2007f10:	9009883a 	mov	r4,r18
 2007f14:	2012df00 	call	2012df0 <__malloc_lock>
 2007f18:	00807dc4 	movi	r2,503
 2007f1c:	14402936 	bltu	r2,r17,2007fc4 <_malloc_r+0x100>
 2007f20:	8808d0fa 	srli	r4,r17,3
 2007f24:	04c080b4 	movhi	r19,514
 2007f28:	9cfd5904 	addi	r19,r19,-2716
 2007f2c:	2105883a 	add	r2,r4,r4
 2007f30:	1085883a 	add	r2,r2,r2
 2007f34:	1085883a 	add	r2,r2,r2
 2007f38:	9885883a 	add	r2,r19,r2
 2007f3c:	14000317 	ldw	r16,12(r2)
 2007f40:	80815226 	beq	r16,r2,200848c <_malloc_r+0x5c8>
 2007f44:	81000117 	ldw	r4,4(r16)
 2007f48:	00bfff04 	movi	r2,-4
 2007f4c:	80c00317 	ldw	r3,12(r16)
 2007f50:	2084703a 	and	r2,r4,r2
 2007f54:	8085883a 	add	r2,r16,r2
 2007f58:	81000217 	ldw	r4,8(r16)
 2007f5c:	11400117 	ldw	r5,4(r2)
 2007f60:	20c00315 	stw	r3,12(r4)
 2007f64:	19000215 	stw	r4,8(r3)
 2007f68:	28c00054 	ori	r3,r5,1
 2007f6c:	10c00115 	stw	r3,4(r2)
 2007f70:	9009883a 	mov	r4,r18
 2007f74:	2012e100 	call	2012e10 <__malloc_unlock>
 2007f78:	80800204 	addi	r2,r16,8
 2007f7c:	dfc00a17 	ldw	ra,40(sp)
 2007f80:	df000917 	ldw	fp,36(sp)
 2007f84:	ddc00817 	ldw	r23,32(sp)
 2007f88:	dd800717 	ldw	r22,28(sp)
 2007f8c:	dd400617 	ldw	r21,24(sp)
 2007f90:	dd000517 	ldw	r20,20(sp)
 2007f94:	dcc00417 	ldw	r19,16(sp)
 2007f98:	dc800317 	ldw	r18,12(sp)
 2007f9c:	dc400217 	ldw	r17,8(sp)
 2007fa0:	dc000117 	ldw	r16,4(sp)
 2007fa4:	dec00b04 	addi	sp,sp,44
 2007fa8:	f800283a 	ret
 2007fac:	04400404 	movi	r17,16
 2007fb0:	897fd72e 	bgeu	r17,r5,2007f10 <__reset+0xfdffef10>
 2007fb4:	00800304 	movi	r2,12
 2007fb8:	90800015 	stw	r2,0(r18)
 2007fbc:	0005883a 	mov	r2,zero
 2007fc0:	003fee06 	br	2007f7c <__reset+0xfdffef7c>
 2007fc4:	8808d27a 	srli	r4,r17,9
 2007fc8:	20007126 	beq	r4,zero,2008190 <_malloc_r+0x2cc>
 2007fcc:	00800104 	movi	r2,4
 2007fd0:	1100f536 	bltu	r2,r4,20083a8 <_malloc_r+0x4e4>
 2007fd4:	8808d1ba 	srli	r4,r17,6
 2007fd8:	21000e04 	addi	r4,r4,56
 2007fdc:	210b883a 	add	r5,r4,r4
 2007fe0:	294b883a 	add	r5,r5,r5
 2007fe4:	294b883a 	add	r5,r5,r5
 2007fe8:	04c080b4 	movhi	r19,514
 2007fec:	9cfd5904 	addi	r19,r19,-2716
 2007ff0:	994b883a 	add	r5,r19,r5
 2007ff4:	2c000317 	ldw	r16,12(r5)
 2007ff8:	2c000e26 	beq	r5,r16,2008034 <_malloc_r+0x170>
 2007ffc:	80c00117 	ldw	r3,4(r16)
 2008000:	01ffff04 	movi	r7,-4
 2008004:	018003c4 	movi	r6,15
 2008008:	19c6703a 	and	r3,r3,r7
 200800c:	1c45c83a 	sub	r2,r3,r17
 2008010:	30800716 	blt	r6,r2,2008030 <_malloc_r+0x16c>
 2008014:	1000610e 	bge	r2,zero,200819c <_malloc_r+0x2d8>
 2008018:	84000317 	ldw	r16,12(r16)
 200801c:	2c000526 	beq	r5,r16,2008034 <_malloc_r+0x170>
 2008020:	80c00117 	ldw	r3,4(r16)
 2008024:	19c6703a 	and	r3,r3,r7
 2008028:	1c45c83a 	sub	r2,r3,r17
 200802c:	30bff90e 	bge	r6,r2,2008014 <__reset+0xfdfff014>
 2008030:	213fffc4 	addi	r4,r4,-1
 2008034:	21000044 	addi	r4,r4,1
 2008038:	9c000417 	ldw	r16,16(r19)
 200803c:	00c080b4 	movhi	r3,514
 2008040:	18fd5904 	addi	r3,r3,-2716
 2008044:	1a400204 	addi	r9,r3,8
 2008048:	82410926 	beq	r16,r9,2008470 <_malloc_r+0x5ac>
 200804c:	81400117 	ldw	r5,4(r16)
 2008050:	00bfff04 	movi	r2,-4
 2008054:	018003c4 	movi	r6,15
 2008058:	2884703a 	and	r2,r5,r2
 200805c:	144bc83a 	sub	r5,r2,r17
 2008060:	3140f416 	blt	r6,r5,2008434 <_malloc_r+0x570>
 2008064:	1a400515 	stw	r9,20(r3)
 2008068:	1a400415 	stw	r9,16(r3)
 200806c:	2800570e 	bge	r5,zero,20081cc <_malloc_r+0x308>
 2008070:	01407fc4 	movi	r5,511
 2008074:	2880d436 	bltu	r5,r2,20083c8 <_malloc_r+0x504>
 2008078:	1004d0fa 	srli	r2,r2,3
 200807c:	02000044 	movi	r8,1
 2008080:	19c00117 	ldw	r7,4(r3)
 2008084:	108b883a 	add	r5,r2,r2
 2008088:	294b883a 	add	r5,r5,r5
 200808c:	1005d0ba 	srai	r2,r2,2
 2008090:	294b883a 	add	r5,r5,r5
 2008094:	28cb883a 	add	r5,r5,r3
 2008098:	29800217 	ldw	r6,8(r5)
 200809c:	4084983a 	sll	r2,r8,r2
 20080a0:	81400315 	stw	r5,12(r16)
 20080a4:	81800215 	stw	r6,8(r16)
 20080a8:	11c4b03a 	or	r2,r2,r7
 20080ac:	2c000215 	stw	r16,8(r5)
 20080b0:	18800115 	stw	r2,4(r3)
 20080b4:	34000315 	stw	r16,12(r6)
 20080b8:	2007d0ba 	srai	r3,r4,2
 20080bc:	01400044 	movi	r5,1
 20080c0:	28ca983a 	sll	r5,r5,r3
 20080c4:	11404936 	bltu	r2,r5,20081ec <_malloc_r+0x328>
 20080c8:	1146703a 	and	r3,r2,r5
 20080cc:	18000a1e 	bne	r3,zero,20080f8 <_malloc_r+0x234>
 20080d0:	00ffff04 	movi	r3,-4
 20080d4:	294b883a 	add	r5,r5,r5
 20080d8:	20c8703a 	and	r4,r4,r3
 20080dc:	1146703a 	and	r3,r2,r5
 20080e0:	21000104 	addi	r4,r4,4
 20080e4:	1800041e 	bne	r3,zero,20080f8 <_malloc_r+0x234>
 20080e8:	294b883a 	add	r5,r5,r5
 20080ec:	1146703a 	and	r3,r2,r5
 20080f0:	21000104 	addi	r4,r4,4
 20080f4:	183ffc26 	beq	r3,zero,20080e8 <__reset+0xfdfff0e8>
 20080f8:	023fff04 	movi	r8,-4
 20080fc:	01c003c4 	movi	r7,15
 2008100:	2105883a 	add	r2,r4,r4
 2008104:	1085883a 	add	r2,r2,r2
 2008108:	1085883a 	add	r2,r2,r2
 200810c:	9897883a 	add	r11,r19,r2
 2008110:	5a800304 	addi	r10,r11,12
 2008114:	2019883a 	mov	r12,r4
 2008118:	54000017 	ldw	r16,0(r10)
 200811c:	51bffd04 	addi	r6,r10,-12
 2008120:	8180041e 	bne	r16,r6,2008134 <_malloc_r+0x270>
 2008124:	0000d406 	br	2008478 <_malloc_r+0x5b4>
 2008128:	1000dd0e 	bge	r2,zero,20084a0 <_malloc_r+0x5dc>
 200812c:	84000317 	ldw	r16,12(r16)
 2008130:	8180d126 	beq	r16,r6,2008478 <_malloc_r+0x5b4>
 2008134:	80c00117 	ldw	r3,4(r16)
 2008138:	1a06703a 	and	r3,r3,r8
 200813c:	1c45c83a 	sub	r2,r3,r17
 2008140:	38bff90e 	bge	r7,r2,2008128 <__reset+0xfdfff128>
 2008144:	80c00317 	ldw	r3,12(r16)
 2008148:	81000217 	ldw	r4,8(r16)
 200814c:	89400054 	ori	r5,r17,1
 2008150:	81400115 	stw	r5,4(r16)
 2008154:	20c00315 	stw	r3,12(r4)
 2008158:	19000215 	stw	r4,8(r3)
 200815c:	8463883a 	add	r17,r16,r17
 2008160:	9c400515 	stw	r17,20(r19)
 2008164:	9c400415 	stw	r17,16(r19)
 2008168:	10c00054 	ori	r3,r2,1
 200816c:	8a400315 	stw	r9,12(r17)
 2008170:	8a400215 	stw	r9,8(r17)
 2008174:	88c00115 	stw	r3,4(r17)
 2008178:	88a3883a 	add	r17,r17,r2
 200817c:	88800015 	stw	r2,0(r17)
 2008180:	9009883a 	mov	r4,r18
 2008184:	2012e100 	call	2012e10 <__malloc_unlock>
 2008188:	80800204 	addi	r2,r16,8
 200818c:	003f7b06 	br	2007f7c <__reset+0xfdffef7c>
 2008190:	01401f84 	movi	r5,126
 2008194:	01000fc4 	movi	r4,63
 2008198:	003f9106 	br	2007fe0 <__reset+0xfdffefe0>
 200819c:	80800317 	ldw	r2,12(r16)
 20081a0:	81000217 	ldw	r4,8(r16)
 20081a4:	80c7883a 	add	r3,r16,r3
 20081a8:	19400117 	ldw	r5,4(r3)
 20081ac:	20800315 	stw	r2,12(r4)
 20081b0:	11000215 	stw	r4,8(r2)
 20081b4:	28800054 	ori	r2,r5,1
 20081b8:	18800115 	stw	r2,4(r3)
 20081bc:	9009883a 	mov	r4,r18
 20081c0:	2012e100 	call	2012e10 <__malloc_unlock>
 20081c4:	80800204 	addi	r2,r16,8
 20081c8:	003f6c06 	br	2007f7c <__reset+0xfdffef7c>
 20081cc:	8085883a 	add	r2,r16,r2
 20081d0:	10c00117 	ldw	r3,4(r2)
 20081d4:	9009883a 	mov	r4,r18
 20081d8:	18c00054 	ori	r3,r3,1
 20081dc:	10c00115 	stw	r3,4(r2)
 20081e0:	2012e100 	call	2012e10 <__malloc_unlock>
 20081e4:	80800204 	addi	r2,r16,8
 20081e8:	003f6406 	br	2007f7c <__reset+0xfdffef7c>
 20081ec:	9c000217 	ldw	r16,8(r19)
 20081f0:	00bfff04 	movi	r2,-4
 20081f4:	85400117 	ldw	r21,4(r16)
 20081f8:	a8aa703a 	and	r21,r21,r2
 20081fc:	ac400336 	bltu	r21,r17,200820c <_malloc_r+0x348>
 2008200:	ac45c83a 	sub	r2,r21,r17
 2008204:	00c003c4 	movi	r3,15
 2008208:	18805d16 	blt	r3,r2,2008380 <_malloc_r+0x4bc>
 200820c:	008080b4 	movhi	r2,514
 2008210:	10837804 	addi	r2,r2,3552
 2008214:	00c080b4 	movhi	r3,514
 2008218:	18c36204 	addi	r3,r3,3464
 200821c:	15c00017 	ldw	r23,0(r2)
 2008220:	19000017 	ldw	r4,0(r3)
 2008224:	00bfffc4 	movi	r2,-1
 2008228:	8579883a 	add	fp,r16,r21
 200822c:	8def883a 	add	r23,r17,r23
 2008230:	2080e426 	beq	r4,r2,20085c4 <_malloc_r+0x700>
 2008234:	bdc403c4 	addi	r23,r23,4111
 2008238:	00bc0004 	movi	r2,-4096
 200823c:	b8ae703a 	and	r23,r23,r2
 2008240:	9009883a 	mov	r4,r18
 2008244:	b80b883a 	mov	r5,r23
 2008248:	d8c00015 	stw	r3,0(sp)
 200824c:	20091000 	call	2009100 <_sbrk_r>
 2008250:	1029883a 	mov	r20,r2
 2008254:	00bfffc4 	movi	r2,-1
 2008258:	d8c00017 	ldw	r3,0(sp)
 200825c:	a080a426 	beq	r20,r2,20084f0 <_malloc_r+0x62c>
 2008260:	a700a236 	bltu	r20,fp,20084ec <_malloc_r+0x628>
 2008264:	058080b4 	movhi	r22,514
 2008268:	b5838404 	addi	r22,r22,3600
 200826c:	b0800017 	ldw	r2,0(r22)
 2008270:	b885883a 	add	r2,r23,r2
 2008274:	b0800015 	stw	r2,0(r22)
 2008278:	e500da26 	beq	fp,r20,20085e4 <_malloc_r+0x720>
 200827c:	19000017 	ldw	r4,0(r3)
 2008280:	00ffffc4 	movi	r3,-1
 2008284:	20c0e426 	beq	r4,r3,2008618 <_malloc_r+0x754>
 2008288:	a739c83a 	sub	fp,r20,fp
 200828c:	1705883a 	add	r2,r2,fp
 2008290:	b0800015 	stw	r2,0(r22)
 2008294:	a08001cc 	andi	r2,r20,7
 2008298:	1000b526 	beq	r2,zero,2008570 <_malloc_r+0x6ac>
 200829c:	a0a9c83a 	sub	r20,r20,r2
 20082a0:	00c40204 	movi	r3,4104
 20082a4:	a5000204 	addi	r20,r20,8
 20082a8:	1885c83a 	sub	r2,r3,r2
 20082ac:	a5c7883a 	add	r3,r20,r23
 20082b0:	18c3ffcc 	andi	r3,r3,4095
 20082b4:	10efc83a 	sub	r23,r2,r3
 20082b8:	9009883a 	mov	r4,r18
 20082bc:	b80b883a 	mov	r5,r23
 20082c0:	20091000 	call	2009100 <_sbrk_r>
 20082c4:	00ffffc4 	movi	r3,-1
 20082c8:	10c0d026 	beq	r2,r3,200860c <_malloc_r+0x748>
 20082cc:	1505c83a 	sub	r2,r2,r20
 20082d0:	b887883a 	add	r3,r23,r2
 20082d4:	18c00054 	ori	r3,r3,1
 20082d8:	b0800017 	ldw	r2,0(r22)
 20082dc:	9d000215 	stw	r20,8(r19)
 20082e0:	a0c00115 	stw	r3,4(r20)
 20082e4:	b885883a 	add	r2,r23,r2
 20082e8:	b0800015 	stw	r2,0(r22)
 20082ec:	84c00e26 	beq	r16,r19,2008328 <_malloc_r+0x464>
 20082f0:	00c003c4 	movi	r3,15
 20082f4:	1d40a02e 	bgeu	r3,r21,2008578 <_malloc_r+0x6b4>
 20082f8:	81400117 	ldw	r5,4(r16)
 20082fc:	ad7ffd04 	addi	r21,r21,-12
 2008300:	013ffe04 	movi	r4,-8
 2008304:	a908703a 	and	r4,r21,r4
 2008308:	2940004c 	andi	r5,r5,1
 200830c:	214ab03a 	or	r5,r4,r5
 2008310:	81400115 	stw	r5,4(r16)
 2008314:	01800144 	movi	r6,5
 2008318:	810b883a 	add	r5,r16,r4
 200831c:	29800115 	stw	r6,4(r5)
 2008320:	29800215 	stw	r6,8(r5)
 2008324:	1900c036 	bltu	r3,r4,2008628 <_malloc_r+0x764>
 2008328:	00c080b4 	movhi	r3,514
 200832c:	18c37704 	addi	r3,r3,3548
 2008330:	19000017 	ldw	r4,0(r3)
 2008334:	2080012e 	bgeu	r4,r2,200833c <_malloc_r+0x478>
 2008338:	18800015 	stw	r2,0(r3)
 200833c:	00c080b4 	movhi	r3,514
 2008340:	18c37604 	addi	r3,r3,3544
 2008344:	19000017 	ldw	r4,0(r3)
 2008348:	9c000217 	ldw	r16,8(r19)
 200834c:	2080012e 	bgeu	r4,r2,2008354 <_malloc_r+0x490>
 2008350:	18800015 	stw	r2,0(r3)
 2008354:	80c00117 	ldw	r3,4(r16)
 2008358:	00bfff04 	movi	r2,-4
 200835c:	1886703a 	and	r3,r3,r2
 2008360:	1c45c83a 	sub	r2,r3,r17
 2008364:	1c400236 	bltu	r3,r17,2008370 <_malloc_r+0x4ac>
 2008368:	00c003c4 	movi	r3,15
 200836c:	18800416 	blt	r3,r2,2008380 <_malloc_r+0x4bc>
 2008370:	9009883a 	mov	r4,r18
 2008374:	2012e100 	call	2012e10 <__malloc_unlock>
 2008378:	0005883a 	mov	r2,zero
 200837c:	003eff06 	br	2007f7c <__reset+0xfdffef7c>
 2008380:	88c00054 	ori	r3,r17,1
 2008384:	80c00115 	stw	r3,4(r16)
 2008388:	8463883a 	add	r17,r16,r17
 200838c:	10800054 	ori	r2,r2,1
 2008390:	9c400215 	stw	r17,8(r19)
 2008394:	88800115 	stw	r2,4(r17)
 2008398:	9009883a 	mov	r4,r18
 200839c:	2012e100 	call	2012e10 <__malloc_unlock>
 20083a0:	80800204 	addi	r2,r16,8
 20083a4:	003ef506 	br	2007f7c <__reset+0xfdffef7c>
 20083a8:	00800504 	movi	r2,20
 20083ac:	1100482e 	bgeu	r2,r4,20084d0 <_malloc_r+0x60c>
 20083b0:	00801504 	movi	r2,84
 20083b4:	11006836 	bltu	r2,r4,2008558 <_malloc_r+0x694>
 20083b8:	8808d33a 	srli	r4,r17,12
 20083bc:	21001b84 	addi	r4,r4,110
 20083c0:	210b883a 	add	r5,r4,r4
 20083c4:	003f0606 	br	2007fe0 <__reset+0xfdffefe0>
 20083c8:	1006d27a 	srli	r3,r2,9
 20083cc:	01400104 	movi	r5,4
 20083d0:	28c0422e 	bgeu	r5,r3,20084dc <_malloc_r+0x618>
 20083d4:	01400504 	movi	r5,20
 20083d8:	28c07c36 	bltu	r5,r3,20085cc <_malloc_r+0x708>
 20083dc:	194016c4 	addi	r5,r3,91
 20083e0:	294d883a 	add	r6,r5,r5
 20083e4:	318d883a 	add	r6,r6,r6
 20083e8:	318d883a 	add	r6,r6,r6
 20083ec:	998d883a 	add	r6,r19,r6
 20083f0:	30c00217 	ldw	r3,8(r6)
 20083f4:	01c080b4 	movhi	r7,514
 20083f8:	39fd5904 	addi	r7,r7,-2716
 20083fc:	19806326 	beq	r3,r6,200858c <_malloc_r+0x6c8>
 2008400:	01ffff04 	movi	r7,-4
 2008404:	19400117 	ldw	r5,4(r3)
 2008408:	29ca703a 	and	r5,r5,r7
 200840c:	1140022e 	bgeu	r2,r5,2008418 <_malloc_r+0x554>
 2008410:	18c00217 	ldw	r3,8(r3)
 2008414:	30fffb1e 	bne	r6,r3,2008404 <__reset+0xfdfff404>
 2008418:	19400317 	ldw	r5,12(r3)
 200841c:	98800117 	ldw	r2,4(r19)
 2008420:	81400315 	stw	r5,12(r16)
 2008424:	80c00215 	stw	r3,8(r16)
 2008428:	2c000215 	stw	r16,8(r5)
 200842c:	1c000315 	stw	r16,12(r3)
 2008430:	003f2106 	br	20080b8 <__reset+0xfdfff0b8>
 2008434:	88800054 	ori	r2,r17,1
 2008438:	80800115 	stw	r2,4(r16)
 200843c:	8463883a 	add	r17,r16,r17
 2008440:	1c400515 	stw	r17,20(r3)
 2008444:	1c400415 	stw	r17,16(r3)
 2008448:	28800054 	ori	r2,r5,1
 200844c:	88800115 	stw	r2,4(r17)
 2008450:	8a400315 	stw	r9,12(r17)
 2008454:	8a400215 	stw	r9,8(r17)
 2008458:	8963883a 	add	r17,r17,r5
 200845c:	89400015 	stw	r5,0(r17)
 2008460:	9009883a 	mov	r4,r18
 2008464:	2012e100 	call	2012e10 <__malloc_unlock>
 2008468:	80800204 	addi	r2,r16,8
 200846c:	003ec306 	br	2007f7c <__reset+0xfdffef7c>
 2008470:	18800117 	ldw	r2,4(r3)
 2008474:	003f1006 	br	20080b8 <__reset+0xfdfff0b8>
 2008478:	63000044 	addi	r12,r12,1
 200847c:	608000cc 	andi	r2,r12,3
 2008480:	52800204 	addi	r10,r10,8
 2008484:	103f241e 	bne	r2,zero,2008118 <__reset+0xfdfff118>
 2008488:	00002106 	br	2008510 <_malloc_r+0x64c>
 200848c:	80800204 	addi	r2,r16,8
 2008490:	84000517 	ldw	r16,20(r16)
 2008494:	143eab1e 	bne	r2,r16,2007f44 <__reset+0xfdffef44>
 2008498:	21000084 	addi	r4,r4,2
 200849c:	003ee606 	br	2008038 <__reset+0xfdfff038>
 20084a0:	80c7883a 	add	r3,r16,r3
 20084a4:	19400117 	ldw	r5,4(r3)
 20084a8:	80800317 	ldw	r2,12(r16)
 20084ac:	81000217 	ldw	r4,8(r16)
 20084b0:	29400054 	ori	r5,r5,1
 20084b4:	19400115 	stw	r5,4(r3)
 20084b8:	20800315 	stw	r2,12(r4)
 20084bc:	11000215 	stw	r4,8(r2)
 20084c0:	9009883a 	mov	r4,r18
 20084c4:	2012e100 	call	2012e10 <__malloc_unlock>
 20084c8:	80800204 	addi	r2,r16,8
 20084cc:	003eab06 	br	2007f7c <__reset+0xfdffef7c>
 20084d0:	210016c4 	addi	r4,r4,91
 20084d4:	210b883a 	add	r5,r4,r4
 20084d8:	003ec106 	br	2007fe0 <__reset+0xfdffefe0>
 20084dc:	100ad1ba 	srli	r5,r2,6
 20084e0:	29400e04 	addi	r5,r5,56
 20084e4:	294d883a 	add	r6,r5,r5
 20084e8:	003fbe06 	br	20083e4 <__reset+0xfdfff3e4>
 20084ec:	84ff5d26 	beq	r16,r19,2008264 <__reset+0xfdfff264>
 20084f0:	9c000217 	ldw	r16,8(r19)
 20084f4:	00bfff04 	movi	r2,-4
 20084f8:	80c00117 	ldw	r3,4(r16)
 20084fc:	1886703a 	and	r3,r3,r2
 2008500:	003f9706 	br	2008360 <__reset+0xfdfff360>
 2008504:	5ac00017 	ldw	r11,0(r11)
 2008508:	213fffc4 	addi	r4,r4,-1
 200850c:	58805c1e 	bne	r11,r2,2008680 <_malloc_r+0x7bc>
 2008510:	20c000cc 	andi	r3,r4,3
 2008514:	58bffe04 	addi	r2,r11,-8
 2008518:	183ffa1e 	bne	r3,zero,2008504 <__reset+0xfdfff504>
 200851c:	98800117 	ldw	r2,4(r19)
 2008520:	0146303a 	nor	r3,zero,r5
 2008524:	1884703a 	and	r2,r3,r2
 2008528:	98800115 	stw	r2,4(r19)
 200852c:	294b883a 	add	r5,r5,r5
 2008530:	117f2e36 	bltu	r2,r5,20081ec <__reset+0xfdfff1ec>
 2008534:	283f2d26 	beq	r5,zero,20081ec <__reset+0xfdfff1ec>
 2008538:	1146703a 	and	r3,r2,r5
 200853c:	6009883a 	mov	r4,r12
 2008540:	183eef1e 	bne	r3,zero,2008100 <__reset+0xfdfff100>
 2008544:	294b883a 	add	r5,r5,r5
 2008548:	1146703a 	and	r3,r2,r5
 200854c:	21000104 	addi	r4,r4,4
 2008550:	183ffc26 	beq	r3,zero,2008544 <__reset+0xfdfff544>
 2008554:	003eea06 	br	2008100 <__reset+0xfdfff100>
 2008558:	00805504 	movi	r2,340
 200855c:	11001336 	bltu	r2,r4,20085ac <_malloc_r+0x6e8>
 2008560:	8808d3fa 	srli	r4,r17,15
 2008564:	21001dc4 	addi	r4,r4,119
 2008568:	210b883a 	add	r5,r4,r4
 200856c:	003e9c06 	br	2007fe0 <__reset+0xfdffefe0>
 2008570:	00840004 	movi	r2,4096
 2008574:	003f4d06 	br	20082ac <__reset+0xfdfff2ac>
 2008578:	00800044 	movi	r2,1
 200857c:	a0800115 	stw	r2,4(r20)
 2008580:	a021883a 	mov	r16,r20
 2008584:	0007883a 	mov	r3,zero
 2008588:	003f7506 	br	2008360 <__reset+0xfdfff360>
 200858c:	280bd0ba 	srai	r5,r5,2
 2008590:	01800044 	movi	r6,1
 2008594:	38800117 	ldw	r2,4(r7)
 2008598:	314c983a 	sll	r6,r6,r5
 200859c:	180b883a 	mov	r5,r3
 20085a0:	3084b03a 	or	r2,r6,r2
 20085a4:	38800115 	stw	r2,4(r7)
 20085a8:	003f9d06 	br	2008420 <__reset+0xfdfff420>
 20085ac:	00815504 	movi	r2,1364
 20085b0:	11001336 	bltu	r2,r4,2008600 <_malloc_r+0x73c>
 20085b4:	8808d4ba 	srli	r4,r17,18
 20085b8:	21001f04 	addi	r4,r4,124
 20085bc:	210b883a 	add	r5,r4,r4
 20085c0:	003e8706 	br	2007fe0 <__reset+0xfdffefe0>
 20085c4:	bdc00404 	addi	r23,r23,16
 20085c8:	003f1d06 	br	2008240 <__reset+0xfdfff240>
 20085cc:	01401504 	movi	r5,84
 20085d0:	28c01c36 	bltu	r5,r3,2008644 <_malloc_r+0x780>
 20085d4:	100ad33a 	srli	r5,r2,12
 20085d8:	29401b84 	addi	r5,r5,110
 20085dc:	294d883a 	add	r6,r5,r5
 20085e0:	003f8006 	br	20083e4 <__reset+0xfdfff3e4>
 20085e4:	e103ffcc 	andi	r4,fp,4095
 20085e8:	203f241e 	bne	r4,zero,200827c <__reset+0xfdfff27c>
 20085ec:	98c00217 	ldw	r3,8(r19)
 20085f0:	bd49883a 	add	r4,r23,r21
 20085f4:	21000054 	ori	r4,r4,1
 20085f8:	19000115 	stw	r4,4(r3)
 20085fc:	003f4a06 	br	2008328 <__reset+0xfdfff328>
 2008600:	01403f04 	movi	r5,252
 2008604:	01001f84 	movi	r4,126
 2008608:	003e7506 	br	2007fe0 <__reset+0xfdffefe0>
 200860c:	00c00044 	movi	r3,1
 2008610:	002f883a 	mov	r23,zero
 2008614:	003f3006 	br	20082d8 <__reset+0xfdfff2d8>
 2008618:	008080b4 	movhi	r2,514
 200861c:	10836204 	addi	r2,r2,3464
 2008620:	15000015 	stw	r20,0(r2)
 2008624:	003f1b06 	br	2008294 <__reset+0xfdfff294>
 2008628:	9009883a 	mov	r4,r18
 200862c:	81400204 	addi	r5,r16,8
 2008630:	2007a6c0 	call	2007a6c <_free_r>
 2008634:	008080b4 	movhi	r2,514
 2008638:	10838404 	addi	r2,r2,3600
 200863c:	10800017 	ldw	r2,0(r2)
 2008640:	003f3906 	br	2008328 <__reset+0xfdfff328>
 2008644:	01405504 	movi	r5,340
 2008648:	28c00436 	bltu	r5,r3,200865c <_malloc_r+0x798>
 200864c:	100ad3fa 	srli	r5,r2,15
 2008650:	29401dc4 	addi	r5,r5,119
 2008654:	294d883a 	add	r6,r5,r5
 2008658:	003f6206 	br	20083e4 <__reset+0xfdfff3e4>
 200865c:	01415504 	movi	r5,1364
 2008660:	28c00436 	bltu	r5,r3,2008674 <_malloc_r+0x7b0>
 2008664:	100ad4ba 	srli	r5,r2,18
 2008668:	29401f04 	addi	r5,r5,124
 200866c:	294d883a 	add	r6,r5,r5
 2008670:	003f5c06 	br	20083e4 <__reset+0xfdfff3e4>
 2008674:	01803f04 	movi	r6,252
 2008678:	01401f84 	movi	r5,126
 200867c:	003f5906 	br	20083e4 <__reset+0xfdfff3e4>
 2008680:	98800117 	ldw	r2,4(r19)
 2008684:	003fa906 	br	200852c <__reset+0xfdfff52c>

02008688 <memcmp>:
 2008688:	01c000c4 	movi	r7,3
 200868c:	3980192e 	bgeu	r7,r6,20086f4 <memcmp+0x6c>
 2008690:	2144b03a 	or	r2,r4,r5
 2008694:	11c4703a 	and	r2,r2,r7
 2008698:	10000f26 	beq	r2,zero,20086d8 <memcmp+0x50>
 200869c:	21c00003 	ldbu	r7,0(r4)
 20086a0:	28800003 	ldbu	r2,0(r5)
 20086a4:	3880151e 	bne	r7,r2,20086fc <memcmp+0x74>
 20086a8:	30ffff84 	addi	r3,r6,-2
 20086ac:	01bfffc4 	movi	r6,-1
 20086b0:	00000406 	br	20086c4 <memcmp+0x3c>
 20086b4:	21c00003 	ldbu	r7,0(r4)
 20086b8:	28800003 	ldbu	r2,0(r5)
 20086bc:	18ffffc4 	addi	r3,r3,-1
 20086c0:	38800e1e 	bne	r7,r2,20086fc <memcmp+0x74>
 20086c4:	21000044 	addi	r4,r4,1
 20086c8:	29400044 	addi	r5,r5,1
 20086cc:	19bff91e 	bne	r3,r6,20086b4 <__reset+0xfdfff6b4>
 20086d0:	0005883a 	mov	r2,zero
 20086d4:	f800283a 	ret
 20086d8:	20c00017 	ldw	r3,0(r4)
 20086dc:	28800017 	ldw	r2,0(r5)
 20086e0:	1880041e 	bne	r3,r2,20086f4 <memcmp+0x6c>
 20086e4:	31bfff04 	addi	r6,r6,-4
 20086e8:	21000104 	addi	r4,r4,4
 20086ec:	29400104 	addi	r5,r5,4
 20086f0:	39bff936 	bltu	r7,r6,20086d8 <__reset+0xfdfff6d8>
 20086f4:	303fe91e 	bne	r6,zero,200869c <__reset+0xfdfff69c>
 20086f8:	003ff506 	br	20086d0 <__reset+0xfdfff6d0>
 20086fc:	3885c83a 	sub	r2,r7,r2
 2008700:	f800283a 	ret

02008704 <memcpy>:
 2008704:	00c003c4 	movi	r3,15
 2008708:	2005883a 	mov	r2,r4
 200870c:	1980372e 	bgeu	r3,r6,20087ec <memcpy+0xe8>
 2008710:	2146b03a 	or	r3,r4,r5
 2008714:	18c000cc 	andi	r3,r3,3
 2008718:	1800371e 	bne	r3,zero,20087f8 <memcpy+0xf4>
 200871c:	327ffc04 	addi	r9,r6,-16
 2008720:	4812d13a 	srli	r9,r9,4
 2008724:	2007883a 	mov	r3,r4
 2008728:	280f883a 	mov	r7,r5
 200872c:	4808913a 	slli	r4,r9,4
 2008730:	1109883a 	add	r4,r2,r4
 2008734:	21000404 	addi	r4,r4,16
 2008738:	3a000017 	ldw	r8,0(r7)
 200873c:	18c00404 	addi	r3,r3,16
 2008740:	39c00404 	addi	r7,r7,16
 2008744:	1a3ffc15 	stw	r8,-16(r3)
 2008748:	3a3ffd17 	ldw	r8,-12(r7)
 200874c:	1a3ffd15 	stw	r8,-12(r3)
 2008750:	3a3ffe17 	ldw	r8,-8(r7)
 2008754:	1a3ffe15 	stw	r8,-8(r3)
 2008758:	3a3fff17 	ldw	r8,-4(r7)
 200875c:	1a3fff15 	stw	r8,-4(r3)
 2008760:	193ff51e 	bne	r3,r4,2008738 <__reset+0xfdfff738>
 2008764:	49000044 	addi	r4,r9,1
 2008768:	2008913a 	slli	r4,r4,4
 200876c:	328003cc 	andi	r10,r6,15
 2008770:	1107883a 	add	r3,r2,r4
 2008774:	290b883a 	add	r5,r5,r4
 2008778:	010000c4 	movi	r4,3
 200877c:	2280212e 	bgeu	r4,r10,2008804 <memcpy+0x100>
 2008780:	52bfff04 	addi	r10,r10,-4
 2008784:	5014d0ba 	srli	r10,r10,2
 2008788:	180f883a 	mov	r7,r3
 200878c:	2811883a 	mov	r8,r5
 2008790:	5289883a 	add	r4,r10,r10
 2008794:	2109883a 	add	r4,r4,r4
 2008798:	21000104 	addi	r4,r4,4
 200879c:	1909883a 	add	r4,r3,r4
 20087a0:	42400017 	ldw	r9,0(r8)
 20087a4:	39c00104 	addi	r7,r7,4
 20087a8:	42000104 	addi	r8,r8,4
 20087ac:	3a7fff15 	stw	r9,-4(r7)
 20087b0:	393ffb1e 	bne	r7,r4,20087a0 <__reset+0xfdfff7a0>
 20087b4:	51000044 	addi	r4,r10,1
 20087b8:	2109883a 	add	r4,r4,r4
 20087bc:	2109883a 	add	r4,r4,r4
 20087c0:	318000cc 	andi	r6,r6,3
 20087c4:	1907883a 	add	r3,r3,r4
 20087c8:	290b883a 	add	r5,r5,r4
 20087cc:	30000c26 	beq	r6,zero,2008800 <memcpy+0xfc>
 20087d0:	298d883a 	add	r6,r5,r6
 20087d4:	29c00003 	ldbu	r7,0(r5)
 20087d8:	18c00044 	addi	r3,r3,1
 20087dc:	29400044 	addi	r5,r5,1
 20087e0:	19ffffc5 	stb	r7,-1(r3)
 20087e4:	29bffb1e 	bne	r5,r6,20087d4 <__reset+0xfdfff7d4>
 20087e8:	f800283a 	ret
 20087ec:	2007883a 	mov	r3,r4
 20087f0:	303ff71e 	bne	r6,zero,20087d0 <__reset+0xfdfff7d0>
 20087f4:	00000206 	br	2008800 <memcpy+0xfc>
 20087f8:	2007883a 	mov	r3,r4
 20087fc:	003ff406 	br	20087d0 <__reset+0xfdfff7d0>
 2008800:	f800283a 	ret
 2008804:	500d883a 	mov	r6,r10
 2008808:	303ff11e 	bne	r6,zero,20087d0 <__reset+0xfdfff7d0>
 200880c:	003ffc06 	br	2008800 <__reset+0xfdfff800>

02008810 <memset>:
 2008810:	20c000cc 	andi	r3,r4,3
 2008814:	2005883a 	mov	r2,r4
 2008818:	18003f26 	beq	r3,zero,2008918 <memset+0x108>
 200881c:	31ffffc4 	addi	r7,r6,-1
 2008820:	30003b26 	beq	r6,zero,2008910 <memset+0x100>
 2008824:	2813883a 	mov	r9,r5
 2008828:	200d883a 	mov	r6,r4
 200882c:	2007883a 	mov	r3,r4
 2008830:	00000406 	br	2008844 <memset+0x34>
 2008834:	3a3fffc4 	addi	r8,r7,-1
 2008838:	31800044 	addi	r6,r6,1
 200883c:	38003426 	beq	r7,zero,2008910 <memset+0x100>
 2008840:	400f883a 	mov	r7,r8
 2008844:	18c00044 	addi	r3,r3,1
 2008848:	32400005 	stb	r9,0(r6)
 200884c:	1a0000cc 	andi	r8,r3,3
 2008850:	403ff81e 	bne	r8,zero,2008834 <__reset+0xfdfff834>
 2008854:	010000c4 	movi	r4,3
 2008858:	21c0282e 	bgeu	r4,r7,20088fc <memset+0xec>
 200885c:	29003fcc 	andi	r4,r5,255
 2008860:	2010923a 	slli	r8,r4,8
 2008864:	4108b03a 	or	r4,r8,r4
 2008868:	2010943a 	slli	r8,r4,16
 200886c:	4110b03a 	or	r8,r8,r4
 2008870:	010003c4 	movi	r4,15
 2008874:	21c0122e 	bgeu	r4,r7,20088c0 <memset+0xb0>
 2008878:	3a7ffc04 	addi	r9,r7,-16
 200887c:	4812d13a 	srli	r9,r9,4
 2008880:	19000404 	addi	r4,r3,16
 2008884:	180d883a 	mov	r6,r3
 2008888:	4814913a 	slli	r10,r9,4
 200888c:	2289883a 	add	r4,r4,r10
 2008890:	32000015 	stw	r8,0(r6)
 2008894:	32000115 	stw	r8,4(r6)
 2008898:	32000215 	stw	r8,8(r6)
 200889c:	32000315 	stw	r8,12(r6)
 20088a0:	31800404 	addi	r6,r6,16
 20088a4:	313ffa1e 	bne	r6,r4,2008890 <__reset+0xfdfff890>
 20088a8:	4a400044 	addi	r9,r9,1
 20088ac:	4812913a 	slli	r9,r9,4
 20088b0:	39c003cc 	andi	r7,r7,15
 20088b4:	010000c4 	movi	r4,3
 20088b8:	1a47883a 	add	r3,r3,r9
 20088bc:	21c00f2e 	bgeu	r4,r7,20088fc <memset+0xec>
 20088c0:	3a7fff04 	addi	r9,r7,-4
 20088c4:	4812d0ba 	srli	r9,r9,2
 20088c8:	19000104 	addi	r4,r3,4
 20088cc:	180d883a 	mov	r6,r3
 20088d0:	4a55883a 	add	r10,r9,r9
 20088d4:	5295883a 	add	r10,r10,r10
 20088d8:	2289883a 	add	r4,r4,r10
 20088dc:	32000015 	stw	r8,0(r6)
 20088e0:	31800104 	addi	r6,r6,4
 20088e4:	313ffd1e 	bne	r6,r4,20088dc <__reset+0xfdfff8dc>
 20088e8:	4a400044 	addi	r9,r9,1
 20088ec:	4a53883a 	add	r9,r9,r9
 20088f0:	4a53883a 	add	r9,r9,r9
 20088f4:	1a47883a 	add	r3,r3,r9
 20088f8:	39c000cc 	andi	r7,r7,3
 20088fc:	38000526 	beq	r7,zero,2008914 <memset+0x104>
 2008900:	19cf883a 	add	r7,r3,r7
 2008904:	19400005 	stb	r5,0(r3)
 2008908:	18c00044 	addi	r3,r3,1
 200890c:	19fffd1e 	bne	r3,r7,2008904 <__reset+0xfdfff904>
 2008910:	f800283a 	ret
 2008914:	f800283a 	ret
 2008918:	2007883a 	mov	r3,r4
 200891c:	300f883a 	mov	r7,r6
 2008920:	003fcc06 	br	2008854 <__reset+0xfdfff854>

02008924 <_printf_r>:
 2008924:	defffd04 	addi	sp,sp,-12
 2008928:	dfc00015 	stw	ra,0(sp)
 200892c:	d9800115 	stw	r6,4(sp)
 2008930:	d9c00215 	stw	r7,8(sp)
 2008934:	280d883a 	mov	r6,r5
 2008938:	21400217 	ldw	r5,8(r4)
 200893c:	d9c00104 	addi	r7,sp,4
 2008940:	200939c0 	call	200939c <___vfprintf_internal_r>
 2008944:	dfc00017 	ldw	ra,0(sp)
 2008948:	dec00304 	addi	sp,sp,12
 200894c:	f800283a 	ret

02008950 <printf>:
 2008950:	defffc04 	addi	sp,sp,-16
 2008954:	dfc00015 	stw	ra,0(sp)
 2008958:	d9400115 	stw	r5,4(sp)
 200895c:	d9800215 	stw	r6,8(sp)
 2008960:	d9c00315 	stw	r7,12(sp)
 2008964:	008080b4 	movhi	r2,514
 2008968:	10836104 	addi	r2,r2,3460
 200896c:	10800017 	ldw	r2,0(r2)
 2008970:	200b883a 	mov	r5,r4
 2008974:	d9800104 	addi	r6,sp,4
 2008978:	11000217 	ldw	r4,8(r2)
 200897c:	200b4f00 	call	200b4f0 <__vfprintf_internal>
 2008980:	dfc00017 	ldw	ra,0(sp)
 2008984:	dec00404 	addi	sp,sp,16
 2008988:	f800283a 	ret

0200898c <realloc>:
 200898c:	00c080b4 	movhi	r3,514
 2008990:	18c36104 	addi	r3,r3,3460
 2008994:	2005883a 	mov	r2,r4
 2008998:	19000017 	ldw	r4,0(r3)
 200899c:	280d883a 	mov	r6,r5
 20089a0:	100b883a 	mov	r5,r2
 20089a4:	20089a81 	jmpi	20089a8 <_realloc_r>

020089a8 <_realloc_r>:
 20089a8:	defff604 	addi	sp,sp,-40
 20089ac:	dd000415 	stw	r20,16(sp)
 20089b0:	dc000015 	stw	r16,0(sp)
 20089b4:	dfc00915 	stw	ra,36(sp)
 20089b8:	df000815 	stw	fp,32(sp)
 20089bc:	ddc00715 	stw	r23,28(sp)
 20089c0:	dd800615 	stw	r22,24(sp)
 20089c4:	dd400515 	stw	r21,20(sp)
 20089c8:	dcc00315 	stw	r19,12(sp)
 20089cc:	dc800215 	stw	r18,8(sp)
 20089d0:	dc400115 	stw	r17,4(sp)
 20089d4:	2821883a 	mov	r16,r5
 20089d8:	3029883a 	mov	r20,r6
 20089dc:	28009a26 	beq	r5,zero,2008c48 <_realloc_r+0x2a0>
 20089e0:	202b883a 	mov	r21,r4
 20089e4:	2012df00 	call	2012df0 <__malloc_lock>
 20089e8:	80ffff17 	ldw	r3,-4(r16)
 20089ec:	047fff04 	movi	r17,-4
 20089f0:	a08002c4 	addi	r2,r20,11
 20089f4:	01000584 	movi	r4,22
 20089f8:	84fffe04 	addi	r19,r16,-8
 20089fc:	1c62703a 	and	r17,r3,r17
 2008a00:	2080372e 	bgeu	r4,r2,2008ae0 <_realloc_r+0x138>
 2008a04:	04bffe04 	movi	r18,-8
 2008a08:	14a4703a 	and	r18,r2,r18
 2008a0c:	9005883a 	mov	r2,r18
 2008a10:	90005b16 	blt	r18,zero,2008b80 <_realloc_r+0x1d8>
 2008a14:	95005a36 	bltu	r18,r20,2008b80 <_realloc_r+0x1d8>
 2008a18:	8880340e 	bge	r17,r2,2008aec <_realloc_r+0x144>
 2008a1c:	05c080b4 	movhi	r23,514
 2008a20:	bdfd5904 	addi	r23,r23,-2716
 2008a24:	b9000217 	ldw	r4,8(r23)
 2008a28:	9c4b883a 	add	r5,r19,r17
 2008a2c:	21409626 	beq	r4,r5,2008c88 <_realloc_r+0x2e0>
 2008a30:	29800117 	ldw	r6,4(r5)
 2008a34:	01ffff84 	movi	r7,-2
 2008a38:	31ce703a 	and	r7,r6,r7
 2008a3c:	29cf883a 	add	r7,r5,r7
 2008a40:	39c00117 	ldw	r7,4(r7)
 2008a44:	39c0004c 	andi	r7,r7,1
 2008a48:	38004226 	beq	r7,zero,2008b54 <_realloc_r+0x1ac>
 2008a4c:	000d883a 	mov	r6,zero
 2008a50:	000b883a 	mov	r5,zero
 2008a54:	18c0004c 	andi	r3,r3,1
 2008a58:	18005c1e 	bne	r3,zero,2008bcc <_realloc_r+0x224>
 2008a5c:	85bffe17 	ldw	r22,-8(r16)
 2008a60:	00ffff04 	movi	r3,-4
 2008a64:	9dadc83a 	sub	r22,r19,r22
 2008a68:	b1c00117 	ldw	r7,4(r22)
 2008a6c:	38c6703a 	and	r3,r7,r3
 2008a70:	28005426 	beq	r5,zero,2008bc4 <_realloc_r+0x21c>
 2008a74:	1c47883a 	add	r3,r3,r17
 2008a78:	2900bf26 	beq	r5,r4,2008d78 <_realloc_r+0x3d0>
 2008a7c:	30ef883a 	add	r23,r6,r3
 2008a80:	b8807e16 	blt	r23,r2,2008c7c <_realloc_r+0x2d4>
 2008a84:	28800317 	ldw	r2,12(r5)
 2008a88:	28c00217 	ldw	r3,8(r5)
 2008a8c:	89bfff04 	addi	r6,r17,-4
 2008a90:	01000904 	movi	r4,36
 2008a94:	18800315 	stw	r2,12(r3)
 2008a98:	10c00215 	stw	r3,8(r2)
 2008a9c:	b1400217 	ldw	r5,8(r22)
 2008aa0:	b0c00317 	ldw	r3,12(r22)
 2008aa4:	b5000204 	addi	r20,r22,8
 2008aa8:	28c00315 	stw	r3,12(r5)
 2008aac:	19400215 	stw	r5,8(r3)
 2008ab0:	21808536 	bltu	r4,r6,2008cc8 <_realloc_r+0x320>
 2008ab4:	008004c4 	movi	r2,19
 2008ab8:	1180932e 	bgeu	r2,r6,2008d08 <_realloc_r+0x360>
 2008abc:	80800017 	ldw	r2,0(r16)
 2008ac0:	b0800215 	stw	r2,8(r22)
 2008ac4:	80800117 	ldw	r2,4(r16)
 2008ac8:	b0800315 	stw	r2,12(r22)
 2008acc:	008006c4 	movi	r2,27
 2008ad0:	1180df36 	bltu	r2,r6,2008e50 <_realloc_r+0x4a8>
 2008ad4:	b0c00404 	addi	r3,r22,16
 2008ad8:	84000204 	addi	r16,r16,8
 2008adc:	00008b06 	br	2008d0c <_realloc_r+0x364>
 2008ae0:	00800404 	movi	r2,16
 2008ae4:	1025883a 	mov	r18,r2
 2008ae8:	003fca06 	br	2008a14 <__reset+0xfdfffa14>
 2008aec:	8029883a 	mov	r20,r16
 2008af0:	8c8dc83a 	sub	r6,r17,r18
 2008af4:	008003c4 	movi	r2,15
 2008af8:	18c0004c 	andi	r3,r3,1
 2008afc:	11802436 	bltu	r2,r6,2008b90 <_realloc_r+0x1e8>
 2008b00:	1c46b03a 	or	r3,r3,r17
 2008b04:	98c00115 	stw	r3,4(r19)
 2008b08:	9c63883a 	add	r17,r19,r17
 2008b0c:	88800117 	ldw	r2,4(r17)
 2008b10:	10800054 	ori	r2,r2,1
 2008b14:	88800115 	stw	r2,4(r17)
 2008b18:	a809883a 	mov	r4,r21
 2008b1c:	2012e100 	call	2012e10 <__malloc_unlock>
 2008b20:	a005883a 	mov	r2,r20
 2008b24:	dfc00917 	ldw	ra,36(sp)
 2008b28:	df000817 	ldw	fp,32(sp)
 2008b2c:	ddc00717 	ldw	r23,28(sp)
 2008b30:	dd800617 	ldw	r22,24(sp)
 2008b34:	dd400517 	ldw	r21,20(sp)
 2008b38:	dd000417 	ldw	r20,16(sp)
 2008b3c:	dcc00317 	ldw	r19,12(sp)
 2008b40:	dc800217 	ldw	r18,8(sp)
 2008b44:	dc400117 	ldw	r17,4(sp)
 2008b48:	dc000017 	ldw	r16,0(sp)
 2008b4c:	dec00a04 	addi	sp,sp,40
 2008b50:	f800283a 	ret
 2008b54:	01ffff04 	movi	r7,-4
 2008b58:	31cc703a 	and	r6,r6,r7
 2008b5c:	344f883a 	add	r7,r6,r17
 2008b60:	38bfbc16 	blt	r7,r2,2008a54 <__reset+0xfdfffa54>
 2008b64:	28800317 	ldw	r2,12(r5)
 2008b68:	29000217 	ldw	r4,8(r5)
 2008b6c:	8029883a 	mov	r20,r16
 2008b70:	3823883a 	mov	r17,r7
 2008b74:	20800315 	stw	r2,12(r4)
 2008b78:	11000215 	stw	r4,8(r2)
 2008b7c:	003fdc06 	br	2008af0 <__reset+0xfdfffaf0>
 2008b80:	00800304 	movi	r2,12
 2008b84:	a8800015 	stw	r2,0(r21)
 2008b88:	0005883a 	mov	r2,zero
 2008b8c:	003fe506 	br	2008b24 <__reset+0xfdfffb24>
 2008b90:	1c86b03a 	or	r3,r3,r18
 2008b94:	9c8b883a 	add	r5,r19,r18
 2008b98:	98c00115 	stw	r3,4(r19)
 2008b9c:	30800054 	ori	r2,r6,1
 2008ba0:	28800115 	stw	r2,4(r5)
 2008ba4:	298d883a 	add	r6,r5,r6
 2008ba8:	30800117 	ldw	r2,4(r6)
 2008bac:	a809883a 	mov	r4,r21
 2008bb0:	29400204 	addi	r5,r5,8
 2008bb4:	10800054 	ori	r2,r2,1
 2008bb8:	30800115 	stw	r2,4(r6)
 2008bbc:	2007a6c0 	call	2007a6c <_free_r>
 2008bc0:	003fd506 	br	2008b18 <__reset+0xfdfffb18>
 2008bc4:	1c6f883a 	add	r23,r3,r17
 2008bc8:	b880370e 	bge	r23,r2,2008ca8 <_realloc_r+0x300>
 2008bcc:	a00b883a 	mov	r5,r20
 2008bd0:	a809883a 	mov	r4,r21
 2008bd4:	2007ec40 	call	2007ec4 <_malloc_r>
 2008bd8:	1029883a 	mov	r20,r2
 2008bdc:	1000c026 	beq	r2,zero,2008ee0 <_realloc_r+0x538>
 2008be0:	80ffff17 	ldw	r3,-4(r16)
 2008be4:	113ffe04 	addi	r4,r2,-8
 2008be8:	00bfff84 	movi	r2,-2
 2008bec:	1884703a 	and	r2,r3,r2
 2008bf0:	9885883a 	add	r2,r19,r2
 2008bf4:	20809026 	beq	r4,r2,2008e38 <_realloc_r+0x490>
 2008bf8:	89bfff04 	addi	r6,r17,-4
 2008bfc:	00800904 	movi	r2,36
 2008c00:	11805936 	bltu	r2,r6,2008d68 <_realloc_r+0x3c0>
 2008c04:	00c004c4 	movi	r3,19
 2008c08:	19803636 	bltu	r3,r6,2008ce4 <_realloc_r+0x33c>
 2008c0c:	a005883a 	mov	r2,r20
 2008c10:	8007883a 	mov	r3,r16
 2008c14:	19000017 	ldw	r4,0(r3)
 2008c18:	11000015 	stw	r4,0(r2)
 2008c1c:	19000117 	ldw	r4,4(r3)
 2008c20:	11000115 	stw	r4,4(r2)
 2008c24:	18c00217 	ldw	r3,8(r3)
 2008c28:	10c00215 	stw	r3,8(r2)
 2008c2c:	800b883a 	mov	r5,r16
 2008c30:	a809883a 	mov	r4,r21
 2008c34:	2007a6c0 	call	2007a6c <_free_r>
 2008c38:	a809883a 	mov	r4,r21
 2008c3c:	2012e100 	call	2012e10 <__malloc_unlock>
 2008c40:	a005883a 	mov	r2,r20
 2008c44:	003fb706 	br	2008b24 <__reset+0xfdfffb24>
 2008c48:	300b883a 	mov	r5,r6
 2008c4c:	dfc00917 	ldw	ra,36(sp)
 2008c50:	df000817 	ldw	fp,32(sp)
 2008c54:	ddc00717 	ldw	r23,28(sp)
 2008c58:	dd800617 	ldw	r22,24(sp)
 2008c5c:	dd400517 	ldw	r21,20(sp)
 2008c60:	dd000417 	ldw	r20,16(sp)
 2008c64:	dcc00317 	ldw	r19,12(sp)
 2008c68:	dc800217 	ldw	r18,8(sp)
 2008c6c:	dc400117 	ldw	r17,4(sp)
 2008c70:	dc000017 	ldw	r16,0(sp)
 2008c74:	dec00a04 	addi	sp,sp,40
 2008c78:	2007ec41 	jmpi	2007ec4 <_malloc_r>
 2008c7c:	182f883a 	mov	r23,r3
 2008c80:	b8bfd216 	blt	r23,r2,2008bcc <__reset+0xfdfffbcc>
 2008c84:	00000806 	br	2008ca8 <_realloc_r+0x300>
 2008c88:	21800117 	ldw	r6,4(r4)
 2008c8c:	017fff04 	movi	r5,-4
 2008c90:	91c00404 	addi	r7,r18,16
 2008c94:	314c703a 	and	r6,r6,r5
 2008c98:	344b883a 	add	r5,r6,r17
 2008c9c:	29c0250e 	bge	r5,r7,2008d34 <_realloc_r+0x38c>
 2008ca0:	200b883a 	mov	r5,r4
 2008ca4:	003f6b06 	br	2008a54 <__reset+0xfdfffa54>
 2008ca8:	b0800317 	ldw	r2,12(r22)
 2008cac:	b0c00217 	ldw	r3,8(r22)
 2008cb0:	89bfff04 	addi	r6,r17,-4
 2008cb4:	01000904 	movi	r4,36
 2008cb8:	18800315 	stw	r2,12(r3)
 2008cbc:	10c00215 	stw	r3,8(r2)
 2008cc0:	b5000204 	addi	r20,r22,8
 2008cc4:	21bf7b2e 	bgeu	r4,r6,2008ab4 <__reset+0xfdfffab4>
 2008cc8:	a009883a 	mov	r4,r20
 2008ccc:	800b883a 	mov	r5,r16
 2008cd0:	200d35c0 	call	200d35c <memmove>
 2008cd4:	b0c00117 	ldw	r3,4(r22)
 2008cd8:	b823883a 	mov	r17,r23
 2008cdc:	b027883a 	mov	r19,r22
 2008ce0:	003f8306 	br	2008af0 <__reset+0xfdfffaf0>
 2008ce4:	80c00017 	ldw	r3,0(r16)
 2008ce8:	a0c00015 	stw	r3,0(r20)
 2008cec:	80c00117 	ldw	r3,4(r16)
 2008cf0:	a0c00115 	stw	r3,4(r20)
 2008cf4:	00c006c4 	movi	r3,27
 2008cf8:	19804736 	bltu	r3,r6,2008e18 <_realloc_r+0x470>
 2008cfc:	a0800204 	addi	r2,r20,8
 2008d00:	80c00204 	addi	r3,r16,8
 2008d04:	003fc306 	br	2008c14 <__reset+0xfdfffc14>
 2008d08:	a007883a 	mov	r3,r20
 2008d0c:	80800017 	ldw	r2,0(r16)
 2008d10:	b823883a 	mov	r17,r23
 2008d14:	b027883a 	mov	r19,r22
 2008d18:	18800015 	stw	r2,0(r3)
 2008d1c:	80800117 	ldw	r2,4(r16)
 2008d20:	18800115 	stw	r2,4(r3)
 2008d24:	80800217 	ldw	r2,8(r16)
 2008d28:	18800215 	stw	r2,8(r3)
 2008d2c:	b0c00117 	ldw	r3,4(r22)
 2008d30:	003f6f06 	br	2008af0 <__reset+0xfdfffaf0>
 2008d34:	9ca7883a 	add	r19,r19,r18
 2008d38:	2c85c83a 	sub	r2,r5,r18
 2008d3c:	bcc00215 	stw	r19,8(r23)
 2008d40:	10800054 	ori	r2,r2,1
 2008d44:	98800115 	stw	r2,4(r19)
 2008d48:	80bfff17 	ldw	r2,-4(r16)
 2008d4c:	a809883a 	mov	r4,r21
 2008d50:	1080004c 	andi	r2,r2,1
 2008d54:	90a4b03a 	or	r18,r18,r2
 2008d58:	84bfff15 	stw	r18,-4(r16)
 2008d5c:	2012e100 	call	2012e10 <__malloc_unlock>
 2008d60:	8005883a 	mov	r2,r16
 2008d64:	003f6f06 	br	2008b24 <__reset+0xfdfffb24>
 2008d68:	a009883a 	mov	r4,r20
 2008d6c:	800b883a 	mov	r5,r16
 2008d70:	200d35c0 	call	200d35c <memmove>
 2008d74:	003fad06 	br	2008c2c <__reset+0xfdfffc2c>
 2008d78:	30f9883a 	add	fp,r6,r3
 2008d7c:	91000404 	addi	r4,r18,16
 2008d80:	e13fbe16 	blt	fp,r4,2008c7c <__reset+0xfdfffc7c>
 2008d84:	b0800317 	ldw	r2,12(r22)
 2008d88:	b0c00217 	ldw	r3,8(r22)
 2008d8c:	89bfff04 	addi	r6,r17,-4
 2008d90:	01000904 	movi	r4,36
 2008d94:	18800315 	stw	r2,12(r3)
 2008d98:	10c00215 	stw	r3,8(r2)
 2008d9c:	b4400204 	addi	r17,r22,8
 2008da0:	21804336 	bltu	r4,r6,2008eb0 <_realloc_r+0x508>
 2008da4:	008004c4 	movi	r2,19
 2008da8:	11803f2e 	bgeu	r2,r6,2008ea8 <_realloc_r+0x500>
 2008dac:	80800017 	ldw	r2,0(r16)
 2008db0:	b0800215 	stw	r2,8(r22)
 2008db4:	80800117 	ldw	r2,4(r16)
 2008db8:	b0800315 	stw	r2,12(r22)
 2008dbc:	008006c4 	movi	r2,27
 2008dc0:	11803f36 	bltu	r2,r6,2008ec0 <_realloc_r+0x518>
 2008dc4:	b0c00404 	addi	r3,r22,16
 2008dc8:	84000204 	addi	r16,r16,8
 2008dcc:	80800017 	ldw	r2,0(r16)
 2008dd0:	18800015 	stw	r2,0(r3)
 2008dd4:	80800117 	ldw	r2,4(r16)
 2008dd8:	18800115 	stw	r2,4(r3)
 2008ddc:	80800217 	ldw	r2,8(r16)
 2008de0:	18800215 	stw	r2,8(r3)
 2008de4:	b487883a 	add	r3,r22,r18
 2008de8:	e485c83a 	sub	r2,fp,r18
 2008dec:	b8c00215 	stw	r3,8(r23)
 2008df0:	10800054 	ori	r2,r2,1
 2008df4:	18800115 	stw	r2,4(r3)
 2008df8:	b0800117 	ldw	r2,4(r22)
 2008dfc:	a809883a 	mov	r4,r21
 2008e00:	1080004c 	andi	r2,r2,1
 2008e04:	90a4b03a 	or	r18,r18,r2
 2008e08:	b4800115 	stw	r18,4(r22)
 2008e0c:	2012e100 	call	2012e10 <__malloc_unlock>
 2008e10:	8805883a 	mov	r2,r17
 2008e14:	003f4306 	br	2008b24 <__reset+0xfdfffb24>
 2008e18:	80c00217 	ldw	r3,8(r16)
 2008e1c:	a0c00215 	stw	r3,8(r20)
 2008e20:	80c00317 	ldw	r3,12(r16)
 2008e24:	a0c00315 	stw	r3,12(r20)
 2008e28:	30801126 	beq	r6,r2,2008e70 <_realloc_r+0x4c8>
 2008e2c:	a0800404 	addi	r2,r20,16
 2008e30:	80c00404 	addi	r3,r16,16
 2008e34:	003f7706 	br	2008c14 <__reset+0xfdfffc14>
 2008e38:	a13fff17 	ldw	r4,-4(r20)
 2008e3c:	00bfff04 	movi	r2,-4
 2008e40:	8029883a 	mov	r20,r16
 2008e44:	2084703a 	and	r2,r4,r2
 2008e48:	88a3883a 	add	r17,r17,r2
 2008e4c:	003f2806 	br	2008af0 <__reset+0xfdfffaf0>
 2008e50:	80800217 	ldw	r2,8(r16)
 2008e54:	b0800415 	stw	r2,16(r22)
 2008e58:	80800317 	ldw	r2,12(r16)
 2008e5c:	b0800515 	stw	r2,20(r22)
 2008e60:	31000a26 	beq	r6,r4,2008e8c <_realloc_r+0x4e4>
 2008e64:	b0c00604 	addi	r3,r22,24
 2008e68:	84000404 	addi	r16,r16,16
 2008e6c:	003fa706 	br	2008d0c <__reset+0xfdfffd0c>
 2008e70:	81000417 	ldw	r4,16(r16)
 2008e74:	a0800604 	addi	r2,r20,24
 2008e78:	80c00604 	addi	r3,r16,24
 2008e7c:	a1000415 	stw	r4,16(r20)
 2008e80:	81000517 	ldw	r4,20(r16)
 2008e84:	a1000515 	stw	r4,20(r20)
 2008e88:	003f6206 	br	2008c14 <__reset+0xfdfffc14>
 2008e8c:	80800417 	ldw	r2,16(r16)
 2008e90:	84000604 	addi	r16,r16,24
 2008e94:	b0c00804 	addi	r3,r22,32
 2008e98:	b0800615 	stw	r2,24(r22)
 2008e9c:	80bfff17 	ldw	r2,-4(r16)
 2008ea0:	b0800715 	stw	r2,28(r22)
 2008ea4:	003f9906 	br	2008d0c <__reset+0xfdfffd0c>
 2008ea8:	8807883a 	mov	r3,r17
 2008eac:	003fc706 	br	2008dcc <__reset+0xfdfffdcc>
 2008eb0:	8809883a 	mov	r4,r17
 2008eb4:	800b883a 	mov	r5,r16
 2008eb8:	200d35c0 	call	200d35c <memmove>
 2008ebc:	003fc906 	br	2008de4 <__reset+0xfdfffde4>
 2008ec0:	80800217 	ldw	r2,8(r16)
 2008ec4:	b0800415 	stw	r2,16(r22)
 2008ec8:	80800317 	ldw	r2,12(r16)
 2008ecc:	b0800515 	stw	r2,20(r22)
 2008ed0:	31000726 	beq	r6,r4,2008ef0 <_realloc_r+0x548>
 2008ed4:	b0c00604 	addi	r3,r22,24
 2008ed8:	84000404 	addi	r16,r16,16
 2008edc:	003fbb06 	br	2008dcc <__reset+0xfdfffdcc>
 2008ee0:	a809883a 	mov	r4,r21
 2008ee4:	2012e100 	call	2012e10 <__malloc_unlock>
 2008ee8:	0005883a 	mov	r2,zero
 2008eec:	003f0d06 	br	2008b24 <__reset+0xfdfffb24>
 2008ef0:	80800417 	ldw	r2,16(r16)
 2008ef4:	84000604 	addi	r16,r16,24
 2008ef8:	b0c00804 	addi	r3,r22,32
 2008efc:	b0800615 	stw	r2,24(r22)
 2008f00:	80bfff17 	ldw	r2,-4(r16)
 2008f04:	b0800715 	stw	r2,28(r22)
 2008f08:	003fb006 	br	2008dcc <__reset+0xfdfffdcc>

02008f0c <lflush>:
 2008f0c:	20c0030b 	ldhu	r3,12(r4)
 2008f10:	00800244 	movi	r2,9
 2008f14:	18c0024c 	andi	r3,r3,9
 2008f18:	18800226 	beq	r3,r2,2008f24 <lflush+0x18>
 2008f1c:	0005883a 	mov	r2,zero
 2008f20:	f800283a 	ret
 2008f24:	20072341 	jmpi	2007234 <fflush>

02008f28 <__srefill_r>:
 2008f28:	defffd04 	addi	sp,sp,-12
 2008f2c:	dc400115 	stw	r17,4(sp)
 2008f30:	dc000015 	stw	r16,0(sp)
 2008f34:	dfc00215 	stw	ra,8(sp)
 2008f38:	2023883a 	mov	r17,r4
 2008f3c:	2821883a 	mov	r16,r5
 2008f40:	20000226 	beq	r4,zero,2008f4c <__srefill_r+0x24>
 2008f44:	20800e17 	ldw	r2,56(r4)
 2008f48:	10003f26 	beq	r2,zero,2009048 <__srefill_r+0x120>
 2008f4c:	8080030b 	ldhu	r2,12(r16)
 2008f50:	1108000c 	andi	r4,r2,8192
 2008f54:	1007883a 	mov	r3,r2
 2008f58:	2000071e 	bne	r4,zero,2008f78 <__srefill_r+0x50>
 2008f5c:	81001917 	ldw	r4,100(r16)
 2008f60:	10c80014 	ori	r3,r2,8192
 2008f64:	00b7ffc4 	movi	r2,-8193
 2008f68:	2088703a 	and	r4,r4,r2
 2008f6c:	80c0030d 	sth	r3,12(r16)
 2008f70:	1805883a 	mov	r2,r3
 2008f74:	81001915 	stw	r4,100(r16)
 2008f78:	80000115 	stw	zero,4(r16)
 2008f7c:	1900080c 	andi	r4,r3,32
 2008f80:	2000591e 	bne	r4,zero,20090e8 <__srefill_r+0x1c0>
 2008f84:	1900010c 	andi	r4,r3,4
 2008f88:	20001e26 	beq	r4,zero,2009004 <__srefill_r+0xdc>
 2008f8c:	81400c17 	ldw	r5,48(r16)
 2008f90:	28000826 	beq	r5,zero,2008fb4 <__srefill_r+0x8c>
 2008f94:	80801004 	addi	r2,r16,64
 2008f98:	28800226 	beq	r5,r2,2008fa4 <__srefill_r+0x7c>
 2008f9c:	8809883a 	mov	r4,r17
 2008fa0:	2007a6c0 	call	2007a6c <_free_r>
 2008fa4:	80800f17 	ldw	r2,60(r16)
 2008fa8:	80000c15 	stw	zero,48(r16)
 2008fac:	80800115 	stw	r2,4(r16)
 2008fb0:	1000371e 	bne	r2,zero,2009090 <__srefill_r+0x168>
 2008fb4:	80800417 	ldw	r2,16(r16)
 2008fb8:	10004d26 	beq	r2,zero,20090f0 <__srefill_r+0x1c8>
 2008fbc:	8080030b 	ldhu	r2,12(r16)
 2008fc0:	108000cc 	andi	r2,r2,3
 2008fc4:	1000221e 	bne	r2,zero,2009050 <__srefill_r+0x128>
 2008fc8:	81800417 	ldw	r6,16(r16)
 2008fcc:	80800817 	ldw	r2,32(r16)
 2008fd0:	81400717 	ldw	r5,28(r16)
 2008fd4:	81c00517 	ldw	r7,20(r16)
 2008fd8:	81800015 	stw	r6,0(r16)
 2008fdc:	8809883a 	mov	r4,r17
 2008fe0:	103ee83a 	callr	r2
 2008fe4:	80800115 	stw	r2,4(r16)
 2008fe8:	00800d0e 	bge	zero,r2,2009020 <__srefill_r+0xf8>
 2008fec:	0005883a 	mov	r2,zero
 2008ff0:	dfc00217 	ldw	ra,8(sp)
 2008ff4:	dc400117 	ldw	r17,4(sp)
 2008ff8:	dc000017 	ldw	r16,0(sp)
 2008ffc:	dec00304 	addi	sp,sp,12
 2009000:	f800283a 	ret
 2009004:	1900040c 	andi	r4,r3,16
 2009008:	20003326 	beq	r4,zero,20090d8 <__srefill_r+0x1b0>
 200900c:	18c0020c 	andi	r3,r3,8
 2009010:	1800271e 	bne	r3,zero,20090b0 <__srefill_r+0x188>
 2009014:	10800114 	ori	r2,r2,4
 2009018:	8080030d 	sth	r2,12(r16)
 200901c:	003fe506 	br	2008fb4 <__reset+0xfdffffb4>
 2009020:	80c0030b 	ldhu	r3,12(r16)
 2009024:	1000111e 	bne	r2,zero,200906c <__srefill_r+0x144>
 2009028:	00bfffc4 	movi	r2,-1
 200902c:	18c00814 	ori	r3,r3,32
 2009030:	80c0030d 	sth	r3,12(r16)
 2009034:	dfc00217 	ldw	ra,8(sp)
 2009038:	dc400117 	ldw	r17,4(sp)
 200903c:	dc000017 	ldw	r16,0(sp)
 2009040:	dec00304 	addi	sp,sp,12
 2009044:	f800283a 	ret
 2009048:	20073100 	call	2007310 <__sinit>
 200904c:	003fbf06 	br	2008f4c <__reset+0xfdffff4c>
 2009050:	008080b4 	movhi	r2,514
 2009054:	10836004 	addi	r2,r2,3456
 2009058:	11000017 	ldw	r4,0(r2)
 200905c:	01408074 	movhi	r5,513
 2009060:	2963c304 	addi	r5,r5,-28916
 2009064:	2007d3c0 	call	2007d3c <_fwalk>
 2009068:	003fd706 	br	2008fc8 <__reset+0xfdffffc8>
 200906c:	00bfffc4 	movi	r2,-1
 2009070:	18c01014 	ori	r3,r3,64
 2009074:	80000115 	stw	zero,4(r16)
 2009078:	80c0030d 	sth	r3,12(r16)
 200907c:	dfc00217 	ldw	ra,8(sp)
 2009080:	dc400117 	ldw	r17,4(sp)
 2009084:	dc000017 	ldw	r16,0(sp)
 2009088:	dec00304 	addi	sp,sp,12
 200908c:	f800283a 	ret
 2009090:	80c00e17 	ldw	r3,56(r16)
 2009094:	0005883a 	mov	r2,zero
 2009098:	80c00015 	stw	r3,0(r16)
 200909c:	dfc00217 	ldw	ra,8(sp)
 20090a0:	dc400117 	ldw	r17,4(sp)
 20090a4:	dc000017 	ldw	r16,0(sp)
 20090a8:	dec00304 	addi	sp,sp,12
 20090ac:	f800283a 	ret
 20090b0:	8809883a 	mov	r4,r17
 20090b4:	800b883a 	mov	r5,r16
 20090b8:	2006ff00 	call	2006ff0 <_fflush_r>
 20090bc:	10000a1e 	bne	r2,zero,20090e8 <__srefill_r+0x1c0>
 20090c0:	8080030b 	ldhu	r2,12(r16)
 20090c4:	00fffdc4 	movi	r3,-9
 20090c8:	80000215 	stw	zero,8(r16)
 20090cc:	1884703a 	and	r2,r3,r2
 20090d0:	80000615 	stw	zero,24(r16)
 20090d4:	003fcf06 	br	2009014 <__reset+0xfe000014>
 20090d8:	00c00244 	movi	r3,9
 20090dc:	88c00015 	stw	r3,0(r17)
 20090e0:	10801014 	ori	r2,r2,64
 20090e4:	8080030d 	sth	r2,12(r16)
 20090e8:	00bfffc4 	movi	r2,-1
 20090ec:	003fc006 	br	2008ff0 <__reset+0xfdfffff0>
 20090f0:	8809883a 	mov	r4,r17
 20090f4:	800b883a 	mov	r5,r16
 20090f8:	200d0c00 	call	200d0c0 <__smakebuf_r>
 20090fc:	003faf06 	br	2008fbc <__reset+0xfdffffbc>

02009100 <_sbrk_r>:
 2009100:	defffd04 	addi	sp,sp,-12
 2009104:	dc400115 	stw	r17,4(sp)
 2009108:	dc000015 	stw	r16,0(sp)
 200910c:	2023883a 	mov	r17,r4
 2009110:	040080b4 	movhi	r16,514
 2009114:	84037904 	addi	r16,r16,3556
 2009118:	2809883a 	mov	r4,r5
 200911c:	dfc00215 	stw	ra,8(sp)
 2009120:	80000015 	stw	zero,0(r16)
 2009124:	20132980 	call	2013298 <sbrk>
 2009128:	00ffffc4 	movi	r3,-1
 200912c:	10c00526 	beq	r2,r3,2009144 <_sbrk_r+0x44>
 2009130:	dfc00217 	ldw	ra,8(sp)
 2009134:	dc400117 	ldw	r17,4(sp)
 2009138:	dc000017 	ldw	r16,0(sp)
 200913c:	dec00304 	addi	sp,sp,12
 2009140:	f800283a 	ret
 2009144:	80c00017 	ldw	r3,0(r16)
 2009148:	183ff926 	beq	r3,zero,2009130 <__reset+0xfe000130>
 200914c:	88c00015 	stw	r3,0(r17)
 2009150:	dfc00217 	ldw	ra,8(sp)
 2009154:	dc400117 	ldw	r17,4(sp)
 2009158:	dc000017 	ldw	r16,0(sp)
 200915c:	dec00304 	addi	sp,sp,12
 2009160:	f800283a 	ret

02009164 <__sread>:
 2009164:	defffe04 	addi	sp,sp,-8
 2009168:	dc000015 	stw	r16,0(sp)
 200916c:	2821883a 	mov	r16,r5
 2009170:	2940038f 	ldh	r5,14(r5)
 2009174:	dfc00115 	stw	ra,4(sp)
 2009178:	200e4c00 	call	200e4c0 <_read_r>
 200917c:	10000716 	blt	r2,zero,200919c <__sread+0x38>
 2009180:	80c01417 	ldw	r3,80(r16)
 2009184:	1887883a 	add	r3,r3,r2
 2009188:	80c01415 	stw	r3,80(r16)
 200918c:	dfc00117 	ldw	ra,4(sp)
 2009190:	dc000017 	ldw	r16,0(sp)
 2009194:	dec00204 	addi	sp,sp,8
 2009198:	f800283a 	ret
 200919c:	80c0030b 	ldhu	r3,12(r16)
 20091a0:	18fbffcc 	andi	r3,r3,61439
 20091a4:	80c0030d 	sth	r3,12(r16)
 20091a8:	dfc00117 	ldw	ra,4(sp)
 20091ac:	dc000017 	ldw	r16,0(sp)
 20091b0:	dec00204 	addi	sp,sp,8
 20091b4:	f800283a 	ret

020091b8 <__seofread>:
 20091b8:	0005883a 	mov	r2,zero
 20091bc:	f800283a 	ret

020091c0 <__swrite>:
 20091c0:	2880030b 	ldhu	r2,12(r5)
 20091c4:	defffb04 	addi	sp,sp,-20
 20091c8:	dcc00315 	stw	r19,12(sp)
 20091cc:	dc800215 	stw	r18,8(sp)
 20091d0:	dc400115 	stw	r17,4(sp)
 20091d4:	dc000015 	stw	r16,0(sp)
 20091d8:	dfc00415 	stw	ra,16(sp)
 20091dc:	10c0400c 	andi	r3,r2,256
 20091e0:	2821883a 	mov	r16,r5
 20091e4:	2027883a 	mov	r19,r4
 20091e8:	3025883a 	mov	r18,r6
 20091ec:	3823883a 	mov	r17,r7
 20091f0:	18000526 	beq	r3,zero,2009208 <__swrite+0x48>
 20091f4:	2940038f 	ldh	r5,14(r5)
 20091f8:	000d883a 	mov	r6,zero
 20091fc:	01c00084 	movi	r7,2
 2009200:	200d0540 	call	200d054 <_lseek_r>
 2009204:	8080030b 	ldhu	r2,12(r16)
 2009208:	8140038f 	ldh	r5,14(r16)
 200920c:	10bbffcc 	andi	r2,r2,61439
 2009210:	9809883a 	mov	r4,r19
 2009214:	900d883a 	mov	r6,r18
 2009218:	880f883a 	mov	r7,r17
 200921c:	8080030d 	sth	r2,12(r16)
 2009220:	dfc00417 	ldw	ra,16(sp)
 2009224:	dcc00317 	ldw	r19,12(sp)
 2009228:	dc800217 	ldw	r18,8(sp)
 200922c:	dc400117 	ldw	r17,4(sp)
 2009230:	dc000017 	ldw	r16,0(sp)
 2009234:	dec00504 	addi	sp,sp,20
 2009238:	200b5141 	jmpi	200b514 <_write_r>

0200923c <__sseek>:
 200923c:	defffe04 	addi	sp,sp,-8
 2009240:	dc000015 	stw	r16,0(sp)
 2009244:	2821883a 	mov	r16,r5
 2009248:	2940038f 	ldh	r5,14(r5)
 200924c:	dfc00115 	stw	ra,4(sp)
 2009250:	200d0540 	call	200d054 <_lseek_r>
 2009254:	00ffffc4 	movi	r3,-1
 2009258:	10c00826 	beq	r2,r3,200927c <__sseek+0x40>
 200925c:	80c0030b 	ldhu	r3,12(r16)
 2009260:	80801415 	stw	r2,80(r16)
 2009264:	18c40014 	ori	r3,r3,4096
 2009268:	80c0030d 	sth	r3,12(r16)
 200926c:	dfc00117 	ldw	ra,4(sp)
 2009270:	dc000017 	ldw	r16,0(sp)
 2009274:	dec00204 	addi	sp,sp,8
 2009278:	f800283a 	ret
 200927c:	80c0030b 	ldhu	r3,12(r16)
 2009280:	18fbffcc 	andi	r3,r3,61439
 2009284:	80c0030d 	sth	r3,12(r16)
 2009288:	dfc00117 	ldw	ra,4(sp)
 200928c:	dc000017 	ldw	r16,0(sp)
 2009290:	dec00204 	addi	sp,sp,8
 2009294:	f800283a 	ret

02009298 <__sclose>:
 2009298:	2940038f 	ldh	r5,14(r5)
 200929c:	200b6b81 	jmpi	200b6b8 <_close_r>

020092a0 <strncmp>:
 20092a0:	30001826 	beq	r6,zero,2009304 <strncmp+0x64>
 20092a4:	2144b03a 	or	r2,r4,r5
 20092a8:	108000cc 	andi	r2,r2,3
 20092ac:	10001726 	beq	r2,zero,200930c <strncmp+0x6c>
 20092b0:	31bfffc4 	addi	r6,r6,-1
 20092b4:	20c00007 	ldb	r3,0(r4)
 20092b8:	28800007 	ldb	r2,0(r5)
 20092bc:	1880331e 	bne	r3,r2,200938c <strncmp+0xec>
 20092c0:	30001026 	beq	r6,zero,2009304 <strncmp+0x64>
 20092c4:	18000f26 	beq	r3,zero,2009304 <strncmp+0x64>
 20092c8:	20800044 	addi	r2,r4,1
 20092cc:	29400044 	addi	r5,r5,1
 20092d0:	2189883a 	add	r4,r4,r6
 20092d4:	00000406 	br	20092e8 <strncmp+0x48>
 20092d8:	11000a26 	beq	r2,r4,2009304 <strncmp+0x64>
 20092dc:	18000926 	beq	r3,zero,2009304 <strncmp+0x64>
 20092e0:	10800044 	addi	r2,r2,1
 20092e4:	29400044 	addi	r5,r5,1
 20092e8:	10c00007 	ldb	r3,0(r2)
 20092ec:	29800007 	ldb	r6,0(r5)
 20092f0:	19bff926 	beq	r3,r6,20092d8 <__reset+0xfe0002d8>
 20092f4:	10c00003 	ldbu	r3,0(r2)
 20092f8:	28800003 	ldbu	r2,0(r5)
 20092fc:	1885c83a 	sub	r2,r3,r2
 2009300:	f800283a 	ret
 2009304:	0005883a 	mov	r2,zero
 2009308:	f800283a 	ret
 200930c:	024000c4 	movi	r9,3
 2009310:	49bfe72e 	bgeu	r9,r6,20092b0 <__reset+0xfe0002b0>
 2009314:	20c00017 	ldw	r3,0(r4)
 2009318:	28800017 	ldw	r2,0(r5)
 200931c:	18bfe41e 	bne	r3,r2,20092b0 <__reset+0xfe0002b0>
 2009320:	30bfff04 	addi	r2,r6,-4
 2009324:	103ff726 	beq	r2,zero,2009304 <__reset+0xfe000304>
 2009328:	02ffbff4 	movhi	r11,65279
 200932c:	5affbfc4 	addi	r11,r11,-257
 2009330:	1acd883a 	add	r6,r3,r11
 2009334:	00c6303a 	nor	r3,zero,r3
 2009338:	30c6703a 	and	r3,r6,r3
 200933c:	02a02074 	movhi	r10,32897
 2009340:	52a02004 	addi	r10,r10,-32640
 2009344:	1a86703a 	and	r3,r3,r10
 2009348:	18000b26 	beq	r3,zero,2009378 <strncmp+0xd8>
 200934c:	003fed06 	br	2009304 <__reset+0xfe000304>
 2009350:	20c00017 	ldw	r3,0(r4)
 2009354:	29800017 	ldw	r6,0(r5)
 2009358:	1ad1883a 	add	r8,r3,r11
 200935c:	00ce303a 	nor	r7,zero,r3
 2009360:	41ce703a 	and	r7,r8,r7
 2009364:	3a8e703a 	and	r7,r7,r10
 2009368:	19800a1e 	bne	r3,r6,2009394 <strncmp+0xf4>
 200936c:	10bfff04 	addi	r2,r2,-4
 2009370:	103fe426 	beq	r2,zero,2009304 <__reset+0xfe000304>
 2009374:	383fe31e 	bne	r7,zero,2009304 <__reset+0xfe000304>
 2009378:	21000104 	addi	r4,r4,4
 200937c:	29400104 	addi	r5,r5,4
 2009380:	48bff336 	bltu	r9,r2,2009350 <__reset+0xfe000350>
 2009384:	11bfffc4 	addi	r6,r2,-1
 2009388:	103fca1e 	bne	r2,zero,20092b4 <__reset+0xfe0002b4>
 200938c:	2005883a 	mov	r2,r4
 2009390:	003fd806 	br	20092f4 <__reset+0xfe0002f4>
 2009394:	11bfffc4 	addi	r6,r2,-1
 2009398:	003fc606 	br	20092b4 <__reset+0xfe0002b4>

0200939c <___vfprintf_internal_r>:
 200939c:	defeb604 	addi	sp,sp,-1320
 20093a0:	dfc14915 	stw	ra,1316(sp)
 20093a4:	dcc14315 	stw	r19,1292(sp)
 20093a8:	dc414115 	stw	r17,1284(sp)
 20093ac:	d9012c15 	stw	r4,1200(sp)
 20093b0:	2827883a 	mov	r19,r5
 20093b4:	3023883a 	mov	r17,r6
 20093b8:	d9c12f15 	stw	r7,1212(sp)
 20093bc:	df014815 	stw	fp,1312(sp)
 20093c0:	ddc14715 	stw	r23,1308(sp)
 20093c4:	dd814615 	stw	r22,1304(sp)
 20093c8:	dd414515 	stw	r21,1300(sp)
 20093cc:	dd014415 	stw	r20,1296(sp)
 20093d0:	dc814215 	stw	r18,1288(sp)
 20093d4:	dc014015 	stw	r16,1280(sp)
 20093d8:	200d0200 	call	200d020 <_localeconv_r>
 20093dc:	10800017 	ldw	r2,0(r2)
 20093e0:	1009883a 	mov	r4,r2
 20093e4:	d8813415 	stw	r2,1232(sp)
 20093e8:	200e6380 	call	200e638 <strlen>
 20093ec:	d8813815 	stw	r2,1248(sp)
 20093f0:	d8812c17 	ldw	r2,1200(sp)
 20093f4:	10000226 	beq	r2,zero,2009400 <___vfprintf_internal_r+0x64>
 20093f8:	10800e17 	ldw	r2,56(r2)
 20093fc:	10010826 	beq	r2,zero,2009820 <___vfprintf_internal_r+0x484>
 2009400:	9880030b 	ldhu	r2,12(r19)
 2009404:	1108000c 	andi	r4,r2,8192
 2009408:	1007883a 	mov	r3,r2
 200940c:	2000071e 	bne	r4,zero,200942c <___vfprintf_internal_r+0x90>
 2009410:	99001917 	ldw	r4,100(r19)
 2009414:	10c80014 	ori	r3,r2,8192
 2009418:	00b7ffc4 	movi	r2,-8193
 200941c:	2088703a 	and	r4,r4,r2
 2009420:	98c0030d 	sth	r3,12(r19)
 2009424:	1805883a 	mov	r2,r3
 2009428:	99001915 	stw	r4,100(r19)
 200942c:	1900020c 	andi	r4,r3,8
 2009430:	2000ab26 	beq	r4,zero,20096e0 <___vfprintf_internal_r+0x344>
 2009434:	99000417 	ldw	r4,16(r19)
 2009438:	2000a926 	beq	r4,zero,20096e0 <___vfprintf_internal_r+0x344>
 200943c:	18c0068c 	andi	r3,r3,26
 2009440:	01000284 	movi	r4,10
 2009444:	1900af26 	beq	r3,r4,2009704 <___vfprintf_internal_r+0x368>
 2009448:	d9010dc4 	addi	r4,sp,1079
 200944c:	d9410e04 	addi	r5,sp,1080
 2009450:	d8800404 	addi	r2,sp,16
 2009454:	2907c83a 	sub	r3,r5,r4
 2009458:	d9012815 	stw	r4,1184(sp)
 200945c:	d9412915 	stw	r5,1188(sp)
 2009460:	d8811e15 	stw	r2,1144(sp)
 2009464:	d8012015 	stw	zero,1152(sp)
 2009468:	d8011f15 	stw	zero,1148(sp)
 200946c:	d8013515 	stw	zero,1236(sp)
 2009470:	d8013715 	stw	zero,1244(sp)
 2009474:	d8013915 	stw	zero,1252(sp)
 2009478:	d8013b15 	stw	zero,1260(sp)
 200947c:	d8013a15 	stw	zero,1256(sp)
 2009480:	d8013115 	stw	zero,1220(sp)
 2009484:	1011883a 	mov	r8,r2
 2009488:	05c080b4 	movhi	r23,514
 200948c:	bdfbc584 	addi	r23,r23,-4330
 2009490:	d8c13d15 	stw	r3,1268(sp)
 2009494:	88800007 	ldb	r2,0(r17)
 2009498:	10021126 	beq	r2,zero,2009ce0 <___vfprintf_internal_r+0x944>
 200949c:	00c00944 	movi	r3,37
 20094a0:	8821883a 	mov	r16,r17
 20094a4:	10c0021e 	bne	r2,r3,20094b0 <___vfprintf_internal_r+0x114>
 20094a8:	00001406 	br	20094fc <___vfprintf_internal_r+0x160>
 20094ac:	10c00326 	beq	r2,r3,20094bc <___vfprintf_internal_r+0x120>
 20094b0:	84000044 	addi	r16,r16,1
 20094b4:	80800007 	ldb	r2,0(r16)
 20094b8:	103ffc1e 	bne	r2,zero,20094ac <__reset+0xfe0004ac>
 20094bc:	8465c83a 	sub	r18,r16,r17
 20094c0:	90000e26 	beq	r18,zero,20094fc <___vfprintf_internal_r+0x160>
 20094c4:	d8c12017 	ldw	r3,1152(sp)
 20094c8:	d8811f17 	ldw	r2,1148(sp)
 20094cc:	44400015 	stw	r17,0(r8)
 20094d0:	1c87883a 	add	r3,r3,r18
 20094d4:	10800044 	addi	r2,r2,1
 20094d8:	d8c12015 	stw	r3,1152(sp)
 20094dc:	44800115 	stw	r18,4(r8)
 20094e0:	d8811f15 	stw	r2,1148(sp)
 20094e4:	00c001c4 	movi	r3,7
 20094e8:	1880bb16 	blt	r3,r2,20097d8 <___vfprintf_internal_r+0x43c>
 20094ec:	42000204 	addi	r8,r8,8
 20094f0:	d9013117 	ldw	r4,1220(sp)
 20094f4:	2489883a 	add	r4,r4,r18
 20094f8:	d9013115 	stw	r4,1220(sp)
 20094fc:	80800007 	ldb	r2,0(r16)
 2009500:	1000bc26 	beq	r2,zero,20097f4 <___vfprintf_internal_r+0x458>
 2009504:	053fffc4 	movi	r20,-1
 2009508:	84400044 	addi	r17,r16,1
 200950c:	84800047 	ldb	r18,1(r16)
 2009510:	d8012785 	stb	zero,1182(sp)
 2009514:	002d883a 	mov	r22,zero
 2009518:	d8013015 	stw	zero,1216(sp)
 200951c:	d8012a15 	stw	zero,1192(sp)
 2009520:	04001604 	movi	r16,88
 2009524:	05400244 	movi	r21,9
 2009528:	4039883a 	mov	fp,r8
 200952c:	a007883a 	mov	r3,r20
 2009530:	8c400044 	addi	r17,r17,1
 2009534:	90bff804 	addi	r2,r18,-32
 2009538:	80832036 	bltu	r16,r2,200a1bc <___vfprintf_internal_r+0xe20>
 200953c:	1085883a 	add	r2,r2,r2
 2009540:	1085883a 	add	r2,r2,r2
 2009544:	01408074 	movhi	r5,513
 2009548:	29655604 	addi	r5,r5,-27304
 200954c:	1145883a 	add	r2,r2,r5
 2009550:	10800017 	ldw	r2,0(r2)
 2009554:	1000683a 	jmp	r2
 2009558:	02009f5c 	xori	r8,zero,637
 200955c:	0200a1bc 	xorhi	r8,zero,646
 2009560:	0200a1bc 	xorhi	r8,zero,646
 2009564:	02009f78 	rdprs	r8,zero,637
 2009568:	0200a1bc 	xorhi	r8,zero,646
 200956c:	0200a1bc 	xorhi	r8,zero,646
 2009570:	0200a1bc 	xorhi	r8,zero,646
 2009574:	0200a1bc 	xorhi	r8,zero,646
 2009578:	0200a1bc 	xorhi	r8,zero,646
 200957c:	0200a1bc 	xorhi	r8,zero,646
 2009580:	02009f8c 	andi	r8,zero,638
 2009584:	0200982c 	andhi	r8,zero,608
 2009588:	0200a1bc 	xorhi	r8,zero,646
 200958c:	020096cc 	andi	r8,zero,603
 2009590:	02009838 	rdprs	r8,zero,608
 2009594:	0200a1bc 	xorhi	r8,zero,646
 2009598:	02009888 	cmpgei	r8,zero,610
 200959c:	02009d98 	cmpnei	r8,zero,630
 20095a0:	02009d98 	cmpnei	r8,zero,630
 20095a4:	02009d98 	cmpnei	r8,zero,630
 20095a8:	02009d98 	cmpnei	r8,zero,630
 20095ac:	02009d98 	cmpnei	r8,zero,630
 20095b0:	02009d98 	cmpnei	r8,zero,630
 20095b4:	02009d98 	cmpnei	r8,zero,630
 20095b8:	02009d98 	cmpnei	r8,zero,630
 20095bc:	02009d98 	cmpnei	r8,zero,630
 20095c0:	0200a1bc 	xorhi	r8,zero,646
 20095c4:	0200a1bc 	xorhi	r8,zero,646
 20095c8:	0200a1bc 	xorhi	r8,zero,646
 20095cc:	0200a1bc 	xorhi	r8,zero,646
 20095d0:	0200a1bc 	xorhi	r8,zero,646
 20095d4:	0200a1bc 	xorhi	r8,zero,646
 20095d8:	0200a1bc 	xorhi	r8,zero,646
 20095dc:	0200a1bc 	xorhi	r8,zero,646
 20095e0:	0200a1bc 	xorhi	r8,zero,646
 20095e4:	0200a1bc 	xorhi	r8,zero,646
 20095e8:	0200989c 	xori	r8,zero,610
 20095ec:	02009ce8 	cmpgeui	r8,zero,627
 20095f0:	0200a1bc 	xorhi	r8,zero,646
 20095f4:	02009ce8 	cmpgeui	r8,zero,627
 20095f8:	0200a1bc 	xorhi	r8,zero,646
 20095fc:	0200a1bc 	xorhi	r8,zero,646
 2009600:	0200a1bc 	xorhi	r8,zero,646
 2009604:	0200a1bc 	xorhi	r8,zero,646
 2009608:	02009de0 	cmpeqi	r8,zero,631
 200960c:	0200a1bc 	xorhi	r8,zero,646
 2009610:	0200a1bc 	xorhi	r8,zero,646
 2009614:	02009df4 	movhi	r8,631
 2009618:	0200a1bc 	xorhi	r8,zero,646
 200961c:	0200a1bc 	xorhi	r8,zero,646
 2009620:	0200a1bc 	xorhi	r8,zero,646
 2009624:	0200a1bc 	xorhi	r8,zero,646
 2009628:	0200a1bc 	xorhi	r8,zero,646
 200962c:	02009e3c 	xorhi	r8,zero,632
 2009630:	0200a1bc 	xorhi	r8,zero,646
 2009634:	0200a1bc 	xorhi	r8,zero,646
 2009638:	02009fb0 	cmpltui	r8,zero,638
 200963c:	0200a1bc 	xorhi	r8,zero,646
 2009640:	0200a1bc 	xorhi	r8,zero,646
 2009644:	0200a1bc 	xorhi	r8,zero,646
 2009648:	0200a1bc 	xorhi	r8,zero,646
 200964c:	0200a1bc 	xorhi	r8,zero,646
 2009650:	0200a1bc 	xorhi	r8,zero,646
 2009654:	0200a1bc 	xorhi	r8,zero,646
 2009658:	0200a1bc 	xorhi	r8,zero,646
 200965c:	0200a1bc 	xorhi	r8,zero,646
 2009660:	0200a1bc 	xorhi	r8,zero,646
 2009664:	02009eb4 	movhi	r8,634
 2009668:	0200a02c 	andhi	r8,zero,640
 200966c:	02009ce8 	cmpgeui	r8,zero,627
 2009670:	02009ce8 	cmpgeui	r8,zero,627
 2009674:	02009ce8 	cmpgeui	r8,zero,627
 2009678:	02009ff8 	rdprs	r8,zero,639
 200967c:	0200a02c 	andhi	r8,zero,640
 2009680:	0200a1bc 	xorhi	r8,zero,646
 2009684:	0200a1bc 	xorhi	r8,zero,646
 2009688:	0200a00c 	andi	r8,zero,640
 200968c:	0200a1bc 	xorhi	r8,zero,646
 2009690:	02009e7c 	xorhi	r8,zero,633
 2009694:	0200a13c 	xorhi	r8,zero,644
 2009698:	0200a0e8 	cmpgeui	r8,zero,643
 200969c:	0200a06c 	andhi	r8,zero,641
 20096a0:	0200a1bc 	xorhi	r8,zero,646
 20096a4:	0200a080 	call	200a08 <__alt_mem_sdram_controller-0x1dff5f8>
 20096a8:	0200a1bc 	xorhi	r8,zero,646
 20096ac:	0200a17c 	xorhi	r8,zero,645
 20096b0:	0200a1bc 	xorhi	r8,zero,646
 20096b4:	0200a1bc 	xorhi	r8,zero,646
 20096b8:	02009ef4 	movhi	r8,635
 20096bc:	d9413017 	ldw	r5,1216(sp)
 20096c0:	d8812f15 	stw	r2,1212(sp)
 20096c4:	014bc83a 	sub	r5,zero,r5
 20096c8:	d9413015 	stw	r5,1216(sp)
 20096cc:	d8812a17 	ldw	r2,1192(sp)
 20096d0:	10800114 	ori	r2,r2,4
 20096d4:	d8812a15 	stw	r2,1192(sp)
 20096d8:	8c800007 	ldb	r18,0(r17)
 20096dc:	003f9406 	br	2009530 <__reset+0xfe000530>
 20096e0:	d9012c17 	ldw	r4,1200(sp)
 20096e4:	980b883a 	mov	r5,r19
 20096e8:	200b5800 	call	200b580 <__swsetup_r>
 20096ec:	10002d1e 	bne	r2,zero,20097a4 <___vfprintf_internal_r+0x408>
 20096f0:	9880030b 	ldhu	r2,12(r19)
 20096f4:	01000284 	movi	r4,10
 20096f8:	1007883a 	mov	r3,r2
 20096fc:	18c0068c 	andi	r3,r3,26
 2009700:	193f511e 	bne	r3,r4,2009448 <__reset+0xfe000448>
 2009704:	98c0038b 	ldhu	r3,14(r19)
 2009708:	193fffcc 	andi	r4,r3,65535
 200970c:	2120001c 	xori	r4,r4,32768
 2009710:	21200004 	addi	r4,r4,-32768
 2009714:	203f4c16 	blt	r4,zero,2009448 <__reset+0xfe000448>
 2009718:	9ac01917 	ldw	r11,100(r19)
 200971c:	9a800717 	ldw	r10,28(r19)
 2009720:	9a400917 	ldw	r9,36(r19)
 2009724:	d9012c17 	ldw	r4,1200(sp)
 2009728:	d9c12f17 	ldw	r7,1212(sp)
 200972c:	02010004 	movi	r8,1024
 2009730:	10bfff4c 	andi	r2,r2,65533
 2009734:	d8c1078d 	sth	r3,1054(sp)
 2009738:	d9410404 	addi	r5,sp,1040
 200973c:	d8c00404 	addi	r3,sp,16
 2009740:	880d883a 	mov	r6,r17
 2009744:	d881070d 	sth	r2,1052(sp)
 2009748:	dac11d15 	stw	r11,1140(sp)
 200974c:	da810b15 	stw	r10,1068(sp)
 2009750:	da410d15 	stw	r9,1076(sp)
 2009754:	d8c10415 	stw	r3,1040(sp)
 2009758:	d8c10815 	stw	r3,1056(sp)
 200975c:	da010615 	stw	r8,1048(sp)
 2009760:	da010915 	stw	r8,1060(sp)
 2009764:	d8010a15 	stw	zero,1064(sp)
 2009768:	200939c0 	call	200939c <___vfprintf_internal_r>
 200976c:	1021883a 	mov	r16,r2
 2009770:	10000416 	blt	r2,zero,2009784 <___vfprintf_internal_r+0x3e8>
 2009774:	d9012c17 	ldw	r4,1200(sp)
 2009778:	d9410404 	addi	r5,sp,1040
 200977c:	2006ff00 	call	2006ff0 <_fflush_r>
 2009780:	10072a1e 	bne	r2,zero,200b42c <___vfprintf_internal_r+0x2090>
 2009784:	d881070b 	ldhu	r2,1052(sp)
 2009788:	1080100c 	andi	r2,r2,64
 200978c:	10000326 	beq	r2,zero,200979c <___vfprintf_internal_r+0x400>
 2009790:	9880030b 	ldhu	r2,12(r19)
 2009794:	10801014 	ori	r2,r2,64
 2009798:	9880030d 	sth	r2,12(r19)
 200979c:	8005883a 	mov	r2,r16
 20097a0:	00000106 	br	20097a8 <___vfprintf_internal_r+0x40c>
 20097a4:	00bfffc4 	movi	r2,-1
 20097a8:	dfc14917 	ldw	ra,1316(sp)
 20097ac:	df014817 	ldw	fp,1312(sp)
 20097b0:	ddc14717 	ldw	r23,1308(sp)
 20097b4:	dd814617 	ldw	r22,1304(sp)
 20097b8:	dd414517 	ldw	r21,1300(sp)
 20097bc:	dd014417 	ldw	r20,1296(sp)
 20097c0:	dcc14317 	ldw	r19,1292(sp)
 20097c4:	dc814217 	ldw	r18,1288(sp)
 20097c8:	dc414117 	ldw	r17,1284(sp)
 20097cc:	dc014017 	ldw	r16,1280(sp)
 20097d0:	dec14a04 	addi	sp,sp,1320
 20097d4:	f800283a 	ret
 20097d8:	d9012c17 	ldw	r4,1200(sp)
 20097dc:	980b883a 	mov	r5,r19
 20097e0:	d9811e04 	addi	r6,sp,1144
 20097e4:	200e7c00 	call	200e7c0 <__sprint_r>
 20097e8:	1000081e 	bne	r2,zero,200980c <___vfprintf_internal_r+0x470>
 20097ec:	da000404 	addi	r8,sp,16
 20097f0:	003f3f06 	br	20094f0 <__reset+0xfe0004f0>
 20097f4:	d8812017 	ldw	r2,1152(sp)
 20097f8:	10000426 	beq	r2,zero,200980c <___vfprintf_internal_r+0x470>
 20097fc:	d9012c17 	ldw	r4,1200(sp)
 2009800:	980b883a 	mov	r5,r19
 2009804:	d9811e04 	addi	r6,sp,1144
 2009808:	200e7c00 	call	200e7c0 <__sprint_r>
 200980c:	9880030b 	ldhu	r2,12(r19)
 2009810:	1080100c 	andi	r2,r2,64
 2009814:	103fe31e 	bne	r2,zero,20097a4 <__reset+0xfe0007a4>
 2009818:	d8813117 	ldw	r2,1220(sp)
 200981c:	003fe206 	br	20097a8 <__reset+0xfe0007a8>
 2009820:	d9012c17 	ldw	r4,1200(sp)
 2009824:	20073100 	call	2007310 <__sinit>
 2009828:	003ef506 	br	2009400 <__reset+0xfe000400>
 200982c:	05800ac4 	movi	r22,43
 2009830:	8c800007 	ldb	r18,0(r17)
 2009834:	003f3e06 	br	2009530 <__reset+0xfe000530>
 2009838:	8c800007 	ldb	r18,0(r17)
 200983c:	00c00a84 	movi	r3,42
 2009840:	88800044 	addi	r2,r17,1
 2009844:	90c6fb26 	beq	r18,r3,200b434 <___vfprintf_internal_r+0x2098>
 2009848:	953ff404 	addi	r20,r18,-48
 200984c:	1023883a 	mov	r17,r2
 2009850:	0007883a 	mov	r3,zero
 2009854:	ad3f3736 	bltu	r21,r20,2009534 <__reset+0xfe000534>
 2009858:	0009883a 	mov	r4,zero
 200985c:	01400284 	movi	r5,10
 2009860:	20059200 	call	2005920 <__mulsi3>
 2009864:	8c800007 	ldb	r18,0(r17)
 2009868:	a089883a 	add	r4,r20,r2
 200986c:	8c400044 	addi	r17,r17,1
 2009870:	953ff404 	addi	r20,r18,-48
 2009874:	ad3ff92e 	bgeu	r21,r20,200985c <__reset+0xfe00085c>
 2009878:	2007883a 	mov	r3,r4
 200987c:	203f2d0e 	bge	r4,zero,2009534 <__reset+0xfe000534>
 2009880:	00ffffc4 	movi	r3,-1
 2009884:	003f2b06 	br	2009534 <__reset+0xfe000534>
 2009888:	d9412a17 	ldw	r5,1192(sp)
 200988c:	29402014 	ori	r5,r5,128
 2009890:	d9412a15 	stw	r5,1192(sp)
 2009894:	8c800007 	ldb	r18,0(r17)
 2009898:	003f2506 	br	2009530 <__reset+0xfe000530>
 200989c:	d9412a17 	ldw	r5,1192(sp)
 20098a0:	1829883a 	mov	r20,r3
 20098a4:	dd812785 	stb	r22,1182(sp)
 20098a8:	29400414 	ori	r5,r5,16
 20098ac:	d9412a15 	stw	r5,1192(sp)
 20098b0:	d8c12a17 	ldw	r3,1192(sp)
 20098b4:	e011883a 	mov	r8,fp
 20098b8:	1880080c 	andi	r2,r3,32
 20098bc:	1001e126 	beq	r2,zero,200a044 <___vfprintf_internal_r+0xca8>
 20098c0:	d9012f17 	ldw	r4,1212(sp)
 20098c4:	20800117 	ldw	r2,4(r4)
 20098c8:	25400017 	ldw	r21,0(r4)
 20098cc:	21000204 	addi	r4,r4,8
 20098d0:	d9012f15 	stw	r4,1212(sp)
 20098d4:	102d883a 	mov	r22,r2
 20098d8:	10046916 	blt	r2,zero,200aa80 <___vfprintf_internal_r+0x16e4>
 20098dc:	df012783 	ldbu	fp,1182(sp)
 20098e0:	00c00044 	movi	r3,1
 20098e4:	ad84b03a 	or	r2,r21,r22
 20098e8:	a0000416 	blt	r20,zero,20098fc <___vfprintf_internal_r+0x560>
 20098ec:	d9412a17 	ldw	r5,1192(sp)
 20098f0:	013fdfc4 	movi	r4,-129
 20098f4:	290a703a 	and	r5,r5,r4
 20098f8:	d9412a15 	stw	r5,1192(sp)
 20098fc:	1002491e 	bne	r2,zero,200a224 <___vfprintf_internal_r+0xe88>
 2009900:	a002481e 	bne	r20,zero,200a224 <___vfprintf_internal_r+0xe88>
 2009904:	18c03fcc 	andi	r3,r3,255
 2009908:	1803871e 	bne	r3,zero,200a728 <___vfprintf_internal_r+0x138c>
 200990c:	d9012a17 	ldw	r4,1192(sp)
 2009910:	2080004c 	andi	r2,r4,1
 2009914:	10038426 	beq	r2,zero,200a728 <___vfprintf_internal_r+0x138c>
 2009918:	d9413d17 	ldw	r5,1268(sp)
 200991c:	00800c04 	movi	r2,48
 2009920:	d8810dc5 	stb	r2,1079(sp)
 2009924:	d9412e15 	stw	r5,1208(sp)
 2009928:	dc010dc4 	addi	r16,sp,1079
 200992c:	d8812e17 	ldw	r2,1208(sp)
 2009930:	1500010e 	bge	r2,r20,2009938 <___vfprintf_internal_r+0x59c>
 2009934:	a005883a 	mov	r2,r20
 2009938:	d8812b15 	stw	r2,1196(sp)
 200993c:	d8013315 	stw	zero,1228(sp)
 2009940:	e0803fcc 	andi	r2,fp,255
 2009944:	1080201c 	xori	r2,r2,128
 2009948:	10bfe004 	addi	r2,r2,-128
 200994c:	10000326 	beq	r2,zero,200995c <___vfprintf_internal_r+0x5c0>
 2009950:	d8c12b17 	ldw	r3,1196(sp)
 2009954:	18c00044 	addi	r3,r3,1
 2009958:	d8c12b15 	stw	r3,1196(sp)
 200995c:	d8c12a17 	ldw	r3,1192(sp)
 2009960:	18c0008c 	andi	r3,r3,2
 2009964:	d8c12d15 	stw	r3,1204(sp)
 2009968:	18000326 	beq	r3,zero,2009978 <___vfprintf_internal_r+0x5dc>
 200996c:	d8c12b17 	ldw	r3,1196(sp)
 2009970:	18c00084 	addi	r3,r3,2
 2009974:	d8c12b15 	stw	r3,1196(sp)
 2009978:	d8c12a17 	ldw	r3,1192(sp)
 200997c:	18c0210c 	andi	r3,r3,132
 2009980:	d8c13215 	stw	r3,1224(sp)
 2009984:	1802151e 	bne	r3,zero,200a1dc <___vfprintf_internal_r+0xe40>
 2009988:	d9013017 	ldw	r4,1216(sp)
 200998c:	d8c12b17 	ldw	r3,1196(sp)
 2009990:	20f9c83a 	sub	fp,r4,r3
 2009994:	0702110e 	bge	zero,fp,200a1dc <___vfprintf_internal_r+0xe40>
 2009998:	02400404 	movi	r9,16
 200999c:	d8c12017 	ldw	r3,1152(sp)
 20099a0:	d8811f17 	ldw	r2,1148(sp)
 20099a4:	4f059a0e 	bge	r9,fp,200b010 <___vfprintf_internal_r+0x1c74>
 20099a8:	8809883a 	mov	r4,r17
 20099ac:	014080b4 	movhi	r5,514
 20099b0:	297bc984 	addi	r5,r5,-4314
 20099b4:	dc013c15 	stw	r16,1264(sp)
 20099b8:	e023883a 	mov	r17,fp
 20099bc:	d9413615 	stw	r5,1240(sp)
 20099c0:	482d883a 	mov	r22,r9
 20099c4:	054001c4 	movi	r21,7
 20099c8:	dc012c17 	ldw	r16,1200(sp)
 20099cc:	2039883a 	mov	fp,r4
 20099d0:	00000306 	br	20099e0 <___vfprintf_internal_r+0x644>
 20099d4:	8c7ffc04 	addi	r17,r17,-16
 20099d8:	42000204 	addi	r8,r8,8
 20099dc:	b440130e 	bge	r22,r17,2009a2c <___vfprintf_internal_r+0x690>
 20099e0:	18c00404 	addi	r3,r3,16
 20099e4:	10800044 	addi	r2,r2,1
 20099e8:	010080b4 	movhi	r4,514
 20099ec:	213bc984 	addi	r4,r4,-4314
 20099f0:	41000015 	stw	r4,0(r8)
 20099f4:	45800115 	stw	r22,4(r8)
 20099f8:	d8c12015 	stw	r3,1152(sp)
 20099fc:	d8811f15 	stw	r2,1148(sp)
 2009a00:	a8bff40e 	bge	r21,r2,20099d4 <__reset+0xfe0009d4>
 2009a04:	8009883a 	mov	r4,r16
 2009a08:	980b883a 	mov	r5,r19
 2009a0c:	d9811e04 	addi	r6,sp,1144
 2009a10:	200e7c00 	call	200e7c0 <__sprint_r>
 2009a14:	103f7d1e 	bne	r2,zero,200980c <__reset+0xfe00080c>
 2009a18:	8c7ffc04 	addi	r17,r17,-16
 2009a1c:	d8c12017 	ldw	r3,1152(sp)
 2009a20:	d8811f17 	ldw	r2,1148(sp)
 2009a24:	da000404 	addi	r8,sp,16
 2009a28:	b47fed16 	blt	r22,r17,20099e0 <__reset+0xfe0009e0>
 2009a2c:	dc013c17 	ldw	r16,1264(sp)
 2009a30:	e009883a 	mov	r4,fp
 2009a34:	8839883a 	mov	fp,r17
 2009a38:	2023883a 	mov	r17,r4
 2009a3c:	d9413617 	ldw	r5,1240(sp)
 2009a40:	e0c7883a 	add	r3,fp,r3
 2009a44:	10800044 	addi	r2,r2,1
 2009a48:	41400015 	stw	r5,0(r8)
 2009a4c:	47000115 	stw	fp,4(r8)
 2009a50:	d8c12015 	stw	r3,1152(sp)
 2009a54:	d8811f15 	stw	r2,1148(sp)
 2009a58:	010001c4 	movi	r4,7
 2009a5c:	20836b16 	blt	r4,r2,200a80c <___vfprintf_internal_r+0x1470>
 2009a60:	d8812787 	ldb	r2,1182(sp)
 2009a64:	42000204 	addi	r8,r8,8
 2009a68:	10000c26 	beq	r2,zero,2009a9c <___vfprintf_internal_r+0x700>
 2009a6c:	d8811f17 	ldw	r2,1148(sp)
 2009a70:	d9012784 	addi	r4,sp,1182
 2009a74:	18c00044 	addi	r3,r3,1
 2009a78:	10800044 	addi	r2,r2,1
 2009a7c:	41000015 	stw	r4,0(r8)
 2009a80:	01000044 	movi	r4,1
 2009a84:	41000115 	stw	r4,4(r8)
 2009a88:	d8c12015 	stw	r3,1152(sp)
 2009a8c:	d8811f15 	stw	r2,1148(sp)
 2009a90:	010001c4 	movi	r4,7
 2009a94:	2082ef16 	blt	r4,r2,200a654 <___vfprintf_internal_r+0x12b8>
 2009a98:	42000204 	addi	r8,r8,8
 2009a9c:	d8812d17 	ldw	r2,1204(sp)
 2009aa0:	10000c26 	beq	r2,zero,2009ad4 <___vfprintf_internal_r+0x738>
 2009aa4:	d8811f17 	ldw	r2,1148(sp)
 2009aa8:	d9012704 	addi	r4,sp,1180
 2009aac:	18c00084 	addi	r3,r3,2
 2009ab0:	10800044 	addi	r2,r2,1
 2009ab4:	41000015 	stw	r4,0(r8)
 2009ab8:	01000084 	movi	r4,2
 2009abc:	41000115 	stw	r4,4(r8)
 2009ac0:	d8c12015 	stw	r3,1152(sp)
 2009ac4:	d8811f15 	stw	r2,1148(sp)
 2009ac8:	010001c4 	movi	r4,7
 2009acc:	2082e916 	blt	r4,r2,200a674 <___vfprintf_internal_r+0x12d8>
 2009ad0:	42000204 	addi	r8,r8,8
 2009ad4:	d9013217 	ldw	r4,1224(sp)
 2009ad8:	00802004 	movi	r2,128
 2009adc:	20823226 	beq	r4,r2,200a3a8 <___vfprintf_internal_r+0x100c>
 2009ae0:	d9012e17 	ldw	r4,1208(sp)
 2009ae4:	a129c83a 	sub	r20,r20,r4
 2009ae8:	05002d0e 	bge	zero,r20,2009ba0 <___vfprintf_internal_r+0x804>
 2009aec:	05800404 	movi	r22,16
 2009af0:	d8811f17 	ldw	r2,1148(sp)
 2009af4:	054080b4 	movhi	r21,514
 2009af8:	ad7bc584 	addi	r21,r21,-4330
 2009afc:	b5001f0e 	bge	r22,r20,2009b7c <___vfprintf_internal_r+0x7e0>
 2009b00:	8809883a 	mov	r4,r17
 2009b04:	dc012d15 	stw	r16,1204(sp)
 2009b08:	a023883a 	mov	r17,r20
 2009b0c:	070001c4 	movi	fp,7
 2009b10:	dc012c17 	ldw	r16,1200(sp)
 2009b14:	2029883a 	mov	r20,r4
 2009b18:	00000306 	br	2009b28 <___vfprintf_internal_r+0x78c>
 2009b1c:	8c7ffc04 	addi	r17,r17,-16
 2009b20:	42000204 	addi	r8,r8,8
 2009b24:	b440110e 	bge	r22,r17,2009b6c <___vfprintf_internal_r+0x7d0>
 2009b28:	18c00404 	addi	r3,r3,16
 2009b2c:	10800044 	addi	r2,r2,1
 2009b30:	45c00015 	stw	r23,0(r8)
 2009b34:	45800115 	stw	r22,4(r8)
 2009b38:	d8c12015 	stw	r3,1152(sp)
 2009b3c:	d8811f15 	stw	r2,1148(sp)
 2009b40:	e0bff60e 	bge	fp,r2,2009b1c <__reset+0xfe000b1c>
 2009b44:	8009883a 	mov	r4,r16
 2009b48:	980b883a 	mov	r5,r19
 2009b4c:	d9811e04 	addi	r6,sp,1144
 2009b50:	200e7c00 	call	200e7c0 <__sprint_r>
 2009b54:	103f2d1e 	bne	r2,zero,200980c <__reset+0xfe00080c>
 2009b58:	8c7ffc04 	addi	r17,r17,-16
 2009b5c:	d8c12017 	ldw	r3,1152(sp)
 2009b60:	d8811f17 	ldw	r2,1148(sp)
 2009b64:	da000404 	addi	r8,sp,16
 2009b68:	b47fef16 	blt	r22,r17,2009b28 <__reset+0xfe000b28>
 2009b6c:	dc012d17 	ldw	r16,1204(sp)
 2009b70:	a009883a 	mov	r4,r20
 2009b74:	8829883a 	mov	r20,r17
 2009b78:	2023883a 	mov	r17,r4
 2009b7c:	1d07883a 	add	r3,r3,r20
 2009b80:	10800044 	addi	r2,r2,1
 2009b84:	45400015 	stw	r21,0(r8)
 2009b88:	45000115 	stw	r20,4(r8)
 2009b8c:	d8c12015 	stw	r3,1152(sp)
 2009b90:	d8811f15 	stw	r2,1148(sp)
 2009b94:	010001c4 	movi	r4,7
 2009b98:	2082a616 	blt	r4,r2,200a634 <___vfprintf_internal_r+0x1298>
 2009b9c:	42000204 	addi	r8,r8,8
 2009ba0:	d9412a17 	ldw	r5,1192(sp)
 2009ba4:	2880400c 	andi	r2,r5,256
 2009ba8:	1001b51e 	bne	r2,zero,200a280 <___vfprintf_internal_r+0xee4>
 2009bac:	d8812e17 	ldw	r2,1208(sp)
 2009bb0:	d9012e17 	ldw	r4,1208(sp)
 2009bb4:	44000015 	stw	r16,0(r8)
 2009bb8:	1887883a 	add	r3,r3,r2
 2009bbc:	d8811f17 	ldw	r2,1148(sp)
 2009bc0:	10800044 	addi	r2,r2,1
 2009bc4:	41000115 	stw	r4,4(r8)
 2009bc8:	d8c12015 	stw	r3,1152(sp)
 2009bcc:	d8811f15 	stw	r2,1148(sp)
 2009bd0:	010001c4 	movi	r4,7
 2009bd4:	20818b16 	blt	r4,r2,200a204 <___vfprintf_internal_r+0xe68>
 2009bd8:	42000204 	addi	r8,r8,8
 2009bdc:	d9412a17 	ldw	r5,1192(sp)
 2009be0:	2880010c 	andi	r2,r5,4
 2009be4:	10003226 	beq	r2,zero,2009cb0 <___vfprintf_internal_r+0x914>
 2009be8:	d8813017 	ldw	r2,1216(sp)
 2009bec:	d9012b17 	ldw	r4,1196(sp)
 2009bf0:	1121c83a 	sub	r16,r2,r4
 2009bf4:	04002e0e 	bge	zero,r16,2009cb0 <___vfprintf_internal_r+0x914>
 2009bf8:	04800404 	movi	r18,16
 2009bfc:	d8811f17 	ldw	r2,1148(sp)
 2009c00:	9405240e 	bge	r18,r16,200b094 <___vfprintf_internal_r+0x1cf8>
 2009c04:	010080b4 	movhi	r4,514
 2009c08:	213bc984 	addi	r4,r4,-4314
 2009c0c:	d9013615 	stw	r4,1240(sp)
 2009c10:	050001c4 	movi	r20,7
 2009c14:	dd412c17 	ldw	r21,1200(sp)
 2009c18:	00000306 	br	2009c28 <___vfprintf_internal_r+0x88c>
 2009c1c:	843ffc04 	addi	r16,r16,-16
 2009c20:	42000204 	addi	r8,r8,8
 2009c24:	9400130e 	bge	r18,r16,2009c74 <___vfprintf_internal_r+0x8d8>
 2009c28:	18c00404 	addi	r3,r3,16
 2009c2c:	10800044 	addi	r2,r2,1
 2009c30:	014080b4 	movhi	r5,514
 2009c34:	297bc984 	addi	r5,r5,-4314
 2009c38:	41400015 	stw	r5,0(r8)
 2009c3c:	44800115 	stw	r18,4(r8)
 2009c40:	d8c12015 	stw	r3,1152(sp)
 2009c44:	d8811f15 	stw	r2,1148(sp)
 2009c48:	a0bff40e 	bge	r20,r2,2009c1c <__reset+0xfe000c1c>
 2009c4c:	a809883a 	mov	r4,r21
 2009c50:	980b883a 	mov	r5,r19
 2009c54:	d9811e04 	addi	r6,sp,1144
 2009c58:	200e7c00 	call	200e7c0 <__sprint_r>
 2009c5c:	103eeb1e 	bne	r2,zero,200980c <__reset+0xfe00080c>
 2009c60:	843ffc04 	addi	r16,r16,-16
 2009c64:	d8c12017 	ldw	r3,1152(sp)
 2009c68:	d8811f17 	ldw	r2,1148(sp)
 2009c6c:	da000404 	addi	r8,sp,16
 2009c70:	943fed16 	blt	r18,r16,2009c28 <__reset+0xfe000c28>
 2009c74:	d9013617 	ldw	r4,1240(sp)
 2009c78:	1c07883a 	add	r3,r3,r16
 2009c7c:	10800044 	addi	r2,r2,1
 2009c80:	41000015 	stw	r4,0(r8)
 2009c84:	44000115 	stw	r16,4(r8)
 2009c88:	d8c12015 	stw	r3,1152(sp)
 2009c8c:	d8811f15 	stw	r2,1148(sp)
 2009c90:	010001c4 	movi	r4,7
 2009c94:	2080060e 	bge	r4,r2,2009cb0 <___vfprintf_internal_r+0x914>
 2009c98:	d9012c17 	ldw	r4,1200(sp)
 2009c9c:	980b883a 	mov	r5,r19
 2009ca0:	d9811e04 	addi	r6,sp,1144
 2009ca4:	200e7c00 	call	200e7c0 <__sprint_r>
 2009ca8:	103ed81e 	bne	r2,zero,200980c <__reset+0xfe00080c>
 2009cac:	d8c12017 	ldw	r3,1152(sp)
 2009cb0:	d8812b17 	ldw	r2,1196(sp)
 2009cb4:	d9413017 	ldw	r5,1216(sp)
 2009cb8:	1140010e 	bge	r2,r5,2009cc0 <___vfprintf_internal_r+0x924>
 2009cbc:	2805883a 	mov	r2,r5
 2009cc0:	d9013117 	ldw	r4,1220(sp)
 2009cc4:	2089883a 	add	r4,r4,r2
 2009cc8:	d9013115 	stw	r4,1220(sp)
 2009ccc:	1802381e 	bne	r3,zero,200a5b0 <___vfprintf_internal_r+0x1214>
 2009cd0:	88800007 	ldb	r2,0(r17)
 2009cd4:	d8011f15 	stw	zero,1148(sp)
 2009cd8:	da000404 	addi	r8,sp,16
 2009cdc:	103def1e 	bne	r2,zero,200949c <__reset+0xfe00049c>
 2009ce0:	8821883a 	mov	r16,r17
 2009ce4:	003e0506 	br	20094fc <__reset+0xfe0004fc>
 2009ce8:	1829883a 	mov	r20,r3
 2009cec:	d8c12a17 	ldw	r3,1192(sp)
 2009cf0:	dd812785 	stb	r22,1182(sp)
 2009cf4:	e011883a 	mov	r8,fp
 2009cf8:	1880020c 	andi	r2,r3,8
 2009cfc:	1003c926 	beq	r2,zero,200ac24 <___vfprintf_internal_r+0x1888>
 2009d00:	d9012f17 	ldw	r4,1212(sp)
 2009d04:	d9412f17 	ldw	r5,1212(sp)
 2009d08:	d8812f17 	ldw	r2,1212(sp)
 2009d0c:	21000017 	ldw	r4,0(r4)
 2009d10:	29400117 	ldw	r5,4(r5)
 2009d14:	10800204 	addi	r2,r2,8
 2009d18:	d9013715 	stw	r4,1244(sp)
 2009d1c:	d9413915 	stw	r5,1252(sp)
 2009d20:	d8812f15 	stw	r2,1212(sp)
 2009d24:	d9013717 	ldw	r4,1244(sp)
 2009d28:	d9413917 	ldw	r5,1252(sp)
 2009d2c:	da013f15 	stw	r8,1276(sp)
 2009d30:	04000044 	movi	r16,1
 2009d34:	200e52c0 	call	200e52c <__fpclassifyd>
 2009d38:	da013f17 	ldw	r8,1276(sp)
 2009d3c:	d9013717 	ldw	r4,1244(sp)
 2009d40:	d9413917 	ldw	r5,1252(sp)
 2009d44:	1403571e 	bne	r2,r16,200aaa4 <___vfprintf_internal_r+0x1708>
 2009d48:	000d883a 	mov	r6,zero
 2009d4c:	000f883a 	mov	r7,zero
 2009d50:	2011db40 	call	2011db4 <__ledf2>
 2009d54:	da013f17 	ldw	r8,1276(sp)
 2009d58:	1004f416 	blt	r2,zero,200b12c <___vfprintf_internal_r+0x1d90>
 2009d5c:	df012783 	ldbu	fp,1182(sp)
 2009d60:	008011c4 	movi	r2,71
 2009d64:	14847a0e 	bge	r2,r18,200af50 <___vfprintf_internal_r+0x1bb4>
 2009d68:	040080b4 	movhi	r16,514
 2009d6c:	843bb604 	addi	r16,r16,-4392
 2009d70:	d9012a17 	ldw	r4,1192(sp)
 2009d74:	00bfdfc4 	movi	r2,-129
 2009d78:	00c000c4 	movi	r3,3
 2009d7c:	2088703a 	and	r4,r4,r2
 2009d80:	d8c12b15 	stw	r3,1196(sp)
 2009d84:	d9012a15 	stw	r4,1192(sp)
 2009d88:	d8c12e15 	stw	r3,1208(sp)
 2009d8c:	0029883a 	mov	r20,zero
 2009d90:	d8013315 	stw	zero,1228(sp)
 2009d94:	003eea06 	br	2009940 <__reset+0xfe000940>
 2009d98:	953ff404 	addi	r20,r18,-48
 2009d9c:	d8013015 	stw	zero,1216(sp)
 2009da0:	0009883a 	mov	r4,zero
 2009da4:	1825883a 	mov	r18,r3
 2009da8:	01400284 	movi	r5,10
 2009dac:	20059200 	call	2005920 <__mulsi3>
 2009db0:	88c00007 	ldb	r3,0(r17)
 2009db4:	1509883a 	add	r4,r2,r20
 2009db8:	8c400044 	addi	r17,r17,1
 2009dbc:	1d3ff404 	addi	r20,r3,-48
 2009dc0:	8805883a 	mov	r2,r17
 2009dc4:	ad3ff82e 	bgeu	r21,r20,2009da8 <__reset+0xfe000da8>
 2009dc8:	d9013015 	stw	r4,1216(sp)
 2009dcc:	9009883a 	mov	r4,r18
 2009dd0:	1023883a 	mov	r17,r2
 2009dd4:	1825883a 	mov	r18,r3
 2009dd8:	2007883a 	mov	r3,r4
 2009ddc:	003dd506 	br	2009534 <__reset+0xfe000534>
 2009de0:	d8812a17 	ldw	r2,1192(sp)
 2009de4:	10800214 	ori	r2,r2,8
 2009de8:	d8812a15 	stw	r2,1192(sp)
 2009dec:	8c800007 	ldb	r18,0(r17)
 2009df0:	003dcf06 	br	2009530 <__reset+0xfe000530>
 2009df4:	d9012a17 	ldw	r4,1192(sp)
 2009df8:	e011883a 	mov	r8,fp
 2009dfc:	1829883a 	mov	r20,r3
 2009e00:	21000414 	ori	r4,r4,16
 2009e04:	d9012a15 	stw	r4,1192(sp)
 2009e08:	d9412a17 	ldw	r5,1192(sp)
 2009e0c:	2880080c 	andi	r2,r5,32
 2009e10:	1000cf26 	beq	r2,zero,200a150 <___vfprintf_internal_r+0xdb4>
 2009e14:	d8812f17 	ldw	r2,1212(sp)
 2009e18:	0007883a 	mov	r3,zero
 2009e1c:	15400017 	ldw	r21,0(r2)
 2009e20:	15800117 	ldw	r22,4(r2)
 2009e24:	10800204 	addi	r2,r2,8
 2009e28:	d8812f15 	stw	r2,1212(sp)
 2009e2c:	ad84b03a 	or	r2,r21,r22
 2009e30:	d8012785 	stb	zero,1182(sp)
 2009e34:	0039883a 	mov	fp,zero
 2009e38:	003eab06 	br	20098e8 <__reset+0xfe0008e8>
 2009e3c:	d9012a17 	ldw	r4,1192(sp)
 2009e40:	e011883a 	mov	r8,fp
 2009e44:	1829883a 	mov	r20,r3
 2009e48:	21000414 	ori	r4,r4,16
 2009e4c:	d9012a15 	stw	r4,1192(sp)
 2009e50:	d9412a17 	ldw	r5,1192(sp)
 2009e54:	2880080c 	andi	r2,r5,32
 2009e58:	1000cd26 	beq	r2,zero,200a190 <___vfprintf_internal_r+0xdf4>
 2009e5c:	d8812f17 	ldw	r2,1212(sp)
 2009e60:	00c00044 	movi	r3,1
 2009e64:	15400017 	ldw	r21,0(r2)
 2009e68:	15800117 	ldw	r22,4(r2)
 2009e6c:	10800204 	addi	r2,r2,8
 2009e70:	d8812f15 	stw	r2,1212(sp)
 2009e74:	ad84b03a 	or	r2,r21,r22
 2009e78:	003fed06 	br	2009e30 <__reset+0xfe000e30>
 2009e7c:	d9012a17 	ldw	r4,1192(sp)
 2009e80:	dd812785 	stb	r22,1182(sp)
 2009e84:	e011883a 	mov	r8,fp
 2009e88:	2080080c 	andi	r2,r4,32
 2009e8c:	10039226 	beq	r2,zero,200acd8 <___vfprintf_internal_r+0x193c>
 2009e90:	d9412f17 	ldw	r5,1212(sp)
 2009e94:	d9013117 	ldw	r4,1220(sp)
 2009e98:	28800017 	ldw	r2,0(r5)
 2009e9c:	2007d7fa 	srai	r3,r4,31
 2009ea0:	29400104 	addi	r5,r5,4
 2009ea4:	d9412f15 	stw	r5,1212(sp)
 2009ea8:	11000015 	stw	r4,0(r2)
 2009eac:	10c00115 	stw	r3,4(r2)
 2009eb0:	003d7806 	br	2009494 <__reset+0xfe000494>
 2009eb4:	d8c12f17 	ldw	r3,1212(sp)
 2009eb8:	d9012f17 	ldw	r4,1212(sp)
 2009ebc:	e011883a 	mov	r8,fp
 2009ec0:	18800017 	ldw	r2,0(r3)
 2009ec4:	21000104 	addi	r4,r4,4
 2009ec8:	00c00044 	movi	r3,1
 2009ecc:	d8c12b15 	stw	r3,1196(sp)
 2009ed0:	d8012785 	stb	zero,1182(sp)
 2009ed4:	d8810405 	stb	r2,1040(sp)
 2009ed8:	d9012f15 	stw	r4,1212(sp)
 2009edc:	d8c12e15 	stw	r3,1208(sp)
 2009ee0:	0029883a 	mov	r20,zero
 2009ee4:	d8013315 	stw	zero,1228(sp)
 2009ee8:	dc010404 	addi	r16,sp,1040
 2009eec:	0005883a 	mov	r2,zero
 2009ef0:	003e9a06 	br	200995c <__reset+0xfe00095c>
 2009ef4:	d9412a17 	ldw	r5,1192(sp)
 2009ef8:	010080b4 	movhi	r4,514
 2009efc:	213bbe04 	addi	r4,r4,-4360
 2009f00:	dd812785 	stb	r22,1182(sp)
 2009f04:	d9013b15 	stw	r4,1260(sp)
 2009f08:	2880080c 	andi	r2,r5,32
 2009f0c:	e011883a 	mov	r8,fp
 2009f10:	1829883a 	mov	r20,r3
 2009f14:	10002f26 	beq	r2,zero,2009fd4 <___vfprintf_internal_r+0xc38>
 2009f18:	d8812f17 	ldw	r2,1212(sp)
 2009f1c:	15400017 	ldw	r21,0(r2)
 2009f20:	15800117 	ldw	r22,4(r2)
 2009f24:	10800204 	addi	r2,r2,8
 2009f28:	d8812f15 	stw	r2,1212(sp)
 2009f2c:	d9012a17 	ldw	r4,1192(sp)
 2009f30:	2080004c 	andi	r2,r4,1
 2009f34:	10025f26 	beq	r2,zero,200a8b4 <___vfprintf_internal_r+0x1518>
 2009f38:	ad84b03a 	or	r2,r21,r22
 2009f3c:	10034e26 	beq	r2,zero,200ac78 <___vfprintf_internal_r+0x18dc>
 2009f40:	00c00c04 	movi	r3,48
 2009f44:	21000094 	ori	r4,r4,2
 2009f48:	d8c12705 	stb	r3,1180(sp)
 2009f4c:	dc812745 	stb	r18,1181(sp)
 2009f50:	d9012a15 	stw	r4,1192(sp)
 2009f54:	00c00084 	movi	r3,2
 2009f58:	003fb506 	br	2009e30 <__reset+0xfe000e30>
 2009f5c:	b0803fcc 	andi	r2,r22,255
 2009f60:	1080201c 	xori	r2,r2,128
 2009f64:	10bfe004 	addi	r2,r2,-128
 2009f68:	1003501e 	bne	r2,zero,200acac <___vfprintf_internal_r+0x1910>
 2009f6c:	05800804 	movi	r22,32
 2009f70:	8c800007 	ldb	r18,0(r17)
 2009f74:	003d6e06 	br	2009530 <__reset+0xfe000530>
 2009f78:	d9012a17 	ldw	r4,1192(sp)
 2009f7c:	21000054 	ori	r4,r4,1
 2009f80:	d9012a15 	stw	r4,1192(sp)
 2009f84:	8c800007 	ldb	r18,0(r17)
 2009f88:	003d6906 	br	2009530 <__reset+0xfe000530>
 2009f8c:	d9412f17 	ldw	r5,1212(sp)
 2009f90:	d9012f17 	ldw	r4,1212(sp)
 2009f94:	29400017 	ldw	r5,0(r5)
 2009f98:	20800104 	addi	r2,r4,4
 2009f9c:	d9413015 	stw	r5,1216(sp)
 2009fa0:	283dc616 	blt	r5,zero,20096bc <__reset+0xfe0006bc>
 2009fa4:	d8812f15 	stw	r2,1212(sp)
 2009fa8:	8c800007 	ldb	r18,0(r17)
 2009fac:	003d6006 	br	2009530 <__reset+0xfe000530>
 2009fb0:	d9412a17 	ldw	r5,1192(sp)
 2009fb4:	008080b4 	movhi	r2,514
 2009fb8:	10bbb904 	addi	r2,r2,-4380
 2009fbc:	d8813b15 	stw	r2,1260(sp)
 2009fc0:	dd812785 	stb	r22,1182(sp)
 2009fc4:	2880080c 	andi	r2,r5,32
 2009fc8:	e011883a 	mov	r8,fp
 2009fcc:	1829883a 	mov	r20,r3
 2009fd0:	103fd11e 	bne	r2,zero,2009f18 <__reset+0xfe000f18>
 2009fd4:	d8c12a17 	ldw	r3,1192(sp)
 2009fd8:	1880040c 	andi	r2,r3,16
 2009fdc:	10033526 	beq	r2,zero,200acb4 <___vfprintf_internal_r+0x1918>
 2009fe0:	d9012f17 	ldw	r4,1212(sp)
 2009fe4:	002d883a 	mov	r22,zero
 2009fe8:	25400017 	ldw	r21,0(r4)
 2009fec:	21000104 	addi	r4,r4,4
 2009ff0:	d9012f15 	stw	r4,1212(sp)
 2009ff4:	003fcd06 	br	2009f2c <__reset+0xfe000f2c>
 2009ff8:	d9012a17 	ldw	r4,1192(sp)
 2009ffc:	21001014 	ori	r4,r4,64
 200a000:	d9012a15 	stw	r4,1192(sp)
 200a004:	8c800007 	ldb	r18,0(r17)
 200a008:	003d4906 	br	2009530 <__reset+0xfe000530>
 200a00c:	8c800007 	ldb	r18,0(r17)
 200a010:	01401b04 	movi	r5,108
 200a014:	8805883a 	mov	r2,r17
 200a018:	9143db26 	beq	r18,r5,200af88 <___vfprintf_internal_r+0x1bec>
 200a01c:	d9412a17 	ldw	r5,1192(sp)
 200a020:	29400414 	ori	r5,r5,16
 200a024:	d9412a15 	stw	r5,1192(sp)
 200a028:	003d4106 	br	2009530 <__reset+0xfe000530>
 200a02c:	1829883a 	mov	r20,r3
 200a030:	d8c12a17 	ldw	r3,1192(sp)
 200a034:	dd812785 	stb	r22,1182(sp)
 200a038:	e011883a 	mov	r8,fp
 200a03c:	1880080c 	andi	r2,r3,32
 200a040:	103e1f1e 	bne	r2,zero,20098c0 <__reset+0xfe0008c0>
 200a044:	d9412a17 	ldw	r5,1192(sp)
 200a048:	2880040c 	andi	r2,r5,16
 200a04c:	10032f26 	beq	r2,zero,200ad0c <___vfprintf_internal_r+0x1970>
 200a050:	d8812f17 	ldw	r2,1212(sp)
 200a054:	15400017 	ldw	r21,0(r2)
 200a058:	10800104 	addi	r2,r2,4
 200a05c:	d8812f15 	stw	r2,1212(sp)
 200a060:	a82dd7fa 	srai	r22,r21,31
 200a064:	b005883a 	mov	r2,r22
 200a068:	003e1b06 	br	20098d8 <__reset+0xfe0008d8>
 200a06c:	d8812a17 	ldw	r2,1192(sp)
 200a070:	10800814 	ori	r2,r2,32
 200a074:	d8812a15 	stw	r2,1192(sp)
 200a078:	8c800007 	ldb	r18,0(r17)
 200a07c:	003d2c06 	br	2009530 <__reset+0xfe000530>
 200a080:	1829883a 	mov	r20,r3
 200a084:	d8c12f17 	ldw	r3,1212(sp)
 200a088:	d8012785 	stb	zero,1182(sp)
 200a08c:	e011883a 	mov	r8,fp
 200a090:	1c000017 	ldw	r16,0(r3)
 200a094:	1d400104 	addi	r21,r3,4
 200a098:	80040226 	beq	r16,zero,200b0a4 <___vfprintf_internal_r+0x1d08>
 200a09c:	8009883a 	mov	r4,r16
 200a0a0:	a003c716 	blt	r20,zero,200afc0 <___vfprintf_internal_r+0x1c24>
 200a0a4:	000b883a 	mov	r5,zero
 200a0a8:	a00d883a 	mov	r6,r20
 200a0ac:	df013f15 	stw	fp,1276(sp)
 200a0b0:	200d2740 	call	200d274 <memchr>
 200a0b4:	da013f17 	ldw	r8,1276(sp)
 200a0b8:	10044326 	beq	r2,zero,200b1c8 <___vfprintf_internal_r+0x1e2c>
 200a0bc:	1405c83a 	sub	r2,r2,r16
 200a0c0:	d8812e15 	stw	r2,1208(sp)
 200a0c4:	a0837c16 	blt	r20,r2,200aeb8 <___vfprintf_internal_r+0x1b1c>
 200a0c8:	d8812e17 	ldw	r2,1208(sp)
 200a0cc:	1003c116 	blt	r2,zero,200afd4 <___vfprintf_internal_r+0x1c38>
 200a0d0:	df012783 	ldbu	fp,1182(sp)
 200a0d4:	d8812b15 	stw	r2,1196(sp)
 200a0d8:	dd412f15 	stw	r21,1212(sp)
 200a0dc:	0029883a 	mov	r20,zero
 200a0e0:	d8013315 	stw	zero,1228(sp)
 200a0e4:	003e1606 	br	2009940 <__reset+0xfe000940>
 200a0e8:	d9012f17 	ldw	r4,1212(sp)
 200a0ec:	d9412a17 	ldw	r5,1192(sp)
 200a0f0:	00800c04 	movi	r2,48
 200a0f4:	25400017 	ldw	r21,0(r4)
 200a0f8:	d8812705 	stb	r2,1180(sp)
 200a0fc:	00801e04 	movi	r2,120
 200a100:	29400094 	ori	r5,r5,2
 200a104:	d8812745 	stb	r2,1181(sp)
 200a108:	21000104 	addi	r4,r4,4
 200a10c:	008080b4 	movhi	r2,514
 200a110:	10bbbe04 	addi	r2,r2,-4360
 200a114:	1829883a 	mov	r20,r3
 200a118:	d8813b15 	stw	r2,1260(sp)
 200a11c:	e011883a 	mov	r8,fp
 200a120:	002d883a 	mov	r22,zero
 200a124:	d9412a15 	stw	r5,1192(sp)
 200a128:	d9012f15 	stw	r4,1212(sp)
 200a12c:	00c00084 	movi	r3,2
 200a130:	04801e04 	movi	r18,120
 200a134:	a805883a 	mov	r2,r21
 200a138:	003f3d06 	br	2009e30 <__reset+0xfe000e30>
 200a13c:	d9412a17 	ldw	r5,1192(sp)
 200a140:	e011883a 	mov	r8,fp
 200a144:	1829883a 	mov	r20,r3
 200a148:	2880080c 	andi	r2,r5,32
 200a14c:	103f311e 	bne	r2,zero,2009e14 <__reset+0xfe000e14>
 200a150:	d8c12a17 	ldw	r3,1192(sp)
 200a154:	1880040c 	andi	r2,r3,16
 200a158:	1002c926 	beq	r2,zero,200ac80 <___vfprintf_internal_r+0x18e4>
 200a15c:	d9012f17 	ldw	r4,1212(sp)
 200a160:	002d883a 	mov	r22,zero
 200a164:	0007883a 	mov	r3,zero
 200a168:	25400017 	ldw	r21,0(r4)
 200a16c:	21000104 	addi	r4,r4,4
 200a170:	d9012f15 	stw	r4,1212(sp)
 200a174:	a805883a 	mov	r2,r21
 200a178:	003f2d06 	br	2009e30 <__reset+0xfe000e30>
 200a17c:	d9412a17 	ldw	r5,1192(sp)
 200a180:	e011883a 	mov	r8,fp
 200a184:	1829883a 	mov	r20,r3
 200a188:	2880080c 	andi	r2,r5,32
 200a18c:	103f331e 	bne	r2,zero,2009e5c <__reset+0xfe000e5c>
 200a190:	d8c12a17 	ldw	r3,1192(sp)
 200a194:	1880040c 	andi	r2,r3,16
 200a198:	1002ac26 	beq	r2,zero,200ac4c <___vfprintf_internal_r+0x18b0>
 200a19c:	d9012f17 	ldw	r4,1212(sp)
 200a1a0:	002d883a 	mov	r22,zero
 200a1a4:	00c00044 	movi	r3,1
 200a1a8:	25400017 	ldw	r21,0(r4)
 200a1ac:	21000104 	addi	r4,r4,4
 200a1b0:	d9012f15 	stw	r4,1212(sp)
 200a1b4:	a805883a 	mov	r2,r21
 200a1b8:	003f1d06 	br	2009e30 <__reset+0xfe000e30>
 200a1bc:	dd812785 	stb	r22,1182(sp)
 200a1c0:	e011883a 	mov	r8,fp
 200a1c4:	903d8b26 	beq	r18,zero,20097f4 <__reset+0xfe0007f4>
 200a1c8:	00c00044 	movi	r3,1
 200a1cc:	d8c12b15 	stw	r3,1196(sp)
 200a1d0:	dc810405 	stb	r18,1040(sp)
 200a1d4:	d8012785 	stb	zero,1182(sp)
 200a1d8:	003f4006 	br	2009edc <__reset+0xfe000edc>
 200a1dc:	d8c12017 	ldw	r3,1152(sp)
 200a1e0:	003e2106 	br	2009a68 <__reset+0xfe000a68>
 200a1e4:	45400015 	stw	r21,0(r8)
 200a1e8:	44000115 	stw	r16,4(r8)
 200a1ec:	1c07883a 	add	r3,r3,r16
 200a1f0:	10800044 	addi	r2,r2,1
 200a1f4:	d8c12015 	stw	r3,1152(sp)
 200a1f8:	d8811f15 	stw	r2,1148(sp)
 200a1fc:	010001c4 	movi	r4,7
 200a200:	20be750e 	bge	r4,r2,2009bd8 <__reset+0xfe000bd8>
 200a204:	d9012c17 	ldw	r4,1200(sp)
 200a208:	980b883a 	mov	r5,r19
 200a20c:	d9811e04 	addi	r6,sp,1144
 200a210:	200e7c00 	call	200e7c0 <__sprint_r>
 200a214:	103d7d1e 	bne	r2,zero,200980c <__reset+0xfe00080c>
 200a218:	d8c12017 	ldw	r3,1152(sp)
 200a21c:	da000404 	addi	r8,sp,16
 200a220:	003e6e06 	br	2009bdc <__reset+0xfe000bdc>
 200a224:	18803fcc 	andi	r2,r3,255
 200a228:	00c00044 	movi	r3,1
 200a22c:	10c11926 	beq	r2,r3,200a694 <___vfprintf_internal_r+0x12f8>
 200a230:	00c00084 	movi	r3,2
 200a234:	10c0e41e 	bne	r2,r3,200a5c8 <___vfprintf_internal_r+0x122c>
 200a238:	d9413b17 	ldw	r5,1260(sp)
 200a23c:	d8c10dc4 	addi	r3,sp,1079
 200a240:	a88003cc 	andi	r2,r21,15
 200a244:	b008973a 	slli	r4,r22,28
 200a248:	2885883a 	add	r2,r5,r2
 200a24c:	a82ad13a 	srli	r21,r21,4
 200a250:	10800003 	ldbu	r2,0(r2)
 200a254:	b02cd13a 	srli	r22,r22,4
 200a258:	256ab03a 	or	r21,r4,r21
 200a25c:	18800005 	stb	r2,0(r3)
 200a260:	ad84b03a 	or	r2,r21,r22
 200a264:	1821883a 	mov	r16,r3
 200a268:	18ffffc4 	addi	r3,r3,-1
 200a26c:	103ff41e 	bne	r2,zero,200a240 <__reset+0xfe001240>
 200a270:	d8c12917 	ldw	r3,1188(sp)
 200a274:	1c07c83a 	sub	r3,r3,r16
 200a278:	d8c12e15 	stw	r3,1208(sp)
 200a27c:	003dab06 	br	200992c <__reset+0xfe00092c>
 200a280:	00801944 	movi	r2,101
 200a284:	14807e0e 	bge	r2,r18,200a480 <___vfprintf_internal_r+0x10e4>
 200a288:	d9013717 	ldw	r4,1244(sp)
 200a28c:	d9413917 	ldw	r5,1252(sp)
 200a290:	000d883a 	mov	r6,zero
 200a294:	000f883a 	mov	r7,zero
 200a298:	d8c13e15 	stw	r3,1272(sp)
 200a29c:	da013f15 	stw	r8,1276(sp)
 200a2a0:	2011c580 	call	2011c58 <__eqdf2>
 200a2a4:	d8c13e17 	ldw	r3,1272(sp)
 200a2a8:	da013f17 	ldw	r8,1276(sp)
 200a2ac:	1001211e 	bne	r2,zero,200a734 <___vfprintf_internal_r+0x1398>
 200a2b0:	d8811f17 	ldw	r2,1148(sp)
 200a2b4:	01000044 	movi	r4,1
 200a2b8:	18c00044 	addi	r3,r3,1
 200a2bc:	10800044 	addi	r2,r2,1
 200a2c0:	014080b4 	movhi	r5,514
 200a2c4:	297bc504 	addi	r5,r5,-4332
 200a2c8:	41000115 	stw	r4,4(r8)
 200a2cc:	41400015 	stw	r5,0(r8)
 200a2d0:	d8c12015 	stw	r3,1152(sp)
 200a2d4:	d8811f15 	stw	r2,1148(sp)
 200a2d8:	010001c4 	movi	r4,7
 200a2dc:	2082a316 	blt	r4,r2,200ad6c <___vfprintf_internal_r+0x19d0>
 200a2e0:	42000204 	addi	r8,r8,8
 200a2e4:	d8812617 	ldw	r2,1176(sp)
 200a2e8:	d9013517 	ldw	r4,1236(sp)
 200a2ec:	11000316 	blt	r2,r4,200a2fc <___vfprintf_internal_r+0xf60>
 200a2f0:	d9412a17 	ldw	r5,1192(sp)
 200a2f4:	2880004c 	andi	r2,r5,1
 200a2f8:	103e3826 	beq	r2,zero,2009bdc <__reset+0xfe000bdc>
 200a2fc:	d8813817 	ldw	r2,1248(sp)
 200a300:	d9013417 	ldw	r4,1232(sp)
 200a304:	d9413817 	ldw	r5,1248(sp)
 200a308:	1887883a 	add	r3,r3,r2
 200a30c:	d8811f17 	ldw	r2,1148(sp)
 200a310:	41000015 	stw	r4,0(r8)
 200a314:	41400115 	stw	r5,4(r8)
 200a318:	10800044 	addi	r2,r2,1
 200a31c:	d8c12015 	stw	r3,1152(sp)
 200a320:	d8811f15 	stw	r2,1148(sp)
 200a324:	010001c4 	movi	r4,7
 200a328:	20831d16 	blt	r4,r2,200afa0 <___vfprintf_internal_r+0x1c04>
 200a32c:	42000204 	addi	r8,r8,8
 200a330:	d8813517 	ldw	r2,1236(sp)
 200a334:	143fffc4 	addi	r16,r2,-1
 200a338:	043e280e 	bge	zero,r16,2009bdc <__reset+0xfe000bdc>
 200a33c:	04800404 	movi	r18,16
 200a340:	d8811f17 	ldw	r2,1148(sp)
 200a344:	054080b4 	movhi	r21,514
 200a348:	ad7bc584 	addi	r21,r21,-4330
 200a34c:	943fa50e 	bge	r18,r16,200a1e4 <__reset+0xfe0011e4>
 200a350:	050001c4 	movi	r20,7
 200a354:	dd812c17 	ldw	r22,1200(sp)
 200a358:	00000306 	br	200a368 <___vfprintf_internal_r+0xfcc>
 200a35c:	42000204 	addi	r8,r8,8
 200a360:	843ffc04 	addi	r16,r16,-16
 200a364:	943f9f0e 	bge	r18,r16,200a1e4 <__reset+0xfe0011e4>
 200a368:	18c00404 	addi	r3,r3,16
 200a36c:	10800044 	addi	r2,r2,1
 200a370:	45c00015 	stw	r23,0(r8)
 200a374:	44800115 	stw	r18,4(r8)
 200a378:	d8c12015 	stw	r3,1152(sp)
 200a37c:	d8811f15 	stw	r2,1148(sp)
 200a380:	a0bff60e 	bge	r20,r2,200a35c <__reset+0xfe00135c>
 200a384:	b009883a 	mov	r4,r22
 200a388:	980b883a 	mov	r5,r19
 200a38c:	d9811e04 	addi	r6,sp,1144
 200a390:	200e7c00 	call	200e7c0 <__sprint_r>
 200a394:	103d1d1e 	bne	r2,zero,200980c <__reset+0xfe00080c>
 200a398:	d8c12017 	ldw	r3,1152(sp)
 200a39c:	d8811f17 	ldw	r2,1148(sp)
 200a3a0:	da000404 	addi	r8,sp,16
 200a3a4:	003fee06 	br	200a360 <__reset+0xfe001360>
 200a3a8:	d9413017 	ldw	r5,1216(sp)
 200a3ac:	d8812b17 	ldw	r2,1196(sp)
 200a3b0:	28adc83a 	sub	r22,r5,r2
 200a3b4:	05bdca0e 	bge	zero,r22,2009ae0 <__reset+0xfe000ae0>
 200a3b8:	07000404 	movi	fp,16
 200a3bc:	d8811f17 	ldw	r2,1148(sp)
 200a3c0:	054080b4 	movhi	r21,514
 200a3c4:	ad7bc584 	addi	r21,r21,-4330
 200a3c8:	e580230e 	bge	fp,r22,200a458 <___vfprintf_internal_r+0x10bc>
 200a3cc:	a809883a 	mov	r4,r21
 200a3d0:	dc012d15 	stw	r16,1204(sp)
 200a3d4:	882b883a 	mov	r21,r17
 200a3d8:	01c001c4 	movi	r7,7
 200a3dc:	b023883a 	mov	r17,r22
 200a3e0:	dc012c17 	ldw	r16,1200(sp)
 200a3e4:	202d883a 	mov	r22,r4
 200a3e8:	00000306 	br	200a3f8 <___vfprintf_internal_r+0x105c>
 200a3ec:	8c7ffc04 	addi	r17,r17,-16
 200a3f0:	42000204 	addi	r8,r8,8
 200a3f4:	e440130e 	bge	fp,r17,200a444 <___vfprintf_internal_r+0x10a8>
 200a3f8:	18c00404 	addi	r3,r3,16
 200a3fc:	10800044 	addi	r2,r2,1
 200a400:	45c00015 	stw	r23,0(r8)
 200a404:	47000115 	stw	fp,4(r8)
 200a408:	d8c12015 	stw	r3,1152(sp)
 200a40c:	d8811f15 	stw	r2,1148(sp)
 200a410:	38bff60e 	bge	r7,r2,200a3ec <__reset+0xfe0013ec>
 200a414:	8009883a 	mov	r4,r16
 200a418:	980b883a 	mov	r5,r19
 200a41c:	d9811e04 	addi	r6,sp,1144
 200a420:	d9c13e15 	stw	r7,1272(sp)
 200a424:	200e7c00 	call	200e7c0 <__sprint_r>
 200a428:	d9c13e17 	ldw	r7,1272(sp)
 200a42c:	103cf71e 	bne	r2,zero,200980c <__reset+0xfe00080c>
 200a430:	8c7ffc04 	addi	r17,r17,-16
 200a434:	d8c12017 	ldw	r3,1152(sp)
 200a438:	d8811f17 	ldw	r2,1148(sp)
 200a43c:	da000404 	addi	r8,sp,16
 200a440:	e47fed16 	blt	fp,r17,200a3f8 <__reset+0xfe0013f8>
 200a444:	dc012d17 	ldw	r16,1204(sp)
 200a448:	b009883a 	mov	r4,r22
 200a44c:	882d883a 	mov	r22,r17
 200a450:	a823883a 	mov	r17,r21
 200a454:	202b883a 	mov	r21,r4
 200a458:	1d87883a 	add	r3,r3,r22
 200a45c:	10800044 	addi	r2,r2,1
 200a460:	45400015 	stw	r21,0(r8)
 200a464:	45800115 	stw	r22,4(r8)
 200a468:	d8c12015 	stw	r3,1152(sp)
 200a46c:	d8811f15 	stw	r2,1148(sp)
 200a470:	010001c4 	movi	r4,7
 200a474:	20817a16 	blt	r4,r2,200aa60 <___vfprintf_internal_r+0x16c4>
 200a478:	42000204 	addi	r8,r8,8
 200a47c:	003d9806 	br	2009ae0 <__reset+0xfe000ae0>
 200a480:	d9013517 	ldw	r4,1236(sp)
 200a484:	00800044 	movi	r2,1
 200a488:	1100340e 	bge	r2,r4,200a55c <___vfprintf_internal_r+0x11c0>
 200a48c:	dc811f17 	ldw	r18,1148(sp)
 200a490:	00800044 	movi	r2,1
 200a494:	18c00044 	addi	r3,r3,1
 200a498:	94800044 	addi	r18,r18,1
 200a49c:	40800115 	stw	r2,4(r8)
 200a4a0:	44000015 	stw	r16,0(r8)
 200a4a4:	d8c12015 	stw	r3,1152(sp)
 200a4a8:	dc811f15 	stw	r18,1148(sp)
 200a4ac:	008001c4 	movi	r2,7
 200a4b0:	14814e16 	blt	r2,r18,200a9ec <___vfprintf_internal_r+0x1650>
 200a4b4:	42000204 	addi	r8,r8,8
 200a4b8:	d8813817 	ldw	r2,1248(sp)
 200a4bc:	94800044 	addi	r18,r18,1
 200a4c0:	dc811f15 	stw	r18,1148(sp)
 200a4c4:	18ad883a 	add	r22,r3,r2
 200a4c8:	d8c13417 	ldw	r3,1232(sp)
 200a4cc:	40800115 	stw	r2,4(r8)
 200a4d0:	dd812015 	stw	r22,1152(sp)
 200a4d4:	40c00015 	stw	r3,0(r8)
 200a4d8:	008001c4 	movi	r2,7
 200a4dc:	14814c16 	blt	r2,r18,200aa10 <___vfprintf_internal_r+0x1674>
 200a4e0:	45000204 	addi	r20,r8,8
 200a4e4:	d9013717 	ldw	r4,1244(sp)
 200a4e8:	d9413917 	ldw	r5,1252(sp)
 200a4ec:	000d883a 	mov	r6,zero
 200a4f0:	000f883a 	mov	r7,zero
 200a4f4:	2011c580 	call	2011c58 <__eqdf2>
 200a4f8:	1000cd26 	beq	r2,zero,200a830 <___vfprintf_internal_r+0x1494>
 200a4fc:	d9013517 	ldw	r4,1236(sp)
 200a500:	84000044 	addi	r16,r16,1
 200a504:	94800044 	addi	r18,r18,1
 200a508:	20bfffc4 	addi	r2,r4,-1
 200a50c:	b0ad883a 	add	r22,r22,r2
 200a510:	a0800115 	stw	r2,4(r20)
 200a514:	a4000015 	stw	r16,0(r20)
 200a518:	dd812015 	stw	r22,1152(sp)
 200a51c:	dc811f15 	stw	r18,1148(sp)
 200a520:	008001c4 	movi	r2,7
 200a524:	14801916 	blt	r2,r18,200a58c <___vfprintf_internal_r+0x11f0>
 200a528:	a5000204 	addi	r20,r20,8
 200a52c:	d9013a17 	ldw	r4,1256(sp)
 200a530:	d88122c4 	addi	r2,sp,1163
 200a534:	94800044 	addi	r18,r18,1
 200a538:	2587883a 	add	r3,r4,r22
 200a53c:	a0800015 	stw	r2,0(r20)
 200a540:	a1000115 	stw	r4,4(r20)
 200a544:	d8c12015 	stw	r3,1152(sp)
 200a548:	dc811f15 	stw	r18,1148(sp)
 200a54c:	008001c4 	movi	r2,7
 200a550:	14bf2c16 	blt	r2,r18,200a204 <__reset+0xfe001204>
 200a554:	a2000204 	addi	r8,r20,8
 200a558:	003da006 	br	2009bdc <__reset+0xfe000bdc>
 200a55c:	d9412a17 	ldw	r5,1192(sp)
 200a560:	2888703a 	and	r4,r5,r2
 200a564:	203fc91e 	bne	r4,zero,200a48c <__reset+0xfe00148c>
 200a568:	dc811f17 	ldw	r18,1148(sp)
 200a56c:	1d800044 	addi	r22,r3,1
 200a570:	40800115 	stw	r2,4(r8)
 200a574:	94800044 	addi	r18,r18,1
 200a578:	44000015 	stw	r16,0(r8)
 200a57c:	dd812015 	stw	r22,1152(sp)
 200a580:	dc811f15 	stw	r18,1148(sp)
 200a584:	008001c4 	movi	r2,7
 200a588:	1482740e 	bge	r2,r18,200af5c <___vfprintf_internal_r+0x1bc0>
 200a58c:	d9012c17 	ldw	r4,1200(sp)
 200a590:	980b883a 	mov	r5,r19
 200a594:	d9811e04 	addi	r6,sp,1144
 200a598:	200e7c00 	call	200e7c0 <__sprint_r>
 200a59c:	103c9b1e 	bne	r2,zero,200980c <__reset+0xfe00080c>
 200a5a0:	dd812017 	ldw	r22,1152(sp)
 200a5a4:	dc811f17 	ldw	r18,1148(sp)
 200a5a8:	dd000404 	addi	r20,sp,16
 200a5ac:	003fdf06 	br	200a52c <__reset+0xfe00152c>
 200a5b0:	d9012c17 	ldw	r4,1200(sp)
 200a5b4:	980b883a 	mov	r5,r19
 200a5b8:	d9811e04 	addi	r6,sp,1144
 200a5bc:	200e7c00 	call	200e7c0 <__sprint_r>
 200a5c0:	103dc326 	beq	r2,zero,2009cd0 <__reset+0xfe000cd0>
 200a5c4:	003c9106 	br	200980c <__reset+0xfe00080c>
 200a5c8:	d8c10dc4 	addi	r3,sp,1079
 200a5cc:	a808d0fa 	srli	r4,r21,3
 200a5d0:	b00a977a 	slli	r5,r22,29
 200a5d4:	b02cd0fa 	srli	r22,r22,3
 200a5d8:	ad4001cc 	andi	r21,r21,7
 200a5dc:	a8800c04 	addi	r2,r21,48
 200a5e0:	292ab03a 	or	r21,r5,r4
 200a5e4:	18800005 	stb	r2,0(r3)
 200a5e8:	ad88b03a 	or	r4,r21,r22
 200a5ec:	1821883a 	mov	r16,r3
 200a5f0:	18ffffc4 	addi	r3,r3,-1
 200a5f4:	203ff51e 	bne	r4,zero,200a5cc <__reset+0xfe0015cc>
 200a5f8:	d9412a17 	ldw	r5,1192(sp)
 200a5fc:	2900004c 	andi	r4,r5,1
 200a600:	800b883a 	mov	r5,r16
 200a604:	203f1a26 	beq	r4,zero,200a270 <__reset+0xfe001270>
 200a608:	10803fcc 	andi	r2,r2,255
 200a60c:	1080201c 	xori	r2,r2,128
 200a610:	10bfe004 	addi	r2,r2,-128
 200a614:	01000c04 	movi	r4,48
 200a618:	113f1526 	beq	r2,r4,200a270 <__reset+0xfe001270>
 200a61c:	1821883a 	mov	r16,r3
 200a620:	d8c12917 	ldw	r3,1188(sp)
 200a624:	293fffc5 	stb	r4,-1(r5)
 200a628:	1c07c83a 	sub	r3,r3,r16
 200a62c:	d8c12e15 	stw	r3,1208(sp)
 200a630:	003cbe06 	br	200992c <__reset+0xfe00092c>
 200a634:	d9012c17 	ldw	r4,1200(sp)
 200a638:	980b883a 	mov	r5,r19
 200a63c:	d9811e04 	addi	r6,sp,1144
 200a640:	200e7c00 	call	200e7c0 <__sprint_r>
 200a644:	103c711e 	bne	r2,zero,200980c <__reset+0xfe00080c>
 200a648:	d8c12017 	ldw	r3,1152(sp)
 200a64c:	da000404 	addi	r8,sp,16
 200a650:	003d5306 	br	2009ba0 <__reset+0xfe000ba0>
 200a654:	d9012c17 	ldw	r4,1200(sp)
 200a658:	980b883a 	mov	r5,r19
 200a65c:	d9811e04 	addi	r6,sp,1144
 200a660:	200e7c00 	call	200e7c0 <__sprint_r>
 200a664:	103c691e 	bne	r2,zero,200980c <__reset+0xfe00080c>
 200a668:	d8c12017 	ldw	r3,1152(sp)
 200a66c:	da000404 	addi	r8,sp,16
 200a670:	003d0a06 	br	2009a9c <__reset+0xfe000a9c>
 200a674:	d9012c17 	ldw	r4,1200(sp)
 200a678:	980b883a 	mov	r5,r19
 200a67c:	d9811e04 	addi	r6,sp,1144
 200a680:	200e7c00 	call	200e7c0 <__sprint_r>
 200a684:	103c611e 	bne	r2,zero,200980c <__reset+0xfe00080c>
 200a688:	d8c12017 	ldw	r3,1152(sp)
 200a68c:	da000404 	addi	r8,sp,16
 200a690:	003d1006 	br	2009ad4 <__reset+0xfe000ad4>
 200a694:	b000021e 	bne	r22,zero,200a6a0 <___vfprintf_internal_r+0x1304>
 200a698:	00800244 	movi	r2,9
 200a69c:	15401c2e 	bgeu	r2,r21,200a710 <___vfprintf_internal_r+0x1374>
 200a6a0:	dc412b15 	stw	r17,1196(sp)
 200a6a4:	d8810dc4 	addi	r2,sp,1079
 200a6a8:	b023883a 	mov	r17,r22
 200a6ac:	402d883a 	mov	r22,r8
 200a6b0:	a809883a 	mov	r4,r21
 200a6b4:	880b883a 	mov	r5,r17
 200a6b8:	01800284 	movi	r6,10
 200a6bc:	000f883a 	mov	r7,zero
 200a6c0:	1021883a 	mov	r16,r2
 200a6c4:	2010da80 	call	2010da8 <__umoddi3>
 200a6c8:	10800c04 	addi	r2,r2,48
 200a6cc:	a809883a 	mov	r4,r21
 200a6d0:	880b883a 	mov	r5,r17
 200a6d4:	80800005 	stb	r2,0(r16)
 200a6d8:	01800284 	movi	r6,10
 200a6dc:	000f883a 	mov	r7,zero
 200a6e0:	20107540 	call	2010754 <__udivdi3>
 200a6e4:	1823883a 	mov	r17,r3
 200a6e8:	10c6b03a 	or	r3,r2,r3
 200a6ec:	102b883a 	mov	r21,r2
 200a6f0:	80bfffc4 	addi	r2,r16,-1
 200a6f4:	183fee1e 	bne	r3,zero,200a6b0 <__reset+0xfe0016b0>
 200a6f8:	d8c12917 	ldw	r3,1188(sp)
 200a6fc:	b011883a 	mov	r8,r22
 200a700:	dc412b17 	ldw	r17,1196(sp)
 200a704:	1c07c83a 	sub	r3,r3,r16
 200a708:	d8c12e15 	stw	r3,1208(sp)
 200a70c:	003c8706 	br	200992c <__reset+0xfe00092c>
 200a710:	d9013d17 	ldw	r4,1268(sp)
 200a714:	ad400c04 	addi	r21,r21,48
 200a718:	dd410dc5 	stb	r21,1079(sp)
 200a71c:	d9012e15 	stw	r4,1208(sp)
 200a720:	dc010dc4 	addi	r16,sp,1079
 200a724:	003c8106 	br	200992c <__reset+0xfe00092c>
 200a728:	d8012e15 	stw	zero,1208(sp)
 200a72c:	dc010e04 	addi	r16,sp,1080
 200a730:	003c7e06 	br	200992c <__reset+0xfe00092c>
 200a734:	d8812617 	ldw	r2,1176(sp)
 200a738:	0081940e 	bge	zero,r2,200ad8c <___vfprintf_internal_r+0x19f0>
 200a73c:	d9413517 	ldw	r5,1236(sp)
 200a740:	d8813317 	ldw	r2,1228(sp)
 200a744:	8165883a 	add	r18,r16,r5
 200a748:	9429c83a 	sub	r20,r18,r16
 200a74c:	1500010e 	bge	r2,r20,200a754 <___vfprintf_internal_r+0x13b8>
 200a750:	1029883a 	mov	r20,r2
 200a754:	05000a0e 	bge	zero,r20,200a780 <___vfprintf_internal_r+0x13e4>
 200a758:	d8811f17 	ldw	r2,1148(sp)
 200a75c:	1d07883a 	add	r3,r3,r20
 200a760:	44000015 	stw	r16,0(r8)
 200a764:	10800044 	addi	r2,r2,1
 200a768:	45000115 	stw	r20,4(r8)
 200a76c:	d8c12015 	stw	r3,1152(sp)
 200a770:	d8811f15 	stw	r2,1148(sp)
 200a774:	010001c4 	movi	r4,7
 200a778:	20822b16 	blt	r4,r2,200b028 <___vfprintf_internal_r+0x1c8c>
 200a77c:	42000204 	addi	r8,r8,8
 200a780:	a0022716 	blt	r20,zero,200b020 <___vfprintf_internal_r+0x1c84>
 200a784:	d9013317 	ldw	r4,1228(sp)
 200a788:	2529c83a 	sub	r20,r4,r20
 200a78c:	0500530e 	bge	zero,r20,200a8dc <___vfprintf_internal_r+0x1540>
 200a790:	05800404 	movi	r22,16
 200a794:	d8811f17 	ldw	r2,1148(sp)
 200a798:	054080b4 	movhi	r21,514
 200a79c:	ad7bc584 	addi	r21,r21,-4330
 200a7a0:	b501680e 	bge	r22,r20,200ad44 <___vfprintf_internal_r+0x19a8>
 200a7a4:	8809883a 	mov	r4,r17
 200a7a8:	dc012e15 	stw	r16,1208(sp)
 200a7ac:	a023883a 	mov	r17,r20
 200a7b0:	070001c4 	movi	fp,7
 200a7b4:	dc012c17 	ldw	r16,1200(sp)
 200a7b8:	2029883a 	mov	r20,r4
 200a7bc:	00000306 	br	200a7cc <___vfprintf_internal_r+0x1430>
 200a7c0:	42000204 	addi	r8,r8,8
 200a7c4:	8c7ffc04 	addi	r17,r17,-16
 200a7c8:	b4415a0e 	bge	r22,r17,200ad34 <___vfprintf_internal_r+0x1998>
 200a7cc:	18c00404 	addi	r3,r3,16
 200a7d0:	10800044 	addi	r2,r2,1
 200a7d4:	45c00015 	stw	r23,0(r8)
 200a7d8:	45800115 	stw	r22,4(r8)
 200a7dc:	d8c12015 	stw	r3,1152(sp)
 200a7e0:	d8811f15 	stw	r2,1148(sp)
 200a7e4:	e0bff60e 	bge	fp,r2,200a7c0 <__reset+0xfe0017c0>
 200a7e8:	8009883a 	mov	r4,r16
 200a7ec:	980b883a 	mov	r5,r19
 200a7f0:	d9811e04 	addi	r6,sp,1144
 200a7f4:	200e7c00 	call	200e7c0 <__sprint_r>
 200a7f8:	103c041e 	bne	r2,zero,200980c <__reset+0xfe00080c>
 200a7fc:	d8c12017 	ldw	r3,1152(sp)
 200a800:	d8811f17 	ldw	r2,1148(sp)
 200a804:	da000404 	addi	r8,sp,16
 200a808:	003fee06 	br	200a7c4 <__reset+0xfe0017c4>
 200a80c:	d9012c17 	ldw	r4,1200(sp)
 200a810:	980b883a 	mov	r5,r19
 200a814:	d9811e04 	addi	r6,sp,1144
 200a818:	200e7c00 	call	200e7c0 <__sprint_r>
 200a81c:	103bfb1e 	bne	r2,zero,200980c <__reset+0xfe00080c>
 200a820:	d8c12017 	ldw	r3,1152(sp)
 200a824:	d8812787 	ldb	r2,1182(sp)
 200a828:	da000404 	addi	r8,sp,16
 200a82c:	003c8e06 	br	2009a68 <__reset+0xfe000a68>
 200a830:	d9413517 	ldw	r5,1236(sp)
 200a834:	2c3fffc4 	addi	r16,r5,-1
 200a838:	043f3c0e 	bge	zero,r16,200a52c <__reset+0xfe00152c>
 200a83c:	07000404 	movi	fp,16
 200a840:	054080b4 	movhi	r21,514
 200a844:	ad7bc584 	addi	r21,r21,-4330
 200a848:	e4007c0e 	bge	fp,r16,200aa3c <___vfprintf_internal_r+0x16a0>
 200a84c:	dc412e15 	stw	r17,1208(sp)
 200a850:	00c001c4 	movi	r3,7
 200a854:	8023883a 	mov	r17,r16
 200a858:	dc012c17 	ldw	r16,1200(sp)
 200a85c:	00000306 	br	200a86c <___vfprintf_internal_r+0x14d0>
 200a860:	a5000204 	addi	r20,r20,8
 200a864:	8c7ffc04 	addi	r17,r17,-16
 200a868:	e440720e 	bge	fp,r17,200aa34 <___vfprintf_internal_r+0x1698>
 200a86c:	b5800404 	addi	r22,r22,16
 200a870:	94800044 	addi	r18,r18,1
 200a874:	a5c00015 	stw	r23,0(r20)
 200a878:	a7000115 	stw	fp,4(r20)
 200a87c:	dd812015 	stw	r22,1152(sp)
 200a880:	dc811f15 	stw	r18,1148(sp)
 200a884:	1cbff60e 	bge	r3,r18,200a860 <__reset+0xfe001860>
 200a888:	8009883a 	mov	r4,r16
 200a88c:	980b883a 	mov	r5,r19
 200a890:	d9811e04 	addi	r6,sp,1144
 200a894:	d8c13e15 	stw	r3,1272(sp)
 200a898:	200e7c00 	call	200e7c0 <__sprint_r>
 200a89c:	d8c13e17 	ldw	r3,1272(sp)
 200a8a0:	103bda1e 	bne	r2,zero,200980c <__reset+0xfe00080c>
 200a8a4:	dd812017 	ldw	r22,1152(sp)
 200a8a8:	dc811f17 	ldw	r18,1148(sp)
 200a8ac:	dd000404 	addi	r20,sp,16
 200a8b0:	003fec06 	br	200a864 <__reset+0xfe001864>
 200a8b4:	00c00084 	movi	r3,2
 200a8b8:	ad84b03a 	or	r2,r21,r22
 200a8bc:	003d5c06 	br	2009e30 <__reset+0xfe000e30>
 200a8c0:	d9012c17 	ldw	r4,1200(sp)
 200a8c4:	980b883a 	mov	r5,r19
 200a8c8:	d9811e04 	addi	r6,sp,1144
 200a8cc:	200e7c00 	call	200e7c0 <__sprint_r>
 200a8d0:	103bce1e 	bne	r2,zero,200980c <__reset+0xfe00080c>
 200a8d4:	d8c12017 	ldw	r3,1152(sp)
 200a8d8:	da000404 	addi	r8,sp,16
 200a8dc:	d9413317 	ldw	r5,1228(sp)
 200a8e0:	d8812617 	ldw	r2,1176(sp)
 200a8e4:	d9013517 	ldw	r4,1236(sp)
 200a8e8:	8161883a 	add	r16,r16,r5
 200a8ec:	11000316 	blt	r2,r4,200a8fc <___vfprintf_internal_r+0x1560>
 200a8f0:	d9412a17 	ldw	r5,1192(sp)
 200a8f4:	2900004c 	andi	r4,r5,1
 200a8f8:	20000d26 	beq	r4,zero,200a930 <___vfprintf_internal_r+0x1594>
 200a8fc:	d9013817 	ldw	r4,1248(sp)
 200a900:	d9413417 	ldw	r5,1232(sp)
 200a904:	1907883a 	add	r3,r3,r4
 200a908:	d9011f17 	ldw	r4,1148(sp)
 200a90c:	41400015 	stw	r5,0(r8)
 200a910:	d9413817 	ldw	r5,1248(sp)
 200a914:	21000044 	addi	r4,r4,1
 200a918:	d8c12015 	stw	r3,1152(sp)
 200a91c:	41400115 	stw	r5,4(r8)
 200a920:	d9011f15 	stw	r4,1148(sp)
 200a924:	014001c4 	movi	r5,7
 200a928:	2901c716 	blt	r5,r4,200b048 <___vfprintf_internal_r+0x1cac>
 200a92c:	42000204 	addi	r8,r8,8
 200a930:	d9013517 	ldw	r4,1236(sp)
 200a934:	9425c83a 	sub	r18,r18,r16
 200a938:	2085c83a 	sub	r2,r4,r2
 200a93c:	1029883a 	mov	r20,r2
 200a940:	9080010e 	bge	r18,r2,200a948 <___vfprintf_internal_r+0x15ac>
 200a944:	9029883a 	mov	r20,r18
 200a948:	05000a0e 	bge	zero,r20,200a974 <___vfprintf_internal_r+0x15d8>
 200a94c:	d9011f17 	ldw	r4,1148(sp)
 200a950:	1d07883a 	add	r3,r3,r20
 200a954:	44000015 	stw	r16,0(r8)
 200a958:	21000044 	addi	r4,r4,1
 200a95c:	45000115 	stw	r20,4(r8)
 200a960:	d8c12015 	stw	r3,1152(sp)
 200a964:	d9011f15 	stw	r4,1148(sp)
 200a968:	014001c4 	movi	r5,7
 200a96c:	2901dd16 	blt	r5,r4,200b0e4 <___vfprintf_internal_r+0x1d48>
 200a970:	42000204 	addi	r8,r8,8
 200a974:	a001d916 	blt	r20,zero,200b0dc <___vfprintf_internal_r+0x1d40>
 200a978:	1521c83a 	sub	r16,r2,r20
 200a97c:	043c970e 	bge	zero,r16,2009bdc <__reset+0xfe000bdc>
 200a980:	04800404 	movi	r18,16
 200a984:	d8811f17 	ldw	r2,1148(sp)
 200a988:	054080b4 	movhi	r21,514
 200a98c:	ad7bc584 	addi	r21,r21,-4330
 200a990:	943e140e 	bge	r18,r16,200a1e4 <__reset+0xfe0011e4>
 200a994:	050001c4 	movi	r20,7
 200a998:	dd812c17 	ldw	r22,1200(sp)
 200a99c:	00000306 	br	200a9ac <___vfprintf_internal_r+0x1610>
 200a9a0:	42000204 	addi	r8,r8,8
 200a9a4:	843ffc04 	addi	r16,r16,-16
 200a9a8:	943e0e0e 	bge	r18,r16,200a1e4 <__reset+0xfe0011e4>
 200a9ac:	18c00404 	addi	r3,r3,16
 200a9b0:	10800044 	addi	r2,r2,1
 200a9b4:	45c00015 	stw	r23,0(r8)
 200a9b8:	44800115 	stw	r18,4(r8)
 200a9bc:	d8c12015 	stw	r3,1152(sp)
 200a9c0:	d8811f15 	stw	r2,1148(sp)
 200a9c4:	a0bff60e 	bge	r20,r2,200a9a0 <__reset+0xfe0019a0>
 200a9c8:	b009883a 	mov	r4,r22
 200a9cc:	980b883a 	mov	r5,r19
 200a9d0:	d9811e04 	addi	r6,sp,1144
 200a9d4:	200e7c00 	call	200e7c0 <__sprint_r>
 200a9d8:	103b8c1e 	bne	r2,zero,200980c <__reset+0xfe00080c>
 200a9dc:	d8c12017 	ldw	r3,1152(sp)
 200a9e0:	d8811f17 	ldw	r2,1148(sp)
 200a9e4:	da000404 	addi	r8,sp,16
 200a9e8:	003fee06 	br	200a9a4 <__reset+0xfe0019a4>
 200a9ec:	d9012c17 	ldw	r4,1200(sp)
 200a9f0:	980b883a 	mov	r5,r19
 200a9f4:	d9811e04 	addi	r6,sp,1144
 200a9f8:	200e7c00 	call	200e7c0 <__sprint_r>
 200a9fc:	103b831e 	bne	r2,zero,200980c <__reset+0xfe00080c>
 200aa00:	d8c12017 	ldw	r3,1152(sp)
 200aa04:	dc811f17 	ldw	r18,1148(sp)
 200aa08:	da000404 	addi	r8,sp,16
 200aa0c:	003eaa06 	br	200a4b8 <__reset+0xfe0014b8>
 200aa10:	d9012c17 	ldw	r4,1200(sp)
 200aa14:	980b883a 	mov	r5,r19
 200aa18:	d9811e04 	addi	r6,sp,1144
 200aa1c:	200e7c00 	call	200e7c0 <__sprint_r>
 200aa20:	103b7a1e 	bne	r2,zero,200980c <__reset+0xfe00080c>
 200aa24:	dd812017 	ldw	r22,1152(sp)
 200aa28:	dc811f17 	ldw	r18,1148(sp)
 200aa2c:	dd000404 	addi	r20,sp,16
 200aa30:	003eac06 	br	200a4e4 <__reset+0xfe0014e4>
 200aa34:	8821883a 	mov	r16,r17
 200aa38:	dc412e17 	ldw	r17,1208(sp)
 200aa3c:	b42d883a 	add	r22,r22,r16
 200aa40:	94800044 	addi	r18,r18,1
 200aa44:	a5400015 	stw	r21,0(r20)
 200aa48:	a4000115 	stw	r16,4(r20)
 200aa4c:	dd812015 	stw	r22,1152(sp)
 200aa50:	dc811f15 	stw	r18,1148(sp)
 200aa54:	008001c4 	movi	r2,7
 200aa58:	14beb30e 	bge	r2,r18,200a528 <__reset+0xfe001528>
 200aa5c:	003ecb06 	br	200a58c <__reset+0xfe00158c>
 200aa60:	d9012c17 	ldw	r4,1200(sp)
 200aa64:	980b883a 	mov	r5,r19
 200aa68:	d9811e04 	addi	r6,sp,1144
 200aa6c:	200e7c00 	call	200e7c0 <__sprint_r>
 200aa70:	103b661e 	bne	r2,zero,200980c <__reset+0xfe00080c>
 200aa74:	d8c12017 	ldw	r3,1152(sp)
 200aa78:	da000404 	addi	r8,sp,16
 200aa7c:	003c1806 	br	2009ae0 <__reset+0xfe000ae0>
 200aa80:	056bc83a 	sub	r21,zero,r21
 200aa84:	a804c03a 	cmpne	r2,r21,zero
 200aa88:	05adc83a 	sub	r22,zero,r22
 200aa8c:	07000b44 	movi	fp,45
 200aa90:	b0adc83a 	sub	r22,r22,r2
 200aa94:	df012785 	stb	fp,1182(sp)
 200aa98:	00c00044 	movi	r3,1
 200aa9c:	ad84b03a 	or	r2,r21,r22
 200aaa0:	003b9106 	br	20098e8 <__reset+0xfe0008e8>
 200aaa4:	da013f15 	stw	r8,1276(sp)
 200aaa8:	200e52c0 	call	200e52c <__fpclassifyd>
 200aaac:	da013f17 	ldw	r8,1276(sp)
 200aab0:	1000f226 	beq	r2,zero,200ae7c <___vfprintf_internal_r+0x1ae0>
 200aab4:	05bff7c4 	movi	r22,-33
 200aab8:	00bfffc4 	movi	r2,-1
 200aabc:	95ac703a 	and	r22,r18,r22
 200aac0:	a0820b26 	beq	r20,r2,200b2f0 <___vfprintf_internal_r+0x1f54>
 200aac4:	008011c4 	movi	r2,71
 200aac8:	b081fc26 	beq	r22,r2,200b2bc <___vfprintf_internal_r+0x1f20>
 200aacc:	d8c12a17 	ldw	r3,1192(sp)
 200aad0:	d9013917 	ldw	r4,1252(sp)
 200aad4:	18c04014 	ori	r3,r3,256
 200aad8:	d8c12d15 	stw	r3,1204(sp)
 200aadc:	20020616 	blt	r4,zero,200b2f8 <___vfprintf_internal_r+0x1f5c>
 200aae0:	dd413917 	ldw	r21,1252(sp)
 200aae4:	d8012b05 	stb	zero,1196(sp)
 200aae8:	00801984 	movi	r2,102
 200aaec:	9081a526 	beq	r18,r2,200b184 <___vfprintf_internal_r+0x1de8>
 200aaf0:	00801184 	movi	r2,70
 200aaf4:	9081a326 	beq	r18,r2,200b184 <___vfprintf_internal_r+0x1de8>
 200aaf8:	00801144 	movi	r2,69
 200aafc:	b0820226 	beq	r22,r2,200b308 <___vfprintf_internal_r+0x1f6c>
 200ab00:	a039883a 	mov	fp,r20
 200ab04:	d8812604 	addi	r2,sp,1176
 200ab08:	d8800115 	stw	r2,4(sp)
 200ab0c:	d9012c17 	ldw	r4,1200(sp)
 200ab10:	d8812504 	addi	r2,sp,1172
 200ab14:	d9413717 	ldw	r5,1244(sp)
 200ab18:	d8800215 	stw	r2,8(sp)
 200ab1c:	d8812104 	addi	r2,sp,1156
 200ab20:	df000015 	stw	fp,0(sp)
 200ab24:	d8800315 	stw	r2,12(sp)
 200ab28:	a80d883a 	mov	r6,r21
 200ab2c:	01c00084 	movi	r7,2
 200ab30:	da013f15 	stw	r8,1276(sp)
 200ab34:	200b9440 	call	200b944 <_dtoa_r>
 200ab38:	1021883a 	mov	r16,r2
 200ab3c:	008019c4 	movi	r2,103
 200ab40:	da013f17 	ldw	r8,1276(sp)
 200ab44:	90800226 	beq	r18,r2,200ab50 <___vfprintf_internal_r+0x17b4>
 200ab48:	008011c4 	movi	r2,71
 200ab4c:	9080031e 	bne	r18,r2,200ab5c <___vfprintf_internal_r+0x17c0>
 200ab50:	d9012a17 	ldw	r4,1192(sp)
 200ab54:	2080004c 	andi	r2,r4,1
 200ab58:	1001fe26 	beq	r2,zero,200b354 <___vfprintf_internal_r+0x1fb8>
 200ab5c:	00801184 	movi	r2,70
 200ab60:	8713883a 	add	r9,r16,fp
 200ab64:	b0819f26 	beq	r22,r2,200b1e4 <___vfprintf_internal_r+0x1e48>
 200ab68:	d9013717 	ldw	r4,1244(sp)
 200ab6c:	a80b883a 	mov	r5,r21
 200ab70:	000d883a 	mov	r6,zero
 200ab74:	000f883a 	mov	r7,zero
 200ab78:	da013f15 	stw	r8,1276(sp)
 200ab7c:	da413e15 	stw	r9,1272(sp)
 200ab80:	2011c580 	call	2011c58 <__eqdf2>
 200ab84:	da013f17 	ldw	r8,1276(sp)
 200ab88:	da413e17 	ldw	r9,1272(sp)
 200ab8c:	10017b26 	beq	r2,zero,200b17c <___vfprintf_internal_r+0x1de0>
 200ab90:	d8812117 	ldw	r2,1156(sp)
 200ab94:	1240062e 	bgeu	r2,r9,200abb0 <___vfprintf_internal_r+0x1814>
 200ab98:	01000c04 	movi	r4,48
 200ab9c:	10c00044 	addi	r3,r2,1
 200aba0:	d8c12115 	stw	r3,1156(sp)
 200aba4:	11000005 	stb	r4,0(r2)
 200aba8:	d8812117 	ldw	r2,1156(sp)
 200abac:	127ffb36 	bltu	r2,r9,200ab9c <__reset+0xfe001b9c>
 200abb0:	1405c83a 	sub	r2,r2,r16
 200abb4:	d8813515 	stw	r2,1236(sp)
 200abb8:	008011c4 	movi	r2,71
 200abbc:	b0816926 	beq	r22,r2,200b164 <___vfprintf_internal_r+0x1dc8>
 200abc0:	00801944 	movi	r2,101
 200abc4:	14823f0e 	bge	r2,r18,200b4c4 <___vfprintf_internal_r+0x2128>
 200abc8:	d8c12617 	ldw	r3,1176(sp)
 200abcc:	00801984 	movi	r2,102
 200abd0:	d8c13315 	stw	r3,1228(sp)
 200abd4:	9081e126 	beq	r18,r2,200b35c <___vfprintf_internal_r+0x1fc0>
 200abd8:	d8c13317 	ldw	r3,1228(sp)
 200abdc:	d9013517 	ldw	r4,1236(sp)
 200abe0:	1901cb16 	blt	r3,r4,200b310 <___vfprintf_internal_r+0x1f74>
 200abe4:	d9412a17 	ldw	r5,1192(sp)
 200abe8:	2880004c 	andi	r2,r5,1
 200abec:	1001d11e 	bne	r2,zero,200b334 <___vfprintf_internal_r+0x1f98>
 200abf0:	1805883a 	mov	r2,r3
 200abf4:	18023116 	blt	r3,zero,200b4bc <___vfprintf_internal_r+0x2120>
 200abf8:	d8c13317 	ldw	r3,1228(sp)
 200abfc:	048019c4 	movi	r18,103
 200ac00:	d8c12e15 	stw	r3,1208(sp)
 200ac04:	df012b07 	ldb	fp,1196(sp)
 200ac08:	e0014e1e 	bne	fp,zero,200b144 <___vfprintf_internal_r+0x1da8>
 200ac0c:	d8c12d17 	ldw	r3,1204(sp)
 200ac10:	df012783 	ldbu	fp,1182(sp)
 200ac14:	d8812b15 	stw	r2,1196(sp)
 200ac18:	d8c12a15 	stw	r3,1192(sp)
 200ac1c:	0029883a 	mov	r20,zero
 200ac20:	003b4706 	br	2009940 <__reset+0xfe000940>
 200ac24:	d8c12f17 	ldw	r3,1212(sp)
 200ac28:	d9012f17 	ldw	r4,1212(sp)
 200ac2c:	d9412f17 	ldw	r5,1212(sp)
 200ac30:	18c00017 	ldw	r3,0(r3)
 200ac34:	21000117 	ldw	r4,4(r4)
 200ac38:	29400204 	addi	r5,r5,8
 200ac3c:	d8c13715 	stw	r3,1244(sp)
 200ac40:	d9013915 	stw	r4,1252(sp)
 200ac44:	d9412f15 	stw	r5,1212(sp)
 200ac48:	003c3606 	br	2009d24 <__reset+0xfe000d24>
 200ac4c:	d9412a17 	ldw	r5,1192(sp)
 200ac50:	2880100c 	andi	r2,r5,64
 200ac54:	1000b026 	beq	r2,zero,200af18 <___vfprintf_internal_r+0x1b7c>
 200ac58:	d8812f17 	ldw	r2,1212(sp)
 200ac5c:	002d883a 	mov	r22,zero
 200ac60:	00c00044 	movi	r3,1
 200ac64:	1540000b 	ldhu	r21,0(r2)
 200ac68:	10800104 	addi	r2,r2,4
 200ac6c:	d8812f15 	stw	r2,1212(sp)
 200ac70:	a805883a 	mov	r2,r21
 200ac74:	003c6e06 	br	2009e30 <__reset+0xfe000e30>
 200ac78:	00c00084 	movi	r3,2
 200ac7c:	003c6c06 	br	2009e30 <__reset+0xfe000e30>
 200ac80:	d9412a17 	ldw	r5,1192(sp)
 200ac84:	2880100c 	andi	r2,r5,64
 200ac88:	10009b26 	beq	r2,zero,200aef8 <___vfprintf_internal_r+0x1b5c>
 200ac8c:	d8812f17 	ldw	r2,1212(sp)
 200ac90:	002d883a 	mov	r22,zero
 200ac94:	0007883a 	mov	r3,zero
 200ac98:	1540000b 	ldhu	r21,0(r2)
 200ac9c:	10800104 	addi	r2,r2,4
 200aca0:	d8812f15 	stw	r2,1212(sp)
 200aca4:	a805883a 	mov	r2,r21
 200aca8:	003c6106 	br	2009e30 <__reset+0xfe000e30>
 200acac:	8c800007 	ldb	r18,0(r17)
 200acb0:	003a1f06 	br	2009530 <__reset+0xfe000530>
 200acb4:	d9412a17 	ldw	r5,1192(sp)
 200acb8:	2880100c 	andi	r2,r5,64
 200acbc:	10009e26 	beq	r2,zero,200af38 <___vfprintf_internal_r+0x1b9c>
 200acc0:	d8812f17 	ldw	r2,1212(sp)
 200acc4:	002d883a 	mov	r22,zero
 200acc8:	1540000b 	ldhu	r21,0(r2)
 200accc:	10800104 	addi	r2,r2,4
 200acd0:	d8812f15 	stw	r2,1212(sp)
 200acd4:	003c9506 	br	2009f2c <__reset+0xfe000f2c>
 200acd8:	d9412a17 	ldw	r5,1192(sp)
 200acdc:	2880040c 	andi	r2,r5,16
 200ace0:	10007e1e 	bne	r2,zero,200aedc <___vfprintf_internal_r+0x1b40>
 200ace4:	d9412a17 	ldw	r5,1192(sp)
 200ace8:	2880100c 	andi	r2,r5,64
 200acec:	10010826 	beq	r2,zero,200b110 <___vfprintf_internal_r+0x1d74>
 200acf0:	d8c12f17 	ldw	r3,1212(sp)
 200acf4:	d9013117 	ldw	r4,1220(sp)
 200acf8:	18800017 	ldw	r2,0(r3)
 200acfc:	18c00104 	addi	r3,r3,4
 200ad00:	d8c12f15 	stw	r3,1212(sp)
 200ad04:	1100000d 	sth	r4,0(r2)
 200ad08:	0039e206 	br	2009494 <__reset+0xfe000494>
 200ad0c:	d8c12a17 	ldw	r3,1192(sp)
 200ad10:	1880100c 	andi	r2,r3,64
 200ad14:	10006a26 	beq	r2,zero,200aec0 <___vfprintf_internal_r+0x1b24>
 200ad18:	d9012f17 	ldw	r4,1212(sp)
 200ad1c:	2540000f 	ldh	r21,0(r4)
 200ad20:	21000104 	addi	r4,r4,4
 200ad24:	d9012f15 	stw	r4,1212(sp)
 200ad28:	a82dd7fa 	srai	r22,r21,31
 200ad2c:	b005883a 	mov	r2,r22
 200ad30:	003ae906 	br	20098d8 <__reset+0xfe0008d8>
 200ad34:	dc012e17 	ldw	r16,1208(sp)
 200ad38:	a009883a 	mov	r4,r20
 200ad3c:	8829883a 	mov	r20,r17
 200ad40:	2023883a 	mov	r17,r4
 200ad44:	1d07883a 	add	r3,r3,r20
 200ad48:	10800044 	addi	r2,r2,1
 200ad4c:	45400015 	stw	r21,0(r8)
 200ad50:	45000115 	stw	r20,4(r8)
 200ad54:	d8c12015 	stw	r3,1152(sp)
 200ad58:	d8811f15 	stw	r2,1148(sp)
 200ad5c:	010001c4 	movi	r4,7
 200ad60:	20bed716 	blt	r4,r2,200a8c0 <__reset+0xfe0018c0>
 200ad64:	42000204 	addi	r8,r8,8
 200ad68:	003edc06 	br	200a8dc <__reset+0xfe0018dc>
 200ad6c:	d9012c17 	ldw	r4,1200(sp)
 200ad70:	980b883a 	mov	r5,r19
 200ad74:	d9811e04 	addi	r6,sp,1144
 200ad78:	200e7c00 	call	200e7c0 <__sprint_r>
 200ad7c:	103aa31e 	bne	r2,zero,200980c <__reset+0xfe00080c>
 200ad80:	d8c12017 	ldw	r3,1152(sp)
 200ad84:	da000404 	addi	r8,sp,16
 200ad88:	003d5606 	br	200a2e4 <__reset+0xfe0012e4>
 200ad8c:	d9011f17 	ldw	r4,1148(sp)
 200ad90:	014080b4 	movhi	r5,514
 200ad94:	297bc504 	addi	r5,r5,-4332
 200ad98:	18c00044 	addi	r3,r3,1
 200ad9c:	21000044 	addi	r4,r4,1
 200ada0:	41400015 	stw	r5,0(r8)
 200ada4:	01400044 	movi	r5,1
 200ada8:	41400115 	stw	r5,4(r8)
 200adac:	d8c12015 	stw	r3,1152(sp)
 200adb0:	d9011f15 	stw	r4,1148(sp)
 200adb4:	014001c4 	movi	r5,7
 200adb8:	29006a16 	blt	r5,r4,200af64 <___vfprintf_internal_r+0x1bc8>
 200adbc:	42000204 	addi	r8,r8,8
 200adc0:	1025883a 	mov	r18,r2
 200adc4:	9000051e 	bne	r18,zero,200addc <___vfprintf_internal_r+0x1a40>
 200adc8:	d8813517 	ldw	r2,1236(sp)
 200adcc:	1000031e 	bne	r2,zero,200addc <___vfprintf_internal_r+0x1a40>
 200add0:	d9012a17 	ldw	r4,1192(sp)
 200add4:	2080004c 	andi	r2,r4,1
 200add8:	103b8026 	beq	r2,zero,2009bdc <__reset+0xfe000bdc>
 200addc:	d8813417 	ldw	r2,1232(sp)
 200ade0:	d9413817 	ldw	r5,1248(sp)
 200ade4:	010001c4 	movi	r4,7
 200ade8:	40800015 	stw	r2,0(r8)
 200adec:	d8811f17 	ldw	r2,1148(sp)
 200adf0:	1947883a 	add	r3,r3,r5
 200adf4:	41400115 	stw	r5,4(r8)
 200adf8:	10800044 	addi	r2,r2,1
 200adfc:	d8c12015 	stw	r3,1152(sp)
 200ae00:	d8811f15 	stw	r2,1148(sp)
 200ae04:	20813016 	blt	r4,r2,200b2c8 <___vfprintf_internal_r+0x1f2c>
 200ae08:	42000204 	addi	r8,r8,8
 200ae0c:	04a5c83a 	sub	r18,zero,r18
 200ae10:	04807a0e 	bge	zero,r18,200affc <___vfprintf_internal_r+0x1c60>
 200ae14:	05000404 	movi	r20,16
 200ae18:	054080b4 	movhi	r21,514
 200ae1c:	ad7bc584 	addi	r21,r21,-4330
 200ae20:	a480920e 	bge	r20,r18,200b06c <___vfprintf_internal_r+0x1cd0>
 200ae24:	058001c4 	movi	r22,7
 200ae28:	df012c17 	ldw	fp,1200(sp)
 200ae2c:	00000306 	br	200ae3c <___vfprintf_internal_r+0x1aa0>
 200ae30:	42000204 	addi	r8,r8,8
 200ae34:	94bffc04 	addi	r18,r18,-16
 200ae38:	a4808c0e 	bge	r20,r18,200b06c <___vfprintf_internal_r+0x1cd0>
 200ae3c:	18c00404 	addi	r3,r3,16
 200ae40:	10800044 	addi	r2,r2,1
 200ae44:	45c00015 	stw	r23,0(r8)
 200ae48:	45000115 	stw	r20,4(r8)
 200ae4c:	d8c12015 	stw	r3,1152(sp)
 200ae50:	d8811f15 	stw	r2,1148(sp)
 200ae54:	b0bff60e 	bge	r22,r2,200ae30 <__reset+0xfe001e30>
 200ae58:	e009883a 	mov	r4,fp
 200ae5c:	980b883a 	mov	r5,r19
 200ae60:	d9811e04 	addi	r6,sp,1144
 200ae64:	200e7c00 	call	200e7c0 <__sprint_r>
 200ae68:	103a681e 	bne	r2,zero,200980c <__reset+0xfe00080c>
 200ae6c:	d8c12017 	ldw	r3,1152(sp)
 200ae70:	d8811f17 	ldw	r2,1148(sp)
 200ae74:	da000404 	addi	r8,sp,16
 200ae78:	003fee06 	br	200ae34 <__reset+0xfe001e34>
 200ae7c:	008011c4 	movi	r2,71
 200ae80:	1480ad16 	blt	r2,r18,200b138 <___vfprintf_internal_r+0x1d9c>
 200ae84:	040080b4 	movhi	r16,514
 200ae88:	843bb704 	addi	r16,r16,-4388
 200ae8c:	d9012a17 	ldw	r4,1192(sp)
 200ae90:	00bfdfc4 	movi	r2,-129
 200ae94:	00c000c4 	movi	r3,3
 200ae98:	2088703a 	and	r4,r4,r2
 200ae9c:	d8c12b15 	stw	r3,1196(sp)
 200aea0:	d9012a15 	stw	r4,1192(sp)
 200aea4:	df012783 	ldbu	fp,1182(sp)
 200aea8:	d8c12e15 	stw	r3,1208(sp)
 200aeac:	0029883a 	mov	r20,zero
 200aeb0:	d8013315 	stw	zero,1228(sp)
 200aeb4:	003aa206 	br	2009940 <__reset+0xfe000940>
 200aeb8:	dd012e15 	stw	r20,1208(sp)
 200aebc:	003c8206 	br	200a0c8 <__reset+0xfe0010c8>
 200aec0:	d9412f17 	ldw	r5,1212(sp)
 200aec4:	2d400017 	ldw	r21,0(r5)
 200aec8:	29400104 	addi	r5,r5,4
 200aecc:	d9412f15 	stw	r5,1212(sp)
 200aed0:	a82dd7fa 	srai	r22,r21,31
 200aed4:	b005883a 	mov	r2,r22
 200aed8:	003a7f06 	br	20098d8 <__reset+0xfe0008d8>
 200aedc:	d8c12f17 	ldw	r3,1212(sp)
 200aee0:	d9013117 	ldw	r4,1220(sp)
 200aee4:	18800017 	ldw	r2,0(r3)
 200aee8:	18c00104 	addi	r3,r3,4
 200aeec:	d8c12f15 	stw	r3,1212(sp)
 200aef0:	11000015 	stw	r4,0(r2)
 200aef4:	00396706 	br	2009494 <__reset+0xfe000494>
 200aef8:	d8c12f17 	ldw	r3,1212(sp)
 200aefc:	002d883a 	mov	r22,zero
 200af00:	1d400017 	ldw	r21,0(r3)
 200af04:	18c00104 	addi	r3,r3,4
 200af08:	d8c12f15 	stw	r3,1212(sp)
 200af0c:	a805883a 	mov	r2,r21
 200af10:	0007883a 	mov	r3,zero
 200af14:	003bc606 	br	2009e30 <__reset+0xfe000e30>
 200af18:	d8c12f17 	ldw	r3,1212(sp)
 200af1c:	002d883a 	mov	r22,zero
 200af20:	1d400017 	ldw	r21,0(r3)
 200af24:	18c00104 	addi	r3,r3,4
 200af28:	d8c12f15 	stw	r3,1212(sp)
 200af2c:	a805883a 	mov	r2,r21
 200af30:	00c00044 	movi	r3,1
 200af34:	003bbe06 	br	2009e30 <__reset+0xfe000e30>
 200af38:	d8c12f17 	ldw	r3,1212(sp)
 200af3c:	002d883a 	mov	r22,zero
 200af40:	1d400017 	ldw	r21,0(r3)
 200af44:	18c00104 	addi	r3,r3,4
 200af48:	d8c12f15 	stw	r3,1212(sp)
 200af4c:	003bf706 	br	2009f2c <__reset+0xfe000f2c>
 200af50:	040080b4 	movhi	r16,514
 200af54:	843bb504 	addi	r16,r16,-4396
 200af58:	003b8506 	br	2009d70 <__reset+0xfe000d70>
 200af5c:	45000204 	addi	r20,r8,8
 200af60:	003d7206 	br	200a52c <__reset+0xfe00152c>
 200af64:	d9012c17 	ldw	r4,1200(sp)
 200af68:	980b883a 	mov	r5,r19
 200af6c:	d9811e04 	addi	r6,sp,1144
 200af70:	200e7c00 	call	200e7c0 <__sprint_r>
 200af74:	103a251e 	bne	r2,zero,200980c <__reset+0xfe00080c>
 200af78:	dc812617 	ldw	r18,1176(sp)
 200af7c:	d8c12017 	ldw	r3,1152(sp)
 200af80:	da000404 	addi	r8,sp,16
 200af84:	003f8f06 	br	200adc4 <__reset+0xfe001dc4>
 200af88:	d9012a17 	ldw	r4,1192(sp)
 200af8c:	8c400044 	addi	r17,r17,1
 200af90:	14800047 	ldb	r18,1(r2)
 200af94:	21000814 	ori	r4,r4,32
 200af98:	d9012a15 	stw	r4,1192(sp)
 200af9c:	00396406 	br	2009530 <__reset+0xfe000530>
 200afa0:	d9012c17 	ldw	r4,1200(sp)
 200afa4:	980b883a 	mov	r5,r19
 200afa8:	d9811e04 	addi	r6,sp,1144
 200afac:	200e7c00 	call	200e7c0 <__sprint_r>
 200afb0:	103a161e 	bne	r2,zero,200980c <__reset+0xfe00080c>
 200afb4:	d8c12017 	ldw	r3,1152(sp)
 200afb8:	da000404 	addi	r8,sp,16
 200afbc:	003cdc06 	br	200a330 <__reset+0xfe001330>
 200afc0:	df013f15 	stw	fp,1276(sp)
 200afc4:	200e6380 	call	200e638 <strlen>
 200afc8:	d8812e15 	stw	r2,1208(sp)
 200afcc:	da013f17 	ldw	r8,1276(sp)
 200afd0:	103c3f0e 	bge	r2,zero,200a0d0 <__reset+0xfe0010d0>
 200afd4:	0005883a 	mov	r2,zero
 200afd8:	003c3d06 	br	200a0d0 <__reset+0xfe0010d0>
 200afdc:	d9012c17 	ldw	r4,1200(sp)
 200afe0:	980b883a 	mov	r5,r19
 200afe4:	d9811e04 	addi	r6,sp,1144
 200afe8:	200e7c00 	call	200e7c0 <__sprint_r>
 200afec:	103a071e 	bne	r2,zero,200980c <__reset+0xfe00080c>
 200aff0:	d8c12017 	ldw	r3,1152(sp)
 200aff4:	d8811f17 	ldw	r2,1148(sp)
 200aff8:	da000404 	addi	r8,sp,16
 200affc:	d9013517 	ldw	r4,1236(sp)
 200b000:	10800044 	addi	r2,r2,1
 200b004:	44000015 	stw	r16,0(r8)
 200b008:	20c7883a 	add	r3,r4,r3
 200b00c:	003aed06 	br	2009bc4 <__reset+0xfe000bc4>
 200b010:	010080b4 	movhi	r4,514
 200b014:	213bc984 	addi	r4,r4,-4314
 200b018:	d9013615 	stw	r4,1240(sp)
 200b01c:	003a8706 	br	2009a3c <__reset+0xfe000a3c>
 200b020:	0029883a 	mov	r20,zero
 200b024:	003dd706 	br	200a784 <__reset+0xfe001784>
 200b028:	d9012c17 	ldw	r4,1200(sp)
 200b02c:	980b883a 	mov	r5,r19
 200b030:	d9811e04 	addi	r6,sp,1144
 200b034:	200e7c00 	call	200e7c0 <__sprint_r>
 200b038:	1039f41e 	bne	r2,zero,200980c <__reset+0xfe00080c>
 200b03c:	d8c12017 	ldw	r3,1152(sp)
 200b040:	da000404 	addi	r8,sp,16
 200b044:	003dce06 	br	200a780 <__reset+0xfe001780>
 200b048:	d9012c17 	ldw	r4,1200(sp)
 200b04c:	980b883a 	mov	r5,r19
 200b050:	d9811e04 	addi	r6,sp,1144
 200b054:	200e7c00 	call	200e7c0 <__sprint_r>
 200b058:	1039ec1e 	bne	r2,zero,200980c <__reset+0xfe00080c>
 200b05c:	d8812617 	ldw	r2,1176(sp)
 200b060:	d8c12017 	ldw	r3,1152(sp)
 200b064:	da000404 	addi	r8,sp,16
 200b068:	003e3106 	br	200a930 <__reset+0xfe001930>
 200b06c:	1c87883a 	add	r3,r3,r18
 200b070:	10800044 	addi	r2,r2,1
 200b074:	45400015 	stw	r21,0(r8)
 200b078:	44800115 	stw	r18,4(r8)
 200b07c:	d8c12015 	stw	r3,1152(sp)
 200b080:	d8811f15 	stw	r2,1148(sp)
 200b084:	010001c4 	movi	r4,7
 200b088:	20bfd416 	blt	r4,r2,200afdc <__reset+0xfe001fdc>
 200b08c:	42000204 	addi	r8,r8,8
 200b090:	003fda06 	br	200affc <__reset+0xfe001ffc>
 200b094:	014080b4 	movhi	r5,514
 200b098:	297bc984 	addi	r5,r5,-4314
 200b09c:	d9413615 	stw	r5,1240(sp)
 200b0a0:	003af406 	br	2009c74 <__reset+0xfe000c74>
 200b0a4:	00800184 	movi	r2,6
 200b0a8:	1500012e 	bgeu	r2,r20,200b0b0 <___vfprintf_internal_r+0x1d14>
 200b0ac:	1029883a 	mov	r20,r2
 200b0b0:	dd012e15 	stw	r20,1208(sp)
 200b0b4:	a005883a 	mov	r2,r20
 200b0b8:	a000d216 	blt	r20,zero,200b404 <___vfprintf_internal_r+0x2068>
 200b0bc:	d8812b15 	stw	r2,1196(sp)
 200b0c0:	dd412f15 	stw	r21,1212(sp)
 200b0c4:	0029883a 	mov	r20,zero
 200b0c8:	d8013315 	stw	zero,1228(sp)
 200b0cc:	040080b4 	movhi	r16,514
 200b0d0:	843bc304 	addi	r16,r16,-4340
 200b0d4:	0005883a 	mov	r2,zero
 200b0d8:	003a2006 	br	200995c <__reset+0xfe00095c>
 200b0dc:	0029883a 	mov	r20,zero
 200b0e0:	003e2506 	br	200a978 <__reset+0xfe001978>
 200b0e4:	d9012c17 	ldw	r4,1200(sp)
 200b0e8:	980b883a 	mov	r5,r19
 200b0ec:	d9811e04 	addi	r6,sp,1144
 200b0f0:	200e7c00 	call	200e7c0 <__sprint_r>
 200b0f4:	1039c51e 	bne	r2,zero,200980c <__reset+0xfe00080c>
 200b0f8:	d8812617 	ldw	r2,1176(sp)
 200b0fc:	d9413517 	ldw	r5,1236(sp)
 200b100:	d8c12017 	ldw	r3,1152(sp)
 200b104:	da000404 	addi	r8,sp,16
 200b108:	2885c83a 	sub	r2,r5,r2
 200b10c:	003e1906 	br	200a974 <__reset+0xfe001974>
 200b110:	d9412f17 	ldw	r5,1212(sp)
 200b114:	d8c13117 	ldw	r3,1220(sp)
 200b118:	28800017 	ldw	r2,0(r5)
 200b11c:	29400104 	addi	r5,r5,4
 200b120:	d9412f15 	stw	r5,1212(sp)
 200b124:	10c00015 	stw	r3,0(r2)
 200b128:	0038da06 	br	2009494 <__reset+0xfe000494>
 200b12c:	07000b44 	movi	fp,45
 200b130:	df012785 	stb	fp,1182(sp)
 200b134:	003b0a06 	br	2009d60 <__reset+0xfe000d60>
 200b138:	040080b4 	movhi	r16,514
 200b13c:	843bb804 	addi	r16,r16,-4384
 200b140:	003f5206 	br	200ae8c <__reset+0xfe001e8c>
 200b144:	00c00b44 	movi	r3,45
 200b148:	d8c12785 	stb	r3,1182(sp)
 200b14c:	d8c12d17 	ldw	r3,1204(sp)
 200b150:	d8812b15 	stw	r2,1196(sp)
 200b154:	0029883a 	mov	r20,zero
 200b158:	d8c12a15 	stw	r3,1192(sp)
 200b15c:	00800b44 	movi	r2,45
 200b160:	0039fb06 	br	2009950 <__reset+0xfe000950>
 200b164:	d8812617 	ldw	r2,1176(sp)
 200b168:	00ffff44 	movi	r3,-3
 200b16c:	10c03216 	blt	r2,r3,200b238 <___vfprintf_internal_r+0x1e9c>
 200b170:	a0803116 	blt	r20,r2,200b238 <___vfprintf_internal_r+0x1e9c>
 200b174:	d8813315 	stw	r2,1228(sp)
 200b178:	003e9706 	br	200abd8 <__reset+0xfe001bd8>
 200b17c:	4805883a 	mov	r2,r9
 200b180:	003e8b06 	br	200abb0 <__reset+0xfe001bb0>
 200b184:	d8812604 	addi	r2,sp,1176
 200b188:	d8800115 	stw	r2,4(sp)
 200b18c:	d9012c17 	ldw	r4,1200(sp)
 200b190:	d8812504 	addi	r2,sp,1172
 200b194:	d9413717 	ldw	r5,1244(sp)
 200b198:	d8800215 	stw	r2,8(sp)
 200b19c:	d8812104 	addi	r2,sp,1156
 200b1a0:	dd000015 	stw	r20,0(sp)
 200b1a4:	d8800315 	stw	r2,12(sp)
 200b1a8:	a80d883a 	mov	r6,r21
 200b1ac:	01c000c4 	movi	r7,3
 200b1b0:	da013f15 	stw	r8,1276(sp)
 200b1b4:	200b9440 	call	200b944 <_dtoa_r>
 200b1b8:	1021883a 	mov	r16,r2
 200b1bc:	a039883a 	mov	fp,r20
 200b1c0:	da013f17 	ldw	r8,1276(sp)
 200b1c4:	003e6506 	br	200ab5c <__reset+0xfe001b5c>
 200b1c8:	dd012b15 	stw	r20,1196(sp)
 200b1cc:	dd012e15 	stw	r20,1208(sp)
 200b1d0:	df012783 	ldbu	fp,1182(sp)
 200b1d4:	dd412f15 	stw	r21,1212(sp)
 200b1d8:	0029883a 	mov	r20,zero
 200b1dc:	d8013315 	stw	zero,1228(sp)
 200b1e0:	0039d706 	br	2009940 <__reset+0xfe000940>
 200b1e4:	81000007 	ldb	r4,0(r16)
 200b1e8:	00800c04 	movi	r2,48
 200b1ec:	20800326 	beq	r4,r2,200b1fc <___vfprintf_internal_r+0x1e60>
 200b1f0:	d8c12617 	ldw	r3,1176(sp)
 200b1f4:	48d3883a 	add	r9,r9,r3
 200b1f8:	003e5b06 	br	200ab68 <__reset+0xfe001b68>
 200b1fc:	d9013717 	ldw	r4,1244(sp)
 200b200:	a80b883a 	mov	r5,r21
 200b204:	000d883a 	mov	r6,zero
 200b208:	000f883a 	mov	r7,zero
 200b20c:	da013f15 	stw	r8,1276(sp)
 200b210:	da413e15 	stw	r9,1272(sp)
 200b214:	2011c580 	call	2011c58 <__eqdf2>
 200b218:	da013f17 	ldw	r8,1276(sp)
 200b21c:	da413e17 	ldw	r9,1272(sp)
 200b220:	103ff326 	beq	r2,zero,200b1f0 <__reset+0xfe0021f0>
 200b224:	00800044 	movi	r2,1
 200b228:	1707c83a 	sub	r3,r2,fp
 200b22c:	d8c12615 	stw	r3,1176(sp)
 200b230:	48d3883a 	add	r9,r9,r3
 200b234:	003e4c06 	br	200ab68 <__reset+0xfe001b68>
 200b238:	94bfff84 	addi	r18,r18,-2
 200b23c:	157fffc4 	addi	r21,r2,-1
 200b240:	dd412615 	stw	r21,1176(sp)
 200b244:	dc8122c5 	stb	r18,1163(sp)
 200b248:	a8009016 	blt	r21,zero,200b48c <___vfprintf_internal_r+0x20f0>
 200b24c:	00800ac4 	movi	r2,43
 200b250:	d8812305 	stb	r2,1164(sp)
 200b254:	05000244 	movi	r20,9
 200b258:	a5404a16 	blt	r20,r21,200b384 <___vfprintf_internal_r+0x1fe8>
 200b25c:	00800c04 	movi	r2,48
 200b260:	ad400c04 	addi	r21,r21,48
 200b264:	d8812345 	stb	r2,1165(sp)
 200b268:	dd412385 	stb	r21,1166(sp)
 200b26c:	d8c123c4 	addi	r3,sp,1167
 200b270:	d88122c4 	addi	r2,sp,1163
 200b274:	1885c83a 	sub	r2,r3,r2
 200b278:	d8c13517 	ldw	r3,1236(sp)
 200b27c:	d9013517 	ldw	r4,1236(sp)
 200b280:	d8813a15 	stw	r2,1256(sp)
 200b284:	1887883a 	add	r3,r3,r2
 200b288:	d8c12e15 	stw	r3,1208(sp)
 200b28c:	00800044 	movi	r2,1
 200b290:	11007a0e 	bge	r2,r4,200b47c <___vfprintf_internal_r+0x20e0>
 200b294:	d8c12e17 	ldw	r3,1208(sp)
 200b298:	18c00044 	addi	r3,r3,1
 200b29c:	d8c12e15 	stw	r3,1208(sp)
 200b2a0:	1805883a 	mov	r2,r3
 200b2a4:	18000216 	blt	r3,zero,200b2b0 <___vfprintf_internal_r+0x1f14>
 200b2a8:	d8013315 	stw	zero,1228(sp)
 200b2ac:	003e5506 	br	200ac04 <__reset+0xfe001c04>
 200b2b0:	0005883a 	mov	r2,zero
 200b2b4:	d8013315 	stw	zero,1228(sp)
 200b2b8:	003e5206 	br	200ac04 <__reset+0xfe001c04>
 200b2bc:	a03e031e 	bne	r20,zero,200aacc <__reset+0xfe001acc>
 200b2c0:	8029883a 	mov	r20,r16
 200b2c4:	003e0106 	br	200aacc <__reset+0xfe001acc>
 200b2c8:	d9012c17 	ldw	r4,1200(sp)
 200b2cc:	980b883a 	mov	r5,r19
 200b2d0:	d9811e04 	addi	r6,sp,1144
 200b2d4:	200e7c00 	call	200e7c0 <__sprint_r>
 200b2d8:	10394c1e 	bne	r2,zero,200980c <__reset+0xfe00080c>
 200b2dc:	dc812617 	ldw	r18,1176(sp)
 200b2e0:	d8c12017 	ldw	r3,1152(sp)
 200b2e4:	d8811f17 	ldw	r2,1148(sp)
 200b2e8:	da000404 	addi	r8,sp,16
 200b2ec:	003ec706 	br	200ae0c <__reset+0xfe001e0c>
 200b2f0:	05000184 	movi	r20,6
 200b2f4:	003df506 	br	200aacc <__reset+0xfe001acc>
 200b2f8:	00c00b44 	movi	r3,45
 200b2fc:	2560003c 	xorhi	r21,r4,32768
 200b300:	d8c12b05 	stb	r3,1196(sp)
 200b304:	003df806 	br	200aae8 <__reset+0xfe001ae8>
 200b308:	a7000044 	addi	fp,r20,1
 200b30c:	003dfd06 	br	200ab04 <__reset+0xfe001b04>
 200b310:	d8c13317 	ldw	r3,1228(sp)
 200b314:	00c0610e 	bge	zero,r3,200b49c <___vfprintf_internal_r+0x2100>
 200b318:	00800044 	movi	r2,1
 200b31c:	d9013517 	ldw	r4,1236(sp)
 200b320:	1105883a 	add	r2,r2,r4
 200b324:	d8812e15 	stw	r2,1208(sp)
 200b328:	10000716 	blt	r2,zero,200b348 <___vfprintf_internal_r+0x1fac>
 200b32c:	048019c4 	movi	r18,103
 200b330:	003e3406 	br	200ac04 <__reset+0xfe001c04>
 200b334:	d8c13317 	ldw	r3,1228(sp)
 200b338:	18c00044 	addi	r3,r3,1
 200b33c:	d8c12e15 	stw	r3,1208(sp)
 200b340:	1805883a 	mov	r2,r3
 200b344:	183ff90e 	bge	r3,zero,200b32c <__reset+0xfe00232c>
 200b348:	0005883a 	mov	r2,zero
 200b34c:	048019c4 	movi	r18,103
 200b350:	003e2c06 	br	200ac04 <__reset+0xfe001c04>
 200b354:	d8812117 	ldw	r2,1156(sp)
 200b358:	003e1506 	br	200abb0 <__reset+0xfe001bb0>
 200b35c:	00c0400e 	bge	zero,r3,200b460 <___vfprintf_internal_r+0x20c4>
 200b360:	a0002a1e 	bne	r20,zero,200b40c <___vfprintf_internal_r+0x2070>
 200b364:	d9012a17 	ldw	r4,1192(sp)
 200b368:	2080004c 	andi	r2,r4,1
 200b36c:	1000271e 	bne	r2,zero,200b40c <___vfprintf_internal_r+0x2070>
 200b370:	1805883a 	mov	r2,r3
 200b374:	18005a16 	blt	r3,zero,200b4e0 <___vfprintf_internal_r+0x2144>
 200b378:	d8c13317 	ldw	r3,1228(sp)
 200b37c:	d8c12e15 	stw	r3,1208(sp)
 200b380:	003e2006 	br	200ac04 <__reset+0xfe001c04>
 200b384:	d8c12284 	addi	r3,sp,1162
 200b388:	4039883a 	mov	fp,r8
 200b38c:	a809883a 	mov	r4,r21
 200b390:	01400284 	movi	r5,10
 200b394:	182d883a 	mov	r22,r3
 200b398:	20058c40 	call	20058c4 <__modsi3>
 200b39c:	10800c04 	addi	r2,r2,48
 200b3a0:	a809883a 	mov	r4,r21
 200b3a4:	b0800005 	stb	r2,0(r22)
 200b3a8:	01400284 	movi	r5,10
 200b3ac:	200587c0 	call	200587c <__divsi3>
 200b3b0:	102b883a 	mov	r21,r2
 200b3b4:	b0ffffc4 	addi	r3,r22,-1
 200b3b8:	a0bff416 	blt	r20,r2,200b38c <__reset+0xfe00238c>
 200b3bc:	11400c04 	addi	r5,r2,48
 200b3c0:	b17fffc5 	stb	r5,-1(r22)
 200b3c4:	d88122c4 	addi	r2,sp,1163
 200b3c8:	e011883a 	mov	r8,fp
 200b3cc:	1880462e 	bgeu	r3,r2,200b4e8 <___vfprintf_internal_r+0x214c>
 200b3d0:	d9012344 	addi	r4,sp,1165
 200b3d4:	b007883a 	mov	r3,r22
 200b3d8:	00000206 	br	200b3e4 <___vfprintf_internal_r+0x2048>
 200b3dc:	19400003 	ldbu	r5,0(r3)
 200b3e0:	18c00044 	addi	r3,r3,1
 200b3e4:	21400005 	stb	r5,0(r4)
 200b3e8:	21000044 	addi	r4,r4,1
 200b3ec:	10fffb1e 	bne	r2,r3,200b3dc <__reset+0xfe0023dc>
 200b3f0:	d8c12304 	addi	r3,sp,1164
 200b3f4:	1d87c83a 	sub	r3,r3,r22
 200b3f8:	d9412344 	addi	r5,sp,1165
 200b3fc:	28c7883a 	add	r3,r5,r3
 200b400:	003f9c06 	br	200b274 <__reset+0xfe002274>
 200b404:	0005883a 	mov	r2,zero
 200b408:	003f2c06 	br	200b0bc <__reset+0xfe0020bc>
 200b40c:	d8c13317 	ldw	r3,1228(sp)
 200b410:	a5000044 	addi	r20,r20,1
 200b414:	1d29883a 	add	r20,r3,r20
 200b418:	dd012e15 	stw	r20,1208(sp)
 200b41c:	a005883a 	mov	r2,r20
 200b420:	a03df80e 	bge	r20,zero,200ac04 <__reset+0xfe001c04>
 200b424:	0005883a 	mov	r2,zero
 200b428:	003df606 	br	200ac04 <__reset+0xfe001c04>
 200b42c:	043fffc4 	movi	r16,-1
 200b430:	0038d406 	br	2009784 <__reset+0xfe000784>
 200b434:	d9012f17 	ldw	r4,1212(sp)
 200b438:	8c800043 	ldbu	r18,1(r17)
 200b43c:	1023883a 	mov	r17,r2
 200b440:	20c00017 	ldw	r3,0(r4)
 200b444:	21000104 	addi	r4,r4,4
 200b448:	d9012f15 	stw	r4,1212(sp)
 200b44c:	18001f16 	blt	r3,zero,200b4cc <___vfprintf_internal_r+0x2130>
 200b450:	94803fcc 	andi	r18,r18,255
 200b454:	9480201c 	xori	r18,r18,128
 200b458:	94bfe004 	addi	r18,r18,-128
 200b45c:	00383406 	br	2009530 <__reset+0xfe000530>
 200b460:	a000111e 	bne	r20,zero,200b4a8 <___vfprintf_internal_r+0x210c>
 200b464:	d9012a17 	ldw	r4,1192(sp)
 200b468:	2080004c 	andi	r2,r4,1
 200b46c:	10000e1e 	bne	r2,zero,200b4a8 <___vfprintf_internal_r+0x210c>
 200b470:	00800044 	movi	r2,1
 200b474:	d8812e15 	stw	r2,1208(sp)
 200b478:	003de206 	br	200ac04 <__reset+0xfe001c04>
 200b47c:	d9412a17 	ldw	r5,1192(sp)
 200b480:	2884703a 	and	r2,r5,r2
 200b484:	103f831e 	bne	r2,zero,200b294 <__reset+0xfe002294>
 200b488:	003f8506 	br	200b2a0 <__reset+0xfe0022a0>
 200b48c:	00800b44 	movi	r2,45
 200b490:	056bc83a 	sub	r21,zero,r21
 200b494:	d8812305 	stb	r2,1164(sp)
 200b498:	003f6e06 	br	200b254 <__reset+0xfe002254>
 200b49c:	00800084 	movi	r2,2
 200b4a0:	10c5c83a 	sub	r2,r2,r3
 200b4a4:	003f9d06 	br	200b31c <__reset+0xfe00231c>
 200b4a8:	a5000084 	addi	r20,r20,2
 200b4ac:	dd012e15 	stw	r20,1208(sp)
 200b4b0:	a005883a 	mov	r2,r20
 200b4b4:	a03dd30e 	bge	r20,zero,200ac04 <__reset+0xfe001c04>
 200b4b8:	003fda06 	br	200b424 <__reset+0xfe002424>
 200b4bc:	0005883a 	mov	r2,zero
 200b4c0:	003dcd06 	br	200abf8 <__reset+0xfe001bf8>
 200b4c4:	d8812617 	ldw	r2,1176(sp)
 200b4c8:	003f5c06 	br	200b23c <__reset+0xfe00223c>
 200b4cc:	94803fcc 	andi	r18,r18,255
 200b4d0:	9480201c 	xori	r18,r18,128
 200b4d4:	00ffffc4 	movi	r3,-1
 200b4d8:	94bfe004 	addi	r18,r18,-128
 200b4dc:	00381406 	br	2009530 <__reset+0xfe000530>
 200b4e0:	0005883a 	mov	r2,zero
 200b4e4:	003fa406 	br	200b378 <__reset+0xfe002378>
 200b4e8:	d8c12344 	addi	r3,sp,1165
 200b4ec:	003f6106 	br	200b274 <__reset+0xfe002274>

0200b4f0 <__vfprintf_internal>:
 200b4f0:	008080b4 	movhi	r2,514
 200b4f4:	10836104 	addi	r2,r2,3460
 200b4f8:	2007883a 	mov	r3,r4
 200b4fc:	11000017 	ldw	r4,0(r2)
 200b500:	2805883a 	mov	r2,r5
 200b504:	300f883a 	mov	r7,r6
 200b508:	180b883a 	mov	r5,r3
 200b50c:	100d883a 	mov	r6,r2
 200b510:	200939c1 	jmpi	200939c <___vfprintf_internal_r>

0200b514 <_write_r>:
 200b514:	defffd04 	addi	sp,sp,-12
 200b518:	dc400115 	stw	r17,4(sp)
 200b51c:	dc000015 	stw	r16,0(sp)
 200b520:	2023883a 	mov	r17,r4
 200b524:	040080b4 	movhi	r16,514
 200b528:	84037904 	addi	r16,r16,3556
 200b52c:	2809883a 	mov	r4,r5
 200b530:	300b883a 	mov	r5,r6
 200b534:	380d883a 	mov	r6,r7
 200b538:	dfc00215 	stw	ra,8(sp)
 200b53c:	80000015 	stw	zero,0(r16)
 200b540:	20135340 	call	2013534 <write>
 200b544:	00ffffc4 	movi	r3,-1
 200b548:	10c00526 	beq	r2,r3,200b560 <_write_r+0x4c>
 200b54c:	dfc00217 	ldw	ra,8(sp)
 200b550:	dc400117 	ldw	r17,4(sp)
 200b554:	dc000017 	ldw	r16,0(sp)
 200b558:	dec00304 	addi	sp,sp,12
 200b55c:	f800283a 	ret
 200b560:	80c00017 	ldw	r3,0(r16)
 200b564:	183ff926 	beq	r3,zero,200b54c <__reset+0xfe00254c>
 200b568:	88c00015 	stw	r3,0(r17)
 200b56c:	dfc00217 	ldw	ra,8(sp)
 200b570:	dc400117 	ldw	r17,4(sp)
 200b574:	dc000017 	ldw	r16,0(sp)
 200b578:	dec00304 	addi	sp,sp,12
 200b57c:	f800283a 	ret

0200b580 <__swsetup_r>:
 200b580:	008080b4 	movhi	r2,514
 200b584:	10836104 	addi	r2,r2,3460
 200b588:	10800017 	ldw	r2,0(r2)
 200b58c:	defffd04 	addi	sp,sp,-12
 200b590:	dc400115 	stw	r17,4(sp)
 200b594:	dc000015 	stw	r16,0(sp)
 200b598:	dfc00215 	stw	ra,8(sp)
 200b59c:	2023883a 	mov	r17,r4
 200b5a0:	2821883a 	mov	r16,r5
 200b5a4:	10000226 	beq	r2,zero,200b5b0 <__swsetup_r+0x30>
 200b5a8:	10c00e17 	ldw	r3,56(r2)
 200b5ac:	18002e26 	beq	r3,zero,200b668 <__swsetup_r+0xe8>
 200b5b0:	8080030b 	ldhu	r2,12(r16)
 200b5b4:	10c0020c 	andi	r3,r2,8
 200b5b8:	100d883a 	mov	r6,r2
 200b5bc:	18000f26 	beq	r3,zero,200b5fc <__swsetup_r+0x7c>
 200b5c0:	80c00417 	ldw	r3,16(r16)
 200b5c4:	18001526 	beq	r3,zero,200b61c <__swsetup_r+0x9c>
 200b5c8:	1100004c 	andi	r4,r2,1
 200b5cc:	20001c1e 	bne	r4,zero,200b640 <__swsetup_r+0xc0>
 200b5d0:	1080008c 	andi	r2,r2,2
 200b5d4:	1000271e 	bne	r2,zero,200b674 <__swsetup_r+0xf4>
 200b5d8:	80800517 	ldw	r2,20(r16)
 200b5dc:	80800215 	stw	r2,8(r16)
 200b5e0:	18001c26 	beq	r3,zero,200b654 <__swsetup_r+0xd4>
 200b5e4:	0005883a 	mov	r2,zero
 200b5e8:	dfc00217 	ldw	ra,8(sp)
 200b5ec:	dc400117 	ldw	r17,4(sp)
 200b5f0:	dc000017 	ldw	r16,0(sp)
 200b5f4:	dec00304 	addi	sp,sp,12
 200b5f8:	f800283a 	ret
 200b5fc:	3080040c 	andi	r2,r6,16
 200b600:	10001726 	beq	r2,zero,200b660 <__swsetup_r+0xe0>
 200b604:	3080010c 	andi	r2,r6,4
 200b608:	10001d1e 	bne	r2,zero,200b680 <__swsetup_r+0x100>
 200b60c:	80c00417 	ldw	r3,16(r16)
 200b610:	30800214 	ori	r2,r6,8
 200b614:	8080030d 	sth	r2,12(r16)
 200b618:	183feb1e 	bne	r3,zero,200b5c8 <__reset+0xfe0025c8>
 200b61c:	1140a00c 	andi	r5,r2,640
 200b620:	01008004 	movi	r4,512
 200b624:	293fe826 	beq	r5,r4,200b5c8 <__reset+0xfe0025c8>
 200b628:	8809883a 	mov	r4,r17
 200b62c:	800b883a 	mov	r5,r16
 200b630:	200d0c00 	call	200d0c0 <__smakebuf_r>
 200b634:	8080030b 	ldhu	r2,12(r16)
 200b638:	80c00417 	ldw	r3,16(r16)
 200b63c:	003fe206 	br	200b5c8 <__reset+0xfe0025c8>
 200b640:	80800517 	ldw	r2,20(r16)
 200b644:	80000215 	stw	zero,8(r16)
 200b648:	0085c83a 	sub	r2,zero,r2
 200b64c:	80800615 	stw	r2,24(r16)
 200b650:	183fe41e 	bne	r3,zero,200b5e4 <__reset+0xfe0025e4>
 200b654:	8080030b 	ldhu	r2,12(r16)
 200b658:	1080200c 	andi	r2,r2,128
 200b65c:	103fe226 	beq	r2,zero,200b5e8 <__reset+0xfe0025e8>
 200b660:	00bfffc4 	movi	r2,-1
 200b664:	003fe006 	br	200b5e8 <__reset+0xfe0025e8>
 200b668:	1009883a 	mov	r4,r2
 200b66c:	20073100 	call	2007310 <__sinit>
 200b670:	003fcf06 	br	200b5b0 <__reset+0xfe0025b0>
 200b674:	0005883a 	mov	r2,zero
 200b678:	80800215 	stw	r2,8(r16)
 200b67c:	003fd806 	br	200b5e0 <__reset+0xfe0025e0>
 200b680:	81400c17 	ldw	r5,48(r16)
 200b684:	28000626 	beq	r5,zero,200b6a0 <__swsetup_r+0x120>
 200b688:	80801004 	addi	r2,r16,64
 200b68c:	28800326 	beq	r5,r2,200b69c <__swsetup_r+0x11c>
 200b690:	8809883a 	mov	r4,r17
 200b694:	2007a6c0 	call	2007a6c <_free_r>
 200b698:	8180030b 	ldhu	r6,12(r16)
 200b69c:	80000c15 	stw	zero,48(r16)
 200b6a0:	80c00417 	ldw	r3,16(r16)
 200b6a4:	00bff6c4 	movi	r2,-37
 200b6a8:	118c703a 	and	r6,r2,r6
 200b6ac:	80000115 	stw	zero,4(r16)
 200b6b0:	80c00015 	stw	r3,0(r16)
 200b6b4:	003fd606 	br	200b610 <__reset+0xfe002610>

0200b6b8 <_close_r>:
 200b6b8:	defffd04 	addi	sp,sp,-12
 200b6bc:	dc400115 	stw	r17,4(sp)
 200b6c0:	dc000015 	stw	r16,0(sp)
 200b6c4:	2023883a 	mov	r17,r4
 200b6c8:	040080b4 	movhi	r16,514
 200b6cc:	84037904 	addi	r16,r16,3556
 200b6d0:	2809883a 	mov	r4,r5
 200b6d4:	dfc00215 	stw	ra,8(sp)
 200b6d8:	80000015 	stw	zero,0(r16)
 200b6dc:	20129580 	call	2012958 <close>
 200b6e0:	00ffffc4 	movi	r3,-1
 200b6e4:	10c00526 	beq	r2,r3,200b6fc <_close_r+0x44>
 200b6e8:	dfc00217 	ldw	ra,8(sp)
 200b6ec:	dc400117 	ldw	r17,4(sp)
 200b6f0:	dc000017 	ldw	r16,0(sp)
 200b6f4:	dec00304 	addi	sp,sp,12
 200b6f8:	f800283a 	ret
 200b6fc:	80c00017 	ldw	r3,0(r16)
 200b700:	183ff926 	beq	r3,zero,200b6e8 <__reset+0xfe0026e8>
 200b704:	88c00015 	stw	r3,0(r17)
 200b708:	dfc00217 	ldw	ra,8(sp)
 200b70c:	dc400117 	ldw	r17,4(sp)
 200b710:	dc000017 	ldw	r16,0(sp)
 200b714:	dec00304 	addi	sp,sp,12
 200b718:	f800283a 	ret

0200b71c <quorem>:
 200b71c:	defff204 	addi	sp,sp,-56
 200b720:	dd400915 	stw	r21,36(sp)
 200b724:	20800417 	ldw	r2,16(r4)
 200b728:	2d400417 	ldw	r21,16(r5)
 200b72c:	dfc00d15 	stw	ra,52(sp)
 200b730:	df000c15 	stw	fp,48(sp)
 200b734:	ddc00b15 	stw	r23,44(sp)
 200b738:	dd800a15 	stw	r22,40(sp)
 200b73c:	dd000815 	stw	r20,32(sp)
 200b740:	dcc00715 	stw	r19,28(sp)
 200b744:	dc800615 	stw	r18,24(sp)
 200b748:	dc400515 	stw	r17,20(sp)
 200b74c:	dc000415 	stw	r16,16(sp)
 200b750:	d9000015 	stw	r4,0(sp)
 200b754:	d9400115 	stw	r5,4(sp)
 200b758:	15407816 	blt	r2,r21,200b93c <quorem+0x220>
 200b75c:	ad7fffc4 	addi	r21,r21,-1
 200b760:	ad79883a 	add	fp,r21,r21
 200b764:	28c00504 	addi	r3,r5,20
 200b768:	e739883a 	add	fp,fp,fp
 200b76c:	1f2f883a 	add	r23,r3,fp
 200b770:	24400504 	addi	r17,r4,20
 200b774:	8f39883a 	add	fp,r17,fp
 200b778:	b9400017 	ldw	r5,0(r23)
 200b77c:	e1000017 	ldw	r4,0(fp)
 200b780:	d8c00215 	stw	r3,8(sp)
 200b784:	29400044 	addi	r5,r5,1
 200b788:	df000315 	stw	fp,12(sp)
 200b78c:	20059100 	call	2005910 <__udivsi3>
 200b790:	1021883a 	mov	r16,r2
 200b794:	10003026 	beq	r2,zero,200b858 <quorem+0x13c>
 200b798:	dcc00217 	ldw	r19,8(sp)
 200b79c:	8829883a 	mov	r20,r17
 200b7a0:	002d883a 	mov	r22,zero
 200b7a4:	0039883a 	mov	fp,zero
 200b7a8:	9c800017 	ldw	r18,0(r19)
 200b7ac:	800b883a 	mov	r5,r16
 200b7b0:	9cc00104 	addi	r19,r19,4
 200b7b4:	913fffcc 	andi	r4,r18,65535
 200b7b8:	20059200 	call	2005920 <__mulsi3>
 200b7bc:	9008d43a 	srli	r4,r18,16
 200b7c0:	800b883a 	mov	r5,r16
 200b7c4:	b0ad883a 	add	r22,r22,r2
 200b7c8:	20059200 	call	2005920 <__mulsi3>
 200b7cc:	a1400017 	ldw	r5,0(r20)
 200b7d0:	b010d43a 	srli	r8,r22,16
 200b7d4:	b0ffffcc 	andi	r3,r22,65535
 200b7d8:	293fffcc 	andi	r4,r5,65535
 200b7dc:	2709883a 	add	r4,r4,fp
 200b7e0:	280cd43a 	srli	r6,r5,16
 200b7e4:	20c9c83a 	sub	r4,r4,r3
 200b7e8:	4085883a 	add	r2,r8,r2
 200b7ec:	2007d43a 	srai	r3,r4,16
 200b7f0:	117fffcc 	andi	r5,r2,65535
 200b7f4:	314bc83a 	sub	r5,r6,r5
 200b7f8:	28cb883a 	add	r5,r5,r3
 200b7fc:	280c943a 	slli	r6,r5,16
 200b800:	213fffcc 	andi	r4,r4,65535
 200b804:	102cd43a 	srli	r22,r2,16
 200b808:	3108b03a 	or	r4,r6,r4
 200b80c:	a1000015 	stw	r4,0(r20)
 200b810:	2839d43a 	srai	fp,r5,16
 200b814:	a5000104 	addi	r20,r20,4
 200b818:	bcffe32e 	bgeu	r23,r19,200b7a8 <__reset+0xfe0027a8>
 200b81c:	d8c00317 	ldw	r3,12(sp)
 200b820:	18800017 	ldw	r2,0(r3)
 200b824:	10000c1e 	bne	r2,zero,200b858 <quorem+0x13c>
 200b828:	18bfff04 	addi	r2,r3,-4
 200b82c:	8880082e 	bgeu	r17,r2,200b850 <quorem+0x134>
 200b830:	18ffff17 	ldw	r3,-4(r3)
 200b834:	18000326 	beq	r3,zero,200b844 <quorem+0x128>
 200b838:	00000506 	br	200b850 <quorem+0x134>
 200b83c:	10c00017 	ldw	r3,0(r2)
 200b840:	1800031e 	bne	r3,zero,200b850 <quorem+0x134>
 200b844:	10bfff04 	addi	r2,r2,-4
 200b848:	ad7fffc4 	addi	r21,r21,-1
 200b84c:	88bffb36 	bltu	r17,r2,200b83c <__reset+0xfe00283c>
 200b850:	d8c00017 	ldw	r3,0(sp)
 200b854:	1d400415 	stw	r21,16(r3)
 200b858:	d9000017 	ldw	r4,0(sp)
 200b85c:	d9400117 	ldw	r5,4(sp)
 200b860:	200de080 	call	200de08 <__mcmp>
 200b864:	10002816 	blt	r2,zero,200b908 <quorem+0x1ec>
 200b868:	d8c00217 	ldw	r3,8(sp)
 200b86c:	84000044 	addi	r16,r16,1
 200b870:	880d883a 	mov	r6,r17
 200b874:	000f883a 	mov	r7,zero
 200b878:	32800017 	ldw	r10,0(r6)
 200b87c:	1a400017 	ldw	r9,0(r3)
 200b880:	31800104 	addi	r6,r6,4
 200b884:	523fffcc 	andi	r8,r10,65535
 200b888:	48bfffcc 	andi	r2,r9,65535
 200b88c:	41cf883a 	add	r7,r8,r7
 200b890:	3891c83a 	sub	r8,r7,r2
 200b894:	4812d43a 	srli	r9,r9,16
 200b898:	500ed43a 	srli	r7,r10,16
 200b89c:	4005d43a 	srai	r2,r8,16
 200b8a0:	423fffcc 	andi	r8,r8,65535
 200b8a4:	3a4fc83a 	sub	r7,r7,r9
 200b8a8:	388f883a 	add	r7,r7,r2
 200b8ac:	3804943a 	slli	r2,r7,16
 200b8b0:	18c00104 	addi	r3,r3,4
 200b8b4:	380fd43a 	srai	r7,r7,16
 200b8b8:	1210b03a 	or	r8,r2,r8
 200b8bc:	323fff15 	stw	r8,-4(r6)
 200b8c0:	b8ffed2e 	bgeu	r23,r3,200b878 <__reset+0xfe002878>
 200b8c4:	ad45883a 	add	r2,r21,r21
 200b8c8:	1085883a 	add	r2,r2,r2
 200b8cc:	8887883a 	add	r3,r17,r2
 200b8d0:	18800017 	ldw	r2,0(r3)
 200b8d4:	10000c1e 	bne	r2,zero,200b908 <quorem+0x1ec>
 200b8d8:	18bfff04 	addi	r2,r3,-4
 200b8dc:	8880082e 	bgeu	r17,r2,200b900 <quorem+0x1e4>
 200b8e0:	18ffff17 	ldw	r3,-4(r3)
 200b8e4:	18000326 	beq	r3,zero,200b8f4 <quorem+0x1d8>
 200b8e8:	00000506 	br	200b900 <quorem+0x1e4>
 200b8ec:	10c00017 	ldw	r3,0(r2)
 200b8f0:	1800031e 	bne	r3,zero,200b900 <quorem+0x1e4>
 200b8f4:	10bfff04 	addi	r2,r2,-4
 200b8f8:	ad7fffc4 	addi	r21,r21,-1
 200b8fc:	88bffb36 	bltu	r17,r2,200b8ec <__reset+0xfe0028ec>
 200b900:	d8c00017 	ldw	r3,0(sp)
 200b904:	1d400415 	stw	r21,16(r3)
 200b908:	8005883a 	mov	r2,r16
 200b90c:	dfc00d17 	ldw	ra,52(sp)
 200b910:	df000c17 	ldw	fp,48(sp)
 200b914:	ddc00b17 	ldw	r23,44(sp)
 200b918:	dd800a17 	ldw	r22,40(sp)
 200b91c:	dd400917 	ldw	r21,36(sp)
 200b920:	dd000817 	ldw	r20,32(sp)
 200b924:	dcc00717 	ldw	r19,28(sp)
 200b928:	dc800617 	ldw	r18,24(sp)
 200b92c:	dc400517 	ldw	r17,20(sp)
 200b930:	dc000417 	ldw	r16,16(sp)
 200b934:	dec00e04 	addi	sp,sp,56
 200b938:	f800283a 	ret
 200b93c:	0005883a 	mov	r2,zero
 200b940:	003ff206 	br	200b90c <__reset+0xfe00290c>

0200b944 <_dtoa_r>:
 200b944:	20801017 	ldw	r2,64(r4)
 200b948:	deffdf04 	addi	sp,sp,-132
 200b94c:	dcc01a15 	stw	r19,104(sp)
 200b950:	dc801915 	stw	r18,100(sp)
 200b954:	dc401815 	stw	r17,96(sp)
 200b958:	dc001715 	stw	r16,92(sp)
 200b95c:	dfc02015 	stw	ra,128(sp)
 200b960:	df001f15 	stw	fp,124(sp)
 200b964:	ddc01e15 	stw	r23,120(sp)
 200b968:	dd801d15 	stw	r22,116(sp)
 200b96c:	dd401c15 	stw	r21,112(sp)
 200b970:	dd001b15 	stw	r20,108(sp)
 200b974:	d9400315 	stw	r5,12(sp)
 200b978:	d9c00415 	stw	r7,16(sp)
 200b97c:	2021883a 	mov	r16,r4
 200b980:	3023883a 	mov	r17,r6
 200b984:	dcc02317 	ldw	r19,140(sp)
 200b988:	3025883a 	mov	r18,r6
 200b98c:	10000826 	beq	r2,zero,200b9b0 <_dtoa_r+0x6c>
 200b990:	20c01117 	ldw	r3,68(r4)
 200b994:	01800044 	movi	r6,1
 200b998:	100b883a 	mov	r5,r2
 200b99c:	30cc983a 	sll	r6,r6,r3
 200b9a0:	10c00115 	stw	r3,4(r2)
 200b9a4:	11800215 	stw	r6,8(r2)
 200b9a8:	200d5400 	call	200d540 <_Bfree>
 200b9ac:	80001015 	stw	zero,64(r16)
 200b9b0:	88002e16 	blt	r17,zero,200ba6c <_dtoa_r+0x128>
 200b9b4:	98000015 	stw	zero,0(r19)
 200b9b8:	88dffc2c 	andhi	r3,r17,32752
 200b9bc:	009ffc34 	movhi	r2,32752
 200b9c0:	18801b26 	beq	r3,r2,200ba30 <_dtoa_r+0xec>
 200b9c4:	d9000317 	ldw	r4,12(sp)
 200b9c8:	900b883a 	mov	r5,r18
 200b9cc:	000d883a 	mov	r6,zero
 200b9d0:	000f883a 	mov	r7,zero
 200b9d4:	2011c580 	call	2011c58 <__eqdf2>
 200b9d8:	10002b1e 	bne	r2,zero,200ba88 <_dtoa_r+0x144>
 200b9dc:	d8c02217 	ldw	r3,136(sp)
 200b9e0:	d9002417 	ldw	r4,144(sp)
 200b9e4:	00800044 	movi	r2,1
 200b9e8:	18800015 	stw	r2,0(r3)
 200b9ec:	2001a026 	beq	r4,zero,200c070 <_dtoa_r+0x72c>
 200b9f0:	008080b4 	movhi	r2,514
 200b9f4:	10bbc544 	addi	r2,r2,-4331
 200b9f8:	20800015 	stw	r2,0(r4)
 200b9fc:	10bfffc4 	addi	r2,r2,-1
 200ba00:	dfc02017 	ldw	ra,128(sp)
 200ba04:	df001f17 	ldw	fp,124(sp)
 200ba08:	ddc01e17 	ldw	r23,120(sp)
 200ba0c:	dd801d17 	ldw	r22,116(sp)
 200ba10:	dd401c17 	ldw	r21,112(sp)
 200ba14:	dd001b17 	ldw	r20,108(sp)
 200ba18:	dcc01a17 	ldw	r19,104(sp)
 200ba1c:	dc801917 	ldw	r18,100(sp)
 200ba20:	dc401817 	ldw	r17,96(sp)
 200ba24:	dc001717 	ldw	r16,92(sp)
 200ba28:	dec02104 	addi	sp,sp,132
 200ba2c:	f800283a 	ret
 200ba30:	d8c02217 	ldw	r3,136(sp)
 200ba34:	d9000317 	ldw	r4,12(sp)
 200ba38:	0089c3c4 	movi	r2,9999
 200ba3c:	18800015 	stw	r2,0(r3)
 200ba40:	20017926 	beq	r4,zero,200c028 <_dtoa_r+0x6e4>
 200ba44:	008080b4 	movhi	r2,514
 200ba48:	10bbd104 	addi	r2,r2,-4284
 200ba4c:	d9802417 	ldw	r6,144(sp)
 200ba50:	303feb26 	beq	r6,zero,200ba00 <__reset+0xfe002a00>
 200ba54:	10c000c7 	ldb	r3,3(r2)
 200ba58:	18017a1e 	bne	r3,zero,200c044 <_dtoa_r+0x700>
 200ba5c:	10c000c4 	addi	r3,r2,3
 200ba60:	d9c02417 	ldw	r7,144(sp)
 200ba64:	38c00015 	stw	r3,0(r7)
 200ba68:	003fe506 	br	200ba00 <__reset+0xfe002a00>
 200ba6c:	04a00034 	movhi	r18,32768
 200ba70:	94bfffc4 	addi	r18,r18,-1
 200ba74:	8ca4703a 	and	r18,r17,r18
 200ba78:	00800044 	movi	r2,1
 200ba7c:	98800015 	stw	r2,0(r19)
 200ba80:	9023883a 	mov	r17,r18
 200ba84:	003fcc06 	br	200b9b8 <__reset+0xfe0029b8>
 200ba88:	d9400317 	ldw	r5,12(sp)
 200ba8c:	d8800204 	addi	r2,sp,8
 200ba90:	8828d53a 	srli	r20,r17,20
 200ba94:	d8800015 	stw	r2,0(sp)
 200ba98:	8009883a 	mov	r4,r16
 200ba9c:	900d883a 	mov	r6,r18
 200baa0:	d9c00104 	addi	r7,sp,4
 200baa4:	200e1680 	call	200e168 <__d2b>
 200baa8:	1039883a 	mov	fp,r2
 200baac:	a001671e 	bne	r20,zero,200c04c <_dtoa_r+0x708>
 200bab0:	dd400217 	ldw	r21,8(sp)
 200bab4:	dd000117 	ldw	r20,4(sp)
 200bab8:	00befbc4 	movi	r2,-1041
 200babc:	ad29883a 	add	r20,r21,r20
 200bac0:	a082d616 	blt	r20,r2,200c61c <_dtoa_r+0xcd8>
 200bac4:	d9800317 	ldw	r6,12(sp)
 200bac8:	013f0384 	movi	r4,-1010
 200bacc:	2509c83a 	sub	r4,r4,r20
 200bad0:	a0810484 	addi	r2,r20,1042
 200bad4:	8922983a 	sll	r17,r17,r4
 200bad8:	3084d83a 	srl	r2,r6,r2
 200badc:	8888b03a 	or	r4,r17,r2
 200bae0:	20127280 	call	2012728 <__floatunsidf>
 200bae4:	1009883a 	mov	r4,r2
 200bae8:	017f8434 	movhi	r5,65040
 200baec:	00800044 	movi	r2,1
 200baf0:	194b883a 	add	r5,r3,r5
 200baf4:	a53fffc4 	addi	r20,r20,-1
 200baf8:	d8800f15 	stw	r2,60(sp)
 200bafc:	000d883a 	mov	r6,zero
 200bb00:	01cffe34 	movhi	r7,16376
 200bb04:	2011ea00 	call	2011ea0 <__subdf3>
 200bb08:	1009883a 	mov	r4,r2
 200bb0c:	180b883a 	mov	r5,r3
 200bb10:	0198dbf4 	movhi	r6,25455
 200bb14:	3190d844 	addi	r6,r6,17249
 200bb18:	01cff4f4 	movhi	r7,16339
 200bb1c:	39e1e9c4 	addi	r7,r7,-30809
 200bb20:	20062e40 	call	20062e4 <__muldf3>
 200bb24:	180b883a 	mov	r5,r3
 200bb28:	01a2d874 	movhi	r6,35681
 200bb2c:	31b22cc4 	addi	r6,r6,-14157
 200bb30:	01cff1f4 	movhi	r7,16327
 200bb34:	39e28a04 	addi	r7,r7,-30168
 200bb38:	1009883a 	mov	r4,r2
 200bb3c:	20113dc0 	call	20113dc <__adddf3>
 200bb40:	a009883a 	mov	r4,r20
 200bb44:	1027883a 	mov	r19,r2
 200bb48:	1823883a 	mov	r17,r3
 200bb4c:	2006b640 	call	2006b64 <__floatsidf>
 200bb50:	1009883a 	mov	r4,r2
 200bb54:	180b883a 	mov	r5,r3
 200bb58:	019427f4 	movhi	r6,20639
 200bb5c:	319e7ec4 	addi	r6,r6,31227
 200bb60:	01cff4f4 	movhi	r7,16339
 200bb64:	39d104c4 	addi	r7,r7,17427
 200bb68:	20062e40 	call	20062e4 <__muldf3>
 200bb6c:	9809883a 	mov	r4,r19
 200bb70:	880b883a 	mov	r5,r17
 200bb74:	100d883a 	mov	r6,r2
 200bb78:	180f883a 	mov	r7,r3
 200bb7c:	20113dc0 	call	20113dc <__adddf3>
 200bb80:	1009883a 	mov	r4,r2
 200bb84:	180b883a 	mov	r5,r3
 200bb88:	1027883a 	mov	r19,r2
 200bb8c:	1823883a 	mov	r17,r3
 200bb90:	2006ae40 	call	2006ae4 <__fixdfsi>
 200bb94:	9809883a 	mov	r4,r19
 200bb98:	880b883a 	mov	r5,r17
 200bb9c:	000d883a 	mov	r6,zero
 200bba0:	000f883a 	mov	r7,zero
 200bba4:	d8800615 	stw	r2,24(sp)
 200bba8:	2011db40 	call	2011db4 <__ledf2>
 200bbac:	10028416 	blt	r2,zero,200c5c0 <_dtoa_r+0xc7c>
 200bbb0:	d9000617 	ldw	r4,24(sp)
 200bbb4:	00800584 	movi	r2,22
 200bbb8:	11027236 	bltu	r2,r4,200c584 <_dtoa_r+0xc40>
 200bbbc:	200490fa 	slli	r2,r4,3
 200bbc0:	00c080b4 	movhi	r3,514
 200bbc4:	18fbec04 	addi	r3,r3,-4176
 200bbc8:	d9800317 	ldw	r6,12(sp)
 200bbcc:	1885883a 	add	r2,r3,r2
 200bbd0:	11000017 	ldw	r4,0(r2)
 200bbd4:	11400117 	ldw	r5,4(r2)
 200bbd8:	900f883a 	mov	r7,r18
 200bbdc:	2011cdc0 	call	2011cdc <__gedf2>
 200bbe0:	0082930e 	bge	zero,r2,200c630 <_dtoa_r+0xcec>
 200bbe4:	d9800617 	ldw	r6,24(sp)
 200bbe8:	d8000e15 	stw	zero,56(sp)
 200bbec:	31bfffc4 	addi	r6,r6,-1
 200bbf0:	d9800615 	stw	r6,24(sp)
 200bbf4:	ad2bc83a 	sub	r21,r21,r20
 200bbf8:	ad7fffc4 	addi	r21,r21,-1
 200bbfc:	a8026c16 	blt	r21,zero,200c5b0 <_dtoa_r+0xc6c>
 200bc00:	d8000815 	stw	zero,32(sp)
 200bc04:	d8800617 	ldw	r2,24(sp)
 200bc08:	10026116 	blt	r2,zero,200c590 <_dtoa_r+0xc4c>
 200bc0c:	a8ab883a 	add	r21,r21,r2
 200bc10:	d8800b15 	stw	r2,44(sp)
 200bc14:	d8000a15 	stw	zero,40(sp)
 200bc18:	d9c00417 	ldw	r7,16(sp)
 200bc1c:	00800244 	movi	r2,9
 200bc20:	11c11636 	bltu	r2,r7,200c07c <_dtoa_r+0x738>
 200bc24:	00800144 	movi	r2,5
 200bc28:	11c4cc0e 	bge	r2,r7,200cf5c <_dtoa_r+0x1618>
 200bc2c:	39ffff04 	addi	r7,r7,-4
 200bc30:	d9c00415 	stw	r7,16(sp)
 200bc34:	0027883a 	mov	r19,zero
 200bc38:	d8c00417 	ldw	r3,16(sp)
 200bc3c:	008000c4 	movi	r2,3
 200bc40:	1883aa26 	beq	r3,r2,200caec <_dtoa_r+0x11a8>
 200bc44:	10c35b0e 	bge	r2,r3,200c9b4 <_dtoa_r+0x1070>
 200bc48:	d9000417 	ldw	r4,16(sp)
 200bc4c:	00800104 	movi	r2,4
 200bc50:	2082da26 	beq	r4,r2,200c7bc <_dtoa_r+0xe78>
 200bc54:	00800144 	movi	r2,5
 200bc58:	2081091e 	bne	r4,r2,200c080 <_dtoa_r+0x73c>
 200bc5c:	01c00044 	movi	r7,1
 200bc60:	d9c00c15 	stw	r7,48(sp)
 200bc64:	d8c02117 	ldw	r3,132(sp)
 200bc68:	d9000617 	ldw	r4,24(sp)
 200bc6c:	1907883a 	add	r3,r3,r4
 200bc70:	19800044 	addi	r6,r3,1
 200bc74:	d8c00d15 	stw	r3,52(sp)
 200bc78:	d9800915 	stw	r6,36(sp)
 200bc7c:	0183a90e 	bge	zero,r6,200cb24 <_dtoa_r+0x11e0>
 200bc80:	d9800917 	ldw	r6,36(sp)
 200bc84:	80001115 	stw	zero,68(r16)
 200bc88:	008005c4 	movi	r2,23
 200bc8c:	1184b52e 	bgeu	r2,r6,200cf64 <_dtoa_r+0x1620>
 200bc90:	00c00044 	movi	r3,1
 200bc94:	00800104 	movi	r2,4
 200bc98:	1085883a 	add	r2,r2,r2
 200bc9c:	11000504 	addi	r4,r2,20
 200bca0:	180b883a 	mov	r5,r3
 200bca4:	18c00044 	addi	r3,r3,1
 200bca8:	313ffb2e 	bgeu	r6,r4,200bc98 <__reset+0xfe002c98>
 200bcac:	81401115 	stw	r5,68(r16)
 200bcb0:	3023883a 	mov	r17,r6
 200bcb4:	8009883a 	mov	r4,r16
 200bcb8:	200d4980 	call	200d498 <_Balloc>
 200bcbc:	d8800715 	stw	r2,28(sp)
 200bcc0:	80801015 	stw	r2,64(r16)
 200bcc4:	00800384 	movi	r2,14
 200bcc8:	1440f936 	bltu	r2,r17,200c0b0 <_dtoa_r+0x76c>
 200bccc:	9800f826 	beq	r19,zero,200c0b0 <_dtoa_r+0x76c>
 200bcd0:	d9c00617 	ldw	r7,24(sp)
 200bcd4:	01c39c0e 	bge	zero,r7,200cb48 <_dtoa_r+0x1204>
 200bcd8:	388003cc 	andi	r2,r7,15
 200bcdc:	100490fa 	slli	r2,r2,3
 200bce0:	382dd13a 	srai	r22,r7,4
 200bce4:	00c080b4 	movhi	r3,514
 200bce8:	18fbec04 	addi	r3,r3,-4176
 200bcec:	1885883a 	add	r2,r3,r2
 200bcf0:	b0c0040c 	andi	r3,r22,16
 200bcf4:	12800017 	ldw	r10,0(r2)
 200bcf8:	12400117 	ldw	r9,4(r2)
 200bcfc:	18038526 	beq	r3,zero,200cb14 <_dtoa_r+0x11d0>
 200bd00:	008080b4 	movhi	r2,514
 200bd04:	10bbe204 	addi	r2,r2,-4216
 200bd08:	11800817 	ldw	r6,32(r2)
 200bd0c:	11c00917 	ldw	r7,36(r2)
 200bd10:	d9000317 	ldw	r4,12(sp)
 200bd14:	900b883a 	mov	r5,r18
 200bd18:	da401515 	stw	r9,84(sp)
 200bd1c:	da801615 	stw	r10,88(sp)
 200bd20:	20059480 	call	2005948 <__divdf3>
 200bd24:	da401517 	ldw	r9,84(sp)
 200bd28:	da801617 	ldw	r10,88(sp)
 200bd2c:	1027883a 	mov	r19,r2
 200bd30:	1829883a 	mov	r20,r3
 200bd34:	b58003cc 	andi	r22,r22,15
 200bd38:	044000c4 	movi	r17,3
 200bd3c:	b0001126 	beq	r22,zero,200bd84 <_dtoa_r+0x440>
 200bd40:	05c080b4 	movhi	r23,514
 200bd44:	bdfbe204 	addi	r23,r23,-4216
 200bd48:	5005883a 	mov	r2,r10
 200bd4c:	4807883a 	mov	r3,r9
 200bd50:	b180004c 	andi	r6,r22,1
 200bd54:	1009883a 	mov	r4,r2
 200bd58:	b02dd07a 	srai	r22,r22,1
 200bd5c:	180b883a 	mov	r5,r3
 200bd60:	30000426 	beq	r6,zero,200bd74 <_dtoa_r+0x430>
 200bd64:	b9800017 	ldw	r6,0(r23)
 200bd68:	b9c00117 	ldw	r7,4(r23)
 200bd6c:	8c400044 	addi	r17,r17,1
 200bd70:	20062e40 	call	20062e4 <__muldf3>
 200bd74:	bdc00204 	addi	r23,r23,8
 200bd78:	b03ff51e 	bne	r22,zero,200bd50 <__reset+0xfe002d50>
 200bd7c:	1015883a 	mov	r10,r2
 200bd80:	1813883a 	mov	r9,r3
 200bd84:	9809883a 	mov	r4,r19
 200bd88:	a00b883a 	mov	r5,r20
 200bd8c:	500d883a 	mov	r6,r10
 200bd90:	480f883a 	mov	r7,r9
 200bd94:	20059480 	call	2005948 <__divdf3>
 200bd98:	1027883a 	mov	r19,r2
 200bd9c:	1829883a 	mov	r20,r3
 200bda0:	d8c00e17 	ldw	r3,56(sp)
 200bda4:	18000626 	beq	r3,zero,200bdc0 <_dtoa_r+0x47c>
 200bda8:	9809883a 	mov	r4,r19
 200bdac:	a00b883a 	mov	r5,r20
 200bdb0:	000d883a 	mov	r6,zero
 200bdb4:	01cffc34 	movhi	r7,16368
 200bdb8:	2011db40 	call	2011db4 <__ledf2>
 200bdbc:	10041516 	blt	r2,zero,200ce14 <_dtoa_r+0x14d0>
 200bdc0:	8809883a 	mov	r4,r17
 200bdc4:	2006b640 	call	2006b64 <__floatsidf>
 200bdc8:	1009883a 	mov	r4,r2
 200bdcc:	180b883a 	mov	r5,r3
 200bdd0:	980d883a 	mov	r6,r19
 200bdd4:	a00f883a 	mov	r7,r20
 200bdd8:	20062e40 	call	20062e4 <__muldf3>
 200bddc:	1009883a 	mov	r4,r2
 200bde0:	180b883a 	mov	r5,r3
 200bde4:	000d883a 	mov	r6,zero
 200bde8:	01d00734 	movhi	r7,16412
 200bdec:	20113dc0 	call	20113dc <__adddf3>
 200bdf0:	1023883a 	mov	r17,r2
 200bdf4:	d8800917 	ldw	r2,36(sp)
 200bdf8:	05bf3034 	movhi	r22,64704
 200bdfc:	1daf883a 	add	r23,r3,r22
 200be00:	10031e26 	beq	r2,zero,200ca7c <_dtoa_r+0x1138>
 200be04:	d8c00617 	ldw	r3,24(sp)
 200be08:	dac00917 	ldw	r11,36(sp)
 200be0c:	d8c01315 	stw	r3,76(sp)
 200be10:	d9000c17 	ldw	r4,48(sp)
 200be14:	20039626 	beq	r4,zero,200cc70 <_dtoa_r+0x132c>
 200be18:	58bfffc4 	addi	r2,r11,-1
 200be1c:	100490fa 	slli	r2,r2,3
 200be20:	00c080b4 	movhi	r3,514
 200be24:	18fbec04 	addi	r3,r3,-4176
 200be28:	0009883a 	mov	r4,zero
 200be2c:	1885883a 	add	r2,r3,r2
 200be30:	11800017 	ldw	r6,0(r2)
 200be34:	11c00117 	ldw	r7,4(r2)
 200be38:	d8800717 	ldw	r2,28(sp)
 200be3c:	014ff834 	movhi	r5,16352
 200be40:	dac01615 	stw	r11,88(sp)
 200be44:	15800044 	addi	r22,r2,1
 200be48:	20059480 	call	2005948 <__divdf3>
 200be4c:	880d883a 	mov	r6,r17
 200be50:	b80f883a 	mov	r7,r23
 200be54:	1009883a 	mov	r4,r2
 200be58:	180b883a 	mov	r5,r3
 200be5c:	2011ea00 	call	2011ea0 <__subdf3>
 200be60:	a00b883a 	mov	r5,r20
 200be64:	9809883a 	mov	r4,r19
 200be68:	102f883a 	mov	r23,r2
 200be6c:	d8c01015 	stw	r3,64(sp)
 200be70:	2006ae40 	call	2006ae4 <__fixdfsi>
 200be74:	1009883a 	mov	r4,r2
 200be78:	d8801515 	stw	r2,84(sp)
 200be7c:	2006b640 	call	2006b64 <__floatsidf>
 200be80:	9809883a 	mov	r4,r19
 200be84:	a00b883a 	mov	r5,r20
 200be88:	100d883a 	mov	r6,r2
 200be8c:	180f883a 	mov	r7,r3
 200be90:	2011ea00 	call	2011ea0 <__subdf3>
 200be94:	da401517 	ldw	r9,84(sp)
 200be98:	1827883a 	mov	r19,r3
 200be9c:	d8c00717 	ldw	r3,28(sp)
 200bea0:	d9401017 	ldw	r5,64(sp)
 200bea4:	4a400c04 	addi	r9,r9,48
 200bea8:	1023883a 	mov	r17,r2
 200beac:	1a400005 	stb	r9,0(r3)
 200beb0:	b809883a 	mov	r4,r23
 200beb4:	880d883a 	mov	r6,r17
 200beb8:	980f883a 	mov	r7,r19
 200bebc:	4829883a 	mov	r20,r9
 200bec0:	2011cdc0 	call	2011cdc <__gedf2>
 200bec4:	00842216 	blt	zero,r2,200cf50 <_dtoa_r+0x160c>
 200bec8:	0009883a 	mov	r4,zero
 200becc:	014ffc34 	movhi	r5,16368
 200bed0:	880d883a 	mov	r6,r17
 200bed4:	980f883a 	mov	r7,r19
 200bed8:	2011ea00 	call	2011ea0 <__subdf3>
 200bedc:	d9401017 	ldw	r5,64(sp)
 200bee0:	b809883a 	mov	r4,r23
 200bee4:	100d883a 	mov	r6,r2
 200bee8:	180f883a 	mov	r7,r3
 200beec:	2011cdc0 	call	2011cdc <__gedf2>
 200bef0:	dac01617 	ldw	r11,88(sp)
 200bef4:	00841316 	blt	zero,r2,200cf44 <_dtoa_r+0x1600>
 200bef8:	00800044 	movi	r2,1
 200befc:	12c06c0e 	bge	r2,r11,200c0b0 <_dtoa_r+0x76c>
 200bf00:	d9000717 	ldw	r4,28(sp)
 200bf04:	dd401215 	stw	r21,72(sp)
 200bf08:	dc001115 	stw	r16,68(sp)
 200bf0c:	22d7883a 	add	r11,r4,r11
 200bf10:	dc801415 	stw	r18,80(sp)
 200bf14:	582b883a 	mov	r21,r11
 200bf18:	b021883a 	mov	r16,r22
 200bf1c:	dc801017 	ldw	r18,64(sp)
 200bf20:	00000906 	br	200bf48 <_dtoa_r+0x604>
 200bf24:	2011ea00 	call	2011ea0 <__subdf3>
 200bf28:	1009883a 	mov	r4,r2
 200bf2c:	180b883a 	mov	r5,r3
 200bf30:	b80d883a 	mov	r6,r23
 200bf34:	900f883a 	mov	r7,r18
 200bf38:	2011db40 	call	2011db4 <__ledf2>
 200bf3c:	1003ea16 	blt	r2,zero,200cee8 <_dtoa_r+0x15a4>
 200bf40:	b543ed26 	beq	r22,r21,200cef8 <_dtoa_r+0x15b4>
 200bf44:	b021883a 	mov	r16,r22
 200bf48:	b809883a 	mov	r4,r23
 200bf4c:	900b883a 	mov	r5,r18
 200bf50:	000d883a 	mov	r6,zero
 200bf54:	01d00934 	movhi	r7,16420
 200bf58:	20062e40 	call	20062e4 <__muldf3>
 200bf5c:	000d883a 	mov	r6,zero
 200bf60:	01d00934 	movhi	r7,16420
 200bf64:	8809883a 	mov	r4,r17
 200bf68:	980b883a 	mov	r5,r19
 200bf6c:	102f883a 	mov	r23,r2
 200bf70:	1825883a 	mov	r18,r3
 200bf74:	20062e40 	call	20062e4 <__muldf3>
 200bf78:	180b883a 	mov	r5,r3
 200bf7c:	1009883a 	mov	r4,r2
 200bf80:	1823883a 	mov	r17,r3
 200bf84:	1027883a 	mov	r19,r2
 200bf88:	2006ae40 	call	2006ae4 <__fixdfsi>
 200bf8c:	1009883a 	mov	r4,r2
 200bf90:	1029883a 	mov	r20,r2
 200bf94:	2006b640 	call	2006b64 <__floatsidf>
 200bf98:	9809883a 	mov	r4,r19
 200bf9c:	880b883a 	mov	r5,r17
 200bfa0:	100d883a 	mov	r6,r2
 200bfa4:	180f883a 	mov	r7,r3
 200bfa8:	2011ea00 	call	2011ea0 <__subdf3>
 200bfac:	a5000c04 	addi	r20,r20,48
 200bfb0:	1009883a 	mov	r4,r2
 200bfb4:	180b883a 	mov	r5,r3
 200bfb8:	b80d883a 	mov	r6,r23
 200bfbc:	900f883a 	mov	r7,r18
 200bfc0:	85000005 	stb	r20,0(r16)
 200bfc4:	1023883a 	mov	r17,r2
 200bfc8:	1827883a 	mov	r19,r3
 200bfcc:	2011db40 	call	2011db4 <__ledf2>
 200bfd0:	b5800044 	addi	r22,r22,1
 200bfd4:	0009883a 	mov	r4,zero
 200bfd8:	014ffc34 	movhi	r5,16368
 200bfdc:	880d883a 	mov	r6,r17
 200bfe0:	980f883a 	mov	r7,r19
 200bfe4:	103fcf0e 	bge	r2,zero,200bf24 <__reset+0xfe002f24>
 200bfe8:	d8c01317 	ldw	r3,76(sp)
 200bfec:	dc001117 	ldw	r16,68(sp)
 200bff0:	d8c00615 	stw	r3,24(sp)
 200bff4:	8009883a 	mov	r4,r16
 200bff8:	e00b883a 	mov	r5,fp
 200bffc:	200d5400 	call	200d540 <_Bfree>
 200c000:	d9800617 	ldw	r6,24(sp)
 200c004:	d9c02217 	ldw	r7,136(sp)
 200c008:	b0000005 	stb	zero,0(r22)
 200c00c:	30800044 	addi	r2,r6,1
 200c010:	38800015 	stw	r2,0(r7)
 200c014:	d8802417 	ldw	r2,144(sp)
 200c018:	10026426 	beq	r2,zero,200c9ac <_dtoa_r+0x1068>
 200c01c:	15800015 	stw	r22,0(r2)
 200c020:	d8800717 	ldw	r2,28(sp)
 200c024:	003e7606 	br	200ba00 <__reset+0xfe002a00>
 200c028:	00800434 	movhi	r2,16
 200c02c:	10bfffc4 	addi	r2,r2,-1
 200c030:	88a2703a 	and	r17,r17,r2
 200c034:	883e831e 	bne	r17,zero,200ba44 <__reset+0xfe002a44>
 200c038:	008080b4 	movhi	r2,514
 200c03c:	10bbce04 	addi	r2,r2,-4296
 200c040:	003e8206 	br	200ba4c <__reset+0xfe002a4c>
 200c044:	10c00204 	addi	r3,r2,8
 200c048:	003e8506 	br	200ba60 <__reset+0xfe002a60>
 200c04c:	01400434 	movhi	r5,16
 200c050:	297fffc4 	addi	r5,r5,-1
 200c054:	914a703a 	and	r5,r18,r5
 200c058:	d9000317 	ldw	r4,12(sp)
 200c05c:	294ffc34 	orhi	r5,r5,16368
 200c060:	a53f0044 	addi	r20,r20,-1023
 200c064:	dd400217 	ldw	r21,8(sp)
 200c068:	d8000f15 	stw	zero,60(sp)
 200c06c:	003ea306 	br	200bafc <__reset+0xfe002afc>
 200c070:	008080b4 	movhi	r2,514
 200c074:	10bbc504 	addi	r2,r2,-4332
 200c078:	003e6106 	br	200ba00 <__reset+0xfe002a00>
 200c07c:	d8000415 	stw	zero,16(sp)
 200c080:	8009883a 	mov	r4,r16
 200c084:	80001115 	stw	zero,68(r16)
 200c088:	000b883a 	mov	r5,zero
 200c08c:	200d4980 	call	200d498 <_Balloc>
 200c090:	00ffffc4 	movi	r3,-1
 200c094:	01000044 	movi	r4,1
 200c098:	d8800715 	stw	r2,28(sp)
 200c09c:	d8c00d15 	stw	r3,52(sp)
 200c0a0:	80801015 	stw	r2,64(r16)
 200c0a4:	d8002115 	stw	zero,132(sp)
 200c0a8:	d8c00915 	stw	r3,36(sp)
 200c0ac:	d9000c15 	stw	r4,48(sp)
 200c0b0:	d8800117 	ldw	r2,4(sp)
 200c0b4:	10008e16 	blt	r2,zero,200c2f0 <_dtoa_r+0x9ac>
 200c0b8:	d9000617 	ldw	r4,24(sp)
 200c0bc:	00c00384 	movi	r3,14
 200c0c0:	19008b16 	blt	r3,r4,200c2f0 <_dtoa_r+0x9ac>
 200c0c4:	200490fa 	slli	r2,r4,3
 200c0c8:	d9802117 	ldw	r6,132(sp)
 200c0cc:	00c080b4 	movhi	r3,514
 200c0d0:	18fbec04 	addi	r3,r3,-4176
 200c0d4:	1885883a 	add	r2,r3,r2
 200c0d8:	14400017 	ldw	r17,0(r2)
 200c0dc:	14c00117 	ldw	r19,4(r2)
 200c0e0:	3001be16 	blt	r6,zero,200c7dc <_dtoa_r+0xe98>
 200c0e4:	d9000317 	ldw	r4,12(sp)
 200c0e8:	880d883a 	mov	r6,r17
 200c0ec:	980f883a 	mov	r7,r19
 200c0f0:	900b883a 	mov	r5,r18
 200c0f4:	20059480 	call	2005948 <__divdf3>
 200c0f8:	180b883a 	mov	r5,r3
 200c0fc:	1009883a 	mov	r4,r2
 200c100:	2006ae40 	call	2006ae4 <__fixdfsi>
 200c104:	1009883a 	mov	r4,r2
 200c108:	102f883a 	mov	r23,r2
 200c10c:	2006b640 	call	2006b64 <__floatsidf>
 200c110:	1009883a 	mov	r4,r2
 200c114:	180b883a 	mov	r5,r3
 200c118:	880d883a 	mov	r6,r17
 200c11c:	980f883a 	mov	r7,r19
 200c120:	20062e40 	call	20062e4 <__muldf3>
 200c124:	d9000317 	ldw	r4,12(sp)
 200c128:	900b883a 	mov	r5,r18
 200c12c:	100d883a 	mov	r6,r2
 200c130:	180f883a 	mov	r7,r3
 200c134:	2011ea00 	call	2011ea0 <__subdf3>
 200c138:	d9c00717 	ldw	r7,28(sp)
 200c13c:	1009883a 	mov	r4,r2
 200c140:	b8800c04 	addi	r2,r23,48
 200c144:	38800005 	stb	r2,0(r7)
 200c148:	3d800044 	addi	r22,r7,1
 200c14c:	d9c00917 	ldw	r7,36(sp)
 200c150:	01800044 	movi	r6,1
 200c154:	180b883a 	mov	r5,r3
 200c158:	2005883a 	mov	r2,r4
 200c15c:	39803e26 	beq	r7,r6,200c258 <_dtoa_r+0x914>
 200c160:	000d883a 	mov	r6,zero
 200c164:	01d00934 	movhi	r7,16420
 200c168:	20062e40 	call	20062e4 <__muldf3>
 200c16c:	1009883a 	mov	r4,r2
 200c170:	180b883a 	mov	r5,r3
 200c174:	000d883a 	mov	r6,zero
 200c178:	000f883a 	mov	r7,zero
 200c17c:	1029883a 	mov	r20,r2
 200c180:	182b883a 	mov	r21,r3
 200c184:	2011c580 	call	2011c58 <__eqdf2>
 200c188:	103f9a26 	beq	r2,zero,200bff4 <__reset+0xfe002ff4>
 200c18c:	d8c00717 	ldw	r3,28(sp)
 200c190:	d9000917 	ldw	r4,36(sp)
 200c194:	b025883a 	mov	r18,r22
 200c198:	df000415 	stw	fp,16(sp)
 200c19c:	1905883a 	add	r2,r3,r4
 200c1a0:	15ffffc4 	addi	r23,r2,-1
 200c1a4:	dc000315 	stw	r16,12(sp)
 200c1a8:	00000a06 	br	200c1d4 <_dtoa_r+0x890>
 200c1ac:	20062e40 	call	20062e4 <__muldf3>
 200c1b0:	1009883a 	mov	r4,r2
 200c1b4:	180b883a 	mov	r5,r3
 200c1b8:	000d883a 	mov	r6,zero
 200c1bc:	000f883a 	mov	r7,zero
 200c1c0:	1029883a 	mov	r20,r2
 200c1c4:	182b883a 	mov	r21,r3
 200c1c8:	2011c580 	call	2011c58 <__eqdf2>
 200c1cc:	10021926 	beq	r2,zero,200ca34 <_dtoa_r+0x10f0>
 200c1d0:	e025883a 	mov	r18,fp
 200c1d4:	880d883a 	mov	r6,r17
 200c1d8:	980f883a 	mov	r7,r19
 200c1dc:	a009883a 	mov	r4,r20
 200c1e0:	a80b883a 	mov	r5,r21
 200c1e4:	20059480 	call	2005948 <__divdf3>
 200c1e8:	180b883a 	mov	r5,r3
 200c1ec:	1009883a 	mov	r4,r2
 200c1f0:	2006ae40 	call	2006ae4 <__fixdfsi>
 200c1f4:	1009883a 	mov	r4,r2
 200c1f8:	1021883a 	mov	r16,r2
 200c1fc:	2006b640 	call	2006b64 <__floatsidf>
 200c200:	1009883a 	mov	r4,r2
 200c204:	180b883a 	mov	r5,r3
 200c208:	880d883a 	mov	r6,r17
 200c20c:	980f883a 	mov	r7,r19
 200c210:	20062e40 	call	20062e4 <__muldf3>
 200c214:	a009883a 	mov	r4,r20
 200c218:	a80b883a 	mov	r5,r21
 200c21c:	100d883a 	mov	r6,r2
 200c220:	180f883a 	mov	r7,r3
 200c224:	2011ea00 	call	2011ea0 <__subdf3>
 200c228:	82800c04 	addi	r10,r16,48
 200c22c:	97000044 	addi	fp,r18,1
 200c230:	92800005 	stb	r10,0(r18)
 200c234:	000d883a 	mov	r6,zero
 200c238:	01d00934 	movhi	r7,16420
 200c23c:	1009883a 	mov	r4,r2
 200c240:	180b883a 	mov	r5,r3
 200c244:	e02d883a 	mov	r22,fp
 200c248:	95ffd81e 	bne	r18,r23,200c1ac <__reset+0xfe0031ac>
 200c24c:	802f883a 	mov	r23,r16
 200c250:	df000417 	ldw	fp,16(sp)
 200c254:	dc000317 	ldw	r16,12(sp)
 200c258:	1009883a 	mov	r4,r2
 200c25c:	180b883a 	mov	r5,r3
 200c260:	100d883a 	mov	r6,r2
 200c264:	180f883a 	mov	r7,r3
 200c268:	20113dc0 	call	20113dc <__adddf3>
 200c26c:	8809883a 	mov	r4,r17
 200c270:	980b883a 	mov	r5,r19
 200c274:	100d883a 	mov	r6,r2
 200c278:	180f883a 	mov	r7,r3
 200c27c:	1025883a 	mov	r18,r2
 200c280:	1829883a 	mov	r20,r3
 200c284:	2011db40 	call	2011db4 <__ledf2>
 200c288:	10000816 	blt	r2,zero,200c2ac <_dtoa_r+0x968>
 200c28c:	8809883a 	mov	r4,r17
 200c290:	980b883a 	mov	r5,r19
 200c294:	900d883a 	mov	r6,r18
 200c298:	a00f883a 	mov	r7,r20
 200c29c:	2011c580 	call	2011c58 <__eqdf2>
 200c2a0:	103f541e 	bne	r2,zero,200bff4 <__reset+0xfe002ff4>
 200c2a4:	bdc0004c 	andi	r23,r23,1
 200c2a8:	b83f5226 	beq	r23,zero,200bff4 <__reset+0xfe002ff4>
 200c2ac:	b53fffc3 	ldbu	r20,-1(r22)
 200c2b0:	b0ffff84 	addi	r3,r22,-2
 200c2b4:	01400e44 	movi	r5,57
 200c2b8:	d9800717 	ldw	r6,28(sp)
 200c2bc:	00000406 	br	200c2d0 <_dtoa_r+0x98c>
 200c2c0:	30824326 	beq	r6,r2,200cbd0 <_dtoa_r+0x128c>
 200c2c4:	1d000003 	ldbu	r20,0(r3)
 200c2c8:	102d883a 	mov	r22,r2
 200c2cc:	18ffffc4 	addi	r3,r3,-1
 200c2d0:	a1003fcc 	andi	r4,r20,255
 200c2d4:	2100201c 	xori	r4,r4,128
 200c2d8:	213fe004 	addi	r4,r4,-128
 200c2dc:	b0bfffc4 	addi	r2,r22,-1
 200c2e0:	217ff726 	beq	r4,r5,200c2c0 <__reset+0xfe0032c0>
 200c2e4:	a2400044 	addi	r9,r20,1
 200c2e8:	12400005 	stb	r9,0(r2)
 200c2ec:	003f4106 	br	200bff4 <__reset+0xfe002ff4>
 200c2f0:	d9000c17 	ldw	r4,48(sp)
 200c2f4:	2000be26 	beq	r4,zero,200c5f0 <_dtoa_r+0xcac>
 200c2f8:	d9800417 	ldw	r6,16(sp)
 200c2fc:	00c00044 	movi	r3,1
 200c300:	19815e0e 	bge	r3,r6,200c87c <_dtoa_r+0xf38>
 200c304:	d8800917 	ldw	r2,36(sp)
 200c308:	d8c00a17 	ldw	r3,40(sp)
 200c30c:	153fffc4 	addi	r20,r2,-1
 200c310:	1d01f816 	blt	r3,r20,200caf4 <_dtoa_r+0x11b0>
 200c314:	1d29c83a 	sub	r20,r3,r20
 200c318:	d9c00917 	ldw	r7,36(sp)
 200c31c:	3802ad16 	blt	r7,zero,200cdd4 <_dtoa_r+0x1490>
 200c320:	dcc00817 	ldw	r19,32(sp)
 200c324:	d8800917 	ldw	r2,36(sp)
 200c328:	d8c00817 	ldw	r3,32(sp)
 200c32c:	8009883a 	mov	r4,r16
 200c330:	01400044 	movi	r5,1
 200c334:	1887883a 	add	r3,r3,r2
 200c338:	d8c00815 	stw	r3,32(sp)
 200c33c:	a8ab883a 	add	r21,r21,r2
 200c340:	200d8c80 	call	200d8c8 <__i2b>
 200c344:	1023883a 	mov	r17,r2
 200c348:	98000826 	beq	r19,zero,200c36c <_dtoa_r+0xa28>
 200c34c:	0540070e 	bge	zero,r21,200c36c <_dtoa_r+0xa28>
 200c350:	a805883a 	mov	r2,r21
 200c354:	9d411716 	blt	r19,r21,200c7b4 <_dtoa_r+0xe70>
 200c358:	d9000817 	ldw	r4,32(sp)
 200c35c:	98a7c83a 	sub	r19,r19,r2
 200c360:	a8abc83a 	sub	r21,r21,r2
 200c364:	2089c83a 	sub	r4,r4,r2
 200c368:	d9000815 	stw	r4,32(sp)
 200c36c:	d9800a17 	ldw	r6,40(sp)
 200c370:	0180140e 	bge	zero,r6,200c3c4 <_dtoa_r+0xa80>
 200c374:	d9c00c17 	ldw	r7,48(sp)
 200c378:	3801d626 	beq	r7,zero,200cad4 <_dtoa_r+0x1190>
 200c37c:	05000e0e 	bge	zero,r20,200c3b8 <_dtoa_r+0xa74>
 200c380:	880b883a 	mov	r5,r17
 200c384:	8009883a 	mov	r4,r16
 200c388:	a00d883a 	mov	r6,r20
 200c38c:	200db700 	call	200db70 <__pow5mult>
 200c390:	e00d883a 	mov	r6,fp
 200c394:	8009883a 	mov	r4,r16
 200c398:	100b883a 	mov	r5,r2
 200c39c:	1023883a 	mov	r17,r2
 200c3a0:	200d9040 	call	200d904 <__multiply>
 200c3a4:	102d883a 	mov	r22,r2
 200c3a8:	e00b883a 	mov	r5,fp
 200c3ac:	8009883a 	mov	r4,r16
 200c3b0:	200d5400 	call	200d540 <_Bfree>
 200c3b4:	b039883a 	mov	fp,r22
 200c3b8:	d8800a17 	ldw	r2,40(sp)
 200c3bc:	150dc83a 	sub	r6,r2,r20
 200c3c0:	30011f1e 	bne	r6,zero,200c840 <_dtoa_r+0xefc>
 200c3c4:	8009883a 	mov	r4,r16
 200c3c8:	01400044 	movi	r5,1
 200c3cc:	200d8c80 	call	200d8c8 <__i2b>
 200c3d0:	d8c00b17 	ldw	r3,44(sp)
 200c3d4:	1029883a 	mov	r20,r2
 200c3d8:	00c0050e 	bge	zero,r3,200c3f0 <_dtoa_r+0xaac>
 200c3dc:	8009883a 	mov	r4,r16
 200c3e0:	100b883a 	mov	r5,r2
 200c3e4:	180d883a 	mov	r6,r3
 200c3e8:	200db700 	call	200db70 <__pow5mult>
 200c3ec:	1029883a 	mov	r20,r2
 200c3f0:	d9000417 	ldw	r4,16(sp)
 200c3f4:	00800044 	movi	r2,1
 200c3f8:	1100e00e 	bge	r2,r4,200c77c <_dtoa_r+0xe38>
 200c3fc:	0025883a 	mov	r18,zero
 200c400:	d8800b17 	ldw	r2,44(sp)
 200c404:	10015f1e 	bne	r2,zero,200c984 <_dtoa_r+0x1040>
 200c408:	00800044 	movi	r2,1
 200c40c:	1545883a 	add	r2,r2,r21
 200c410:	108007cc 	andi	r2,r2,31
 200c414:	10007a26 	beq	r2,zero,200c600 <_dtoa_r+0xcbc>
 200c418:	01000804 	movi	r4,32
 200c41c:	2089c83a 	sub	r4,r4,r2
 200c420:	00c00104 	movi	r3,4
 200c424:	1902d20e 	bge	r3,r4,200cf70 <_dtoa_r+0x162c>
 200c428:	00c00704 	movi	r3,28
 200c42c:	1885c83a 	sub	r2,r3,r2
 200c430:	d8c00817 	ldw	r3,32(sp)
 200c434:	98a7883a 	add	r19,r19,r2
 200c438:	a8ab883a 	add	r21,r21,r2
 200c43c:	1887883a 	add	r3,r3,r2
 200c440:	d8c00815 	stw	r3,32(sp)
 200c444:	d9800817 	ldw	r6,32(sp)
 200c448:	0180040e 	bge	zero,r6,200c45c <_dtoa_r+0xb18>
 200c44c:	e00b883a 	mov	r5,fp
 200c450:	8009883a 	mov	r4,r16
 200c454:	200dcb80 	call	200dcb8 <__lshift>
 200c458:	1039883a 	mov	fp,r2
 200c45c:	0540050e 	bge	zero,r21,200c474 <_dtoa_r+0xb30>
 200c460:	a00b883a 	mov	r5,r20
 200c464:	8009883a 	mov	r4,r16
 200c468:	a80d883a 	mov	r6,r21
 200c46c:	200dcb80 	call	200dcb8 <__lshift>
 200c470:	1029883a 	mov	r20,r2
 200c474:	d9c00e17 	ldw	r7,56(sp)
 200c478:	3801301e 	bne	r7,zero,200c93c <_dtoa_r+0xff8>
 200c47c:	d9c00917 	ldw	r7,36(sp)
 200c480:	01c1500e 	bge	zero,r7,200c9c4 <_dtoa_r+0x1080>
 200c484:	d8800c17 	ldw	r2,48(sp)
 200c488:	10006b1e 	bne	r2,zero,200c638 <_dtoa_r+0xcf4>
 200c48c:	dc800717 	ldw	r18,28(sp)
 200c490:	dcc00917 	ldw	r19,36(sp)
 200c494:	902b883a 	mov	r21,r18
 200c498:	00000206 	br	200c4a4 <_dtoa_r+0xb60>
 200c49c:	200d5680 	call	200d568 <__multadd>
 200c4a0:	1039883a 	mov	fp,r2
 200c4a4:	e009883a 	mov	r4,fp
 200c4a8:	a00b883a 	mov	r5,r20
 200c4ac:	200b71c0 	call	200b71c <quorem>
 200c4b0:	10800c04 	addi	r2,r2,48
 200c4b4:	90800005 	stb	r2,0(r18)
 200c4b8:	94800044 	addi	r18,r18,1
 200c4bc:	9547c83a 	sub	r3,r18,r21
 200c4c0:	8009883a 	mov	r4,r16
 200c4c4:	e00b883a 	mov	r5,fp
 200c4c8:	01800284 	movi	r6,10
 200c4cc:	000f883a 	mov	r7,zero
 200c4d0:	1cfff216 	blt	r3,r19,200c49c <__reset+0xfe00349c>
 200c4d4:	102f883a 	mov	r23,r2
 200c4d8:	d8800917 	ldw	r2,36(sp)
 200c4dc:	0082410e 	bge	zero,r2,200cde4 <_dtoa_r+0x14a0>
 200c4e0:	d9000717 	ldw	r4,28(sp)
 200c4e4:	002b883a 	mov	r21,zero
 200c4e8:	20ad883a 	add	r22,r4,r2
 200c4ec:	e00b883a 	mov	r5,fp
 200c4f0:	8009883a 	mov	r4,r16
 200c4f4:	01800044 	movi	r6,1
 200c4f8:	200dcb80 	call	200dcb8 <__lshift>
 200c4fc:	1009883a 	mov	r4,r2
 200c500:	a00b883a 	mov	r5,r20
 200c504:	1039883a 	mov	fp,r2
 200c508:	200de080 	call	200de08 <__mcmp>
 200c50c:	0080d10e 	bge	zero,r2,200c854 <_dtoa_r+0xf10>
 200c510:	b13fffc3 	ldbu	r4,-1(r22)
 200c514:	b0ffff84 	addi	r3,r22,-2
 200c518:	01800e44 	movi	r6,57
 200c51c:	d9c00717 	ldw	r7,28(sp)
 200c520:	00000406 	br	200c534 <_dtoa_r+0xbf0>
 200c524:	38813c26 	beq	r7,r2,200ca18 <_dtoa_r+0x10d4>
 200c528:	19000003 	ldbu	r4,0(r3)
 200c52c:	102d883a 	mov	r22,r2
 200c530:	18ffffc4 	addi	r3,r3,-1
 200c534:	21403fcc 	andi	r5,r4,255
 200c538:	2940201c 	xori	r5,r5,128
 200c53c:	297fe004 	addi	r5,r5,-128
 200c540:	b0bfffc4 	addi	r2,r22,-1
 200c544:	29bff726 	beq	r5,r6,200c524 <__reset+0xfe003524>
 200c548:	21000044 	addi	r4,r4,1
 200c54c:	11000005 	stb	r4,0(r2)
 200c550:	8009883a 	mov	r4,r16
 200c554:	a00b883a 	mov	r5,r20
 200c558:	200d5400 	call	200d540 <_Bfree>
 200c55c:	883ea526 	beq	r17,zero,200bff4 <__reset+0xfe002ff4>
 200c560:	a8000426 	beq	r21,zero,200c574 <_dtoa_r+0xc30>
 200c564:	ac400326 	beq	r21,r17,200c574 <_dtoa_r+0xc30>
 200c568:	8009883a 	mov	r4,r16
 200c56c:	a80b883a 	mov	r5,r21
 200c570:	200d5400 	call	200d540 <_Bfree>
 200c574:	8009883a 	mov	r4,r16
 200c578:	880b883a 	mov	r5,r17
 200c57c:	200d5400 	call	200d540 <_Bfree>
 200c580:	003e9c06 	br	200bff4 <__reset+0xfe002ff4>
 200c584:	01c00044 	movi	r7,1
 200c588:	d9c00e15 	stw	r7,56(sp)
 200c58c:	003d9906 	br	200bbf4 <__reset+0xfe002bf4>
 200c590:	d8c00817 	ldw	r3,32(sp)
 200c594:	d9000617 	ldw	r4,24(sp)
 200c598:	d8000b15 	stw	zero,44(sp)
 200c59c:	1907c83a 	sub	r3,r3,r4
 200c5a0:	010dc83a 	sub	r6,zero,r4
 200c5a4:	d8c00815 	stw	r3,32(sp)
 200c5a8:	d9800a15 	stw	r6,40(sp)
 200c5ac:	003d9a06 	br	200bc18 <__reset+0xfe002c18>
 200c5b0:	056bc83a 	sub	r21,zero,r21
 200c5b4:	dd400815 	stw	r21,32(sp)
 200c5b8:	002b883a 	mov	r21,zero
 200c5bc:	003d9106 	br	200bc04 <__reset+0xfe002c04>
 200c5c0:	d9000617 	ldw	r4,24(sp)
 200c5c4:	2006b640 	call	2006b64 <__floatsidf>
 200c5c8:	1009883a 	mov	r4,r2
 200c5cc:	180b883a 	mov	r5,r3
 200c5d0:	980d883a 	mov	r6,r19
 200c5d4:	880f883a 	mov	r7,r17
 200c5d8:	2011c580 	call	2011c58 <__eqdf2>
 200c5dc:	103d7426 	beq	r2,zero,200bbb0 <__reset+0xfe002bb0>
 200c5e0:	d8c00617 	ldw	r3,24(sp)
 200c5e4:	18ffffc4 	addi	r3,r3,-1
 200c5e8:	d8c00615 	stw	r3,24(sp)
 200c5ec:	003d7006 	br	200bbb0 <__reset+0xfe002bb0>
 200c5f0:	dd000a17 	ldw	r20,40(sp)
 200c5f4:	dcc00817 	ldw	r19,32(sp)
 200c5f8:	0023883a 	mov	r17,zero
 200c5fc:	003f5206 	br	200c348 <__reset+0xfe003348>
 200c600:	00800704 	movi	r2,28
 200c604:	d9000817 	ldw	r4,32(sp)
 200c608:	98a7883a 	add	r19,r19,r2
 200c60c:	a8ab883a 	add	r21,r21,r2
 200c610:	2089883a 	add	r4,r4,r2
 200c614:	d9000815 	stw	r4,32(sp)
 200c618:	003f8a06 	br	200c444 <__reset+0xfe003444>
 200c61c:	d9c00317 	ldw	r7,12(sp)
 200c620:	013efb84 	movi	r4,-1042
 200c624:	2509c83a 	sub	r4,r4,r20
 200c628:	3908983a 	sll	r4,r7,r4
 200c62c:	003d2c06 	br	200bae0 <__reset+0xfe002ae0>
 200c630:	d8000e15 	stw	zero,56(sp)
 200c634:	003d6f06 	br	200bbf4 <__reset+0xfe002bf4>
 200c638:	04c0050e 	bge	zero,r19,200c650 <_dtoa_r+0xd0c>
 200c63c:	880b883a 	mov	r5,r17
 200c640:	8009883a 	mov	r4,r16
 200c644:	980d883a 	mov	r6,r19
 200c648:	200dcb80 	call	200dcb8 <__lshift>
 200c64c:	1023883a 	mov	r17,r2
 200c650:	9001681e 	bne	r18,zero,200cbf4 <_dtoa_r+0x12b0>
 200c654:	8827883a 	mov	r19,r17
 200c658:	d8c00717 	ldw	r3,28(sp)
 200c65c:	d9000917 	ldw	r4,36(sp)
 200c660:	1dffffc4 	addi	r23,r3,-1
 200c664:	1825883a 	mov	r18,r3
 200c668:	d8c00317 	ldw	r3,12(sp)
 200c66c:	b92f883a 	add	r23,r23,r4
 200c670:	ddc00515 	stw	r23,20(sp)
 200c674:	18c0004c 	andi	r3,r3,1
 200c678:	d8c00315 	stw	r3,12(sp)
 200c67c:	e009883a 	mov	r4,fp
 200c680:	a00b883a 	mov	r5,r20
 200c684:	200b71c0 	call	200b71c <quorem>
 200c688:	e009883a 	mov	r4,fp
 200c68c:	880b883a 	mov	r5,r17
 200c690:	102d883a 	mov	r22,r2
 200c694:	200de080 	call	200de08 <__mcmp>
 200c698:	8009883a 	mov	r4,r16
 200c69c:	a00b883a 	mov	r5,r20
 200c6a0:	980d883a 	mov	r6,r19
 200c6a4:	102b883a 	mov	r21,r2
 200c6a8:	200de680 	call	200de68 <__mdiff>
 200c6ac:	1007883a 	mov	r3,r2
 200c6b0:	10800317 	ldw	r2,12(r2)
 200c6b4:	b5c00c04 	addi	r23,r22,48
 200c6b8:	10009b1e 	bne	r2,zero,200c928 <_dtoa_r+0xfe4>
 200c6bc:	180b883a 	mov	r5,r3
 200c6c0:	e009883a 	mov	r4,fp
 200c6c4:	d8c01515 	stw	r3,84(sp)
 200c6c8:	200de080 	call	200de08 <__mcmp>
 200c6cc:	d8c01517 	ldw	r3,84(sp)
 200c6d0:	8009883a 	mov	r4,r16
 200c6d4:	d8801515 	stw	r2,84(sp)
 200c6d8:	180b883a 	mov	r5,r3
 200c6dc:	200d5400 	call	200d540 <_Bfree>
 200c6e0:	d8801517 	ldw	r2,84(sp)
 200c6e4:	1000041e 	bne	r2,zero,200c6f8 <_dtoa_r+0xdb4>
 200c6e8:	d9000417 	ldw	r4,16(sp)
 200c6ec:	2000021e 	bne	r4,zero,200c6f8 <_dtoa_r+0xdb4>
 200c6f0:	d8c00317 	ldw	r3,12(sp)
 200c6f4:	18007926 	beq	r3,zero,200c8dc <_dtoa_r+0xf98>
 200c6f8:	a8006616 	blt	r21,zero,200c894 <_dtoa_r+0xf50>
 200c6fc:	a800041e 	bne	r21,zero,200c710 <_dtoa_r+0xdcc>
 200c700:	d9000417 	ldw	r4,16(sp)
 200c704:	2000021e 	bne	r4,zero,200c710 <_dtoa_r+0xdcc>
 200c708:	d8c00317 	ldw	r3,12(sp)
 200c70c:	18006126 	beq	r3,zero,200c894 <_dtoa_r+0xf50>
 200c710:	00814916 	blt	zero,r2,200cc38 <_dtoa_r+0x12f4>
 200c714:	d8c00517 	ldw	r3,20(sp)
 200c718:	95400044 	addi	r21,r18,1
 200c71c:	95c00005 	stb	r23,0(r18)
 200c720:	a82d883a 	mov	r22,r21
 200c724:	90c14c26 	beq	r18,r3,200cc58 <_dtoa_r+0x1314>
 200c728:	e00b883a 	mov	r5,fp
 200c72c:	8009883a 	mov	r4,r16
 200c730:	01800284 	movi	r6,10
 200c734:	000f883a 	mov	r7,zero
 200c738:	200d5680 	call	200d568 <__multadd>
 200c73c:	1039883a 	mov	fp,r2
 200c740:	8cc07026 	beq	r17,r19,200c904 <_dtoa_r+0xfc0>
 200c744:	880b883a 	mov	r5,r17
 200c748:	01800284 	movi	r6,10
 200c74c:	000f883a 	mov	r7,zero
 200c750:	8009883a 	mov	r4,r16
 200c754:	200d5680 	call	200d568 <__multadd>
 200c758:	980b883a 	mov	r5,r19
 200c75c:	8009883a 	mov	r4,r16
 200c760:	01800284 	movi	r6,10
 200c764:	000f883a 	mov	r7,zero
 200c768:	1023883a 	mov	r17,r2
 200c76c:	200d5680 	call	200d568 <__multadd>
 200c770:	1027883a 	mov	r19,r2
 200c774:	a825883a 	mov	r18,r21
 200c778:	003fc006 	br	200c67c <__reset+0xfe00367c>
 200c77c:	d9800317 	ldw	r6,12(sp)
 200c780:	303f1e1e 	bne	r6,zero,200c3fc <__reset+0xfe0033fc>
 200c784:	00c00434 	movhi	r3,16
 200c788:	18ffffc4 	addi	r3,r3,-1
 200c78c:	90c6703a 	and	r3,r18,r3
 200c790:	183f1a1e 	bne	r3,zero,200c3fc <__reset+0xfe0033fc>
 200c794:	949ffc2c 	andhi	r18,r18,32752
 200c798:	903f1826 	beq	r18,zero,200c3fc <__reset+0xfe0033fc>
 200c79c:	d9c00817 	ldw	r7,32(sp)
 200c7a0:	a8ab883a 	add	r21,r21,r2
 200c7a4:	1025883a 	mov	r18,r2
 200c7a8:	388f883a 	add	r7,r7,r2
 200c7ac:	d9c00815 	stw	r7,32(sp)
 200c7b0:	003f1306 	br	200c400 <__reset+0xfe003400>
 200c7b4:	9805883a 	mov	r2,r19
 200c7b8:	003ee706 	br	200c358 <__reset+0xfe003358>
 200c7bc:	01800044 	movi	r6,1
 200c7c0:	d9800c15 	stw	r6,48(sp)
 200c7c4:	d8802117 	ldw	r2,132(sp)
 200c7c8:	0080da0e 	bge	zero,r2,200cb34 <_dtoa_r+0x11f0>
 200c7cc:	100d883a 	mov	r6,r2
 200c7d0:	d8800d15 	stw	r2,52(sp)
 200c7d4:	d8800915 	stw	r2,36(sp)
 200c7d8:	003d2a06 	br	200bc84 <__reset+0xfe002c84>
 200c7dc:	d8800917 	ldw	r2,36(sp)
 200c7e0:	00be4016 	blt	zero,r2,200c0e4 <__reset+0xfe0030e4>
 200c7e4:	1000b81e 	bne	r2,zero,200cac8 <_dtoa_r+0x1184>
 200c7e8:	8809883a 	mov	r4,r17
 200c7ec:	980b883a 	mov	r5,r19
 200c7f0:	000d883a 	mov	r6,zero
 200c7f4:	01d00534 	movhi	r7,16404
 200c7f8:	20062e40 	call	20062e4 <__muldf3>
 200c7fc:	d9800317 	ldw	r6,12(sp)
 200c800:	1009883a 	mov	r4,r2
 200c804:	180b883a 	mov	r5,r3
 200c808:	900f883a 	mov	r7,r18
 200c80c:	2011cdc0 	call	2011cdc <__gedf2>
 200c810:	0029883a 	mov	r20,zero
 200c814:	0023883a 	mov	r17,zero
 200c818:	10007716 	blt	r2,zero,200c9f8 <_dtoa_r+0x10b4>
 200c81c:	d9002117 	ldw	r4,132(sp)
 200c820:	dd800717 	ldw	r22,28(sp)
 200c824:	0108303a 	nor	r4,zero,r4
 200c828:	d9000615 	stw	r4,24(sp)
 200c82c:	8009883a 	mov	r4,r16
 200c830:	a00b883a 	mov	r5,r20
 200c834:	200d5400 	call	200d540 <_Bfree>
 200c838:	883f4e1e 	bne	r17,zero,200c574 <__reset+0xfe003574>
 200c83c:	003ded06 	br	200bff4 <__reset+0xfe002ff4>
 200c840:	e00b883a 	mov	r5,fp
 200c844:	8009883a 	mov	r4,r16
 200c848:	200db700 	call	200db70 <__pow5mult>
 200c84c:	1039883a 	mov	fp,r2
 200c850:	003edc06 	br	200c3c4 <__reset+0xfe0033c4>
 200c854:	1000021e 	bne	r2,zero,200c860 <_dtoa_r+0xf1c>
 200c858:	ba40004c 	andi	r9,r23,1
 200c85c:	483f2c1e 	bne	r9,zero,200c510 <__reset+0xfe003510>
 200c860:	01000c04 	movi	r4,48
 200c864:	00000106 	br	200c86c <_dtoa_r+0xf28>
 200c868:	102d883a 	mov	r22,r2
 200c86c:	b0bfffc4 	addi	r2,r22,-1
 200c870:	10c00007 	ldb	r3,0(r2)
 200c874:	193ffc26 	beq	r3,r4,200c868 <__reset+0xfe003868>
 200c878:	003f3506 	br	200c550 <__reset+0xfe003550>
 200c87c:	d9c00f17 	ldw	r7,60(sp)
 200c880:	38015a26 	beq	r7,zero,200cdec <_dtoa_r+0x14a8>
 200c884:	10810cc4 	addi	r2,r2,1075
 200c888:	dd000a17 	ldw	r20,40(sp)
 200c88c:	dcc00817 	ldw	r19,32(sp)
 200c890:	003ea506 	br	200c328 <__reset+0xfe003328>
 200c894:	00800c0e 	bge	zero,r2,200c8c8 <_dtoa_r+0xf84>
 200c898:	e00b883a 	mov	r5,fp
 200c89c:	8009883a 	mov	r4,r16
 200c8a0:	01800044 	movi	r6,1
 200c8a4:	200dcb80 	call	200dcb8 <__lshift>
 200c8a8:	1009883a 	mov	r4,r2
 200c8ac:	a00b883a 	mov	r5,r20
 200c8b0:	1039883a 	mov	fp,r2
 200c8b4:	200de080 	call	200de08 <__mcmp>
 200c8b8:	0081930e 	bge	zero,r2,200cf08 <_dtoa_r+0x15c4>
 200c8bc:	00800e44 	movi	r2,57
 200c8c0:	b8800a26 	beq	r23,r2,200c8ec <_dtoa_r+0xfa8>
 200c8c4:	b5c00c44 	addi	r23,r22,49
 200c8c8:	882b883a 	mov	r21,r17
 200c8cc:	95800044 	addi	r22,r18,1
 200c8d0:	95c00005 	stb	r23,0(r18)
 200c8d4:	9823883a 	mov	r17,r19
 200c8d8:	003f1d06 	br	200c550 <__reset+0xfe003550>
 200c8dc:	00800e44 	movi	r2,57
 200c8e0:	b8800226 	beq	r23,r2,200c8ec <_dtoa_r+0xfa8>
 200c8e4:	057ff716 	blt	zero,r21,200c8c4 <__reset+0xfe0038c4>
 200c8e8:	003ff706 	br	200c8c8 <__reset+0xfe0038c8>
 200c8ec:	01000e44 	movi	r4,57
 200c8f0:	882b883a 	mov	r21,r17
 200c8f4:	95800044 	addi	r22,r18,1
 200c8f8:	91000005 	stb	r4,0(r18)
 200c8fc:	9823883a 	mov	r17,r19
 200c900:	003f0406 	br	200c514 <__reset+0xfe003514>
 200c904:	880b883a 	mov	r5,r17
 200c908:	8009883a 	mov	r4,r16
 200c90c:	01800284 	movi	r6,10
 200c910:	000f883a 	mov	r7,zero
 200c914:	200d5680 	call	200d568 <__multadd>
 200c918:	1023883a 	mov	r17,r2
 200c91c:	1027883a 	mov	r19,r2
 200c920:	a825883a 	mov	r18,r21
 200c924:	003f5506 	br	200c67c <__reset+0xfe00367c>
 200c928:	8009883a 	mov	r4,r16
 200c92c:	180b883a 	mov	r5,r3
 200c930:	200d5400 	call	200d540 <_Bfree>
 200c934:	00800044 	movi	r2,1
 200c938:	003f6f06 	br	200c6f8 <__reset+0xfe0036f8>
 200c93c:	e009883a 	mov	r4,fp
 200c940:	a00b883a 	mov	r5,r20
 200c944:	200de080 	call	200de08 <__mcmp>
 200c948:	103ecc0e 	bge	r2,zero,200c47c <__reset+0xfe00347c>
 200c94c:	e00b883a 	mov	r5,fp
 200c950:	8009883a 	mov	r4,r16
 200c954:	01800284 	movi	r6,10
 200c958:	000f883a 	mov	r7,zero
 200c95c:	200d5680 	call	200d568 <__multadd>
 200c960:	1039883a 	mov	fp,r2
 200c964:	d8800617 	ldw	r2,24(sp)
 200c968:	d8c00c17 	ldw	r3,48(sp)
 200c96c:	10bfffc4 	addi	r2,r2,-1
 200c970:	d8800615 	stw	r2,24(sp)
 200c974:	1801681e 	bne	r3,zero,200cf18 <_dtoa_r+0x15d4>
 200c978:	d9800d17 	ldw	r6,52(sp)
 200c97c:	d9800915 	stw	r6,36(sp)
 200c980:	003ebe06 	br	200c47c <__reset+0xfe00347c>
 200c984:	a0800417 	ldw	r2,16(r20)
 200c988:	10800104 	addi	r2,r2,4
 200c98c:	1085883a 	add	r2,r2,r2
 200c990:	1085883a 	add	r2,r2,r2
 200c994:	a085883a 	add	r2,r20,r2
 200c998:	11000017 	ldw	r4,0(r2)
 200c99c:	200d7b00 	call	200d7b0 <__hi0bits>
 200c9a0:	00c00804 	movi	r3,32
 200c9a4:	1885c83a 	sub	r2,r3,r2
 200c9a8:	003e9806 	br	200c40c <__reset+0xfe00340c>
 200c9ac:	d8800717 	ldw	r2,28(sp)
 200c9b0:	003c1306 	br	200ba00 <__reset+0xfe002a00>
 200c9b4:	00800084 	movi	r2,2
 200c9b8:	18bdb11e 	bne	r3,r2,200c080 <__reset+0xfe003080>
 200c9bc:	d8000c15 	stw	zero,48(sp)
 200c9c0:	003f8006 	br	200c7c4 <__reset+0xfe0037c4>
 200c9c4:	d8c00417 	ldw	r3,16(sp)
 200c9c8:	00800084 	movi	r2,2
 200c9cc:	10fead0e 	bge	r2,r3,200c484 <__reset+0xfe003484>
 200c9d0:	383f921e 	bne	r7,zero,200c81c <__reset+0xfe00381c>
 200c9d4:	a00b883a 	mov	r5,r20
 200c9d8:	8009883a 	mov	r4,r16
 200c9dc:	01800144 	movi	r6,5
 200c9e0:	200d5680 	call	200d568 <__multadd>
 200c9e4:	e009883a 	mov	r4,fp
 200c9e8:	100b883a 	mov	r5,r2
 200c9ec:	1029883a 	mov	r20,r2
 200c9f0:	200de080 	call	200de08 <__mcmp>
 200c9f4:	00bf890e 	bge	zero,r2,200c81c <__reset+0xfe00381c>
 200c9f8:	d9c00617 	ldw	r7,24(sp)
 200c9fc:	d9800717 	ldw	r6,28(sp)
 200ca00:	00800c44 	movi	r2,49
 200ca04:	39c00044 	addi	r7,r7,1
 200ca08:	35800044 	addi	r22,r6,1
 200ca0c:	30800005 	stb	r2,0(r6)
 200ca10:	d9c00615 	stw	r7,24(sp)
 200ca14:	003f8506 	br	200c82c <__reset+0xfe00382c>
 200ca18:	d9800617 	ldw	r6,24(sp)
 200ca1c:	d9c00717 	ldw	r7,28(sp)
 200ca20:	00800c44 	movi	r2,49
 200ca24:	31800044 	addi	r6,r6,1
 200ca28:	d9800615 	stw	r6,24(sp)
 200ca2c:	38800005 	stb	r2,0(r7)
 200ca30:	003ec706 	br	200c550 <__reset+0xfe003550>
 200ca34:	df000417 	ldw	fp,16(sp)
 200ca38:	dc000317 	ldw	r16,12(sp)
 200ca3c:	003d6d06 	br	200bff4 <__reset+0xfe002ff4>
 200ca40:	8809883a 	mov	r4,r17
 200ca44:	2006b640 	call	2006b64 <__floatsidf>
 200ca48:	9809883a 	mov	r4,r19
 200ca4c:	a00b883a 	mov	r5,r20
 200ca50:	100d883a 	mov	r6,r2
 200ca54:	180f883a 	mov	r7,r3
 200ca58:	20062e40 	call	20062e4 <__muldf3>
 200ca5c:	1009883a 	mov	r4,r2
 200ca60:	180b883a 	mov	r5,r3
 200ca64:	000d883a 	mov	r6,zero
 200ca68:	01d00734 	movhi	r7,16412
 200ca6c:	20113dc0 	call	20113dc <__adddf3>
 200ca70:	05bf3034 	movhi	r22,64704
 200ca74:	1023883a 	mov	r17,r2
 200ca78:	1daf883a 	add	r23,r3,r22
 200ca7c:	9809883a 	mov	r4,r19
 200ca80:	a00b883a 	mov	r5,r20
 200ca84:	000d883a 	mov	r6,zero
 200ca88:	01d00534 	movhi	r7,16404
 200ca8c:	2011ea00 	call	2011ea0 <__subdf3>
 200ca90:	1009883a 	mov	r4,r2
 200ca94:	180b883a 	mov	r5,r3
 200ca98:	880d883a 	mov	r6,r17
 200ca9c:	b80f883a 	mov	r7,r23
 200caa0:	1027883a 	mov	r19,r2
 200caa4:	1829883a 	mov	r20,r3
 200caa8:	2011cdc0 	call	2011cdc <__gedf2>
 200caac:	00806d16 	blt	zero,r2,200cc64 <_dtoa_r+0x1320>
 200cab0:	b9e0003c 	xorhi	r7,r23,32768
 200cab4:	9809883a 	mov	r4,r19
 200cab8:	a00b883a 	mov	r5,r20
 200cabc:	880d883a 	mov	r6,r17
 200cac0:	2011db40 	call	2011db4 <__ledf2>
 200cac4:	103d7a0e 	bge	r2,zero,200c0b0 <__reset+0xfe0030b0>
 200cac8:	0029883a 	mov	r20,zero
 200cacc:	0023883a 	mov	r17,zero
 200cad0:	003f5206 	br	200c81c <__reset+0xfe00381c>
 200cad4:	d9800a17 	ldw	r6,40(sp)
 200cad8:	e00b883a 	mov	r5,fp
 200cadc:	8009883a 	mov	r4,r16
 200cae0:	200db700 	call	200db70 <__pow5mult>
 200cae4:	1039883a 	mov	fp,r2
 200cae8:	003e3606 	br	200c3c4 <__reset+0xfe0033c4>
 200caec:	d8000c15 	stw	zero,48(sp)
 200caf0:	003c5c06 	br	200bc64 <__reset+0xfe002c64>
 200caf4:	d9000a17 	ldw	r4,40(sp)
 200caf8:	d9800b17 	ldw	r6,44(sp)
 200cafc:	dd000a15 	stw	r20,40(sp)
 200cb00:	a105c83a 	sub	r2,r20,r4
 200cb04:	308d883a 	add	r6,r6,r2
 200cb08:	d9800b15 	stw	r6,44(sp)
 200cb0c:	0029883a 	mov	r20,zero
 200cb10:	003e0106 	br	200c318 <__reset+0xfe003318>
 200cb14:	dcc00317 	ldw	r19,12(sp)
 200cb18:	9029883a 	mov	r20,r18
 200cb1c:	04400084 	movi	r17,2
 200cb20:	003c8606 	br	200bd3c <__reset+0xfe002d3c>
 200cb24:	3023883a 	mov	r17,r6
 200cb28:	80001115 	stw	zero,68(r16)
 200cb2c:	000b883a 	mov	r5,zero
 200cb30:	003c6006 	br	200bcb4 <__reset+0xfe002cb4>
 200cb34:	04400044 	movi	r17,1
 200cb38:	dc400d15 	stw	r17,52(sp)
 200cb3c:	dc400915 	stw	r17,36(sp)
 200cb40:	dc402115 	stw	r17,132(sp)
 200cb44:	003ff806 	br	200cb28 <__reset+0xfe003b28>
 200cb48:	d8800617 	ldw	r2,24(sp)
 200cb4c:	00adc83a 	sub	r22,zero,r2
 200cb50:	b000ac26 	beq	r22,zero,200ce04 <_dtoa_r+0x14c0>
 200cb54:	b08003cc 	andi	r2,r22,15
 200cb58:	100490fa 	slli	r2,r2,3
 200cb5c:	00c080b4 	movhi	r3,514
 200cb60:	18fbec04 	addi	r3,r3,-4176
 200cb64:	d9000317 	ldw	r4,12(sp)
 200cb68:	1885883a 	add	r2,r3,r2
 200cb6c:	11800017 	ldw	r6,0(r2)
 200cb70:	11c00117 	ldw	r7,4(r2)
 200cb74:	b02dd13a 	srai	r22,r22,4
 200cb78:	900b883a 	mov	r5,r18
 200cb7c:	20062e40 	call	20062e4 <__muldf3>
 200cb80:	1027883a 	mov	r19,r2
 200cb84:	1829883a 	mov	r20,r3
 200cb88:	b000ec26 	beq	r22,zero,200cf3c <_dtoa_r+0x15f8>
 200cb8c:	05c080b4 	movhi	r23,514
 200cb90:	bdfbe204 	addi	r23,r23,-4216
 200cb94:	04400084 	movi	r17,2
 200cb98:	b180004c 	andi	r6,r22,1
 200cb9c:	1009883a 	mov	r4,r2
 200cba0:	b02dd07a 	srai	r22,r22,1
 200cba4:	180b883a 	mov	r5,r3
 200cba8:	30000426 	beq	r6,zero,200cbbc <_dtoa_r+0x1278>
 200cbac:	b9800017 	ldw	r6,0(r23)
 200cbb0:	b9c00117 	ldw	r7,4(r23)
 200cbb4:	8c400044 	addi	r17,r17,1
 200cbb8:	20062e40 	call	20062e4 <__muldf3>
 200cbbc:	bdc00204 	addi	r23,r23,8
 200cbc0:	b03ff51e 	bne	r22,zero,200cb98 <__reset+0xfe003b98>
 200cbc4:	1027883a 	mov	r19,r2
 200cbc8:	1829883a 	mov	r20,r3
 200cbcc:	003c7406 	br	200bda0 <__reset+0xfe002da0>
 200cbd0:	d9800617 	ldw	r6,24(sp)
 200cbd4:	d9c00717 	ldw	r7,28(sp)
 200cbd8:	00c00c04 	movi	r3,48
 200cbdc:	31800044 	addi	r6,r6,1
 200cbe0:	38c00005 	stb	r3,0(r7)
 200cbe4:	02400c44 	movi	r9,49
 200cbe8:	d9800615 	stw	r6,24(sp)
 200cbec:	12400005 	stb	r9,0(r2)
 200cbf0:	003d0006 	br	200bff4 <__reset+0xfe002ff4>
 200cbf4:	89400117 	ldw	r5,4(r17)
 200cbf8:	8009883a 	mov	r4,r16
 200cbfc:	200d4980 	call	200d498 <_Balloc>
 200cc00:	89800417 	ldw	r6,16(r17)
 200cc04:	11000304 	addi	r4,r2,12
 200cc08:	89400304 	addi	r5,r17,12
 200cc0c:	31800084 	addi	r6,r6,2
 200cc10:	318d883a 	add	r6,r6,r6
 200cc14:	318d883a 	add	r6,r6,r6
 200cc18:	1025883a 	mov	r18,r2
 200cc1c:	20087040 	call	2008704 <memcpy>
 200cc20:	8009883a 	mov	r4,r16
 200cc24:	900b883a 	mov	r5,r18
 200cc28:	01800044 	movi	r6,1
 200cc2c:	200dcb80 	call	200dcb8 <__lshift>
 200cc30:	1027883a 	mov	r19,r2
 200cc34:	003e8806 	br	200c658 <__reset+0xfe003658>
 200cc38:	00800e44 	movi	r2,57
 200cc3c:	b8bf2b26 	beq	r23,r2,200c8ec <__reset+0xfe0038ec>
 200cc40:	ba400044 	addi	r9,r23,1
 200cc44:	882b883a 	mov	r21,r17
 200cc48:	95800044 	addi	r22,r18,1
 200cc4c:	92400005 	stb	r9,0(r18)
 200cc50:	9823883a 	mov	r17,r19
 200cc54:	003e3e06 	br	200c550 <__reset+0xfe003550>
 200cc58:	882b883a 	mov	r21,r17
 200cc5c:	9823883a 	mov	r17,r19
 200cc60:	003e2206 	br	200c4ec <__reset+0xfe0034ec>
 200cc64:	0029883a 	mov	r20,zero
 200cc68:	0023883a 	mov	r17,zero
 200cc6c:	003f6206 	br	200c9f8 <__reset+0xfe0039f8>
 200cc70:	59bfffc4 	addi	r6,r11,-1
 200cc74:	300490fa 	slli	r2,r6,3
 200cc78:	00c080b4 	movhi	r3,514
 200cc7c:	18fbec04 	addi	r3,r3,-4176
 200cc80:	b80f883a 	mov	r7,r23
 200cc84:	1885883a 	add	r2,r3,r2
 200cc88:	11000017 	ldw	r4,0(r2)
 200cc8c:	11400117 	ldw	r5,4(r2)
 200cc90:	d8800717 	ldw	r2,28(sp)
 200cc94:	d9801015 	stw	r6,64(sp)
 200cc98:	880d883a 	mov	r6,r17
 200cc9c:	dac01615 	stw	r11,88(sp)
 200cca0:	15800044 	addi	r22,r2,1
 200cca4:	20062e40 	call	20062e4 <__muldf3>
 200cca8:	a00b883a 	mov	r5,r20
 200ccac:	9809883a 	mov	r4,r19
 200ccb0:	d8c01215 	stw	r3,72(sp)
 200ccb4:	d8801115 	stw	r2,68(sp)
 200ccb8:	2006ae40 	call	2006ae4 <__fixdfsi>
 200ccbc:	1009883a 	mov	r4,r2
 200ccc0:	1023883a 	mov	r17,r2
 200ccc4:	2006b640 	call	2006b64 <__floatsidf>
 200ccc8:	9809883a 	mov	r4,r19
 200cccc:	a00b883a 	mov	r5,r20
 200ccd0:	100d883a 	mov	r6,r2
 200ccd4:	180f883a 	mov	r7,r3
 200ccd8:	2011ea00 	call	2011ea0 <__subdf3>
 200ccdc:	1815883a 	mov	r10,r3
 200cce0:	d8c00717 	ldw	r3,28(sp)
 200cce4:	8c400c04 	addi	r17,r17,48
 200cce8:	102f883a 	mov	r23,r2
 200ccec:	1c400005 	stb	r17,0(r3)
 200ccf0:	dac01617 	ldw	r11,88(sp)
 200ccf4:	00800044 	movi	r2,1
 200ccf8:	58802426 	beq	r11,r2,200cd8c <_dtoa_r+0x1448>
 200ccfc:	d9800717 	ldw	r6,28(sp)
 200cd00:	dc001415 	stw	r16,80(sp)
 200cd04:	b805883a 	mov	r2,r23
 200cd08:	32d7883a 	add	r11,r6,r11
 200cd0c:	b027883a 	mov	r19,r22
 200cd10:	5821883a 	mov	r16,r11
 200cd14:	5007883a 	mov	r3,r10
 200cd18:	902f883a 	mov	r23,r18
 200cd1c:	000d883a 	mov	r6,zero
 200cd20:	01d00934 	movhi	r7,16420
 200cd24:	1009883a 	mov	r4,r2
 200cd28:	180b883a 	mov	r5,r3
 200cd2c:	20062e40 	call	20062e4 <__muldf3>
 200cd30:	180b883a 	mov	r5,r3
 200cd34:	1009883a 	mov	r4,r2
 200cd38:	1829883a 	mov	r20,r3
 200cd3c:	1025883a 	mov	r18,r2
 200cd40:	2006ae40 	call	2006ae4 <__fixdfsi>
 200cd44:	1009883a 	mov	r4,r2
 200cd48:	1023883a 	mov	r17,r2
 200cd4c:	2006b640 	call	2006b64 <__floatsidf>
 200cd50:	9009883a 	mov	r4,r18
 200cd54:	a00b883a 	mov	r5,r20
 200cd58:	100d883a 	mov	r6,r2
 200cd5c:	180f883a 	mov	r7,r3
 200cd60:	8c400c04 	addi	r17,r17,48
 200cd64:	2011ea00 	call	2011ea0 <__subdf3>
 200cd68:	9cc00044 	addi	r19,r19,1
 200cd6c:	9c7fffc5 	stb	r17,-1(r19)
 200cd70:	9c3fea1e 	bne	r19,r16,200cd1c <__reset+0xfe003d1c>
 200cd74:	d9c01017 	ldw	r7,64(sp)
 200cd78:	dc001417 	ldw	r16,80(sp)
 200cd7c:	b825883a 	mov	r18,r23
 200cd80:	1815883a 	mov	r10,r3
 200cd84:	102f883a 	mov	r23,r2
 200cd88:	b1ed883a 	add	r22,r22,r7
 200cd8c:	d9001117 	ldw	r4,68(sp)
 200cd90:	d9401217 	ldw	r5,72(sp)
 200cd94:	000d883a 	mov	r6,zero
 200cd98:	01cff834 	movhi	r7,16352
 200cd9c:	da801615 	stw	r10,88(sp)
 200cda0:	20113dc0 	call	20113dc <__adddf3>
 200cda4:	da801617 	ldw	r10,88(sp)
 200cda8:	1009883a 	mov	r4,r2
 200cdac:	180b883a 	mov	r5,r3
 200cdb0:	500f883a 	mov	r7,r10
 200cdb4:	b80d883a 	mov	r6,r23
 200cdb8:	2011db40 	call	2011db4 <__ledf2>
 200cdbc:	da801617 	ldw	r10,88(sp)
 200cdc0:	1000330e 	bge	r2,zero,200ce90 <_dtoa_r+0x154c>
 200cdc4:	d9001317 	ldw	r4,76(sp)
 200cdc8:	b53fffc3 	ldbu	r20,-1(r22)
 200cdcc:	d9000615 	stw	r4,24(sp)
 200cdd0:	003d3706 	br	200c2b0 <__reset+0xfe0032b0>
 200cdd4:	d8800817 	ldw	r2,32(sp)
 200cdd8:	11e7c83a 	sub	r19,r2,r7
 200cddc:	0005883a 	mov	r2,zero
 200cde0:	003d5106 	br	200c328 <__reset+0xfe003328>
 200cde4:	00800044 	movi	r2,1
 200cde8:	003dbd06 	br	200c4e0 <__reset+0xfe0034e0>
 200cdec:	d8800217 	ldw	r2,8(sp)
 200cdf0:	00c00d84 	movi	r3,54
 200cdf4:	dd000a17 	ldw	r20,40(sp)
 200cdf8:	1885c83a 	sub	r2,r3,r2
 200cdfc:	dcc00817 	ldw	r19,32(sp)
 200ce00:	003d4906 	br	200c328 <__reset+0xfe003328>
 200ce04:	dcc00317 	ldw	r19,12(sp)
 200ce08:	9029883a 	mov	r20,r18
 200ce0c:	04400084 	movi	r17,2
 200ce10:	003be306 	br	200bda0 <__reset+0xfe002da0>
 200ce14:	d9000917 	ldw	r4,36(sp)
 200ce18:	203f0926 	beq	r4,zero,200ca40 <__reset+0xfe003a40>
 200ce1c:	d9800d17 	ldw	r6,52(sp)
 200ce20:	01bca30e 	bge	zero,r6,200c0b0 <__reset+0xfe0030b0>
 200ce24:	a00b883a 	mov	r5,r20
 200ce28:	9809883a 	mov	r4,r19
 200ce2c:	000d883a 	mov	r6,zero
 200ce30:	01d00934 	movhi	r7,16420
 200ce34:	20062e40 	call	20062e4 <__muldf3>
 200ce38:	89000044 	addi	r4,r17,1
 200ce3c:	1027883a 	mov	r19,r2
 200ce40:	1829883a 	mov	r20,r3
 200ce44:	2006b640 	call	2006b64 <__floatsidf>
 200ce48:	9809883a 	mov	r4,r19
 200ce4c:	a00b883a 	mov	r5,r20
 200ce50:	100d883a 	mov	r6,r2
 200ce54:	180f883a 	mov	r7,r3
 200ce58:	20062e40 	call	20062e4 <__muldf3>
 200ce5c:	01d00734 	movhi	r7,16412
 200ce60:	1009883a 	mov	r4,r2
 200ce64:	180b883a 	mov	r5,r3
 200ce68:	000d883a 	mov	r6,zero
 200ce6c:	20113dc0 	call	20113dc <__adddf3>
 200ce70:	d9c00617 	ldw	r7,24(sp)
 200ce74:	05bf3034 	movhi	r22,64704
 200ce78:	1023883a 	mov	r17,r2
 200ce7c:	39ffffc4 	addi	r7,r7,-1
 200ce80:	d9c01315 	stw	r7,76(sp)
 200ce84:	1daf883a 	add	r23,r3,r22
 200ce88:	dac00d17 	ldw	r11,52(sp)
 200ce8c:	003be006 	br	200be10 <__reset+0xfe002e10>
 200ce90:	d9801117 	ldw	r6,68(sp)
 200ce94:	d9c01217 	ldw	r7,72(sp)
 200ce98:	0009883a 	mov	r4,zero
 200ce9c:	014ff834 	movhi	r5,16352
 200cea0:	da801615 	stw	r10,88(sp)
 200cea4:	2011ea00 	call	2011ea0 <__subdf3>
 200cea8:	da801617 	ldw	r10,88(sp)
 200ceac:	1009883a 	mov	r4,r2
 200ceb0:	180b883a 	mov	r5,r3
 200ceb4:	b80d883a 	mov	r6,r23
 200ceb8:	500f883a 	mov	r7,r10
 200cebc:	2011cdc0 	call	2011cdc <__gedf2>
 200cec0:	00bc7b0e 	bge	zero,r2,200c0b0 <__reset+0xfe0030b0>
 200cec4:	01000c04 	movi	r4,48
 200cec8:	00000106 	br	200ced0 <_dtoa_r+0x158c>
 200cecc:	102d883a 	mov	r22,r2
 200ced0:	b0bfffc4 	addi	r2,r22,-1
 200ced4:	10c00007 	ldb	r3,0(r2)
 200ced8:	193ffc26 	beq	r3,r4,200cecc <__reset+0xfe003ecc>
 200cedc:	d9001317 	ldw	r4,76(sp)
 200cee0:	d9000615 	stw	r4,24(sp)
 200cee4:	003c4306 	br	200bff4 <__reset+0xfe002ff4>
 200cee8:	d8c01317 	ldw	r3,76(sp)
 200ceec:	dc001117 	ldw	r16,68(sp)
 200cef0:	d8c00615 	stw	r3,24(sp)
 200cef4:	003cee06 	br	200c2b0 <__reset+0xfe0032b0>
 200cef8:	dd401217 	ldw	r21,72(sp)
 200cefc:	dc001117 	ldw	r16,68(sp)
 200cf00:	dc801417 	ldw	r18,80(sp)
 200cf04:	003c6a06 	br	200c0b0 <__reset+0xfe0030b0>
 200cf08:	103e6f1e 	bne	r2,zero,200c8c8 <__reset+0xfe0038c8>
 200cf0c:	b880004c 	andi	r2,r23,1
 200cf10:	103e6d26 	beq	r2,zero,200c8c8 <__reset+0xfe0038c8>
 200cf14:	003e6906 	br	200c8bc <__reset+0xfe0038bc>
 200cf18:	8009883a 	mov	r4,r16
 200cf1c:	880b883a 	mov	r5,r17
 200cf20:	01800284 	movi	r6,10
 200cf24:	000f883a 	mov	r7,zero
 200cf28:	200d5680 	call	200d568 <__multadd>
 200cf2c:	d9000d17 	ldw	r4,52(sp)
 200cf30:	1023883a 	mov	r17,r2
 200cf34:	d9000915 	stw	r4,36(sp)
 200cf38:	003d5006 	br	200c47c <__reset+0xfe00347c>
 200cf3c:	04400084 	movi	r17,2
 200cf40:	003b9706 	br	200bda0 <__reset+0xfe002da0>
 200cf44:	d8801317 	ldw	r2,76(sp)
 200cf48:	d8800615 	stw	r2,24(sp)
 200cf4c:	003cd806 	br	200c2b0 <__reset+0xfe0032b0>
 200cf50:	d8801317 	ldw	r2,76(sp)
 200cf54:	d8800615 	stw	r2,24(sp)
 200cf58:	003c2606 	br	200bff4 <__reset+0xfe002ff4>
 200cf5c:	04c00044 	movi	r19,1
 200cf60:	003b3506 	br	200bc38 <__reset+0xfe002c38>
 200cf64:	3023883a 	mov	r17,r6
 200cf68:	000b883a 	mov	r5,zero
 200cf6c:	003b5106 	br	200bcb4 <__reset+0xfe002cb4>
 200cf70:	20fd3426 	beq	r4,r3,200c444 <__reset+0xfe003444>
 200cf74:	00c00f04 	movi	r3,60
 200cf78:	1885c83a 	sub	r2,r3,r2
 200cf7c:	003da106 	br	200c604 <__reset+0xfe003604>

0200cf80 <_setlocale_r>:
 200cf80:	defffe04 	addi	sp,sp,-8
 200cf84:	dc000015 	stw	r16,0(sp)
 200cf88:	dfc00115 	stw	ra,4(sp)
 200cf8c:	3021883a 	mov	r16,r6
 200cf90:	30000526 	beq	r6,zero,200cfa8 <_setlocale_r+0x28>
 200cf94:	3009883a 	mov	r4,r6
 200cf98:	014080b4 	movhi	r5,514
 200cf9c:	297bd204 	addi	r5,r5,-4280
 200cfa0:	200e5940 	call	200e594 <strcmp>
 200cfa4:	1000061e 	bne	r2,zero,200cfc0 <_setlocale_r+0x40>
 200cfa8:	008080b4 	movhi	r2,514
 200cfac:	10bbb404 	addi	r2,r2,-4400
 200cfb0:	dfc00117 	ldw	ra,4(sp)
 200cfb4:	dc000017 	ldw	r16,0(sp)
 200cfb8:	dec00204 	addi	sp,sp,8
 200cfbc:	f800283a 	ret
 200cfc0:	8009883a 	mov	r4,r16
 200cfc4:	014080b4 	movhi	r5,514
 200cfc8:	297bb404 	addi	r5,r5,-4400
 200cfcc:	200e5940 	call	200e594 <strcmp>
 200cfd0:	103ff526 	beq	r2,zero,200cfa8 <__reset+0xfe003fa8>
 200cfd4:	8009883a 	mov	r4,r16
 200cfd8:	014080b4 	movhi	r5,514
 200cfdc:	297bbd04 	addi	r5,r5,-4364
 200cfe0:	200e5940 	call	200e594 <strcmp>
 200cfe4:	103ff026 	beq	r2,zero,200cfa8 <__reset+0xfe003fa8>
 200cfe8:	0005883a 	mov	r2,zero
 200cfec:	003ff006 	br	200cfb0 <__reset+0xfe003fb0>

0200cff0 <__locale_charset>:
 200cff0:	008080b4 	movhi	r2,514
 200cff4:	10be6304 	addi	r2,r2,-1652
 200cff8:	f800283a 	ret

0200cffc <__locale_mb_cur_max>:
 200cffc:	008080b4 	movhi	r2,514
 200d000:	10836404 	addi	r2,r2,3472
 200d004:	10800017 	ldw	r2,0(r2)
 200d008:	f800283a 	ret

0200d00c <__locale_msgcharset>:
 200d00c:	008080b4 	movhi	r2,514
 200d010:	10be5b04 	addi	r2,r2,-1684
 200d014:	f800283a 	ret

0200d018 <__locale_cjk_lang>:
 200d018:	0005883a 	mov	r2,zero
 200d01c:	f800283a 	ret

0200d020 <_localeconv_r>:
 200d020:	008080b4 	movhi	r2,514
 200d024:	10be6b04 	addi	r2,r2,-1620
 200d028:	f800283a 	ret

0200d02c <setlocale>:
 200d02c:	00c080b4 	movhi	r3,514
 200d030:	18c36104 	addi	r3,r3,3460
 200d034:	2005883a 	mov	r2,r4
 200d038:	19000017 	ldw	r4,0(r3)
 200d03c:	280d883a 	mov	r6,r5
 200d040:	100b883a 	mov	r5,r2
 200d044:	200cf801 	jmpi	200cf80 <_setlocale_r>

0200d048 <localeconv>:
 200d048:	008080b4 	movhi	r2,514
 200d04c:	10be6b04 	addi	r2,r2,-1620
 200d050:	f800283a 	ret

0200d054 <_lseek_r>:
 200d054:	defffd04 	addi	sp,sp,-12
 200d058:	dc400115 	stw	r17,4(sp)
 200d05c:	dc000015 	stw	r16,0(sp)
 200d060:	2023883a 	mov	r17,r4
 200d064:	040080b4 	movhi	r16,514
 200d068:	84037904 	addi	r16,r16,3556
 200d06c:	2809883a 	mov	r4,r5
 200d070:	300b883a 	mov	r5,r6
 200d074:	380d883a 	mov	r6,r7
 200d078:	dfc00215 	stw	ra,8(sp)
 200d07c:	80000015 	stw	zero,0(r16)
 200d080:	2012ca00 	call	2012ca0 <lseek>
 200d084:	00ffffc4 	movi	r3,-1
 200d088:	10c00526 	beq	r2,r3,200d0a0 <_lseek_r+0x4c>
 200d08c:	dfc00217 	ldw	ra,8(sp)
 200d090:	dc400117 	ldw	r17,4(sp)
 200d094:	dc000017 	ldw	r16,0(sp)
 200d098:	dec00304 	addi	sp,sp,12
 200d09c:	f800283a 	ret
 200d0a0:	80c00017 	ldw	r3,0(r16)
 200d0a4:	183ff926 	beq	r3,zero,200d08c <__reset+0xfe00408c>
 200d0a8:	88c00015 	stw	r3,0(r17)
 200d0ac:	dfc00217 	ldw	ra,8(sp)
 200d0b0:	dc400117 	ldw	r17,4(sp)
 200d0b4:	dc000017 	ldw	r16,0(sp)
 200d0b8:	dec00304 	addi	sp,sp,12
 200d0bc:	f800283a 	ret

0200d0c0 <__smakebuf_r>:
 200d0c0:	2880030b 	ldhu	r2,12(r5)
 200d0c4:	deffec04 	addi	sp,sp,-80
 200d0c8:	dc000f15 	stw	r16,60(sp)
 200d0cc:	dfc01315 	stw	ra,76(sp)
 200d0d0:	dcc01215 	stw	r19,72(sp)
 200d0d4:	dc801115 	stw	r18,68(sp)
 200d0d8:	dc401015 	stw	r17,64(sp)
 200d0dc:	10c0008c 	andi	r3,r2,2
 200d0e0:	2821883a 	mov	r16,r5
 200d0e4:	18003a1e 	bne	r3,zero,200d1d0 <__smakebuf_r+0x110>
 200d0e8:	2940038f 	ldh	r5,14(r5)
 200d0ec:	2023883a 	mov	r17,r4
 200d0f0:	28001b16 	blt	r5,zero,200d160 <__smakebuf_r+0xa0>
 200d0f4:	d80d883a 	mov	r6,sp
 200d0f8:	200fe400 	call	200fe40 <_fstat_r>
 200d0fc:	10001716 	blt	r2,zero,200d15c <__smakebuf_r+0x9c>
 200d100:	d8800117 	ldw	r2,4(sp)
 200d104:	00e00014 	movui	r3,32768
 200d108:	10bc000c 	andi	r2,r2,61440
 200d10c:	10c03e26 	beq	r2,r3,200d208 <__smakebuf_r+0x148>
 200d110:	80c0030b 	ldhu	r3,12(r16)
 200d114:	18c20014 	ori	r3,r3,2048
 200d118:	80c0030d 	sth	r3,12(r16)
 200d11c:	00c80004 	movi	r3,8192
 200d120:	10c0431e 	bne	r2,r3,200d230 <__smakebuf_r+0x170>
 200d124:	8140038f 	ldh	r5,14(r16)
 200d128:	8809883a 	mov	r4,r17
 200d12c:	20103540 	call	2010354 <_isatty_r>
 200d130:	10004d26 	beq	r2,zero,200d268 <__smakebuf_r+0x1a8>
 200d134:	80c0030b 	ldhu	r3,12(r16)
 200d138:	04c00044 	movi	r19,1
 200d13c:	808010c4 	addi	r2,r16,67
 200d140:	1cc6b03a 	or	r3,r3,r19
 200d144:	80c0030d 	sth	r3,12(r16)
 200d148:	80800015 	stw	r2,0(r16)
 200d14c:	80800415 	stw	r2,16(r16)
 200d150:	84c00515 	stw	r19,20(r16)
 200d154:	04810004 	movi	r18,1024
 200d158:	00000706 	br	200d178 <__smakebuf_r+0xb8>
 200d15c:	8080030b 	ldhu	r2,12(r16)
 200d160:	10c0200c 	andi	r3,r2,128
 200d164:	1800261e 	bne	r3,zero,200d200 <__smakebuf_r+0x140>
 200d168:	04810004 	movi	r18,1024
 200d16c:	10820014 	ori	r2,r2,2048
 200d170:	8080030d 	sth	r2,12(r16)
 200d174:	0027883a 	mov	r19,zero
 200d178:	8809883a 	mov	r4,r17
 200d17c:	900b883a 	mov	r5,r18
 200d180:	2007ec40 	call	2007ec4 <_malloc_r>
 200d184:	10002d26 	beq	r2,zero,200d23c <__smakebuf_r+0x17c>
 200d188:	80c0030b 	ldhu	r3,12(r16)
 200d18c:	01008034 	movhi	r4,512
 200d190:	211c9d04 	addi	r4,r4,29300
 200d194:	89000f15 	stw	r4,60(r17)
 200d198:	18c02014 	ori	r3,r3,128
 200d19c:	80c0030d 	sth	r3,12(r16)
 200d1a0:	80800015 	stw	r2,0(r16)
 200d1a4:	80800415 	stw	r2,16(r16)
 200d1a8:	84800515 	stw	r18,20(r16)
 200d1ac:	98000d26 	beq	r19,zero,200d1e4 <__smakebuf_r+0x124>
 200d1b0:	8140038f 	ldh	r5,14(r16)
 200d1b4:	8809883a 	mov	r4,r17
 200d1b8:	20103540 	call	2010354 <_isatty_r>
 200d1bc:	10000926 	beq	r2,zero,200d1e4 <__smakebuf_r+0x124>
 200d1c0:	8080030b 	ldhu	r2,12(r16)
 200d1c4:	10800054 	ori	r2,r2,1
 200d1c8:	8080030d 	sth	r2,12(r16)
 200d1cc:	00000506 	br	200d1e4 <__smakebuf_r+0x124>
 200d1d0:	288010c4 	addi	r2,r5,67
 200d1d4:	28800015 	stw	r2,0(r5)
 200d1d8:	28800415 	stw	r2,16(r5)
 200d1dc:	00800044 	movi	r2,1
 200d1e0:	28800515 	stw	r2,20(r5)
 200d1e4:	dfc01317 	ldw	ra,76(sp)
 200d1e8:	dcc01217 	ldw	r19,72(sp)
 200d1ec:	dc801117 	ldw	r18,68(sp)
 200d1f0:	dc401017 	ldw	r17,64(sp)
 200d1f4:	dc000f17 	ldw	r16,60(sp)
 200d1f8:	dec01404 	addi	sp,sp,80
 200d1fc:	f800283a 	ret
 200d200:	04801004 	movi	r18,64
 200d204:	003fd906 	br	200d16c <__reset+0xfe00416c>
 200d208:	81000a17 	ldw	r4,40(r16)
 200d20c:	00c08074 	movhi	r3,513
 200d210:	18e48f04 	addi	r3,r3,-28100
 200d214:	20ffbe1e 	bne	r4,r3,200d110 <__reset+0xfe004110>
 200d218:	80c0030b 	ldhu	r3,12(r16)
 200d21c:	01010004 	movi	r4,1024
 200d220:	81001315 	stw	r4,76(r16)
 200d224:	1906b03a 	or	r3,r3,r4
 200d228:	80c0030d 	sth	r3,12(r16)
 200d22c:	003fbb06 	br	200d11c <__reset+0xfe00411c>
 200d230:	0027883a 	mov	r19,zero
 200d234:	04810004 	movi	r18,1024
 200d238:	003fcf06 	br	200d178 <__reset+0xfe004178>
 200d23c:	8080030b 	ldhu	r2,12(r16)
 200d240:	10c0800c 	andi	r3,r2,512
 200d244:	183fe71e 	bne	r3,zero,200d1e4 <__reset+0xfe0041e4>
 200d248:	10800094 	ori	r2,r2,2
 200d24c:	80c010c4 	addi	r3,r16,67
 200d250:	8080030d 	sth	r2,12(r16)
 200d254:	00800044 	movi	r2,1
 200d258:	80c00015 	stw	r3,0(r16)
 200d25c:	80c00415 	stw	r3,16(r16)
 200d260:	80800515 	stw	r2,20(r16)
 200d264:	003fdf06 	br	200d1e4 <__reset+0xfe0041e4>
 200d268:	04c00044 	movi	r19,1
 200d26c:	04810004 	movi	r18,1024
 200d270:	003fc106 	br	200d178 <__reset+0xfe004178>

0200d274 <memchr>:
 200d274:	208000cc 	andi	r2,r4,3
 200d278:	2811883a 	mov	r8,r5
 200d27c:	10003526 	beq	r2,zero,200d354 <memchr+0xe0>
 200d280:	30bfffc4 	addi	r2,r6,-1
 200d284:	30001b26 	beq	r6,zero,200d2f4 <memchr+0x80>
 200d288:	21800003 	ldbu	r6,0(r4)
 200d28c:	28c03fcc 	andi	r3,r5,255
 200d290:	30c01a26 	beq	r6,r3,200d2fc <memchr+0x88>
 200d294:	180d883a 	mov	r6,r3
 200d298:	00000406 	br	200d2ac <memchr+0x38>
 200d29c:	10001526 	beq	r2,zero,200d2f4 <memchr+0x80>
 200d2a0:	20c00003 	ldbu	r3,0(r4)
 200d2a4:	10bfffc4 	addi	r2,r2,-1
 200d2a8:	19801426 	beq	r3,r6,200d2fc <memchr+0x88>
 200d2ac:	21000044 	addi	r4,r4,1
 200d2b0:	20c000cc 	andi	r3,r4,3
 200d2b4:	183ff91e 	bne	r3,zero,200d29c <__reset+0xfe00429c>
 200d2b8:	02c000c4 	movi	r11,3
 200d2bc:	58801136 	bltu	r11,r2,200d304 <memchr+0x90>
 200d2c0:	10000c26 	beq	r2,zero,200d2f4 <memchr+0x80>
 200d2c4:	20c00003 	ldbu	r3,0(r4)
 200d2c8:	29403fcc 	andi	r5,r5,255
 200d2cc:	19400b26 	beq	r3,r5,200d2fc <memchr+0x88>
 200d2d0:	20c00044 	addi	r3,r4,1
 200d2d4:	2085883a 	add	r2,r4,r2
 200d2d8:	41803fcc 	andi	r6,r8,255
 200d2dc:	00000306 	br	200d2ec <memchr+0x78>
 200d2e0:	18c00044 	addi	r3,r3,1
 200d2e4:	197fffc3 	ldbu	r5,-1(r3)
 200d2e8:	29800426 	beq	r5,r6,200d2fc <memchr+0x88>
 200d2ec:	1809883a 	mov	r4,r3
 200d2f0:	18bffb1e 	bne	r3,r2,200d2e0 <__reset+0xfe0042e0>
 200d2f4:	0005883a 	mov	r2,zero
 200d2f8:	f800283a 	ret
 200d2fc:	2005883a 	mov	r2,r4
 200d300:	f800283a 	ret
 200d304:	28c03fcc 	andi	r3,r5,255
 200d308:	180c923a 	slli	r6,r3,8
 200d30c:	02bfbff4 	movhi	r10,65279
 200d310:	52bfbfc4 	addi	r10,r10,-257
 200d314:	02602074 	movhi	r9,32897
 200d318:	4a602004 	addi	r9,r9,-32640
 200d31c:	30c6b03a 	or	r3,r6,r3
 200d320:	180c943a 	slli	r6,r3,16
 200d324:	30ccb03a 	or	r6,r6,r3
 200d328:	20c00017 	ldw	r3,0(r4)
 200d32c:	30c6f03a 	xor	r3,r6,r3
 200d330:	1a8f883a 	add	r7,r3,r10
 200d334:	00c6303a 	nor	r3,zero,r3
 200d338:	38c6703a 	and	r3,r7,r3
 200d33c:	1a46703a 	and	r3,r3,r9
 200d340:	183fdf1e 	bne	r3,zero,200d2c0 <__reset+0xfe0042c0>
 200d344:	10bfff04 	addi	r2,r2,-4
 200d348:	21000104 	addi	r4,r4,4
 200d34c:	58bff636 	bltu	r11,r2,200d328 <__reset+0xfe004328>
 200d350:	003fdb06 	br	200d2c0 <__reset+0xfe0042c0>
 200d354:	3005883a 	mov	r2,r6
 200d358:	003fd706 	br	200d2b8 <__reset+0xfe0042b8>

0200d35c <memmove>:
 200d35c:	2005883a 	mov	r2,r4
 200d360:	29000b2e 	bgeu	r5,r4,200d390 <memmove+0x34>
 200d364:	298f883a 	add	r7,r5,r6
 200d368:	21c0092e 	bgeu	r4,r7,200d390 <memmove+0x34>
 200d36c:	2187883a 	add	r3,r4,r6
 200d370:	198bc83a 	sub	r5,r3,r6
 200d374:	30003e26 	beq	r6,zero,200d470 <memmove+0x114>
 200d378:	39ffffc4 	addi	r7,r7,-1
 200d37c:	39000003 	ldbu	r4,0(r7)
 200d380:	18ffffc4 	addi	r3,r3,-1
 200d384:	19000005 	stb	r4,0(r3)
 200d388:	197ffb1e 	bne	r3,r5,200d378 <__reset+0xfe004378>
 200d38c:	f800283a 	ret
 200d390:	00c003c4 	movi	r3,15
 200d394:	1980372e 	bgeu	r3,r6,200d474 <memmove+0x118>
 200d398:	1146b03a 	or	r3,r2,r5
 200d39c:	18c000cc 	andi	r3,r3,3
 200d3a0:	1800371e 	bne	r3,zero,200d480 <memmove+0x124>
 200d3a4:	327ffc04 	addi	r9,r6,-16
 200d3a8:	4812d13a 	srli	r9,r9,4
 200d3ac:	280f883a 	mov	r7,r5
 200d3b0:	1007883a 	mov	r3,r2
 200d3b4:	4810913a 	slli	r8,r9,4
 200d3b8:	1211883a 	add	r8,r2,r8
 200d3bc:	42000404 	addi	r8,r8,16
 200d3c0:	39000017 	ldw	r4,0(r7)
 200d3c4:	18c00404 	addi	r3,r3,16
 200d3c8:	39c00404 	addi	r7,r7,16
 200d3cc:	193ffc15 	stw	r4,-16(r3)
 200d3d0:	393ffd17 	ldw	r4,-12(r7)
 200d3d4:	193ffd15 	stw	r4,-12(r3)
 200d3d8:	393ffe17 	ldw	r4,-8(r7)
 200d3dc:	193ffe15 	stw	r4,-8(r3)
 200d3e0:	393fff17 	ldw	r4,-4(r7)
 200d3e4:	193fff15 	stw	r4,-4(r3)
 200d3e8:	1a3ff51e 	bne	r3,r8,200d3c0 <__reset+0xfe0043c0>
 200d3ec:	49000044 	addi	r4,r9,1
 200d3f0:	2008913a 	slli	r4,r4,4
 200d3f4:	328003cc 	andi	r10,r6,15
 200d3f8:	1107883a 	add	r3,r2,r4
 200d3fc:	290b883a 	add	r5,r5,r4
 200d400:	010000c4 	movi	r4,3
 200d404:	2280212e 	bgeu	r4,r10,200d48c <memmove+0x130>
 200d408:	52bfff04 	addi	r10,r10,-4
 200d40c:	5014d0ba 	srli	r10,r10,2
 200d410:	180f883a 	mov	r7,r3
 200d414:	2809883a 	mov	r4,r5
 200d418:	5291883a 	add	r8,r10,r10
 200d41c:	4211883a 	add	r8,r8,r8
 200d420:	42400104 	addi	r9,r8,4
 200d424:	1a53883a 	add	r9,r3,r9
 200d428:	22000017 	ldw	r8,0(r4)
 200d42c:	39c00104 	addi	r7,r7,4
 200d430:	21000104 	addi	r4,r4,4
 200d434:	3a3fff15 	stw	r8,-4(r7)
 200d438:	3a7ffb1e 	bne	r7,r9,200d428 <__reset+0xfe004428>
 200d43c:	51000044 	addi	r4,r10,1
 200d440:	2109883a 	add	r4,r4,r4
 200d444:	2109883a 	add	r4,r4,r4
 200d448:	318000cc 	andi	r6,r6,3
 200d44c:	1907883a 	add	r3,r3,r4
 200d450:	290b883a 	add	r5,r5,r4
 200d454:	30000c26 	beq	r6,zero,200d488 <memmove+0x12c>
 200d458:	198d883a 	add	r6,r3,r6
 200d45c:	29c00003 	ldbu	r7,0(r5)
 200d460:	18c00044 	addi	r3,r3,1
 200d464:	29400044 	addi	r5,r5,1
 200d468:	19ffffc5 	stb	r7,-1(r3)
 200d46c:	19bffb1e 	bne	r3,r6,200d45c <__reset+0xfe00445c>
 200d470:	f800283a 	ret
 200d474:	1007883a 	mov	r3,r2
 200d478:	303ff71e 	bne	r6,zero,200d458 <__reset+0xfe004458>
 200d47c:	00000206 	br	200d488 <memmove+0x12c>
 200d480:	1007883a 	mov	r3,r2
 200d484:	003ff406 	br	200d458 <__reset+0xfe004458>
 200d488:	f800283a 	ret
 200d48c:	500d883a 	mov	r6,r10
 200d490:	303ff11e 	bne	r6,zero,200d458 <__reset+0xfe004458>
 200d494:	003ffc06 	br	200d488 <__reset+0xfe004488>

0200d498 <_Balloc>:
 200d498:	20801317 	ldw	r2,76(r4)
 200d49c:	defffc04 	addi	sp,sp,-16
 200d4a0:	dc400115 	stw	r17,4(sp)
 200d4a4:	dc000015 	stw	r16,0(sp)
 200d4a8:	dfc00315 	stw	ra,12(sp)
 200d4ac:	dc800215 	stw	r18,8(sp)
 200d4b0:	2023883a 	mov	r17,r4
 200d4b4:	2821883a 	mov	r16,r5
 200d4b8:	10000f26 	beq	r2,zero,200d4f8 <_Balloc+0x60>
 200d4bc:	8407883a 	add	r3,r16,r16
 200d4c0:	18c7883a 	add	r3,r3,r3
 200d4c4:	10c7883a 	add	r3,r2,r3
 200d4c8:	18800017 	ldw	r2,0(r3)
 200d4cc:	10001126 	beq	r2,zero,200d514 <_Balloc+0x7c>
 200d4d0:	11000017 	ldw	r4,0(r2)
 200d4d4:	19000015 	stw	r4,0(r3)
 200d4d8:	10000415 	stw	zero,16(r2)
 200d4dc:	10000315 	stw	zero,12(r2)
 200d4e0:	dfc00317 	ldw	ra,12(sp)
 200d4e4:	dc800217 	ldw	r18,8(sp)
 200d4e8:	dc400117 	ldw	r17,4(sp)
 200d4ec:	dc000017 	ldw	r16,0(sp)
 200d4f0:	dec00404 	addi	sp,sp,16
 200d4f4:	f800283a 	ret
 200d4f8:	01400104 	movi	r5,4
 200d4fc:	01800844 	movi	r6,33
 200d500:	2006cfc0 	call	2006cfc <_calloc_r>
 200d504:	88801315 	stw	r2,76(r17)
 200d508:	103fec1e 	bne	r2,zero,200d4bc <__reset+0xfe0044bc>
 200d50c:	0005883a 	mov	r2,zero
 200d510:	003ff306 	br	200d4e0 <__reset+0xfe0044e0>
 200d514:	01400044 	movi	r5,1
 200d518:	2c24983a 	sll	r18,r5,r16
 200d51c:	8809883a 	mov	r4,r17
 200d520:	91800144 	addi	r6,r18,5
 200d524:	318d883a 	add	r6,r6,r6
 200d528:	318d883a 	add	r6,r6,r6
 200d52c:	2006cfc0 	call	2006cfc <_calloc_r>
 200d530:	103ff626 	beq	r2,zero,200d50c <__reset+0xfe00450c>
 200d534:	14000115 	stw	r16,4(r2)
 200d538:	14800215 	stw	r18,8(r2)
 200d53c:	003fe606 	br	200d4d8 <__reset+0xfe0044d8>

0200d540 <_Bfree>:
 200d540:	28000826 	beq	r5,zero,200d564 <_Bfree+0x24>
 200d544:	28c00117 	ldw	r3,4(r5)
 200d548:	20801317 	ldw	r2,76(r4)
 200d54c:	18c7883a 	add	r3,r3,r3
 200d550:	18c7883a 	add	r3,r3,r3
 200d554:	10c5883a 	add	r2,r2,r3
 200d558:	10c00017 	ldw	r3,0(r2)
 200d55c:	28c00015 	stw	r3,0(r5)
 200d560:	11400015 	stw	r5,0(r2)
 200d564:	f800283a 	ret

0200d568 <__multadd>:
 200d568:	defff604 	addi	sp,sp,-40
 200d56c:	dd400515 	stw	r21,20(sp)
 200d570:	2d400417 	ldw	r21,16(r5)
 200d574:	df000815 	stw	fp,32(sp)
 200d578:	ddc00715 	stw	r23,28(sp)
 200d57c:	dd800615 	stw	r22,24(sp)
 200d580:	dd000415 	stw	r20,16(sp)
 200d584:	dc400115 	stw	r17,4(sp)
 200d588:	dc000015 	stw	r16,0(sp)
 200d58c:	dfc00915 	stw	ra,36(sp)
 200d590:	dcc00315 	stw	r19,12(sp)
 200d594:	dc800215 	stw	r18,8(sp)
 200d598:	282d883a 	mov	r22,r5
 200d59c:	202f883a 	mov	r23,r4
 200d5a0:	3029883a 	mov	r20,r6
 200d5a4:	3839883a 	mov	fp,r7
 200d5a8:	2c000504 	addi	r16,r5,20
 200d5ac:	0023883a 	mov	r17,zero
 200d5b0:	84c00017 	ldw	r19,0(r16)
 200d5b4:	a00b883a 	mov	r5,r20
 200d5b8:	8c400044 	addi	r17,r17,1
 200d5bc:	993fffcc 	andi	r4,r19,65535
 200d5c0:	20059200 	call	2005920 <__mulsi3>
 200d5c4:	1725883a 	add	r18,r2,fp
 200d5c8:	9808d43a 	srli	r4,r19,16
 200d5cc:	9026d43a 	srli	r19,r18,16
 200d5d0:	a00b883a 	mov	r5,r20
 200d5d4:	20059200 	call	2005920 <__mulsi3>
 200d5d8:	988f883a 	add	r7,r19,r2
 200d5dc:	3804943a 	slli	r2,r7,16
 200d5e0:	94bfffcc 	andi	r18,r18,65535
 200d5e4:	3838d43a 	srli	fp,r7,16
 200d5e8:	14a5883a 	add	r18,r2,r18
 200d5ec:	84800015 	stw	r18,0(r16)
 200d5f0:	84000104 	addi	r16,r16,4
 200d5f4:	8d7fee16 	blt	r17,r21,200d5b0 <__reset+0xfe0045b0>
 200d5f8:	e0000926 	beq	fp,zero,200d620 <__multadd+0xb8>
 200d5fc:	b0800217 	ldw	r2,8(r22)
 200d600:	a880140e 	bge	r21,r2,200d654 <__multadd+0xec>
 200d604:	a8800144 	addi	r2,r21,5
 200d608:	1085883a 	add	r2,r2,r2
 200d60c:	1085883a 	add	r2,r2,r2
 200d610:	b085883a 	add	r2,r22,r2
 200d614:	17000015 	stw	fp,0(r2)
 200d618:	ad400044 	addi	r21,r21,1
 200d61c:	b5400415 	stw	r21,16(r22)
 200d620:	b005883a 	mov	r2,r22
 200d624:	dfc00917 	ldw	ra,36(sp)
 200d628:	df000817 	ldw	fp,32(sp)
 200d62c:	ddc00717 	ldw	r23,28(sp)
 200d630:	dd800617 	ldw	r22,24(sp)
 200d634:	dd400517 	ldw	r21,20(sp)
 200d638:	dd000417 	ldw	r20,16(sp)
 200d63c:	dcc00317 	ldw	r19,12(sp)
 200d640:	dc800217 	ldw	r18,8(sp)
 200d644:	dc400117 	ldw	r17,4(sp)
 200d648:	dc000017 	ldw	r16,0(sp)
 200d64c:	dec00a04 	addi	sp,sp,40
 200d650:	f800283a 	ret
 200d654:	b1400117 	ldw	r5,4(r22)
 200d658:	b809883a 	mov	r4,r23
 200d65c:	29400044 	addi	r5,r5,1
 200d660:	200d4980 	call	200d498 <_Balloc>
 200d664:	b1800417 	ldw	r6,16(r22)
 200d668:	b1400304 	addi	r5,r22,12
 200d66c:	11000304 	addi	r4,r2,12
 200d670:	31800084 	addi	r6,r6,2
 200d674:	318d883a 	add	r6,r6,r6
 200d678:	318d883a 	add	r6,r6,r6
 200d67c:	1021883a 	mov	r16,r2
 200d680:	20087040 	call	2008704 <memcpy>
 200d684:	b0c00117 	ldw	r3,4(r22)
 200d688:	b8801317 	ldw	r2,76(r23)
 200d68c:	18c7883a 	add	r3,r3,r3
 200d690:	18c7883a 	add	r3,r3,r3
 200d694:	10c5883a 	add	r2,r2,r3
 200d698:	10c00017 	ldw	r3,0(r2)
 200d69c:	b0c00015 	stw	r3,0(r22)
 200d6a0:	15800015 	stw	r22,0(r2)
 200d6a4:	802d883a 	mov	r22,r16
 200d6a8:	003fd606 	br	200d604 <__reset+0xfe004604>

0200d6ac <__s2b>:
 200d6ac:	defff904 	addi	sp,sp,-28
 200d6b0:	dd000415 	stw	r20,16(sp)
 200d6b4:	dc400115 	stw	r17,4(sp)
 200d6b8:	2829883a 	mov	r20,r5
 200d6bc:	2023883a 	mov	r17,r4
 200d6c0:	01400244 	movi	r5,9
 200d6c4:	39000204 	addi	r4,r7,8
 200d6c8:	dcc00315 	stw	r19,12(sp)
 200d6cc:	dc800215 	stw	r18,8(sp)
 200d6d0:	dfc00615 	stw	ra,24(sp)
 200d6d4:	dd400515 	stw	r21,20(sp)
 200d6d8:	dc000015 	stw	r16,0(sp)
 200d6dc:	3827883a 	mov	r19,r7
 200d6e0:	3025883a 	mov	r18,r6
 200d6e4:	200587c0 	call	200587c <__divsi3>
 200d6e8:	00c00044 	movi	r3,1
 200d6ec:	000b883a 	mov	r5,zero
 200d6f0:	1880030e 	bge	r3,r2,200d700 <__s2b+0x54>
 200d6f4:	18c7883a 	add	r3,r3,r3
 200d6f8:	29400044 	addi	r5,r5,1
 200d6fc:	18bffd16 	blt	r3,r2,200d6f4 <__reset+0xfe0046f4>
 200d700:	8809883a 	mov	r4,r17
 200d704:	200d4980 	call	200d498 <_Balloc>
 200d708:	d8c00717 	ldw	r3,28(sp)
 200d70c:	10c00515 	stw	r3,20(r2)
 200d710:	00c00044 	movi	r3,1
 200d714:	10c00415 	stw	r3,16(r2)
 200d718:	00c00244 	movi	r3,9
 200d71c:	1c80210e 	bge	r3,r18,200d7a4 <__s2b+0xf8>
 200d720:	a0eb883a 	add	r21,r20,r3
 200d724:	a821883a 	mov	r16,r21
 200d728:	a4a9883a 	add	r20,r20,r18
 200d72c:	81c00007 	ldb	r7,0(r16)
 200d730:	8809883a 	mov	r4,r17
 200d734:	84000044 	addi	r16,r16,1
 200d738:	100b883a 	mov	r5,r2
 200d73c:	01800284 	movi	r6,10
 200d740:	39fff404 	addi	r7,r7,-48
 200d744:	200d5680 	call	200d568 <__multadd>
 200d748:	853ff81e 	bne	r16,r20,200d72c <__reset+0xfe00472c>
 200d74c:	aca1883a 	add	r16,r21,r18
 200d750:	843ffe04 	addi	r16,r16,-8
 200d754:	94c00a0e 	bge	r18,r19,200d780 <__s2b+0xd4>
 200d758:	84e7883a 	add	r19,r16,r19
 200d75c:	9ca5c83a 	sub	r18,r19,r18
 200d760:	81c00007 	ldb	r7,0(r16)
 200d764:	8809883a 	mov	r4,r17
 200d768:	84000044 	addi	r16,r16,1
 200d76c:	100b883a 	mov	r5,r2
 200d770:	01800284 	movi	r6,10
 200d774:	39fff404 	addi	r7,r7,-48
 200d778:	200d5680 	call	200d568 <__multadd>
 200d77c:	84bff81e 	bne	r16,r18,200d760 <__reset+0xfe004760>
 200d780:	dfc00617 	ldw	ra,24(sp)
 200d784:	dd400517 	ldw	r21,20(sp)
 200d788:	dd000417 	ldw	r20,16(sp)
 200d78c:	dcc00317 	ldw	r19,12(sp)
 200d790:	dc800217 	ldw	r18,8(sp)
 200d794:	dc400117 	ldw	r17,4(sp)
 200d798:	dc000017 	ldw	r16,0(sp)
 200d79c:	dec00704 	addi	sp,sp,28
 200d7a0:	f800283a 	ret
 200d7a4:	a4000284 	addi	r16,r20,10
 200d7a8:	1825883a 	mov	r18,r3
 200d7ac:	003fe906 	br	200d754 <__reset+0xfe004754>

0200d7b0 <__hi0bits>:
 200d7b0:	20bfffec 	andhi	r2,r4,65535
 200d7b4:	1000141e 	bne	r2,zero,200d808 <__hi0bits+0x58>
 200d7b8:	2008943a 	slli	r4,r4,16
 200d7bc:	00800404 	movi	r2,16
 200d7c0:	20ffc02c 	andhi	r3,r4,65280
 200d7c4:	1800021e 	bne	r3,zero,200d7d0 <__hi0bits+0x20>
 200d7c8:	2008923a 	slli	r4,r4,8
 200d7cc:	10800204 	addi	r2,r2,8
 200d7d0:	20fc002c 	andhi	r3,r4,61440
 200d7d4:	1800021e 	bne	r3,zero,200d7e0 <__hi0bits+0x30>
 200d7d8:	2008913a 	slli	r4,r4,4
 200d7dc:	10800104 	addi	r2,r2,4
 200d7e0:	20f0002c 	andhi	r3,r4,49152
 200d7e4:	1800031e 	bne	r3,zero,200d7f4 <__hi0bits+0x44>
 200d7e8:	2109883a 	add	r4,r4,r4
 200d7ec:	10800084 	addi	r2,r2,2
 200d7f0:	2109883a 	add	r4,r4,r4
 200d7f4:	20000316 	blt	r4,zero,200d804 <__hi0bits+0x54>
 200d7f8:	2110002c 	andhi	r4,r4,16384
 200d7fc:	2000041e 	bne	r4,zero,200d810 <__hi0bits+0x60>
 200d800:	00800804 	movi	r2,32
 200d804:	f800283a 	ret
 200d808:	0005883a 	mov	r2,zero
 200d80c:	003fec06 	br	200d7c0 <__reset+0xfe0047c0>
 200d810:	10800044 	addi	r2,r2,1
 200d814:	f800283a 	ret

0200d818 <__lo0bits>:
 200d818:	20c00017 	ldw	r3,0(r4)
 200d81c:	188001cc 	andi	r2,r3,7
 200d820:	10000826 	beq	r2,zero,200d844 <__lo0bits+0x2c>
 200d824:	1880004c 	andi	r2,r3,1
 200d828:	1000211e 	bne	r2,zero,200d8b0 <__lo0bits+0x98>
 200d82c:	1880008c 	andi	r2,r3,2
 200d830:	1000211e 	bne	r2,zero,200d8b8 <__lo0bits+0xa0>
 200d834:	1806d0ba 	srli	r3,r3,2
 200d838:	00800084 	movi	r2,2
 200d83c:	20c00015 	stw	r3,0(r4)
 200d840:	f800283a 	ret
 200d844:	18bfffcc 	andi	r2,r3,65535
 200d848:	10001326 	beq	r2,zero,200d898 <__lo0bits+0x80>
 200d84c:	0005883a 	mov	r2,zero
 200d850:	19403fcc 	andi	r5,r3,255
 200d854:	2800021e 	bne	r5,zero,200d860 <__lo0bits+0x48>
 200d858:	1806d23a 	srli	r3,r3,8
 200d85c:	10800204 	addi	r2,r2,8
 200d860:	194003cc 	andi	r5,r3,15
 200d864:	2800021e 	bne	r5,zero,200d870 <__lo0bits+0x58>
 200d868:	1806d13a 	srli	r3,r3,4
 200d86c:	10800104 	addi	r2,r2,4
 200d870:	194000cc 	andi	r5,r3,3
 200d874:	2800021e 	bne	r5,zero,200d880 <__lo0bits+0x68>
 200d878:	1806d0ba 	srli	r3,r3,2
 200d87c:	10800084 	addi	r2,r2,2
 200d880:	1940004c 	andi	r5,r3,1
 200d884:	2800081e 	bne	r5,zero,200d8a8 <__lo0bits+0x90>
 200d888:	1806d07a 	srli	r3,r3,1
 200d88c:	1800051e 	bne	r3,zero,200d8a4 <__lo0bits+0x8c>
 200d890:	00800804 	movi	r2,32
 200d894:	f800283a 	ret
 200d898:	1806d43a 	srli	r3,r3,16
 200d89c:	00800404 	movi	r2,16
 200d8a0:	003feb06 	br	200d850 <__reset+0xfe004850>
 200d8a4:	10800044 	addi	r2,r2,1
 200d8a8:	20c00015 	stw	r3,0(r4)
 200d8ac:	f800283a 	ret
 200d8b0:	0005883a 	mov	r2,zero
 200d8b4:	f800283a 	ret
 200d8b8:	1806d07a 	srli	r3,r3,1
 200d8bc:	00800044 	movi	r2,1
 200d8c0:	20c00015 	stw	r3,0(r4)
 200d8c4:	f800283a 	ret

0200d8c8 <__i2b>:
 200d8c8:	defffd04 	addi	sp,sp,-12
 200d8cc:	dc000015 	stw	r16,0(sp)
 200d8d0:	04000044 	movi	r16,1
 200d8d4:	dc400115 	stw	r17,4(sp)
 200d8d8:	2823883a 	mov	r17,r5
 200d8dc:	800b883a 	mov	r5,r16
 200d8e0:	dfc00215 	stw	ra,8(sp)
 200d8e4:	200d4980 	call	200d498 <_Balloc>
 200d8e8:	14400515 	stw	r17,20(r2)
 200d8ec:	14000415 	stw	r16,16(r2)
 200d8f0:	dfc00217 	ldw	ra,8(sp)
 200d8f4:	dc400117 	ldw	r17,4(sp)
 200d8f8:	dc000017 	ldw	r16,0(sp)
 200d8fc:	dec00304 	addi	sp,sp,12
 200d900:	f800283a 	ret

0200d904 <__multiply>:
 200d904:	defff004 	addi	sp,sp,-64
 200d908:	dc400715 	stw	r17,28(sp)
 200d90c:	dc000615 	stw	r16,24(sp)
 200d910:	34400417 	ldw	r17,16(r6)
 200d914:	2c000417 	ldw	r16,16(r5)
 200d918:	df000e15 	stw	fp,56(sp)
 200d91c:	dd000a15 	stw	r20,40(sp)
 200d920:	dfc00f15 	stw	ra,60(sp)
 200d924:	ddc00d15 	stw	r23,52(sp)
 200d928:	dd800c15 	stw	r22,48(sp)
 200d92c:	dd400b15 	stw	r21,44(sp)
 200d930:	dcc00915 	stw	r19,36(sp)
 200d934:	dc800815 	stw	r18,32(sp)
 200d938:	2839883a 	mov	fp,r5
 200d93c:	3029883a 	mov	r20,r6
 200d940:	8440050e 	bge	r16,r17,200d958 <__multiply+0x54>
 200d944:	8007883a 	mov	r3,r16
 200d948:	3039883a 	mov	fp,r6
 200d94c:	8821883a 	mov	r16,r17
 200d950:	2829883a 	mov	r20,r5
 200d954:	1823883a 	mov	r17,r3
 200d958:	e0800217 	ldw	r2,8(fp)
 200d95c:	8447883a 	add	r3,r16,r17
 200d960:	d8c00115 	stw	r3,4(sp)
 200d964:	e1400117 	ldw	r5,4(fp)
 200d968:	10c0010e 	bge	r2,r3,200d970 <__multiply+0x6c>
 200d96c:	29400044 	addi	r5,r5,1
 200d970:	200d4980 	call	200d498 <_Balloc>
 200d974:	d8c00117 	ldw	r3,4(sp)
 200d978:	d8800515 	stw	r2,20(sp)
 200d97c:	18ef883a 	add	r23,r3,r3
 200d980:	bdef883a 	add	r23,r23,r23
 200d984:	10c00504 	addi	r3,r2,20
 200d988:	1def883a 	add	r23,r3,r23
 200d98c:	d8c00015 	stw	r3,0(sp)
 200d990:	ddc00215 	stw	r23,8(sp)
 200d994:	1805883a 	mov	r2,r3
 200d998:	1dc0042e 	bgeu	r3,r23,200d9ac <__multiply+0xa8>
 200d99c:	d8c00217 	ldw	r3,8(sp)
 200d9a0:	10000015 	stw	zero,0(r2)
 200d9a4:	10800104 	addi	r2,r2,4
 200d9a8:	10fffc36 	bltu	r2,r3,200d99c <__reset+0xfe00499c>
 200d9ac:	8c63883a 	add	r17,r17,r17
 200d9b0:	a5000504 	addi	r20,r20,20
 200d9b4:	8c63883a 	add	r17,r17,r17
 200d9b8:	e7000504 	addi	fp,fp,20
 200d9bc:	8421883a 	add	r16,r16,r16
 200d9c0:	a463883a 	add	r17,r20,r17
 200d9c4:	8421883a 	add	r16,r16,r16
 200d9c8:	df000315 	stw	fp,12(sp)
 200d9cc:	dc400415 	stw	r17,16(sp)
 200d9d0:	e425883a 	add	r18,fp,r16
 200d9d4:	a440482e 	bgeu	r20,r17,200daf8 <__multiply+0x1f4>
 200d9d8:	a4000017 	ldw	r16,0(r20)
 200d9dc:	847fffcc 	andi	r17,r16,65535
 200d9e0:	88001d26 	beq	r17,zero,200da58 <__multiply+0x154>
 200d9e4:	dc000017 	ldw	r16,0(sp)
 200d9e8:	dcc00317 	ldw	r19,12(sp)
 200d9ec:	002b883a 	mov	r21,zero
 200d9f0:	9dc00017 	ldw	r23,0(r19)
 200d9f4:	85800017 	ldw	r22,0(r16)
 200d9f8:	880b883a 	mov	r5,r17
 200d9fc:	b93fffcc 	andi	r4,r23,65535
 200da00:	20059200 	call	2005920 <__mulsi3>
 200da04:	b808d43a 	srli	r4,r23,16
 200da08:	b0ffffcc 	andi	r3,r22,65535
 200da0c:	1885883a 	add	r2,r3,r2
 200da10:	880b883a 	mov	r5,r17
 200da14:	156b883a 	add	r21,r2,r21
 200da18:	b02cd43a 	srli	r22,r22,16
 200da1c:	20059200 	call	2005920 <__mulsi3>
 200da20:	a808d43a 	srli	r4,r21,16
 200da24:	b085883a 	add	r2,r22,r2
 200da28:	a8ffffcc 	andi	r3,r21,65535
 200da2c:	110d883a 	add	r6,r2,r4
 200da30:	3004943a 	slli	r2,r6,16
 200da34:	9cc00104 	addi	r19,r19,4
 200da38:	8009883a 	mov	r4,r16
 200da3c:	10c6b03a 	or	r3,r2,r3
 200da40:	80c00015 	stw	r3,0(r16)
 200da44:	302ad43a 	srli	r21,r6,16
 200da48:	84000104 	addi	r16,r16,4
 200da4c:	9cbfe836 	bltu	r19,r18,200d9f0 <__reset+0xfe0049f0>
 200da50:	25400115 	stw	r21,4(r4)
 200da54:	a4000017 	ldw	r16,0(r20)
 200da58:	8020d43a 	srli	r16,r16,16
 200da5c:	80002026 	beq	r16,zero,200dae0 <__multiply+0x1dc>
 200da60:	d8c00017 	ldw	r3,0(sp)
 200da64:	dd400317 	ldw	r21,12(sp)
 200da68:	002f883a 	mov	r23,zero
 200da6c:	1f000017 	ldw	fp,0(r3)
 200da70:	182d883a 	mov	r22,r3
 200da74:	e023883a 	mov	r17,fp
 200da78:	a900000b 	ldhu	r4,0(r21)
 200da7c:	8822d43a 	srli	r17,r17,16
 200da80:	800b883a 	mov	r5,r16
 200da84:	20059200 	call	2005920 <__mulsi3>
 200da88:	1445883a 	add	r2,r2,r17
 200da8c:	15ef883a 	add	r23,r2,r23
 200da90:	b804943a 	slli	r2,r23,16
 200da94:	e1ffffcc 	andi	r7,fp,65535
 200da98:	ad400104 	addi	r21,r21,4
 200da9c:	11ceb03a 	or	r7,r2,r7
 200daa0:	b1c00015 	stw	r7,0(r22)
 200daa4:	a93fff17 	ldw	r4,-4(r21)
 200daa8:	b7000117 	ldw	fp,4(r22)
 200daac:	800b883a 	mov	r5,r16
 200dab0:	2008d43a 	srli	r4,r4,16
 200dab4:	e023883a 	mov	r17,fp
 200dab8:	b027883a 	mov	r19,r22
 200dabc:	20059200 	call	2005920 <__mulsi3>
 200dac0:	b812d43a 	srli	r9,r23,16
 200dac4:	e23fffcc 	andi	r8,fp,65535
 200dac8:	1205883a 	add	r2,r2,r8
 200dacc:	1279883a 	add	fp,r2,r9
 200dad0:	b5800104 	addi	r22,r22,4
 200dad4:	e02ed43a 	srli	r23,fp,16
 200dad8:	acbfe736 	bltu	r21,r18,200da78 <__reset+0xfe004a78>
 200dadc:	9f000115 	stw	fp,4(r19)
 200dae0:	d8c00017 	ldw	r3,0(sp)
 200dae4:	a5000104 	addi	r20,r20,4
 200dae8:	18c00104 	addi	r3,r3,4
 200daec:	d8c00015 	stw	r3,0(sp)
 200daf0:	d8c00417 	ldw	r3,16(sp)
 200daf4:	a0ffb836 	bltu	r20,r3,200d9d8 <__reset+0xfe0049d8>
 200daf8:	d8c00117 	ldw	r3,4(sp)
 200dafc:	00c00c0e 	bge	zero,r3,200db30 <__multiply+0x22c>
 200db00:	d8c00217 	ldw	r3,8(sp)
 200db04:	18bfff17 	ldw	r2,-4(r3)
 200db08:	1dffff04 	addi	r23,r3,-4
 200db0c:	10000326 	beq	r2,zero,200db1c <__multiply+0x218>
 200db10:	00000706 	br	200db30 <__multiply+0x22c>
 200db14:	b8800017 	ldw	r2,0(r23)
 200db18:	1000051e 	bne	r2,zero,200db30 <__multiply+0x22c>
 200db1c:	d8c00117 	ldw	r3,4(sp)
 200db20:	bdffff04 	addi	r23,r23,-4
 200db24:	18ffffc4 	addi	r3,r3,-1
 200db28:	d8c00115 	stw	r3,4(sp)
 200db2c:	183ff91e 	bne	r3,zero,200db14 <__reset+0xfe004b14>
 200db30:	d8c00517 	ldw	r3,20(sp)
 200db34:	d9000117 	ldw	r4,4(sp)
 200db38:	1805883a 	mov	r2,r3
 200db3c:	19000415 	stw	r4,16(r3)
 200db40:	dfc00f17 	ldw	ra,60(sp)
 200db44:	df000e17 	ldw	fp,56(sp)
 200db48:	ddc00d17 	ldw	r23,52(sp)
 200db4c:	dd800c17 	ldw	r22,48(sp)
 200db50:	dd400b17 	ldw	r21,44(sp)
 200db54:	dd000a17 	ldw	r20,40(sp)
 200db58:	dcc00917 	ldw	r19,36(sp)
 200db5c:	dc800817 	ldw	r18,32(sp)
 200db60:	dc400717 	ldw	r17,28(sp)
 200db64:	dc000617 	ldw	r16,24(sp)
 200db68:	dec01004 	addi	sp,sp,64
 200db6c:	f800283a 	ret

0200db70 <__pow5mult>:
 200db70:	defffa04 	addi	sp,sp,-24
 200db74:	dcc00315 	stw	r19,12(sp)
 200db78:	dc800215 	stw	r18,8(sp)
 200db7c:	dc000015 	stw	r16,0(sp)
 200db80:	dfc00515 	stw	ra,20(sp)
 200db84:	dd000415 	stw	r20,16(sp)
 200db88:	dc400115 	stw	r17,4(sp)
 200db8c:	308000cc 	andi	r2,r6,3
 200db90:	3021883a 	mov	r16,r6
 200db94:	2027883a 	mov	r19,r4
 200db98:	2825883a 	mov	r18,r5
 200db9c:	1000301e 	bne	r2,zero,200dc60 <__pow5mult+0xf0>
 200dba0:	8021d0ba 	srai	r16,r16,2
 200dba4:	80001b26 	beq	r16,zero,200dc14 <__pow5mult+0xa4>
 200dba8:	9c401217 	ldw	r17,72(r19)
 200dbac:	88003726 	beq	r17,zero,200dc8c <__pow5mult+0x11c>
 200dbb0:	80c0004c 	andi	r3,r16,1
 200dbb4:	1800071e 	bne	r3,zero,200dbd4 <__pow5mult+0x64>
 200dbb8:	8021d07a 	srai	r16,r16,1
 200dbbc:	80001526 	beq	r16,zero,200dc14 <__pow5mult+0xa4>
 200dbc0:	88800017 	ldw	r2,0(r17)
 200dbc4:	10001c26 	beq	r2,zero,200dc38 <__pow5mult+0xc8>
 200dbc8:	1023883a 	mov	r17,r2
 200dbcc:	80c0004c 	andi	r3,r16,1
 200dbd0:	183ff926 	beq	r3,zero,200dbb8 <__reset+0xfe004bb8>
 200dbd4:	900b883a 	mov	r5,r18
 200dbd8:	880d883a 	mov	r6,r17
 200dbdc:	9809883a 	mov	r4,r19
 200dbe0:	200d9040 	call	200d904 <__multiply>
 200dbe4:	90001c26 	beq	r18,zero,200dc58 <__pow5mult+0xe8>
 200dbe8:	91000117 	ldw	r4,4(r18)
 200dbec:	98c01317 	ldw	r3,76(r19)
 200dbf0:	8021d07a 	srai	r16,r16,1
 200dbf4:	2109883a 	add	r4,r4,r4
 200dbf8:	2109883a 	add	r4,r4,r4
 200dbfc:	1907883a 	add	r3,r3,r4
 200dc00:	19000017 	ldw	r4,0(r3)
 200dc04:	91000015 	stw	r4,0(r18)
 200dc08:	1c800015 	stw	r18,0(r3)
 200dc0c:	1025883a 	mov	r18,r2
 200dc10:	803feb1e 	bne	r16,zero,200dbc0 <__reset+0xfe004bc0>
 200dc14:	9005883a 	mov	r2,r18
 200dc18:	dfc00517 	ldw	ra,20(sp)
 200dc1c:	dd000417 	ldw	r20,16(sp)
 200dc20:	dcc00317 	ldw	r19,12(sp)
 200dc24:	dc800217 	ldw	r18,8(sp)
 200dc28:	dc400117 	ldw	r17,4(sp)
 200dc2c:	dc000017 	ldw	r16,0(sp)
 200dc30:	dec00604 	addi	sp,sp,24
 200dc34:	f800283a 	ret
 200dc38:	880b883a 	mov	r5,r17
 200dc3c:	880d883a 	mov	r6,r17
 200dc40:	9809883a 	mov	r4,r19
 200dc44:	200d9040 	call	200d904 <__multiply>
 200dc48:	88800015 	stw	r2,0(r17)
 200dc4c:	10000015 	stw	zero,0(r2)
 200dc50:	1023883a 	mov	r17,r2
 200dc54:	003fdd06 	br	200dbcc <__reset+0xfe004bcc>
 200dc58:	1025883a 	mov	r18,r2
 200dc5c:	003fd606 	br	200dbb8 <__reset+0xfe004bb8>
 200dc60:	10bfffc4 	addi	r2,r2,-1
 200dc64:	1085883a 	add	r2,r2,r2
 200dc68:	00c080b4 	movhi	r3,514
 200dc6c:	18fbd504 	addi	r3,r3,-4268
 200dc70:	1085883a 	add	r2,r2,r2
 200dc74:	1885883a 	add	r2,r3,r2
 200dc78:	11800017 	ldw	r6,0(r2)
 200dc7c:	000f883a 	mov	r7,zero
 200dc80:	200d5680 	call	200d568 <__multadd>
 200dc84:	1025883a 	mov	r18,r2
 200dc88:	003fc506 	br	200dba0 <__reset+0xfe004ba0>
 200dc8c:	05000044 	movi	r20,1
 200dc90:	9809883a 	mov	r4,r19
 200dc94:	a00b883a 	mov	r5,r20
 200dc98:	200d4980 	call	200d498 <_Balloc>
 200dc9c:	1023883a 	mov	r17,r2
 200dca0:	00809c44 	movi	r2,625
 200dca4:	88800515 	stw	r2,20(r17)
 200dca8:	8d000415 	stw	r20,16(r17)
 200dcac:	9c401215 	stw	r17,72(r19)
 200dcb0:	88000015 	stw	zero,0(r17)
 200dcb4:	003fbe06 	br	200dbb0 <__reset+0xfe004bb0>

0200dcb8 <__lshift>:
 200dcb8:	defff904 	addi	sp,sp,-28
 200dcbc:	dd000415 	stw	r20,16(sp)
 200dcc0:	dc400115 	stw	r17,4(sp)
 200dcc4:	2d000417 	ldw	r20,16(r5)
 200dcc8:	3023d17a 	srai	r17,r6,5
 200dccc:	28800217 	ldw	r2,8(r5)
 200dcd0:	dd400515 	stw	r21,20(sp)
 200dcd4:	8d29883a 	add	r20,r17,r20
 200dcd8:	dcc00315 	stw	r19,12(sp)
 200dcdc:	dc800215 	stw	r18,8(sp)
 200dce0:	dc000015 	stw	r16,0(sp)
 200dce4:	dfc00615 	stw	ra,24(sp)
 200dce8:	a4000044 	addi	r16,r20,1
 200dcec:	2825883a 	mov	r18,r5
 200dcf0:	302b883a 	mov	r21,r6
 200dcf4:	2027883a 	mov	r19,r4
 200dcf8:	29400117 	ldw	r5,4(r5)
 200dcfc:	1400030e 	bge	r2,r16,200dd0c <__lshift+0x54>
 200dd00:	1085883a 	add	r2,r2,r2
 200dd04:	29400044 	addi	r5,r5,1
 200dd08:	143ffd16 	blt	r2,r16,200dd00 <__reset+0xfe004d00>
 200dd0c:	9809883a 	mov	r4,r19
 200dd10:	200d4980 	call	200d498 <_Balloc>
 200dd14:	11000504 	addi	r4,r2,20
 200dd18:	0440090e 	bge	zero,r17,200dd40 <__lshift+0x88>
 200dd1c:	200f883a 	mov	r7,r4
 200dd20:	0007883a 	mov	r3,zero
 200dd24:	38000015 	stw	zero,0(r7)
 200dd28:	18c00044 	addi	r3,r3,1
 200dd2c:	39c00104 	addi	r7,r7,4
 200dd30:	1c7ffc1e 	bne	r3,r17,200dd24 <__reset+0xfe004d24>
 200dd34:	18c7883a 	add	r3,r3,r3
 200dd38:	18c7883a 	add	r3,r3,r3
 200dd3c:	20c9883a 	add	r4,r4,r3
 200dd40:	92400417 	ldw	r9,16(r18)
 200dd44:	90c00504 	addi	r3,r18,20
 200dd48:	a98007cc 	andi	r6,r21,31
 200dd4c:	4a53883a 	add	r9,r9,r9
 200dd50:	4a53883a 	add	r9,r9,r9
 200dd54:	1a53883a 	add	r9,r3,r9
 200dd58:	30002426 	beq	r6,zero,200ddec <__lshift+0x134>
 200dd5c:	01400804 	movi	r5,32
 200dd60:	298bc83a 	sub	r5,r5,r6
 200dd64:	200f883a 	mov	r7,r4
 200dd68:	0011883a 	mov	r8,zero
 200dd6c:	1a800017 	ldw	r10,0(r3)
 200dd70:	3809883a 	mov	r4,r7
 200dd74:	39c00104 	addi	r7,r7,4
 200dd78:	5194983a 	sll	r10,r10,r6
 200dd7c:	18c00104 	addi	r3,r3,4
 200dd80:	4290b03a 	or	r8,r8,r10
 200dd84:	3a3fff15 	stw	r8,-4(r7)
 200dd88:	1a3fff17 	ldw	r8,-4(r3)
 200dd8c:	4150d83a 	srl	r8,r8,r5
 200dd90:	1a7ff636 	bltu	r3,r9,200dd6c <__reset+0xfe004d6c>
 200dd94:	22000115 	stw	r8,4(r4)
 200dd98:	40000126 	beq	r8,zero,200dda0 <__lshift+0xe8>
 200dd9c:	a4000084 	addi	r16,r20,2
 200dda0:	91000117 	ldw	r4,4(r18)
 200dda4:	98c01317 	ldw	r3,76(r19)
 200dda8:	843fffc4 	addi	r16,r16,-1
 200ddac:	2109883a 	add	r4,r4,r4
 200ddb0:	2109883a 	add	r4,r4,r4
 200ddb4:	1907883a 	add	r3,r3,r4
 200ddb8:	19000017 	ldw	r4,0(r3)
 200ddbc:	14000415 	stw	r16,16(r2)
 200ddc0:	91000015 	stw	r4,0(r18)
 200ddc4:	1c800015 	stw	r18,0(r3)
 200ddc8:	dfc00617 	ldw	ra,24(sp)
 200ddcc:	dd400517 	ldw	r21,20(sp)
 200ddd0:	dd000417 	ldw	r20,16(sp)
 200ddd4:	dcc00317 	ldw	r19,12(sp)
 200ddd8:	dc800217 	ldw	r18,8(sp)
 200dddc:	dc400117 	ldw	r17,4(sp)
 200dde0:	dc000017 	ldw	r16,0(sp)
 200dde4:	dec00704 	addi	sp,sp,28
 200dde8:	f800283a 	ret
 200ddec:	200f883a 	mov	r7,r4
 200ddf0:	19800017 	ldw	r6,0(r3)
 200ddf4:	39c00104 	addi	r7,r7,4
 200ddf8:	18c00104 	addi	r3,r3,4
 200ddfc:	39bfff15 	stw	r6,-4(r7)
 200de00:	1a7ffb36 	bltu	r3,r9,200ddf0 <__reset+0xfe004df0>
 200de04:	003fe606 	br	200dda0 <__reset+0xfe004da0>

0200de08 <__mcmp>:
 200de08:	20800417 	ldw	r2,16(r4)
 200de0c:	28c00417 	ldw	r3,16(r5)
 200de10:	10c5c83a 	sub	r2,r2,r3
 200de14:	1000111e 	bne	r2,zero,200de5c <__mcmp+0x54>
 200de18:	18c7883a 	add	r3,r3,r3
 200de1c:	18c7883a 	add	r3,r3,r3
 200de20:	21000504 	addi	r4,r4,20
 200de24:	29400504 	addi	r5,r5,20
 200de28:	20c5883a 	add	r2,r4,r3
 200de2c:	28cb883a 	add	r5,r5,r3
 200de30:	00000106 	br	200de38 <__mcmp+0x30>
 200de34:	2080082e 	bgeu	r4,r2,200de58 <__mcmp+0x50>
 200de38:	10bfff04 	addi	r2,r2,-4
 200de3c:	297fff04 	addi	r5,r5,-4
 200de40:	11800017 	ldw	r6,0(r2)
 200de44:	28c00017 	ldw	r3,0(r5)
 200de48:	30fffa26 	beq	r6,r3,200de34 <__reset+0xfe004e34>
 200de4c:	30c00436 	bltu	r6,r3,200de60 <__mcmp+0x58>
 200de50:	00800044 	movi	r2,1
 200de54:	f800283a 	ret
 200de58:	0005883a 	mov	r2,zero
 200de5c:	f800283a 	ret
 200de60:	00bfffc4 	movi	r2,-1
 200de64:	f800283a 	ret

0200de68 <__mdiff>:
 200de68:	defffc04 	addi	sp,sp,-16
 200de6c:	dc000015 	stw	r16,0(sp)
 200de70:	2821883a 	mov	r16,r5
 200de74:	200f883a 	mov	r7,r4
 200de78:	300b883a 	mov	r5,r6
 200de7c:	8009883a 	mov	r4,r16
 200de80:	dc400115 	stw	r17,4(sp)
 200de84:	dfc00315 	stw	ra,12(sp)
 200de88:	dc800215 	stw	r18,8(sp)
 200de8c:	3023883a 	mov	r17,r6
 200de90:	200de080 	call	200de08 <__mcmp>
 200de94:	10005226 	beq	r2,zero,200dfe0 <__mdiff+0x178>
 200de98:	10004c16 	blt	r2,zero,200dfcc <__mdiff+0x164>
 200de9c:	0025883a 	mov	r18,zero
 200dea0:	81400117 	ldw	r5,4(r16)
 200dea4:	3809883a 	mov	r4,r7
 200dea8:	200d4980 	call	200d498 <_Balloc>
 200deac:	82800417 	ldw	r10,16(r16)
 200deb0:	8b400417 	ldw	r13,16(r17)
 200deb4:	81000504 	addi	r4,r16,20
 200deb8:	5299883a 	add	r12,r10,r10
 200debc:	6b5b883a 	add	r13,r13,r13
 200dec0:	6319883a 	add	r12,r12,r12
 200dec4:	89800504 	addi	r6,r17,20
 200dec8:	6b5b883a 	add	r13,r13,r13
 200decc:	14800315 	stw	r18,12(r2)
 200ded0:	2319883a 	add	r12,r4,r12
 200ded4:	335b883a 	add	r13,r6,r13
 200ded8:	11400504 	addi	r5,r2,20
 200dedc:	0007883a 	mov	r3,zero
 200dee0:	00000106 	br	200dee8 <__mdiff+0x80>
 200dee4:	400b883a 	mov	r5,r8
 200dee8:	22400017 	ldw	r9,0(r4)
 200deec:	32000017 	ldw	r8,0(r6)
 200def0:	31800104 	addi	r6,r6,4
 200def4:	49ffffcc 	andi	r7,r9,65535
 200def8:	42ffffcc 	andi	r11,r8,65535
 200defc:	38c7883a 	add	r3,r7,r3
 200df00:	1acfc83a 	sub	r7,r3,r11
 200df04:	4010d43a 	srli	r8,r8,16
 200df08:	4806d43a 	srli	r3,r9,16
 200df0c:	3817d43a 	srai	r11,r7,16
 200df10:	39ffffcc 	andi	r7,r7,65535
 200df14:	1a07c83a 	sub	r3,r3,r8
 200df18:	1ac7883a 	add	r3,r3,r11
 200df1c:	1812943a 	slli	r9,r3,16
 200df20:	2a000104 	addi	r8,r5,4
 200df24:	21000104 	addi	r4,r4,4
 200df28:	49ceb03a 	or	r7,r9,r7
 200df2c:	29c00015 	stw	r7,0(r5)
 200df30:	1807d43a 	srai	r3,r3,16
 200df34:	337feb36 	bltu	r6,r13,200dee4 <__reset+0xfe004ee4>
 200df38:	2013883a 	mov	r9,r4
 200df3c:	2300342e 	bgeu	r4,r12,200e010 <__mdiff+0x1a8>
 200df40:	400b883a 	mov	r5,r8
 200df44:	21c00017 	ldw	r7,0(r4)
 200df48:	29400104 	addi	r5,r5,4
 200df4c:	21000104 	addi	r4,r4,4
 200df50:	39bfffcc 	andi	r6,r7,65535
 200df54:	30cd883a 	add	r6,r6,r3
 200df58:	3007d43a 	srai	r3,r6,16
 200df5c:	380ed43a 	srli	r7,r7,16
 200df60:	31bfffcc 	andi	r6,r6,65535
 200df64:	19c7883a 	add	r3,r3,r7
 200df68:	180e943a 	slli	r7,r3,16
 200df6c:	1807d43a 	srai	r3,r3,16
 200df70:	398cb03a 	or	r6,r7,r6
 200df74:	29bfff15 	stw	r6,-4(r5)
 200df78:	233ff236 	bltu	r4,r12,200df44 <__reset+0xfe004f44>
 200df7c:	0248303a 	nor	r4,zero,r9
 200df80:	2309883a 	add	r4,r4,r12
 200df84:	2008d0ba 	srli	r4,r4,2
 200df88:	21000044 	addi	r4,r4,1
 200df8c:	2109883a 	add	r4,r4,r4
 200df90:	2109883a 	add	r4,r4,r4
 200df94:	4111883a 	add	r8,r8,r4
 200df98:	413fff04 	addi	r4,r8,-4
 200df9c:	3000041e 	bne	r6,zero,200dfb0 <__mdiff+0x148>
 200dfa0:	213fff04 	addi	r4,r4,-4
 200dfa4:	20c00017 	ldw	r3,0(r4)
 200dfa8:	52bfffc4 	addi	r10,r10,-1
 200dfac:	183ffc26 	beq	r3,zero,200dfa0 <__reset+0xfe004fa0>
 200dfb0:	12800415 	stw	r10,16(r2)
 200dfb4:	dfc00317 	ldw	ra,12(sp)
 200dfb8:	dc800217 	ldw	r18,8(sp)
 200dfbc:	dc400117 	ldw	r17,4(sp)
 200dfc0:	dc000017 	ldw	r16,0(sp)
 200dfc4:	dec00404 	addi	sp,sp,16
 200dfc8:	f800283a 	ret
 200dfcc:	8005883a 	mov	r2,r16
 200dfd0:	04800044 	movi	r18,1
 200dfd4:	8821883a 	mov	r16,r17
 200dfd8:	1023883a 	mov	r17,r2
 200dfdc:	003fb006 	br	200dea0 <__reset+0xfe004ea0>
 200dfe0:	3809883a 	mov	r4,r7
 200dfe4:	000b883a 	mov	r5,zero
 200dfe8:	200d4980 	call	200d498 <_Balloc>
 200dfec:	00c00044 	movi	r3,1
 200dff0:	10c00415 	stw	r3,16(r2)
 200dff4:	10000515 	stw	zero,20(r2)
 200dff8:	dfc00317 	ldw	ra,12(sp)
 200dffc:	dc800217 	ldw	r18,8(sp)
 200e000:	dc400117 	ldw	r17,4(sp)
 200e004:	dc000017 	ldw	r16,0(sp)
 200e008:	dec00404 	addi	sp,sp,16
 200e00c:	f800283a 	ret
 200e010:	380d883a 	mov	r6,r7
 200e014:	003fe006 	br	200df98 <__reset+0xfe004f98>

0200e018 <__ulp>:
 200e018:	295ffc2c 	andhi	r5,r5,32752
 200e01c:	00bf3034 	movhi	r2,64704
 200e020:	2887883a 	add	r3,r5,r2
 200e024:	00c0020e 	bge	zero,r3,200e030 <__ulp+0x18>
 200e028:	0005883a 	mov	r2,zero
 200e02c:	f800283a 	ret
 200e030:	00c7c83a 	sub	r3,zero,r3
 200e034:	1805d53a 	srai	r2,r3,20
 200e038:	00c004c4 	movi	r3,19
 200e03c:	18800a0e 	bge	r3,r2,200e068 <__ulp+0x50>
 200e040:	01000c84 	movi	r4,50
 200e044:	0007883a 	mov	r3,zero
 200e048:	20800516 	blt	r4,r2,200e060 <__ulp+0x48>
 200e04c:	01000cc4 	movi	r4,51
 200e050:	2085c83a 	sub	r2,r4,r2
 200e054:	01000044 	movi	r4,1
 200e058:	2084983a 	sll	r2,r4,r2
 200e05c:	f800283a 	ret
 200e060:	00800044 	movi	r2,1
 200e064:	f800283a 	ret
 200e068:	00c00234 	movhi	r3,8
 200e06c:	1887d83a 	sra	r3,r3,r2
 200e070:	0005883a 	mov	r2,zero
 200e074:	f800283a 	ret

0200e078 <__b2d>:
 200e078:	21800417 	ldw	r6,16(r4)
 200e07c:	22000504 	addi	r8,r4,20
 200e080:	deffff04 	addi	sp,sp,-4
 200e084:	318d883a 	add	r6,r6,r6
 200e088:	318d883a 	add	r6,r6,r6
 200e08c:	418d883a 	add	r6,r8,r6
 200e090:	31ffff17 	ldw	r7,-4(r6)
 200e094:	327fff04 	addi	r9,r6,-4
 200e098:	dfc00015 	stw	ra,0(sp)
 200e09c:	3809883a 	mov	r4,r7
 200e0a0:	200d7b00 	call	200d7b0 <__hi0bits>
 200e0a4:	00c00804 	movi	r3,32
 200e0a8:	1887c83a 	sub	r3,r3,r2
 200e0ac:	28c00015 	stw	r3,0(r5)
 200e0b0:	00c00284 	movi	r3,10
 200e0b4:	18800d16 	blt	r3,r2,200e0ec <__b2d+0x74>
 200e0b8:	010002c4 	movi	r4,11
 200e0bc:	2089c83a 	sub	r4,r4,r2
 200e0c0:	3906d83a 	srl	r3,r7,r4
 200e0c4:	18cffc34 	orhi	r3,r3,16368
 200e0c8:	4240232e 	bgeu	r8,r9,200e158 <__b2d+0xe0>
 200e0cc:	317ffe17 	ldw	r5,-8(r6)
 200e0d0:	2908d83a 	srl	r4,r5,r4
 200e0d4:	10800544 	addi	r2,r2,21
 200e0d8:	388e983a 	sll	r7,r7,r2
 200e0dc:	21c4b03a 	or	r2,r4,r7
 200e0e0:	dfc00017 	ldw	ra,0(sp)
 200e0e4:	dec00104 	addi	sp,sp,4
 200e0e8:	f800283a 	ret
 200e0ec:	42401136 	bltu	r8,r9,200e134 <__b2d+0xbc>
 200e0f0:	113ffd44 	addi	r4,r2,-11
 200e0f4:	000b883a 	mov	r5,zero
 200e0f8:	20001226 	beq	r4,zero,200e144 <__b2d+0xcc>
 200e0fc:	00c00ac4 	movi	r3,43
 200e100:	1885c83a 	sub	r2,r3,r2
 200e104:	3906983a 	sll	r3,r7,r4
 200e108:	288cd83a 	srl	r6,r5,r2
 200e10c:	18cffc34 	orhi	r3,r3,16368
 200e110:	1986b03a 	or	r3,r3,r6
 200e114:	4240122e 	bgeu	r8,r9,200e160 <__b2d+0xe8>
 200e118:	49bfff17 	ldw	r6,-4(r9)
 200e11c:	3084d83a 	srl	r2,r6,r2
 200e120:	2908983a 	sll	r4,r5,r4
 200e124:	1104b03a 	or	r2,r2,r4
 200e128:	dfc00017 	ldw	ra,0(sp)
 200e12c:	dec00104 	addi	sp,sp,4
 200e130:	f800283a 	ret
 200e134:	113ffd44 	addi	r4,r2,-11
 200e138:	327ffe04 	addi	r9,r6,-8
 200e13c:	317ffe17 	ldw	r5,-8(r6)
 200e140:	203fee1e 	bne	r4,zero,200e0fc <__reset+0xfe0050fc>
 200e144:	38cffc34 	orhi	r3,r7,16368
 200e148:	2805883a 	mov	r2,r5
 200e14c:	dfc00017 	ldw	ra,0(sp)
 200e150:	dec00104 	addi	sp,sp,4
 200e154:	f800283a 	ret
 200e158:	0009883a 	mov	r4,zero
 200e15c:	003fdd06 	br	200e0d4 <__reset+0xfe0050d4>
 200e160:	0005883a 	mov	r2,zero
 200e164:	003fee06 	br	200e120 <__reset+0xfe005120>

0200e168 <__d2b>:
 200e168:	defffa04 	addi	sp,sp,-24
 200e16c:	dc400315 	stw	r17,12(sp)
 200e170:	2823883a 	mov	r17,r5
 200e174:	01400044 	movi	r5,1
 200e178:	dc800415 	stw	r18,16(sp)
 200e17c:	dc000215 	stw	r16,8(sp)
 200e180:	dfc00515 	stw	ra,20(sp)
 200e184:	3021883a 	mov	r16,r6
 200e188:	3825883a 	mov	r18,r7
 200e18c:	200d4980 	call	200d498 <_Balloc>
 200e190:	8012907a 	slli	r9,r16,1
 200e194:	1011883a 	mov	r8,r2
 200e198:	00800434 	movhi	r2,16
 200e19c:	10bfffc4 	addi	r2,r2,-1
 200e1a0:	4812d57a 	srli	r9,r9,21
 200e1a4:	80a0703a 	and	r16,r16,r2
 200e1a8:	48000126 	beq	r9,zero,200e1b0 <__d2b+0x48>
 200e1ac:	84000434 	orhi	r16,r16,16
 200e1b0:	dc000015 	stw	r16,0(sp)
 200e1b4:	88001e26 	beq	r17,zero,200e230 <__d2b+0xc8>
 200e1b8:	d9000104 	addi	r4,sp,4
 200e1bc:	dc400115 	stw	r17,4(sp)
 200e1c0:	200d8180 	call	200d818 <__lo0bits>
 200e1c4:	d8c00017 	ldw	r3,0(sp)
 200e1c8:	10002f1e 	bne	r2,zero,200e288 <__d2b+0x120>
 200e1cc:	d9000117 	ldw	r4,4(sp)
 200e1d0:	41000515 	stw	r4,20(r8)
 200e1d4:	180b003a 	cmpeq	r5,r3,zero
 200e1d8:	01000084 	movi	r4,2
 200e1dc:	214bc83a 	sub	r5,r4,r5
 200e1e0:	40c00615 	stw	r3,24(r8)
 200e1e4:	41400415 	stw	r5,16(r8)
 200e1e8:	4800191e 	bne	r9,zero,200e250 <__d2b+0xe8>
 200e1ec:	280690ba 	slli	r3,r5,2
 200e1f0:	10bef384 	addi	r2,r2,-1074
 200e1f4:	90800015 	stw	r2,0(r18)
 200e1f8:	40c5883a 	add	r2,r8,r3
 200e1fc:	11000417 	ldw	r4,16(r2)
 200e200:	200d7b00 	call	200d7b0 <__hi0bits>
 200e204:	280a917a 	slli	r5,r5,5
 200e208:	d8c00617 	ldw	r3,24(sp)
 200e20c:	2885c83a 	sub	r2,r5,r2
 200e210:	18800015 	stw	r2,0(r3)
 200e214:	4005883a 	mov	r2,r8
 200e218:	dfc00517 	ldw	ra,20(sp)
 200e21c:	dc800417 	ldw	r18,16(sp)
 200e220:	dc400317 	ldw	r17,12(sp)
 200e224:	dc000217 	ldw	r16,8(sp)
 200e228:	dec00604 	addi	sp,sp,24
 200e22c:	f800283a 	ret
 200e230:	d809883a 	mov	r4,sp
 200e234:	200d8180 	call	200d818 <__lo0bits>
 200e238:	d8c00017 	ldw	r3,0(sp)
 200e23c:	01400044 	movi	r5,1
 200e240:	41400415 	stw	r5,16(r8)
 200e244:	40c00515 	stw	r3,20(r8)
 200e248:	10800804 	addi	r2,r2,32
 200e24c:	483fe726 	beq	r9,zero,200e1ec <__reset+0xfe0051ec>
 200e250:	00c00d44 	movi	r3,53
 200e254:	4a7ef344 	addi	r9,r9,-1075
 200e258:	4893883a 	add	r9,r9,r2
 200e25c:	1885c83a 	sub	r2,r3,r2
 200e260:	d8c00617 	ldw	r3,24(sp)
 200e264:	92400015 	stw	r9,0(r18)
 200e268:	18800015 	stw	r2,0(r3)
 200e26c:	4005883a 	mov	r2,r8
 200e270:	dfc00517 	ldw	ra,20(sp)
 200e274:	dc800417 	ldw	r18,16(sp)
 200e278:	dc400317 	ldw	r17,12(sp)
 200e27c:	dc000217 	ldw	r16,8(sp)
 200e280:	dec00604 	addi	sp,sp,24
 200e284:	f800283a 	ret
 200e288:	01000804 	movi	r4,32
 200e28c:	2089c83a 	sub	r4,r4,r2
 200e290:	1908983a 	sll	r4,r3,r4
 200e294:	d9400117 	ldw	r5,4(sp)
 200e298:	1886d83a 	srl	r3,r3,r2
 200e29c:	2148b03a 	or	r4,r4,r5
 200e2a0:	41000515 	stw	r4,20(r8)
 200e2a4:	d8c00015 	stw	r3,0(sp)
 200e2a8:	003fca06 	br	200e1d4 <__reset+0xfe0051d4>

0200e2ac <__ratio>:
 200e2ac:	defffd04 	addi	sp,sp,-12
 200e2b0:	2817883a 	mov	r11,r5
 200e2b4:	201b883a 	mov	r13,r4
 200e2b8:	d9400104 	addi	r5,sp,4
 200e2bc:	dfc00215 	stw	ra,8(sp)
 200e2c0:	200e0780 	call	200e078 <__b2d>
 200e2c4:	5809883a 	mov	r4,r11
 200e2c8:	d80b883a 	mov	r5,sp
 200e2cc:	1019883a 	mov	r12,r2
 200e2d0:	1815883a 	mov	r10,r3
 200e2d4:	200e0780 	call	200e078 <__b2d>
 200e2d8:	69400417 	ldw	r5,16(r13)
 200e2dc:	59000417 	ldw	r4,16(r11)
 200e2e0:	d9800117 	ldw	r6,4(sp)
 200e2e4:	2909c83a 	sub	r4,r5,r4
 200e2e8:	d9400017 	ldw	r5,0(sp)
 200e2ec:	2008917a 	slli	r4,r4,5
 200e2f0:	314bc83a 	sub	r5,r6,r5
 200e2f4:	290b883a 	add	r5,r5,r4
 200e2f8:	01400a0e 	bge	zero,r5,200e324 <__ratio+0x78>
 200e2fc:	280a953a 	slli	r5,r5,20
 200e300:	6009883a 	mov	r4,r12
 200e304:	100d883a 	mov	r6,r2
 200e308:	2a95883a 	add	r10,r5,r10
 200e30c:	500b883a 	mov	r5,r10
 200e310:	180f883a 	mov	r7,r3
 200e314:	20059480 	call	2005948 <__divdf3>
 200e318:	dfc00217 	ldw	ra,8(sp)
 200e31c:	dec00304 	addi	sp,sp,12
 200e320:	f800283a 	ret
 200e324:	280a953a 	slli	r5,r5,20
 200e328:	6009883a 	mov	r4,r12
 200e32c:	100d883a 	mov	r6,r2
 200e330:	1947c83a 	sub	r3,r3,r5
 200e334:	180f883a 	mov	r7,r3
 200e338:	500b883a 	mov	r5,r10
 200e33c:	20059480 	call	2005948 <__divdf3>
 200e340:	dfc00217 	ldw	ra,8(sp)
 200e344:	dec00304 	addi	sp,sp,12
 200e348:	f800283a 	ret

0200e34c <_mprec_log10>:
 200e34c:	defffe04 	addi	sp,sp,-8
 200e350:	dc000015 	stw	r16,0(sp)
 200e354:	dfc00115 	stw	ra,4(sp)
 200e358:	008005c4 	movi	r2,23
 200e35c:	2021883a 	mov	r16,r4
 200e360:	11000d0e 	bge	r2,r4,200e398 <_mprec_log10+0x4c>
 200e364:	0005883a 	mov	r2,zero
 200e368:	00cffc34 	movhi	r3,16368
 200e36c:	843fffc4 	addi	r16,r16,-1
 200e370:	1009883a 	mov	r4,r2
 200e374:	180b883a 	mov	r5,r3
 200e378:	000d883a 	mov	r6,zero
 200e37c:	01d00934 	movhi	r7,16420
 200e380:	20062e40 	call	20062e4 <__muldf3>
 200e384:	803ff91e 	bne	r16,zero,200e36c <__reset+0xfe00536c>
 200e388:	dfc00117 	ldw	ra,4(sp)
 200e38c:	dc000017 	ldw	r16,0(sp)
 200e390:	dec00204 	addi	sp,sp,8
 200e394:	f800283a 	ret
 200e398:	202090fa 	slli	r16,r4,3
 200e39c:	008080b4 	movhi	r2,514
 200e3a0:	10bbec04 	addi	r2,r2,-4176
 200e3a4:	1421883a 	add	r16,r2,r16
 200e3a8:	80800017 	ldw	r2,0(r16)
 200e3ac:	80c00117 	ldw	r3,4(r16)
 200e3b0:	dfc00117 	ldw	ra,4(sp)
 200e3b4:	dc000017 	ldw	r16,0(sp)
 200e3b8:	dec00204 	addi	sp,sp,8
 200e3bc:	f800283a 	ret

0200e3c0 <__copybits>:
 200e3c0:	297fffc4 	addi	r5,r5,-1
 200e3c4:	2811d17a 	srai	r8,r5,5
 200e3c8:	31c00417 	ldw	r7,16(r6)
 200e3cc:	30800504 	addi	r2,r6,20
 200e3d0:	42000044 	addi	r8,r8,1
 200e3d4:	39cf883a 	add	r7,r7,r7
 200e3d8:	4211883a 	add	r8,r8,r8
 200e3dc:	39cf883a 	add	r7,r7,r7
 200e3e0:	4211883a 	add	r8,r8,r8
 200e3e4:	11cf883a 	add	r7,r2,r7
 200e3e8:	2211883a 	add	r8,r4,r8
 200e3ec:	11c00d2e 	bgeu	r2,r7,200e424 <__copybits+0x64>
 200e3f0:	2007883a 	mov	r3,r4
 200e3f4:	11400017 	ldw	r5,0(r2)
 200e3f8:	18c00104 	addi	r3,r3,4
 200e3fc:	10800104 	addi	r2,r2,4
 200e400:	197fff15 	stw	r5,-4(r3)
 200e404:	11fffb36 	bltu	r2,r7,200e3f4 <__reset+0xfe0053f4>
 200e408:	3985c83a 	sub	r2,r7,r6
 200e40c:	10bffac4 	addi	r2,r2,-21
 200e410:	1004d0ba 	srli	r2,r2,2
 200e414:	10800044 	addi	r2,r2,1
 200e418:	1085883a 	add	r2,r2,r2
 200e41c:	1085883a 	add	r2,r2,r2
 200e420:	2089883a 	add	r4,r4,r2
 200e424:	2200032e 	bgeu	r4,r8,200e434 <__copybits+0x74>
 200e428:	20000015 	stw	zero,0(r4)
 200e42c:	21000104 	addi	r4,r4,4
 200e430:	223ffd36 	bltu	r4,r8,200e428 <__reset+0xfe005428>
 200e434:	f800283a 	ret

0200e438 <__any_on>:
 200e438:	20800417 	ldw	r2,16(r4)
 200e43c:	2807d17a 	srai	r3,r5,5
 200e440:	21000504 	addi	r4,r4,20
 200e444:	10c00d0e 	bge	r2,r3,200e47c <__any_on+0x44>
 200e448:	1085883a 	add	r2,r2,r2
 200e44c:	1085883a 	add	r2,r2,r2
 200e450:	2085883a 	add	r2,r4,r2
 200e454:	2080182e 	bgeu	r4,r2,200e4b8 <__any_on+0x80>
 200e458:	10ffff17 	ldw	r3,-4(r2)
 200e45c:	10bfff04 	addi	r2,r2,-4
 200e460:	1800041e 	bne	r3,zero,200e474 <__any_on+0x3c>
 200e464:	2080142e 	bgeu	r4,r2,200e4b8 <__any_on+0x80>
 200e468:	10bfff04 	addi	r2,r2,-4
 200e46c:	10c00017 	ldw	r3,0(r2)
 200e470:	183ffc26 	beq	r3,zero,200e464 <__reset+0xfe005464>
 200e474:	00800044 	movi	r2,1
 200e478:	f800283a 	ret
 200e47c:	18800a0e 	bge	r3,r2,200e4a8 <__any_on+0x70>
 200e480:	18c7883a 	add	r3,r3,r3
 200e484:	18c7883a 	add	r3,r3,r3
 200e488:	294007cc 	andi	r5,r5,31
 200e48c:	20c5883a 	add	r2,r4,r3
 200e490:	283ff026 	beq	r5,zero,200e454 <__reset+0xfe005454>
 200e494:	10c00017 	ldw	r3,0(r2)
 200e498:	194cd83a 	srl	r6,r3,r5
 200e49c:	314a983a 	sll	r5,r6,r5
 200e4a0:	28fff41e 	bne	r5,r3,200e474 <__reset+0xfe005474>
 200e4a4:	003feb06 	br	200e454 <__reset+0xfe005454>
 200e4a8:	18c7883a 	add	r3,r3,r3
 200e4ac:	18c7883a 	add	r3,r3,r3
 200e4b0:	20c5883a 	add	r2,r4,r3
 200e4b4:	003fe706 	br	200e454 <__reset+0xfe005454>
 200e4b8:	0005883a 	mov	r2,zero
 200e4bc:	f800283a 	ret

0200e4c0 <_read_r>:
 200e4c0:	defffd04 	addi	sp,sp,-12
 200e4c4:	dc400115 	stw	r17,4(sp)
 200e4c8:	dc000015 	stw	r16,0(sp)
 200e4cc:	2023883a 	mov	r17,r4
 200e4d0:	040080b4 	movhi	r16,514
 200e4d4:	84037904 	addi	r16,r16,3556
 200e4d8:	2809883a 	mov	r4,r5
 200e4dc:	300b883a 	mov	r5,r6
 200e4e0:	380d883a 	mov	r6,r7
 200e4e4:	dfc00215 	stw	ra,8(sp)
 200e4e8:	80000015 	stw	zero,0(r16)
 200e4ec:	20131200 	call	2013120 <read>
 200e4f0:	00ffffc4 	movi	r3,-1
 200e4f4:	10c00526 	beq	r2,r3,200e50c <_read_r+0x4c>
 200e4f8:	dfc00217 	ldw	ra,8(sp)
 200e4fc:	dc400117 	ldw	r17,4(sp)
 200e500:	dc000017 	ldw	r16,0(sp)
 200e504:	dec00304 	addi	sp,sp,12
 200e508:	f800283a 	ret
 200e50c:	80c00017 	ldw	r3,0(r16)
 200e510:	183ff926 	beq	r3,zero,200e4f8 <__reset+0xfe0054f8>
 200e514:	88c00015 	stw	r3,0(r17)
 200e518:	dfc00217 	ldw	ra,8(sp)
 200e51c:	dc400117 	ldw	r17,4(sp)
 200e520:	dc000017 	ldw	r16,0(sp)
 200e524:	dec00304 	addi	sp,sp,12
 200e528:	f800283a 	ret

0200e52c <__fpclassifyd>:
 200e52c:	00a00034 	movhi	r2,32768
 200e530:	10bfffc4 	addi	r2,r2,-1
 200e534:	288a703a 	and	r5,r5,r2
 200e538:	28000726 	beq	r5,zero,200e558 <__fpclassifyd+0x2c>
 200e53c:	00bffc34 	movhi	r2,65520
 200e540:	2885883a 	add	r2,r5,r2
 200e544:	00dff834 	movhi	r3,32736
 200e548:	18ffffc4 	addi	r3,r3,-1
 200e54c:	18800636 	bltu	r3,r2,200e568 <__fpclassifyd+0x3c>
 200e550:	00800104 	movi	r2,4
 200e554:	f800283a 	ret
 200e558:	2005003a 	cmpeq	r2,r4,zero
 200e55c:	00c000c4 	movi	r3,3
 200e560:	1885c83a 	sub	r2,r3,r2
 200e564:	f800283a 	ret
 200e568:	00800434 	movhi	r2,16
 200e56c:	10bfffc4 	addi	r2,r2,-1
 200e570:	11400236 	bltu	r2,r5,200e57c <__fpclassifyd+0x50>
 200e574:	008000c4 	movi	r2,3
 200e578:	f800283a 	ret
 200e57c:	009ffc34 	movhi	r2,32752
 200e580:	28800226 	beq	r5,r2,200e58c <__fpclassifyd+0x60>
 200e584:	0005883a 	mov	r2,zero
 200e588:	f800283a 	ret
 200e58c:	2005003a 	cmpeq	r2,r4,zero
 200e590:	f800283a 	ret

0200e594 <strcmp>:
 200e594:	2144b03a 	or	r2,r4,r5
 200e598:	108000cc 	andi	r2,r2,3
 200e59c:	1000171e 	bne	r2,zero,200e5fc <strcmp+0x68>
 200e5a0:	20800017 	ldw	r2,0(r4)
 200e5a4:	28c00017 	ldw	r3,0(r5)
 200e5a8:	10c0141e 	bne	r2,r3,200e5fc <strcmp+0x68>
 200e5ac:	027fbff4 	movhi	r9,65279
 200e5b0:	4a7fbfc4 	addi	r9,r9,-257
 200e5b4:	1247883a 	add	r3,r2,r9
 200e5b8:	0084303a 	nor	r2,zero,r2
 200e5bc:	1884703a 	and	r2,r3,r2
 200e5c0:	02202074 	movhi	r8,32897
 200e5c4:	42202004 	addi	r8,r8,-32640
 200e5c8:	1204703a 	and	r2,r2,r8
 200e5cc:	10000226 	beq	r2,zero,200e5d8 <strcmp+0x44>
 200e5d0:	00001706 	br	200e630 <strcmp+0x9c>
 200e5d4:	3000161e 	bne	r6,zero,200e630 <strcmp+0x9c>
 200e5d8:	21000104 	addi	r4,r4,4
 200e5dc:	20800017 	ldw	r2,0(r4)
 200e5e0:	29400104 	addi	r5,r5,4
 200e5e4:	28c00017 	ldw	r3,0(r5)
 200e5e8:	124f883a 	add	r7,r2,r9
 200e5ec:	008c303a 	nor	r6,zero,r2
 200e5f0:	398c703a 	and	r6,r7,r6
 200e5f4:	320c703a 	and	r6,r6,r8
 200e5f8:	10fff626 	beq	r2,r3,200e5d4 <__reset+0xfe0055d4>
 200e5fc:	20800007 	ldb	r2,0(r4)
 200e600:	1000051e 	bne	r2,zero,200e618 <strcmp+0x84>
 200e604:	00000606 	br	200e620 <strcmp+0x8c>
 200e608:	21000044 	addi	r4,r4,1
 200e60c:	20800007 	ldb	r2,0(r4)
 200e610:	29400044 	addi	r5,r5,1
 200e614:	10000226 	beq	r2,zero,200e620 <strcmp+0x8c>
 200e618:	28c00007 	ldb	r3,0(r5)
 200e61c:	10fffa26 	beq	r2,r3,200e608 <__reset+0xfe005608>
 200e620:	20c00003 	ldbu	r3,0(r4)
 200e624:	28800003 	ldbu	r2,0(r5)
 200e628:	1885c83a 	sub	r2,r3,r2
 200e62c:	f800283a 	ret
 200e630:	0005883a 	mov	r2,zero
 200e634:	f800283a 	ret

0200e638 <strlen>:
 200e638:	208000cc 	andi	r2,r4,3
 200e63c:	10001d26 	beq	r2,zero,200e6b4 <strlen+0x7c>
 200e640:	20800007 	ldb	r2,0(r4)
 200e644:	10001d26 	beq	r2,zero,200e6bc <strlen+0x84>
 200e648:	2005883a 	mov	r2,r4
 200e64c:	00000206 	br	200e658 <strlen+0x20>
 200e650:	10c00007 	ldb	r3,0(r2)
 200e654:	18001526 	beq	r3,zero,200e6ac <strlen+0x74>
 200e658:	10800044 	addi	r2,r2,1
 200e65c:	10c000cc 	andi	r3,r2,3
 200e660:	183ffb1e 	bne	r3,zero,200e650 <__reset+0xfe005650>
 200e664:	10c00017 	ldw	r3,0(r2)
 200e668:	01ffbff4 	movhi	r7,65279
 200e66c:	39ffbfc4 	addi	r7,r7,-257
 200e670:	01a02074 	movhi	r6,32897
 200e674:	31a02004 	addi	r6,r6,-32640
 200e678:	00000206 	br	200e684 <strlen+0x4c>
 200e67c:	10800104 	addi	r2,r2,4
 200e680:	10c00017 	ldw	r3,0(r2)
 200e684:	19cb883a 	add	r5,r3,r7
 200e688:	00c6303a 	nor	r3,zero,r3
 200e68c:	28c6703a 	and	r3,r5,r3
 200e690:	1986703a 	and	r3,r3,r6
 200e694:	183ff926 	beq	r3,zero,200e67c <__reset+0xfe00567c>
 200e698:	10c00007 	ldb	r3,0(r2)
 200e69c:	18000326 	beq	r3,zero,200e6ac <strlen+0x74>
 200e6a0:	10800044 	addi	r2,r2,1
 200e6a4:	10c00007 	ldb	r3,0(r2)
 200e6a8:	183ffd1e 	bne	r3,zero,200e6a0 <__reset+0xfe0056a0>
 200e6ac:	1105c83a 	sub	r2,r2,r4
 200e6b0:	f800283a 	ret
 200e6b4:	2005883a 	mov	r2,r4
 200e6b8:	003fea06 	br	200e664 <__reset+0xfe005664>
 200e6bc:	0005883a 	mov	r2,zero
 200e6c0:	f800283a 	ret

0200e6c4 <__sprint_r.part.0>:
 200e6c4:	28801917 	ldw	r2,100(r5)
 200e6c8:	defff604 	addi	sp,sp,-40
 200e6cc:	dd800615 	stw	r22,24(sp)
 200e6d0:	dcc00315 	stw	r19,12(sp)
 200e6d4:	dfc00915 	stw	ra,36(sp)
 200e6d8:	df000815 	stw	fp,32(sp)
 200e6dc:	ddc00715 	stw	r23,28(sp)
 200e6e0:	dd400515 	stw	r21,20(sp)
 200e6e4:	dd000415 	stw	r20,16(sp)
 200e6e8:	dc800215 	stw	r18,8(sp)
 200e6ec:	dc400115 	stw	r17,4(sp)
 200e6f0:	dc000015 	stw	r16,0(sp)
 200e6f4:	1088000c 	andi	r2,r2,8192
 200e6f8:	2827883a 	mov	r19,r5
 200e6fc:	302d883a 	mov	r22,r6
 200e700:	10002d26 	beq	r2,zero,200e7b8 <__sprint_r.part.0+0xf4>
 200e704:	30800217 	ldw	r2,8(r6)
 200e708:	35c00017 	ldw	r23,0(r6)
 200e70c:	10002826 	beq	r2,zero,200e7b0 <__sprint_r.part.0+0xec>
 200e710:	202b883a 	mov	r21,r4
 200e714:	bf000104 	addi	fp,r23,4
 200e718:	053fffc4 	movi	r20,-1
 200e71c:	e4800017 	ldw	r18,0(fp)
 200e720:	bc400017 	ldw	r17,0(r23)
 200e724:	0021883a 	mov	r16,zero
 200e728:	9024d0ba 	srli	r18,r18,2
 200e72c:	04800316 	blt	zero,r18,200e73c <__sprint_r.part.0+0x78>
 200e730:	00001806 	br	200e794 <__sprint_r.part.0+0xd0>
 200e734:	8c400104 	addi	r17,r17,4
 200e738:	94001526 	beq	r18,r16,200e790 <__sprint_r.part.0+0xcc>
 200e73c:	89400017 	ldw	r5,0(r17)
 200e740:	a809883a 	mov	r4,r21
 200e744:	980d883a 	mov	r6,r19
 200e748:	200fc440 	call	200fc44 <_fputwc_r>
 200e74c:	84000044 	addi	r16,r16,1
 200e750:	153ff81e 	bne	r2,r20,200e734 <__reset+0xfe005734>
 200e754:	a005883a 	mov	r2,r20
 200e758:	b0000215 	stw	zero,8(r22)
 200e75c:	b0000115 	stw	zero,4(r22)
 200e760:	dfc00917 	ldw	ra,36(sp)
 200e764:	df000817 	ldw	fp,32(sp)
 200e768:	ddc00717 	ldw	r23,28(sp)
 200e76c:	dd800617 	ldw	r22,24(sp)
 200e770:	dd400517 	ldw	r21,20(sp)
 200e774:	dd000417 	ldw	r20,16(sp)
 200e778:	dcc00317 	ldw	r19,12(sp)
 200e77c:	dc800217 	ldw	r18,8(sp)
 200e780:	dc400117 	ldw	r17,4(sp)
 200e784:	dc000017 	ldw	r16,0(sp)
 200e788:	dec00a04 	addi	sp,sp,40
 200e78c:	f800283a 	ret
 200e790:	b0800217 	ldw	r2,8(r22)
 200e794:	94a5883a 	add	r18,r18,r18
 200e798:	94a5883a 	add	r18,r18,r18
 200e79c:	1485c83a 	sub	r2,r2,r18
 200e7a0:	b0800215 	stw	r2,8(r22)
 200e7a4:	bdc00204 	addi	r23,r23,8
 200e7a8:	e7000204 	addi	fp,fp,8
 200e7ac:	103fdb1e 	bne	r2,zero,200e71c <__reset+0xfe00571c>
 200e7b0:	0005883a 	mov	r2,zero
 200e7b4:	003fe806 	br	200e758 <__reset+0xfe005758>
 200e7b8:	200fea80 	call	200fea8 <__sfvwrite_r>
 200e7bc:	003fe606 	br	200e758 <__reset+0xfe005758>

0200e7c0 <__sprint_r>:
 200e7c0:	30c00217 	ldw	r3,8(r6)
 200e7c4:	18000126 	beq	r3,zero,200e7cc <__sprint_r+0xc>
 200e7c8:	200e6c41 	jmpi	200e6c4 <__sprint_r.part.0>
 200e7cc:	30000115 	stw	zero,4(r6)
 200e7d0:	0005883a 	mov	r2,zero
 200e7d4:	f800283a 	ret

0200e7d8 <___vfiprintf_internal_r>:
 200e7d8:	defec804 	addi	sp,sp,-1248
 200e7dc:	dfc13715 	stw	ra,1244(sp)
 200e7e0:	df013615 	stw	fp,1240(sp)
 200e7e4:	ddc13515 	stw	r23,1236(sp)
 200e7e8:	dd813415 	stw	r22,1232(sp)
 200e7ec:	dd413315 	stw	r21,1228(sp)
 200e7f0:	dd013215 	stw	r20,1224(sp)
 200e7f4:	dcc13115 	stw	r19,1220(sp)
 200e7f8:	dc813015 	stw	r18,1216(sp)
 200e7fc:	dc412f15 	stw	r17,1212(sp)
 200e800:	dc012e15 	stw	r16,1208(sp)
 200e804:	d9012215 	stw	r4,1160(sp)
 200e808:	d9412015 	stw	r5,1152(sp)
 200e80c:	d9c12315 	stw	r7,1164(sp)
 200e810:	3013883a 	mov	r9,r6
 200e814:	20000226 	beq	r4,zero,200e820 <___vfiprintf_internal_r+0x48>
 200e818:	20800e17 	ldw	r2,56(r4)
 200e81c:	1000f926 	beq	r2,zero,200ec04 <___vfiprintf_internal_r+0x42c>
 200e820:	d8c12017 	ldw	r3,1152(sp)
 200e824:	1880030b 	ldhu	r2,12(r3)
 200e828:	1108000c 	andi	r4,r2,8192
 200e82c:	1007883a 	mov	r3,r2
 200e830:	2000081e 	bne	r4,zero,200e854 <___vfiprintf_internal_r+0x7c>
 200e834:	d9412017 	ldw	r5,1152(sp)
 200e838:	10c80014 	ori	r3,r2,8192
 200e83c:	00b7ffc4 	movi	r2,-8193
 200e840:	29001917 	ldw	r4,100(r5)
 200e844:	28c0030d 	sth	r3,12(r5)
 200e848:	2088703a 	and	r4,r4,r2
 200e84c:	29001915 	stw	r4,100(r5)
 200e850:	1805883a 	mov	r2,r3
 200e854:	1900020c 	andi	r4,r3,8
 200e858:	2000a726 	beq	r4,zero,200eaf8 <___vfiprintf_internal_r+0x320>
 200e85c:	d9412017 	ldw	r5,1152(sp)
 200e860:	29000417 	ldw	r4,16(r5)
 200e864:	2000a426 	beq	r4,zero,200eaf8 <___vfiprintf_internal_r+0x320>
 200e868:	18c0068c 	andi	r3,r3,26
 200e86c:	01000284 	movi	r4,10
 200e870:	1900ad26 	beq	r3,r4,200eb28 <___vfiprintf_internal_r+0x350>
 200e874:	d90109c4 	addi	r4,sp,1063
 200e878:	d9410a04 	addi	r5,sp,1064
 200e87c:	2905c83a 	sub	r2,r5,r4
 200e880:	d9011e15 	stw	r4,1144(sp)
 200e884:	d9411f15 	stw	r5,1148(sp)
 200e888:	dec11a15 	stw	sp,1128(sp)
 200e88c:	d8011c15 	stw	zero,1136(sp)
 200e890:	d8011b15 	stw	zero,1132(sp)
 200e894:	d8012715 	stw	zero,1180(sp)
 200e898:	d8012415 	stw	zero,1168(sp)
 200e89c:	d811883a 	mov	r8,sp
 200e8a0:	04c080b4 	movhi	r19,514
 200e8a4:	9cfc2204 	addi	r19,r19,-3960
 200e8a8:	040080b4 	movhi	r16,514
 200e8ac:	843c1e04 	addi	r16,r16,-3976
 200e8b0:	d8812815 	stw	r2,1184(sp)
 200e8b4:	48800007 	ldb	r2,0(r9)
 200e8b8:	10040126 	beq	r2,zero,200f8c0 <___vfiprintf_internal_r+0x10e8>
 200e8bc:	00c00944 	movi	r3,37
 200e8c0:	4829883a 	mov	r20,r9
 200e8c4:	10c0021e 	bne	r2,r3,200e8d0 <___vfiprintf_internal_r+0xf8>
 200e8c8:	00001606 	br	200e924 <___vfiprintf_internal_r+0x14c>
 200e8cc:	10c00326 	beq	r2,r3,200e8dc <___vfiprintf_internal_r+0x104>
 200e8d0:	a5000044 	addi	r20,r20,1
 200e8d4:	a0800007 	ldb	r2,0(r20)
 200e8d8:	103ffc1e 	bne	r2,zero,200e8cc <__reset+0xfe0058cc>
 200e8dc:	a263c83a 	sub	r17,r20,r9
 200e8e0:	88001026 	beq	r17,zero,200e924 <___vfiprintf_internal_r+0x14c>
 200e8e4:	d8c11c17 	ldw	r3,1136(sp)
 200e8e8:	d8811b17 	ldw	r2,1132(sp)
 200e8ec:	42400015 	stw	r9,0(r8)
 200e8f0:	88c7883a 	add	r3,r17,r3
 200e8f4:	10800044 	addi	r2,r2,1
 200e8f8:	44400115 	stw	r17,4(r8)
 200e8fc:	d8c11c15 	stw	r3,1136(sp)
 200e900:	d8811b15 	stw	r2,1132(sp)
 200e904:	010001c4 	movi	r4,7
 200e908:	2080760e 	bge	r4,r2,200eae4 <___vfiprintf_internal_r+0x30c>
 200e90c:	1803b41e 	bne	r3,zero,200f7e0 <___vfiprintf_internal_r+0x1008>
 200e910:	d8c12417 	ldw	r3,1168(sp)
 200e914:	d8011b15 	stw	zero,1132(sp)
 200e918:	d811883a 	mov	r8,sp
 200e91c:	1c47883a 	add	r3,r3,r17
 200e920:	d8c12415 	stw	r3,1168(sp)
 200e924:	a0800007 	ldb	r2,0(r20)
 200e928:	1002dc26 	beq	r2,zero,200f49c <___vfiprintf_internal_r+0xcc4>
 200e92c:	04bfffc4 	movi	r18,-1
 200e930:	a2400044 	addi	r9,r20,1
 200e934:	a0c00047 	ldb	r3,1(r20)
 200e938:	d8011d85 	stb	zero,1142(sp)
 200e93c:	002d883a 	mov	r22,zero
 200e940:	d8012115 	stw	zero,1156(sp)
 200e944:	0023883a 	mov	r17,zero
 200e948:	05001604 	movi	r20,88
 200e94c:	05400244 	movi	r21,9
 200e950:	402f883a 	mov	r23,r8
 200e954:	900d883a 	mov	r6,r18
 200e958:	4a400044 	addi	r9,r9,1
 200e95c:	18bff804 	addi	r2,r3,-32
 200e960:	a0828736 	bltu	r20,r2,200f380 <___vfiprintf_internal_r+0xba8>
 200e964:	1085883a 	add	r2,r2,r2
 200e968:	1085883a 	add	r2,r2,r2
 200e96c:	01008074 	movhi	r4,513
 200e970:	213a6004 	addi	r4,r4,-5760
 200e974:	1105883a 	add	r2,r2,r4
 200e978:	10800017 	ldw	r2,0(r2)
 200e97c:	1000683a 	jmp	r2
 200e980:	0200f0e0 	cmpeqi	r8,zero,963
 200e984:	0200f380 	call	200f38 <__alt_mem_sdram_controller-0x1dff0c8>
 200e988:	0200f380 	call	200f38 <__alt_mem_sdram_controller-0x1dff0c8>
 200e98c:	0200f0fc 	xorhi	r8,zero,963
 200e990:	0200f380 	call	200f38 <__alt_mem_sdram_controller-0x1dff0c8>
 200e994:	0200f380 	call	200f38 <__alt_mem_sdram_controller-0x1dff0c8>
 200e998:	0200f380 	call	200f38 <__alt_mem_sdram_controller-0x1dff0c8>
 200e99c:	0200f380 	call	200f38 <__alt_mem_sdram_controller-0x1dff0c8>
 200e9a0:	0200f380 	call	200f38 <__alt_mem_sdram_controller-0x1dff0c8>
 200e9a4:	0200f380 	call	200f38 <__alt_mem_sdram_controller-0x1dff0c8>
 200e9a8:	0200f190 	cmplti	r8,zero,966
 200e9ac:	0200f1b8 	rdprs	r8,zero,966
 200e9b0:	0200f380 	call	200f38 <__alt_mem_sdram_controller-0x1dff0c8>
 200e9b4:	0200ec24 	muli	r8,zero,944
 200e9b8:	0200f1c4 	movi	r8,967
 200e9bc:	0200f380 	call	200f38 <__alt_mem_sdram_controller-0x1dff0c8>
 200e9c0:	0200ec30 	cmpltui	r8,zero,944
 200e9c4:	0200ec3c 	xorhi	r8,zero,944
 200e9c8:	0200ec3c 	xorhi	r8,zero,944
 200e9cc:	0200ec3c 	xorhi	r8,zero,944
 200e9d0:	0200ec3c 	xorhi	r8,zero,944
 200e9d4:	0200ec3c 	xorhi	r8,zero,944
 200e9d8:	0200ec3c 	xorhi	r8,zero,944
 200e9dc:	0200ec3c 	xorhi	r8,zero,944
 200e9e0:	0200ec3c 	xorhi	r8,zero,944
 200e9e4:	0200ec3c 	xorhi	r8,zero,944
 200e9e8:	0200f380 	call	200f38 <__alt_mem_sdram_controller-0x1dff0c8>
 200e9ec:	0200f380 	call	200f38 <__alt_mem_sdram_controller-0x1dff0c8>
 200e9f0:	0200f380 	call	200f38 <__alt_mem_sdram_controller-0x1dff0c8>
 200e9f4:	0200f380 	call	200f38 <__alt_mem_sdram_controller-0x1dff0c8>
 200e9f8:	0200f380 	call	200f38 <__alt_mem_sdram_controller-0x1dff0c8>
 200e9fc:	0200f380 	call	200f38 <__alt_mem_sdram_controller-0x1dff0c8>
 200ea00:	0200f380 	call	200f38 <__alt_mem_sdram_controller-0x1dff0c8>
 200ea04:	0200f380 	call	200f38 <__alt_mem_sdram_controller-0x1dff0c8>
 200ea08:	0200f380 	call	200f38 <__alt_mem_sdram_controller-0x1dff0c8>
 200ea0c:	0200f380 	call	200f38 <__alt_mem_sdram_controller-0x1dff0c8>
 200ea10:	0200ec84 	movi	r8,946
 200ea14:	0200f380 	call	200f38 <__alt_mem_sdram_controller-0x1dff0c8>
 200ea18:	0200f380 	call	200f38 <__alt_mem_sdram_controller-0x1dff0c8>
 200ea1c:	0200f380 	call	200f38 <__alt_mem_sdram_controller-0x1dff0c8>
 200ea20:	0200f380 	call	200f38 <__alt_mem_sdram_controller-0x1dff0c8>
 200ea24:	0200f380 	call	200f38 <__alt_mem_sdram_controller-0x1dff0c8>
 200ea28:	0200f380 	call	200f38 <__alt_mem_sdram_controller-0x1dff0c8>
 200ea2c:	0200f380 	call	200f38 <__alt_mem_sdram_controller-0x1dff0c8>
 200ea30:	0200f380 	call	200f38 <__alt_mem_sdram_controller-0x1dff0c8>
 200ea34:	0200f380 	call	200f38 <__alt_mem_sdram_controller-0x1dff0c8>
 200ea38:	0200f380 	call	200f38 <__alt_mem_sdram_controller-0x1dff0c8>
 200ea3c:	0200efd8 	cmpnei	r8,zero,959
 200ea40:	0200f380 	call	200f38 <__alt_mem_sdram_controller-0x1dff0c8>
 200ea44:	0200f380 	call	200f38 <__alt_mem_sdram_controller-0x1dff0c8>
 200ea48:	0200f380 	call	200f38 <__alt_mem_sdram_controller-0x1dff0c8>
 200ea4c:	0200f380 	call	200f38 <__alt_mem_sdram_controller-0x1dff0c8>
 200ea50:	0200f380 	call	200f38 <__alt_mem_sdram_controller-0x1dff0c8>
 200ea54:	0200f01c 	xori	r8,zero,960
 200ea58:	0200f380 	call	200f38 <__alt_mem_sdram_controller-0x1dff0c8>
 200ea5c:	0200f380 	call	200f38 <__alt_mem_sdram_controller-0x1dff0c8>
 200ea60:	0200f054 	movui	r8,961
 200ea64:	0200f380 	call	200f38 <__alt_mem_sdram_controller-0x1dff0c8>
 200ea68:	0200f380 	call	200f38 <__alt_mem_sdram_controller-0x1dff0c8>
 200ea6c:	0200f380 	call	200f38 <__alt_mem_sdram_controller-0x1dff0c8>
 200ea70:	0200f380 	call	200f38 <__alt_mem_sdram_controller-0x1dff0c8>
 200ea74:	0200f380 	call	200f38 <__alt_mem_sdram_controller-0x1dff0c8>
 200ea78:	0200f380 	call	200f38 <__alt_mem_sdram_controller-0x1dff0c8>
 200ea7c:	0200f380 	call	200f38 <__alt_mem_sdram_controller-0x1dff0c8>
 200ea80:	0200f380 	call	200f38 <__alt_mem_sdram_controller-0x1dff0c8>
 200ea84:	0200f380 	call	200f38 <__alt_mem_sdram_controller-0x1dff0c8>
 200ea88:	0200f380 	call	200f38 <__alt_mem_sdram_controller-0x1dff0c8>
 200ea8c:	0200f0b0 	cmpltui	r8,zero,962
 200ea90:	0200f224 	muli	r8,zero,968
 200ea94:	0200f380 	call	200f38 <__alt_mem_sdram_controller-0x1dff0c8>
 200ea98:	0200f380 	call	200f38 <__alt_mem_sdram_controller-0x1dff0c8>
 200ea9c:	0200f380 	call	200f38 <__alt_mem_sdram_controller-0x1dff0c8>
 200eaa0:	0200f218 	cmpnei	r8,zero,968
 200eaa4:	0200f224 	muli	r8,zero,968
 200eaa8:	0200f380 	call	200f38 <__alt_mem_sdram_controller-0x1dff0c8>
 200eaac:	0200f380 	call	200f38 <__alt_mem_sdram_controller-0x1dff0c8>
 200eab0:	0200f108 	cmpgei	r8,zero,964
 200eab4:	0200f380 	call	200f38 <__alt_mem_sdram_controller-0x1dff0c8>
 200eab8:	0200f120 	cmpeqi	r8,zero,964
 200eabc:	0200f158 	cmpnei	r8,zero,965
 200eac0:	0200f338 	rdprs	r8,zero,972
 200eac4:	0200f25c 	xori	r8,zero,969
 200eac8:	0200f380 	call	200f38 <__alt_mem_sdram_controller-0x1dff0c8>
 200eacc:	0200f268 	cmpgeui	r8,zero,969
 200ead0:	0200f380 	call	200f38 <__alt_mem_sdram_controller-0x1dff0c8>
 200ead4:	0200f2c0 	call	200f2c <__alt_mem_sdram_controller-0x1dff0d4>
 200ead8:	0200f380 	call	200f38 <__alt_mem_sdram_controller-0x1dff0c8>
 200eadc:	0200f380 	call	200f38 <__alt_mem_sdram_controller-0x1dff0c8>
 200eae0:	0200f2f8 	rdprs	r8,zero,971
 200eae4:	42000204 	addi	r8,r8,8
 200eae8:	d8c12417 	ldw	r3,1168(sp)
 200eaec:	1c47883a 	add	r3,r3,r17
 200eaf0:	d8c12415 	stw	r3,1168(sp)
 200eaf4:	003f8b06 	br	200e924 <__reset+0xfe005924>
 200eaf8:	d9012217 	ldw	r4,1160(sp)
 200eafc:	d9412017 	ldw	r5,1152(sp)
 200eb00:	da412d15 	stw	r9,1204(sp)
 200eb04:	200b5800 	call	200b580 <__swsetup_r>
 200eb08:	da412d17 	ldw	r9,1204(sp)
 200eb0c:	1000301e 	bne	r2,zero,200ebd0 <___vfiprintf_internal_r+0x3f8>
 200eb10:	d8c12017 	ldw	r3,1152(sp)
 200eb14:	01000284 	movi	r4,10
 200eb18:	1880030b 	ldhu	r2,12(r3)
 200eb1c:	1007883a 	mov	r3,r2
 200eb20:	18c0068c 	andi	r3,r3,26
 200eb24:	193f531e 	bne	r3,r4,200e874 <__reset+0xfe005874>
 200eb28:	d9012017 	ldw	r4,1152(sp)
 200eb2c:	20c0038b 	ldhu	r3,14(r4)
 200eb30:	193fffcc 	andi	r4,r3,65535
 200eb34:	2120001c 	xori	r4,r4,32768
 200eb38:	21200004 	addi	r4,r4,-32768
 200eb3c:	203f4d16 	blt	r4,zero,200e874 <__reset+0xfe005874>
 200eb40:	d9412017 	ldw	r5,1152(sp)
 200eb44:	d9012217 	ldw	r4,1160(sp)
 200eb48:	d9c12317 	ldw	r7,1164(sp)
 200eb4c:	2b001917 	ldw	r12,100(r5)
 200eb50:	2ac00717 	ldw	r11,28(r5)
 200eb54:	2a800917 	ldw	r10,36(r5)
 200eb58:	02010004 	movi	r8,1024
 200eb5c:	10bfff4c 	andi	r2,r2,65533
 200eb60:	da0b883a 	add	r5,sp,r8
 200eb64:	480d883a 	mov	r6,r9
 200eb68:	d881030d 	sth	r2,1036(sp)
 200eb6c:	db011915 	stw	r12,1124(sp)
 200eb70:	d8c1038d 	sth	r3,1038(sp)
 200eb74:	dac10715 	stw	r11,1052(sp)
 200eb78:	da810915 	stw	r10,1060(sp)
 200eb7c:	dec10015 	stw	sp,1024(sp)
 200eb80:	dec10415 	stw	sp,1040(sp)
 200eb84:	da010215 	stw	r8,1032(sp)
 200eb88:	da010515 	stw	r8,1044(sp)
 200eb8c:	d8010615 	stw	zero,1048(sp)
 200eb90:	200e7d80 	call	200e7d8 <___vfiprintf_internal_r>
 200eb94:	1021883a 	mov	r16,r2
 200eb98:	10000416 	blt	r2,zero,200ebac <___vfiprintf_internal_r+0x3d4>
 200eb9c:	d9012217 	ldw	r4,1160(sp)
 200eba0:	d9410004 	addi	r5,sp,1024
 200eba4:	2006ff00 	call	2006ff0 <_fflush_r>
 200eba8:	10040b1e 	bne	r2,zero,200fbd8 <___vfiprintf_internal_r+0x1400>
 200ebac:	d881030b 	ldhu	r2,1036(sp)
 200ebb0:	1080100c 	andi	r2,r2,64
 200ebb4:	10000426 	beq	r2,zero,200ebc8 <___vfiprintf_internal_r+0x3f0>
 200ebb8:	d8c12017 	ldw	r3,1152(sp)
 200ebbc:	1880030b 	ldhu	r2,12(r3)
 200ebc0:	10801014 	ori	r2,r2,64
 200ebc4:	1880030d 	sth	r2,12(r3)
 200ebc8:	8005883a 	mov	r2,r16
 200ebcc:	00000106 	br	200ebd4 <___vfiprintf_internal_r+0x3fc>
 200ebd0:	00bfffc4 	movi	r2,-1
 200ebd4:	dfc13717 	ldw	ra,1244(sp)
 200ebd8:	df013617 	ldw	fp,1240(sp)
 200ebdc:	ddc13517 	ldw	r23,1236(sp)
 200ebe0:	dd813417 	ldw	r22,1232(sp)
 200ebe4:	dd413317 	ldw	r21,1228(sp)
 200ebe8:	dd013217 	ldw	r20,1224(sp)
 200ebec:	dcc13117 	ldw	r19,1220(sp)
 200ebf0:	dc813017 	ldw	r18,1216(sp)
 200ebf4:	dc412f17 	ldw	r17,1212(sp)
 200ebf8:	dc012e17 	ldw	r16,1208(sp)
 200ebfc:	dec13804 	addi	sp,sp,1248
 200ec00:	f800283a 	ret
 200ec04:	d9812d15 	stw	r6,1204(sp)
 200ec08:	20073100 	call	2007310 <__sinit>
 200ec0c:	da412d17 	ldw	r9,1204(sp)
 200ec10:	003f0306 	br	200e820 <__reset+0xfe005820>
 200ec14:	d9412117 	ldw	r5,1156(sp)
 200ec18:	d8812315 	stw	r2,1164(sp)
 200ec1c:	014bc83a 	sub	r5,zero,r5
 200ec20:	d9412115 	stw	r5,1156(sp)
 200ec24:	8c400114 	ori	r17,r17,4
 200ec28:	48c00007 	ldb	r3,0(r9)
 200ec2c:	003f4a06 	br	200e958 <__reset+0xfe005958>
 200ec30:	8c402014 	ori	r17,r17,128
 200ec34:	48c00007 	ldb	r3,0(r9)
 200ec38:	003f4706 	br	200e958 <__reset+0xfe005958>
 200ec3c:	4825883a 	mov	r18,r9
 200ec40:	d8012115 	stw	zero,1156(sp)
 200ec44:	1f3ff404 	addi	fp,r3,-48
 200ec48:	00000106 	br	200ec50 <___vfiprintf_internal_r+0x478>
 200ec4c:	1025883a 	mov	r18,r2
 200ec50:	d9012117 	ldw	r4,1156(sp)
 200ec54:	01400284 	movi	r5,10
 200ec58:	d9812b15 	stw	r6,1196(sp)
 200ec5c:	20059200 	call	2005920 <__mulsi3>
 200ec60:	90c00007 	ldb	r3,0(r18)
 200ec64:	1739883a 	add	fp,r2,fp
 200ec68:	df012115 	stw	fp,1156(sp)
 200ec6c:	90800044 	addi	r2,r18,1
 200ec70:	1f3ff404 	addi	fp,r3,-48
 200ec74:	1013883a 	mov	r9,r2
 200ec78:	d9812b17 	ldw	r6,1196(sp)
 200ec7c:	af3ff32e 	bgeu	r21,fp,200ec4c <__reset+0xfe005c4c>
 200ec80:	003f3606 	br	200e95c <__reset+0xfe00595c>
 200ec84:	8c400414 	ori	r17,r17,16
 200ec88:	dd811d85 	stb	r22,1142(sp)
 200ec8c:	8880080c 	andi	r2,r17,32
 200ec90:	b811883a 	mov	r8,r23
 200ec94:	3025883a 	mov	r18,r6
 200ec98:	10016726 	beq	r2,zero,200f238 <___vfiprintf_internal_r+0xa60>
 200ec9c:	d8c12317 	ldw	r3,1164(sp)
 200eca0:	18800117 	ldw	r2,4(r3)
 200eca4:	1d000017 	ldw	r20,0(r3)
 200eca8:	18c00204 	addi	r3,r3,8
 200ecac:	d8c12315 	stw	r3,1164(sp)
 200ecb0:	102b883a 	mov	r21,r2
 200ecb4:	10030416 	blt	r2,zero,200f8c8 <___vfiprintf_internal_r+0x10f0>
 200ecb8:	dd811d83 	ldbu	r22,1142(sp)
 200ecbc:	900f883a 	mov	r7,r18
 200ecc0:	00800044 	movi	r2,1
 200ecc4:	a548b03a 	or	r4,r20,r21
 200ecc8:	90000216 	blt	r18,zero,200ecd4 <___vfiprintf_internal_r+0x4fc>
 200eccc:	00ffdfc4 	movi	r3,-129
 200ecd0:	88e2703a 	and	r17,r17,r3
 200ecd4:	10803fcc 	andi	r2,r2,255
 200ecd8:	2001db1e 	bne	r4,zero,200f448 <___vfiprintf_internal_r+0xc70>
 200ecdc:	9001da1e 	bne	r18,zero,200f448 <___vfiprintf_internal_r+0xc70>
 200ece0:	1002ab1e 	bne	r2,zero,200f790 <___vfiprintf_internal_r+0xfb8>
 200ece4:	8880004c 	andi	r2,r17,1
 200ece8:	1002a926 	beq	r2,zero,200f790 <___vfiprintf_internal_r+0xfb8>
 200ecec:	d9c12817 	ldw	r7,1184(sp)
 200ecf0:	00800c04 	movi	r2,48
 200ecf4:	d88109c5 	stb	r2,1063(sp)
 200ecf8:	ddc109c4 	addi	r23,sp,1063
 200ecfc:	3829883a 	mov	r20,r7
 200ed00:	3c80010e 	bge	r7,r18,200ed08 <___vfiprintf_internal_r+0x530>
 200ed04:	9029883a 	mov	r20,r18
 200ed08:	b5803fcc 	andi	r22,r22,255
 200ed0c:	b580201c 	xori	r22,r22,128
 200ed10:	b5bfe004 	addi	r22,r22,-128
 200ed14:	b0000126 	beq	r22,zero,200ed1c <___vfiprintf_internal_r+0x544>
 200ed18:	a5000044 	addi	r20,r20,1
 200ed1c:	8a80008c 	andi	r10,r17,2
 200ed20:	50000126 	beq	r10,zero,200ed28 <___vfiprintf_internal_r+0x550>
 200ed24:	a5000084 	addi	r20,r20,2
 200ed28:	8d40210c 	andi	r21,r17,132
 200ed2c:	a801aa1e 	bne	r21,zero,200f3d8 <___vfiprintf_internal_r+0xc00>
 200ed30:	d8c12117 	ldw	r3,1156(sp)
 200ed34:	1d2dc83a 	sub	r22,r3,r20
 200ed38:	0581a70e 	bge	zero,r22,200f3d8 <___vfiprintf_internal_r+0xc00>
 200ed3c:	07000404 	movi	fp,16
 200ed40:	d8c11c17 	ldw	r3,1136(sp)
 200ed44:	e583780e 	bge	fp,r22,200fb28 <___vfiprintf_internal_r+0x1350>
 200ed48:	014080b4 	movhi	r5,514
 200ed4c:	297c2204 	addi	r5,r5,-3960
 200ed50:	dc412615 	stw	r17,1176(sp)
 200ed54:	d9011b17 	ldw	r4,1132(sp)
 200ed58:	b023883a 	mov	r17,r22
 200ed5c:	d9412515 	stw	r5,1172(sp)
 200ed60:	030001c4 	movi	r12,7
 200ed64:	d9c12915 	stw	r7,1188(sp)
 200ed68:	da812a15 	stw	r10,1192(sp)
 200ed6c:	482d883a 	mov	r22,r9
 200ed70:	00000506 	br	200ed88 <___vfiprintf_internal_r+0x5b0>
 200ed74:	21400084 	addi	r5,r4,2
 200ed78:	42000204 	addi	r8,r8,8
 200ed7c:	1009883a 	mov	r4,r2
 200ed80:	8c7ffc04 	addi	r17,r17,-16
 200ed84:	e4400d0e 	bge	fp,r17,200edbc <___vfiprintf_internal_r+0x5e4>
 200ed88:	18c00404 	addi	r3,r3,16
 200ed8c:	20800044 	addi	r2,r4,1
 200ed90:	44c00015 	stw	r19,0(r8)
 200ed94:	47000115 	stw	fp,4(r8)
 200ed98:	d8c11c15 	stw	r3,1136(sp)
 200ed9c:	d8811b15 	stw	r2,1132(sp)
 200eda0:	60bff40e 	bge	r12,r2,200ed74 <__reset+0xfe005d74>
 200eda4:	1801801e 	bne	r3,zero,200f3a8 <___vfiprintf_internal_r+0xbd0>
 200eda8:	8c7ffc04 	addi	r17,r17,-16
 200edac:	0009883a 	mov	r4,zero
 200edb0:	01400044 	movi	r5,1
 200edb4:	d811883a 	mov	r8,sp
 200edb8:	e47ff316 	blt	fp,r17,200ed88 <__reset+0xfe005d88>
 200edbc:	b013883a 	mov	r9,r22
 200edc0:	d9c12917 	ldw	r7,1188(sp)
 200edc4:	882d883a 	mov	r22,r17
 200edc8:	da812a17 	ldw	r10,1192(sp)
 200edcc:	dc412617 	ldw	r17,1176(sp)
 200edd0:	d8812517 	ldw	r2,1172(sp)
 200edd4:	b0c7883a 	add	r3,r22,r3
 200edd8:	45800115 	stw	r22,4(r8)
 200eddc:	40800015 	stw	r2,0(r8)
 200ede0:	d8c11c15 	stw	r3,1136(sp)
 200ede4:	d9411b15 	stw	r5,1132(sp)
 200ede8:	008001c4 	movi	r2,7
 200edec:	11426a16 	blt	r2,r5,200f798 <___vfiprintf_internal_r+0xfc0>
 200edf0:	d9011d87 	ldb	r4,1142(sp)
 200edf4:	42000204 	addi	r8,r8,8
 200edf8:	28800044 	addi	r2,r5,1
 200edfc:	20017b1e 	bne	r4,zero,200f3ec <___vfiprintf_internal_r+0xc14>
 200ee00:	50000c26 	beq	r10,zero,200ee34 <___vfiprintf_internal_r+0x65c>
 200ee04:	d9011d04 	addi	r4,sp,1140
 200ee08:	18c00084 	addi	r3,r3,2
 200ee0c:	41000015 	stw	r4,0(r8)
 200ee10:	01000084 	movi	r4,2
 200ee14:	41000115 	stw	r4,4(r8)
 200ee18:	d8c11c15 	stw	r3,1136(sp)
 200ee1c:	d8811b15 	stw	r2,1132(sp)
 200ee20:	010001c4 	movi	r4,7
 200ee24:	20821716 	blt	r4,r2,200f684 <___vfiprintf_internal_r+0xeac>
 200ee28:	100b883a 	mov	r5,r2
 200ee2c:	42000204 	addi	r8,r8,8
 200ee30:	10800044 	addi	r2,r2,1
 200ee34:	01002004 	movi	r4,128
 200ee38:	a901d126 	beq	r21,r4,200f580 <___vfiprintf_internal_r+0xda8>
 200ee3c:	91e5c83a 	sub	r18,r18,r7
 200ee40:	0480290e 	bge	zero,r18,200eee8 <___vfiprintf_internal_r+0x710>
 200ee44:	05800404 	movi	r22,16
 200ee48:	054080b4 	movhi	r21,514
 200ee4c:	ad7c1e04 	addi	r21,r21,-3976
 200ee50:	b4801c0e 	bge	r22,r18,200eec4 <___vfiprintf_internal_r+0x6ec>
 200ee54:	dc412515 	stw	r17,1172(sp)
 200ee58:	070001c4 	movi	fp,7
 200ee5c:	9023883a 	mov	r17,r18
 200ee60:	d9c12615 	stw	r7,1176(sp)
 200ee64:	4825883a 	mov	r18,r9
 200ee68:	00000506 	br	200ee80 <___vfiprintf_internal_r+0x6a8>
 200ee6c:	28800084 	addi	r2,r5,2
 200ee70:	42000204 	addi	r8,r8,8
 200ee74:	200b883a 	mov	r5,r4
 200ee78:	8c7ffc04 	addi	r17,r17,-16
 200ee7c:	b4400d0e 	bge	r22,r17,200eeb4 <___vfiprintf_internal_r+0x6dc>
 200ee80:	18c00404 	addi	r3,r3,16
 200ee84:	29000044 	addi	r4,r5,1
 200ee88:	44000015 	stw	r16,0(r8)
 200ee8c:	45800115 	stw	r22,4(r8)
 200ee90:	d8c11c15 	stw	r3,1136(sp)
 200ee94:	d9011b15 	stw	r4,1132(sp)
 200ee98:	e13ff40e 	bge	fp,r4,200ee6c <__reset+0xfe005e6c>
 200ee9c:	1801601e 	bne	r3,zero,200f420 <___vfiprintf_internal_r+0xc48>
 200eea0:	8c7ffc04 	addi	r17,r17,-16
 200eea4:	000b883a 	mov	r5,zero
 200eea8:	00800044 	movi	r2,1
 200eeac:	d811883a 	mov	r8,sp
 200eeb0:	b47ff316 	blt	r22,r17,200ee80 <__reset+0xfe005e80>
 200eeb4:	9013883a 	mov	r9,r18
 200eeb8:	d9c12617 	ldw	r7,1176(sp)
 200eebc:	8825883a 	mov	r18,r17
 200eec0:	dc412517 	ldw	r17,1172(sp)
 200eec4:	1c87883a 	add	r3,r3,r18
 200eec8:	45400015 	stw	r21,0(r8)
 200eecc:	44800115 	stw	r18,4(r8)
 200eed0:	d8c11c15 	stw	r3,1136(sp)
 200eed4:	d8811b15 	stw	r2,1132(sp)
 200eed8:	010001c4 	movi	r4,7
 200eedc:	20819e16 	blt	r4,r2,200f558 <___vfiprintf_internal_r+0xd80>
 200eee0:	42000204 	addi	r8,r8,8
 200eee4:	10800044 	addi	r2,r2,1
 200eee8:	38c7883a 	add	r3,r7,r3
 200eeec:	45c00015 	stw	r23,0(r8)
 200eef0:	41c00115 	stw	r7,4(r8)
 200eef4:	d8c11c15 	stw	r3,1136(sp)
 200eef8:	d8811b15 	stw	r2,1132(sp)
 200eefc:	010001c4 	movi	r4,7
 200ef00:	20819d0e 	bge	r4,r2,200f578 <___vfiprintf_internal_r+0xda0>
 200ef04:	1802291e 	bne	r3,zero,200f7ac <___vfiprintf_internal_r+0xfd4>
 200ef08:	d8011b15 	stw	zero,1132(sp)
 200ef0c:	d811883a 	mov	r8,sp
 200ef10:	8c40010c 	andi	r17,r17,4
 200ef14:	88017526 	beq	r17,zero,200f4ec <___vfiprintf_internal_r+0xd14>
 200ef18:	d9412117 	ldw	r5,1156(sp)
 200ef1c:	2d23c83a 	sub	r17,r5,r20
 200ef20:	0441720e 	bge	zero,r17,200f4ec <___vfiprintf_internal_r+0xd14>
 200ef24:	04800404 	movi	r18,16
 200ef28:	9443170e 	bge	r18,r17,200fb88 <___vfiprintf_internal_r+0x13b0>
 200ef2c:	014080b4 	movhi	r5,514
 200ef30:	297c2204 	addi	r5,r5,-3960
 200ef34:	d9011b17 	ldw	r4,1132(sp)
 200ef38:	d9412515 	stw	r5,1172(sp)
 200ef3c:	058001c4 	movi	r22,7
 200ef40:	dd412217 	ldw	r21,1160(sp)
 200ef44:	ddc12017 	ldw	r23,1152(sp)
 200ef48:	4839883a 	mov	fp,r9
 200ef4c:	00000506 	br	200ef64 <___vfiprintf_internal_r+0x78c>
 200ef50:	21400084 	addi	r5,r4,2
 200ef54:	42000204 	addi	r8,r8,8
 200ef58:	1009883a 	mov	r4,r2
 200ef5c:	8c7ffc04 	addi	r17,r17,-16
 200ef60:	94400d0e 	bge	r18,r17,200ef98 <___vfiprintf_internal_r+0x7c0>
 200ef64:	18c00404 	addi	r3,r3,16
 200ef68:	20800044 	addi	r2,r4,1
 200ef6c:	44c00015 	stw	r19,0(r8)
 200ef70:	44800115 	stw	r18,4(r8)
 200ef74:	d8c11c15 	stw	r3,1136(sp)
 200ef78:	d8811b15 	stw	r2,1132(sp)
 200ef7c:	b0bff40e 	bge	r22,r2,200ef50 <__reset+0xfe005f50>
 200ef80:	18016b1e 	bne	r3,zero,200f530 <___vfiprintf_internal_r+0xd58>
 200ef84:	8c7ffc04 	addi	r17,r17,-16
 200ef88:	0009883a 	mov	r4,zero
 200ef8c:	01400044 	movi	r5,1
 200ef90:	d811883a 	mov	r8,sp
 200ef94:	947ff316 	blt	r18,r17,200ef64 <__reset+0xfe005f64>
 200ef98:	e013883a 	mov	r9,fp
 200ef9c:	d8812517 	ldw	r2,1172(sp)
 200efa0:	1c47883a 	add	r3,r3,r17
 200efa4:	44400115 	stw	r17,4(r8)
 200efa8:	40800015 	stw	r2,0(r8)
 200efac:	d8c11c15 	stw	r3,1136(sp)
 200efb0:	d9411b15 	stw	r5,1132(sp)
 200efb4:	008001c4 	movi	r2,7
 200efb8:	11414c0e 	bge	r2,r5,200f4ec <___vfiprintf_internal_r+0xd14>
 200efbc:	1801431e 	bne	r3,zero,200f4cc <___vfiprintf_internal_r+0xcf4>
 200efc0:	d8c12117 	ldw	r3,1156(sp)
 200efc4:	a0c28e16 	blt	r20,r3,200fa00 <___vfiprintf_internal_r+0x1228>
 200efc8:	d9012417 	ldw	r4,1168(sp)
 200efcc:	2509883a 	add	r4,r4,r20
 200efd0:	d9012415 	stw	r4,1168(sp)
 200efd4:	00015306 	br	200f524 <___vfiprintf_internal_r+0xd4c>
 200efd8:	8c400414 	ori	r17,r17,16
 200efdc:	8880080c 	andi	r2,r17,32
 200efe0:	b811883a 	mov	r8,r23
 200efe4:	3025883a 	mov	r18,r6
 200efe8:	10005f26 	beq	r2,zero,200f168 <___vfiprintf_internal_r+0x990>
 200efec:	d8812317 	ldw	r2,1164(sp)
 200eff0:	d8c12317 	ldw	r3,1164(sp)
 200eff4:	15000017 	ldw	r20,0(r2)
 200eff8:	15400117 	ldw	r21,4(r2)
 200effc:	18c00204 	addi	r3,r3,8
 200f000:	0005883a 	mov	r2,zero
 200f004:	d8c12315 	stw	r3,1164(sp)
 200f008:	a548b03a 	or	r4,r20,r21
 200f00c:	d8011d85 	stb	zero,1142(sp)
 200f010:	900f883a 	mov	r7,r18
 200f014:	002d883a 	mov	r22,zero
 200f018:	003f2b06 	br	200ecc8 <__reset+0xfe005cc8>
 200f01c:	8c400414 	ori	r17,r17,16
 200f020:	8880080c 	andi	r2,r17,32
 200f024:	b811883a 	mov	r8,r23
 200f028:	3025883a 	mov	r18,r6
 200f02c:	1000a826 	beq	r2,zero,200f2d0 <___vfiprintf_internal_r+0xaf8>
 200f030:	d8812317 	ldw	r2,1164(sp)
 200f034:	d8c12317 	ldw	r3,1164(sp)
 200f038:	15000017 	ldw	r20,0(r2)
 200f03c:	15400117 	ldw	r21,4(r2)
 200f040:	18c00204 	addi	r3,r3,8
 200f044:	00800044 	movi	r2,1
 200f048:	d8c12315 	stw	r3,1164(sp)
 200f04c:	a548b03a 	or	r4,r20,r21
 200f050:	003fee06 	br	200f00c <__reset+0xfe00600c>
 200f054:	014080b4 	movhi	r5,514
 200f058:	297bb904 	addi	r5,r5,-4380
 200f05c:	dd811d85 	stb	r22,1142(sp)
 200f060:	d9412715 	stw	r5,1180(sp)
 200f064:	8880080c 	andi	r2,r17,32
 200f068:	b811883a 	mov	r8,r23
 200f06c:	3025883a 	mov	r18,r6
 200f070:	1000a926 	beq	r2,zero,200f318 <___vfiprintf_internal_r+0xb40>
 200f074:	d9412317 	ldw	r5,1164(sp)
 200f078:	2d000017 	ldw	r20,0(r5)
 200f07c:	2d400117 	ldw	r21,4(r5)
 200f080:	29400204 	addi	r5,r5,8
 200f084:	d9412315 	stw	r5,1164(sp)
 200f088:	8880004c 	andi	r2,r17,1
 200f08c:	1001d126 	beq	r2,zero,200f7d4 <___vfiprintf_internal_r+0xffc>
 200f090:	a548b03a 	or	r4,r20,r21
 200f094:	20021626 	beq	r4,zero,200f8f0 <___vfiprintf_internal_r+0x1118>
 200f098:	00800c04 	movi	r2,48
 200f09c:	d8811d05 	stb	r2,1140(sp)
 200f0a0:	d8c11d45 	stb	r3,1141(sp)
 200f0a4:	8c400094 	ori	r17,r17,2
 200f0a8:	00800084 	movi	r2,2
 200f0ac:	003fd706 	br	200f00c <__reset+0xfe00600c>
 200f0b0:	d9412317 	ldw	r5,1164(sp)
 200f0b4:	05000044 	movi	r20,1
 200f0b8:	b811883a 	mov	r8,r23
 200f0bc:	28800017 	ldw	r2,0(r5)
 200f0c0:	29400104 	addi	r5,r5,4
 200f0c4:	d8011d85 	stb	zero,1142(sp)
 200f0c8:	d8810005 	stb	r2,1024(sp)
 200f0cc:	d9412315 	stw	r5,1164(sp)
 200f0d0:	a00f883a 	mov	r7,r20
 200f0d4:	ddc10004 	addi	r23,sp,1024
 200f0d8:	0025883a 	mov	r18,zero
 200f0dc:	003f0f06 	br	200ed1c <__reset+0xfe005d1c>
 200f0e0:	b0803fcc 	andi	r2,r22,255
 200f0e4:	1080201c 	xori	r2,r2,128
 200f0e8:	10bfe004 	addi	r2,r2,-128
 200f0ec:	10021f1e 	bne	r2,zero,200f96c <___vfiprintf_internal_r+0x1194>
 200f0f0:	05800804 	movi	r22,32
 200f0f4:	48c00007 	ldb	r3,0(r9)
 200f0f8:	003e1706 	br	200e958 <__reset+0xfe005958>
 200f0fc:	8c400054 	ori	r17,r17,1
 200f100:	48c00007 	ldb	r3,0(r9)
 200f104:	003e1406 	br	200e958 <__reset+0xfe005958>
 200f108:	48c00007 	ldb	r3,0(r9)
 200f10c:	01001b04 	movi	r4,108
 200f110:	4805883a 	mov	r2,r9
 200f114:	19026526 	beq	r3,r4,200faac <___vfiprintf_internal_r+0x12d4>
 200f118:	8c400414 	ori	r17,r17,16
 200f11c:	003e0e06 	br	200e958 <__reset+0xfe005958>
 200f120:	dd811d85 	stb	r22,1142(sp)
 200f124:	8880080c 	andi	r2,r17,32
 200f128:	b811883a 	mov	r8,r23
 200f12c:	10020426 	beq	r2,zero,200f940 <___vfiprintf_internal_r+0x1168>
 200f130:	d8c12317 	ldw	r3,1164(sp)
 200f134:	d9012417 	ldw	r4,1168(sp)
 200f138:	d9412317 	ldw	r5,1164(sp)
 200f13c:	18800017 	ldw	r2,0(r3)
 200f140:	2007d7fa 	srai	r3,r4,31
 200f144:	29400104 	addi	r5,r5,4
 200f148:	d9412315 	stw	r5,1164(sp)
 200f14c:	11000015 	stw	r4,0(r2)
 200f150:	10c00115 	stw	r3,4(r2)
 200f154:	003dd706 	br	200e8b4 <__reset+0xfe0058b4>
 200f158:	8880080c 	andi	r2,r17,32
 200f15c:	b811883a 	mov	r8,r23
 200f160:	3025883a 	mov	r18,r6
 200f164:	103fa11e 	bne	r2,zero,200efec <__reset+0xfe005fec>
 200f168:	8880040c 	andi	r2,r17,16
 200f16c:	1001ea26 	beq	r2,zero,200f918 <___vfiprintf_internal_r+0x1140>
 200f170:	d9012317 	ldw	r4,1164(sp)
 200f174:	002b883a 	mov	r21,zero
 200f178:	0005883a 	mov	r2,zero
 200f17c:	25000017 	ldw	r20,0(r4)
 200f180:	21000104 	addi	r4,r4,4
 200f184:	d9012315 	stw	r4,1164(sp)
 200f188:	a009883a 	mov	r4,r20
 200f18c:	003f9f06 	br	200f00c <__reset+0xfe00600c>
 200f190:	d8812317 	ldw	r2,1164(sp)
 200f194:	d8c12317 	ldw	r3,1164(sp)
 200f198:	10800017 	ldw	r2,0(r2)
 200f19c:	d8812115 	stw	r2,1156(sp)
 200f1a0:	d9012117 	ldw	r4,1156(sp)
 200f1a4:	18800104 	addi	r2,r3,4
 200f1a8:	203e9a16 	blt	r4,zero,200ec14 <__reset+0xfe005c14>
 200f1ac:	d8812315 	stw	r2,1164(sp)
 200f1b0:	48c00007 	ldb	r3,0(r9)
 200f1b4:	003de806 	br	200e958 <__reset+0xfe005958>
 200f1b8:	05800ac4 	movi	r22,43
 200f1bc:	48c00007 	ldb	r3,0(r9)
 200f1c0:	003de506 	br	200e958 <__reset+0xfe005958>
 200f1c4:	48c00007 	ldb	r3,0(r9)
 200f1c8:	01000a84 	movi	r4,42
 200f1cc:	48800044 	addi	r2,r9,1
 200f1d0:	19028326 	beq	r3,r4,200fbe0 <___vfiprintf_internal_r+0x1408>
 200f1d4:	1f3ff404 	addi	fp,r3,-48
 200f1d8:	af027a36 	bltu	r21,fp,200fbc4 <___vfiprintf_internal_r+0x13ec>
 200f1dc:	1025883a 	mov	r18,r2
 200f1e0:	0009883a 	mov	r4,zero
 200f1e4:	00000106 	br	200f1ec <___vfiprintf_internal_r+0xa14>
 200f1e8:	4825883a 	mov	r18,r9
 200f1ec:	01400284 	movi	r5,10
 200f1f0:	20059200 	call	2005920 <__mulsi3>
 200f1f4:	90c00007 	ldb	r3,0(r18)
 200f1f8:	e089883a 	add	r4,fp,r2
 200f1fc:	92400044 	addi	r9,r18,1
 200f200:	1f3ff404 	addi	fp,r3,-48
 200f204:	af3ff82e 	bgeu	r21,fp,200f1e8 <__reset+0xfe0061e8>
 200f208:	2025883a 	mov	r18,r4
 200f20c:	20022416 	blt	r4,zero,200faa0 <___vfiprintf_internal_r+0x12c8>
 200f210:	900d883a 	mov	r6,r18
 200f214:	003dd106 	br	200e95c <__reset+0xfe00595c>
 200f218:	8c401014 	ori	r17,r17,64
 200f21c:	48c00007 	ldb	r3,0(r9)
 200f220:	003dcd06 	br	200e958 <__reset+0xfe005958>
 200f224:	dd811d85 	stb	r22,1142(sp)
 200f228:	8880080c 	andi	r2,r17,32
 200f22c:	b811883a 	mov	r8,r23
 200f230:	3025883a 	mov	r18,r6
 200f234:	103e991e 	bne	r2,zero,200ec9c <__reset+0xfe005c9c>
 200f238:	8880040c 	andi	r2,r17,16
 200f23c:	1001d726 	beq	r2,zero,200f99c <___vfiprintf_internal_r+0x11c4>
 200f240:	d9012317 	ldw	r4,1164(sp)
 200f244:	25000017 	ldw	r20,0(r4)
 200f248:	21000104 	addi	r4,r4,4
 200f24c:	d9012315 	stw	r4,1164(sp)
 200f250:	a02bd7fa 	srai	r21,r20,31
 200f254:	a805883a 	mov	r2,r21
 200f258:	003e9606 	br	200ecb4 <__reset+0xfe005cb4>
 200f25c:	8c400814 	ori	r17,r17,32
 200f260:	48c00007 	ldb	r3,0(r9)
 200f264:	003dbc06 	br	200e958 <__reset+0xfe005958>
 200f268:	d9412317 	ldw	r5,1164(sp)
 200f26c:	b811883a 	mov	r8,r23
 200f270:	d8011d85 	stb	zero,1142(sp)
 200f274:	2dc00017 	ldw	r23,0(r5)
 200f278:	3025883a 	mov	r18,r6
 200f27c:	2d400104 	addi	r21,r5,4
 200f280:	b8022f26 	beq	r23,zero,200fb40 <___vfiprintf_internal_r+0x1368>
 200f284:	b809883a 	mov	r4,r23
 200f288:	30020f16 	blt	r6,zero,200fac8 <___vfiprintf_internal_r+0x12f0>
 200f28c:	000b883a 	mov	r5,zero
 200f290:	da012b15 	stw	r8,1196(sp)
 200f294:	da412d15 	stw	r9,1204(sp)
 200f298:	200d2740 	call	200d274 <memchr>
 200f29c:	da012b17 	ldw	r8,1196(sp)
 200f2a0:	da412d17 	ldw	r9,1204(sp)
 200f2a4:	10024226 	beq	r2,zero,200fbb0 <___vfiprintf_internal_r+0x13d8>
 200f2a8:	15cfc83a 	sub	r7,r2,r23
 200f2ac:	91c1d616 	blt	r18,r7,200fa08 <___vfiprintf_internal_r+0x1230>
 200f2b0:	dd811d83 	ldbu	r22,1142(sp)
 200f2b4:	dd412315 	stw	r21,1164(sp)
 200f2b8:	0025883a 	mov	r18,zero
 200f2bc:	003e8f06 	br	200ecfc <__reset+0xfe005cfc>
 200f2c0:	8880080c 	andi	r2,r17,32
 200f2c4:	b811883a 	mov	r8,r23
 200f2c8:	3025883a 	mov	r18,r6
 200f2cc:	103f581e 	bne	r2,zero,200f030 <__reset+0xfe006030>
 200f2d0:	8880040c 	andi	r2,r17,16
 200f2d4:	1001a726 	beq	r2,zero,200f974 <___vfiprintf_internal_r+0x119c>
 200f2d8:	d9012317 	ldw	r4,1164(sp)
 200f2dc:	002b883a 	mov	r21,zero
 200f2e0:	00800044 	movi	r2,1
 200f2e4:	25000017 	ldw	r20,0(r4)
 200f2e8:	21000104 	addi	r4,r4,4
 200f2ec:	d9012315 	stw	r4,1164(sp)
 200f2f0:	a009883a 	mov	r4,r20
 200f2f4:	003f4506 	br	200f00c <__reset+0xfe00600c>
 200f2f8:	010080b4 	movhi	r4,514
 200f2fc:	213bbe04 	addi	r4,r4,-4360
 200f300:	dd811d85 	stb	r22,1142(sp)
 200f304:	d9012715 	stw	r4,1180(sp)
 200f308:	8880080c 	andi	r2,r17,32
 200f30c:	b811883a 	mov	r8,r23
 200f310:	3025883a 	mov	r18,r6
 200f314:	103f571e 	bne	r2,zero,200f074 <__reset+0xfe006074>
 200f318:	8880040c 	andi	r2,r17,16
 200f31c:	10017626 	beq	r2,zero,200f8f8 <___vfiprintf_internal_r+0x1120>
 200f320:	d8812317 	ldw	r2,1164(sp)
 200f324:	002b883a 	mov	r21,zero
 200f328:	15000017 	ldw	r20,0(r2)
 200f32c:	10800104 	addi	r2,r2,4
 200f330:	d8812315 	stw	r2,1164(sp)
 200f334:	003f5406 	br	200f088 <__reset+0xfe006088>
 200f338:	d8c12317 	ldw	r3,1164(sp)
 200f33c:	00800c04 	movi	r2,48
 200f340:	010080b4 	movhi	r4,514
 200f344:	213bbe04 	addi	r4,r4,-4360
 200f348:	1d000017 	ldw	r20,0(r3)
 200f34c:	d8811d05 	stb	r2,1140(sp)
 200f350:	18c00104 	addi	r3,r3,4
 200f354:	00801e04 	movi	r2,120
 200f358:	d8811d45 	stb	r2,1141(sp)
 200f35c:	d9012715 	stw	r4,1180(sp)
 200f360:	b811883a 	mov	r8,r23
 200f364:	3025883a 	mov	r18,r6
 200f368:	002b883a 	mov	r21,zero
 200f36c:	8c400094 	ori	r17,r17,2
 200f370:	d8c12315 	stw	r3,1164(sp)
 200f374:	00800084 	movi	r2,2
 200f378:	a009883a 	mov	r4,r20
 200f37c:	003f2306 	br	200f00c <__reset+0xfe00600c>
 200f380:	dd811d85 	stb	r22,1142(sp)
 200f384:	b811883a 	mov	r8,r23
 200f388:	18004426 	beq	r3,zero,200f49c <___vfiprintf_internal_r+0xcc4>
 200f38c:	05000044 	movi	r20,1
 200f390:	d8c10005 	stb	r3,1024(sp)
 200f394:	d8011d85 	stb	zero,1142(sp)
 200f398:	a00f883a 	mov	r7,r20
 200f39c:	ddc10004 	addi	r23,sp,1024
 200f3a0:	0025883a 	mov	r18,zero
 200f3a4:	003e5d06 	br	200ed1c <__reset+0xfe005d1c>
 200f3a8:	d9012217 	ldw	r4,1160(sp)
 200f3ac:	d9412017 	ldw	r5,1152(sp)
 200f3b0:	d9811a04 	addi	r6,sp,1128
 200f3b4:	db012b15 	stw	r12,1196(sp)
 200f3b8:	200e6c40 	call	200e6c4 <__sprint_r.part.0>
 200f3bc:	db012b17 	ldw	r12,1196(sp)
 200f3c0:	10003c1e 	bne	r2,zero,200f4b4 <___vfiprintf_internal_r+0xcdc>
 200f3c4:	d9011b17 	ldw	r4,1132(sp)
 200f3c8:	d8c11c17 	ldw	r3,1136(sp)
 200f3cc:	d811883a 	mov	r8,sp
 200f3d0:	21400044 	addi	r5,r4,1
 200f3d4:	003e6a06 	br	200ed80 <__reset+0xfe005d80>
 200f3d8:	d9411b17 	ldw	r5,1132(sp)
 200f3dc:	d8c11c17 	ldw	r3,1136(sp)
 200f3e0:	28800044 	addi	r2,r5,1
 200f3e4:	d9011d87 	ldb	r4,1142(sp)
 200f3e8:	203e8526 	beq	r4,zero,200ee00 <__reset+0xfe005e00>
 200f3ec:	01000044 	movi	r4,1
 200f3f0:	d9411d84 	addi	r5,sp,1142
 200f3f4:	1907883a 	add	r3,r3,r4
 200f3f8:	41400015 	stw	r5,0(r8)
 200f3fc:	41000115 	stw	r4,4(r8)
 200f400:	d8c11c15 	stw	r3,1136(sp)
 200f404:	d8811b15 	stw	r2,1132(sp)
 200f408:	014001c4 	movi	r5,7
 200f40c:	28809816 	blt	r5,r2,200f670 <___vfiprintf_internal_r+0xe98>
 200f410:	100b883a 	mov	r5,r2
 200f414:	42000204 	addi	r8,r8,8
 200f418:	1105883a 	add	r2,r2,r4
 200f41c:	003e7806 	br	200ee00 <__reset+0xfe005e00>
 200f420:	d9012217 	ldw	r4,1160(sp)
 200f424:	d9412017 	ldw	r5,1152(sp)
 200f428:	d9811a04 	addi	r6,sp,1128
 200f42c:	200e6c40 	call	200e6c4 <__sprint_r.part.0>
 200f430:	1000201e 	bne	r2,zero,200f4b4 <___vfiprintf_internal_r+0xcdc>
 200f434:	d9411b17 	ldw	r5,1132(sp)
 200f438:	d8c11c17 	ldw	r3,1136(sp)
 200f43c:	d811883a 	mov	r8,sp
 200f440:	28800044 	addi	r2,r5,1
 200f444:	003e8c06 	br	200ee78 <__reset+0xfe005e78>
 200f448:	00c00044 	movi	r3,1
 200f44c:	10c0ab26 	beq	r2,r3,200f6fc <___vfiprintf_internal_r+0xf24>
 200f450:	00c00084 	movi	r3,2
 200f454:	10c0901e 	bne	r2,r3,200f698 <___vfiprintf_internal_r+0xec0>
 200f458:	d9412717 	ldw	r5,1180(sp)
 200f45c:	d88109c4 	addi	r2,sp,1063
 200f460:	a0c003cc 	andi	r3,r20,15
 200f464:	a808973a 	slli	r4,r21,28
 200f468:	28c7883a 	add	r3,r5,r3
 200f46c:	a028d13a 	srli	r20,r20,4
 200f470:	18c00003 	ldbu	r3,0(r3)
 200f474:	a82ad13a 	srli	r21,r21,4
 200f478:	2528b03a 	or	r20,r4,r20
 200f47c:	10c00005 	stb	r3,0(r2)
 200f480:	a546b03a 	or	r3,r20,r21
 200f484:	102f883a 	mov	r23,r2
 200f488:	10bfffc4 	addi	r2,r2,-1
 200f48c:	183ff41e 	bne	r3,zero,200f460 <__reset+0xfe006460>
 200f490:	d8811f17 	ldw	r2,1148(sp)
 200f494:	15cfc83a 	sub	r7,r2,r23
 200f498:	003e1806 	br	200ecfc <__reset+0xfe005cfc>
 200f49c:	d8811c17 	ldw	r2,1136(sp)
 200f4a0:	10000426 	beq	r2,zero,200f4b4 <___vfiprintf_internal_r+0xcdc>
 200f4a4:	d9012217 	ldw	r4,1160(sp)
 200f4a8:	d9412017 	ldw	r5,1152(sp)
 200f4ac:	d9811a04 	addi	r6,sp,1128
 200f4b0:	200e6c40 	call	200e6c4 <__sprint_r.part.0>
 200f4b4:	d8c12017 	ldw	r3,1152(sp)
 200f4b8:	1880030b 	ldhu	r2,12(r3)
 200f4bc:	1080100c 	andi	r2,r2,64
 200f4c0:	103dc31e 	bne	r2,zero,200ebd0 <__reset+0xfe005bd0>
 200f4c4:	d8812417 	ldw	r2,1168(sp)
 200f4c8:	003dc206 	br	200ebd4 <__reset+0xfe005bd4>
 200f4cc:	d9012217 	ldw	r4,1160(sp)
 200f4d0:	d9412017 	ldw	r5,1152(sp)
 200f4d4:	d9811a04 	addi	r6,sp,1128
 200f4d8:	da412d15 	stw	r9,1204(sp)
 200f4dc:	200e6c40 	call	200e6c4 <__sprint_r.part.0>
 200f4e0:	da412d17 	ldw	r9,1204(sp)
 200f4e4:	103ff31e 	bne	r2,zero,200f4b4 <__reset+0xfe0064b4>
 200f4e8:	d8c11c17 	ldw	r3,1136(sp)
 200f4ec:	d9412117 	ldw	r5,1156(sp)
 200f4f0:	a140010e 	bge	r20,r5,200f4f8 <___vfiprintf_internal_r+0xd20>
 200f4f4:	2829883a 	mov	r20,r5
 200f4f8:	d8812417 	ldw	r2,1168(sp)
 200f4fc:	1505883a 	add	r2,r2,r20
 200f500:	d8812415 	stw	r2,1168(sp)
 200f504:	18000726 	beq	r3,zero,200f524 <___vfiprintf_internal_r+0xd4c>
 200f508:	d9012217 	ldw	r4,1160(sp)
 200f50c:	d9412017 	ldw	r5,1152(sp)
 200f510:	d9811a04 	addi	r6,sp,1128
 200f514:	da412d15 	stw	r9,1204(sp)
 200f518:	200e6c40 	call	200e6c4 <__sprint_r.part.0>
 200f51c:	da412d17 	ldw	r9,1204(sp)
 200f520:	103fe41e 	bne	r2,zero,200f4b4 <__reset+0xfe0064b4>
 200f524:	d8011b15 	stw	zero,1132(sp)
 200f528:	d811883a 	mov	r8,sp
 200f52c:	003ce106 	br	200e8b4 <__reset+0xfe0058b4>
 200f530:	a809883a 	mov	r4,r21
 200f534:	b80b883a 	mov	r5,r23
 200f538:	d9811a04 	addi	r6,sp,1128
 200f53c:	200e6c40 	call	200e6c4 <__sprint_r.part.0>
 200f540:	103fdc1e 	bne	r2,zero,200f4b4 <__reset+0xfe0064b4>
 200f544:	d9011b17 	ldw	r4,1132(sp)
 200f548:	d8c11c17 	ldw	r3,1136(sp)
 200f54c:	d811883a 	mov	r8,sp
 200f550:	21400044 	addi	r5,r4,1
 200f554:	003e8106 	br	200ef5c <__reset+0xfe005f5c>
 200f558:	1800cb1e 	bne	r3,zero,200f888 <___vfiprintf_internal_r+0x10b0>
 200f55c:	00800044 	movi	r2,1
 200f560:	ddc00015 	stw	r23,0(sp)
 200f564:	d9c00115 	stw	r7,4(sp)
 200f568:	d9c11c15 	stw	r7,1136(sp)
 200f56c:	d8811b15 	stw	r2,1132(sp)
 200f570:	3807883a 	mov	r3,r7
 200f574:	d811883a 	mov	r8,sp
 200f578:	42000204 	addi	r8,r8,8
 200f57c:	003e6406 	br	200ef10 <__reset+0xfe005f10>
 200f580:	d9012117 	ldw	r4,1156(sp)
 200f584:	252dc83a 	sub	r22,r4,r20
 200f588:	05be2c0e 	bge	zero,r22,200ee3c <__reset+0xfe005e3c>
 200f58c:	07000404 	movi	fp,16
 200f590:	e581830e 	bge	fp,r22,200fba0 <___vfiprintf_internal_r+0x13c8>
 200f594:	054080b4 	movhi	r21,514
 200f598:	ad7c1e04 	addi	r21,r21,-3976
 200f59c:	dc412515 	stw	r17,1172(sp)
 200f5a0:	028001c4 	movi	r10,7
 200f5a4:	b023883a 	mov	r17,r22
 200f5a8:	d9c12615 	stw	r7,1176(sp)
 200f5ac:	a82d883a 	mov	r22,r21
 200f5b0:	482b883a 	mov	r21,r9
 200f5b4:	00000506 	br	200f5cc <___vfiprintf_internal_r+0xdf4>
 200f5b8:	29000084 	addi	r4,r5,2
 200f5bc:	42000204 	addi	r8,r8,8
 200f5c0:	100b883a 	mov	r5,r2
 200f5c4:	8c7ffc04 	addi	r17,r17,-16
 200f5c8:	e4400d0e 	bge	fp,r17,200f600 <___vfiprintf_internal_r+0xe28>
 200f5cc:	18c00404 	addi	r3,r3,16
 200f5d0:	28800044 	addi	r2,r5,1
 200f5d4:	44000015 	stw	r16,0(r8)
 200f5d8:	47000115 	stw	fp,4(r8)
 200f5dc:	d8c11c15 	stw	r3,1136(sp)
 200f5e0:	d8811b15 	stw	r2,1132(sp)
 200f5e4:	50bff40e 	bge	r10,r2,200f5b8 <__reset+0xfe0065b8>
 200f5e8:	1800151e 	bne	r3,zero,200f640 <___vfiprintf_internal_r+0xe68>
 200f5ec:	8c7ffc04 	addi	r17,r17,-16
 200f5f0:	000b883a 	mov	r5,zero
 200f5f4:	01000044 	movi	r4,1
 200f5f8:	d811883a 	mov	r8,sp
 200f5fc:	e47ff316 	blt	fp,r17,200f5cc <__reset+0xfe0065cc>
 200f600:	a813883a 	mov	r9,r21
 200f604:	d9c12617 	ldw	r7,1176(sp)
 200f608:	b02b883a 	mov	r21,r22
 200f60c:	882d883a 	mov	r22,r17
 200f610:	dc412517 	ldw	r17,1172(sp)
 200f614:	1d87883a 	add	r3,r3,r22
 200f618:	45400015 	stw	r21,0(r8)
 200f61c:	45800115 	stw	r22,4(r8)
 200f620:	d8c11c15 	stw	r3,1136(sp)
 200f624:	d9011b15 	stw	r4,1132(sp)
 200f628:	008001c4 	movi	r2,7
 200f62c:	11009116 	blt	r2,r4,200f874 <___vfiprintf_internal_r+0x109c>
 200f630:	42000204 	addi	r8,r8,8
 200f634:	20800044 	addi	r2,r4,1
 200f638:	200b883a 	mov	r5,r4
 200f63c:	003dff06 	br	200ee3c <__reset+0xfe005e3c>
 200f640:	d9012217 	ldw	r4,1160(sp)
 200f644:	d9412017 	ldw	r5,1152(sp)
 200f648:	d9811a04 	addi	r6,sp,1128
 200f64c:	da812c15 	stw	r10,1200(sp)
 200f650:	200e6c40 	call	200e6c4 <__sprint_r.part.0>
 200f654:	da812c17 	ldw	r10,1200(sp)
 200f658:	103f961e 	bne	r2,zero,200f4b4 <__reset+0xfe0064b4>
 200f65c:	d9411b17 	ldw	r5,1132(sp)
 200f660:	d8c11c17 	ldw	r3,1136(sp)
 200f664:	d811883a 	mov	r8,sp
 200f668:	29000044 	addi	r4,r5,1
 200f66c:	003fd506 	br	200f5c4 <__reset+0xfe0065c4>
 200f670:	1800701e 	bne	r3,zero,200f834 <___vfiprintf_internal_r+0x105c>
 200f674:	000b883a 	mov	r5,zero
 200f678:	2005883a 	mov	r2,r4
 200f67c:	d811883a 	mov	r8,sp
 200f680:	003ddf06 	br	200ee00 <__reset+0xfe005e00>
 200f684:	18005d1e 	bne	r3,zero,200f7fc <___vfiprintf_internal_r+0x1024>
 200f688:	000b883a 	mov	r5,zero
 200f68c:	00800044 	movi	r2,1
 200f690:	d811883a 	mov	r8,sp
 200f694:	003de706 	br	200ee34 <__reset+0xfe005e34>
 200f698:	d8c109c4 	addi	r3,sp,1063
 200f69c:	a008d0fa 	srli	r4,r20,3
 200f6a0:	a80a977a 	slli	r5,r21,29
 200f6a4:	a82ad0fa 	srli	r21,r21,3
 200f6a8:	a50001cc 	andi	r20,r20,7
 200f6ac:	a0800c04 	addi	r2,r20,48
 200f6b0:	2928b03a 	or	r20,r5,r4
 200f6b4:	18800005 	stb	r2,0(r3)
 200f6b8:	a548b03a 	or	r4,r20,r21
 200f6bc:	182f883a 	mov	r23,r3
 200f6c0:	18ffffc4 	addi	r3,r3,-1
 200f6c4:	203ff51e 	bne	r4,zero,200f69c <__reset+0xfe00669c>
 200f6c8:	8900004c 	andi	r4,r17,1
 200f6cc:	b80b883a 	mov	r5,r23
 200f6d0:	203f6f26 	beq	r4,zero,200f490 <__reset+0xfe006490>
 200f6d4:	10803fcc 	andi	r2,r2,255
 200f6d8:	1080201c 	xori	r2,r2,128
 200f6dc:	10bfe004 	addi	r2,r2,-128
 200f6e0:	01000c04 	movi	r4,48
 200f6e4:	1100f526 	beq	r2,r4,200fabc <___vfiprintf_internal_r+0x12e4>
 200f6e8:	293fffc5 	stb	r4,-1(r5)
 200f6ec:	d9011f17 	ldw	r4,1148(sp)
 200f6f0:	182f883a 	mov	r23,r3
 200f6f4:	20cfc83a 	sub	r7,r4,r3
 200f6f8:	003d8006 	br	200ecfc <__reset+0xfe005cfc>
 200f6fc:	a800021e 	bne	r21,zero,200f708 <___vfiprintf_internal_r+0xf30>
 200f700:	00800244 	movi	r2,9
 200f704:	15001d2e 	bgeu	r2,r20,200f77c <___vfiprintf_internal_r+0xfa4>
 200f708:	dc412515 	stw	r17,1172(sp)
 200f70c:	d88109c4 	addi	r2,sp,1063
 200f710:	a823883a 	mov	r17,r21
 200f714:	4039883a 	mov	fp,r8
 200f718:	482b883a 	mov	r21,r9
 200f71c:	a009883a 	mov	r4,r20
 200f720:	880b883a 	mov	r5,r17
 200f724:	01800284 	movi	r6,10
 200f728:	000f883a 	mov	r7,zero
 200f72c:	102f883a 	mov	r23,r2
 200f730:	2010da80 	call	2010da8 <__umoddi3>
 200f734:	10800c04 	addi	r2,r2,48
 200f738:	a009883a 	mov	r4,r20
 200f73c:	880b883a 	mov	r5,r17
 200f740:	b8800005 	stb	r2,0(r23)
 200f744:	01800284 	movi	r6,10
 200f748:	000f883a 	mov	r7,zero
 200f74c:	20107540 	call	2010754 <__udivdi3>
 200f750:	1823883a 	mov	r17,r3
 200f754:	10c6b03a 	or	r3,r2,r3
 200f758:	1029883a 	mov	r20,r2
 200f75c:	b8bfffc4 	addi	r2,r23,-1
 200f760:	183fee1e 	bne	r3,zero,200f71c <__reset+0xfe00671c>
 200f764:	d9411f17 	ldw	r5,1148(sp)
 200f768:	e011883a 	mov	r8,fp
 200f76c:	dc412517 	ldw	r17,1172(sp)
 200f770:	a813883a 	mov	r9,r21
 200f774:	2dcfc83a 	sub	r7,r5,r23
 200f778:	003d6006 	br	200ecfc <__reset+0xfe005cfc>
 200f77c:	a5000c04 	addi	r20,r20,48
 200f780:	dd0109c5 	stb	r20,1063(sp)
 200f784:	d9c12817 	ldw	r7,1184(sp)
 200f788:	ddc109c4 	addi	r23,sp,1063
 200f78c:	003d5b06 	br	200ecfc <__reset+0xfe005cfc>
 200f790:	ddc10a04 	addi	r23,sp,1064
 200f794:	003d5906 	br	200ecfc <__reset+0xfe005cfc>
 200f798:	1800891e 	bne	r3,zero,200f9c0 <___vfiprintf_internal_r+0x11e8>
 200f79c:	000b883a 	mov	r5,zero
 200f7a0:	00800044 	movi	r2,1
 200f7a4:	d811883a 	mov	r8,sp
 200f7a8:	003f0e06 	br	200f3e4 <__reset+0xfe0063e4>
 200f7ac:	d9012217 	ldw	r4,1160(sp)
 200f7b0:	d9412017 	ldw	r5,1152(sp)
 200f7b4:	d9811a04 	addi	r6,sp,1128
 200f7b8:	da412d15 	stw	r9,1204(sp)
 200f7bc:	200e6c40 	call	200e6c4 <__sprint_r.part.0>
 200f7c0:	da412d17 	ldw	r9,1204(sp)
 200f7c4:	103f3b1e 	bne	r2,zero,200f4b4 <__reset+0xfe0064b4>
 200f7c8:	d8c11c17 	ldw	r3,1136(sp)
 200f7cc:	d811883a 	mov	r8,sp
 200f7d0:	003dcf06 	br	200ef10 <__reset+0xfe005f10>
 200f7d4:	00800084 	movi	r2,2
 200f7d8:	a548b03a 	or	r4,r20,r21
 200f7dc:	003e0b06 	br	200f00c <__reset+0xfe00600c>
 200f7e0:	d9012217 	ldw	r4,1160(sp)
 200f7e4:	d9412017 	ldw	r5,1152(sp)
 200f7e8:	d9811a04 	addi	r6,sp,1128
 200f7ec:	200e6c40 	call	200e6c4 <__sprint_r.part.0>
 200f7f0:	103f301e 	bne	r2,zero,200f4b4 <__reset+0xfe0064b4>
 200f7f4:	d811883a 	mov	r8,sp
 200f7f8:	003cbb06 	br	200eae8 <__reset+0xfe005ae8>
 200f7fc:	d9012217 	ldw	r4,1160(sp)
 200f800:	d9412017 	ldw	r5,1152(sp)
 200f804:	d9811a04 	addi	r6,sp,1128
 200f808:	d9c12b15 	stw	r7,1196(sp)
 200f80c:	da412d15 	stw	r9,1204(sp)
 200f810:	200e6c40 	call	200e6c4 <__sprint_r.part.0>
 200f814:	d9c12b17 	ldw	r7,1196(sp)
 200f818:	da412d17 	ldw	r9,1204(sp)
 200f81c:	103f251e 	bne	r2,zero,200f4b4 <__reset+0xfe0064b4>
 200f820:	d9411b17 	ldw	r5,1132(sp)
 200f824:	d8c11c17 	ldw	r3,1136(sp)
 200f828:	d811883a 	mov	r8,sp
 200f82c:	28800044 	addi	r2,r5,1
 200f830:	003d8006 	br	200ee34 <__reset+0xfe005e34>
 200f834:	d9012217 	ldw	r4,1160(sp)
 200f838:	d9412017 	ldw	r5,1152(sp)
 200f83c:	d9811a04 	addi	r6,sp,1128
 200f840:	d9c12b15 	stw	r7,1196(sp)
 200f844:	da412d15 	stw	r9,1204(sp)
 200f848:	da812c15 	stw	r10,1200(sp)
 200f84c:	200e6c40 	call	200e6c4 <__sprint_r.part.0>
 200f850:	d9c12b17 	ldw	r7,1196(sp)
 200f854:	da412d17 	ldw	r9,1204(sp)
 200f858:	da812c17 	ldw	r10,1200(sp)
 200f85c:	103f151e 	bne	r2,zero,200f4b4 <__reset+0xfe0064b4>
 200f860:	d9411b17 	ldw	r5,1132(sp)
 200f864:	d8c11c17 	ldw	r3,1136(sp)
 200f868:	d811883a 	mov	r8,sp
 200f86c:	28800044 	addi	r2,r5,1
 200f870:	003d6306 	br	200ee00 <__reset+0xfe005e00>
 200f874:	18009e1e 	bne	r3,zero,200faf0 <___vfiprintf_internal_r+0x1318>
 200f878:	000b883a 	mov	r5,zero
 200f87c:	00800044 	movi	r2,1
 200f880:	d811883a 	mov	r8,sp
 200f884:	003d6d06 	br	200ee3c <__reset+0xfe005e3c>
 200f888:	d9012217 	ldw	r4,1160(sp)
 200f88c:	d9412017 	ldw	r5,1152(sp)
 200f890:	d9811a04 	addi	r6,sp,1128
 200f894:	d9c12b15 	stw	r7,1196(sp)
 200f898:	da412d15 	stw	r9,1204(sp)
 200f89c:	200e6c40 	call	200e6c4 <__sprint_r.part.0>
 200f8a0:	d9c12b17 	ldw	r7,1196(sp)
 200f8a4:	da412d17 	ldw	r9,1204(sp)
 200f8a8:	103f021e 	bne	r2,zero,200f4b4 <__reset+0xfe0064b4>
 200f8ac:	d8811b17 	ldw	r2,1132(sp)
 200f8b0:	d8c11c17 	ldw	r3,1136(sp)
 200f8b4:	d811883a 	mov	r8,sp
 200f8b8:	10800044 	addi	r2,r2,1
 200f8bc:	003d8a06 	br	200eee8 <__reset+0xfe005ee8>
 200f8c0:	4829883a 	mov	r20,r9
 200f8c4:	003c1706 	br	200e924 <__reset+0xfe005924>
 200f8c8:	0529c83a 	sub	r20,zero,r20
 200f8cc:	a004c03a 	cmpne	r2,r20,zero
 200f8d0:	056bc83a 	sub	r21,zero,r21
 200f8d4:	a8abc83a 	sub	r21,r21,r2
 200f8d8:	05800b44 	movi	r22,45
 200f8dc:	dd811d85 	stb	r22,1142(sp)
 200f8e0:	900f883a 	mov	r7,r18
 200f8e4:	00800044 	movi	r2,1
 200f8e8:	a548b03a 	or	r4,r20,r21
 200f8ec:	003cf606 	br	200ecc8 <__reset+0xfe005cc8>
 200f8f0:	00800084 	movi	r2,2
 200f8f4:	003dc506 	br	200f00c <__reset+0xfe00600c>
 200f8f8:	8880100c 	andi	r2,r17,64
 200f8fc:	10005a26 	beq	r2,zero,200fa68 <___vfiprintf_internal_r+0x1290>
 200f900:	d9012317 	ldw	r4,1164(sp)
 200f904:	002b883a 	mov	r21,zero
 200f908:	2500000b 	ldhu	r20,0(r4)
 200f90c:	21000104 	addi	r4,r4,4
 200f910:	d9012315 	stw	r4,1164(sp)
 200f914:	003ddc06 	br	200f088 <__reset+0xfe006088>
 200f918:	8880100c 	andi	r2,r17,64
 200f91c:	10005826 	beq	r2,zero,200fa80 <___vfiprintf_internal_r+0x12a8>
 200f920:	d9412317 	ldw	r5,1164(sp)
 200f924:	002b883a 	mov	r21,zero
 200f928:	0005883a 	mov	r2,zero
 200f92c:	2d00000b 	ldhu	r20,0(r5)
 200f930:	29400104 	addi	r5,r5,4
 200f934:	d9412315 	stw	r5,1164(sp)
 200f938:	a009883a 	mov	r4,r20
 200f93c:	003db306 	br	200f00c <__reset+0xfe00600c>
 200f940:	8880040c 	andi	r2,r17,16
 200f944:	1000411e 	bne	r2,zero,200fa4c <___vfiprintf_internal_r+0x1274>
 200f948:	8c40100c 	andi	r17,r17,64
 200f94c:	88008726 	beq	r17,zero,200fb6c <___vfiprintf_internal_r+0x1394>
 200f950:	d9412317 	ldw	r5,1164(sp)
 200f954:	d8c12417 	ldw	r3,1168(sp)
 200f958:	28800017 	ldw	r2,0(r5)
 200f95c:	29400104 	addi	r5,r5,4
 200f960:	d9412315 	stw	r5,1164(sp)
 200f964:	10c0000d 	sth	r3,0(r2)
 200f968:	003bd206 	br	200e8b4 <__reset+0xfe0058b4>
 200f96c:	48c00007 	ldb	r3,0(r9)
 200f970:	003bf906 	br	200e958 <__reset+0xfe005958>
 200f974:	8880100c 	andi	r2,r17,64
 200f978:	10002c26 	beq	r2,zero,200fa2c <___vfiprintf_internal_r+0x1254>
 200f97c:	d9412317 	ldw	r5,1164(sp)
 200f980:	002b883a 	mov	r21,zero
 200f984:	00800044 	movi	r2,1
 200f988:	2d00000b 	ldhu	r20,0(r5)
 200f98c:	29400104 	addi	r5,r5,4
 200f990:	d9412315 	stw	r5,1164(sp)
 200f994:	a009883a 	mov	r4,r20
 200f998:	003d9c06 	br	200f00c <__reset+0xfe00600c>
 200f99c:	8880100c 	andi	r2,r17,64
 200f9a0:	10001b26 	beq	r2,zero,200fa10 <___vfiprintf_internal_r+0x1238>
 200f9a4:	d9412317 	ldw	r5,1164(sp)
 200f9a8:	2d00000f 	ldh	r20,0(r5)
 200f9ac:	29400104 	addi	r5,r5,4
 200f9b0:	d9412315 	stw	r5,1164(sp)
 200f9b4:	a02bd7fa 	srai	r21,r20,31
 200f9b8:	a805883a 	mov	r2,r21
 200f9bc:	003cbd06 	br	200ecb4 <__reset+0xfe005cb4>
 200f9c0:	d9012217 	ldw	r4,1160(sp)
 200f9c4:	d9412017 	ldw	r5,1152(sp)
 200f9c8:	d9811a04 	addi	r6,sp,1128
 200f9cc:	d9c12b15 	stw	r7,1196(sp)
 200f9d0:	da412d15 	stw	r9,1204(sp)
 200f9d4:	da812c15 	stw	r10,1200(sp)
 200f9d8:	200e6c40 	call	200e6c4 <__sprint_r.part.0>
 200f9dc:	d9c12b17 	ldw	r7,1196(sp)
 200f9e0:	da412d17 	ldw	r9,1204(sp)
 200f9e4:	da812c17 	ldw	r10,1200(sp)
 200f9e8:	103eb21e 	bne	r2,zero,200f4b4 <__reset+0xfe0064b4>
 200f9ec:	d9411b17 	ldw	r5,1132(sp)
 200f9f0:	d8c11c17 	ldw	r3,1136(sp)
 200f9f4:	d811883a 	mov	r8,sp
 200f9f8:	28800044 	addi	r2,r5,1
 200f9fc:	003e7906 	br	200f3e4 <__reset+0xfe0063e4>
 200fa00:	1829883a 	mov	r20,r3
 200fa04:	003d7006 	br	200efc8 <__reset+0xfe005fc8>
 200fa08:	900f883a 	mov	r7,r18
 200fa0c:	003e2806 	br	200f2b0 <__reset+0xfe0062b0>
 200fa10:	d8812317 	ldw	r2,1164(sp)
 200fa14:	15000017 	ldw	r20,0(r2)
 200fa18:	10800104 	addi	r2,r2,4
 200fa1c:	d8812315 	stw	r2,1164(sp)
 200fa20:	a02bd7fa 	srai	r21,r20,31
 200fa24:	a805883a 	mov	r2,r21
 200fa28:	003ca206 	br	200ecb4 <__reset+0xfe005cb4>
 200fa2c:	d8812317 	ldw	r2,1164(sp)
 200fa30:	002b883a 	mov	r21,zero
 200fa34:	15000017 	ldw	r20,0(r2)
 200fa38:	10800104 	addi	r2,r2,4
 200fa3c:	d8812315 	stw	r2,1164(sp)
 200fa40:	a009883a 	mov	r4,r20
 200fa44:	00800044 	movi	r2,1
 200fa48:	003d7006 	br	200f00c <__reset+0xfe00600c>
 200fa4c:	d8c12317 	ldw	r3,1164(sp)
 200fa50:	d9012417 	ldw	r4,1168(sp)
 200fa54:	18800017 	ldw	r2,0(r3)
 200fa58:	18c00104 	addi	r3,r3,4
 200fa5c:	d8c12315 	stw	r3,1164(sp)
 200fa60:	11000015 	stw	r4,0(r2)
 200fa64:	003b9306 	br	200e8b4 <__reset+0xfe0058b4>
 200fa68:	d9412317 	ldw	r5,1164(sp)
 200fa6c:	002b883a 	mov	r21,zero
 200fa70:	2d000017 	ldw	r20,0(r5)
 200fa74:	29400104 	addi	r5,r5,4
 200fa78:	d9412315 	stw	r5,1164(sp)
 200fa7c:	003d8206 	br	200f088 <__reset+0xfe006088>
 200fa80:	d8812317 	ldw	r2,1164(sp)
 200fa84:	002b883a 	mov	r21,zero
 200fa88:	15000017 	ldw	r20,0(r2)
 200fa8c:	10800104 	addi	r2,r2,4
 200fa90:	d8812315 	stw	r2,1164(sp)
 200fa94:	a009883a 	mov	r4,r20
 200fa98:	0005883a 	mov	r2,zero
 200fa9c:	003d5b06 	br	200f00c <__reset+0xfe00600c>
 200faa0:	04bfffc4 	movi	r18,-1
 200faa4:	900d883a 	mov	r6,r18
 200faa8:	003bac06 	br	200e95c <__reset+0xfe00595c>
 200faac:	4a400044 	addi	r9,r9,1
 200fab0:	8c400814 	ori	r17,r17,32
 200fab4:	10c00047 	ldb	r3,1(r2)
 200fab8:	003ba706 	br	200e958 <__reset+0xfe005958>
 200fabc:	d8c11f17 	ldw	r3,1148(sp)
 200fac0:	1dcfc83a 	sub	r7,r3,r23
 200fac4:	003c8d06 	br	200ecfc <__reset+0xfe005cfc>
 200fac8:	da012b15 	stw	r8,1196(sp)
 200facc:	da412d15 	stw	r9,1204(sp)
 200fad0:	200e6380 	call	200e638 <strlen>
 200fad4:	100f883a 	mov	r7,r2
 200fad8:	dd811d83 	ldbu	r22,1142(sp)
 200fadc:	dd412315 	stw	r21,1164(sp)
 200fae0:	0025883a 	mov	r18,zero
 200fae4:	da012b17 	ldw	r8,1196(sp)
 200fae8:	da412d17 	ldw	r9,1204(sp)
 200faec:	003c8306 	br	200ecfc <__reset+0xfe005cfc>
 200faf0:	d9012217 	ldw	r4,1160(sp)
 200faf4:	d9412017 	ldw	r5,1152(sp)
 200faf8:	d9811a04 	addi	r6,sp,1128
 200fafc:	d9c12b15 	stw	r7,1196(sp)
 200fb00:	da412d15 	stw	r9,1204(sp)
 200fb04:	200e6c40 	call	200e6c4 <__sprint_r.part.0>
 200fb08:	d9c12b17 	ldw	r7,1196(sp)
 200fb0c:	da412d17 	ldw	r9,1204(sp)
 200fb10:	103e681e 	bne	r2,zero,200f4b4 <__reset+0xfe0064b4>
 200fb14:	d9411b17 	ldw	r5,1132(sp)
 200fb18:	d8c11c17 	ldw	r3,1136(sp)
 200fb1c:	d811883a 	mov	r8,sp
 200fb20:	28800044 	addi	r2,r5,1
 200fb24:	003cc506 	br	200ee3c <__reset+0xfe005e3c>
 200fb28:	d9411b17 	ldw	r5,1132(sp)
 200fb2c:	010080b4 	movhi	r4,514
 200fb30:	213c2204 	addi	r4,r4,-3960
 200fb34:	d9012515 	stw	r4,1172(sp)
 200fb38:	29400044 	addi	r5,r5,1
 200fb3c:	003ca406 	br	200edd0 <__reset+0xfe005dd0>
 200fb40:	00800184 	movi	r2,6
 200fb44:	300f883a 	mov	r7,r6
 200fb48:	1180012e 	bgeu	r2,r6,200fb50 <___vfiprintf_internal_r+0x1378>
 200fb4c:	100f883a 	mov	r7,r2
 200fb50:	3829883a 	mov	r20,r7
 200fb54:	38001e16 	blt	r7,zero,200fbd0 <___vfiprintf_internal_r+0x13f8>
 200fb58:	dd412315 	stw	r21,1164(sp)
 200fb5c:	05c080b4 	movhi	r23,514
 200fb60:	bdfbc304 	addi	r23,r23,-4340
 200fb64:	0025883a 	mov	r18,zero
 200fb68:	003c6c06 	br	200ed1c <__reset+0xfe005d1c>
 200fb6c:	d9012317 	ldw	r4,1164(sp)
 200fb70:	d9412417 	ldw	r5,1168(sp)
 200fb74:	20800017 	ldw	r2,0(r4)
 200fb78:	21000104 	addi	r4,r4,4
 200fb7c:	d9012315 	stw	r4,1164(sp)
 200fb80:	11400015 	stw	r5,0(r2)
 200fb84:	003b4b06 	br	200e8b4 <__reset+0xfe0058b4>
 200fb88:	d9411b17 	ldw	r5,1132(sp)
 200fb8c:	008080b4 	movhi	r2,514
 200fb90:	10bc2204 	addi	r2,r2,-3960
 200fb94:	d8812515 	stw	r2,1172(sp)
 200fb98:	29400044 	addi	r5,r5,1
 200fb9c:	003cff06 	br	200ef9c <__reset+0xfe005f9c>
 200fba0:	1009883a 	mov	r4,r2
 200fba4:	054080b4 	movhi	r21,514
 200fba8:	ad7c1e04 	addi	r21,r21,-3976
 200fbac:	003e9906 	br	200f614 <__reset+0xfe006614>
 200fbb0:	900f883a 	mov	r7,r18
 200fbb4:	dd811d83 	ldbu	r22,1142(sp)
 200fbb8:	dd412315 	stw	r21,1164(sp)
 200fbbc:	0025883a 	mov	r18,zero
 200fbc0:	003c4e06 	br	200ecfc <__reset+0xfe005cfc>
 200fbc4:	1013883a 	mov	r9,r2
 200fbc8:	000d883a 	mov	r6,zero
 200fbcc:	003b6306 	br	200e95c <__reset+0xfe00595c>
 200fbd0:	0029883a 	mov	r20,zero
 200fbd4:	003fe006 	br	200fb58 <__reset+0xfe006b58>
 200fbd8:	043fffc4 	movi	r16,-1
 200fbdc:	003bf306 	br	200ebac <__reset+0xfe005bac>
 200fbe0:	d9412317 	ldw	r5,1164(sp)
 200fbe4:	48c00043 	ldbu	r3,1(r9)
 200fbe8:	1013883a 	mov	r9,r2
 200fbec:	29800017 	ldw	r6,0(r5)
 200fbf0:	29000104 	addi	r4,r5,4
 200fbf4:	d9012315 	stw	r4,1164(sp)
 200fbf8:	30000416 	blt	r6,zero,200fc0c <___vfiprintf_internal_r+0x1434>
 200fbfc:	18c03fcc 	andi	r3,r3,255
 200fc00:	18c0201c 	xori	r3,r3,128
 200fc04:	18ffe004 	addi	r3,r3,-128
 200fc08:	003b5306 	br	200e958 <__reset+0xfe005958>
 200fc0c:	18c03fcc 	andi	r3,r3,255
 200fc10:	18c0201c 	xori	r3,r3,128
 200fc14:	01bfffc4 	movi	r6,-1
 200fc18:	18ffe004 	addi	r3,r3,-128
 200fc1c:	003b4e06 	br	200e958 <__reset+0xfe005958>

0200fc20 <__vfiprintf_internal>:
 200fc20:	008080b4 	movhi	r2,514
 200fc24:	10836104 	addi	r2,r2,3460
 200fc28:	2007883a 	mov	r3,r4
 200fc2c:	11000017 	ldw	r4,0(r2)
 200fc30:	2805883a 	mov	r2,r5
 200fc34:	300f883a 	mov	r7,r6
 200fc38:	180b883a 	mov	r5,r3
 200fc3c:	100d883a 	mov	r6,r2
 200fc40:	200e7d81 	jmpi	200e7d8 <___vfiprintf_internal_r>

0200fc44 <_fputwc_r>:
 200fc44:	3080030b 	ldhu	r2,12(r6)
 200fc48:	defff804 	addi	sp,sp,-32
 200fc4c:	dcc00415 	stw	r19,16(sp)
 200fc50:	dc800315 	stw	r18,12(sp)
 200fc54:	dc000115 	stw	r16,4(sp)
 200fc58:	dfc00715 	stw	ra,28(sp)
 200fc5c:	dd400615 	stw	r21,24(sp)
 200fc60:	dd000515 	stw	r20,20(sp)
 200fc64:	dc400215 	stw	r17,8(sp)
 200fc68:	10c8000c 	andi	r3,r2,8192
 200fc6c:	3021883a 	mov	r16,r6
 200fc70:	2027883a 	mov	r19,r4
 200fc74:	2825883a 	mov	r18,r5
 200fc78:	1800051e 	bne	r3,zero,200fc90 <_fputwc_r+0x4c>
 200fc7c:	30c01917 	ldw	r3,100(r6)
 200fc80:	10880014 	ori	r2,r2,8192
 200fc84:	3080030d 	sth	r2,12(r6)
 200fc88:	18880014 	ori	r2,r3,8192
 200fc8c:	30801915 	stw	r2,100(r6)
 200fc90:	200cffc0 	call	200cffc <__locale_mb_cur_max>
 200fc94:	00c00044 	movi	r3,1
 200fc98:	10c03e26 	beq	r2,r3,200fd94 <_fputwc_r+0x150>
 200fc9c:	9809883a 	mov	r4,r19
 200fca0:	d80b883a 	mov	r5,sp
 200fca4:	900d883a 	mov	r6,r18
 200fca8:	81c01704 	addi	r7,r16,92
 200fcac:	20105540 	call	2010554 <_wcrtomb_r>
 200fcb0:	1029883a 	mov	r20,r2
 200fcb4:	00bfffc4 	movi	r2,-1
 200fcb8:	a0802026 	beq	r20,r2,200fd3c <_fputwc_r+0xf8>
 200fcbc:	d9400003 	ldbu	r5,0(sp)
 200fcc0:	a0001c26 	beq	r20,zero,200fd34 <_fputwc_r+0xf0>
 200fcc4:	0023883a 	mov	r17,zero
 200fcc8:	05400284 	movi	r21,10
 200fccc:	00000906 	br	200fcf4 <_fputwc_r+0xb0>
 200fcd0:	80c00017 	ldw	r3,0(r16)
 200fcd4:	19400005 	stb	r5,0(r3)
 200fcd8:	80c00017 	ldw	r3,0(r16)
 200fcdc:	18c00044 	addi	r3,r3,1
 200fce0:	80c00015 	stw	r3,0(r16)
 200fce4:	8c400044 	addi	r17,r17,1
 200fce8:	dc47883a 	add	r3,sp,r17
 200fcec:	8d00112e 	bgeu	r17,r20,200fd34 <_fputwc_r+0xf0>
 200fcf0:	19400003 	ldbu	r5,0(r3)
 200fcf4:	80c00217 	ldw	r3,8(r16)
 200fcf8:	18ffffc4 	addi	r3,r3,-1
 200fcfc:	80c00215 	stw	r3,8(r16)
 200fd00:	183ff30e 	bge	r3,zero,200fcd0 <__reset+0xfe006cd0>
 200fd04:	80800617 	ldw	r2,24(r16)
 200fd08:	18801916 	blt	r3,r2,200fd70 <_fputwc_r+0x12c>
 200fd0c:	80800017 	ldw	r2,0(r16)
 200fd10:	11400005 	stb	r5,0(r2)
 200fd14:	80800017 	ldw	r2,0(r16)
 200fd18:	10c00003 	ldbu	r3,0(r2)
 200fd1c:	10800044 	addi	r2,r2,1
 200fd20:	1d402326 	beq	r3,r21,200fdb0 <_fputwc_r+0x16c>
 200fd24:	8c400044 	addi	r17,r17,1
 200fd28:	80800015 	stw	r2,0(r16)
 200fd2c:	dc47883a 	add	r3,sp,r17
 200fd30:	8d3fef36 	bltu	r17,r20,200fcf0 <__reset+0xfe006cf0>
 200fd34:	9005883a 	mov	r2,r18
 200fd38:	00000406 	br	200fd4c <_fputwc_r+0x108>
 200fd3c:	80c0030b 	ldhu	r3,12(r16)
 200fd40:	a005883a 	mov	r2,r20
 200fd44:	18c01014 	ori	r3,r3,64
 200fd48:	80c0030d 	sth	r3,12(r16)
 200fd4c:	dfc00717 	ldw	ra,28(sp)
 200fd50:	dd400617 	ldw	r21,24(sp)
 200fd54:	dd000517 	ldw	r20,20(sp)
 200fd58:	dcc00417 	ldw	r19,16(sp)
 200fd5c:	dc800317 	ldw	r18,12(sp)
 200fd60:	dc400217 	ldw	r17,8(sp)
 200fd64:	dc000117 	ldw	r16,4(sp)
 200fd68:	dec00804 	addi	sp,sp,32
 200fd6c:	f800283a 	ret
 200fd70:	9809883a 	mov	r4,r19
 200fd74:	29403fcc 	andi	r5,r5,255
 200fd78:	800d883a 	mov	r6,r16
 200fd7c:	20103b80 	call	20103b8 <__swbuf_r>
 200fd80:	10bfffe0 	cmpeqi	r2,r2,-1
 200fd84:	10803fcc 	andi	r2,r2,255
 200fd88:	103fd626 	beq	r2,zero,200fce4 <__reset+0xfe006ce4>
 200fd8c:	00bfffc4 	movi	r2,-1
 200fd90:	003fee06 	br	200fd4c <__reset+0xfe006d4c>
 200fd94:	90ffffc4 	addi	r3,r18,-1
 200fd98:	01003f84 	movi	r4,254
 200fd9c:	20ffbf36 	bltu	r4,r3,200fc9c <__reset+0xfe006c9c>
 200fda0:	900b883a 	mov	r5,r18
 200fda4:	dc800005 	stb	r18,0(sp)
 200fda8:	1029883a 	mov	r20,r2
 200fdac:	003fc506 	br	200fcc4 <__reset+0xfe006cc4>
 200fdb0:	9809883a 	mov	r4,r19
 200fdb4:	a80b883a 	mov	r5,r21
 200fdb8:	800d883a 	mov	r6,r16
 200fdbc:	20103b80 	call	20103b8 <__swbuf_r>
 200fdc0:	10bfffe0 	cmpeqi	r2,r2,-1
 200fdc4:	003fef06 	br	200fd84 <__reset+0xfe006d84>

0200fdc8 <fputwc>:
 200fdc8:	defffc04 	addi	sp,sp,-16
 200fdcc:	dc000115 	stw	r16,4(sp)
 200fdd0:	040080b4 	movhi	r16,514
 200fdd4:	84036104 	addi	r16,r16,3460
 200fdd8:	80800017 	ldw	r2,0(r16)
 200fddc:	dc400215 	stw	r17,8(sp)
 200fde0:	dfc00315 	stw	ra,12(sp)
 200fde4:	2023883a 	mov	r17,r4
 200fde8:	280d883a 	mov	r6,r5
 200fdec:	10000d26 	beq	r2,zero,200fe24 <fputwc+0x5c>
 200fdf0:	10c00e17 	ldw	r3,56(r2)
 200fdf4:	1009883a 	mov	r4,r2
 200fdf8:	1800041e 	bne	r3,zero,200fe0c <fputwc+0x44>
 200fdfc:	d9400015 	stw	r5,0(sp)
 200fe00:	20073100 	call	2007310 <__sinit>
 200fe04:	81000017 	ldw	r4,0(r16)
 200fe08:	d9800017 	ldw	r6,0(sp)
 200fe0c:	880b883a 	mov	r5,r17
 200fe10:	dfc00317 	ldw	ra,12(sp)
 200fe14:	dc400217 	ldw	r17,8(sp)
 200fe18:	dc000117 	ldw	r16,4(sp)
 200fe1c:	dec00404 	addi	sp,sp,16
 200fe20:	200fc441 	jmpi	200fc44 <_fputwc_r>
 200fe24:	0009883a 	mov	r4,zero
 200fe28:	880b883a 	mov	r5,r17
 200fe2c:	dfc00317 	ldw	ra,12(sp)
 200fe30:	dc400217 	ldw	r17,8(sp)
 200fe34:	dc000117 	ldw	r16,4(sp)
 200fe38:	dec00404 	addi	sp,sp,16
 200fe3c:	200fc441 	jmpi	200fc44 <_fputwc_r>

0200fe40 <_fstat_r>:
 200fe40:	defffd04 	addi	sp,sp,-12
 200fe44:	dc400115 	stw	r17,4(sp)
 200fe48:	dc000015 	stw	r16,0(sp)
 200fe4c:	2023883a 	mov	r17,r4
 200fe50:	040080b4 	movhi	r16,514
 200fe54:	84037904 	addi	r16,r16,3556
 200fe58:	2809883a 	mov	r4,r5
 200fe5c:	300b883a 	mov	r5,r6
 200fe60:	dfc00215 	stw	ra,8(sp)
 200fe64:	80000015 	stw	zero,0(r16)
 200fe68:	2012aa40 	call	2012aa4 <fstat>
 200fe6c:	00ffffc4 	movi	r3,-1
 200fe70:	10c00526 	beq	r2,r3,200fe88 <_fstat_r+0x48>
 200fe74:	dfc00217 	ldw	ra,8(sp)
 200fe78:	dc400117 	ldw	r17,4(sp)
 200fe7c:	dc000017 	ldw	r16,0(sp)
 200fe80:	dec00304 	addi	sp,sp,12
 200fe84:	f800283a 	ret
 200fe88:	80c00017 	ldw	r3,0(r16)
 200fe8c:	183ff926 	beq	r3,zero,200fe74 <__reset+0xfe006e74>
 200fe90:	88c00015 	stw	r3,0(r17)
 200fe94:	dfc00217 	ldw	ra,8(sp)
 200fe98:	dc400117 	ldw	r17,4(sp)
 200fe9c:	dc000017 	ldw	r16,0(sp)
 200fea0:	dec00304 	addi	sp,sp,12
 200fea4:	f800283a 	ret

0200fea8 <__sfvwrite_r>:
 200fea8:	30800217 	ldw	r2,8(r6)
 200feac:	defff404 	addi	sp,sp,-48
 200feb0:	dcc00515 	stw	r19,20(sp)
 200feb4:	dfc00b15 	stw	ra,44(sp)
 200feb8:	df000a15 	stw	fp,40(sp)
 200febc:	ddc00915 	stw	r23,36(sp)
 200fec0:	dd800815 	stw	r22,32(sp)
 200fec4:	dd400715 	stw	r21,28(sp)
 200fec8:	dd000615 	stw	r20,24(sp)
 200fecc:	dc800415 	stw	r18,16(sp)
 200fed0:	dc400315 	stw	r17,12(sp)
 200fed4:	dc000215 	stw	r16,8(sp)
 200fed8:	3027883a 	mov	r19,r6
 200fedc:	10001d26 	beq	r2,zero,200ff54 <__sfvwrite_r+0xac>
 200fee0:	2880030b 	ldhu	r2,12(r5)
 200fee4:	202b883a 	mov	r21,r4
 200fee8:	2821883a 	mov	r16,r5
 200feec:	10c0020c 	andi	r3,r2,8
 200fef0:	18002526 	beq	r3,zero,200ff88 <__sfvwrite_r+0xe0>
 200fef4:	28c00417 	ldw	r3,16(r5)
 200fef8:	18002326 	beq	r3,zero,200ff88 <__sfvwrite_r+0xe0>
 200fefc:	10c0008c 	andi	r3,r2,2
 200ff00:	9c400017 	ldw	r17,0(r19)
 200ff04:	18002826 	beq	r3,zero,200ffa8 <__sfvwrite_r+0x100>
 200ff08:	0029883a 	mov	r20,zero
 200ff0c:	0025883a 	mov	r18,zero
 200ff10:	05810004 	movi	r22,1024
 200ff14:	a00d883a 	mov	r6,r20
 200ff18:	a809883a 	mov	r4,r21
 200ff1c:	90004726 	beq	r18,zero,201003c <__sfvwrite_r+0x194>
 200ff20:	900f883a 	mov	r7,r18
 200ff24:	81400717 	ldw	r5,28(r16)
 200ff28:	b480012e 	bgeu	r22,r18,200ff30 <__sfvwrite_r+0x88>
 200ff2c:	01c10004 	movi	r7,1024
 200ff30:	80800917 	ldw	r2,36(r16)
 200ff34:	103ee83a 	callr	r2
 200ff38:	00804c0e 	bge	zero,r2,201006c <__sfvwrite_r+0x1c4>
 200ff3c:	98c00217 	ldw	r3,8(r19)
 200ff40:	a0a9883a 	add	r20,r20,r2
 200ff44:	90a5c83a 	sub	r18,r18,r2
 200ff48:	1885c83a 	sub	r2,r3,r2
 200ff4c:	98800215 	stw	r2,8(r19)
 200ff50:	103ff01e 	bne	r2,zero,200ff14 <__reset+0xfe006f14>
 200ff54:	0005883a 	mov	r2,zero
 200ff58:	dfc00b17 	ldw	ra,44(sp)
 200ff5c:	df000a17 	ldw	fp,40(sp)
 200ff60:	ddc00917 	ldw	r23,36(sp)
 200ff64:	dd800817 	ldw	r22,32(sp)
 200ff68:	dd400717 	ldw	r21,28(sp)
 200ff6c:	dd000617 	ldw	r20,24(sp)
 200ff70:	dcc00517 	ldw	r19,20(sp)
 200ff74:	dc800417 	ldw	r18,16(sp)
 200ff78:	dc400317 	ldw	r17,12(sp)
 200ff7c:	dc000217 	ldw	r16,8(sp)
 200ff80:	dec00c04 	addi	sp,sp,48
 200ff84:	f800283a 	ret
 200ff88:	a809883a 	mov	r4,r21
 200ff8c:	800b883a 	mov	r5,r16
 200ff90:	200b5800 	call	200b580 <__swsetup_r>
 200ff94:	1000e81e 	bne	r2,zero,2010338 <__sfvwrite_r+0x490>
 200ff98:	8080030b 	ldhu	r2,12(r16)
 200ff9c:	9c400017 	ldw	r17,0(r19)
 200ffa0:	10c0008c 	andi	r3,r2,2
 200ffa4:	183fd81e 	bne	r3,zero,200ff08 <__reset+0xfe006f08>
 200ffa8:	10c0004c 	andi	r3,r2,1
 200ffac:	002d883a 	mov	r22,zero
 200ffb0:	1800331e 	bne	r3,zero,2010080 <__sfvwrite_r+0x1d8>
 200ffb4:	0025883a 	mov	r18,zero
 200ffb8:	90001c26 	beq	r18,zero,201002c <__sfvwrite_r+0x184>
 200ffbc:	10c0800c 	andi	r3,r2,512
 200ffc0:	85000217 	ldw	r20,8(r16)
 200ffc4:	18006f26 	beq	r3,zero,2010184 <__sfvwrite_r+0x2dc>
 200ffc8:	95008936 	bltu	r18,r20,20101f0 <__sfvwrite_r+0x348>
 200ffcc:	10c1200c 	andi	r3,r2,1152
 200ffd0:	1800a11e 	bne	r3,zero,2010258 <__sfvwrite_r+0x3b0>
 200ffd4:	81000017 	ldw	r4,0(r16)
 200ffd8:	a02f883a 	mov	r23,r20
 200ffdc:	a039883a 	mov	fp,r20
 200ffe0:	9029883a 	mov	r20,r18
 200ffe4:	b00b883a 	mov	r5,r22
 200ffe8:	b80d883a 	mov	r6,r23
 200ffec:	200d35c0 	call	200d35c <memmove>
 200fff0:	81400217 	ldw	r5,8(r16)
 200fff4:	81000017 	ldw	r4,0(r16)
 200fff8:	9005883a 	mov	r2,r18
 200fffc:	2f39c83a 	sub	fp,r5,fp
 2010000:	25c7883a 	add	r3,r4,r23
 2010004:	87000215 	stw	fp,8(r16)
 2010008:	80c00015 	stw	r3,0(r16)
 201000c:	98c00217 	ldw	r3,8(r19)
 2010010:	b0ad883a 	add	r22,r22,r2
 2010014:	90a5c83a 	sub	r18,r18,r2
 2010018:	1d29c83a 	sub	r20,r3,r20
 201001c:	9d000215 	stw	r20,8(r19)
 2010020:	a03fcc26 	beq	r20,zero,200ff54 <__reset+0xfe006f54>
 2010024:	8080030b 	ldhu	r2,12(r16)
 2010028:	903fe41e 	bne	r18,zero,200ffbc <__reset+0xfe006fbc>
 201002c:	8d800017 	ldw	r22,0(r17)
 2010030:	8c800117 	ldw	r18,4(r17)
 2010034:	8c400204 	addi	r17,r17,8
 2010038:	003fdf06 	br	200ffb8 <__reset+0xfe006fb8>
 201003c:	8d000017 	ldw	r20,0(r17)
 2010040:	8c800117 	ldw	r18,4(r17)
 2010044:	8c400204 	addi	r17,r17,8
 2010048:	003fb206 	br	200ff14 <__reset+0xfe006f14>
 201004c:	20089a80 	call	20089a8 <_realloc_r>
 2010050:	1039883a 	mov	fp,r2
 2010054:	10009d1e 	bne	r2,zero,20102cc <__sfvwrite_r+0x424>
 2010058:	81400417 	ldw	r5,16(r16)
 201005c:	a809883a 	mov	r4,r21
 2010060:	2007a6c0 	call	2007a6c <_free_r>
 2010064:	00800304 	movi	r2,12
 2010068:	a8800015 	stw	r2,0(r21)
 201006c:	80c0030b 	ldhu	r3,12(r16)
 2010070:	00bfffc4 	movi	r2,-1
 2010074:	18c01014 	ori	r3,r3,64
 2010078:	80c0030d 	sth	r3,12(r16)
 201007c:	003fb606 	br	200ff58 <__reset+0xfe006f58>
 2010080:	0007883a 	mov	r3,zero
 2010084:	0039883a 	mov	fp,zero
 2010088:	0025883a 	mov	r18,zero
 201008c:	90001f26 	beq	r18,zero,201010c <__sfvwrite_r+0x264>
 2010090:	18006826 	beq	r3,zero,2010234 <__sfvwrite_r+0x38c>
 2010094:	b02f883a 	mov	r23,r22
 2010098:	9580012e 	bgeu	r18,r22,20100a0 <__sfvwrite_r+0x1f8>
 201009c:	902f883a 	mov	r23,r18
 20100a0:	81000017 	ldw	r4,0(r16)
 20100a4:	80800417 	ldw	r2,16(r16)
 20100a8:	b829883a 	mov	r20,r23
 20100ac:	81800217 	ldw	r6,8(r16)
 20100b0:	81c00517 	ldw	r7,20(r16)
 20100b4:	1100022e 	bgeu	r2,r4,20100c0 <__sfvwrite_r+0x218>
 20100b8:	31d1883a 	add	r8,r6,r7
 20100bc:	45c01816 	blt	r8,r23,2010120 <__sfvwrite_r+0x278>
 20100c0:	b9c03f16 	blt	r23,r7,20101c0 <__sfvwrite_r+0x318>
 20100c4:	80800917 	ldw	r2,36(r16)
 20100c8:	81400717 	ldw	r5,28(r16)
 20100cc:	a809883a 	mov	r4,r21
 20100d0:	d8c00115 	stw	r3,4(sp)
 20100d4:	e00d883a 	mov	r6,fp
 20100d8:	103ee83a 	callr	r2
 20100dc:	1029883a 	mov	r20,r2
 20100e0:	d8c00117 	ldw	r3,4(sp)
 20100e4:	00bfe10e 	bge	zero,r2,201006c <__reset+0xfe00706c>
 20100e8:	b52dc83a 	sub	r22,r22,r20
 20100ec:	b0001f26 	beq	r22,zero,201016c <__sfvwrite_r+0x2c4>
 20100f0:	98800217 	ldw	r2,8(r19)
 20100f4:	e539883a 	add	fp,fp,r20
 20100f8:	9525c83a 	sub	r18,r18,r20
 20100fc:	1529c83a 	sub	r20,r2,r20
 2010100:	9d000215 	stw	r20,8(r19)
 2010104:	a03f9326 	beq	r20,zero,200ff54 <__reset+0xfe006f54>
 2010108:	903fe11e 	bne	r18,zero,2010090 <__reset+0xfe007090>
 201010c:	8f000017 	ldw	fp,0(r17)
 2010110:	8c800117 	ldw	r18,4(r17)
 2010114:	0007883a 	mov	r3,zero
 2010118:	8c400204 	addi	r17,r17,8
 201011c:	003fdb06 	br	201008c <__reset+0xfe00708c>
 2010120:	400d883a 	mov	r6,r8
 2010124:	e00b883a 	mov	r5,fp
 2010128:	d8c00115 	stw	r3,4(sp)
 201012c:	da000015 	stw	r8,0(sp)
 2010130:	200d35c0 	call	200d35c <memmove>
 2010134:	da000017 	ldw	r8,0(sp)
 2010138:	80800017 	ldw	r2,0(r16)
 201013c:	a809883a 	mov	r4,r21
 2010140:	800b883a 	mov	r5,r16
 2010144:	1205883a 	add	r2,r2,r8
 2010148:	80800015 	stw	r2,0(r16)
 201014c:	da000015 	stw	r8,0(sp)
 2010150:	2006ff00 	call	2006ff0 <_fflush_r>
 2010154:	d8c00117 	ldw	r3,4(sp)
 2010158:	da000017 	ldw	r8,0(sp)
 201015c:	103fc31e 	bne	r2,zero,201006c <__reset+0xfe00706c>
 2010160:	4029883a 	mov	r20,r8
 2010164:	b52dc83a 	sub	r22,r22,r20
 2010168:	b03fe11e 	bne	r22,zero,20100f0 <__reset+0xfe0070f0>
 201016c:	a809883a 	mov	r4,r21
 2010170:	800b883a 	mov	r5,r16
 2010174:	2006ff00 	call	2006ff0 <_fflush_r>
 2010178:	103fbc1e 	bne	r2,zero,201006c <__reset+0xfe00706c>
 201017c:	0007883a 	mov	r3,zero
 2010180:	003fdb06 	br	20100f0 <__reset+0xfe0070f0>
 2010184:	81000017 	ldw	r4,0(r16)
 2010188:	80800417 	ldw	r2,16(r16)
 201018c:	1100012e 	bgeu	r2,r4,2010194 <__sfvwrite_r+0x2ec>
 2010190:	a4805836 	bltu	r20,r18,20102f4 <__sfvwrite_r+0x44c>
 2010194:	81c00517 	ldw	r7,20(r16)
 2010198:	91c01a36 	bltu	r18,r7,2010204 <__sfvwrite_r+0x35c>
 201019c:	80800917 	ldw	r2,36(r16)
 20101a0:	81400717 	ldw	r5,28(r16)
 20101a4:	a809883a 	mov	r4,r21
 20101a8:	b00d883a 	mov	r6,r22
 20101ac:	103ee83a 	callr	r2
 20101b0:	1029883a 	mov	r20,r2
 20101b4:	00bfad0e 	bge	zero,r2,201006c <__reset+0xfe00706c>
 20101b8:	a005883a 	mov	r2,r20
 20101bc:	003f9306 	br	201000c <__reset+0xfe00700c>
 20101c0:	b80d883a 	mov	r6,r23
 20101c4:	e00b883a 	mov	r5,fp
 20101c8:	d8c00115 	stw	r3,4(sp)
 20101cc:	200d35c0 	call	200d35c <memmove>
 20101d0:	80800217 	ldw	r2,8(r16)
 20101d4:	81000017 	ldw	r4,0(r16)
 20101d8:	d8c00117 	ldw	r3,4(sp)
 20101dc:	15c5c83a 	sub	r2,r2,r23
 20101e0:	25ef883a 	add	r23,r4,r23
 20101e4:	80800215 	stw	r2,8(r16)
 20101e8:	85c00015 	stw	r23,0(r16)
 20101ec:	003fbe06 	br	20100e8 <__reset+0xfe0070e8>
 20101f0:	81000017 	ldw	r4,0(r16)
 20101f4:	9039883a 	mov	fp,r18
 20101f8:	9029883a 	mov	r20,r18
 20101fc:	902f883a 	mov	r23,r18
 2010200:	003f7806 	br	200ffe4 <__reset+0xfe006fe4>
 2010204:	b00b883a 	mov	r5,r22
 2010208:	900d883a 	mov	r6,r18
 201020c:	200d35c0 	call	200d35c <memmove>
 2010210:	80c00217 	ldw	r3,8(r16)
 2010214:	80800017 	ldw	r2,0(r16)
 2010218:	9029883a 	mov	r20,r18
 201021c:	1c87c83a 	sub	r3,r3,r18
 2010220:	1485883a 	add	r2,r2,r18
 2010224:	80800015 	stw	r2,0(r16)
 2010228:	80c00215 	stw	r3,8(r16)
 201022c:	9005883a 	mov	r2,r18
 2010230:	003f7606 	br	201000c <__reset+0xfe00700c>
 2010234:	e009883a 	mov	r4,fp
 2010238:	01400284 	movi	r5,10
 201023c:	900d883a 	mov	r6,r18
 2010240:	200d2740 	call	200d274 <memchr>
 2010244:	10003926 	beq	r2,zero,201032c <__sfvwrite_r+0x484>
 2010248:	15800044 	addi	r22,r2,1
 201024c:	b72dc83a 	sub	r22,r22,fp
 2010250:	00c00044 	movi	r3,1
 2010254:	003f8f06 	br	2010094 <__reset+0xfe007094>
 2010258:	81000517 	ldw	r4,20(r16)
 201025c:	81400417 	ldw	r5,16(r16)
 2010260:	80c00017 	ldw	r3,0(r16)
 2010264:	210d883a 	add	r6,r4,r4
 2010268:	3109883a 	add	r4,r6,r4
 201026c:	2028d7fa 	srli	r20,r4,31
 2010270:	196fc83a 	sub	r23,r3,r5
 2010274:	b9800044 	addi	r6,r23,1
 2010278:	a109883a 	add	r4,r20,r4
 201027c:	2029d07a 	srai	r20,r4,1
 2010280:	348d883a 	add	r6,r6,r18
 2010284:	a180272e 	bgeu	r20,r6,2010324 <__sfvwrite_r+0x47c>
 2010288:	3029883a 	mov	r20,r6
 201028c:	1081000c 	andi	r2,r2,1024
 2010290:	a809883a 	mov	r4,r21
 2010294:	103f6d26 	beq	r2,zero,201004c <__reset+0xfe00704c>
 2010298:	300b883a 	mov	r5,r6
 201029c:	2007ec40 	call	2007ec4 <_malloc_r>
 20102a0:	1039883a 	mov	fp,r2
 20102a4:	103f6f26 	beq	r2,zero,2010064 <__reset+0xfe007064>
 20102a8:	81400417 	ldw	r5,16(r16)
 20102ac:	1009883a 	mov	r4,r2
 20102b0:	b80d883a 	mov	r6,r23
 20102b4:	20087040 	call	2008704 <memcpy>
 20102b8:	8080030b 	ldhu	r2,12(r16)
 20102bc:	00fedfc4 	movi	r3,-1153
 20102c0:	10c4703a 	and	r2,r2,r3
 20102c4:	10802014 	ori	r2,r2,128
 20102c8:	8080030d 	sth	r2,12(r16)
 20102cc:	e5c9883a 	add	r4,fp,r23
 20102d0:	a5c7c83a 	sub	r3,r20,r23
 20102d4:	87000415 	stw	fp,16(r16)
 20102d8:	85000515 	stw	r20,20(r16)
 20102dc:	81000015 	stw	r4,0(r16)
 20102e0:	9039883a 	mov	fp,r18
 20102e4:	80c00215 	stw	r3,8(r16)
 20102e8:	9029883a 	mov	r20,r18
 20102ec:	902f883a 	mov	r23,r18
 20102f0:	003f3c06 	br	200ffe4 <__reset+0xfe006fe4>
 20102f4:	b00b883a 	mov	r5,r22
 20102f8:	a00d883a 	mov	r6,r20
 20102fc:	200d35c0 	call	200d35c <memmove>
 2010300:	80800017 	ldw	r2,0(r16)
 2010304:	a809883a 	mov	r4,r21
 2010308:	800b883a 	mov	r5,r16
 201030c:	1505883a 	add	r2,r2,r20
 2010310:	80800015 	stw	r2,0(r16)
 2010314:	2006ff00 	call	2006ff0 <_fflush_r>
 2010318:	103f541e 	bne	r2,zero,201006c <__reset+0xfe00706c>
 201031c:	a005883a 	mov	r2,r20
 2010320:	003f3a06 	br	201000c <__reset+0xfe00700c>
 2010324:	a00d883a 	mov	r6,r20
 2010328:	003fd806 	br	201028c <__reset+0xfe00728c>
 201032c:	95800044 	addi	r22,r18,1
 2010330:	00c00044 	movi	r3,1
 2010334:	003f5706 	br	2010094 <__reset+0xfe007094>
 2010338:	80c0030b 	ldhu	r3,12(r16)
 201033c:	00bfffc4 	movi	r2,-1
 2010340:	18c01014 	ori	r3,r3,64
 2010344:	80c0030d 	sth	r3,12(r16)
 2010348:	00c00244 	movi	r3,9
 201034c:	a8c00015 	stw	r3,0(r21)
 2010350:	003f0106 	br	200ff58 <__reset+0xfe006f58>

02010354 <_isatty_r>:
 2010354:	defffd04 	addi	sp,sp,-12
 2010358:	dc400115 	stw	r17,4(sp)
 201035c:	dc000015 	stw	r16,0(sp)
 2010360:	2023883a 	mov	r17,r4
 2010364:	040080b4 	movhi	r16,514
 2010368:	84037904 	addi	r16,r16,3556
 201036c:	2809883a 	mov	r4,r5
 2010370:	dfc00215 	stw	ra,8(sp)
 2010374:	80000015 	stw	zero,0(r16)
 2010378:	2012ba80 	call	2012ba8 <isatty>
 201037c:	00ffffc4 	movi	r3,-1
 2010380:	10c00526 	beq	r2,r3,2010398 <_isatty_r+0x44>
 2010384:	dfc00217 	ldw	ra,8(sp)
 2010388:	dc400117 	ldw	r17,4(sp)
 201038c:	dc000017 	ldw	r16,0(sp)
 2010390:	dec00304 	addi	sp,sp,12
 2010394:	f800283a 	ret
 2010398:	80c00017 	ldw	r3,0(r16)
 201039c:	183ff926 	beq	r3,zero,2010384 <__reset+0xfe007384>
 20103a0:	88c00015 	stw	r3,0(r17)
 20103a4:	dfc00217 	ldw	ra,8(sp)
 20103a8:	dc400117 	ldw	r17,4(sp)
 20103ac:	dc000017 	ldw	r16,0(sp)
 20103b0:	dec00304 	addi	sp,sp,12
 20103b4:	f800283a 	ret

020103b8 <__swbuf_r>:
 20103b8:	defffc04 	addi	sp,sp,-16
 20103bc:	dc800215 	stw	r18,8(sp)
 20103c0:	dc400115 	stw	r17,4(sp)
 20103c4:	dc000015 	stw	r16,0(sp)
 20103c8:	dfc00315 	stw	ra,12(sp)
 20103cc:	2023883a 	mov	r17,r4
 20103d0:	2825883a 	mov	r18,r5
 20103d4:	3021883a 	mov	r16,r6
 20103d8:	20000226 	beq	r4,zero,20103e4 <__swbuf_r+0x2c>
 20103dc:	20800e17 	ldw	r2,56(r4)
 20103e0:	10004d26 	beq	r2,zero,2010518 <__swbuf_r+0x160>
 20103e4:	80800617 	ldw	r2,24(r16)
 20103e8:	80c0030b 	ldhu	r3,12(r16)
 20103ec:	80800215 	stw	r2,8(r16)
 20103f0:	1880020c 	andi	r2,r3,8
 20103f4:	10004126 	beq	r2,zero,20104fc <__swbuf_r+0x144>
 20103f8:	80800417 	ldw	r2,16(r16)
 20103fc:	10003f26 	beq	r2,zero,20104fc <__swbuf_r+0x144>
 2010400:	1908000c 	andi	r4,r3,8192
 2010404:	94803fcc 	andi	r18,r18,255
 2010408:	20001726 	beq	r4,zero,2010468 <__swbuf_r+0xb0>
 201040c:	80c00017 	ldw	r3,0(r16)
 2010410:	81000517 	ldw	r4,20(r16)
 2010414:	1885c83a 	sub	r2,r3,r2
 2010418:	11001d0e 	bge	r2,r4,2010490 <__swbuf_r+0xd8>
 201041c:	81000217 	ldw	r4,8(r16)
 2010420:	19400044 	addi	r5,r3,1
 2010424:	81400015 	stw	r5,0(r16)
 2010428:	213fffc4 	addi	r4,r4,-1
 201042c:	81000215 	stw	r4,8(r16)
 2010430:	1c800005 	stb	r18,0(r3)
 2010434:	80c00517 	ldw	r3,20(r16)
 2010438:	10800044 	addi	r2,r2,1
 201043c:	18802226 	beq	r3,r2,20104c8 <__swbuf_r+0x110>
 2010440:	8080030b 	ldhu	r2,12(r16)
 2010444:	1080004c 	andi	r2,r2,1
 2010448:	1000251e 	bne	r2,zero,20104e0 <__swbuf_r+0x128>
 201044c:	9005883a 	mov	r2,r18
 2010450:	dfc00317 	ldw	ra,12(sp)
 2010454:	dc800217 	ldw	r18,8(sp)
 2010458:	dc400117 	ldw	r17,4(sp)
 201045c:	dc000017 	ldw	r16,0(sp)
 2010460:	dec00404 	addi	sp,sp,16
 2010464:	f800283a 	ret
 2010468:	81401917 	ldw	r5,100(r16)
 201046c:	18c80014 	ori	r3,r3,8192
 2010470:	0137ffc4 	movi	r4,-8193
 2010474:	2908703a 	and	r4,r5,r4
 2010478:	80c0030d 	sth	r3,12(r16)
 201047c:	80c00017 	ldw	r3,0(r16)
 2010480:	81001915 	stw	r4,100(r16)
 2010484:	81000517 	ldw	r4,20(r16)
 2010488:	1885c83a 	sub	r2,r3,r2
 201048c:	113fe316 	blt	r2,r4,201041c <__reset+0xfe00741c>
 2010490:	8809883a 	mov	r4,r17
 2010494:	800b883a 	mov	r5,r16
 2010498:	2006ff00 	call	2006ff0 <_fflush_r>
 201049c:	10000e1e 	bne	r2,zero,20104d8 <__swbuf_r+0x120>
 20104a0:	80c00017 	ldw	r3,0(r16)
 20104a4:	81000217 	ldw	r4,8(r16)
 20104a8:	00800044 	movi	r2,1
 20104ac:	19400044 	addi	r5,r3,1
 20104b0:	213fffc4 	addi	r4,r4,-1
 20104b4:	81400015 	stw	r5,0(r16)
 20104b8:	81000215 	stw	r4,8(r16)
 20104bc:	1c800005 	stb	r18,0(r3)
 20104c0:	80c00517 	ldw	r3,20(r16)
 20104c4:	18bfde1e 	bne	r3,r2,2010440 <__reset+0xfe007440>
 20104c8:	8809883a 	mov	r4,r17
 20104cc:	800b883a 	mov	r5,r16
 20104d0:	2006ff00 	call	2006ff0 <_fflush_r>
 20104d4:	103fdd26 	beq	r2,zero,201044c <__reset+0xfe00744c>
 20104d8:	00bfffc4 	movi	r2,-1
 20104dc:	003fdc06 	br	2010450 <__reset+0xfe007450>
 20104e0:	00800284 	movi	r2,10
 20104e4:	90bfd91e 	bne	r18,r2,201044c <__reset+0xfe00744c>
 20104e8:	8809883a 	mov	r4,r17
 20104ec:	800b883a 	mov	r5,r16
 20104f0:	2006ff00 	call	2006ff0 <_fflush_r>
 20104f4:	103fd526 	beq	r2,zero,201044c <__reset+0xfe00744c>
 20104f8:	003ff706 	br	20104d8 <__reset+0xfe0074d8>
 20104fc:	8809883a 	mov	r4,r17
 2010500:	800b883a 	mov	r5,r16
 2010504:	200b5800 	call	200b580 <__swsetup_r>
 2010508:	80c0030b 	ldhu	r3,12(r16)
 201050c:	1000041e 	bne	r2,zero,2010520 <__swbuf_r+0x168>
 2010510:	80800417 	ldw	r2,16(r16)
 2010514:	003fba06 	br	2010400 <__reset+0xfe007400>
 2010518:	20073100 	call	2007310 <__sinit>
 201051c:	003fb106 	br	20103e4 <__reset+0xfe0073e4>
 2010520:	18c01014 	ori	r3,r3,64
 2010524:	80c0030d 	sth	r3,12(r16)
 2010528:	00c00244 	movi	r3,9
 201052c:	00bfffc4 	movi	r2,-1
 2010530:	88c00015 	stw	r3,0(r17)
 2010534:	003fc606 	br	2010450 <__reset+0xfe007450>

02010538 <__swbuf>:
 2010538:	00c080b4 	movhi	r3,514
 201053c:	18c36104 	addi	r3,r3,3460
 2010540:	2005883a 	mov	r2,r4
 2010544:	19000017 	ldw	r4,0(r3)
 2010548:	280d883a 	mov	r6,r5
 201054c:	100b883a 	mov	r5,r2
 2010550:	20103b81 	jmpi	20103b8 <__swbuf_r>

02010554 <_wcrtomb_r>:
 2010554:	defff604 	addi	sp,sp,-40
 2010558:	dc800815 	stw	r18,32(sp)
 201055c:	dc400715 	stw	r17,28(sp)
 2010560:	dc000615 	stw	r16,24(sp)
 2010564:	008080b4 	movhi	r2,514
 2010568:	10836504 	addi	r2,r2,3476
 201056c:	dfc00915 	stw	ra,36(sp)
 2010570:	2021883a 	mov	r16,r4
 2010574:	3823883a 	mov	r17,r7
 2010578:	14800017 	ldw	r18,0(r2)
 201057c:	28001426 	beq	r5,zero,20105d0 <_wcrtomb_r+0x7c>
 2010580:	d9400415 	stw	r5,16(sp)
 2010584:	d9800515 	stw	r6,20(sp)
 2010588:	200cff00 	call	200cff0 <__locale_charset>
 201058c:	d9400417 	ldw	r5,16(sp)
 2010590:	d9800517 	ldw	r6,20(sp)
 2010594:	8009883a 	mov	r4,r16
 2010598:	dc400015 	stw	r17,0(sp)
 201059c:	100f883a 	mov	r7,r2
 20105a0:	903ee83a 	callr	r18
 20105a4:	00ffffc4 	movi	r3,-1
 20105a8:	10c0031e 	bne	r2,r3,20105b8 <_wcrtomb_r+0x64>
 20105ac:	88000015 	stw	zero,0(r17)
 20105b0:	00c02284 	movi	r3,138
 20105b4:	80c00015 	stw	r3,0(r16)
 20105b8:	dfc00917 	ldw	ra,36(sp)
 20105bc:	dc800817 	ldw	r18,32(sp)
 20105c0:	dc400717 	ldw	r17,28(sp)
 20105c4:	dc000617 	ldw	r16,24(sp)
 20105c8:	dec00a04 	addi	sp,sp,40
 20105cc:	f800283a 	ret
 20105d0:	200cff00 	call	200cff0 <__locale_charset>
 20105d4:	8009883a 	mov	r4,r16
 20105d8:	dc400015 	stw	r17,0(sp)
 20105dc:	d9400104 	addi	r5,sp,4
 20105e0:	000d883a 	mov	r6,zero
 20105e4:	100f883a 	mov	r7,r2
 20105e8:	903ee83a 	callr	r18
 20105ec:	003fed06 	br	20105a4 <__reset+0xfe0075a4>

020105f0 <wcrtomb>:
 20105f0:	defff504 	addi	sp,sp,-44
 20105f4:	dc400515 	stw	r17,20(sp)
 20105f8:	dc000415 	stw	r16,16(sp)
 20105fc:	dfc00a15 	stw	ra,40(sp)
 2010600:	dd400915 	stw	r21,36(sp)
 2010604:	dd000815 	stw	r20,32(sp)
 2010608:	dcc00715 	stw	r19,28(sp)
 201060c:	dc800615 	stw	r18,24(sp)
 2010610:	2021883a 	mov	r16,r4
 2010614:	3023883a 	mov	r17,r6
 2010618:	20001d26 	beq	r4,zero,2010690 <wcrtomb+0xa0>
 201061c:	048080b4 	movhi	r18,514
 2010620:	94836104 	addi	r18,r18,3460
 2010624:	95400017 	ldw	r21,0(r18)
 2010628:	008080b4 	movhi	r2,514
 201062c:	10836504 	addi	r2,r2,3476
 2010630:	15000017 	ldw	r20,0(r2)
 2010634:	2827883a 	mov	r19,r5
 2010638:	200cff00 	call	200cff0 <__locale_charset>
 201063c:	a809883a 	mov	r4,r21
 2010640:	dc400015 	stw	r17,0(sp)
 2010644:	800b883a 	mov	r5,r16
 2010648:	980d883a 	mov	r6,r19
 201064c:	100f883a 	mov	r7,r2
 2010650:	a03ee83a 	callr	r20
 2010654:	00ffffc4 	movi	r3,-1
 2010658:	10c0041e 	bne	r2,r3,201066c <wcrtomb+0x7c>
 201065c:	90c00017 	ldw	r3,0(r18)
 2010660:	01002284 	movi	r4,138
 2010664:	88000015 	stw	zero,0(r17)
 2010668:	19000015 	stw	r4,0(r3)
 201066c:	dfc00a17 	ldw	ra,40(sp)
 2010670:	dd400917 	ldw	r21,36(sp)
 2010674:	dd000817 	ldw	r20,32(sp)
 2010678:	dcc00717 	ldw	r19,28(sp)
 201067c:	dc800617 	ldw	r18,24(sp)
 2010680:	dc400517 	ldw	r17,20(sp)
 2010684:	dc000417 	ldw	r16,16(sp)
 2010688:	dec00b04 	addi	sp,sp,44
 201068c:	f800283a 	ret
 2010690:	048080b4 	movhi	r18,514
 2010694:	94836104 	addi	r18,r18,3460
 2010698:	94c00017 	ldw	r19,0(r18)
 201069c:	008080b4 	movhi	r2,514
 20106a0:	10836504 	addi	r2,r2,3476
 20106a4:	14000017 	ldw	r16,0(r2)
 20106a8:	200cff00 	call	200cff0 <__locale_charset>
 20106ac:	9809883a 	mov	r4,r19
 20106b0:	dc400015 	stw	r17,0(sp)
 20106b4:	d9400104 	addi	r5,sp,4
 20106b8:	000d883a 	mov	r6,zero
 20106bc:	100f883a 	mov	r7,r2
 20106c0:	803ee83a 	callr	r16
 20106c4:	003fe306 	br	2010654 <__reset+0xfe007654>

020106c8 <__ascii_wctomb>:
 20106c8:	28000526 	beq	r5,zero,20106e0 <__ascii_wctomb+0x18>
 20106cc:	00803fc4 	movi	r2,255
 20106d0:	11800536 	bltu	r2,r6,20106e8 <__ascii_wctomb+0x20>
 20106d4:	29800005 	stb	r6,0(r5)
 20106d8:	00800044 	movi	r2,1
 20106dc:	f800283a 	ret
 20106e0:	0005883a 	mov	r2,zero
 20106e4:	f800283a 	ret
 20106e8:	00802284 	movi	r2,138
 20106ec:	20800015 	stw	r2,0(r4)
 20106f0:	00bfffc4 	movi	r2,-1
 20106f4:	f800283a 	ret

020106f8 <_wctomb_r>:
 20106f8:	defff904 	addi	sp,sp,-28
 20106fc:	008080b4 	movhi	r2,514
 2010700:	10836504 	addi	r2,r2,3476
 2010704:	dfc00615 	stw	ra,24(sp)
 2010708:	dc400515 	stw	r17,20(sp)
 201070c:	dc000415 	stw	r16,16(sp)
 2010710:	3823883a 	mov	r17,r7
 2010714:	14000017 	ldw	r16,0(r2)
 2010718:	d9000115 	stw	r4,4(sp)
 201071c:	d9400215 	stw	r5,8(sp)
 2010720:	d9800315 	stw	r6,12(sp)
 2010724:	200cff00 	call	200cff0 <__locale_charset>
 2010728:	d9000117 	ldw	r4,4(sp)
 201072c:	d9400217 	ldw	r5,8(sp)
 2010730:	d9800317 	ldw	r6,12(sp)
 2010734:	dc400015 	stw	r17,0(sp)
 2010738:	100f883a 	mov	r7,r2
 201073c:	803ee83a 	callr	r16
 2010740:	dfc00617 	ldw	ra,24(sp)
 2010744:	dc400517 	ldw	r17,20(sp)
 2010748:	dc000417 	ldw	r16,16(sp)
 201074c:	dec00704 	addi	sp,sp,28
 2010750:	f800283a 	ret

02010754 <__udivdi3>:
 2010754:	defff504 	addi	sp,sp,-44
 2010758:	dc800315 	stw	r18,12(sp)
 201075c:	dc400215 	stw	r17,8(sp)
 2010760:	dfc00a15 	stw	ra,40(sp)
 2010764:	df000915 	stw	fp,36(sp)
 2010768:	ddc00815 	stw	r23,32(sp)
 201076c:	dd800715 	stw	r22,28(sp)
 2010770:	dd400615 	stw	r21,24(sp)
 2010774:	dd000515 	stw	r20,20(sp)
 2010778:	dcc00415 	stw	r19,16(sp)
 201077c:	dc000115 	stw	r16,4(sp)
 2010780:	2025883a 	mov	r18,r4
 2010784:	2823883a 	mov	r17,r5
 2010788:	3800481e 	bne	r7,zero,20108ac <__udivdi3+0x158>
 201078c:	3021883a 	mov	r16,r6
 2010790:	2027883a 	mov	r19,r4
 2010794:	29805a2e 	bgeu	r5,r6,2010900 <__udivdi3+0x1ac>
 2010798:	00bfffd4 	movui	r2,65535
 201079c:	2829883a 	mov	r20,r5
 20107a0:	1180b436 	bltu	r2,r6,2010a74 <__udivdi3+0x320>
 20107a4:	00803fc4 	movi	r2,255
 20107a8:	11816736 	bltu	r2,r6,2010d48 <__udivdi3+0x5f4>
 20107ac:	0005883a 	mov	r2,zero
 20107b0:	0007883a 	mov	r3,zero
 20107b4:	3084d83a 	srl	r2,r6,r2
 20107b8:	010080b4 	movhi	r4,514
 20107bc:	213b7404 	addi	r4,r4,-4656
 20107c0:	2085883a 	add	r2,r4,r2
 20107c4:	10800003 	ldbu	r2,0(r2)
 20107c8:	10c7883a 	add	r3,r2,r3
 20107cc:	00800804 	movi	r2,32
 20107d0:	10c5c83a 	sub	r2,r2,r3
 20107d4:	10000526 	beq	r2,zero,20107ec <__udivdi3+0x98>
 20107d8:	88a2983a 	sll	r17,r17,r2
 20107dc:	90c6d83a 	srl	r3,r18,r3
 20107e0:	30a0983a 	sll	r16,r6,r2
 20107e4:	90a6983a 	sll	r19,r18,r2
 20107e8:	88e8b03a 	or	r20,r17,r3
 20107ec:	8022d43a 	srli	r17,r16,16
 20107f0:	a009883a 	mov	r4,r20
 20107f4:	857fffcc 	andi	r21,r16,65535
 20107f8:	880b883a 	mov	r5,r17
 20107fc:	20059180 	call	2005918 <__umodsi3>
 2010800:	a009883a 	mov	r4,r20
 2010804:	880b883a 	mov	r5,r17
 2010808:	102d883a 	mov	r22,r2
 201080c:	20059100 	call	2005910 <__udivsi3>
 2010810:	1009883a 	mov	r4,r2
 2010814:	a80b883a 	mov	r5,r21
 2010818:	1025883a 	mov	r18,r2
 201081c:	20059200 	call	2005920 <__mulsi3>
 2010820:	1009883a 	mov	r4,r2
 2010824:	b006943a 	slli	r3,r22,16
 2010828:	9804d43a 	srli	r2,r19,16
 201082c:	1886b03a 	or	r3,r3,r2
 2010830:	1900052e 	bgeu	r3,r4,2010848 <__udivdi3+0xf4>
 2010834:	1c07883a 	add	r3,r3,r16
 2010838:	90bfffc4 	addi	r2,r18,-1
 201083c:	1c000136 	bltu	r3,r16,2010844 <__udivdi3+0xf0>
 2010840:	19015636 	bltu	r3,r4,2010d9c <__udivdi3+0x648>
 2010844:	1025883a 	mov	r18,r2
 2010848:	1929c83a 	sub	r20,r3,r4
 201084c:	880b883a 	mov	r5,r17
 2010850:	a009883a 	mov	r4,r20
 2010854:	20059180 	call	2005918 <__umodsi3>
 2010858:	102d883a 	mov	r22,r2
 201085c:	880b883a 	mov	r5,r17
 2010860:	a009883a 	mov	r4,r20
 2010864:	b02c943a 	slli	r22,r22,16
 2010868:	20059100 	call	2005910 <__udivsi3>
 201086c:	1009883a 	mov	r4,r2
 2010870:	a80b883a 	mov	r5,r21
 2010874:	9cffffcc 	andi	r19,r19,65535
 2010878:	1023883a 	mov	r17,r2
 201087c:	b4e6b03a 	or	r19,r22,r19
 2010880:	20059200 	call	2005920 <__mulsi3>
 2010884:	9880052e 	bgeu	r19,r2,201089c <__udivdi3+0x148>
 2010888:	9c27883a 	add	r19,r19,r16
 201088c:	88ffffc4 	addi	r3,r17,-1
 2010890:	9c011436 	bltu	r19,r16,2010ce4 <__udivdi3+0x590>
 2010894:	9881132e 	bgeu	r19,r2,2010ce4 <__udivdi3+0x590>
 2010898:	8c7fff84 	addi	r17,r17,-2
 201089c:	9024943a 	slli	r18,r18,16
 20108a0:	0007883a 	mov	r3,zero
 20108a4:	8c84b03a 	or	r2,r17,r18
 20108a8:	00006106 	br	2010a30 <__udivdi3+0x2dc>
 20108ac:	29c05e36 	bltu	r5,r7,2010a28 <__udivdi3+0x2d4>
 20108b0:	00bfffd4 	movui	r2,65535
 20108b4:	11c06a2e 	bgeu	r2,r7,2010a60 <__udivdi3+0x30c>
 20108b8:	00804034 	movhi	r2,256
 20108bc:	10bfffc4 	addi	r2,r2,-1
 20108c0:	11c11236 	bltu	r2,r7,2010d0c <__udivdi3+0x5b8>
 20108c4:	00c00404 	movi	r3,16
 20108c8:	180b883a 	mov	r5,r3
 20108cc:	38c6d83a 	srl	r3,r7,r3
 20108d0:	010080b4 	movhi	r4,514
 20108d4:	213b7404 	addi	r4,r4,-4656
 20108d8:	04000804 	movi	r16,32
 20108dc:	20c7883a 	add	r3,r4,r3
 20108e0:	18800003 	ldbu	r2,0(r3)
 20108e4:	1145883a 	add	r2,r2,r5
 20108e8:	80a1c83a 	sub	r16,r16,r2
 20108ec:	80006c1e 	bne	r16,zero,2010aa0 <__udivdi3+0x34c>
 20108f0:	3c411836 	bltu	r7,r17,2010d54 <__udivdi3+0x600>
 20108f4:	9185403a 	cmpgeu	r2,r18,r6
 20108f8:	0007883a 	mov	r3,zero
 20108fc:	00004c06 	br	2010a30 <__udivdi3+0x2dc>
 2010900:	3000041e 	bne	r6,zero,2010914 <__udivdi3+0x1c0>
 2010904:	01000044 	movi	r4,1
 2010908:	000b883a 	mov	r5,zero
 201090c:	20059100 	call	2005910 <__udivsi3>
 2010910:	1021883a 	mov	r16,r2
 2010914:	00bfffd4 	movui	r2,65535
 2010918:	14005c2e 	bgeu	r2,r16,2010a8c <__udivdi3+0x338>
 201091c:	00804034 	movhi	r2,256
 2010920:	10bfffc4 	addi	r2,r2,-1
 2010924:	14010236 	bltu	r2,r16,2010d30 <__udivdi3+0x5dc>
 2010928:	00800404 	movi	r2,16
 201092c:	1007883a 	mov	r3,r2
 2010930:	8084d83a 	srl	r2,r16,r2
 2010934:	010080b4 	movhi	r4,514
 2010938:	213b7404 	addi	r4,r4,-4656
 201093c:	2085883a 	add	r2,r4,r2
 2010940:	10800003 	ldbu	r2,0(r2)
 2010944:	10c7883a 	add	r3,r2,r3
 2010948:	00800804 	movi	r2,32
 201094c:	10c5c83a 	sub	r2,r2,r3
 2010950:	1000aa1e 	bne	r2,zero,2010bfc <__udivdi3+0x4a8>
 2010954:	8028d43a 	srli	r20,r16,16
 2010958:	8c23c83a 	sub	r17,r17,r16
 201095c:	857fffcc 	andi	r21,r16,65535
 2010960:	00c00044 	movi	r3,1
 2010964:	8809883a 	mov	r4,r17
 2010968:	a00b883a 	mov	r5,r20
 201096c:	d8c00015 	stw	r3,0(sp)
 2010970:	20059180 	call	2005918 <__umodsi3>
 2010974:	8809883a 	mov	r4,r17
 2010978:	a00b883a 	mov	r5,r20
 201097c:	102d883a 	mov	r22,r2
 2010980:	20059100 	call	2005910 <__udivsi3>
 2010984:	1009883a 	mov	r4,r2
 2010988:	a80b883a 	mov	r5,r21
 201098c:	1025883a 	mov	r18,r2
 2010990:	20059200 	call	2005920 <__mulsi3>
 2010994:	1009883a 	mov	r4,r2
 2010998:	b00e943a 	slli	r7,r22,16
 201099c:	9804d43a 	srli	r2,r19,16
 20109a0:	d8c00017 	ldw	r3,0(sp)
 20109a4:	388eb03a 	or	r7,r7,r2
 20109a8:	3900052e 	bgeu	r7,r4,20109c0 <__udivdi3+0x26c>
 20109ac:	3c0f883a 	add	r7,r7,r16
 20109b0:	90bfffc4 	addi	r2,r18,-1
 20109b4:	3c000136 	bltu	r7,r16,20109bc <__udivdi3+0x268>
 20109b8:	3900f536 	bltu	r7,r4,2010d90 <__udivdi3+0x63c>
 20109bc:	1025883a 	mov	r18,r2
 20109c0:	3923c83a 	sub	r17,r7,r4
 20109c4:	8809883a 	mov	r4,r17
 20109c8:	a00b883a 	mov	r5,r20
 20109cc:	d8c00015 	stw	r3,0(sp)
 20109d0:	20059180 	call	2005918 <__umodsi3>
 20109d4:	102d883a 	mov	r22,r2
 20109d8:	8809883a 	mov	r4,r17
 20109dc:	a00b883a 	mov	r5,r20
 20109e0:	b02c943a 	slli	r22,r22,16
 20109e4:	20059100 	call	2005910 <__udivsi3>
 20109e8:	1009883a 	mov	r4,r2
 20109ec:	a80b883a 	mov	r5,r21
 20109f0:	9cffffcc 	andi	r19,r19,65535
 20109f4:	1023883a 	mov	r17,r2
 20109f8:	b4e6b03a 	or	r19,r22,r19
 20109fc:	20059200 	call	2005920 <__mulsi3>
 2010a00:	d8c00017 	ldw	r3,0(sp)
 2010a04:	9880052e 	bgeu	r19,r2,2010a1c <__udivdi3+0x2c8>
 2010a08:	9c27883a 	add	r19,r19,r16
 2010a0c:	893fffc4 	addi	r4,r17,-1
 2010a10:	9c00b236 	bltu	r19,r16,2010cdc <__udivdi3+0x588>
 2010a14:	9880b12e 	bgeu	r19,r2,2010cdc <__udivdi3+0x588>
 2010a18:	8c7fff84 	addi	r17,r17,-2
 2010a1c:	9024943a 	slli	r18,r18,16
 2010a20:	8c84b03a 	or	r2,r17,r18
 2010a24:	00000206 	br	2010a30 <__udivdi3+0x2dc>
 2010a28:	0007883a 	mov	r3,zero
 2010a2c:	0005883a 	mov	r2,zero
 2010a30:	dfc00a17 	ldw	ra,40(sp)
 2010a34:	df000917 	ldw	fp,36(sp)
 2010a38:	ddc00817 	ldw	r23,32(sp)
 2010a3c:	dd800717 	ldw	r22,28(sp)
 2010a40:	dd400617 	ldw	r21,24(sp)
 2010a44:	dd000517 	ldw	r20,20(sp)
 2010a48:	dcc00417 	ldw	r19,16(sp)
 2010a4c:	dc800317 	ldw	r18,12(sp)
 2010a50:	dc400217 	ldw	r17,8(sp)
 2010a54:	dc000117 	ldw	r16,4(sp)
 2010a58:	dec00b04 	addi	sp,sp,44
 2010a5c:	f800283a 	ret
 2010a60:	00803fc4 	movi	r2,255
 2010a64:	11c0ac36 	bltu	r2,r7,2010d18 <__udivdi3+0x5c4>
 2010a68:	0007883a 	mov	r3,zero
 2010a6c:	000b883a 	mov	r5,zero
 2010a70:	003f9606 	br	20108cc <__reset+0xfe0078cc>
 2010a74:	00804034 	movhi	r2,256
 2010a78:	10bfffc4 	addi	r2,r2,-1
 2010a7c:	1180a936 	bltu	r2,r6,2010d24 <__udivdi3+0x5d0>
 2010a80:	00800404 	movi	r2,16
 2010a84:	1007883a 	mov	r3,r2
 2010a88:	003f4a06 	br	20107b4 <__reset+0xfe0077b4>
 2010a8c:	00803fc4 	movi	r2,255
 2010a90:	1400aa36 	bltu	r2,r16,2010d3c <__udivdi3+0x5e8>
 2010a94:	0005883a 	mov	r2,zero
 2010a98:	0007883a 	mov	r3,zero
 2010a9c:	003fa406 	br	2010930 <__reset+0xfe007930>
 2010aa0:	3c0e983a 	sll	r7,r7,r16
 2010aa4:	3086d83a 	srl	r3,r6,r2
 2010aa8:	88aed83a 	srl	r23,r17,r2
 2010aac:	9084d83a 	srl	r2,r18,r2
 2010ab0:	38e6b03a 	or	r19,r7,r3
 2010ab4:	9828d43a 	srli	r20,r19,16
 2010ab8:	8c22983a 	sll	r17,r17,r16
 2010abc:	b809883a 	mov	r4,r23
 2010ac0:	a00b883a 	mov	r5,r20
 2010ac4:	342a983a 	sll	r21,r6,r16
 2010ac8:	88a2b03a 	or	r17,r17,r2
 2010acc:	20059180 	call	2005918 <__umodsi3>
 2010ad0:	b809883a 	mov	r4,r23
 2010ad4:	a00b883a 	mov	r5,r20
 2010ad8:	1039883a 	mov	fp,r2
 2010adc:	9dbfffcc 	andi	r22,r19,65535
 2010ae0:	20059100 	call	2005910 <__udivsi3>
 2010ae4:	1009883a 	mov	r4,r2
 2010ae8:	b00b883a 	mov	r5,r22
 2010aec:	102f883a 	mov	r23,r2
 2010af0:	20059200 	call	2005920 <__mulsi3>
 2010af4:	1009883a 	mov	r4,r2
 2010af8:	e00e943a 	slli	r7,fp,16
 2010afc:	8804d43a 	srli	r2,r17,16
 2010b00:	388eb03a 	or	r7,r7,r2
 2010b04:	3900042e 	bgeu	r7,r4,2010b18 <__udivdi3+0x3c4>
 2010b08:	3ccf883a 	add	r7,r7,r19
 2010b0c:	b8bfffc4 	addi	r2,r23,-1
 2010b10:	3cc0972e 	bgeu	r7,r19,2010d70 <__udivdi3+0x61c>
 2010b14:	102f883a 	mov	r23,r2
 2010b18:	3939c83a 	sub	fp,r7,r4
 2010b1c:	a00b883a 	mov	r5,r20
 2010b20:	e009883a 	mov	r4,fp
 2010b24:	20059180 	call	2005918 <__umodsi3>
 2010b28:	a00b883a 	mov	r5,r20
 2010b2c:	e009883a 	mov	r4,fp
 2010b30:	d8800015 	stw	r2,0(sp)
 2010b34:	20059100 	call	2005910 <__udivsi3>
 2010b38:	1009883a 	mov	r4,r2
 2010b3c:	b00b883a 	mov	r5,r22
 2010b40:	1029883a 	mov	r20,r2
 2010b44:	20059200 	call	2005920 <__mulsi3>
 2010b48:	d8c00017 	ldw	r3,0(sp)
 2010b4c:	8c7fffcc 	andi	r17,r17,65535
 2010b50:	1806943a 	slli	r3,r3,16
 2010b54:	1c46b03a 	or	r3,r3,r17
 2010b58:	1880042e 	bgeu	r3,r2,2010b6c <__udivdi3+0x418>
 2010b5c:	1cc7883a 	add	r3,r3,r19
 2010b60:	a13fffc4 	addi	r4,r20,-1
 2010b64:	1cc07e2e 	bgeu	r3,r19,2010d60 <__udivdi3+0x60c>
 2010b68:	2029883a 	mov	r20,r4
 2010b6c:	b82e943a 	slli	r23,r23,16
 2010b70:	a822d43a 	srli	r17,r21,16
 2010b74:	ad7fffcc 	andi	r21,r21,65535
 2010b78:	a5e8b03a 	or	r20,r20,r23
 2010b7c:	a5bfffcc 	andi	r22,r20,65535
 2010b80:	b009883a 	mov	r4,r22
 2010b84:	a80b883a 	mov	r5,r21
 2010b88:	18afc83a 	sub	r23,r3,r2
 2010b8c:	a026d43a 	srli	r19,r20,16
 2010b90:	20059200 	call	2005920 <__mulsi3>
 2010b94:	b009883a 	mov	r4,r22
 2010b98:	880b883a 	mov	r5,r17
 2010b9c:	1039883a 	mov	fp,r2
 2010ba0:	20059200 	call	2005920 <__mulsi3>
 2010ba4:	a80b883a 	mov	r5,r21
 2010ba8:	9809883a 	mov	r4,r19
 2010bac:	102d883a 	mov	r22,r2
 2010bb0:	20059200 	call	2005920 <__mulsi3>
 2010bb4:	9809883a 	mov	r4,r19
 2010bb8:	880b883a 	mov	r5,r17
 2010bbc:	102b883a 	mov	r21,r2
 2010bc0:	20059200 	call	2005920 <__mulsi3>
 2010bc4:	100b883a 	mov	r5,r2
 2010bc8:	e004d43a 	srli	r2,fp,16
 2010bcc:	ad89883a 	add	r4,r21,r22
 2010bd0:	2089883a 	add	r4,r4,r2
 2010bd4:	2540022e 	bgeu	r4,r21,2010be0 <__udivdi3+0x48c>
 2010bd8:	00800074 	movhi	r2,1
 2010bdc:	288b883a 	add	r5,r5,r2
 2010be0:	2004d43a 	srli	r2,r4,16
 2010be4:	288b883a 	add	r5,r5,r2
 2010be8:	b9404536 	bltu	r23,r5,2010d00 <__udivdi3+0x5ac>
 2010bec:	b9403f26 	beq	r23,r5,2010cec <__udivdi3+0x598>
 2010bf0:	a005883a 	mov	r2,r20
 2010bf4:	0007883a 	mov	r3,zero
 2010bf8:	003f8d06 	br	2010a30 <__reset+0xfe007a30>
 2010bfc:	80a0983a 	sll	r16,r16,r2
 2010c00:	88eed83a 	srl	r23,r17,r3
 2010c04:	90c6d83a 	srl	r3,r18,r3
 2010c08:	8028d43a 	srli	r20,r16,16
 2010c0c:	88a2983a 	sll	r17,r17,r2
 2010c10:	b809883a 	mov	r4,r23
 2010c14:	a00b883a 	mov	r5,r20
 2010c18:	88ecb03a 	or	r22,r17,r3
 2010c1c:	90a6983a 	sll	r19,r18,r2
 2010c20:	20059180 	call	2005918 <__umodsi3>
 2010c24:	b809883a 	mov	r4,r23
 2010c28:	a00b883a 	mov	r5,r20
 2010c2c:	1023883a 	mov	r17,r2
 2010c30:	857fffcc 	andi	r21,r16,65535
 2010c34:	20059100 	call	2005910 <__udivsi3>
 2010c38:	1009883a 	mov	r4,r2
 2010c3c:	a80b883a 	mov	r5,r21
 2010c40:	102f883a 	mov	r23,r2
 2010c44:	20059200 	call	2005920 <__mulsi3>
 2010c48:	1009883a 	mov	r4,r2
 2010c4c:	880c943a 	slli	r6,r17,16
 2010c50:	b004d43a 	srli	r2,r22,16
 2010c54:	308cb03a 	or	r6,r6,r2
 2010c58:	3100062e 	bgeu	r6,r4,2010c74 <__udivdi3+0x520>
 2010c5c:	340d883a 	add	r6,r6,r16
 2010c60:	b8bfffc4 	addi	r2,r23,-1
 2010c64:	34004836 	bltu	r6,r16,2010d88 <__udivdi3+0x634>
 2010c68:	3100472e 	bgeu	r6,r4,2010d88 <__udivdi3+0x634>
 2010c6c:	bdffff84 	addi	r23,r23,-2
 2010c70:	340d883a 	add	r6,r6,r16
 2010c74:	3125c83a 	sub	r18,r6,r4
 2010c78:	9009883a 	mov	r4,r18
 2010c7c:	a00b883a 	mov	r5,r20
 2010c80:	20059180 	call	2005918 <__umodsi3>
 2010c84:	1023883a 	mov	r17,r2
 2010c88:	9009883a 	mov	r4,r18
 2010c8c:	a00b883a 	mov	r5,r20
 2010c90:	8822943a 	slli	r17,r17,16
 2010c94:	20059100 	call	2005910 <__udivsi3>
 2010c98:	1009883a 	mov	r4,r2
 2010c9c:	a80b883a 	mov	r5,r21
 2010ca0:	b5bfffcc 	andi	r22,r22,65535
 2010ca4:	1025883a 	mov	r18,r2
 2010ca8:	8da2b03a 	or	r17,r17,r22
 2010cac:	20059200 	call	2005920 <__mulsi3>
 2010cb0:	8880062e 	bgeu	r17,r2,2010ccc <__udivdi3+0x578>
 2010cb4:	8c23883a 	add	r17,r17,r16
 2010cb8:	90ffffc4 	addi	r3,r18,-1
 2010cbc:	8c003036 	bltu	r17,r16,2010d80 <__udivdi3+0x62c>
 2010cc0:	88802f2e 	bgeu	r17,r2,2010d80 <__udivdi3+0x62c>
 2010cc4:	94bfff84 	addi	r18,r18,-2
 2010cc8:	8c23883a 	add	r17,r17,r16
 2010ccc:	b806943a 	slli	r3,r23,16
 2010cd0:	88a3c83a 	sub	r17,r17,r2
 2010cd4:	90c6b03a 	or	r3,r18,r3
 2010cd8:	003f2206 	br	2010964 <__reset+0xfe007964>
 2010cdc:	2023883a 	mov	r17,r4
 2010ce0:	003f4e06 	br	2010a1c <__reset+0xfe007a1c>
 2010ce4:	1823883a 	mov	r17,r3
 2010ce8:	003eec06 	br	201089c <__reset+0xfe00789c>
 2010cec:	2008943a 	slli	r4,r4,16
 2010cf0:	9420983a 	sll	r16,r18,r16
 2010cf4:	e73fffcc 	andi	fp,fp,65535
 2010cf8:	2709883a 	add	r4,r4,fp
 2010cfc:	813fbc2e 	bgeu	r16,r4,2010bf0 <__reset+0xfe007bf0>
 2010d00:	a0bfffc4 	addi	r2,r20,-1
 2010d04:	0007883a 	mov	r3,zero
 2010d08:	003f4906 	br	2010a30 <__reset+0xfe007a30>
 2010d0c:	00c00604 	movi	r3,24
 2010d10:	180b883a 	mov	r5,r3
 2010d14:	003eed06 	br	20108cc <__reset+0xfe0078cc>
 2010d18:	00c00204 	movi	r3,8
 2010d1c:	180b883a 	mov	r5,r3
 2010d20:	003eea06 	br	20108cc <__reset+0xfe0078cc>
 2010d24:	00800604 	movi	r2,24
 2010d28:	1007883a 	mov	r3,r2
 2010d2c:	003ea106 	br	20107b4 <__reset+0xfe0077b4>
 2010d30:	00800604 	movi	r2,24
 2010d34:	1007883a 	mov	r3,r2
 2010d38:	003efd06 	br	2010930 <__reset+0xfe007930>
 2010d3c:	00800204 	movi	r2,8
 2010d40:	1007883a 	mov	r3,r2
 2010d44:	003efa06 	br	2010930 <__reset+0xfe007930>
 2010d48:	00800204 	movi	r2,8
 2010d4c:	1007883a 	mov	r3,r2
 2010d50:	003e9806 	br	20107b4 <__reset+0xfe0077b4>
 2010d54:	0007883a 	mov	r3,zero
 2010d58:	00800044 	movi	r2,1
 2010d5c:	003f3406 	br	2010a30 <__reset+0xfe007a30>
 2010d60:	18bf812e 	bgeu	r3,r2,2010b68 <__reset+0xfe007b68>
 2010d64:	a53fff84 	addi	r20,r20,-2
 2010d68:	1cc7883a 	add	r3,r3,r19
 2010d6c:	003f7f06 	br	2010b6c <__reset+0xfe007b6c>
 2010d70:	393f682e 	bgeu	r7,r4,2010b14 <__reset+0xfe007b14>
 2010d74:	bdffff84 	addi	r23,r23,-2
 2010d78:	3ccf883a 	add	r7,r7,r19
 2010d7c:	003f6606 	br	2010b18 <__reset+0xfe007b18>
 2010d80:	1825883a 	mov	r18,r3
 2010d84:	003fd106 	br	2010ccc <__reset+0xfe007ccc>
 2010d88:	102f883a 	mov	r23,r2
 2010d8c:	003fb906 	br	2010c74 <__reset+0xfe007c74>
 2010d90:	94bfff84 	addi	r18,r18,-2
 2010d94:	3c0f883a 	add	r7,r7,r16
 2010d98:	003f0906 	br	20109c0 <__reset+0xfe0079c0>
 2010d9c:	94bfff84 	addi	r18,r18,-2
 2010da0:	1c07883a 	add	r3,r3,r16
 2010da4:	003ea806 	br	2010848 <__reset+0xfe007848>

02010da8 <__umoddi3>:
 2010da8:	defff304 	addi	sp,sp,-52
 2010dac:	dd000715 	stw	r20,28(sp)
 2010db0:	dc800515 	stw	r18,20(sp)
 2010db4:	dc400415 	stw	r17,16(sp)
 2010db8:	dfc00c15 	stw	ra,48(sp)
 2010dbc:	df000b15 	stw	fp,44(sp)
 2010dc0:	ddc00a15 	stw	r23,40(sp)
 2010dc4:	dd800915 	stw	r22,36(sp)
 2010dc8:	dd400815 	stw	r21,32(sp)
 2010dcc:	dcc00615 	stw	r19,24(sp)
 2010dd0:	dc000315 	stw	r16,12(sp)
 2010dd4:	2025883a 	mov	r18,r4
 2010dd8:	2823883a 	mov	r17,r5
 2010ddc:	2829883a 	mov	r20,r5
 2010de0:	38003d1e 	bne	r7,zero,2010ed8 <__umoddi3+0x130>
 2010de4:	3021883a 	mov	r16,r6
 2010de8:	2027883a 	mov	r19,r4
 2010dec:	2980532e 	bgeu	r5,r6,2010f3c <__umoddi3+0x194>
 2010df0:	00bfffd4 	movui	r2,65535
 2010df4:	1180a636 	bltu	r2,r6,2011090 <__umoddi3+0x2e8>
 2010df8:	00803fc4 	movi	r2,255
 2010dfc:	11816336 	bltu	r2,r6,201138c <__umoddi3+0x5e4>
 2010e00:	0005883a 	mov	r2,zero
 2010e04:	0009883a 	mov	r4,zero
 2010e08:	3084d83a 	srl	r2,r6,r2
 2010e0c:	00c080b4 	movhi	r3,514
 2010e10:	18fb7404 	addi	r3,r3,-4656
 2010e14:	1885883a 	add	r2,r3,r2
 2010e18:	10800003 	ldbu	r2,0(r2)
 2010e1c:	1109883a 	add	r4,r2,r4
 2010e20:	00800804 	movi	r2,32
 2010e24:	1105c83a 	sub	r2,r2,r4
 2010e28:	10011026 	beq	r2,zero,201126c <__umoddi3+0x4c4>
 2010e2c:	9108d83a 	srl	r4,r18,r4
 2010e30:	88a2983a 	sll	r17,r17,r2
 2010e34:	30a0983a 	sll	r16,r6,r2
 2010e38:	90a6983a 	sll	r19,r18,r2
 2010e3c:	8928b03a 	or	r20,r17,r4
 2010e40:	1025883a 	mov	r18,r2
 2010e44:	8022d43a 	srli	r17,r16,16
 2010e48:	a009883a 	mov	r4,r20
 2010e4c:	857fffcc 	andi	r21,r16,65535
 2010e50:	880b883a 	mov	r5,r17
 2010e54:	20059180 	call	2005918 <__umodsi3>
 2010e58:	a009883a 	mov	r4,r20
 2010e5c:	880b883a 	mov	r5,r17
 2010e60:	102d883a 	mov	r22,r2
 2010e64:	20059100 	call	2005910 <__udivsi3>
 2010e68:	1009883a 	mov	r4,r2
 2010e6c:	a80b883a 	mov	r5,r21
 2010e70:	20059200 	call	2005920 <__mulsi3>
 2010e74:	1009883a 	mov	r4,r2
 2010e78:	b006943a 	slli	r3,r22,16
 2010e7c:	9804d43a 	srli	r2,r19,16
 2010e80:	1886b03a 	or	r3,r3,r2
 2010e84:	1900042e 	bgeu	r3,r4,2010e98 <__umoddi3+0xf0>
 2010e88:	1c07883a 	add	r3,r3,r16
 2010e8c:	1c000236 	bltu	r3,r16,2010e98 <__umoddi3+0xf0>
 2010e90:	1900012e 	bgeu	r3,r4,2010e98 <__umoddi3+0xf0>
 2010e94:	1c07883a 	add	r3,r3,r16
 2010e98:	1929c83a 	sub	r20,r3,r4
 2010e9c:	a009883a 	mov	r4,r20
 2010ea0:	880b883a 	mov	r5,r17
 2010ea4:	20059180 	call	2005918 <__umodsi3>
 2010ea8:	102d883a 	mov	r22,r2
 2010eac:	a009883a 	mov	r4,r20
 2010eb0:	880b883a 	mov	r5,r17
 2010eb4:	b02c943a 	slli	r22,r22,16
 2010eb8:	20059100 	call	2005910 <__udivsi3>
 2010ebc:	1009883a 	mov	r4,r2
 2010ec0:	a80b883a 	mov	r5,r21
 2010ec4:	9cffffcc 	andi	r19,r19,65535
 2010ec8:	20059200 	call	2005920 <__mulsi3>
 2010ecc:	b4e6b03a 	or	r19,r22,r19
 2010ed0:	9880582e 	bgeu	r19,r2,2011034 <__umoddi3+0x28c>
 2010ed4:	00005306 	br	2011024 <__umoddi3+0x27c>
 2010ed8:	29c05a36 	bltu	r5,r7,2011044 <__umoddi3+0x29c>
 2010edc:	00bfffd4 	movui	r2,65535
 2010ee0:	11c0662e 	bgeu	r2,r7,201107c <__umoddi3+0x2d4>
 2010ee4:	00804034 	movhi	r2,256
 2010ee8:	10bfffc4 	addi	r2,r2,-1
 2010eec:	11c11b36 	bltu	r2,r7,201135c <__umoddi3+0x5b4>
 2010ef0:	00c00404 	movi	r3,16
 2010ef4:	1827883a 	mov	r19,r3
 2010ef8:	38c6d83a 	srl	r3,r7,r3
 2010efc:	010080b4 	movhi	r4,514
 2010f00:	213b7404 	addi	r4,r4,-4656
 2010f04:	04000804 	movi	r16,32
 2010f08:	20c7883a 	add	r3,r4,r3
 2010f0c:	18800003 	ldbu	r2,0(r3)
 2010f10:	14e7883a 	add	r19,r2,r19
 2010f14:	84e1c83a 	sub	r16,r16,r19
 2010f18:	8000681e 	bne	r16,zero,20110bc <__umoddi3+0x314>
 2010f1c:	3c400136 	bltu	r7,r17,2010f24 <__umoddi3+0x17c>
 2010f20:	91812736 	bltu	r18,r6,20113c0 <__umoddi3+0x618>
 2010f24:	9185c83a 	sub	r2,r18,r6
 2010f28:	89e3c83a 	sub	r17,r17,r7
 2010f2c:	90a5803a 	cmpltu	r18,r18,r2
 2010f30:	8ca9c83a 	sub	r20,r17,r18
 2010f34:	a007883a 	mov	r3,r20
 2010f38:	00004406 	br	201104c <__umoddi3+0x2a4>
 2010f3c:	3000041e 	bne	r6,zero,2010f50 <__umoddi3+0x1a8>
 2010f40:	01000044 	movi	r4,1
 2010f44:	000b883a 	mov	r5,zero
 2010f48:	20059100 	call	2005910 <__udivsi3>
 2010f4c:	1021883a 	mov	r16,r2
 2010f50:	00bfffd4 	movui	r2,65535
 2010f54:	1400542e 	bgeu	r2,r16,20110a8 <__umoddi3+0x300>
 2010f58:	00804034 	movhi	r2,256
 2010f5c:	10bfffc4 	addi	r2,r2,-1
 2010f60:	14010736 	bltu	r2,r16,2011380 <__umoddi3+0x5d8>
 2010f64:	00800404 	movi	r2,16
 2010f68:	1007883a 	mov	r3,r2
 2010f6c:	8084d83a 	srl	r2,r16,r2
 2010f70:	010080b4 	movhi	r4,514
 2010f74:	213b7404 	addi	r4,r4,-4656
 2010f78:	05400804 	movi	r21,32
 2010f7c:	2085883a 	add	r2,r4,r2
 2010f80:	10800003 	ldbu	r2,0(r2)
 2010f84:	10c7883a 	add	r3,r2,r3
 2010f88:	a8ebc83a 	sub	r21,r21,r3
 2010f8c:	a800b91e 	bne	r21,zero,2011274 <__umoddi3+0x4cc>
 2010f90:	8028d43a 	srli	r20,r16,16
 2010f94:	8c23c83a 	sub	r17,r17,r16
 2010f98:	85bfffcc 	andi	r22,r16,65535
 2010f9c:	0025883a 	mov	r18,zero
 2010fa0:	8809883a 	mov	r4,r17
 2010fa4:	a00b883a 	mov	r5,r20
 2010fa8:	20059180 	call	2005918 <__umodsi3>
 2010fac:	8809883a 	mov	r4,r17
 2010fb0:	a00b883a 	mov	r5,r20
 2010fb4:	102b883a 	mov	r21,r2
 2010fb8:	20059100 	call	2005910 <__udivsi3>
 2010fbc:	1009883a 	mov	r4,r2
 2010fc0:	b00b883a 	mov	r5,r22
 2010fc4:	20059200 	call	2005920 <__mulsi3>
 2010fc8:	1009883a 	mov	r4,r2
 2010fcc:	a806943a 	slli	r3,r21,16
 2010fd0:	9804d43a 	srli	r2,r19,16
 2010fd4:	1886b03a 	or	r3,r3,r2
 2010fd8:	1900032e 	bgeu	r3,r4,2010fe8 <__umoddi3+0x240>
 2010fdc:	1c07883a 	add	r3,r3,r16
 2010fe0:	1c000136 	bltu	r3,r16,2010fe8 <__umoddi3+0x240>
 2010fe4:	1900f436 	bltu	r3,r4,20113b8 <__umoddi3+0x610>
 2010fe8:	1923c83a 	sub	r17,r3,r4
 2010fec:	8809883a 	mov	r4,r17
 2010ff0:	a00b883a 	mov	r5,r20
 2010ff4:	20059180 	call	2005918 <__umodsi3>
 2010ff8:	102b883a 	mov	r21,r2
 2010ffc:	8809883a 	mov	r4,r17
 2011000:	a00b883a 	mov	r5,r20
 2011004:	a82a943a 	slli	r21,r21,16
 2011008:	20059100 	call	2005910 <__udivsi3>
 201100c:	1009883a 	mov	r4,r2
 2011010:	b00b883a 	mov	r5,r22
 2011014:	9cffffcc 	andi	r19,r19,65535
 2011018:	20059200 	call	2005920 <__mulsi3>
 201101c:	ace6b03a 	or	r19,r21,r19
 2011020:	9880042e 	bgeu	r19,r2,2011034 <__umoddi3+0x28c>
 2011024:	9c27883a 	add	r19,r19,r16
 2011028:	9c000236 	bltu	r19,r16,2011034 <__umoddi3+0x28c>
 201102c:	9880012e 	bgeu	r19,r2,2011034 <__umoddi3+0x28c>
 2011030:	9c27883a 	add	r19,r19,r16
 2011034:	9885c83a 	sub	r2,r19,r2
 2011038:	1484d83a 	srl	r2,r2,r18
 201103c:	0007883a 	mov	r3,zero
 2011040:	00000206 	br	201104c <__umoddi3+0x2a4>
 2011044:	2005883a 	mov	r2,r4
 2011048:	2807883a 	mov	r3,r5
 201104c:	dfc00c17 	ldw	ra,48(sp)
 2011050:	df000b17 	ldw	fp,44(sp)
 2011054:	ddc00a17 	ldw	r23,40(sp)
 2011058:	dd800917 	ldw	r22,36(sp)
 201105c:	dd400817 	ldw	r21,32(sp)
 2011060:	dd000717 	ldw	r20,28(sp)
 2011064:	dcc00617 	ldw	r19,24(sp)
 2011068:	dc800517 	ldw	r18,20(sp)
 201106c:	dc400417 	ldw	r17,16(sp)
 2011070:	dc000317 	ldw	r16,12(sp)
 2011074:	dec00d04 	addi	sp,sp,52
 2011078:	f800283a 	ret
 201107c:	00803fc4 	movi	r2,255
 2011080:	11c0b336 	bltu	r2,r7,2011350 <__umoddi3+0x5a8>
 2011084:	0007883a 	mov	r3,zero
 2011088:	0027883a 	mov	r19,zero
 201108c:	003f9a06 	br	2010ef8 <__reset+0xfe007ef8>
 2011090:	00804034 	movhi	r2,256
 2011094:	10bfffc4 	addi	r2,r2,-1
 2011098:	1180b336 	bltu	r2,r6,2011368 <__umoddi3+0x5c0>
 201109c:	00800404 	movi	r2,16
 20110a0:	1009883a 	mov	r4,r2
 20110a4:	003f5806 	br	2010e08 <__reset+0xfe007e08>
 20110a8:	00803fc4 	movi	r2,255
 20110ac:	1400b136 	bltu	r2,r16,2011374 <__umoddi3+0x5cc>
 20110b0:	0005883a 	mov	r2,zero
 20110b4:	0007883a 	mov	r3,zero
 20110b8:	003fac06 	br	2010f6c <__reset+0xfe007f6c>
 20110bc:	34c4d83a 	srl	r2,r6,r19
 20110c0:	3c0e983a 	sll	r7,r7,r16
 20110c4:	8cf8d83a 	srl	fp,r17,r19
 20110c8:	8c22983a 	sll	r17,r17,r16
 20110cc:	38a8b03a 	or	r20,r7,r2
 20110d0:	a02ad43a 	srli	r21,r20,16
 20110d4:	94c4d83a 	srl	r2,r18,r19
 20110d8:	e009883a 	mov	r4,fp
 20110dc:	a80b883a 	mov	r5,r21
 20110e0:	342c983a 	sll	r22,r6,r16
 20110e4:	88a2b03a 	or	r17,r17,r2
 20110e8:	20059180 	call	2005918 <__umodsi3>
 20110ec:	e009883a 	mov	r4,fp
 20110f0:	a80b883a 	mov	r5,r21
 20110f4:	a5ffffcc 	andi	r23,r20,65535
 20110f8:	d8800215 	stw	r2,8(sp)
 20110fc:	20059100 	call	2005910 <__udivsi3>
 2011100:	1009883a 	mov	r4,r2
 2011104:	b80b883a 	mov	r5,r23
 2011108:	1039883a 	mov	fp,r2
 201110c:	20059200 	call	2005920 <__mulsi3>
 2011110:	d8c00217 	ldw	r3,8(sp)
 2011114:	1009883a 	mov	r4,r2
 2011118:	8804d43a 	srli	r2,r17,16
 201111c:	1806943a 	slli	r3,r3,16
 2011120:	9424983a 	sll	r18,r18,r16
 2011124:	1886b03a 	or	r3,r3,r2
 2011128:	1900042e 	bgeu	r3,r4,201113c <__umoddi3+0x394>
 201112c:	1d07883a 	add	r3,r3,r20
 2011130:	e0bfffc4 	addi	r2,fp,-1
 2011134:	1d009c2e 	bgeu	r3,r20,20113a8 <__umoddi3+0x600>
 2011138:	1039883a 	mov	fp,r2
 201113c:	1907c83a 	sub	r3,r3,r4
 2011140:	1809883a 	mov	r4,r3
 2011144:	a80b883a 	mov	r5,r21
 2011148:	d8c00215 	stw	r3,8(sp)
 201114c:	20059180 	call	2005918 <__umodsi3>
 2011150:	d8c00217 	ldw	r3,8(sp)
 2011154:	a80b883a 	mov	r5,r21
 2011158:	d8800015 	stw	r2,0(sp)
 201115c:	1809883a 	mov	r4,r3
 2011160:	20059100 	call	2005910 <__udivsi3>
 2011164:	1009883a 	mov	r4,r2
 2011168:	b80b883a 	mov	r5,r23
 201116c:	102b883a 	mov	r21,r2
 2011170:	20059200 	call	2005920 <__mulsi3>
 2011174:	d9c00017 	ldw	r7,0(sp)
 2011178:	8c7fffcc 	andi	r17,r17,65535
 201117c:	380e943a 	slli	r7,r7,16
 2011180:	3c4eb03a 	or	r7,r7,r17
 2011184:	3880042e 	bgeu	r7,r2,2011198 <__umoddi3+0x3f0>
 2011188:	3d0f883a 	add	r7,r7,r20
 201118c:	a8ffffc4 	addi	r3,r21,-1
 2011190:	3d00812e 	bgeu	r7,r20,2011398 <__umoddi3+0x5f0>
 2011194:	182b883a 	mov	r21,r3
 2011198:	e038943a 	slli	fp,fp,16
 201119c:	b010d43a 	srli	r8,r22,16
 20111a0:	b1bfffcc 	andi	r6,r22,65535
 20111a4:	af2ab03a 	or	r21,r21,fp
 20111a8:	a82ed43a 	srli	r23,r21,16
 20111ac:	ad7fffcc 	andi	r21,r21,65535
 20111b0:	300b883a 	mov	r5,r6
 20111b4:	a809883a 	mov	r4,r21
 20111b8:	38a3c83a 	sub	r17,r7,r2
 20111bc:	d9800115 	stw	r6,4(sp)
 20111c0:	da000015 	stw	r8,0(sp)
 20111c4:	20059200 	call	2005920 <__mulsi3>
 20111c8:	da000017 	ldw	r8,0(sp)
 20111cc:	a809883a 	mov	r4,r21
 20111d0:	1039883a 	mov	fp,r2
 20111d4:	400b883a 	mov	r5,r8
 20111d8:	da000215 	stw	r8,8(sp)
 20111dc:	20059200 	call	2005920 <__mulsi3>
 20111e0:	d9800117 	ldw	r6,4(sp)
 20111e4:	b809883a 	mov	r4,r23
 20111e8:	d8800015 	stw	r2,0(sp)
 20111ec:	300b883a 	mov	r5,r6
 20111f0:	20059200 	call	2005920 <__mulsi3>
 20111f4:	d8c00217 	ldw	r3,8(sp)
 20111f8:	b809883a 	mov	r4,r23
 20111fc:	102b883a 	mov	r21,r2
 2011200:	180b883a 	mov	r5,r3
 2011204:	20059200 	call	2005920 <__mulsi3>
 2011208:	d9c00017 	ldw	r7,0(sp)
 201120c:	1007883a 	mov	r3,r2
 2011210:	e004d43a 	srli	r2,fp,16
 2011214:	a9c9883a 	add	r4,r21,r7
 2011218:	2089883a 	add	r4,r4,r2
 201121c:	2540022e 	bgeu	r4,r21,2011228 <__umoddi3+0x480>
 2011220:	00800074 	movhi	r2,1
 2011224:	1887883a 	add	r3,r3,r2
 2011228:	2004d43a 	srli	r2,r4,16
 201122c:	2008943a 	slli	r4,r4,16
 2011230:	e73fffcc 	andi	fp,fp,65535
 2011234:	1887883a 	add	r3,r3,r2
 2011238:	2709883a 	add	r4,r4,fp
 201123c:	88c03e36 	bltu	r17,r3,2011338 <__umoddi3+0x590>
 2011240:	88c06226 	beq	r17,r3,20113cc <__umoddi3+0x624>
 2011244:	88c7c83a 	sub	r3,r17,r3
 2011248:	202d883a 	mov	r22,r4
 201124c:	95adc83a 	sub	r22,r18,r22
 2011250:	95a5803a 	cmpltu	r18,r18,r22
 2011254:	1c87c83a 	sub	r3,r3,r18
 2011258:	1cc4983a 	sll	r2,r3,r19
 201125c:	b42cd83a 	srl	r22,r22,r16
 2011260:	1c06d83a 	srl	r3,r3,r16
 2011264:	1584b03a 	or	r2,r2,r22
 2011268:	003f7806 	br	201104c <__reset+0xfe00804c>
 201126c:	0025883a 	mov	r18,zero
 2011270:	003ef406 	br	2010e44 <__reset+0xfe007e44>
 2011274:	8560983a 	sll	r16,r16,r21
 2011278:	88e6d83a 	srl	r19,r17,r3
 201127c:	90c6d83a 	srl	r3,r18,r3
 2011280:	8028d43a 	srli	r20,r16,16
 2011284:	8d62983a 	sll	r17,r17,r21
 2011288:	9809883a 	mov	r4,r19
 201128c:	a00b883a 	mov	r5,r20
 2011290:	88eeb03a 	or	r23,r17,r3
 2011294:	20059180 	call	2005918 <__umodsi3>
 2011298:	9809883a 	mov	r4,r19
 201129c:	a00b883a 	mov	r5,r20
 20112a0:	1023883a 	mov	r17,r2
 20112a4:	85bfffcc 	andi	r22,r16,65535
 20112a8:	20059100 	call	2005910 <__udivsi3>
 20112ac:	1009883a 	mov	r4,r2
 20112b0:	b00b883a 	mov	r5,r22
 20112b4:	20059200 	call	2005920 <__mulsi3>
 20112b8:	1007883a 	mov	r3,r2
 20112bc:	8808943a 	slli	r4,r17,16
 20112c0:	b804d43a 	srli	r2,r23,16
 20112c4:	9566983a 	sll	r19,r18,r21
 20112c8:	2088b03a 	or	r4,r4,r2
 20112cc:	20c0042e 	bgeu	r4,r3,20112e0 <__umoddi3+0x538>
 20112d0:	2409883a 	add	r4,r4,r16
 20112d4:	24000236 	bltu	r4,r16,20112e0 <__umoddi3+0x538>
 20112d8:	20c0012e 	bgeu	r4,r3,20112e0 <__umoddi3+0x538>
 20112dc:	2409883a 	add	r4,r4,r16
 20112e0:	20e5c83a 	sub	r18,r4,r3
 20112e4:	9009883a 	mov	r4,r18
 20112e8:	a00b883a 	mov	r5,r20
 20112ec:	20059180 	call	2005918 <__umodsi3>
 20112f0:	1023883a 	mov	r17,r2
 20112f4:	9009883a 	mov	r4,r18
 20112f8:	a00b883a 	mov	r5,r20
 20112fc:	8822943a 	slli	r17,r17,16
 2011300:	20059100 	call	2005910 <__udivsi3>
 2011304:	1009883a 	mov	r4,r2
 2011308:	b00b883a 	mov	r5,r22
 201130c:	bdffffcc 	andi	r23,r23,65535
 2011310:	20059200 	call	2005920 <__mulsi3>
 2011314:	8de2b03a 	or	r17,r17,r23
 2011318:	8880042e 	bgeu	r17,r2,201132c <__umoddi3+0x584>
 201131c:	8c23883a 	add	r17,r17,r16
 2011320:	8c000236 	bltu	r17,r16,201132c <__umoddi3+0x584>
 2011324:	8880012e 	bgeu	r17,r2,201132c <__umoddi3+0x584>
 2011328:	8c23883a 	add	r17,r17,r16
 201132c:	88a3c83a 	sub	r17,r17,r2
 2011330:	a825883a 	mov	r18,r21
 2011334:	003f1a06 	br	2010fa0 <__reset+0xfe007fa0>
 2011338:	25adc83a 	sub	r22,r4,r22
 201133c:	1d07c83a 	sub	r3,r3,r20
 2011340:	2589803a 	cmpltu	r4,r4,r22
 2011344:	1907c83a 	sub	r3,r3,r4
 2011348:	88c7c83a 	sub	r3,r17,r3
 201134c:	003fbf06 	br	201124c <__reset+0xfe00824c>
 2011350:	00c00204 	movi	r3,8
 2011354:	1827883a 	mov	r19,r3
 2011358:	003ee706 	br	2010ef8 <__reset+0xfe007ef8>
 201135c:	00c00604 	movi	r3,24
 2011360:	1827883a 	mov	r19,r3
 2011364:	003ee406 	br	2010ef8 <__reset+0xfe007ef8>
 2011368:	00800604 	movi	r2,24
 201136c:	1009883a 	mov	r4,r2
 2011370:	003ea506 	br	2010e08 <__reset+0xfe007e08>
 2011374:	00800204 	movi	r2,8
 2011378:	1007883a 	mov	r3,r2
 201137c:	003efb06 	br	2010f6c <__reset+0xfe007f6c>
 2011380:	00800604 	movi	r2,24
 2011384:	1007883a 	mov	r3,r2
 2011388:	003ef806 	br	2010f6c <__reset+0xfe007f6c>
 201138c:	00800204 	movi	r2,8
 2011390:	1009883a 	mov	r4,r2
 2011394:	003e9c06 	br	2010e08 <__reset+0xfe007e08>
 2011398:	38bf7e2e 	bgeu	r7,r2,2011194 <__reset+0xfe008194>
 201139c:	ad7fff84 	addi	r21,r21,-2
 20113a0:	3d0f883a 	add	r7,r7,r20
 20113a4:	003f7c06 	br	2011198 <__reset+0xfe008198>
 20113a8:	193f632e 	bgeu	r3,r4,2011138 <__reset+0xfe008138>
 20113ac:	e73fff84 	addi	fp,fp,-2
 20113b0:	1d07883a 	add	r3,r3,r20
 20113b4:	003f6106 	br	201113c <__reset+0xfe00813c>
 20113b8:	1c07883a 	add	r3,r3,r16
 20113bc:	003f0a06 	br	2010fe8 <__reset+0xfe007fe8>
 20113c0:	9005883a 	mov	r2,r18
 20113c4:	a007883a 	mov	r3,r20
 20113c8:	003f2006 	br	201104c <__reset+0xfe00804c>
 20113cc:	913fda36 	bltu	r18,r4,2011338 <__reset+0xfe008338>
 20113d0:	202d883a 	mov	r22,r4
 20113d4:	0007883a 	mov	r3,zero
 20113d8:	003f9c06 	br	201124c <__reset+0xfe00824c>

020113dc <__adddf3>:
 20113dc:	00800434 	movhi	r2,16
 20113e0:	10bfffc4 	addi	r2,r2,-1
 20113e4:	defffb04 	addi	sp,sp,-20
 20113e8:	2890703a 	and	r8,r5,r2
 20113ec:	2806d7fa 	srli	r3,r5,31
 20113f0:	3884703a 	and	r2,r7,r2
 20113f4:	2014d77a 	srli	r10,r4,29
 20113f8:	3812d53a 	srli	r9,r7,20
 20113fc:	dc400115 	stw	r17,4(sp)
 2011400:	100490fa 	slli	r2,r2,3
 2011404:	2822d53a 	srli	r17,r5,20
 2011408:	380ed7fa 	srli	r7,r7,31
 201140c:	400a90fa 	slli	r5,r8,3
 2011410:	3010d77a 	srli	r8,r6,29
 2011414:	dc800215 	stw	r18,8(sp)
 2011418:	dc000015 	stw	r16,0(sp)
 201141c:	dfc00415 	stw	ra,16(sp)
 2011420:	dcc00315 	stw	r19,12(sp)
 2011424:	1c803fcc 	andi	r18,r3,255
 2011428:	202090fa 	slli	r16,r4,3
 201142c:	8c41ffcc 	andi	r17,r17,2047
 2011430:	2a8ab03a 	or	r5,r5,r10
 2011434:	4901ffcc 	andi	r4,r9,2047
 2011438:	1204b03a 	or	r2,r2,r8
 201143c:	300c90fa 	slli	r6,r6,3
 2011440:	91c07126 	beq	r18,r7,2011608 <__adddf3+0x22c>
 2011444:	8907c83a 	sub	r3,r17,r4
 2011448:	00c0a00e 	bge	zero,r3,20116cc <__adddf3+0x2f0>
 201144c:	2000291e 	bne	r4,zero,20114f4 <__adddf3+0x118>
 2011450:	1188b03a 	or	r4,r2,r6
 2011454:	20008b1e 	bne	r4,zero,2011684 <__adddf3+0x2a8>
 2011458:	808001cc 	andi	r2,r16,7
 201145c:	10005a26 	beq	r2,zero,20115c8 <__adddf3+0x1ec>
 2011460:	80c003cc 	andi	r3,r16,15
 2011464:	00800104 	movi	r2,4
 2011468:	18805726 	beq	r3,r2,20115c8 <__adddf3+0x1ec>
 201146c:	81000104 	addi	r4,r16,4
 2011470:	2421803a 	cmpltu	r16,r4,r16
 2011474:	2c0b883a 	add	r5,r5,r16
 2011478:	2880202c 	andhi	r2,r5,128
 201147c:	9007883a 	mov	r3,r18
 2011480:	2021883a 	mov	r16,r4
 2011484:	10005326 	beq	r2,zero,20115d4 <__adddf3+0x1f8>
 2011488:	8c400044 	addi	r17,r17,1
 201148c:	0081ffc4 	movi	r2,2047
 2011490:	8880ae26 	beq	r17,r2,201174c <__adddf3+0x370>
 2011494:	00bfe034 	movhi	r2,65408
 2011498:	10bfffc4 	addi	r2,r2,-1
 201149c:	288a703a 	and	r5,r5,r2
 20114a0:	2804977a 	slli	r2,r5,29
 20114a4:	280a927a 	slli	r5,r5,9
 20114a8:	8020d0fa 	srli	r16,r16,3
 20114ac:	280ad33a 	srli	r5,r5,12
 20114b0:	1404b03a 	or	r2,r2,r16
 20114b4:	8c41ffcc 	andi	r17,r17,2047
 20114b8:	8822953a 	slli	r17,r17,20
 20114bc:	18c03fcc 	andi	r3,r3,255
 20114c0:	180897fa 	slli	r4,r3,31
 20114c4:	00c00434 	movhi	r3,16
 20114c8:	18ffffc4 	addi	r3,r3,-1
 20114cc:	28c6703a 	and	r3,r5,r3
 20114d0:	1c46b03a 	or	r3,r3,r17
 20114d4:	1906b03a 	or	r3,r3,r4
 20114d8:	dfc00417 	ldw	ra,16(sp)
 20114dc:	dcc00317 	ldw	r19,12(sp)
 20114e0:	dc800217 	ldw	r18,8(sp)
 20114e4:	dc400117 	ldw	r17,4(sp)
 20114e8:	dc000017 	ldw	r16,0(sp)
 20114ec:	dec00504 	addi	sp,sp,20
 20114f0:	f800283a 	ret
 20114f4:	0101ffc4 	movi	r4,2047
 20114f8:	893fd726 	beq	r17,r4,2011458 <__reset+0xfe008458>
 20114fc:	10802034 	orhi	r2,r2,128
 2011500:	01000e04 	movi	r4,56
 2011504:	20c09416 	blt	r4,r3,2011758 <__adddf3+0x37c>
 2011508:	010007c4 	movi	r4,31
 201150c:	20c0b716 	blt	r4,r3,20117ec <__adddf3+0x410>
 2011510:	01000804 	movi	r4,32
 2011514:	20c9c83a 	sub	r4,r4,r3
 2011518:	30ced83a 	srl	r7,r6,r3
 201151c:	1110983a 	sll	r8,r2,r4
 2011520:	3108983a 	sll	r4,r6,r4
 2011524:	10c6d83a 	srl	r3,r2,r3
 2011528:	41c4b03a 	or	r2,r8,r7
 201152c:	2008c03a 	cmpne	r4,r4,zero
 2011530:	110cb03a 	or	r6,r2,r4
 2011534:	818dc83a 	sub	r6,r16,r6
 2011538:	81a1803a 	cmpltu	r16,r16,r6
 201153c:	28cbc83a 	sub	r5,r5,r3
 2011540:	2c0bc83a 	sub	r5,r5,r16
 2011544:	3021883a 	mov	r16,r6
 2011548:	2880202c 	andhi	r2,r5,128
 201154c:	103fc226 	beq	r2,zero,2011458 <__reset+0xfe008458>
 2011550:	04c02034 	movhi	r19,128
 2011554:	9cffffc4 	addi	r19,r19,-1
 2011558:	2ce6703a 	and	r19,r5,r19
 201155c:	98006c26 	beq	r19,zero,2011710 <__adddf3+0x334>
 2011560:	9809883a 	mov	r4,r19
 2011564:	2006c340 	call	2006c34 <__clzsi2>
 2011568:	10fffe04 	addi	r3,r2,-8
 201156c:	010007c4 	movi	r4,31
 2011570:	20c06d16 	blt	r4,r3,2011728 <__adddf3+0x34c>
 2011574:	01000a04 	movi	r4,40
 2011578:	2085c83a 	sub	r2,r4,r2
 201157c:	8084d83a 	srl	r2,r16,r2
 2011580:	98e6983a 	sll	r19,r19,r3
 2011584:	80e0983a 	sll	r16,r16,r3
 2011588:	14c4b03a 	or	r2,r2,r19
 201158c:	1c406a16 	blt	r3,r17,2011738 <__adddf3+0x35c>
 2011590:	1c63c83a 	sub	r17,r3,r17
 2011594:	89400044 	addi	r5,r17,1
 2011598:	00c007c4 	movi	r3,31
 201159c:	19408616 	blt	r3,r5,20117b8 <__adddf3+0x3dc>
 20115a0:	1c47c83a 	sub	r3,r3,r17
 20115a4:	8148d83a 	srl	r4,r16,r5
 20115a8:	80e0983a 	sll	r16,r16,r3
 20115ac:	10c6983a 	sll	r3,r2,r3
 20115b0:	114ad83a 	srl	r5,r2,r5
 20115b4:	8004c03a 	cmpne	r2,r16,zero
 20115b8:	20e0b03a 	or	r16,r4,r3
 20115bc:	80a0b03a 	or	r16,r16,r2
 20115c0:	0023883a 	mov	r17,zero
 20115c4:	003fa406 	br	2011458 <__reset+0xfe008458>
 20115c8:	2880202c 	andhi	r2,r5,128
 20115cc:	9007883a 	mov	r3,r18
 20115d0:	103fad1e 	bne	r2,zero,2011488 <__reset+0xfe008488>
 20115d4:	2804977a 	slli	r2,r5,29
 20115d8:	8020d0fa 	srli	r16,r16,3
 20115dc:	0101ffc4 	movi	r4,2047
 20115e0:	280ad0fa 	srli	r5,r5,3
 20115e4:	1404b03a 	or	r2,r2,r16
 20115e8:	8900031e 	bne	r17,r4,20115f8 <__adddf3+0x21c>
 20115ec:	1148b03a 	or	r4,r2,r5
 20115f0:	20005626 	beq	r4,zero,201174c <__adddf3+0x370>
 20115f4:	29400234 	orhi	r5,r5,8
 20115f8:	01000434 	movhi	r4,16
 20115fc:	213fffc4 	addi	r4,r4,-1
 2011600:	290a703a 	and	r5,r5,r4
 2011604:	003fab06 	br	20114b4 <__reset+0xfe0084b4>
 2011608:	890fc83a 	sub	r7,r17,r4
 201160c:	01c0560e 	bge	zero,r7,2011768 <__adddf3+0x38c>
 2011610:	20002426 	beq	r4,zero,20116a4 <__adddf3+0x2c8>
 2011614:	0101ffc4 	movi	r4,2047
 2011618:	893f8f26 	beq	r17,r4,2011458 <__reset+0xfe008458>
 201161c:	10802034 	orhi	r2,r2,128
 2011620:	01000e04 	movi	r4,56
 2011624:	21c09d0e 	bge	r4,r7,201189c <__adddf3+0x4c0>
 2011628:	118cb03a 	or	r6,r2,r6
 201162c:	300cc03a 	cmpne	r6,r6,zero
 2011630:	000f883a 	mov	r7,zero
 2011634:	340d883a 	add	r6,r6,r16
 2011638:	3421803a 	cmpltu	r16,r6,r16
 201163c:	394b883a 	add	r5,r7,r5
 2011640:	2c0b883a 	add	r5,r5,r16
 2011644:	3021883a 	mov	r16,r6
 2011648:	2880202c 	andhi	r2,r5,128
 201164c:	103f8226 	beq	r2,zero,2011458 <__reset+0xfe008458>
 2011650:	8c400044 	addi	r17,r17,1
 2011654:	0081ffc4 	movi	r2,2047
 2011658:	8880cb26 	beq	r17,r2,2011988 <__adddf3+0x5ac>
 201165c:	00bfe034 	movhi	r2,65408
 2011660:	10bfffc4 	addi	r2,r2,-1
 2011664:	288a703a 	and	r5,r5,r2
 2011668:	8006d07a 	srli	r3,r16,1
 201166c:	280497fa 	slli	r2,r5,31
 2011670:	8400004c 	andi	r16,r16,1
 2011674:	80e0b03a 	or	r16,r16,r3
 2011678:	80a0b03a 	or	r16,r16,r2
 201167c:	280ad07a 	srli	r5,r5,1
 2011680:	003f7506 	br	2011458 <__reset+0xfe008458>
 2011684:	18ffffc4 	addi	r3,r3,-1
 2011688:	1800481e 	bne	r3,zero,20117ac <__adddf3+0x3d0>
 201168c:	818dc83a 	sub	r6,r16,r6
 2011690:	81a1803a 	cmpltu	r16,r16,r6
 2011694:	288bc83a 	sub	r5,r5,r2
 2011698:	2c0bc83a 	sub	r5,r5,r16
 201169c:	3021883a 	mov	r16,r6
 20116a0:	003fa906 	br	2011548 <__reset+0xfe008548>
 20116a4:	1188b03a 	or	r4,r2,r6
 20116a8:	203f6b26 	beq	r4,zero,2011458 <__reset+0xfe008458>
 20116ac:	39ffffc4 	addi	r7,r7,-1
 20116b0:	3800931e 	bne	r7,zero,2011900 <__adddf3+0x524>
 20116b4:	340d883a 	add	r6,r6,r16
 20116b8:	3421803a 	cmpltu	r16,r6,r16
 20116bc:	114b883a 	add	r5,r2,r5
 20116c0:	2c0b883a 	add	r5,r5,r16
 20116c4:	3021883a 	mov	r16,r6
 20116c8:	003fdf06 	br	2011648 <__reset+0xfe008648>
 20116cc:	1800531e 	bne	r3,zero,201181c <__adddf3+0x440>
 20116d0:	88c00044 	addi	r3,r17,1
 20116d4:	18c1ffcc 	andi	r3,r3,2047
 20116d8:	01000044 	movi	r4,1
 20116dc:	20c0a00e 	bge	r4,r3,2011960 <__adddf3+0x584>
 20116e0:	8187c83a 	sub	r3,r16,r6
 20116e4:	80c9803a 	cmpltu	r4,r16,r3
 20116e8:	28a7c83a 	sub	r19,r5,r2
 20116ec:	9927c83a 	sub	r19,r19,r4
 20116f0:	9900202c 	andhi	r4,r19,128
 20116f4:	20006226 	beq	r4,zero,2011880 <__adddf3+0x4a4>
 20116f8:	3421c83a 	sub	r16,r6,r16
 20116fc:	1145c83a 	sub	r2,r2,r5
 2011700:	340d803a 	cmpltu	r6,r6,r16
 2011704:	11a7c83a 	sub	r19,r2,r6
 2011708:	3825883a 	mov	r18,r7
 201170c:	983f941e 	bne	r19,zero,2011560 <__reset+0xfe008560>
 2011710:	8009883a 	mov	r4,r16
 2011714:	2006c340 	call	2006c34 <__clzsi2>
 2011718:	10800804 	addi	r2,r2,32
 201171c:	10fffe04 	addi	r3,r2,-8
 2011720:	010007c4 	movi	r4,31
 2011724:	20ff930e 	bge	r4,r3,2011574 <__reset+0xfe008574>
 2011728:	10bff604 	addi	r2,r2,-40
 201172c:	8084983a 	sll	r2,r16,r2
 2011730:	0021883a 	mov	r16,zero
 2011734:	1c7f960e 	bge	r3,r17,2011590 <__reset+0xfe008590>
 2011738:	017fe034 	movhi	r5,65408
 201173c:	297fffc4 	addi	r5,r5,-1
 2011740:	88e3c83a 	sub	r17,r17,r3
 2011744:	114a703a 	and	r5,r2,r5
 2011748:	003f4306 	br	2011458 <__reset+0xfe008458>
 201174c:	000b883a 	mov	r5,zero
 2011750:	0005883a 	mov	r2,zero
 2011754:	003f5706 	br	20114b4 <__reset+0xfe0084b4>
 2011758:	118cb03a 	or	r6,r2,r6
 201175c:	300cc03a 	cmpne	r6,r6,zero
 2011760:	0007883a 	mov	r3,zero
 2011764:	003f7306 	br	2011534 <__reset+0xfe008534>
 2011768:	3800961e 	bne	r7,zero,20119c4 <__adddf3+0x5e8>
 201176c:	89000044 	addi	r4,r17,1
 2011770:	2201ffcc 	andi	r8,r4,2047
 2011774:	01c00044 	movi	r7,1
 2011778:	3a00680e 	bge	r7,r8,201191c <__adddf3+0x540>
 201177c:	01c1ffc4 	movi	r7,2047
 2011780:	21c0a726 	beq	r4,r7,2011a20 <__adddf3+0x644>
 2011784:	340d883a 	add	r6,r6,r16
 2011788:	3421803a 	cmpltu	r16,r6,r16
 201178c:	114b883a 	add	r5,r2,r5
 2011790:	2c0b883a 	add	r5,r5,r16
 2011794:	282097fa 	slli	r16,r5,31
 2011798:	300cd07a 	srli	r6,r6,1
 201179c:	280ad07a 	srli	r5,r5,1
 20117a0:	2023883a 	mov	r17,r4
 20117a4:	81a0b03a 	or	r16,r16,r6
 20117a8:	003f2b06 	br	2011458 <__reset+0xfe008458>
 20117ac:	0101ffc4 	movi	r4,2047
 20117b0:	893f531e 	bne	r17,r4,2011500 <__reset+0xfe008500>
 20117b4:	003f2806 	br	2011458 <__reset+0xfe008458>
 20117b8:	893ff844 	addi	r4,r17,-31
 20117bc:	00c00804 	movi	r3,32
 20117c0:	1108d83a 	srl	r4,r2,r4
 20117c4:	28c05126 	beq	r5,r3,201190c <__adddf3+0x530>
 20117c8:	00c00fc4 	movi	r3,63
 20117cc:	1c63c83a 	sub	r17,r3,r17
 20117d0:	1444983a 	sll	r2,r2,r17
 20117d4:	1420b03a 	or	r16,r2,r16
 20117d8:	8020c03a 	cmpne	r16,r16,zero
 20117dc:	8120b03a 	or	r16,r16,r4
 20117e0:	000b883a 	mov	r5,zero
 20117e4:	0023883a 	mov	r17,zero
 20117e8:	003f1b06 	br	2011458 <__reset+0xfe008458>
 20117ec:	193ff804 	addi	r4,r3,-32
 20117f0:	01c00804 	movi	r7,32
 20117f4:	1108d83a 	srl	r4,r2,r4
 20117f8:	19c04626 	beq	r3,r7,2011914 <__adddf3+0x538>
 20117fc:	01c01004 	movi	r7,64
 2011800:	38c7c83a 	sub	r3,r7,r3
 2011804:	10c4983a 	sll	r2,r2,r3
 2011808:	118cb03a 	or	r6,r2,r6
 201180c:	300cc03a 	cmpne	r6,r6,zero
 2011810:	310cb03a 	or	r6,r6,r4
 2011814:	0007883a 	mov	r3,zero
 2011818:	003f4606 	br	2011534 <__reset+0xfe008534>
 201181c:	88002b26 	beq	r17,zero,20118cc <__adddf3+0x4f0>
 2011820:	0201ffc4 	movi	r8,2047
 2011824:	22002f26 	beq	r4,r8,20118e4 <__adddf3+0x508>
 2011828:	00c7c83a 	sub	r3,zero,r3
 201182c:	29402034 	orhi	r5,r5,128
 2011830:	02000e04 	movi	r8,56
 2011834:	40c07616 	blt	r8,r3,2011a10 <__adddf3+0x634>
 2011838:	020007c4 	movi	r8,31
 201183c:	40c0d216 	blt	r8,r3,2011b88 <__adddf3+0x7ac>
 2011840:	02000804 	movi	r8,32
 2011844:	40d1c83a 	sub	r8,r8,r3
 2011848:	2a14983a 	sll	r10,r5,r8
 201184c:	80d2d83a 	srl	r9,r16,r3
 2011850:	8210983a 	sll	r8,r16,r8
 2011854:	28cad83a 	srl	r5,r5,r3
 2011858:	5252b03a 	or	r9,r10,r9
 201185c:	4006c03a 	cmpne	r3,r8,zero
 2011860:	48e0b03a 	or	r16,r9,r3
 2011864:	3421c83a 	sub	r16,r6,r16
 2011868:	114bc83a 	sub	r5,r2,r5
 201186c:	340d803a 	cmpltu	r6,r6,r16
 2011870:	298bc83a 	sub	r5,r5,r6
 2011874:	2023883a 	mov	r17,r4
 2011878:	3825883a 	mov	r18,r7
 201187c:	003f3206 	br	2011548 <__reset+0xfe008548>
 2011880:	98c4b03a 	or	r2,r19,r3
 2011884:	10001c1e 	bne	r2,zero,20118f8 <__adddf3+0x51c>
 2011888:	0007883a 	mov	r3,zero
 201188c:	000b883a 	mov	r5,zero
 2011890:	0021883a 	mov	r16,zero
 2011894:	0023883a 	mov	r17,zero
 2011898:	003f4e06 	br	20115d4 <__reset+0xfe0085d4>
 201189c:	010007c4 	movi	r4,31
 20118a0:	21c03c16 	blt	r4,r7,2011994 <__adddf3+0x5b8>
 20118a4:	01000804 	movi	r4,32
 20118a8:	21c9c83a 	sub	r4,r4,r7
 20118ac:	31d0d83a 	srl	r8,r6,r7
 20118b0:	1112983a 	sll	r9,r2,r4
 20118b4:	3108983a 	sll	r4,r6,r4
 20118b8:	11ced83a 	srl	r7,r2,r7
 20118bc:	4a04b03a 	or	r2,r9,r8
 20118c0:	2008c03a 	cmpne	r4,r4,zero
 20118c4:	110cb03a 	or	r6,r2,r4
 20118c8:	003f5a06 	br	2011634 <__reset+0xfe008634>
 20118cc:	2c10b03a 	or	r8,r5,r16
 20118d0:	40000426 	beq	r8,zero,20118e4 <__adddf3+0x508>
 20118d4:	00c6303a 	nor	r3,zero,r3
 20118d8:	183fe226 	beq	r3,zero,2011864 <__reset+0xfe008864>
 20118dc:	0201ffc4 	movi	r8,2047
 20118e0:	223fd31e 	bne	r4,r8,2011830 <__reset+0xfe008830>
 20118e4:	100b883a 	mov	r5,r2
 20118e8:	3021883a 	mov	r16,r6
 20118ec:	2023883a 	mov	r17,r4
 20118f0:	3825883a 	mov	r18,r7
 20118f4:	003ed806 	br	2011458 <__reset+0xfe008458>
 20118f8:	1821883a 	mov	r16,r3
 20118fc:	003f1706 	br	201155c <__reset+0xfe00855c>
 2011900:	0101ffc4 	movi	r4,2047
 2011904:	893f461e 	bne	r17,r4,2011620 <__reset+0xfe008620>
 2011908:	003ed306 	br	2011458 <__reset+0xfe008458>
 201190c:	0005883a 	mov	r2,zero
 2011910:	003fb006 	br	20117d4 <__reset+0xfe0087d4>
 2011914:	0005883a 	mov	r2,zero
 2011918:	003fbb06 	br	2011808 <__reset+0xfe008808>
 201191c:	2c06b03a 	or	r3,r5,r16
 2011920:	8800841e 	bne	r17,zero,2011b34 <__adddf3+0x758>
 2011924:	1800b226 	beq	r3,zero,2011bf0 <__adddf3+0x814>
 2011928:	1186b03a 	or	r3,r2,r6
 201192c:	183eca26 	beq	r3,zero,2011458 <__reset+0xfe008458>
 2011930:	340d883a 	add	r6,r6,r16
 2011934:	114b883a 	add	r5,r2,r5
 2011938:	3421803a 	cmpltu	r16,r6,r16
 201193c:	2c0b883a 	add	r5,r5,r16
 2011940:	2880202c 	andhi	r2,r5,128
 2011944:	1000c026 	beq	r2,zero,2011c48 <__adddf3+0x86c>
 2011948:	00bfe034 	movhi	r2,65408
 201194c:	10bfffc4 	addi	r2,r2,-1
 2011950:	288a703a 	and	r5,r5,r2
 2011954:	3021883a 	mov	r16,r6
 2011958:	3823883a 	mov	r17,r7
 201195c:	003ebe06 	br	2011458 <__reset+0xfe008458>
 2011960:	2c06b03a 	or	r3,r5,r16
 2011964:	8800221e 	bne	r17,zero,20119f0 <__adddf3+0x614>
 2011968:	1800481e 	bne	r3,zero,2011a8c <__adddf3+0x6b0>
 201196c:	1186b03a 	or	r3,r2,r6
 2011970:	18000426 	beq	r3,zero,2011984 <__adddf3+0x5a8>
 2011974:	100b883a 	mov	r5,r2
 2011978:	3021883a 	mov	r16,r6
 201197c:	3825883a 	mov	r18,r7
 2011980:	003eb506 	br	2011458 <__reset+0xfe008458>
 2011984:	0007883a 	mov	r3,zero
 2011988:	000b883a 	mov	r5,zero
 201198c:	0021883a 	mov	r16,zero
 2011990:	003f1006 	br	20115d4 <__reset+0xfe0085d4>
 2011994:	393ff804 	addi	r4,r7,-32
 2011998:	02000804 	movi	r8,32
 201199c:	1108d83a 	srl	r4,r2,r4
 20119a0:	3a007726 	beq	r7,r8,2011b80 <__adddf3+0x7a4>
 20119a4:	02001004 	movi	r8,64
 20119a8:	41cfc83a 	sub	r7,r8,r7
 20119ac:	11c4983a 	sll	r2,r2,r7
 20119b0:	118cb03a 	or	r6,r2,r6
 20119b4:	300cc03a 	cmpne	r6,r6,zero
 20119b8:	310cb03a 	or	r6,r6,r4
 20119bc:	000f883a 	mov	r7,zero
 20119c0:	003f1c06 	br	2011634 <__reset+0xfe008634>
 20119c4:	88001a1e 	bne	r17,zero,2011a30 <__adddf3+0x654>
 20119c8:	2c10b03a 	or	r8,r5,r16
 20119cc:	40005526 	beq	r8,zero,2011b24 <__adddf3+0x748>
 20119d0:	01ce303a 	nor	r7,zero,r7
 20119d4:	3800511e 	bne	r7,zero,2011b1c <__adddf3+0x740>
 20119d8:	81a1883a 	add	r16,r16,r6
 20119dc:	114b883a 	add	r5,r2,r5
 20119e0:	818d803a 	cmpltu	r6,r16,r6
 20119e4:	298b883a 	add	r5,r5,r6
 20119e8:	2023883a 	mov	r17,r4
 20119ec:	003f1606 	br	2011648 <__reset+0xfe008648>
 20119f0:	1800341e 	bne	r3,zero,2011ac4 <__adddf3+0x6e8>
 20119f4:	1186b03a 	or	r3,r2,r6
 20119f8:	18006f26 	beq	r3,zero,2011bb8 <__adddf3+0x7dc>
 20119fc:	100b883a 	mov	r5,r2
 2011a00:	3021883a 	mov	r16,r6
 2011a04:	3825883a 	mov	r18,r7
 2011a08:	0441ffc4 	movi	r17,2047
 2011a0c:	003e9206 	br	2011458 <__reset+0xfe008458>
 2011a10:	2c20b03a 	or	r16,r5,r16
 2011a14:	8020c03a 	cmpne	r16,r16,zero
 2011a18:	000b883a 	mov	r5,zero
 2011a1c:	003f9106 	br	2011864 <__reset+0xfe008864>
 2011a20:	2023883a 	mov	r17,r4
 2011a24:	000b883a 	mov	r5,zero
 2011a28:	0021883a 	mov	r16,zero
 2011a2c:	003ee906 	br	20115d4 <__reset+0xfe0085d4>
 2011a30:	0201ffc4 	movi	r8,2047
 2011a34:	22003b26 	beq	r4,r8,2011b24 <__adddf3+0x748>
 2011a38:	01cfc83a 	sub	r7,zero,r7
 2011a3c:	29402034 	orhi	r5,r5,128
 2011a40:	02000e04 	movi	r8,56
 2011a44:	41c06216 	blt	r8,r7,2011bd0 <__adddf3+0x7f4>
 2011a48:	020007c4 	movi	r8,31
 2011a4c:	41c07016 	blt	r8,r7,2011c10 <__adddf3+0x834>
 2011a50:	02000804 	movi	r8,32
 2011a54:	41d1c83a 	sub	r8,r8,r7
 2011a58:	2a14983a 	sll	r10,r5,r8
 2011a5c:	81d2d83a 	srl	r9,r16,r7
 2011a60:	8210983a 	sll	r8,r16,r8
 2011a64:	29cad83a 	srl	r5,r5,r7
 2011a68:	5252b03a 	or	r9,r10,r9
 2011a6c:	400ec03a 	cmpne	r7,r8,zero
 2011a70:	49e0b03a 	or	r16,r9,r7
 2011a74:	81a1883a 	add	r16,r16,r6
 2011a78:	2885883a 	add	r2,r5,r2
 2011a7c:	818d803a 	cmpltu	r6,r16,r6
 2011a80:	118b883a 	add	r5,r2,r6
 2011a84:	2023883a 	mov	r17,r4
 2011a88:	003eef06 	br	2011648 <__reset+0xfe008648>
 2011a8c:	1186b03a 	or	r3,r2,r6
 2011a90:	183e7126 	beq	r3,zero,2011458 <__reset+0xfe008458>
 2011a94:	8187c83a 	sub	r3,r16,r6
 2011a98:	80d1803a 	cmpltu	r8,r16,r3
 2011a9c:	2889c83a 	sub	r4,r5,r2
 2011aa0:	2209c83a 	sub	r4,r4,r8
 2011aa4:	2200202c 	andhi	r8,r4,128
 2011aa8:	40005426 	beq	r8,zero,2011bfc <__adddf3+0x820>
 2011aac:	3421c83a 	sub	r16,r6,r16
 2011ab0:	114bc83a 	sub	r5,r2,r5
 2011ab4:	340d803a 	cmpltu	r6,r6,r16
 2011ab8:	298bc83a 	sub	r5,r5,r6
 2011abc:	3825883a 	mov	r18,r7
 2011ac0:	003e6506 	br	2011458 <__reset+0xfe008458>
 2011ac4:	1186b03a 	or	r3,r2,r6
 2011ac8:	18002b26 	beq	r3,zero,2011b78 <__adddf3+0x79c>
 2011acc:	2806d0fa 	srli	r3,r5,3
 2011ad0:	8020d0fa 	srli	r16,r16,3
 2011ad4:	280a977a 	slli	r5,r5,29
 2011ad8:	1900022c 	andhi	r4,r3,8
 2011adc:	2c20b03a 	or	r16,r5,r16
 2011ae0:	20000826 	beq	r4,zero,2011b04 <__adddf3+0x728>
 2011ae4:	1008d0fa 	srli	r4,r2,3
 2011ae8:	2140022c 	andhi	r5,r4,8
 2011aec:	2800051e 	bne	r5,zero,2011b04 <__adddf3+0x728>
 2011af0:	300cd0fa 	srli	r6,r6,3
 2011af4:	1004977a 	slli	r2,r2,29
 2011af8:	2007883a 	mov	r3,r4
 2011afc:	3825883a 	mov	r18,r7
 2011b00:	11a0b03a 	or	r16,r2,r6
 2011b04:	800ad77a 	srli	r5,r16,29
 2011b08:	180690fa 	slli	r3,r3,3
 2011b0c:	802090fa 	slli	r16,r16,3
 2011b10:	0441ffc4 	movi	r17,2047
 2011b14:	28cab03a 	or	r5,r5,r3
 2011b18:	003e4f06 	br	2011458 <__reset+0xfe008458>
 2011b1c:	0201ffc4 	movi	r8,2047
 2011b20:	223fc71e 	bne	r4,r8,2011a40 <__reset+0xfe008a40>
 2011b24:	100b883a 	mov	r5,r2
 2011b28:	3021883a 	mov	r16,r6
 2011b2c:	2023883a 	mov	r17,r4
 2011b30:	003e4906 	br	2011458 <__reset+0xfe008458>
 2011b34:	18002a26 	beq	r3,zero,2011be0 <__adddf3+0x804>
 2011b38:	1186b03a 	or	r3,r2,r6
 2011b3c:	18000e26 	beq	r3,zero,2011b78 <__adddf3+0x79c>
 2011b40:	2806d0fa 	srli	r3,r5,3
 2011b44:	8020d0fa 	srli	r16,r16,3
 2011b48:	280a977a 	slli	r5,r5,29
 2011b4c:	1900022c 	andhi	r4,r3,8
 2011b50:	2c20b03a 	or	r16,r5,r16
 2011b54:	203feb26 	beq	r4,zero,2011b04 <__reset+0xfe008b04>
 2011b58:	1008d0fa 	srli	r4,r2,3
 2011b5c:	2140022c 	andhi	r5,r4,8
 2011b60:	283fe81e 	bne	r5,zero,2011b04 <__reset+0xfe008b04>
 2011b64:	300cd0fa 	srli	r6,r6,3
 2011b68:	1004977a 	slli	r2,r2,29
 2011b6c:	2007883a 	mov	r3,r4
 2011b70:	11a0b03a 	or	r16,r2,r6
 2011b74:	003fe306 	br	2011b04 <__reset+0xfe008b04>
 2011b78:	0441ffc4 	movi	r17,2047
 2011b7c:	003e3606 	br	2011458 <__reset+0xfe008458>
 2011b80:	0005883a 	mov	r2,zero
 2011b84:	003f8a06 	br	20119b0 <__reset+0xfe0089b0>
 2011b88:	1a3ff804 	addi	r8,r3,-32
 2011b8c:	02400804 	movi	r9,32
 2011b90:	2a10d83a 	srl	r8,r5,r8
 2011b94:	1a402a26 	beq	r3,r9,2011c40 <__adddf3+0x864>
 2011b98:	02401004 	movi	r9,64
 2011b9c:	48c7c83a 	sub	r3,r9,r3
 2011ba0:	28ca983a 	sll	r5,r5,r3
 2011ba4:	2c20b03a 	or	r16,r5,r16
 2011ba8:	8020c03a 	cmpne	r16,r16,zero
 2011bac:	8220b03a 	or	r16,r16,r8
 2011bb0:	000b883a 	mov	r5,zero
 2011bb4:	003f2b06 	br	2011864 <__reset+0xfe008864>
 2011bb8:	0007883a 	mov	r3,zero
 2011bbc:	01402034 	movhi	r5,128
 2011bc0:	297fffc4 	addi	r5,r5,-1
 2011bc4:	043ffe04 	movi	r16,-8
 2011bc8:	0441ffc4 	movi	r17,2047
 2011bcc:	003e8106 	br	20115d4 <__reset+0xfe0085d4>
 2011bd0:	2c20b03a 	or	r16,r5,r16
 2011bd4:	8020c03a 	cmpne	r16,r16,zero
 2011bd8:	000b883a 	mov	r5,zero
 2011bdc:	003fa506 	br	2011a74 <__reset+0xfe008a74>
 2011be0:	100b883a 	mov	r5,r2
 2011be4:	3021883a 	mov	r16,r6
 2011be8:	0441ffc4 	movi	r17,2047
 2011bec:	003e1a06 	br	2011458 <__reset+0xfe008458>
 2011bf0:	100b883a 	mov	r5,r2
 2011bf4:	3021883a 	mov	r16,r6
 2011bf8:	003e1706 	br	2011458 <__reset+0xfe008458>
 2011bfc:	20c4b03a 	or	r2,r4,r3
 2011c00:	103f6026 	beq	r2,zero,2011984 <__reset+0xfe008984>
 2011c04:	200b883a 	mov	r5,r4
 2011c08:	1821883a 	mov	r16,r3
 2011c0c:	003e1206 	br	2011458 <__reset+0xfe008458>
 2011c10:	3a3ff804 	addi	r8,r7,-32
 2011c14:	02400804 	movi	r9,32
 2011c18:	2a10d83a 	srl	r8,r5,r8
 2011c1c:	3a400c26 	beq	r7,r9,2011c50 <__adddf3+0x874>
 2011c20:	02401004 	movi	r9,64
 2011c24:	49cfc83a 	sub	r7,r9,r7
 2011c28:	29ca983a 	sll	r5,r5,r7
 2011c2c:	2c20b03a 	or	r16,r5,r16
 2011c30:	8020c03a 	cmpne	r16,r16,zero
 2011c34:	8220b03a 	or	r16,r16,r8
 2011c38:	000b883a 	mov	r5,zero
 2011c3c:	003f8d06 	br	2011a74 <__reset+0xfe008a74>
 2011c40:	000b883a 	mov	r5,zero
 2011c44:	003fd706 	br	2011ba4 <__reset+0xfe008ba4>
 2011c48:	3021883a 	mov	r16,r6
 2011c4c:	003e0206 	br	2011458 <__reset+0xfe008458>
 2011c50:	000b883a 	mov	r5,zero
 2011c54:	003ff506 	br	2011c2c <__reset+0xfe008c2c>

02011c58 <__eqdf2>:
 2011c58:	2806d53a 	srli	r3,r5,20
 2011c5c:	3810d53a 	srli	r8,r7,20
 2011c60:	00800434 	movhi	r2,16
 2011c64:	10bfffc4 	addi	r2,r2,-1
 2011c68:	18c1ffcc 	andi	r3,r3,2047
 2011c6c:	0241ffc4 	movi	r9,2047
 2011c70:	2894703a 	and	r10,r5,r2
 2011c74:	4201ffcc 	andi	r8,r8,2047
 2011c78:	3884703a 	and	r2,r7,r2
 2011c7c:	280ad7fa 	srli	r5,r5,31
 2011c80:	380ed7fa 	srli	r7,r7,31
 2011c84:	1a400f26 	beq	r3,r9,2011cc4 <__eqdf2+0x6c>
 2011c88:	0241ffc4 	movi	r9,2047
 2011c8c:	42400326 	beq	r8,r9,2011c9c <__eqdf2+0x44>
 2011c90:	1a000526 	beq	r3,r8,2011ca8 <__eqdf2+0x50>
 2011c94:	00800044 	movi	r2,1
 2011c98:	f800283a 	ret
 2011c9c:	1192b03a 	or	r9,r2,r6
 2011ca0:	483ffc1e 	bne	r9,zero,2011c94 <__reset+0xfe008c94>
 2011ca4:	1a3ffb1e 	bne	r3,r8,2011c94 <__reset+0xfe008c94>
 2011ca8:	50bffa1e 	bne	r10,r2,2011c94 <__reset+0xfe008c94>
 2011cac:	21bff91e 	bne	r4,r6,2011c94 <__reset+0xfe008c94>
 2011cb0:	29c00826 	beq	r5,r7,2011cd4 <__eqdf2+0x7c>
 2011cb4:	183ff71e 	bne	r3,zero,2011c94 <__reset+0xfe008c94>
 2011cb8:	5104b03a 	or	r2,r10,r4
 2011cbc:	1004c03a 	cmpne	r2,r2,zero
 2011cc0:	f800283a 	ret
 2011cc4:	5112b03a 	or	r9,r10,r4
 2011cc8:	483fef26 	beq	r9,zero,2011c88 <__reset+0xfe008c88>
 2011ccc:	00800044 	movi	r2,1
 2011cd0:	f800283a 	ret
 2011cd4:	0005883a 	mov	r2,zero
 2011cd8:	f800283a 	ret

02011cdc <__gedf2>:
 2011cdc:	2804d53a 	srli	r2,r5,20
 2011ce0:	3810d53a 	srli	r8,r7,20
 2011ce4:	00c00434 	movhi	r3,16
 2011ce8:	18ffffc4 	addi	r3,r3,-1
 2011cec:	1081ffcc 	andi	r2,r2,2047
 2011cf0:	0241ffc4 	movi	r9,2047
 2011cf4:	28d4703a 	and	r10,r5,r3
 2011cf8:	4201ffcc 	andi	r8,r8,2047
 2011cfc:	38c6703a 	and	r3,r7,r3
 2011d00:	280ad7fa 	srli	r5,r5,31
 2011d04:	380ed7fa 	srli	r7,r7,31
 2011d08:	12401b26 	beq	r2,r9,2011d78 <__gedf2+0x9c>
 2011d0c:	0241ffc4 	movi	r9,2047
 2011d10:	42400926 	beq	r8,r9,2011d38 <__gedf2+0x5c>
 2011d14:	10000c1e 	bne	r2,zero,2011d48 <__gedf2+0x6c>
 2011d18:	5112b03a 	or	r9,r10,r4
 2011d1c:	4813003a 	cmpeq	r9,r9,zero
 2011d20:	4817883a 	mov	r11,r9
 2011d24:	40000a26 	beq	r8,zero,2011d50 <__gedf2+0x74>
 2011d28:	48001626 	beq	r9,zero,2011d84 <__gedf2+0xa8>
 2011d2c:	38000d1e 	bne	r7,zero,2011d64 <__gedf2+0x88>
 2011d30:	00bfffc4 	movi	r2,-1
 2011d34:	f800283a 	ret
 2011d38:	1992b03a 	or	r9,r3,r6
 2011d3c:	483ff526 	beq	r9,zero,2011d14 <__reset+0xfe008d14>
 2011d40:	00bfff84 	movi	r2,-2
 2011d44:	f800283a 	ret
 2011d48:	40000e1e 	bne	r8,zero,2011d84 <__gedf2+0xa8>
 2011d4c:	0017883a 	mov	r11,zero
 2011d50:	1992b03a 	or	r9,r3,r6
 2011d54:	4813003a 	cmpeq	r9,r9,zero
 2011d58:	5800041e 	bne	r11,zero,2011d6c <__gedf2+0x90>
 2011d5c:	48000926 	beq	r9,zero,2011d84 <__gedf2+0xa8>
 2011d60:	283ff31e 	bne	r5,zero,2011d30 <__reset+0xfe008d30>
 2011d64:	00800044 	movi	r2,1
 2011d68:	f800283a 	ret
 2011d6c:	483fef26 	beq	r9,zero,2011d2c <__reset+0xfe008d2c>
 2011d70:	0005883a 	mov	r2,zero
 2011d74:	f800283a 	ret
 2011d78:	5112b03a 	or	r9,r10,r4
 2011d7c:	483fe326 	beq	r9,zero,2011d0c <__reset+0xfe008d0c>
 2011d80:	003fef06 	br	2011d40 <__reset+0xfe008d40>
 2011d84:	29fff61e 	bne	r5,r7,2011d60 <__reset+0xfe008d60>
 2011d88:	40bff516 	blt	r8,r2,2011d60 <__reset+0xfe008d60>
 2011d8c:	12000316 	blt	r2,r8,2011d9c <__gedf2+0xc0>
 2011d90:	1abff336 	bltu	r3,r10,2011d60 <__reset+0xfe008d60>
 2011d94:	50c00326 	beq	r10,r3,2011da4 <__gedf2+0xc8>
 2011d98:	50fff52e 	bgeu	r10,r3,2011d70 <__reset+0xfe008d70>
 2011d9c:	283fe426 	beq	r5,zero,2011d30 <__reset+0xfe008d30>
 2011da0:	003ff006 	br	2011d64 <__reset+0xfe008d64>
 2011da4:	313fee36 	bltu	r6,r4,2011d60 <__reset+0xfe008d60>
 2011da8:	21bff12e 	bgeu	r4,r6,2011d70 <__reset+0xfe008d70>
 2011dac:	283fe026 	beq	r5,zero,2011d30 <__reset+0xfe008d30>
 2011db0:	003fec06 	br	2011d64 <__reset+0xfe008d64>

02011db4 <__ledf2>:
 2011db4:	2806d53a 	srli	r3,r5,20
 2011db8:	3810d53a 	srli	r8,r7,20
 2011dbc:	00800434 	movhi	r2,16
 2011dc0:	10bfffc4 	addi	r2,r2,-1
 2011dc4:	18c1ffcc 	andi	r3,r3,2047
 2011dc8:	0241ffc4 	movi	r9,2047
 2011dcc:	2894703a 	and	r10,r5,r2
 2011dd0:	4201ffcc 	andi	r8,r8,2047
 2011dd4:	3884703a 	and	r2,r7,r2
 2011dd8:	280ad7fa 	srli	r5,r5,31
 2011ddc:	380ed7fa 	srli	r7,r7,31
 2011de0:	1a402026 	beq	r3,r9,2011e64 <__ledf2+0xb0>
 2011de4:	0241ffc4 	movi	r9,2047
 2011de8:	42401726 	beq	r8,r9,2011e48 <__ledf2+0x94>
 2011dec:	18000b26 	beq	r3,zero,2011e1c <__ledf2+0x68>
 2011df0:	29403fcc 	andi	r5,r5,255
 2011df4:	39c03fcc 	andi	r7,r7,255
 2011df8:	40000f1e 	bne	r8,zero,2011e38 <__ledf2+0x84>
 2011dfc:	0017883a 	mov	r11,zero
 2011e00:	1192b03a 	or	r9,r2,r6
 2011e04:	4813003a 	cmpeq	r9,r9,zero
 2011e08:	58001326 	beq	r11,zero,2011e58 <__ledf2+0xa4>
 2011e0c:	48001e1e 	bne	r9,zero,2011e88 <__ledf2+0xd4>
 2011e10:	38000b1e 	bne	r7,zero,2011e40 <__ledf2+0x8c>
 2011e14:	00bfffc4 	movi	r2,-1
 2011e18:	f800283a 	ret
 2011e1c:	5112b03a 	or	r9,r10,r4
 2011e20:	4813003a 	cmpeq	r9,r9,zero
 2011e24:	4817883a 	mov	r11,r9
 2011e28:	29403fcc 	andi	r5,r5,255
 2011e2c:	39c03fcc 	andi	r7,r7,255
 2011e30:	403ff326 	beq	r8,zero,2011e00 <__reset+0xfe008e00>
 2011e34:	483ff61e 	bne	r9,zero,2011e10 <__reset+0xfe008e10>
 2011e38:	29c00e26 	beq	r5,r7,2011e74 <__ledf2+0xc0>
 2011e3c:	283ff51e 	bne	r5,zero,2011e14 <__reset+0xfe008e14>
 2011e40:	00800044 	movi	r2,1
 2011e44:	f800283a 	ret
 2011e48:	1192b03a 	or	r9,r2,r6
 2011e4c:	483fe726 	beq	r9,zero,2011dec <__reset+0xfe008dec>
 2011e50:	00800084 	movi	r2,2
 2011e54:	f800283a 	ret
 2011e58:	483ff726 	beq	r9,zero,2011e38 <__reset+0xfe008e38>
 2011e5c:	283ff826 	beq	r5,zero,2011e40 <__reset+0xfe008e40>
 2011e60:	003fec06 	br	2011e14 <__reset+0xfe008e14>
 2011e64:	5112b03a 	or	r9,r10,r4
 2011e68:	483fde26 	beq	r9,zero,2011de4 <__reset+0xfe008de4>
 2011e6c:	00800084 	movi	r2,2
 2011e70:	f800283a 	ret
 2011e74:	40fff116 	blt	r8,r3,2011e3c <__reset+0xfe008e3c>
 2011e78:	1a000716 	blt	r3,r8,2011e98 <__ledf2+0xe4>
 2011e7c:	12bfef36 	bltu	r2,r10,2011e3c <__reset+0xfe008e3c>
 2011e80:	50800326 	beq	r10,r2,2011e90 <__ledf2+0xdc>
 2011e84:	50800436 	bltu	r10,r2,2011e98 <__ledf2+0xe4>
 2011e88:	0005883a 	mov	r2,zero
 2011e8c:	f800283a 	ret
 2011e90:	313fea36 	bltu	r6,r4,2011e3c <__reset+0xfe008e3c>
 2011e94:	21bffc2e 	bgeu	r4,r6,2011e88 <__reset+0xfe008e88>
 2011e98:	283fde26 	beq	r5,zero,2011e14 <__reset+0xfe008e14>
 2011e9c:	003fe806 	br	2011e40 <__reset+0xfe008e40>

02011ea0 <__subdf3>:
 2011ea0:	02000434 	movhi	r8,16
 2011ea4:	423fffc4 	addi	r8,r8,-1
 2011ea8:	defffb04 	addi	sp,sp,-20
 2011eac:	2a06703a 	and	r3,r5,r8
 2011eb0:	3a10703a 	and	r8,r7,r8
 2011eb4:	3804d53a 	srli	r2,r7,20
 2011eb8:	dc800215 	stw	r18,8(sp)
 2011ebc:	dc400115 	stw	r17,4(sp)
 2011ec0:	2824d7fa 	srli	r18,r5,31
 2011ec4:	2822d53a 	srli	r17,r5,20
 2011ec8:	401090fa 	slli	r8,r8,3
 2011ecc:	180a90fa 	slli	r5,r3,3
 2011ed0:	3006d77a 	srli	r3,r6,29
 2011ed4:	2014d77a 	srli	r10,r4,29
 2011ed8:	dc000015 	stw	r16,0(sp)
 2011edc:	40d0b03a 	or	r8,r8,r3
 2011ee0:	dfc00415 	stw	ra,16(sp)
 2011ee4:	dcc00315 	stw	r19,12(sp)
 2011ee8:	1081ffcc 	andi	r2,r2,2047
 2011eec:	00c1ffc4 	movi	r3,2047
 2011ef0:	9013883a 	mov	r9,r18
 2011ef4:	8c41ffcc 	andi	r17,r17,2047
 2011ef8:	94803fcc 	andi	r18,r18,255
 2011efc:	2a8ab03a 	or	r5,r5,r10
 2011f00:	202090fa 	slli	r16,r4,3
 2011f04:	380ed7fa 	srli	r7,r7,31
 2011f08:	300c90fa 	slli	r6,r6,3
 2011f0c:	10c02e26 	beq	r2,r3,2011fc8 <__subdf3+0x128>
 2011f10:	39c0005c 	xori	r7,r7,1
 2011f14:	8887c83a 	sub	r3,r17,r2
 2011f18:	91c03026 	beq	r18,r7,2011fdc <__subdf3+0x13c>
 2011f1c:	00c0a40e 	bge	zero,r3,20121b0 <__subdf3+0x310>
 2011f20:	10004c1e 	bne	r2,zero,2012054 <__subdf3+0x1b4>
 2011f24:	4184b03a 	or	r2,r8,r6
 2011f28:	10008f1e 	bne	r2,zero,2012168 <__subdf3+0x2c8>
 2011f2c:	808001cc 	andi	r2,r16,7
 2011f30:	10007d26 	beq	r2,zero,2012128 <__subdf3+0x288>
 2011f34:	80c003cc 	andi	r3,r16,15
 2011f38:	00800104 	movi	r2,4
 2011f3c:	18807a26 	beq	r3,r2,2012128 <__subdf3+0x288>
 2011f40:	80c00104 	addi	r3,r16,4
 2011f44:	1c21803a 	cmpltu	r16,r3,r16
 2011f48:	2c0b883a 	add	r5,r5,r16
 2011f4c:	2880202c 	andhi	r2,r5,128
 2011f50:	9240004c 	andi	r9,r18,1
 2011f54:	1821883a 	mov	r16,r3
 2011f58:	10007626 	beq	r2,zero,2012134 <__subdf3+0x294>
 2011f5c:	8c400044 	addi	r17,r17,1
 2011f60:	0081ffc4 	movi	r2,2047
 2011f64:	8880b226 	beq	r17,r2,2012230 <__subdf3+0x390>
 2011f68:	00bfe034 	movhi	r2,65408
 2011f6c:	10bfffc4 	addi	r2,r2,-1
 2011f70:	288a703a 	and	r5,r5,r2
 2011f74:	2804977a 	slli	r2,r5,29
 2011f78:	280a927a 	slli	r5,r5,9
 2011f7c:	8020d0fa 	srli	r16,r16,3
 2011f80:	280ad33a 	srli	r5,r5,12
 2011f84:	1404b03a 	or	r2,r2,r16
 2011f88:	8c41ffcc 	andi	r17,r17,2047
 2011f8c:	8822953a 	slli	r17,r17,20
 2011f90:	4a403fcc 	andi	r9,r9,255
 2011f94:	481297fa 	slli	r9,r9,31
 2011f98:	00c00434 	movhi	r3,16
 2011f9c:	18ffffc4 	addi	r3,r3,-1
 2011fa0:	28c6703a 	and	r3,r5,r3
 2011fa4:	1c46b03a 	or	r3,r3,r17
 2011fa8:	1a46b03a 	or	r3,r3,r9
 2011fac:	dfc00417 	ldw	ra,16(sp)
 2011fb0:	dcc00317 	ldw	r19,12(sp)
 2011fb4:	dc800217 	ldw	r18,8(sp)
 2011fb8:	dc400117 	ldw	r17,4(sp)
 2011fbc:	dc000017 	ldw	r16,0(sp)
 2011fc0:	dec00504 	addi	sp,sp,20
 2011fc4:	f800283a 	ret
 2011fc8:	4186b03a 	or	r3,r8,r6
 2011fcc:	183fd026 	beq	r3,zero,2011f10 <__reset+0xfe008f10>
 2011fd0:	39c03fcc 	andi	r7,r7,255
 2011fd4:	8887c83a 	sub	r3,r17,r2
 2011fd8:	91ffd01e 	bne	r18,r7,2011f1c <__reset+0xfe008f1c>
 2011fdc:	00c09b0e 	bge	zero,r3,201224c <__subdf3+0x3ac>
 2011fe0:	10006926 	beq	r2,zero,2012188 <__subdf3+0x2e8>
 2011fe4:	0081ffc4 	movi	r2,2047
 2011fe8:	88bfd026 	beq	r17,r2,2011f2c <__reset+0xfe008f2c>
 2011fec:	42002034 	orhi	r8,r8,128
 2011ff0:	00800e04 	movi	r2,56
 2011ff4:	10c0e20e 	bge	r2,r3,2012380 <__subdf3+0x4e0>
 2011ff8:	418cb03a 	or	r6,r8,r6
 2011ffc:	300cc03a 	cmpne	r6,r6,zero
 2012000:	0007883a 	mov	r3,zero
 2012004:	340d883a 	add	r6,r6,r16
 2012008:	3421803a 	cmpltu	r16,r6,r16
 201200c:	194b883a 	add	r5,r3,r5
 2012010:	2c0b883a 	add	r5,r5,r16
 2012014:	3021883a 	mov	r16,r6
 2012018:	2880202c 	andhi	r2,r5,128
 201201c:	103fc326 	beq	r2,zero,2011f2c <__reset+0xfe008f2c>
 2012020:	8c400044 	addi	r17,r17,1
 2012024:	0081ffc4 	movi	r2,2047
 2012028:	88811026 	beq	r17,r2,201246c <__subdf3+0x5cc>
 201202c:	00bfe034 	movhi	r2,65408
 2012030:	10bfffc4 	addi	r2,r2,-1
 2012034:	288a703a 	and	r5,r5,r2
 2012038:	8006d07a 	srli	r3,r16,1
 201203c:	280497fa 	slli	r2,r5,31
 2012040:	8400004c 	andi	r16,r16,1
 2012044:	80e0b03a 	or	r16,r16,r3
 2012048:	80a0b03a 	or	r16,r16,r2
 201204c:	280ad07a 	srli	r5,r5,1
 2012050:	003fb606 	br	2011f2c <__reset+0xfe008f2c>
 2012054:	0081ffc4 	movi	r2,2047
 2012058:	88bfb426 	beq	r17,r2,2011f2c <__reset+0xfe008f2c>
 201205c:	42002034 	orhi	r8,r8,128
 2012060:	00800e04 	movi	r2,56
 2012064:	10c07516 	blt	r2,r3,201223c <__subdf3+0x39c>
 2012068:	008007c4 	movi	r2,31
 201206c:	10c09816 	blt	r2,r3,20122d0 <__subdf3+0x430>
 2012070:	00800804 	movi	r2,32
 2012074:	10c5c83a 	sub	r2,r2,r3
 2012078:	30c8d83a 	srl	r4,r6,r3
 201207c:	408e983a 	sll	r7,r8,r2
 2012080:	3084983a 	sll	r2,r6,r2
 2012084:	40c6d83a 	srl	r3,r8,r3
 2012088:	3908b03a 	or	r4,r7,r4
 201208c:	1004c03a 	cmpne	r2,r2,zero
 2012090:	208cb03a 	or	r6,r4,r2
 2012094:	818dc83a 	sub	r6,r16,r6
 2012098:	81a1803a 	cmpltu	r16,r16,r6
 201209c:	28cbc83a 	sub	r5,r5,r3
 20120a0:	2c0bc83a 	sub	r5,r5,r16
 20120a4:	3021883a 	mov	r16,r6
 20120a8:	2880202c 	andhi	r2,r5,128
 20120ac:	103f9f26 	beq	r2,zero,2011f2c <__reset+0xfe008f2c>
 20120b0:	04c02034 	movhi	r19,128
 20120b4:	9cffffc4 	addi	r19,r19,-1
 20120b8:	2ce6703a 	and	r19,r5,r19
 20120bc:	98004d26 	beq	r19,zero,20121f4 <__subdf3+0x354>
 20120c0:	9809883a 	mov	r4,r19
 20120c4:	2006c340 	call	2006c34 <__clzsi2>
 20120c8:	10fffe04 	addi	r3,r2,-8
 20120cc:	010007c4 	movi	r4,31
 20120d0:	20c04e16 	blt	r4,r3,201220c <__subdf3+0x36c>
 20120d4:	01000a04 	movi	r4,40
 20120d8:	2085c83a 	sub	r2,r4,r2
 20120dc:	8084d83a 	srl	r2,r16,r2
 20120e0:	98e6983a 	sll	r19,r19,r3
 20120e4:	80e0983a 	sll	r16,r16,r3
 20120e8:	14c4b03a 	or	r2,r2,r19
 20120ec:	1c404b16 	blt	r3,r17,201221c <__subdf3+0x37c>
 20120f0:	1c63c83a 	sub	r17,r3,r17
 20120f4:	89400044 	addi	r5,r17,1
 20120f8:	00c007c4 	movi	r3,31
 20120fc:	19406716 	blt	r3,r5,201229c <__subdf3+0x3fc>
 2012100:	1c47c83a 	sub	r3,r3,r17
 2012104:	8148d83a 	srl	r4,r16,r5
 2012108:	80e0983a 	sll	r16,r16,r3
 201210c:	10c6983a 	sll	r3,r2,r3
 2012110:	114ad83a 	srl	r5,r2,r5
 2012114:	8004c03a 	cmpne	r2,r16,zero
 2012118:	20e0b03a 	or	r16,r4,r3
 201211c:	80a0b03a 	or	r16,r16,r2
 2012120:	0023883a 	mov	r17,zero
 2012124:	003f8106 	br	2011f2c <__reset+0xfe008f2c>
 2012128:	2880202c 	andhi	r2,r5,128
 201212c:	9240004c 	andi	r9,r18,1
 2012130:	103f8a1e 	bne	r2,zero,2011f5c <__reset+0xfe008f5c>
 2012134:	2804977a 	slli	r2,r5,29
 2012138:	8020d0fa 	srli	r16,r16,3
 201213c:	00c1ffc4 	movi	r3,2047
 2012140:	280ad0fa 	srli	r5,r5,3
 2012144:	1404b03a 	or	r2,r2,r16
 2012148:	88c0031e 	bne	r17,r3,2012158 <__subdf3+0x2b8>
 201214c:	1146b03a 	or	r3,r2,r5
 2012150:	18003726 	beq	r3,zero,2012230 <__subdf3+0x390>
 2012154:	29400234 	orhi	r5,r5,8
 2012158:	00c00434 	movhi	r3,16
 201215c:	18ffffc4 	addi	r3,r3,-1
 2012160:	28ca703a 	and	r5,r5,r3
 2012164:	003f8806 	br	2011f88 <__reset+0xfe008f88>
 2012168:	18ffffc4 	addi	r3,r3,-1
 201216c:	1800481e 	bne	r3,zero,2012290 <__subdf3+0x3f0>
 2012170:	818dc83a 	sub	r6,r16,r6
 2012174:	81a1803a 	cmpltu	r16,r16,r6
 2012178:	2a0bc83a 	sub	r5,r5,r8
 201217c:	2c0bc83a 	sub	r5,r5,r16
 2012180:	3021883a 	mov	r16,r6
 2012184:	003fc806 	br	20120a8 <__reset+0xfe0090a8>
 2012188:	4184b03a 	or	r2,r8,r6
 201218c:	103f6726 	beq	r2,zero,2011f2c <__reset+0xfe008f2c>
 2012190:	18ffffc4 	addi	r3,r3,-1
 2012194:	1800931e 	bne	r3,zero,20123e4 <__subdf3+0x544>
 2012198:	340d883a 	add	r6,r6,r16
 201219c:	3421803a 	cmpltu	r16,r6,r16
 20121a0:	414b883a 	add	r5,r8,r5
 20121a4:	2c0b883a 	add	r5,r5,r16
 20121a8:	3021883a 	mov	r16,r6
 20121ac:	003f9a06 	br	2012018 <__reset+0xfe009018>
 20121b0:	1800531e 	bne	r3,zero,2012300 <__subdf3+0x460>
 20121b4:	88800044 	addi	r2,r17,1
 20121b8:	1081ffcc 	andi	r2,r2,2047
 20121bc:	00c00044 	movi	r3,1
 20121c0:	1880a00e 	bge	r3,r2,2012444 <__subdf3+0x5a4>
 20121c4:	8185c83a 	sub	r2,r16,r6
 20121c8:	8087803a 	cmpltu	r3,r16,r2
 20121cc:	2a27c83a 	sub	r19,r5,r8
 20121d0:	98e7c83a 	sub	r19,r19,r3
 20121d4:	98c0202c 	andhi	r3,r19,128
 20121d8:	18006226 	beq	r3,zero,2012364 <__subdf3+0x4c4>
 20121dc:	3421c83a 	sub	r16,r6,r16
 20121e0:	414bc83a 	sub	r5,r8,r5
 20121e4:	340d803a 	cmpltu	r6,r6,r16
 20121e8:	29a7c83a 	sub	r19,r5,r6
 20121ec:	3825883a 	mov	r18,r7
 20121f0:	983fb31e 	bne	r19,zero,20120c0 <__reset+0xfe0090c0>
 20121f4:	8009883a 	mov	r4,r16
 20121f8:	2006c340 	call	2006c34 <__clzsi2>
 20121fc:	10800804 	addi	r2,r2,32
 2012200:	10fffe04 	addi	r3,r2,-8
 2012204:	010007c4 	movi	r4,31
 2012208:	20ffb20e 	bge	r4,r3,20120d4 <__reset+0xfe0090d4>
 201220c:	10bff604 	addi	r2,r2,-40
 2012210:	8084983a 	sll	r2,r16,r2
 2012214:	0021883a 	mov	r16,zero
 2012218:	1c7fb50e 	bge	r3,r17,20120f0 <__reset+0xfe0090f0>
 201221c:	017fe034 	movhi	r5,65408
 2012220:	297fffc4 	addi	r5,r5,-1
 2012224:	88e3c83a 	sub	r17,r17,r3
 2012228:	114a703a 	and	r5,r2,r5
 201222c:	003f3f06 	br	2011f2c <__reset+0xfe008f2c>
 2012230:	000b883a 	mov	r5,zero
 2012234:	0005883a 	mov	r2,zero
 2012238:	003f5306 	br	2011f88 <__reset+0xfe008f88>
 201223c:	418cb03a 	or	r6,r8,r6
 2012240:	300cc03a 	cmpne	r6,r6,zero
 2012244:	0007883a 	mov	r3,zero
 2012248:	003f9206 	br	2012094 <__reset+0xfe009094>
 201224c:	1800961e 	bne	r3,zero,20124a8 <__subdf3+0x608>
 2012250:	88800044 	addi	r2,r17,1
 2012254:	1101ffcc 	andi	r4,r2,2047
 2012258:	00c00044 	movi	r3,1
 201225c:	1900680e 	bge	r3,r4,2012400 <__subdf3+0x560>
 2012260:	00c1ffc4 	movi	r3,2047
 2012264:	10c0b626 	beq	r2,r3,2012540 <__subdf3+0x6a0>
 2012268:	340d883a 	add	r6,r6,r16
 201226c:	3421803a 	cmpltu	r16,r6,r16
 2012270:	414b883a 	add	r5,r8,r5
 2012274:	2c0b883a 	add	r5,r5,r16
 2012278:	282097fa 	slli	r16,r5,31
 201227c:	300cd07a 	srli	r6,r6,1
 2012280:	280ad07a 	srli	r5,r5,1
 2012284:	1023883a 	mov	r17,r2
 2012288:	81a0b03a 	or	r16,r16,r6
 201228c:	003f2706 	br	2011f2c <__reset+0xfe008f2c>
 2012290:	0081ffc4 	movi	r2,2047
 2012294:	88bf721e 	bne	r17,r2,2012060 <__reset+0xfe009060>
 2012298:	003f2406 	br	2011f2c <__reset+0xfe008f2c>
 201229c:	893ff844 	addi	r4,r17,-31
 20122a0:	00c00804 	movi	r3,32
 20122a4:	1108d83a 	srl	r4,r2,r4
 20122a8:	28c05126 	beq	r5,r3,20123f0 <__subdf3+0x550>
 20122ac:	00c00fc4 	movi	r3,63
 20122b0:	1c63c83a 	sub	r17,r3,r17
 20122b4:	1444983a 	sll	r2,r2,r17
 20122b8:	1420b03a 	or	r16,r2,r16
 20122bc:	8020c03a 	cmpne	r16,r16,zero
 20122c0:	8120b03a 	or	r16,r16,r4
 20122c4:	000b883a 	mov	r5,zero
 20122c8:	0023883a 	mov	r17,zero
 20122cc:	003f1706 	br	2011f2c <__reset+0xfe008f2c>
 20122d0:	18bff804 	addi	r2,r3,-32
 20122d4:	01000804 	movi	r4,32
 20122d8:	4084d83a 	srl	r2,r8,r2
 20122dc:	19004626 	beq	r3,r4,20123f8 <__subdf3+0x558>
 20122e0:	01001004 	movi	r4,64
 20122e4:	20c7c83a 	sub	r3,r4,r3
 20122e8:	40d0983a 	sll	r8,r8,r3
 20122ec:	418cb03a 	or	r6,r8,r6
 20122f0:	300cc03a 	cmpne	r6,r6,zero
 20122f4:	308cb03a 	or	r6,r6,r2
 20122f8:	0007883a 	mov	r3,zero
 20122fc:	003f6506 	br	2012094 <__reset+0xfe009094>
 2012300:	88002b26 	beq	r17,zero,20123b0 <__subdf3+0x510>
 2012304:	0101ffc4 	movi	r4,2047
 2012308:	11002f26 	beq	r2,r4,20123c8 <__subdf3+0x528>
 201230c:	00c7c83a 	sub	r3,zero,r3
 2012310:	29402034 	orhi	r5,r5,128
 2012314:	01000e04 	movi	r4,56
 2012318:	20c08516 	blt	r4,r3,2012530 <__subdf3+0x690>
 201231c:	010007c4 	movi	r4,31
 2012320:	20c0cd16 	blt	r4,r3,2012658 <__subdf3+0x7b8>
 2012324:	01000804 	movi	r4,32
 2012328:	20c9c83a 	sub	r4,r4,r3
 201232c:	2914983a 	sll	r10,r5,r4
 2012330:	80d2d83a 	srl	r9,r16,r3
 2012334:	8108983a 	sll	r4,r16,r4
 2012338:	28cad83a 	srl	r5,r5,r3
 201233c:	5252b03a 	or	r9,r10,r9
 2012340:	2006c03a 	cmpne	r3,r4,zero
 2012344:	48e0b03a 	or	r16,r9,r3
 2012348:	3421c83a 	sub	r16,r6,r16
 201234c:	414bc83a 	sub	r5,r8,r5
 2012350:	340d803a 	cmpltu	r6,r6,r16
 2012354:	298bc83a 	sub	r5,r5,r6
 2012358:	1023883a 	mov	r17,r2
 201235c:	3825883a 	mov	r18,r7
 2012360:	003f5106 	br	20120a8 <__reset+0xfe0090a8>
 2012364:	9886b03a 	or	r3,r19,r2
 2012368:	18001c1e 	bne	r3,zero,20123dc <__subdf3+0x53c>
 201236c:	0013883a 	mov	r9,zero
 2012370:	000b883a 	mov	r5,zero
 2012374:	0021883a 	mov	r16,zero
 2012378:	0023883a 	mov	r17,zero
 201237c:	003f6d06 	br	2012134 <__reset+0xfe009134>
 2012380:	008007c4 	movi	r2,31
 2012384:	10c03c16 	blt	r2,r3,2012478 <__subdf3+0x5d8>
 2012388:	00800804 	movi	r2,32
 201238c:	10c5c83a 	sub	r2,r2,r3
 2012390:	30c8d83a 	srl	r4,r6,r3
 2012394:	408e983a 	sll	r7,r8,r2
 2012398:	3084983a 	sll	r2,r6,r2
 201239c:	40c6d83a 	srl	r3,r8,r3
 20123a0:	3908b03a 	or	r4,r7,r4
 20123a4:	1004c03a 	cmpne	r2,r2,zero
 20123a8:	208cb03a 	or	r6,r4,r2
 20123ac:	003f1506 	br	2012004 <__reset+0xfe009004>
 20123b0:	2c08b03a 	or	r4,r5,r16
 20123b4:	20000426 	beq	r4,zero,20123c8 <__subdf3+0x528>
 20123b8:	00c6303a 	nor	r3,zero,r3
 20123bc:	183fe226 	beq	r3,zero,2012348 <__reset+0xfe009348>
 20123c0:	0101ffc4 	movi	r4,2047
 20123c4:	113fd31e 	bne	r2,r4,2012314 <__reset+0xfe009314>
 20123c8:	400b883a 	mov	r5,r8
 20123cc:	3021883a 	mov	r16,r6
 20123d0:	1023883a 	mov	r17,r2
 20123d4:	3825883a 	mov	r18,r7
 20123d8:	003ed406 	br	2011f2c <__reset+0xfe008f2c>
 20123dc:	1021883a 	mov	r16,r2
 20123e0:	003f3606 	br	20120bc <__reset+0xfe0090bc>
 20123e4:	0081ffc4 	movi	r2,2047
 20123e8:	88bf011e 	bne	r17,r2,2011ff0 <__reset+0xfe008ff0>
 20123ec:	003ecf06 	br	2011f2c <__reset+0xfe008f2c>
 20123f0:	0005883a 	mov	r2,zero
 20123f4:	003fb006 	br	20122b8 <__reset+0xfe0092b8>
 20123f8:	0011883a 	mov	r8,zero
 20123fc:	003fbb06 	br	20122ec <__reset+0xfe0092ec>
 2012400:	2c04b03a 	or	r2,r5,r16
 2012404:	88007f1e 	bne	r17,zero,2012604 <__subdf3+0x764>
 2012408:	1000a926 	beq	r2,zero,20126b0 <__subdf3+0x810>
 201240c:	4184b03a 	or	r2,r8,r6
 2012410:	103ec626 	beq	r2,zero,2011f2c <__reset+0xfe008f2c>
 2012414:	340d883a 	add	r6,r6,r16
 2012418:	414b883a 	add	r5,r8,r5
 201241c:	3421803a 	cmpltu	r16,r6,r16
 2012420:	2c0b883a 	add	r5,r5,r16
 2012424:	2880202c 	andhi	r2,r5,128
 2012428:	1000bb26 	beq	r2,zero,2012718 <__subdf3+0x878>
 201242c:	00bfe034 	movhi	r2,65408
 2012430:	10bfffc4 	addi	r2,r2,-1
 2012434:	288a703a 	and	r5,r5,r2
 2012438:	3021883a 	mov	r16,r6
 201243c:	1823883a 	mov	r17,r3
 2012440:	003eba06 	br	2011f2c <__reset+0xfe008f2c>
 2012444:	2c04b03a 	or	r2,r5,r16
 2012448:	8800311e 	bne	r17,zero,2012510 <__subdf3+0x670>
 201244c:	1000451e 	bne	r2,zero,2012564 <__subdf3+0x6c4>
 2012450:	4184b03a 	or	r2,r8,r6
 2012454:	10000426 	beq	r2,zero,2012468 <__subdf3+0x5c8>
 2012458:	400b883a 	mov	r5,r8
 201245c:	3021883a 	mov	r16,r6
 2012460:	3825883a 	mov	r18,r7
 2012464:	003eb106 	br	2011f2c <__reset+0xfe008f2c>
 2012468:	0013883a 	mov	r9,zero
 201246c:	000b883a 	mov	r5,zero
 2012470:	0021883a 	mov	r16,zero
 2012474:	003f2f06 	br	2012134 <__reset+0xfe009134>
 2012478:	18bff804 	addi	r2,r3,-32
 201247c:	01000804 	movi	r4,32
 2012480:	4084d83a 	srl	r2,r8,r2
 2012484:	19007226 	beq	r3,r4,2012650 <__subdf3+0x7b0>
 2012488:	01001004 	movi	r4,64
 201248c:	20c7c83a 	sub	r3,r4,r3
 2012490:	40d0983a 	sll	r8,r8,r3
 2012494:	418cb03a 	or	r6,r8,r6
 2012498:	300cc03a 	cmpne	r6,r6,zero
 201249c:	308cb03a 	or	r6,r6,r2
 20124a0:	0007883a 	mov	r3,zero
 20124a4:	003ed706 	br	2012004 <__reset+0xfe009004>
 20124a8:	8800291e 	bne	r17,zero,2012550 <__subdf3+0x6b0>
 20124ac:	2c08b03a 	or	r4,r5,r16
 20124b0:	20005026 	beq	r4,zero,20125f4 <__subdf3+0x754>
 20124b4:	00c6303a 	nor	r3,zero,r3
 20124b8:	18000f26 	beq	r3,zero,20124f8 <__subdf3+0x658>
 20124bc:	0101ffc4 	movi	r4,2047
 20124c0:	11004c26 	beq	r2,r4,20125f4 <__subdf3+0x754>
 20124c4:	01000e04 	movi	r4,56
 20124c8:	20c07516 	blt	r4,r3,20126a0 <__subdf3+0x800>
 20124cc:	010007c4 	movi	r4,31
 20124d0:	20c08316 	blt	r4,r3,20126e0 <__subdf3+0x840>
 20124d4:	01000804 	movi	r4,32
 20124d8:	20c9c83a 	sub	r4,r4,r3
 20124dc:	2914983a 	sll	r10,r5,r4
 20124e0:	80ced83a 	srl	r7,r16,r3
 20124e4:	8108983a 	sll	r4,r16,r4
 20124e8:	28cad83a 	srl	r5,r5,r3
 20124ec:	51ceb03a 	or	r7,r10,r7
 20124f0:	2006c03a 	cmpne	r3,r4,zero
 20124f4:	38e0b03a 	or	r16,r7,r3
 20124f8:	81a1883a 	add	r16,r16,r6
 20124fc:	2a0b883a 	add	r5,r5,r8
 2012500:	818d803a 	cmpltu	r6,r16,r6
 2012504:	298b883a 	add	r5,r5,r6
 2012508:	1023883a 	mov	r17,r2
 201250c:	003ec206 	br	2012018 <__reset+0xfe009018>
 2012510:	1000221e 	bne	r2,zero,201259c <__subdf3+0x6fc>
 2012514:	4184b03a 	or	r2,r8,r6
 2012518:	10005b26 	beq	r2,zero,2012688 <__subdf3+0x7e8>
 201251c:	400b883a 	mov	r5,r8
 2012520:	3021883a 	mov	r16,r6
 2012524:	3825883a 	mov	r18,r7
 2012528:	0441ffc4 	movi	r17,2047
 201252c:	003e7f06 	br	2011f2c <__reset+0xfe008f2c>
 2012530:	2c20b03a 	or	r16,r5,r16
 2012534:	8020c03a 	cmpne	r16,r16,zero
 2012538:	000b883a 	mov	r5,zero
 201253c:	003f8206 	br	2012348 <__reset+0xfe009348>
 2012540:	1023883a 	mov	r17,r2
 2012544:	000b883a 	mov	r5,zero
 2012548:	0021883a 	mov	r16,zero
 201254c:	003ef906 	br	2012134 <__reset+0xfe009134>
 2012550:	0101ffc4 	movi	r4,2047
 2012554:	11002726 	beq	r2,r4,20125f4 <__subdf3+0x754>
 2012558:	00c7c83a 	sub	r3,zero,r3
 201255c:	29402034 	orhi	r5,r5,128
 2012560:	003fd806 	br	20124c4 <__reset+0xfe0094c4>
 2012564:	4184b03a 	or	r2,r8,r6
 2012568:	103e7026 	beq	r2,zero,2011f2c <__reset+0xfe008f2c>
 201256c:	8185c83a 	sub	r2,r16,r6
 2012570:	8089803a 	cmpltu	r4,r16,r2
 2012574:	2a07c83a 	sub	r3,r5,r8
 2012578:	1907c83a 	sub	r3,r3,r4
 201257c:	1900202c 	andhi	r4,r3,128
 2012580:	20005226 	beq	r4,zero,20126cc <__subdf3+0x82c>
 2012584:	3421c83a 	sub	r16,r6,r16
 2012588:	414bc83a 	sub	r5,r8,r5
 201258c:	340d803a 	cmpltu	r6,r6,r16
 2012590:	298bc83a 	sub	r5,r5,r6
 2012594:	3825883a 	mov	r18,r7
 2012598:	003e6406 	br	2011f2c <__reset+0xfe008f2c>
 201259c:	4184b03a 	or	r2,r8,r6
 20125a0:	10002926 	beq	r2,zero,2012648 <__subdf3+0x7a8>
 20125a4:	2804d0fa 	srli	r2,r5,3
 20125a8:	8020d0fa 	srli	r16,r16,3
 20125ac:	280a977a 	slli	r5,r5,29
 20125b0:	10c0022c 	andhi	r3,r2,8
 20125b4:	2c20b03a 	or	r16,r5,r16
 20125b8:	18000826 	beq	r3,zero,20125dc <__subdf3+0x73c>
 20125bc:	4006d0fa 	srli	r3,r8,3
 20125c0:	1900022c 	andhi	r4,r3,8
 20125c4:	2000051e 	bne	r4,zero,20125dc <__subdf3+0x73c>
 20125c8:	300cd0fa 	srli	r6,r6,3
 20125cc:	4010977a 	slli	r8,r8,29
 20125d0:	1805883a 	mov	r2,r3
 20125d4:	3825883a 	mov	r18,r7
 20125d8:	41a0b03a 	or	r16,r8,r6
 20125dc:	800ad77a 	srli	r5,r16,29
 20125e0:	100490fa 	slli	r2,r2,3
 20125e4:	802090fa 	slli	r16,r16,3
 20125e8:	0441ffc4 	movi	r17,2047
 20125ec:	288ab03a 	or	r5,r5,r2
 20125f0:	003e4e06 	br	2011f2c <__reset+0xfe008f2c>
 20125f4:	400b883a 	mov	r5,r8
 20125f8:	3021883a 	mov	r16,r6
 20125fc:	1023883a 	mov	r17,r2
 2012600:	003e4a06 	br	2011f2c <__reset+0xfe008f2c>
 2012604:	10002d26 	beq	r2,zero,20126bc <__subdf3+0x81c>
 2012608:	4184b03a 	or	r2,r8,r6
 201260c:	10000e26 	beq	r2,zero,2012648 <__subdf3+0x7a8>
 2012610:	2804d0fa 	srli	r2,r5,3
 2012614:	8020d0fa 	srli	r16,r16,3
 2012618:	280a977a 	slli	r5,r5,29
 201261c:	10c0022c 	andhi	r3,r2,8
 2012620:	2c20b03a 	or	r16,r5,r16
 2012624:	183fed26 	beq	r3,zero,20125dc <__reset+0xfe0095dc>
 2012628:	4006d0fa 	srli	r3,r8,3
 201262c:	1900022c 	andhi	r4,r3,8
 2012630:	203fea1e 	bne	r4,zero,20125dc <__reset+0xfe0095dc>
 2012634:	300cd0fa 	srli	r6,r6,3
 2012638:	4010977a 	slli	r8,r8,29
 201263c:	1805883a 	mov	r2,r3
 2012640:	41a0b03a 	or	r16,r8,r6
 2012644:	003fe506 	br	20125dc <__reset+0xfe0095dc>
 2012648:	0441ffc4 	movi	r17,2047
 201264c:	003e3706 	br	2011f2c <__reset+0xfe008f2c>
 2012650:	0011883a 	mov	r8,zero
 2012654:	003f8f06 	br	2012494 <__reset+0xfe009494>
 2012658:	193ff804 	addi	r4,r3,-32
 201265c:	02400804 	movi	r9,32
 2012660:	2908d83a 	srl	r4,r5,r4
 2012664:	1a402a26 	beq	r3,r9,2012710 <__subdf3+0x870>
 2012668:	02401004 	movi	r9,64
 201266c:	48c7c83a 	sub	r3,r9,r3
 2012670:	28ca983a 	sll	r5,r5,r3
 2012674:	2c20b03a 	or	r16,r5,r16
 2012678:	8020c03a 	cmpne	r16,r16,zero
 201267c:	8120b03a 	or	r16,r16,r4
 2012680:	000b883a 	mov	r5,zero
 2012684:	003f3006 	br	2012348 <__reset+0xfe009348>
 2012688:	0013883a 	mov	r9,zero
 201268c:	01402034 	movhi	r5,128
 2012690:	297fffc4 	addi	r5,r5,-1
 2012694:	043ffe04 	movi	r16,-8
 2012698:	0441ffc4 	movi	r17,2047
 201269c:	003ea506 	br	2012134 <__reset+0xfe009134>
 20126a0:	2c20b03a 	or	r16,r5,r16
 20126a4:	8020c03a 	cmpne	r16,r16,zero
 20126a8:	000b883a 	mov	r5,zero
 20126ac:	003f9206 	br	20124f8 <__reset+0xfe0094f8>
 20126b0:	400b883a 	mov	r5,r8
 20126b4:	3021883a 	mov	r16,r6
 20126b8:	003e1c06 	br	2011f2c <__reset+0xfe008f2c>
 20126bc:	400b883a 	mov	r5,r8
 20126c0:	3021883a 	mov	r16,r6
 20126c4:	0441ffc4 	movi	r17,2047
 20126c8:	003e1806 	br	2011f2c <__reset+0xfe008f2c>
 20126cc:	1888b03a 	or	r4,r3,r2
 20126d0:	203f6526 	beq	r4,zero,2012468 <__reset+0xfe009468>
 20126d4:	180b883a 	mov	r5,r3
 20126d8:	1021883a 	mov	r16,r2
 20126dc:	003e1306 	br	2011f2c <__reset+0xfe008f2c>
 20126e0:	193ff804 	addi	r4,r3,-32
 20126e4:	01c00804 	movi	r7,32
 20126e8:	2908d83a 	srl	r4,r5,r4
 20126ec:	19c00c26 	beq	r3,r7,2012720 <__subdf3+0x880>
 20126f0:	01c01004 	movi	r7,64
 20126f4:	38c7c83a 	sub	r3,r7,r3
 20126f8:	28ca983a 	sll	r5,r5,r3
 20126fc:	2c20b03a 	or	r16,r5,r16
 2012700:	8020c03a 	cmpne	r16,r16,zero
 2012704:	8120b03a 	or	r16,r16,r4
 2012708:	000b883a 	mov	r5,zero
 201270c:	003f7a06 	br	20124f8 <__reset+0xfe0094f8>
 2012710:	000b883a 	mov	r5,zero
 2012714:	003fd706 	br	2012674 <__reset+0xfe009674>
 2012718:	3021883a 	mov	r16,r6
 201271c:	003e0306 	br	2011f2c <__reset+0xfe008f2c>
 2012720:	000b883a 	mov	r5,zero
 2012724:	003ff506 	br	20126fc <__reset+0xfe0096fc>

02012728 <__floatunsidf>:
 2012728:	defffe04 	addi	sp,sp,-8
 201272c:	dc000015 	stw	r16,0(sp)
 2012730:	dfc00115 	stw	ra,4(sp)
 2012734:	2021883a 	mov	r16,r4
 2012738:	20001f26 	beq	r4,zero,20127b8 <__floatunsidf+0x90>
 201273c:	2006c340 	call	2006c34 <__clzsi2>
 2012740:	01010784 	movi	r4,1054
 2012744:	00c00284 	movi	r3,10
 2012748:	2089c83a 	sub	r4,r4,r2
 201274c:	1880100e 	bge	r3,r2,2012790 <__floatunsidf+0x68>
 2012750:	117ffd44 	addi	r5,r2,-11
 2012754:	814a983a 	sll	r5,r16,r5
 2012758:	00800434 	movhi	r2,16
 201275c:	10bfffc4 	addi	r2,r2,-1
 2012760:	2101ffcc 	andi	r4,r4,2047
 2012764:	288a703a 	and	r5,r5,r2
 2012768:	0005883a 	mov	r2,zero
 201276c:	2008953a 	slli	r4,r4,20
 2012770:	00c00434 	movhi	r3,16
 2012774:	18ffffc4 	addi	r3,r3,-1
 2012778:	28c6703a 	and	r3,r5,r3
 201277c:	1906b03a 	or	r3,r3,r4
 2012780:	dfc00117 	ldw	ra,4(sp)
 2012784:	dc000017 	ldw	r16,0(sp)
 2012788:	dec00204 	addi	sp,sp,8
 201278c:	f800283a 	ret
 2012790:	014002c4 	movi	r5,11
 2012794:	288bc83a 	sub	r5,r5,r2
 2012798:	814ad83a 	srl	r5,r16,r5
 201279c:	10800544 	addi	r2,r2,21
 20127a0:	00c00434 	movhi	r3,16
 20127a4:	18ffffc4 	addi	r3,r3,-1
 20127a8:	8084983a 	sll	r2,r16,r2
 20127ac:	28ca703a 	and	r5,r5,r3
 20127b0:	2101ffcc 	andi	r4,r4,2047
 20127b4:	003fed06 	br	201276c <__reset+0xfe00976c>
 20127b8:	0009883a 	mov	r4,zero
 20127bc:	000b883a 	mov	r5,zero
 20127c0:	0005883a 	mov	r2,zero
 20127c4:	003fe906 	br	201276c <__reset+0xfe00976c>

020127c8 <alt_alarm_start>:
 20127c8:	defff504 	addi	sp,sp,-44
 20127cc:	df000a15 	stw	fp,40(sp)
 20127d0:	df000a04 	addi	fp,sp,40
 20127d4:	e13ffc15 	stw	r4,-16(fp)
 20127d8:	e17ffd15 	stw	r5,-12(fp)
 20127dc:	e1bffe15 	stw	r6,-8(fp)
 20127e0:	e1ffff15 	stw	r7,-4(fp)
 20127e4:	e03ff615 	stw	zero,-40(fp)
 20127e8:	008080b4 	movhi	r2,514
 20127ec:	10838004 	addi	r2,r2,3584
 20127f0:	10800017 	ldw	r2,0(r2)
 20127f4:	10003f26 	beq	r2,zero,20128f4 <alt_alarm_start+0x12c>
 20127f8:	e0bffc17 	ldw	r2,-16(fp)
 20127fc:	10003b26 	beq	r2,zero,20128ec <alt_alarm_start+0x124>
 2012800:	e0bffc17 	ldw	r2,-16(fp)
 2012804:	e0fffe17 	ldw	r3,-8(fp)
 2012808:	10c00315 	stw	r3,12(r2)
 201280c:	e0bffc17 	ldw	r2,-16(fp)
 2012810:	e0ffff17 	ldw	r3,-4(fp)
 2012814:	10c00515 	stw	r3,20(r2)
 2012818:	0005303a 	rdctl	r2,status
 201281c:	e0bff815 	stw	r2,-32(fp)
 2012820:	e0fff817 	ldw	r3,-32(fp)
 2012824:	00bfff84 	movi	r2,-2
 2012828:	1884703a 	and	r2,r3,r2
 201282c:	1001703a 	wrctl	status,r2
 2012830:	e0bff817 	ldw	r2,-32(fp)
 2012834:	e0bff715 	stw	r2,-36(fp)
 2012838:	008080b4 	movhi	r2,514
 201283c:	10838104 	addi	r2,r2,3588
 2012840:	10800017 	ldw	r2,0(r2)
 2012844:	e0bff615 	stw	r2,-40(fp)
 2012848:	e0fffd17 	ldw	r3,-12(fp)
 201284c:	e0bff617 	ldw	r2,-40(fp)
 2012850:	1885883a 	add	r2,r3,r2
 2012854:	10c00044 	addi	r3,r2,1
 2012858:	e0bffc17 	ldw	r2,-16(fp)
 201285c:	10c00215 	stw	r3,8(r2)
 2012860:	e0bffc17 	ldw	r2,-16(fp)
 2012864:	10c00217 	ldw	r3,8(r2)
 2012868:	e0bff617 	ldw	r2,-40(fp)
 201286c:	1880042e 	bgeu	r3,r2,2012880 <alt_alarm_start+0xb8>
 2012870:	e0bffc17 	ldw	r2,-16(fp)
 2012874:	00c00044 	movi	r3,1
 2012878:	10c00405 	stb	r3,16(r2)
 201287c:	00000206 	br	2012888 <alt_alarm_start+0xc0>
 2012880:	e0bffc17 	ldw	r2,-16(fp)
 2012884:	10000405 	stb	zero,16(r2)
 2012888:	e0bffc17 	ldw	r2,-16(fp)
 201288c:	00c080b4 	movhi	r3,514
 2012890:	18c36d04 	addi	r3,r3,3508
 2012894:	e0fff915 	stw	r3,-28(fp)
 2012898:	e0bffa15 	stw	r2,-24(fp)
 201289c:	e0bffa17 	ldw	r2,-24(fp)
 20128a0:	e0fff917 	ldw	r3,-28(fp)
 20128a4:	10c00115 	stw	r3,4(r2)
 20128a8:	e0bff917 	ldw	r2,-28(fp)
 20128ac:	10c00017 	ldw	r3,0(r2)
 20128b0:	e0bffa17 	ldw	r2,-24(fp)
 20128b4:	10c00015 	stw	r3,0(r2)
 20128b8:	e0bff917 	ldw	r2,-28(fp)
 20128bc:	10800017 	ldw	r2,0(r2)
 20128c0:	e0fffa17 	ldw	r3,-24(fp)
 20128c4:	10c00115 	stw	r3,4(r2)
 20128c8:	e0bff917 	ldw	r2,-28(fp)
 20128cc:	e0fffa17 	ldw	r3,-24(fp)
 20128d0:	10c00015 	stw	r3,0(r2)
 20128d4:	e0bff717 	ldw	r2,-36(fp)
 20128d8:	e0bffb15 	stw	r2,-20(fp)
 20128dc:	e0bffb17 	ldw	r2,-20(fp)
 20128e0:	1001703a 	wrctl	status,r2
 20128e4:	0005883a 	mov	r2,zero
 20128e8:	00000306 	br	20128f8 <alt_alarm_start+0x130>
 20128ec:	00bffa84 	movi	r2,-22
 20128f0:	00000106 	br	20128f8 <alt_alarm_start+0x130>
 20128f4:	00bfde84 	movi	r2,-134
 20128f8:	e037883a 	mov	sp,fp
 20128fc:	df000017 	ldw	fp,0(sp)
 2012900:	dec00104 	addi	sp,sp,4
 2012904:	f800283a 	ret

02012908 <alt_get_errno>:
 2012908:	defffe04 	addi	sp,sp,-8
 201290c:	dfc00115 	stw	ra,4(sp)
 2012910:	df000015 	stw	fp,0(sp)
 2012914:	d839883a 	mov	fp,sp
 2012918:	008080b4 	movhi	r2,514
 201291c:	10836b04 	addi	r2,r2,3500
 2012920:	10800017 	ldw	r2,0(r2)
 2012924:	10000526 	beq	r2,zero,201293c <alt_get_errno+0x34>
 2012928:	008080b4 	movhi	r2,514
 201292c:	10836b04 	addi	r2,r2,3500
 2012930:	10800017 	ldw	r2,0(r2)
 2012934:	103ee83a 	callr	r2
 2012938:	00000206 	br	2012944 <alt_get_errno+0x3c>
 201293c:	008080b4 	movhi	r2,514
 2012940:	10837904 	addi	r2,r2,3556
 2012944:	e037883a 	mov	sp,fp
 2012948:	dfc00117 	ldw	ra,4(sp)
 201294c:	df000017 	ldw	fp,0(sp)
 2012950:	dec00204 	addi	sp,sp,8
 2012954:	f800283a 	ret

02012958 <close>:
 2012958:	defffb04 	addi	sp,sp,-20
 201295c:	dfc00415 	stw	ra,16(sp)
 2012960:	df000315 	stw	fp,12(sp)
 2012964:	df000304 	addi	fp,sp,12
 2012968:	e13fff15 	stw	r4,-4(fp)
 201296c:	e0bfff17 	ldw	r2,-4(fp)
 2012970:	10000816 	blt	r2,zero,2012994 <close+0x3c>
 2012974:	e13fff17 	ldw	r4,-4(fp)
 2012978:	01400304 	movi	r5,12
 201297c:	20059200 	call	2005920 <__mulsi3>
 2012980:	1007883a 	mov	r3,r2
 2012984:	008080b4 	movhi	r2,514
 2012988:	10be8304 	addi	r2,r2,-1524
 201298c:	1885883a 	add	r2,r3,r2
 2012990:	00000106 	br	2012998 <close+0x40>
 2012994:	0005883a 	mov	r2,zero
 2012998:	e0bffd15 	stw	r2,-12(fp)
 201299c:	e0bffd17 	ldw	r2,-12(fp)
 20129a0:	10001826 	beq	r2,zero,2012a04 <close+0xac>
 20129a4:	e0bffd17 	ldw	r2,-12(fp)
 20129a8:	10800017 	ldw	r2,0(r2)
 20129ac:	10800417 	ldw	r2,16(r2)
 20129b0:	10000626 	beq	r2,zero,20129cc <close+0x74>
 20129b4:	e0bffd17 	ldw	r2,-12(fp)
 20129b8:	10800017 	ldw	r2,0(r2)
 20129bc:	10800417 	ldw	r2,16(r2)
 20129c0:	e13ffd17 	ldw	r4,-12(fp)
 20129c4:	103ee83a 	callr	r2
 20129c8:	00000106 	br	20129d0 <close+0x78>
 20129cc:	0005883a 	mov	r2,zero
 20129d0:	e0bffe15 	stw	r2,-8(fp)
 20129d4:	e13fff17 	ldw	r4,-4(fp)
 20129d8:	20132180 	call	2013218 <alt_release_fd>
 20129dc:	e0bffe17 	ldw	r2,-8(fp)
 20129e0:	1000060e 	bge	r2,zero,20129fc <close+0xa4>
 20129e4:	20129080 	call	2012908 <alt_get_errno>
 20129e8:	e0fffe17 	ldw	r3,-8(fp)
 20129ec:	00c7c83a 	sub	r3,zero,r3
 20129f0:	10c00015 	stw	r3,0(r2)
 20129f4:	00bfffc4 	movi	r2,-1
 20129f8:	00000606 	br	2012a14 <close+0xbc>
 20129fc:	0005883a 	mov	r2,zero
 2012a00:	00000406 	br	2012a14 <close+0xbc>
 2012a04:	20129080 	call	2012908 <alt_get_errno>
 2012a08:	00c01444 	movi	r3,81
 2012a0c:	10c00015 	stw	r3,0(r2)
 2012a10:	00bfffc4 	movi	r2,-1
 2012a14:	e037883a 	mov	sp,fp
 2012a18:	dfc00117 	ldw	ra,4(sp)
 2012a1c:	df000017 	ldw	fp,0(sp)
 2012a20:	dec00204 	addi	sp,sp,8
 2012a24:	f800283a 	ret

02012a28 <alt_dev_null_write>:
 2012a28:	defffc04 	addi	sp,sp,-16
 2012a2c:	df000315 	stw	fp,12(sp)
 2012a30:	df000304 	addi	fp,sp,12
 2012a34:	e13ffd15 	stw	r4,-12(fp)
 2012a38:	e17ffe15 	stw	r5,-8(fp)
 2012a3c:	e1bfff15 	stw	r6,-4(fp)
 2012a40:	e0bfff17 	ldw	r2,-4(fp)
 2012a44:	e037883a 	mov	sp,fp
 2012a48:	df000017 	ldw	fp,0(sp)
 2012a4c:	dec00104 	addi	sp,sp,4
 2012a50:	f800283a 	ret

02012a54 <alt_get_errno>:
 2012a54:	defffe04 	addi	sp,sp,-8
 2012a58:	dfc00115 	stw	ra,4(sp)
 2012a5c:	df000015 	stw	fp,0(sp)
 2012a60:	d839883a 	mov	fp,sp
 2012a64:	008080b4 	movhi	r2,514
 2012a68:	10836b04 	addi	r2,r2,3500
 2012a6c:	10800017 	ldw	r2,0(r2)
 2012a70:	10000526 	beq	r2,zero,2012a88 <alt_get_errno+0x34>
 2012a74:	008080b4 	movhi	r2,514
 2012a78:	10836b04 	addi	r2,r2,3500
 2012a7c:	10800017 	ldw	r2,0(r2)
 2012a80:	103ee83a 	callr	r2
 2012a84:	00000206 	br	2012a90 <alt_get_errno+0x3c>
 2012a88:	008080b4 	movhi	r2,514
 2012a8c:	10837904 	addi	r2,r2,3556
 2012a90:	e037883a 	mov	sp,fp
 2012a94:	dfc00117 	ldw	ra,4(sp)
 2012a98:	df000017 	ldw	fp,0(sp)
 2012a9c:	dec00204 	addi	sp,sp,8
 2012aa0:	f800283a 	ret

02012aa4 <fstat>:
 2012aa4:	defffb04 	addi	sp,sp,-20
 2012aa8:	dfc00415 	stw	ra,16(sp)
 2012aac:	df000315 	stw	fp,12(sp)
 2012ab0:	df000304 	addi	fp,sp,12
 2012ab4:	e13ffe15 	stw	r4,-8(fp)
 2012ab8:	e17fff15 	stw	r5,-4(fp)
 2012abc:	e0bffe17 	ldw	r2,-8(fp)
 2012ac0:	10000816 	blt	r2,zero,2012ae4 <fstat+0x40>
 2012ac4:	e13ffe17 	ldw	r4,-8(fp)
 2012ac8:	01400304 	movi	r5,12
 2012acc:	20059200 	call	2005920 <__mulsi3>
 2012ad0:	1007883a 	mov	r3,r2
 2012ad4:	008080b4 	movhi	r2,514
 2012ad8:	10be8304 	addi	r2,r2,-1524
 2012adc:	1885883a 	add	r2,r3,r2
 2012ae0:	00000106 	br	2012ae8 <fstat+0x44>
 2012ae4:	0005883a 	mov	r2,zero
 2012ae8:	e0bffd15 	stw	r2,-12(fp)
 2012aec:	e0bffd17 	ldw	r2,-12(fp)
 2012af0:	10001026 	beq	r2,zero,2012b34 <fstat+0x90>
 2012af4:	e0bffd17 	ldw	r2,-12(fp)
 2012af8:	10800017 	ldw	r2,0(r2)
 2012afc:	10800817 	ldw	r2,32(r2)
 2012b00:	10000726 	beq	r2,zero,2012b20 <fstat+0x7c>
 2012b04:	e0bffd17 	ldw	r2,-12(fp)
 2012b08:	10800017 	ldw	r2,0(r2)
 2012b0c:	10800817 	ldw	r2,32(r2)
 2012b10:	e13ffd17 	ldw	r4,-12(fp)
 2012b14:	e17fff17 	ldw	r5,-4(fp)
 2012b18:	103ee83a 	callr	r2
 2012b1c:	00000906 	br	2012b44 <fstat+0xa0>
 2012b20:	e0bfff17 	ldw	r2,-4(fp)
 2012b24:	00c80004 	movi	r3,8192
 2012b28:	10c00115 	stw	r3,4(r2)
 2012b2c:	0005883a 	mov	r2,zero
 2012b30:	00000406 	br	2012b44 <fstat+0xa0>
 2012b34:	2012a540 	call	2012a54 <alt_get_errno>
 2012b38:	00c01444 	movi	r3,81
 2012b3c:	10c00015 	stw	r3,0(r2)
 2012b40:	00bfffc4 	movi	r2,-1
 2012b44:	e037883a 	mov	sp,fp
 2012b48:	dfc00117 	ldw	ra,4(sp)
 2012b4c:	df000017 	ldw	fp,0(sp)
 2012b50:	dec00204 	addi	sp,sp,8
 2012b54:	f800283a 	ret

02012b58 <alt_get_errno>:
 2012b58:	defffe04 	addi	sp,sp,-8
 2012b5c:	dfc00115 	stw	ra,4(sp)
 2012b60:	df000015 	stw	fp,0(sp)
 2012b64:	d839883a 	mov	fp,sp
 2012b68:	008080b4 	movhi	r2,514
 2012b6c:	10836b04 	addi	r2,r2,3500
 2012b70:	10800017 	ldw	r2,0(r2)
 2012b74:	10000526 	beq	r2,zero,2012b8c <alt_get_errno+0x34>
 2012b78:	008080b4 	movhi	r2,514
 2012b7c:	10836b04 	addi	r2,r2,3500
 2012b80:	10800017 	ldw	r2,0(r2)
 2012b84:	103ee83a 	callr	r2
 2012b88:	00000206 	br	2012b94 <alt_get_errno+0x3c>
 2012b8c:	008080b4 	movhi	r2,514
 2012b90:	10837904 	addi	r2,r2,3556
 2012b94:	e037883a 	mov	sp,fp
 2012b98:	dfc00117 	ldw	ra,4(sp)
 2012b9c:	df000017 	ldw	fp,0(sp)
 2012ba0:	dec00204 	addi	sp,sp,8
 2012ba4:	f800283a 	ret

02012ba8 <isatty>:
 2012ba8:	deffed04 	addi	sp,sp,-76
 2012bac:	dfc01215 	stw	ra,72(sp)
 2012bb0:	df001115 	stw	fp,68(sp)
 2012bb4:	df001104 	addi	fp,sp,68
 2012bb8:	e13fff15 	stw	r4,-4(fp)
 2012bbc:	e0bfff17 	ldw	r2,-4(fp)
 2012bc0:	10000816 	blt	r2,zero,2012be4 <isatty+0x3c>
 2012bc4:	e13fff17 	ldw	r4,-4(fp)
 2012bc8:	01400304 	movi	r5,12
 2012bcc:	20059200 	call	2005920 <__mulsi3>
 2012bd0:	1007883a 	mov	r3,r2
 2012bd4:	008080b4 	movhi	r2,514
 2012bd8:	10be8304 	addi	r2,r2,-1524
 2012bdc:	1885883a 	add	r2,r3,r2
 2012be0:	00000106 	br	2012be8 <isatty+0x40>
 2012be4:	0005883a 	mov	r2,zero
 2012be8:	e0bfef15 	stw	r2,-68(fp)
 2012bec:	e0bfef17 	ldw	r2,-68(fp)
 2012bf0:	10000e26 	beq	r2,zero,2012c2c <isatty+0x84>
 2012bf4:	e0bfef17 	ldw	r2,-68(fp)
 2012bf8:	10800017 	ldw	r2,0(r2)
 2012bfc:	10800817 	ldw	r2,32(r2)
 2012c00:	1000021e 	bne	r2,zero,2012c0c <isatty+0x64>
 2012c04:	00800044 	movi	r2,1
 2012c08:	00000c06 	br	2012c3c <isatty+0x94>
 2012c0c:	e0bff004 	addi	r2,fp,-64
 2012c10:	e13fff17 	ldw	r4,-4(fp)
 2012c14:	100b883a 	mov	r5,r2
 2012c18:	2012aa40 	call	2012aa4 <fstat>
 2012c1c:	e0bff117 	ldw	r2,-60(fp)
 2012c20:	10880020 	cmpeqi	r2,r2,8192
 2012c24:	10803fcc 	andi	r2,r2,255
 2012c28:	00000406 	br	2012c3c <isatty+0x94>
 2012c2c:	2012b580 	call	2012b58 <alt_get_errno>
 2012c30:	00c01444 	movi	r3,81
 2012c34:	10c00015 	stw	r3,0(r2)
 2012c38:	0005883a 	mov	r2,zero
 2012c3c:	e037883a 	mov	sp,fp
 2012c40:	dfc00117 	ldw	ra,4(sp)
 2012c44:	df000017 	ldw	fp,0(sp)
 2012c48:	dec00204 	addi	sp,sp,8
 2012c4c:	f800283a 	ret

02012c50 <alt_get_errno>:
 2012c50:	defffe04 	addi	sp,sp,-8
 2012c54:	dfc00115 	stw	ra,4(sp)
 2012c58:	df000015 	stw	fp,0(sp)
 2012c5c:	d839883a 	mov	fp,sp
 2012c60:	008080b4 	movhi	r2,514
 2012c64:	10836b04 	addi	r2,r2,3500
 2012c68:	10800017 	ldw	r2,0(r2)
 2012c6c:	10000526 	beq	r2,zero,2012c84 <alt_get_errno+0x34>
 2012c70:	008080b4 	movhi	r2,514
 2012c74:	10836b04 	addi	r2,r2,3500
 2012c78:	10800017 	ldw	r2,0(r2)
 2012c7c:	103ee83a 	callr	r2
 2012c80:	00000206 	br	2012c8c <alt_get_errno+0x3c>
 2012c84:	008080b4 	movhi	r2,514
 2012c88:	10837904 	addi	r2,r2,3556
 2012c8c:	e037883a 	mov	sp,fp
 2012c90:	dfc00117 	ldw	ra,4(sp)
 2012c94:	df000017 	ldw	fp,0(sp)
 2012c98:	dec00204 	addi	sp,sp,8
 2012c9c:	f800283a 	ret

02012ca0 <lseek>:
 2012ca0:	defff904 	addi	sp,sp,-28
 2012ca4:	dfc00615 	stw	ra,24(sp)
 2012ca8:	df000515 	stw	fp,20(sp)
 2012cac:	df000504 	addi	fp,sp,20
 2012cb0:	e13ffd15 	stw	r4,-12(fp)
 2012cb4:	e17ffe15 	stw	r5,-8(fp)
 2012cb8:	e1bfff15 	stw	r6,-4(fp)
 2012cbc:	e03ffb15 	stw	zero,-20(fp)
 2012cc0:	e0bffd17 	ldw	r2,-12(fp)
 2012cc4:	10000816 	blt	r2,zero,2012ce8 <lseek+0x48>
 2012cc8:	e13ffd17 	ldw	r4,-12(fp)
 2012ccc:	01400304 	movi	r5,12
 2012cd0:	20059200 	call	2005920 <__mulsi3>
 2012cd4:	1007883a 	mov	r3,r2
 2012cd8:	008080b4 	movhi	r2,514
 2012cdc:	10be8304 	addi	r2,r2,-1524
 2012ce0:	1885883a 	add	r2,r3,r2
 2012ce4:	00000106 	br	2012cec <lseek+0x4c>
 2012ce8:	0005883a 	mov	r2,zero
 2012cec:	e0bffc15 	stw	r2,-16(fp)
 2012cf0:	e0bffc17 	ldw	r2,-16(fp)
 2012cf4:	10001026 	beq	r2,zero,2012d38 <lseek+0x98>
 2012cf8:	e0bffc17 	ldw	r2,-16(fp)
 2012cfc:	10800017 	ldw	r2,0(r2)
 2012d00:	10800717 	ldw	r2,28(r2)
 2012d04:	10000926 	beq	r2,zero,2012d2c <lseek+0x8c>
 2012d08:	e0bffc17 	ldw	r2,-16(fp)
 2012d0c:	10800017 	ldw	r2,0(r2)
 2012d10:	10800717 	ldw	r2,28(r2)
 2012d14:	e13ffc17 	ldw	r4,-16(fp)
 2012d18:	e17ffe17 	ldw	r5,-8(fp)
 2012d1c:	e1bfff17 	ldw	r6,-4(fp)
 2012d20:	103ee83a 	callr	r2
 2012d24:	e0bffb15 	stw	r2,-20(fp)
 2012d28:	00000506 	br	2012d40 <lseek+0xa0>
 2012d2c:	00bfde84 	movi	r2,-134
 2012d30:	e0bffb15 	stw	r2,-20(fp)
 2012d34:	00000206 	br	2012d40 <lseek+0xa0>
 2012d38:	00bfebc4 	movi	r2,-81
 2012d3c:	e0bffb15 	stw	r2,-20(fp)
 2012d40:	e0bffb17 	ldw	r2,-20(fp)
 2012d44:	1000060e 	bge	r2,zero,2012d60 <lseek+0xc0>
 2012d48:	2012c500 	call	2012c50 <alt_get_errno>
 2012d4c:	e0fffb17 	ldw	r3,-20(fp)
 2012d50:	00c7c83a 	sub	r3,zero,r3
 2012d54:	10c00015 	stw	r3,0(r2)
 2012d58:	00bfffc4 	movi	r2,-1
 2012d5c:	e0bffb15 	stw	r2,-20(fp)
 2012d60:	e0bffb17 	ldw	r2,-20(fp)
 2012d64:	e037883a 	mov	sp,fp
 2012d68:	dfc00117 	ldw	ra,4(sp)
 2012d6c:	df000017 	ldw	fp,0(sp)
 2012d70:	dec00204 	addi	sp,sp,8
 2012d74:	f800283a 	ret

02012d78 <alt_main>:
 2012d78:	defffd04 	addi	sp,sp,-12
 2012d7c:	dfc00215 	stw	ra,8(sp)
 2012d80:	df000115 	stw	fp,4(sp)
 2012d84:	df000104 	addi	fp,sp,4
 2012d88:	0009883a 	mov	r4,zero
 2012d8c:	20136600 	call	2013660 <alt_irq_init>
 2012d90:	0001883a 	nop
 2012d94:	20136940 	call	2013694 <alt_sys_init>
 2012d98:	010080b4 	movhi	r4,514
 2012d9c:	213c2904 	addi	r4,r4,-3932
 2012da0:	014080b4 	movhi	r5,514
 2012da4:	297c2904 	addi	r5,r5,-3932
 2012da8:	018080b4 	movhi	r6,514
 2012dac:	31bc2904 	addi	r6,r6,-3932
 2012db0:	20164e40 	call	20164e4 <alt_io_redirect>
 2012db4:	2015d540 	call	2015d54 <_do_ctors>
 2012db8:	01008074 	movhi	r4,513
 2012dbc:	21176c04 	addi	r4,r4,23984
 2012dc0:	20168180 	call	2016818 <atexit>
 2012dc4:	d1201f17 	ldw	r4,-32644(gp)
 2012dc8:	d0e02017 	ldw	r3,-32640(gp)
 2012dcc:	d0a02117 	ldw	r2,-32636(gp)
 2012dd0:	180b883a 	mov	r5,r3
 2012dd4:	100d883a 	mov	r6,r2
 2012dd8:	200054c0 	call	200054c <main>
 2012ddc:	e0bfff15 	stw	r2,-4(fp)
 2012de0:	01000044 	movi	r4,1
 2012de4:	20129580 	call	2012958 <close>
 2012de8:	e13fff17 	ldw	r4,-4(fp)
 2012dec:	201682c0 	call	201682c <exit>

02012df0 <__malloc_lock>:
 2012df0:	defffe04 	addi	sp,sp,-8
 2012df4:	df000115 	stw	fp,4(sp)
 2012df8:	df000104 	addi	fp,sp,4
 2012dfc:	e13fff15 	stw	r4,-4(fp)
 2012e00:	e037883a 	mov	sp,fp
 2012e04:	df000017 	ldw	fp,0(sp)
 2012e08:	dec00104 	addi	sp,sp,4
 2012e0c:	f800283a 	ret

02012e10 <__malloc_unlock>:
 2012e10:	defffe04 	addi	sp,sp,-8
 2012e14:	df000115 	stw	fp,4(sp)
 2012e18:	df000104 	addi	fp,sp,4
 2012e1c:	e13fff15 	stw	r4,-4(fp)
 2012e20:	e037883a 	mov	sp,fp
 2012e24:	df000017 	ldw	fp,0(sp)
 2012e28:	dec00104 	addi	sp,sp,4
 2012e2c:	f800283a 	ret

02012e30 <alt_get_errno>:
 2012e30:	defffe04 	addi	sp,sp,-8
 2012e34:	dfc00115 	stw	ra,4(sp)
 2012e38:	df000015 	stw	fp,0(sp)
 2012e3c:	d839883a 	mov	fp,sp
 2012e40:	008080b4 	movhi	r2,514
 2012e44:	10836b04 	addi	r2,r2,3500
 2012e48:	10800017 	ldw	r2,0(r2)
 2012e4c:	10000526 	beq	r2,zero,2012e64 <alt_get_errno+0x34>
 2012e50:	008080b4 	movhi	r2,514
 2012e54:	10836b04 	addi	r2,r2,3500
 2012e58:	10800017 	ldw	r2,0(r2)
 2012e5c:	103ee83a 	callr	r2
 2012e60:	00000206 	br	2012e6c <alt_get_errno+0x3c>
 2012e64:	008080b4 	movhi	r2,514
 2012e68:	10837904 	addi	r2,r2,3556
 2012e6c:	e037883a 	mov	sp,fp
 2012e70:	dfc00117 	ldw	ra,4(sp)
 2012e74:	df000017 	ldw	fp,0(sp)
 2012e78:	dec00204 	addi	sp,sp,8
 2012e7c:	f800283a 	ret

02012e80 <alt_file_locked>:
 2012e80:	defffb04 	addi	sp,sp,-20
 2012e84:	dfc00415 	stw	ra,16(sp)
 2012e88:	df000315 	stw	fp,12(sp)
 2012e8c:	dc000215 	stw	r16,8(sp)
 2012e90:	df000304 	addi	fp,sp,12
 2012e94:	e13ffe15 	stw	r4,-8(fp)
 2012e98:	e0bffe17 	ldw	r2,-8(fp)
 2012e9c:	10800217 	ldw	r2,8(r2)
 2012ea0:	10d00034 	orhi	r3,r2,16384
 2012ea4:	e0bffe17 	ldw	r2,-8(fp)
 2012ea8:	10c00215 	stw	r3,8(r2)
 2012eac:	e03ffd15 	stw	zero,-12(fp)
 2012eb0:	00002306 	br	2012f40 <alt_file_locked+0xc0>
 2012eb4:	040080b4 	movhi	r16,514
 2012eb8:	843e8304 	addi	r16,r16,-1524
 2012ebc:	e0bffd17 	ldw	r2,-12(fp)
 2012ec0:	1009883a 	mov	r4,r2
 2012ec4:	01400304 	movi	r5,12
 2012ec8:	20059200 	call	2005920 <__mulsi3>
 2012ecc:	8085883a 	add	r2,r16,r2
 2012ed0:	10c00017 	ldw	r3,0(r2)
 2012ed4:	e0bffe17 	ldw	r2,-8(fp)
 2012ed8:	10800017 	ldw	r2,0(r2)
 2012edc:	1880151e 	bne	r3,r2,2012f34 <alt_file_locked+0xb4>
 2012ee0:	040080b4 	movhi	r16,514
 2012ee4:	843e8304 	addi	r16,r16,-1524
 2012ee8:	e0bffd17 	ldw	r2,-12(fp)
 2012eec:	1009883a 	mov	r4,r2
 2012ef0:	01400304 	movi	r5,12
 2012ef4:	20059200 	call	2005920 <__mulsi3>
 2012ef8:	8085883a 	add	r2,r16,r2
 2012efc:	10800204 	addi	r2,r2,8
 2012f00:	10800017 	ldw	r2,0(r2)
 2012f04:	10000b0e 	bge	r2,zero,2012f34 <alt_file_locked+0xb4>
 2012f08:	e13ffd17 	ldw	r4,-12(fp)
 2012f0c:	01400304 	movi	r5,12
 2012f10:	20059200 	call	2005920 <__mulsi3>
 2012f14:	1007883a 	mov	r3,r2
 2012f18:	008080b4 	movhi	r2,514
 2012f1c:	10be8304 	addi	r2,r2,-1524
 2012f20:	1887883a 	add	r3,r3,r2
 2012f24:	e0bffe17 	ldw	r2,-8(fp)
 2012f28:	18800226 	beq	r3,r2,2012f34 <alt_file_locked+0xb4>
 2012f2c:	00bffcc4 	movi	r2,-13
 2012f30:	00000a06 	br	2012f5c <alt_file_locked+0xdc>
 2012f34:	e0bffd17 	ldw	r2,-12(fp)
 2012f38:	10800044 	addi	r2,r2,1
 2012f3c:	e0bffd15 	stw	r2,-12(fp)
 2012f40:	008080b4 	movhi	r2,514
 2012f44:	10836a04 	addi	r2,r2,3496
 2012f48:	10800017 	ldw	r2,0(r2)
 2012f4c:	1007883a 	mov	r3,r2
 2012f50:	e0bffd17 	ldw	r2,-12(fp)
 2012f54:	18bfd72e 	bgeu	r3,r2,2012eb4 <__reset+0xfe009eb4>
 2012f58:	0005883a 	mov	r2,zero
 2012f5c:	e6ffff04 	addi	sp,fp,-4
 2012f60:	dfc00217 	ldw	ra,8(sp)
 2012f64:	df000117 	ldw	fp,4(sp)
 2012f68:	dc000017 	ldw	r16,0(sp)
 2012f6c:	dec00304 	addi	sp,sp,12
 2012f70:	f800283a 	ret

02012f74 <open>:
 2012f74:	defff604 	addi	sp,sp,-40
 2012f78:	dfc00915 	stw	ra,36(sp)
 2012f7c:	df000815 	stw	fp,32(sp)
 2012f80:	df000804 	addi	fp,sp,32
 2012f84:	e13ffd15 	stw	r4,-12(fp)
 2012f88:	e17ffe15 	stw	r5,-8(fp)
 2012f8c:	e1bfff15 	stw	r6,-4(fp)
 2012f90:	00bfffc4 	movi	r2,-1
 2012f94:	e0bff915 	stw	r2,-28(fp)
 2012f98:	00bffb44 	movi	r2,-19
 2012f9c:	e0bffa15 	stw	r2,-24(fp)
 2012fa0:	e03ffb15 	stw	zero,-20(fp)
 2012fa4:	e13ffd17 	ldw	r4,-12(fp)
 2012fa8:	014080b4 	movhi	r5,514
 2012fac:	29436804 	addi	r5,r5,3488
 2012fb0:	2015e0c0 	call	2015e0c <alt_find_dev>
 2012fb4:	e0bff815 	stw	r2,-32(fp)
 2012fb8:	e0bff817 	ldw	r2,-32(fp)
 2012fbc:	1000051e 	bne	r2,zero,2012fd4 <open+0x60>
 2012fc0:	e13ffd17 	ldw	r4,-12(fp)
 2012fc4:	2015e9c0 	call	2015e9c <alt_find_file>
 2012fc8:	e0bff815 	stw	r2,-32(fp)
 2012fcc:	00800044 	movi	r2,1
 2012fd0:	e0bffb15 	stw	r2,-20(fp)
 2012fd4:	e0bff817 	ldw	r2,-32(fp)
 2012fd8:	10002b26 	beq	r2,zero,2013088 <open+0x114>
 2012fdc:	e13ff817 	ldw	r4,-32(fp)
 2012fe0:	20160680 	call	2016068 <alt_get_fd>
 2012fe4:	e0bff915 	stw	r2,-28(fp)
 2012fe8:	e0bff917 	ldw	r2,-28(fp)
 2012fec:	1000030e 	bge	r2,zero,2012ffc <open+0x88>
 2012ff0:	e0bff917 	ldw	r2,-28(fp)
 2012ff4:	e0bffa15 	stw	r2,-24(fp)
 2012ff8:	00002506 	br	2013090 <open+0x11c>
 2012ffc:	e13ff917 	ldw	r4,-28(fp)
 2013000:	01400304 	movi	r5,12
 2013004:	20059200 	call	2005920 <__mulsi3>
 2013008:	1007883a 	mov	r3,r2
 201300c:	008080b4 	movhi	r2,514
 2013010:	10be8304 	addi	r2,r2,-1524
 2013014:	1885883a 	add	r2,r3,r2
 2013018:	e0bffc15 	stw	r2,-16(fp)
 201301c:	e0fffe17 	ldw	r3,-8(fp)
 2013020:	00900034 	movhi	r2,16384
 2013024:	10bfffc4 	addi	r2,r2,-1
 2013028:	1886703a 	and	r3,r3,r2
 201302c:	e0bffc17 	ldw	r2,-16(fp)
 2013030:	10c00215 	stw	r3,8(r2)
 2013034:	e0bffb17 	ldw	r2,-20(fp)
 2013038:	1000051e 	bne	r2,zero,2013050 <open+0xdc>
 201303c:	e13ffc17 	ldw	r4,-16(fp)
 2013040:	2012e800 	call	2012e80 <alt_file_locked>
 2013044:	e0bffa15 	stw	r2,-24(fp)
 2013048:	e0bffa17 	ldw	r2,-24(fp)
 201304c:	10001016 	blt	r2,zero,2013090 <open+0x11c>
 2013050:	e0bff817 	ldw	r2,-32(fp)
 2013054:	10800317 	ldw	r2,12(r2)
 2013058:	10000826 	beq	r2,zero,201307c <open+0x108>
 201305c:	e0bff817 	ldw	r2,-32(fp)
 2013060:	10800317 	ldw	r2,12(r2)
 2013064:	e13ffc17 	ldw	r4,-16(fp)
 2013068:	e17ffd17 	ldw	r5,-12(fp)
 201306c:	e1bffe17 	ldw	r6,-8(fp)
 2013070:	e1ffff17 	ldw	r7,-4(fp)
 2013074:	103ee83a 	callr	r2
 2013078:	00000106 	br	2013080 <open+0x10c>
 201307c:	0005883a 	mov	r2,zero
 2013080:	e0bffa15 	stw	r2,-24(fp)
 2013084:	00000206 	br	2013090 <open+0x11c>
 2013088:	00bffb44 	movi	r2,-19
 201308c:	e0bffa15 	stw	r2,-24(fp)
 2013090:	e0bffa17 	ldw	r2,-24(fp)
 2013094:	1000080e 	bge	r2,zero,20130b8 <open+0x144>
 2013098:	e13ff917 	ldw	r4,-28(fp)
 201309c:	20132180 	call	2013218 <alt_release_fd>
 20130a0:	2012e300 	call	2012e30 <alt_get_errno>
 20130a4:	e0fffa17 	ldw	r3,-24(fp)
 20130a8:	00c7c83a 	sub	r3,zero,r3
 20130ac:	10c00015 	stw	r3,0(r2)
 20130b0:	00bfffc4 	movi	r2,-1
 20130b4:	00000106 	br	20130bc <open+0x148>
 20130b8:	e0bff917 	ldw	r2,-28(fp)
 20130bc:	e037883a 	mov	sp,fp
 20130c0:	dfc00117 	ldw	ra,4(sp)
 20130c4:	df000017 	ldw	fp,0(sp)
 20130c8:	dec00204 	addi	sp,sp,8
 20130cc:	f800283a 	ret

020130d0 <alt_get_errno>:
 20130d0:	defffe04 	addi	sp,sp,-8
 20130d4:	dfc00115 	stw	ra,4(sp)
 20130d8:	df000015 	stw	fp,0(sp)
 20130dc:	d839883a 	mov	fp,sp
 20130e0:	008080b4 	movhi	r2,514
 20130e4:	10836b04 	addi	r2,r2,3500
 20130e8:	10800017 	ldw	r2,0(r2)
 20130ec:	10000526 	beq	r2,zero,2013104 <alt_get_errno+0x34>
 20130f0:	008080b4 	movhi	r2,514
 20130f4:	10836b04 	addi	r2,r2,3500
 20130f8:	10800017 	ldw	r2,0(r2)
 20130fc:	103ee83a 	callr	r2
 2013100:	00000206 	br	201310c <alt_get_errno+0x3c>
 2013104:	008080b4 	movhi	r2,514
 2013108:	10837904 	addi	r2,r2,3556
 201310c:	e037883a 	mov	sp,fp
 2013110:	dfc00117 	ldw	ra,4(sp)
 2013114:	df000017 	ldw	fp,0(sp)
 2013118:	dec00204 	addi	sp,sp,8
 201311c:	f800283a 	ret

02013120 <read>:
 2013120:	defff904 	addi	sp,sp,-28
 2013124:	dfc00615 	stw	ra,24(sp)
 2013128:	df000515 	stw	fp,20(sp)
 201312c:	df000504 	addi	fp,sp,20
 2013130:	e13ffd15 	stw	r4,-12(fp)
 2013134:	e17ffe15 	stw	r5,-8(fp)
 2013138:	e1bfff15 	stw	r6,-4(fp)
 201313c:	e0bffd17 	ldw	r2,-12(fp)
 2013140:	10000816 	blt	r2,zero,2013164 <read+0x44>
 2013144:	e13ffd17 	ldw	r4,-12(fp)
 2013148:	01400304 	movi	r5,12
 201314c:	20059200 	call	2005920 <__mulsi3>
 2013150:	1007883a 	mov	r3,r2
 2013154:	008080b4 	movhi	r2,514
 2013158:	10be8304 	addi	r2,r2,-1524
 201315c:	1885883a 	add	r2,r3,r2
 2013160:	00000106 	br	2013168 <read+0x48>
 2013164:	0005883a 	mov	r2,zero
 2013168:	e0bffb15 	stw	r2,-20(fp)
 201316c:	e0bffb17 	ldw	r2,-20(fp)
 2013170:	10002026 	beq	r2,zero,20131f4 <read+0xd4>
 2013174:	e0bffb17 	ldw	r2,-20(fp)
 2013178:	10800217 	ldw	r2,8(r2)
 201317c:	108000cc 	andi	r2,r2,3
 2013180:	10800060 	cmpeqi	r2,r2,1
 2013184:	1000171e 	bne	r2,zero,20131e4 <read+0xc4>
 2013188:	e0bffb17 	ldw	r2,-20(fp)
 201318c:	10800017 	ldw	r2,0(r2)
 2013190:	10800517 	ldw	r2,20(r2)
 2013194:	10001326 	beq	r2,zero,20131e4 <read+0xc4>
 2013198:	e0bffb17 	ldw	r2,-20(fp)
 201319c:	10800017 	ldw	r2,0(r2)
 20131a0:	10800517 	ldw	r2,20(r2)
 20131a4:	e0ffff17 	ldw	r3,-4(fp)
 20131a8:	e13ffb17 	ldw	r4,-20(fp)
 20131ac:	e17ffe17 	ldw	r5,-8(fp)
 20131b0:	180d883a 	mov	r6,r3
 20131b4:	103ee83a 	callr	r2
 20131b8:	e0bffc15 	stw	r2,-16(fp)
 20131bc:	e0bffc17 	ldw	r2,-16(fp)
 20131c0:	1000060e 	bge	r2,zero,20131dc <read+0xbc>
 20131c4:	20130d00 	call	20130d0 <alt_get_errno>
 20131c8:	e0fffc17 	ldw	r3,-16(fp)
 20131cc:	00c7c83a 	sub	r3,zero,r3
 20131d0:	10c00015 	stw	r3,0(r2)
 20131d4:	00bfffc4 	movi	r2,-1
 20131d8:	00000a06 	br	2013204 <read+0xe4>
 20131dc:	e0bffc17 	ldw	r2,-16(fp)
 20131e0:	00000806 	br	2013204 <read+0xe4>
 20131e4:	20130d00 	call	20130d0 <alt_get_errno>
 20131e8:	00c00344 	movi	r3,13
 20131ec:	10c00015 	stw	r3,0(r2)
 20131f0:	00000306 	br	2013200 <read+0xe0>
 20131f4:	20130d00 	call	20130d0 <alt_get_errno>
 20131f8:	00c01444 	movi	r3,81
 20131fc:	10c00015 	stw	r3,0(r2)
 2013200:	00bfffc4 	movi	r2,-1
 2013204:	e037883a 	mov	sp,fp
 2013208:	dfc00117 	ldw	ra,4(sp)
 201320c:	df000017 	ldw	fp,0(sp)
 2013210:	dec00204 	addi	sp,sp,8
 2013214:	f800283a 	ret

02013218 <alt_release_fd>:
 2013218:	defffc04 	addi	sp,sp,-16
 201321c:	dfc00315 	stw	ra,12(sp)
 2013220:	df000215 	stw	fp,8(sp)
 2013224:	dc000115 	stw	r16,4(sp)
 2013228:	df000204 	addi	fp,sp,8
 201322c:	e13ffe15 	stw	r4,-8(fp)
 2013230:	e0bffe17 	ldw	r2,-8(fp)
 2013234:	108000d0 	cmplti	r2,r2,3
 2013238:	1000111e 	bne	r2,zero,2013280 <alt_release_fd+0x68>
 201323c:	040080b4 	movhi	r16,514
 2013240:	843e8304 	addi	r16,r16,-1524
 2013244:	e0bffe17 	ldw	r2,-8(fp)
 2013248:	1009883a 	mov	r4,r2
 201324c:	01400304 	movi	r5,12
 2013250:	20059200 	call	2005920 <__mulsi3>
 2013254:	8085883a 	add	r2,r16,r2
 2013258:	10800204 	addi	r2,r2,8
 201325c:	10000015 	stw	zero,0(r2)
 2013260:	040080b4 	movhi	r16,514
 2013264:	843e8304 	addi	r16,r16,-1524
 2013268:	e0bffe17 	ldw	r2,-8(fp)
 201326c:	1009883a 	mov	r4,r2
 2013270:	01400304 	movi	r5,12
 2013274:	20059200 	call	2005920 <__mulsi3>
 2013278:	8085883a 	add	r2,r16,r2
 201327c:	10000015 	stw	zero,0(r2)
 2013280:	e6ffff04 	addi	sp,fp,-4
 2013284:	dfc00217 	ldw	ra,8(sp)
 2013288:	df000117 	ldw	fp,4(sp)
 201328c:	dc000017 	ldw	r16,0(sp)
 2013290:	dec00304 	addi	sp,sp,12
 2013294:	f800283a 	ret

02013298 <sbrk>:
 2013298:	defff904 	addi	sp,sp,-28
 201329c:	df000615 	stw	fp,24(sp)
 20132a0:	df000604 	addi	fp,sp,24
 20132a4:	e13fff15 	stw	r4,-4(fp)
 20132a8:	0005303a 	rdctl	r2,status
 20132ac:	e0bffc15 	stw	r2,-16(fp)
 20132b0:	e0fffc17 	ldw	r3,-16(fp)
 20132b4:	00bfff84 	movi	r2,-2
 20132b8:	1884703a 	and	r2,r3,r2
 20132bc:	1001703a 	wrctl	status,r2
 20132c0:	e0bffc17 	ldw	r2,-16(fp)
 20132c4:	e0bffa15 	stw	r2,-24(fp)
 20132c8:	d0a00e17 	ldw	r2,-32712(gp)
 20132cc:	10c000c4 	addi	r3,r2,3
 20132d0:	00bfff04 	movi	r2,-4
 20132d4:	1884703a 	and	r2,r3,r2
 20132d8:	d0a00e15 	stw	r2,-32712(gp)
 20132dc:	d0e00e17 	ldw	r3,-32712(gp)
 20132e0:	e0bfff17 	ldw	r2,-4(fp)
 20132e4:	1885883a 	add	r2,r3,r2
 20132e8:	00c10034 	movhi	r3,1024
 20132ec:	18c00004 	addi	r3,r3,0
 20132f0:	1880062e 	bgeu	r3,r2,201330c <sbrk+0x74>
 20132f4:	e0bffa17 	ldw	r2,-24(fp)
 20132f8:	e0bffd15 	stw	r2,-12(fp)
 20132fc:	e0bffd17 	ldw	r2,-12(fp)
 2013300:	1001703a 	wrctl	status,r2
 2013304:	00bfffc4 	movi	r2,-1
 2013308:	00000b06 	br	2013338 <sbrk+0xa0>
 201330c:	d0a00e17 	ldw	r2,-32712(gp)
 2013310:	e0bffb15 	stw	r2,-20(fp)
 2013314:	d0e00e17 	ldw	r3,-32712(gp)
 2013318:	e0bfff17 	ldw	r2,-4(fp)
 201331c:	1885883a 	add	r2,r3,r2
 2013320:	d0a00e15 	stw	r2,-32712(gp)
 2013324:	e0bffa17 	ldw	r2,-24(fp)
 2013328:	e0bffe15 	stw	r2,-8(fp)
 201332c:	e0bffe17 	ldw	r2,-8(fp)
 2013330:	1001703a 	wrctl	status,r2
 2013334:	e0bffb17 	ldw	r2,-20(fp)
 2013338:	e037883a 	mov	sp,fp
 201333c:	df000017 	ldw	fp,0(sp)
 2013340:	dec00104 	addi	sp,sp,4
 2013344:	f800283a 	ret

02013348 <alt_alarm_stop>:
 2013348:	defffa04 	addi	sp,sp,-24
 201334c:	df000515 	stw	fp,20(sp)
 2013350:	df000504 	addi	fp,sp,20
 2013354:	e13fff15 	stw	r4,-4(fp)
 2013358:	0005303a 	rdctl	r2,status
 201335c:	e0bffc15 	stw	r2,-16(fp)
 2013360:	e0fffc17 	ldw	r3,-16(fp)
 2013364:	00bfff84 	movi	r2,-2
 2013368:	1884703a 	and	r2,r3,r2
 201336c:	1001703a 	wrctl	status,r2
 2013370:	e0bffc17 	ldw	r2,-16(fp)
 2013374:	e0bffb15 	stw	r2,-20(fp)
 2013378:	e0bfff17 	ldw	r2,-4(fp)
 201337c:	e0bffd15 	stw	r2,-12(fp)
 2013380:	e0bffd17 	ldw	r2,-12(fp)
 2013384:	10800017 	ldw	r2,0(r2)
 2013388:	e0fffd17 	ldw	r3,-12(fp)
 201338c:	18c00117 	ldw	r3,4(r3)
 2013390:	10c00115 	stw	r3,4(r2)
 2013394:	e0bffd17 	ldw	r2,-12(fp)
 2013398:	10800117 	ldw	r2,4(r2)
 201339c:	e0fffd17 	ldw	r3,-12(fp)
 20133a0:	18c00017 	ldw	r3,0(r3)
 20133a4:	10c00015 	stw	r3,0(r2)
 20133a8:	e0bffd17 	ldw	r2,-12(fp)
 20133ac:	e0fffd17 	ldw	r3,-12(fp)
 20133b0:	10c00115 	stw	r3,4(r2)
 20133b4:	e0bffd17 	ldw	r2,-12(fp)
 20133b8:	e0fffd17 	ldw	r3,-12(fp)
 20133bc:	10c00015 	stw	r3,0(r2)
 20133c0:	e0bffb17 	ldw	r2,-20(fp)
 20133c4:	e0bffe15 	stw	r2,-8(fp)
 20133c8:	e0bffe17 	ldw	r2,-8(fp)
 20133cc:	1001703a 	wrctl	status,r2
 20133d0:	e037883a 	mov	sp,fp
 20133d4:	df000017 	ldw	fp,0(sp)
 20133d8:	dec00104 	addi	sp,sp,4
 20133dc:	f800283a 	ret

020133e0 <alt_tick>:
 20133e0:	defffb04 	addi	sp,sp,-20
 20133e4:	dfc00415 	stw	ra,16(sp)
 20133e8:	df000315 	stw	fp,12(sp)
 20133ec:	df000304 	addi	fp,sp,12
 20133f0:	d0a00f17 	ldw	r2,-32708(gp)
 20133f4:	e0bffd15 	stw	r2,-12(fp)
 20133f8:	d0a02317 	ldw	r2,-32628(gp)
 20133fc:	10800044 	addi	r2,r2,1
 2013400:	d0a02315 	stw	r2,-32628(gp)
 2013404:	00002e06 	br	20134c0 <alt_tick+0xe0>
 2013408:	e0bffd17 	ldw	r2,-12(fp)
 201340c:	10800017 	ldw	r2,0(r2)
 2013410:	e0bffe15 	stw	r2,-8(fp)
 2013414:	e0bffd17 	ldw	r2,-12(fp)
 2013418:	10800403 	ldbu	r2,16(r2)
 201341c:	10803fcc 	andi	r2,r2,255
 2013420:	10000426 	beq	r2,zero,2013434 <alt_tick+0x54>
 2013424:	d0a02317 	ldw	r2,-32628(gp)
 2013428:	1000021e 	bne	r2,zero,2013434 <alt_tick+0x54>
 201342c:	e0bffd17 	ldw	r2,-12(fp)
 2013430:	10000405 	stb	zero,16(r2)
 2013434:	e0bffd17 	ldw	r2,-12(fp)
 2013438:	10800217 	ldw	r2,8(r2)
 201343c:	d0e02317 	ldw	r3,-32628(gp)
 2013440:	18801d36 	bltu	r3,r2,20134b8 <alt_tick+0xd8>
 2013444:	e0bffd17 	ldw	r2,-12(fp)
 2013448:	10800403 	ldbu	r2,16(r2)
 201344c:	10803fcc 	andi	r2,r2,255
 2013450:	1000191e 	bne	r2,zero,20134b8 <alt_tick+0xd8>
 2013454:	e0bffd17 	ldw	r2,-12(fp)
 2013458:	10800317 	ldw	r2,12(r2)
 201345c:	e0fffd17 	ldw	r3,-12(fp)
 2013460:	18c00517 	ldw	r3,20(r3)
 2013464:	1809883a 	mov	r4,r3
 2013468:	103ee83a 	callr	r2
 201346c:	e0bfff15 	stw	r2,-4(fp)
 2013470:	e0bfff17 	ldw	r2,-4(fp)
 2013474:	1000031e 	bne	r2,zero,2013484 <alt_tick+0xa4>
 2013478:	e13ffd17 	ldw	r4,-12(fp)
 201347c:	20133480 	call	2013348 <alt_alarm_stop>
 2013480:	00000d06 	br	20134b8 <alt_tick+0xd8>
 2013484:	e0bffd17 	ldw	r2,-12(fp)
 2013488:	10c00217 	ldw	r3,8(r2)
 201348c:	e0bfff17 	ldw	r2,-4(fp)
 2013490:	1887883a 	add	r3,r3,r2
 2013494:	e0bffd17 	ldw	r2,-12(fp)
 2013498:	10c00215 	stw	r3,8(r2)
 201349c:	e0bffd17 	ldw	r2,-12(fp)
 20134a0:	10c00217 	ldw	r3,8(r2)
 20134a4:	d0a02317 	ldw	r2,-32628(gp)
 20134a8:	1880032e 	bgeu	r3,r2,20134b8 <alt_tick+0xd8>
 20134ac:	e0bffd17 	ldw	r2,-12(fp)
 20134b0:	00c00044 	movi	r3,1
 20134b4:	10c00405 	stb	r3,16(r2)
 20134b8:	e0bffe17 	ldw	r2,-8(fp)
 20134bc:	e0bffd15 	stw	r2,-12(fp)
 20134c0:	e0fffd17 	ldw	r3,-12(fp)
 20134c4:	d0a00f04 	addi	r2,gp,-32708
 20134c8:	18bfcf1e 	bne	r3,r2,2013408 <__reset+0xfe00a408>
 20134cc:	0001883a 	nop
 20134d0:	e037883a 	mov	sp,fp
 20134d4:	dfc00117 	ldw	ra,4(sp)
 20134d8:	df000017 	ldw	fp,0(sp)
 20134dc:	dec00204 	addi	sp,sp,8
 20134e0:	f800283a 	ret

020134e4 <alt_get_errno>:
 20134e4:	defffe04 	addi	sp,sp,-8
 20134e8:	dfc00115 	stw	ra,4(sp)
 20134ec:	df000015 	stw	fp,0(sp)
 20134f0:	d839883a 	mov	fp,sp
 20134f4:	008080b4 	movhi	r2,514
 20134f8:	10836b04 	addi	r2,r2,3500
 20134fc:	10800017 	ldw	r2,0(r2)
 2013500:	10000526 	beq	r2,zero,2013518 <alt_get_errno+0x34>
 2013504:	008080b4 	movhi	r2,514
 2013508:	10836b04 	addi	r2,r2,3500
 201350c:	10800017 	ldw	r2,0(r2)
 2013510:	103ee83a 	callr	r2
 2013514:	00000206 	br	2013520 <alt_get_errno+0x3c>
 2013518:	008080b4 	movhi	r2,514
 201351c:	10837904 	addi	r2,r2,3556
 2013520:	e037883a 	mov	sp,fp
 2013524:	dfc00117 	ldw	ra,4(sp)
 2013528:	df000017 	ldw	fp,0(sp)
 201352c:	dec00204 	addi	sp,sp,8
 2013530:	f800283a 	ret

02013534 <write>:
 2013534:	defff904 	addi	sp,sp,-28
 2013538:	dfc00615 	stw	ra,24(sp)
 201353c:	df000515 	stw	fp,20(sp)
 2013540:	df000504 	addi	fp,sp,20
 2013544:	e13ffd15 	stw	r4,-12(fp)
 2013548:	e17ffe15 	stw	r5,-8(fp)
 201354c:	e1bfff15 	stw	r6,-4(fp)
 2013550:	e0bffd17 	ldw	r2,-12(fp)
 2013554:	10000816 	blt	r2,zero,2013578 <write+0x44>
 2013558:	e13ffd17 	ldw	r4,-12(fp)
 201355c:	01400304 	movi	r5,12
 2013560:	20059200 	call	2005920 <__mulsi3>
 2013564:	1007883a 	mov	r3,r2
 2013568:	008080b4 	movhi	r2,514
 201356c:	10be8304 	addi	r2,r2,-1524
 2013570:	1885883a 	add	r2,r3,r2
 2013574:	00000106 	br	201357c <write+0x48>
 2013578:	0005883a 	mov	r2,zero
 201357c:	e0bffb15 	stw	r2,-20(fp)
 2013580:	e0bffb17 	ldw	r2,-20(fp)
 2013584:	10001f26 	beq	r2,zero,2013604 <write+0xd0>
 2013588:	e0bffb17 	ldw	r2,-20(fp)
 201358c:	10800217 	ldw	r2,8(r2)
 2013590:	108000cc 	andi	r2,r2,3
 2013594:	10001726 	beq	r2,zero,20135f4 <write+0xc0>
 2013598:	e0bffb17 	ldw	r2,-20(fp)
 201359c:	10800017 	ldw	r2,0(r2)
 20135a0:	10800617 	ldw	r2,24(r2)
 20135a4:	10001326 	beq	r2,zero,20135f4 <write+0xc0>
 20135a8:	e0bffb17 	ldw	r2,-20(fp)
 20135ac:	10800017 	ldw	r2,0(r2)
 20135b0:	10800617 	ldw	r2,24(r2)
 20135b4:	e0ffff17 	ldw	r3,-4(fp)
 20135b8:	e13ffb17 	ldw	r4,-20(fp)
 20135bc:	e17ffe17 	ldw	r5,-8(fp)
 20135c0:	180d883a 	mov	r6,r3
 20135c4:	103ee83a 	callr	r2
 20135c8:	e0bffc15 	stw	r2,-16(fp)
 20135cc:	e0bffc17 	ldw	r2,-16(fp)
 20135d0:	1000060e 	bge	r2,zero,20135ec <write+0xb8>
 20135d4:	20134e40 	call	20134e4 <alt_get_errno>
 20135d8:	e0fffc17 	ldw	r3,-16(fp)
 20135dc:	00c7c83a 	sub	r3,zero,r3
 20135e0:	10c00015 	stw	r3,0(r2)
 20135e4:	00bfffc4 	movi	r2,-1
 20135e8:	00000a06 	br	2013614 <write+0xe0>
 20135ec:	e0bffc17 	ldw	r2,-16(fp)
 20135f0:	00000806 	br	2013614 <write+0xe0>
 20135f4:	20134e40 	call	20134e4 <alt_get_errno>
 20135f8:	00c00344 	movi	r3,13
 20135fc:	10c00015 	stw	r3,0(r2)
 2013600:	00000306 	br	2013610 <write+0xdc>
 2013604:	20134e40 	call	20134e4 <alt_get_errno>
 2013608:	00c01444 	movi	r3,81
 201360c:	10c00015 	stw	r3,0(r2)
 2013610:	00bfffc4 	movi	r2,-1
 2013614:	e037883a 	mov	sp,fp
 2013618:	dfc00117 	ldw	ra,4(sp)
 201361c:	df000017 	ldw	fp,0(sp)
 2013620:	dec00204 	addi	sp,sp,8
 2013624:	f800283a 	ret

02013628 <alt_dev_reg>:
 2013628:	defffd04 	addi	sp,sp,-12
 201362c:	dfc00215 	stw	ra,8(sp)
 2013630:	df000115 	stw	fp,4(sp)
 2013634:	df000104 	addi	fp,sp,4
 2013638:	e13fff15 	stw	r4,-4(fp)
 201363c:	e13fff17 	ldw	r4,-4(fp)
 2013640:	014080b4 	movhi	r5,514
 2013644:	29436804 	addi	r5,r5,3488
 2013648:	2015cb40 	call	2015cb4 <alt_dev_llist_insert>
 201364c:	e037883a 	mov	sp,fp
 2013650:	dfc00117 	ldw	ra,4(sp)
 2013654:	df000017 	ldw	fp,0(sp)
 2013658:	dec00204 	addi	sp,sp,8
 201365c:	f800283a 	ret

02013660 <alt_irq_init>:
 2013660:	defffd04 	addi	sp,sp,-12
 2013664:	dfc00215 	stw	ra,8(sp)
 2013668:	df000115 	stw	fp,4(sp)
 201366c:	df000104 	addi	fp,sp,4
 2013670:	e13fff15 	stw	r4,-4(fp)
 2013674:	201655c0 	call	201655c <altera_nios2_gen2_irq_init>
 2013678:	00800044 	movi	r2,1
 201367c:	1001703a 	wrctl	status,r2
 2013680:	e037883a 	mov	sp,fp
 2013684:	dfc00117 	ldw	ra,4(sp)
 2013688:	df000017 	ldw	fp,0(sp)
 201368c:	dec00204 	addi	sp,sp,8
 2013690:	f800283a 	ret

02013694 <alt_sys_init>:
 2013694:	defffe04 	addi	sp,sp,-8
 2013698:	dfc00115 	stw	ra,4(sp)
 201369c:	df000015 	stw	fp,0(sp)
 20136a0:	d839883a 	mov	fp,sp
 20136a4:	01010074 	movhi	r4,1025
 20136a8:	21281004 	addi	r4,r4,-24512
 20136ac:	000b883a 	mov	r5,zero
 20136b0:	000d883a 	mov	r6,zero
 20136b4:	01c0fa04 	movi	r7,1000
 20136b8:	2014cc80 	call	2014cc8 <alt_avalon_timer_sc_init>
 20136bc:	010080b4 	movhi	r4,514
 20136c0:	213ee304 	addi	r4,r4,-1140
 20136c4:	20137580 	call	2013758 <alt_epcs_flash_init>
 20136c8:	010080b4 	movhi	r4,514
 20136cc:	213f1f04 	addi	r4,r4,-900
 20136d0:	000b883a 	mov	r5,zero
 20136d4:	01800084 	movi	r6,2
 20136d8:	20143800 	call	2014380 <altera_avalon_jtag_uart_init>
 20136dc:	010080b4 	movhi	r4,514
 20136e0:	213f1504 	addi	r4,r4,-940
 20136e4:	20136280 	call	2013628 <alt_dev_reg>
 20136e8:	0001883a 	nop
 20136ec:	010080b4 	movhi	r4,514
 20136f0:	21033704 	addi	r4,r4,3292
 20136f4:	000b883a 	mov	r5,zero
 20136f8:	01800104 	movi	r6,4
 20136fc:	2014e600 	call	2014e60 <altera_avalon_uart_init>
 2013700:	010080b4 	movhi	r4,514
 2013704:	21032d04 	addi	r4,r4,3252
 2013708:	20136280 	call	2013628 <alt_dev_reg>
 201370c:	e037883a 	mov	sp,fp
 2013710:	dfc00117 	ldw	ra,4(sp)
 2013714:	df000017 	ldw	fp,0(sp)
 2013718:	dec00204 	addi	sp,sp,8
 201371c:	f800283a 	ret

02013720 <alt_flash_device_register>:
 2013720:	defffd04 	addi	sp,sp,-12
 2013724:	dfc00215 	stw	ra,8(sp)
 2013728:	df000115 	stw	fp,4(sp)
 201372c:	df000104 	addi	fp,sp,4
 2013730:	e13fff15 	stw	r4,-4(fp)
 2013734:	e13fff17 	ldw	r4,-4(fp)
 2013738:	014080b4 	movhi	r5,514
 201373c:	29436f04 	addi	r5,r5,3516
 2013740:	2015cb40 	call	2015cb4 <alt_dev_llist_insert>
 2013744:	e037883a 	mov	sp,fp
 2013748:	dfc00117 	ldw	ra,4(sp)
 201374c:	df000017 	ldw	fp,0(sp)
 2013750:	dec00204 	addi	sp,sp,8
 2013754:	f800283a 	ret

02013758 <alt_epcs_flash_init>:
 2013758:	defffc04 	addi	sp,sp,-16
 201375c:	dfc00315 	stw	ra,12(sp)
 2013760:	df000215 	stw	fp,8(sp)
 2013764:	df000204 	addi	fp,sp,8
 2013768:	e13fff15 	stw	r4,-4(fp)
 201376c:	e03ffe15 	stw	zero,-8(fp)
 2013770:	e13fff17 	ldw	r4,-4(fp)
 2013774:	20137ac0 	call	20137ac <alt_epcs_flash_query>
 2013778:	e0bffe15 	stw	r2,-8(fp)
 201377c:	e0bffe17 	ldw	r2,-8(fp)
 2013780:	1000041e 	bne	r2,zero,2013794 <alt_epcs_flash_init+0x3c>
 2013784:	e0bfff17 	ldw	r2,-4(fp)
 2013788:	1009883a 	mov	r4,r2
 201378c:	20137200 	call	2013720 <alt_flash_device_register>
 2013790:	e0bffe15 	stw	r2,-8(fp)
 2013794:	e0bffe17 	ldw	r2,-8(fp)
 2013798:	e037883a 	mov	sp,fp
 201379c:	dfc00117 	ldw	ra,4(sp)
 20137a0:	df000017 	ldw	fp,0(sp)
 20137a4:	dec00204 	addi	sp,sp,8
 20137a8:	f800283a 	ret

020137ac <alt_epcs_flash_query>:
 20137ac:	defffc04 	addi	sp,sp,-16
 20137b0:	dfc00315 	stw	ra,12(sp)
 20137b4:	df000215 	stw	fp,8(sp)
 20137b8:	df000204 	addi	fp,sp,8
 20137bc:	e13fff15 	stw	r4,-4(fp)
 20137c0:	e03ffe15 	stw	zero,-8(fp)
 20137c4:	e0bfff17 	ldw	r2,-4(fp)
 20137c8:	10003115 	stw	zero,196(r2)
 20137cc:	e0bfff17 	ldw	r2,-4(fp)
 20137d0:	10802d17 	ldw	r2,180(r2)
 20137d4:	1009883a 	mov	r4,r2
 20137d8:	2015ac40 	call	2015ac4 <epcs_read_electronic_signature>
 20137dc:	10c03fcc 	andi	r3,r2,255
 20137e0:	e0bfff17 	ldw	r2,-4(fp)
 20137e4:	10c02f15 	stw	r3,188(r2)
 20137e8:	e0bfff17 	ldw	r2,-4(fp)
 20137ec:	10802f17 	ldw	r2,188(r2)
 20137f0:	10800598 	cmpnei	r2,r2,22
 20137f4:	10000a1e 	bne	r2,zero,2013820 <alt_epcs_flash_query+0x74>
 20137f8:	e0bfff17 	ldw	r2,-4(fp)
 20137fc:	00c02034 	movhi	r3,128
 2013800:	10c00e15 	stw	r3,56(r2)
 2013804:	e0bfff17 	ldw	r2,-4(fp)
 2013808:	00c02004 	movi	r3,128
 201380c:	10c00f15 	stw	r3,60(r2)
 2013810:	e0bfff17 	ldw	r2,-4(fp)
 2013814:	00c00074 	movhi	r3,1
 2013818:	10c01015 	stw	r3,64(r2)
 201381c:	0000ce06 	br	2013b58 <alt_epcs_flash_query+0x3ac>
 2013820:	e0bfff17 	ldw	r2,-4(fp)
 2013824:	10802f17 	ldw	r2,188(r2)
 2013828:	10800518 	cmpnei	r2,r2,20
 201382c:	10000a1e 	bne	r2,zero,2013858 <alt_epcs_flash_query+0xac>
 2013830:	e0bfff17 	ldw	r2,-4(fp)
 2013834:	00c00834 	movhi	r3,32
 2013838:	10c00e15 	stw	r3,56(r2)
 201383c:	e0bfff17 	ldw	r2,-4(fp)
 2013840:	00c00804 	movi	r3,32
 2013844:	10c00f15 	stw	r3,60(r2)
 2013848:	e0bfff17 	ldw	r2,-4(fp)
 201384c:	00c00074 	movhi	r3,1
 2013850:	10c01015 	stw	r3,64(r2)
 2013854:	0000c006 	br	2013b58 <alt_epcs_flash_query+0x3ac>
 2013858:	e0bfff17 	ldw	r2,-4(fp)
 201385c:	10802f17 	ldw	r2,188(r2)
 2013860:	108004d8 	cmpnei	r2,r2,19
 2013864:	10000a1e 	bne	r2,zero,2013890 <alt_epcs_flash_query+0xe4>
 2013868:	e0bfff17 	ldw	r2,-4(fp)
 201386c:	00c00434 	movhi	r3,16
 2013870:	10c00e15 	stw	r3,56(r2)
 2013874:	e0bfff17 	ldw	r2,-4(fp)
 2013878:	00c00404 	movi	r3,16
 201387c:	10c00f15 	stw	r3,60(r2)
 2013880:	e0bfff17 	ldw	r2,-4(fp)
 2013884:	00c00074 	movhi	r3,1
 2013888:	10c01015 	stw	r3,64(r2)
 201388c:	0000b206 	br	2013b58 <alt_epcs_flash_query+0x3ac>
 2013890:	e0bfff17 	ldw	r2,-4(fp)
 2013894:	10802f17 	ldw	r2,188(r2)
 2013898:	10800498 	cmpnei	r2,r2,18
 201389c:	10000a1e 	bne	r2,zero,20138c8 <alt_epcs_flash_query+0x11c>
 20138a0:	e0bfff17 	ldw	r2,-4(fp)
 20138a4:	00c00234 	movhi	r3,8
 20138a8:	10c00e15 	stw	r3,56(r2)
 20138ac:	e0bfff17 	ldw	r2,-4(fp)
 20138b0:	00c00204 	movi	r3,8
 20138b4:	10c00f15 	stw	r3,60(r2)
 20138b8:	e0bfff17 	ldw	r2,-4(fp)
 20138bc:	00c00074 	movhi	r3,1
 20138c0:	10c01015 	stw	r3,64(r2)
 20138c4:	0000a406 	br	2013b58 <alt_epcs_flash_query+0x3ac>
 20138c8:	e0bfff17 	ldw	r2,-4(fp)
 20138cc:	10802f17 	ldw	r2,188(r2)
 20138d0:	10800418 	cmpnei	r2,r2,16
 20138d4:	10000a1e 	bne	r2,zero,2013900 <alt_epcs_flash_query+0x154>
 20138d8:	e0bfff17 	ldw	r2,-4(fp)
 20138dc:	00c000b4 	movhi	r3,2
 20138e0:	10c00e15 	stw	r3,56(r2)
 20138e4:	e0bfff17 	ldw	r2,-4(fp)
 20138e8:	00c00104 	movi	r3,4
 20138ec:	10c00f15 	stw	r3,60(r2)
 20138f0:	e0bfff17 	ldw	r2,-4(fp)
 20138f4:	00e00014 	movui	r3,32768
 20138f8:	10c01015 	stw	r3,64(r2)
 20138fc:	00009606 	br	2013b58 <alt_epcs_flash_query+0x3ac>
 2013900:	e0bfff17 	ldw	r2,-4(fp)
 2013904:	10802d17 	ldw	r2,180(r2)
 2013908:	1009883a 	mov	r4,r2
 201390c:	2015b2c0 	call	2015b2c <epcs_read_device_id>
 2013910:	1007883a 	mov	r3,r2
 2013914:	e0bfff17 	ldw	r2,-4(fp)
 2013918:	10c02f15 	stw	r3,188(r2)
 201391c:	e0bfff17 	ldw	r2,-4(fp)
 2013920:	10c02f17 	ldw	r3,188(r2)
 2013924:	00804034 	movhi	r2,256
 2013928:	10bfffc4 	addi	r2,r2,-1
 201392c:	1886703a 	and	r3,r3,r2
 2013930:	00800874 	movhi	r2,33
 2013934:	10ae8544 	addi	r2,r2,-17899
 2013938:	18800a1e 	bne	r3,r2,2013964 <alt_epcs_flash_query+0x1b8>
 201393c:	e0bfff17 	ldw	r2,-4(fp)
 2013940:	00c00834 	movhi	r3,32
 2013944:	10c00e15 	stw	r3,56(r2)
 2013948:	e0bfff17 	ldw	r2,-4(fp)
 201394c:	00c00804 	movi	r3,32
 2013950:	10c00f15 	stw	r3,60(r2)
 2013954:	e0bfff17 	ldw	r2,-4(fp)
 2013958:	00c00074 	movhi	r3,1
 201395c:	10c01015 	stw	r3,64(r2)
 2013960:	00007d06 	br	2013b58 <alt_epcs_flash_query+0x3ac>
 2013964:	e0bfff17 	ldw	r2,-4(fp)
 2013968:	10c02f17 	ldw	r3,188(r2)
 201396c:	00804034 	movhi	r2,256
 2013970:	10bfffc4 	addi	r2,r2,-1
 2013974:	1886703a 	and	r3,r3,r2
 2013978:	00800874 	movhi	r2,33
 201397c:	10ae8584 	addi	r2,r2,-17898
 2013980:	18800a1e 	bne	r3,r2,20139ac <alt_epcs_flash_query+0x200>
 2013984:	e0bfff17 	ldw	r2,-4(fp)
 2013988:	00c01034 	movhi	r3,64
 201398c:	10c00e15 	stw	r3,56(r2)
 2013990:	e0bfff17 	ldw	r2,-4(fp)
 2013994:	00c01004 	movi	r3,64
 2013998:	10c00f15 	stw	r3,60(r2)
 201399c:	e0bfff17 	ldw	r2,-4(fp)
 20139a0:	00c00074 	movhi	r3,1
 20139a4:	10c01015 	stw	r3,64(r2)
 20139a8:	00006b06 	br	2013b58 <alt_epcs_flash_query+0x3ac>
 20139ac:	e0bfff17 	ldw	r2,-4(fp)
 20139b0:	10c02f17 	ldw	r3,188(r2)
 20139b4:	00804034 	movhi	r2,256
 20139b8:	10bfffc4 	addi	r2,r2,-1
 20139bc:	1886703a 	and	r3,r3,r2
 20139c0:	00800874 	movhi	r2,33
 20139c4:	10ae85c4 	addi	r2,r2,-17897
 20139c8:	18800a1e 	bne	r3,r2,20139f4 <alt_epcs_flash_query+0x248>
 20139cc:	e0bfff17 	ldw	r2,-4(fp)
 20139d0:	00c02034 	movhi	r3,128
 20139d4:	10c00e15 	stw	r3,56(r2)
 20139d8:	e0bfff17 	ldw	r2,-4(fp)
 20139dc:	00c02004 	movi	r3,128
 20139e0:	10c00f15 	stw	r3,60(r2)
 20139e4:	e0bfff17 	ldw	r2,-4(fp)
 20139e8:	00c00074 	movhi	r3,1
 20139ec:	10c01015 	stw	r3,64(r2)
 20139f0:	00005906 	br	2013b58 <alt_epcs_flash_query+0x3ac>
 20139f4:	e0bfff17 	ldw	r2,-4(fp)
 20139f8:	10c02f17 	ldw	r3,188(r2)
 20139fc:	00804034 	movhi	r2,256
 2013a00:	10bfffc4 	addi	r2,r2,-1
 2013a04:	1886703a 	and	r3,r3,r2
 2013a08:	00800874 	movhi	r2,33
 2013a0c:	10ae8604 	addi	r2,r2,-17896
 2013a10:	18800a1e 	bne	r3,r2,2013a3c <alt_epcs_flash_query+0x290>
 2013a14:	e0bfff17 	ldw	r2,-4(fp)
 2013a18:	00c04034 	movhi	r3,256
 2013a1c:	10c00e15 	stw	r3,56(r2)
 2013a20:	e0bfff17 	ldw	r2,-4(fp)
 2013a24:	00c04004 	movi	r3,256
 2013a28:	10c00f15 	stw	r3,60(r2)
 2013a2c:	e0bfff17 	ldw	r2,-4(fp)
 2013a30:	00c00074 	movhi	r3,1
 2013a34:	10c01015 	stw	r3,64(r2)
 2013a38:	00004706 	br	2013b58 <alt_epcs_flash_query+0x3ac>
 2013a3c:	e0bfff17 	ldw	r2,-4(fp)
 2013a40:	10802f17 	ldw	r2,188(r2)
 2013a44:	10803fcc 	andi	r2,r2,255
 2013a48:	10800618 	cmpnei	r2,r2,24
 2013a4c:	10000a1e 	bne	r2,zero,2013a78 <alt_epcs_flash_query+0x2cc>
 2013a50:	e0bfff17 	ldw	r2,-4(fp)
 2013a54:	00c04034 	movhi	r3,256
 2013a58:	10c00e15 	stw	r3,56(r2)
 2013a5c:	e0bfff17 	ldw	r2,-4(fp)
 2013a60:	00c01004 	movi	r3,64
 2013a64:	10c00f15 	stw	r3,60(r2)
 2013a68:	e0bfff17 	ldw	r2,-4(fp)
 2013a6c:	00c00134 	movhi	r3,4
 2013a70:	10c01015 	stw	r3,64(r2)
 2013a74:	00003806 	br	2013b58 <alt_epcs_flash_query+0x3ac>
 2013a78:	e0bfff17 	ldw	r2,-4(fp)
 2013a7c:	10802f17 	ldw	r2,188(r2)
 2013a80:	10803fcc 	andi	r2,r2,255
 2013a84:	10800658 	cmpnei	r2,r2,25
 2013a88:	10000d1e 	bne	r2,zero,2013ac0 <alt_epcs_flash_query+0x314>
 2013a8c:	e0bfff17 	ldw	r2,-4(fp)
 2013a90:	00c08034 	movhi	r3,512
 2013a94:	10c00e15 	stw	r3,56(r2)
 2013a98:	e0bfff17 	ldw	r2,-4(fp)
 2013a9c:	00c08004 	movi	r3,512
 2013aa0:	10c00f15 	stw	r3,60(r2)
 2013aa4:	e0bfff17 	ldw	r2,-4(fp)
 2013aa8:	00c00074 	movhi	r3,1
 2013aac:	10c01015 	stw	r3,64(r2)
 2013ab0:	e0bfff17 	ldw	r2,-4(fp)
 2013ab4:	00c00044 	movi	r3,1
 2013ab8:	10c03115 	stw	r3,196(r2)
 2013abc:	00002606 	br	2013b58 <alt_epcs_flash_query+0x3ac>
 2013ac0:	e0bfff17 	ldw	r2,-4(fp)
 2013ac4:	10802f17 	ldw	r2,188(r2)
 2013ac8:	10803fcc 	andi	r2,r2,255
 2013acc:	10800818 	cmpnei	r2,r2,32
 2013ad0:	10000d1e 	bne	r2,zero,2013b08 <alt_epcs_flash_query+0x35c>
 2013ad4:	e0bfff17 	ldw	r2,-4(fp)
 2013ad8:	00c10034 	movhi	r3,1024
 2013adc:	10c00e15 	stw	r3,56(r2)
 2013ae0:	e0bfff17 	ldw	r2,-4(fp)
 2013ae4:	00c10004 	movi	r3,1024
 2013ae8:	10c00f15 	stw	r3,60(r2)
 2013aec:	e0bfff17 	ldw	r2,-4(fp)
 2013af0:	00c00074 	movhi	r3,1
 2013af4:	10c01015 	stw	r3,64(r2)
 2013af8:	e0bfff17 	ldw	r2,-4(fp)
 2013afc:	00c00044 	movi	r3,1
 2013b00:	10c03115 	stw	r3,196(r2)
 2013b04:	00001406 	br	2013b58 <alt_epcs_flash_query+0x3ac>
 2013b08:	e0bfff17 	ldw	r2,-4(fp)
 2013b0c:	10802f17 	ldw	r2,188(r2)
 2013b10:	10803fcc 	andi	r2,r2,255
 2013b14:	10800858 	cmpnei	r2,r2,33
 2013b18:	10000d1e 	bne	r2,zero,2013b50 <alt_epcs_flash_query+0x3a4>
 2013b1c:	e0bfff17 	ldw	r2,-4(fp)
 2013b20:	00c20034 	movhi	r3,2048
 2013b24:	10c00e15 	stw	r3,56(r2)
 2013b28:	e0bfff17 	ldw	r2,-4(fp)
 2013b2c:	00c20004 	movi	r3,2048
 2013b30:	10c00f15 	stw	r3,60(r2)
 2013b34:	e0bfff17 	ldw	r2,-4(fp)
 2013b38:	00c00074 	movhi	r3,1
 2013b3c:	10c01015 	stw	r3,64(r2)
 2013b40:	e0bfff17 	ldw	r2,-4(fp)
 2013b44:	00c00044 	movi	r3,1
 2013b48:	10c03115 	stw	r3,196(r2)
 2013b4c:	00000206 	br	2013b58 <alt_epcs_flash_query+0x3ac>
 2013b50:	00bffb44 	movi	r2,-19
 2013b54:	e0bffe15 	stw	r2,-8(fp)
 2013b58:	e0bfff17 	ldw	r2,-4(fp)
 2013b5c:	10800e17 	ldw	r2,56(r2)
 2013b60:	1007883a 	mov	r3,r2
 2013b64:	e0bfff17 	ldw	r2,-4(fp)
 2013b68:	10c02e15 	stw	r3,184(r2)
 2013b6c:	e0bfff17 	ldw	r2,-4(fp)
 2013b70:	00c00044 	movi	r3,1
 2013b74:	10c00c15 	stw	r3,48(r2)
 2013b78:	e0bfff17 	ldw	r2,-4(fp)
 2013b7c:	10000d15 	stw	zero,52(r2)
 2013b80:	e0bfff17 	ldw	r2,-4(fp)
 2013b84:	00c04004 	movi	r3,256
 2013b88:	10c03015 	stw	r3,192(r2)
 2013b8c:	e0bffe17 	ldw	r2,-8(fp)
 2013b90:	e037883a 	mov	sp,fp
 2013b94:	dfc00117 	ldw	ra,4(sp)
 2013b98:	df000017 	ldw	fp,0(sp)
 2013b9c:	dec00204 	addi	sp,sp,8
 2013ba0:	f800283a 	ret

02013ba4 <alt_epcs_flash_memcmp>:
 2013ba4:	deffee04 	addi	sp,sp,-72
 2013ba8:	dfc01115 	stw	ra,68(sp)
 2013bac:	df001015 	stw	fp,64(sp)
 2013bb0:	df001004 	addi	fp,sp,64
 2013bb4:	e13ffc15 	stw	r4,-16(fp)
 2013bb8:	e17ffd15 	stw	r5,-12(fp)
 2013bbc:	e1bffe15 	stw	r6,-8(fp)
 2013bc0:	e1ffff15 	stw	r7,-4(fp)
 2013bc4:	00800804 	movi	r2,32
 2013bc8:	e0bff115 	stw	r2,-60(fp)
 2013bcc:	e03ff015 	stw	zero,-64(fp)
 2013bd0:	00002606 	br	2013c6c <alt_epcs_flash_memcmp+0xc8>
 2013bd4:	e0bff117 	ldw	r2,-60(fp)
 2013bd8:	e0ffff17 	ldw	r3,-4(fp)
 2013bdc:	1880012e 	bgeu	r3,r2,2013be4 <alt_epcs_flash_memcmp+0x40>
 2013be0:	1805883a 	mov	r2,r3
 2013be4:	e0bff215 	stw	r2,-56(fp)
 2013be8:	e0fffe17 	ldw	r3,-8(fp)
 2013bec:	e0bff017 	ldw	r2,-64(fp)
 2013bf0:	1887883a 	add	r3,r3,r2
 2013bf4:	e0bff404 	addi	r2,fp,-48
 2013bf8:	e13ffc17 	ldw	r4,-16(fp)
 2013bfc:	180b883a 	mov	r5,r3
 2013c00:	100d883a 	mov	r6,r2
 2013c04:	e1fff217 	ldw	r7,-56(fp)
 2013c08:	20141840 	call	2014184 <alt_epcs_flash_read>
 2013c0c:	1000020e 	bge	r2,zero,2013c18 <alt_epcs_flash_memcmp+0x74>
 2013c10:	00bfffc4 	movi	r2,-1
 2013c14:	00001806 	br	2013c78 <alt_epcs_flash_memcmp+0xd4>
 2013c18:	e0bff017 	ldw	r2,-64(fp)
 2013c1c:	e0fffd17 	ldw	r3,-12(fp)
 2013c20:	1889883a 	add	r4,r3,r2
 2013c24:	e0bff217 	ldw	r2,-56(fp)
 2013c28:	e0fff404 	addi	r3,fp,-48
 2013c2c:	180b883a 	mov	r5,r3
 2013c30:	100d883a 	mov	r6,r2
 2013c34:	20086880 	call	2008688 <memcmp>
 2013c38:	e0bff315 	stw	r2,-52(fp)
 2013c3c:	e0bff317 	ldw	r2,-52(fp)
 2013c40:	10000226 	beq	r2,zero,2013c4c <alt_epcs_flash_memcmp+0xa8>
 2013c44:	e0bff317 	ldw	r2,-52(fp)
 2013c48:	00000b06 	br	2013c78 <alt_epcs_flash_memcmp+0xd4>
 2013c4c:	e0bff217 	ldw	r2,-56(fp)
 2013c50:	e0ffff17 	ldw	r3,-4(fp)
 2013c54:	1885c83a 	sub	r2,r3,r2
 2013c58:	e0bfff15 	stw	r2,-4(fp)
 2013c5c:	e0fff017 	ldw	r3,-64(fp)
 2013c60:	e0bff217 	ldw	r2,-56(fp)
 2013c64:	1885883a 	add	r2,r3,r2
 2013c68:	e0bff015 	stw	r2,-64(fp)
 2013c6c:	e0bfff17 	ldw	r2,-4(fp)
 2013c70:	103fd81e 	bne	r2,zero,2013bd4 <__reset+0xfe00abd4>
 2013c74:	0005883a 	mov	r2,zero
 2013c78:	e037883a 	mov	sp,fp
 2013c7c:	dfc00117 	ldw	ra,4(sp)
 2013c80:	df000017 	ldw	fp,0(sp)
 2013c84:	dec00204 	addi	sp,sp,8
 2013c88:	f800283a 	ret

02013c8c <alt_epcs_flash_write>:
 2013c8c:	defff404 	addi	sp,sp,-48
 2013c90:	dfc00b15 	stw	ra,44(sp)
 2013c94:	df000a15 	stw	fp,40(sp)
 2013c98:	df000a04 	addi	fp,sp,40
 2013c9c:	e13ffc15 	stw	r4,-16(fp)
 2013ca0:	e17ffd15 	stw	r5,-12(fp)
 2013ca4:	e1bffe15 	stw	r6,-8(fp)
 2013ca8:	e1ffff15 	stw	r7,-4(fp)
 2013cac:	e03ff715 	stw	zero,-36(fp)
 2013cb0:	e03ff815 	stw	zero,-32(fp)
 2013cb4:	00008306 	br	2013ec4 <alt_epcs_flash_write+0x238>
 2013cb8:	e0fffc17 	ldw	r3,-16(fp)
 2013cbc:	e0bff817 	ldw	r2,-32(fp)
 2013cc0:	1004913a 	slli	r2,r2,4
 2013cc4:	1885883a 	add	r2,r3,r2
 2013cc8:	10800d04 	addi	r2,r2,52
 2013ccc:	10800017 	ldw	r2,0(r2)
 2013cd0:	e0fffd17 	ldw	r3,-12(fp)
 2013cd4:	18807816 	blt	r3,r2,2013eb8 <alt_epcs_flash_write+0x22c>
 2013cd8:	e0fffc17 	ldw	r3,-16(fp)
 2013cdc:	e0bff817 	ldw	r2,-32(fp)
 2013ce0:	1004913a 	slli	r2,r2,4
 2013ce4:	1885883a 	add	r2,r3,r2
 2013ce8:	10800d04 	addi	r2,r2,52
 2013cec:	10c00017 	ldw	r3,0(r2)
 2013cf0:	e13ffc17 	ldw	r4,-16(fp)
 2013cf4:	e0bff817 	ldw	r2,-32(fp)
 2013cf8:	1004913a 	slli	r2,r2,4
 2013cfc:	2085883a 	add	r2,r4,r2
 2013d00:	10800e04 	addi	r2,r2,56
 2013d04:	10800017 	ldw	r2,0(r2)
 2013d08:	1885883a 	add	r2,r3,r2
 2013d0c:	e0fffd17 	ldw	r3,-12(fp)
 2013d10:	1880690e 	bge	r3,r2,2013eb8 <alt_epcs_flash_write+0x22c>
 2013d14:	e0fffc17 	ldw	r3,-16(fp)
 2013d18:	e0bff817 	ldw	r2,-32(fp)
 2013d1c:	1004913a 	slli	r2,r2,4
 2013d20:	1885883a 	add	r2,r3,r2
 2013d24:	10800d04 	addi	r2,r2,52
 2013d28:	10800017 	ldw	r2,0(r2)
 2013d2c:	e0bffa15 	stw	r2,-24(fp)
 2013d30:	e03ff915 	stw	zero,-28(fp)
 2013d34:	00005806 	br	2013e98 <alt_epcs_flash_write+0x20c>
 2013d38:	e0fffd17 	ldw	r3,-12(fp)
 2013d3c:	e0bffa17 	ldw	r2,-24(fp)
 2013d40:	18804916 	blt	r3,r2,2013e68 <alt_epcs_flash_write+0x1dc>
 2013d44:	e0fffc17 	ldw	r3,-16(fp)
 2013d48:	e0bff817 	ldw	r2,-32(fp)
 2013d4c:	10800104 	addi	r2,r2,4
 2013d50:	1004913a 	slli	r2,r2,4
 2013d54:	1885883a 	add	r2,r3,r2
 2013d58:	10c00017 	ldw	r3,0(r2)
 2013d5c:	e0bffa17 	ldw	r2,-24(fp)
 2013d60:	1885883a 	add	r2,r3,r2
 2013d64:	e0fffd17 	ldw	r3,-12(fp)
 2013d68:	18803f0e 	bge	r3,r2,2013e68 <alt_epcs_flash_write+0x1dc>
 2013d6c:	e0fffc17 	ldw	r3,-16(fp)
 2013d70:	e0bff817 	ldw	r2,-32(fp)
 2013d74:	10800104 	addi	r2,r2,4
 2013d78:	1004913a 	slli	r2,r2,4
 2013d7c:	1885883a 	add	r2,r3,r2
 2013d80:	10c00017 	ldw	r3,0(r2)
 2013d84:	e0bffa17 	ldw	r2,-24(fp)
 2013d88:	1887883a 	add	r3,r3,r2
 2013d8c:	e0bffd17 	ldw	r2,-12(fp)
 2013d90:	1885c83a 	sub	r2,r3,r2
 2013d94:	e0bffb15 	stw	r2,-20(fp)
 2013d98:	e0fffb17 	ldw	r3,-20(fp)
 2013d9c:	e0bfff17 	ldw	r2,-4(fp)
 2013da0:	1880010e 	bge	r3,r2,2013da8 <alt_epcs_flash_write+0x11c>
 2013da4:	1805883a 	mov	r2,r3
 2013da8:	e0bffb15 	stw	r2,-20(fp)
 2013dac:	e0bffb17 	ldw	r2,-20(fp)
 2013db0:	e13ffc17 	ldw	r4,-16(fp)
 2013db4:	e17ffe17 	ldw	r5,-8(fp)
 2013db8:	e1bffd17 	ldw	r6,-12(fp)
 2013dbc:	100f883a 	mov	r7,r2
 2013dc0:	2013ba40 	call	2013ba4 <alt_epcs_flash_memcmp>
 2013dc4:	10001226 	beq	r2,zero,2013e10 <alt_epcs_flash_write+0x184>
 2013dc8:	e0bffc17 	ldw	r2,-16(fp)
 2013dcc:	10800817 	ldw	r2,32(r2)
 2013dd0:	e13ffc17 	ldw	r4,-16(fp)
 2013dd4:	e17ffa17 	ldw	r5,-24(fp)
 2013dd8:	103ee83a 	callr	r2
 2013ddc:	e0bff715 	stw	r2,-36(fp)
 2013de0:	e0bff717 	ldw	r2,-36(fp)
 2013de4:	10000a1e 	bne	r2,zero,2013e10 <alt_epcs_flash_write+0x184>
 2013de8:	e0bffc17 	ldw	r2,-16(fp)
 2013dec:	10800917 	ldw	r2,36(r2)
 2013df0:	e0fffb17 	ldw	r3,-20(fp)
 2013df4:	d8c00015 	stw	r3,0(sp)
 2013df8:	e13ffc17 	ldw	r4,-16(fp)
 2013dfc:	e17ffa17 	ldw	r5,-24(fp)
 2013e00:	e1bffd17 	ldw	r6,-12(fp)
 2013e04:	e1fffe17 	ldw	r7,-8(fp)
 2013e08:	103ee83a 	callr	r2
 2013e0c:	e0bff715 	stw	r2,-36(fp)
 2013e10:	e0ffff17 	ldw	r3,-4(fp)
 2013e14:	e0bffb17 	ldw	r2,-20(fp)
 2013e18:	18802e26 	beq	r3,r2,2013ed4 <alt_epcs_flash_write+0x248>
 2013e1c:	e0bff717 	ldw	r2,-36(fp)
 2013e20:	10002c1e 	bne	r2,zero,2013ed4 <alt_epcs_flash_write+0x248>
 2013e24:	e0ffff17 	ldw	r3,-4(fp)
 2013e28:	e0bffb17 	ldw	r2,-20(fp)
 2013e2c:	1885c83a 	sub	r2,r3,r2
 2013e30:	e0bfff15 	stw	r2,-4(fp)
 2013e34:	e0fffc17 	ldw	r3,-16(fp)
 2013e38:	e0bff817 	ldw	r2,-32(fp)
 2013e3c:	10800104 	addi	r2,r2,4
 2013e40:	1004913a 	slli	r2,r2,4
 2013e44:	1885883a 	add	r2,r3,r2
 2013e48:	10c00017 	ldw	r3,0(r2)
 2013e4c:	e0bffa17 	ldw	r2,-24(fp)
 2013e50:	1885883a 	add	r2,r3,r2
 2013e54:	e0bffd15 	stw	r2,-12(fp)
 2013e58:	e0bffb17 	ldw	r2,-20(fp)
 2013e5c:	e0fffe17 	ldw	r3,-8(fp)
 2013e60:	1885883a 	add	r2,r3,r2
 2013e64:	e0bffe15 	stw	r2,-8(fp)
 2013e68:	e0fffc17 	ldw	r3,-16(fp)
 2013e6c:	e0bff817 	ldw	r2,-32(fp)
 2013e70:	10800104 	addi	r2,r2,4
 2013e74:	1004913a 	slli	r2,r2,4
 2013e78:	1885883a 	add	r2,r3,r2
 2013e7c:	10800017 	ldw	r2,0(r2)
 2013e80:	e0fffa17 	ldw	r3,-24(fp)
 2013e84:	1885883a 	add	r2,r3,r2
 2013e88:	e0bffa15 	stw	r2,-24(fp)
 2013e8c:	e0bff917 	ldw	r2,-28(fp)
 2013e90:	10800044 	addi	r2,r2,1
 2013e94:	e0bff915 	stw	r2,-28(fp)
 2013e98:	e0fffc17 	ldw	r3,-16(fp)
 2013e9c:	e0bff817 	ldw	r2,-32(fp)
 2013ea0:	1004913a 	slli	r2,r2,4
 2013ea4:	1885883a 	add	r2,r3,r2
 2013ea8:	10800f04 	addi	r2,r2,60
 2013eac:	10800017 	ldw	r2,0(r2)
 2013eb0:	e0fff917 	ldw	r3,-28(fp)
 2013eb4:	18bfa016 	blt	r3,r2,2013d38 <__reset+0xfe00ad38>
 2013eb8:	e0bff817 	ldw	r2,-32(fp)
 2013ebc:	10800044 	addi	r2,r2,1
 2013ec0:	e0bff815 	stw	r2,-32(fp)
 2013ec4:	e0bffc17 	ldw	r2,-16(fp)
 2013ec8:	10800c17 	ldw	r2,48(r2)
 2013ecc:	e0fff817 	ldw	r3,-32(fp)
 2013ed0:	18bf7916 	blt	r3,r2,2013cb8 <__reset+0xfe00acb8>
 2013ed4:	e0bff717 	ldw	r2,-36(fp)
 2013ed8:	e037883a 	mov	sp,fp
 2013edc:	dfc00117 	ldw	ra,4(sp)
 2013ee0:	df000017 	ldw	fp,0(sp)
 2013ee4:	dec00204 	addi	sp,sp,8
 2013ee8:	f800283a 	ret

02013eec <alt_epcs_flash_get_info>:
 2013eec:	defffa04 	addi	sp,sp,-24
 2013ef0:	df000515 	stw	fp,20(sp)
 2013ef4:	df000504 	addi	fp,sp,20
 2013ef8:	e13ffd15 	stw	r4,-12(fp)
 2013efc:	e17ffe15 	stw	r5,-8(fp)
 2013f00:	e1bfff15 	stw	r6,-4(fp)
 2013f04:	e03ffb15 	stw	zero,-20(fp)
 2013f08:	e0bffd17 	ldw	r2,-12(fp)
 2013f0c:	e0bffc15 	stw	r2,-16(fp)
 2013f10:	e0bffc17 	ldw	r2,-16(fp)
 2013f14:	10c00c17 	ldw	r3,48(r2)
 2013f18:	e0bfff17 	ldw	r2,-4(fp)
 2013f1c:	10c00015 	stw	r3,0(r2)
 2013f20:	e0bffc17 	ldw	r2,-16(fp)
 2013f24:	10800c17 	ldw	r2,48(r2)
 2013f28:	1000031e 	bne	r2,zero,2013f38 <alt_epcs_flash_get_info+0x4c>
 2013f2c:	00bffec4 	movi	r2,-5
 2013f30:	e0bffb15 	stw	r2,-20(fp)
 2013f34:	00000b06 	br	2013f64 <alt_epcs_flash_get_info+0x78>
 2013f38:	e0bffc17 	ldw	r2,-16(fp)
 2013f3c:	10800c17 	ldw	r2,48(r2)
 2013f40:	10800250 	cmplti	r2,r2,9
 2013f44:	1000031e 	bne	r2,zero,2013f54 <alt_epcs_flash_get_info+0x68>
 2013f48:	00bffd04 	movi	r2,-12
 2013f4c:	e0bffb15 	stw	r2,-20(fp)
 2013f50:	00000406 	br	2013f64 <alt_epcs_flash_get_info+0x78>
 2013f54:	e0bffc17 	ldw	r2,-16(fp)
 2013f58:	10c00d04 	addi	r3,r2,52
 2013f5c:	e0bffe17 	ldw	r2,-8(fp)
 2013f60:	10c00015 	stw	r3,0(r2)
 2013f64:	e0bffb17 	ldw	r2,-20(fp)
 2013f68:	e037883a 	mov	sp,fp
 2013f6c:	df000017 	ldw	fp,0(sp)
 2013f70:	dec00104 	addi	sp,sp,4
 2013f74:	f800283a 	ret

02013f78 <alt_epcs_test_address>:
 2013f78:	defff904 	addi	sp,sp,-28
 2013f7c:	df000615 	stw	fp,24(sp)
 2013f80:	df000604 	addi	fp,sp,24
 2013f84:	e13ffe15 	stw	r4,-8(fp)
 2013f88:	e17fff15 	stw	r5,-4(fp)
 2013f8c:	e03ffa15 	stw	zero,-24(fp)
 2013f90:	e0bffe17 	ldw	r2,-8(fp)
 2013f94:	e0bffb15 	stw	r2,-20(fp)
 2013f98:	e0bffb17 	ldw	r2,-20(fp)
 2013f9c:	10800c17 	ldw	r2,48(r2)
 2013fa0:	10bfffc4 	addi	r2,r2,-1
 2013fa4:	e0bffc15 	stw	r2,-16(fp)
 2013fa8:	e0fffb17 	ldw	r3,-20(fp)
 2013fac:	e0bffc17 	ldw	r2,-16(fp)
 2013fb0:	1004913a 	slli	r2,r2,4
 2013fb4:	1885883a 	add	r2,r3,r2
 2013fb8:	10800d04 	addi	r2,r2,52
 2013fbc:	10800017 	ldw	r2,0(r2)
 2013fc0:	10ffffc4 	addi	r3,r2,-1
 2013fc4:	e13ffb17 	ldw	r4,-20(fp)
 2013fc8:	e0bffc17 	ldw	r2,-16(fp)
 2013fcc:	1004913a 	slli	r2,r2,4
 2013fd0:	2085883a 	add	r2,r4,r2
 2013fd4:	10800e04 	addi	r2,r2,56
 2013fd8:	10800017 	ldw	r2,0(r2)
 2013fdc:	1885883a 	add	r2,r3,r2
 2013fe0:	e0bffd15 	stw	r2,-12(fp)
 2013fe4:	e0bfff17 	ldw	r2,-4(fp)
 2013fe8:	e0fffd17 	ldw	r3,-12(fp)
 2013fec:	1880022e 	bgeu	r3,r2,2013ff8 <alt_epcs_test_address+0x80>
 2013ff0:	00bffec4 	movi	r2,-5
 2013ff4:	e0bffa15 	stw	r2,-24(fp)
 2013ff8:	e0bffa17 	ldw	r2,-24(fp)
 2013ffc:	e037883a 	mov	sp,fp
 2014000:	df000017 	ldw	fp,0(sp)
 2014004:	dec00104 	addi	sp,sp,4
 2014008:	f800283a 	ret

0201400c <alt_epcs_flash_erase_block>:
 201400c:	defffa04 	addi	sp,sp,-24
 2014010:	dfc00515 	stw	ra,20(sp)
 2014014:	df000415 	stw	fp,16(sp)
 2014018:	df000404 	addi	fp,sp,16
 201401c:	e13ffe15 	stw	r4,-8(fp)
 2014020:	e17fff15 	stw	r5,-4(fp)
 2014024:	e03ffc15 	stw	zero,-16(fp)
 2014028:	e0bffe17 	ldw	r2,-8(fp)
 201402c:	e0bffd15 	stw	r2,-12(fp)
 2014030:	e13ffe17 	ldw	r4,-8(fp)
 2014034:	e17fff17 	ldw	r5,-4(fp)
 2014038:	2013f780 	call	2013f78 <alt_epcs_test_address>
 201403c:	e0bffc15 	stw	r2,-16(fp)
 2014040:	e0bffc17 	ldw	r2,-16(fp)
 2014044:	10000816 	blt	r2,zero,2014068 <alt_epcs_flash_erase_block+0x5c>
 2014048:	e0bffd17 	ldw	r2,-12(fp)
 201404c:	11002d17 	ldw	r4,180(r2)
 2014050:	e0ffff17 	ldw	r3,-4(fp)
 2014054:	e0bffd17 	ldw	r2,-12(fp)
 2014058:	10803117 	ldw	r2,196(r2)
 201405c:	180b883a 	mov	r5,r3
 2014060:	100d883a 	mov	r6,r2
 2014064:	20157040 	call	2015704 <epcs_sector_erase>
 2014068:	e0bffc17 	ldw	r2,-16(fp)
 201406c:	e037883a 	mov	sp,fp
 2014070:	dfc00117 	ldw	ra,4(sp)
 2014074:	df000017 	ldw	fp,0(sp)
 2014078:	dec00204 	addi	sp,sp,8
 201407c:	f800283a 	ret

02014080 <alt_epcs_flash_write_block>:
 2014080:	defff404 	addi	sp,sp,-48
 2014084:	dfc00b15 	stw	ra,44(sp)
 2014088:	df000a15 	stw	fp,40(sp)
 201408c:	df000a04 	addi	fp,sp,40
 2014090:	e13ffc15 	stw	r4,-16(fp)
 2014094:	e17ffd15 	stw	r5,-12(fp)
 2014098:	e1bffe15 	stw	r6,-8(fp)
 201409c:	e1ffff15 	stw	r7,-4(fp)
 20140a0:	e0bffc17 	ldw	r2,-16(fp)
 20140a4:	e0bff815 	stw	r2,-32(fp)
 20140a8:	e03ff715 	stw	zero,-36(fp)
 20140ac:	e13ffc17 	ldw	r4,-16(fp)
 20140b0:	e17ffe17 	ldw	r5,-8(fp)
 20140b4:	2013f780 	call	2013f78 <alt_epcs_test_address>
 20140b8:	e0bff915 	stw	r2,-28(fp)
 20140bc:	e0bff917 	ldw	r2,-28(fp)
 20140c0:	10002a16 	blt	r2,zero,201416c <alt_epcs_flash_write_block+0xec>
 20140c4:	00002706 	br	2014164 <alt_epcs_flash_write_block+0xe4>
 20140c8:	e0bff817 	ldw	r2,-32(fp)
 20140cc:	10c03017 	ldw	r3,192(r2)
 20140d0:	e0bffe17 	ldw	r2,-8(fp)
 20140d4:	1887883a 	add	r3,r3,r2
 20140d8:	e0bff817 	ldw	r2,-32(fp)
 20140dc:	10803017 	ldw	r2,192(r2)
 20140e0:	0085c83a 	sub	r2,zero,r2
 20140e4:	1884703a 	and	r2,r3,r2
 20140e8:	e0bffa15 	stw	r2,-24(fp)
 20140ec:	e0fffa17 	ldw	r3,-24(fp)
 20140f0:	e0bffe17 	ldw	r2,-8(fp)
 20140f4:	1885c83a 	sub	r2,r3,r2
 20140f8:	e0c00217 	ldw	r3,8(fp)
 20140fc:	1880010e 	bge	r3,r2,2014104 <alt_epcs_flash_write_block+0x84>
 2014100:	1805883a 	mov	r2,r3
 2014104:	e0bffb15 	stw	r2,-20(fp)
 2014108:	e0bff817 	ldw	r2,-32(fp)
 201410c:	10c02d17 	ldw	r3,180(r2)
 2014110:	e0bff717 	ldw	r2,-36(fp)
 2014114:	e13fff17 	ldw	r4,-4(fp)
 2014118:	2085883a 	add	r2,r4,r2
 201411c:	e13ff817 	ldw	r4,-32(fp)
 2014120:	21003117 	ldw	r4,196(r4)
 2014124:	d9000015 	stw	r4,0(sp)
 2014128:	1809883a 	mov	r4,r3
 201412c:	e17ffe17 	ldw	r5,-8(fp)
 2014130:	100d883a 	mov	r6,r2
 2014134:	e1fffb17 	ldw	r7,-20(fp)
 2014138:	20159a80 	call	20159a8 <epcs_write_buffer>
 201413c:	e0c00217 	ldw	r3,8(fp)
 2014140:	e0bffb17 	ldw	r2,-20(fp)
 2014144:	1885c83a 	sub	r2,r3,r2
 2014148:	e0800215 	stw	r2,8(fp)
 201414c:	e0fff717 	ldw	r3,-36(fp)
 2014150:	e0bffb17 	ldw	r2,-20(fp)
 2014154:	1885883a 	add	r2,r3,r2
 2014158:	e0bff715 	stw	r2,-36(fp)
 201415c:	e0bffa17 	ldw	r2,-24(fp)
 2014160:	e0bffe15 	stw	r2,-8(fp)
 2014164:	e0800217 	ldw	r2,8(fp)
 2014168:	103fd71e 	bne	r2,zero,20140c8 <__reset+0xfe00b0c8>
 201416c:	e0bff917 	ldw	r2,-28(fp)
 2014170:	e037883a 	mov	sp,fp
 2014174:	dfc00117 	ldw	ra,4(sp)
 2014178:	df000017 	ldw	fp,0(sp)
 201417c:	dec00204 	addi	sp,sp,8
 2014180:	f800283a 	ret

02014184 <alt_epcs_flash_read>:
 2014184:	defff704 	addi	sp,sp,-36
 2014188:	dfc00815 	stw	ra,32(sp)
 201418c:	df000715 	stw	fp,28(sp)
 2014190:	df000704 	addi	fp,sp,28
 2014194:	e13ffc15 	stw	r4,-16(fp)
 2014198:	e17ffd15 	stw	r5,-12(fp)
 201419c:	e1bffe15 	stw	r6,-8(fp)
 20141a0:	e1ffff15 	stw	r7,-4(fp)
 20141a4:	e03ffa15 	stw	zero,-24(fp)
 20141a8:	e0bffc17 	ldw	r2,-16(fp)
 20141ac:	e0bffb15 	stw	r2,-20(fp)
 20141b0:	e13ffc17 	ldw	r4,-16(fp)
 20141b4:	e17ffd17 	ldw	r5,-12(fp)
 20141b8:	2013f780 	call	2013f78 <alt_epcs_test_address>
 20141bc:	e0bffa15 	stw	r2,-24(fp)
 20141c0:	e0bffa17 	ldw	r2,-24(fp)
 20141c4:	10000f16 	blt	r2,zero,2014204 <alt_epcs_flash_read+0x80>
 20141c8:	e0bffb17 	ldw	r2,-20(fp)
 20141cc:	10802d17 	ldw	r2,180(r2)
 20141d0:	e0fffb17 	ldw	r3,-20(fp)
 20141d4:	18c03117 	ldw	r3,196(r3)
 20141d8:	d8c00015 	stw	r3,0(sp)
 20141dc:	1009883a 	mov	r4,r2
 20141e0:	e17ffd17 	ldw	r5,-12(fp)
 20141e4:	e1bffe17 	ldw	r6,-8(fp)
 20141e8:	e1ffff17 	ldw	r7,-4(fp)
 20141ec:	20157fc0 	call	20157fc <epcs_read_buffer>
 20141f0:	e0bffa15 	stw	r2,-24(fp)
 20141f4:	e0fffa17 	ldw	r3,-24(fp)
 20141f8:	e0bfff17 	ldw	r2,-4(fp)
 20141fc:	1880011e 	bne	r3,r2,2014204 <alt_epcs_flash_read+0x80>
 2014200:	e03ffa15 	stw	zero,-24(fp)
 2014204:	e0bffa17 	ldw	r2,-24(fp)
 2014208:	e037883a 	mov	sp,fp
 201420c:	dfc00117 	ldw	ra,4(sp)
 2014210:	df000017 	ldw	fp,0(sp)
 2014214:	dec00204 	addi	sp,sp,8
 2014218:	f800283a 	ret

0201421c <altera_avalon_jtag_uart_read_fd>:
 201421c:	defffa04 	addi	sp,sp,-24
 2014220:	dfc00515 	stw	ra,20(sp)
 2014224:	df000415 	stw	fp,16(sp)
 2014228:	df000404 	addi	fp,sp,16
 201422c:	e13ffd15 	stw	r4,-12(fp)
 2014230:	e17ffe15 	stw	r5,-8(fp)
 2014234:	e1bfff15 	stw	r6,-4(fp)
 2014238:	e0bffd17 	ldw	r2,-12(fp)
 201423c:	10800017 	ldw	r2,0(r2)
 2014240:	e0bffc15 	stw	r2,-16(fp)
 2014244:	e0bffc17 	ldw	r2,-16(fp)
 2014248:	10c00a04 	addi	r3,r2,40
 201424c:	e0bffd17 	ldw	r2,-12(fp)
 2014250:	10800217 	ldw	r2,8(r2)
 2014254:	1809883a 	mov	r4,r3
 2014258:	e17ffe17 	ldw	r5,-8(fp)
 201425c:	e1bfff17 	ldw	r6,-4(fp)
 2014260:	100f883a 	mov	r7,r2
 2014264:	20148340 	call	2014834 <altera_avalon_jtag_uart_read>
 2014268:	e037883a 	mov	sp,fp
 201426c:	dfc00117 	ldw	ra,4(sp)
 2014270:	df000017 	ldw	fp,0(sp)
 2014274:	dec00204 	addi	sp,sp,8
 2014278:	f800283a 	ret

0201427c <altera_avalon_jtag_uart_write_fd>:
 201427c:	defffa04 	addi	sp,sp,-24
 2014280:	dfc00515 	stw	ra,20(sp)
 2014284:	df000415 	stw	fp,16(sp)
 2014288:	df000404 	addi	fp,sp,16
 201428c:	e13ffd15 	stw	r4,-12(fp)
 2014290:	e17ffe15 	stw	r5,-8(fp)
 2014294:	e1bfff15 	stw	r6,-4(fp)
 2014298:	e0bffd17 	ldw	r2,-12(fp)
 201429c:	10800017 	ldw	r2,0(r2)
 20142a0:	e0bffc15 	stw	r2,-16(fp)
 20142a4:	e0bffc17 	ldw	r2,-16(fp)
 20142a8:	10c00a04 	addi	r3,r2,40
 20142ac:	e0bffd17 	ldw	r2,-12(fp)
 20142b0:	10800217 	ldw	r2,8(r2)
 20142b4:	1809883a 	mov	r4,r3
 20142b8:	e17ffe17 	ldw	r5,-8(fp)
 20142bc:	e1bfff17 	ldw	r6,-4(fp)
 20142c0:	100f883a 	mov	r7,r2
 20142c4:	2014a3c0 	call	2014a3c <altera_avalon_jtag_uart_write>
 20142c8:	e037883a 	mov	sp,fp
 20142cc:	dfc00117 	ldw	ra,4(sp)
 20142d0:	df000017 	ldw	fp,0(sp)
 20142d4:	dec00204 	addi	sp,sp,8
 20142d8:	f800283a 	ret

020142dc <altera_avalon_jtag_uart_close_fd>:
 20142dc:	defffc04 	addi	sp,sp,-16
 20142e0:	dfc00315 	stw	ra,12(sp)
 20142e4:	df000215 	stw	fp,8(sp)
 20142e8:	df000204 	addi	fp,sp,8
 20142ec:	e13fff15 	stw	r4,-4(fp)
 20142f0:	e0bfff17 	ldw	r2,-4(fp)
 20142f4:	10800017 	ldw	r2,0(r2)
 20142f8:	e0bffe15 	stw	r2,-8(fp)
 20142fc:	e0bffe17 	ldw	r2,-8(fp)
 2014300:	10c00a04 	addi	r3,r2,40
 2014304:	e0bfff17 	ldw	r2,-4(fp)
 2014308:	10800217 	ldw	r2,8(r2)
 201430c:	1809883a 	mov	r4,r3
 2014310:	100b883a 	mov	r5,r2
 2014314:	20146e00 	call	20146e0 <altera_avalon_jtag_uart_close>
 2014318:	e037883a 	mov	sp,fp
 201431c:	dfc00117 	ldw	ra,4(sp)
 2014320:	df000017 	ldw	fp,0(sp)
 2014324:	dec00204 	addi	sp,sp,8
 2014328:	f800283a 	ret

0201432c <altera_avalon_jtag_uart_ioctl_fd>:
 201432c:	defffa04 	addi	sp,sp,-24
 2014330:	dfc00515 	stw	ra,20(sp)
 2014334:	df000415 	stw	fp,16(sp)
 2014338:	df000404 	addi	fp,sp,16
 201433c:	e13ffd15 	stw	r4,-12(fp)
 2014340:	e17ffe15 	stw	r5,-8(fp)
 2014344:	e1bfff15 	stw	r6,-4(fp)
 2014348:	e0bffd17 	ldw	r2,-12(fp)
 201434c:	10800017 	ldw	r2,0(r2)
 2014350:	e0bffc15 	stw	r2,-16(fp)
 2014354:	e0bffc17 	ldw	r2,-16(fp)
 2014358:	10800a04 	addi	r2,r2,40
 201435c:	1009883a 	mov	r4,r2
 2014360:	e17ffe17 	ldw	r5,-8(fp)
 2014364:	e1bfff17 	ldw	r6,-4(fp)
 2014368:	20147480 	call	2014748 <altera_avalon_jtag_uart_ioctl>
 201436c:	e037883a 	mov	sp,fp
 2014370:	dfc00117 	ldw	ra,4(sp)
 2014374:	df000017 	ldw	fp,0(sp)
 2014378:	dec00204 	addi	sp,sp,8
 201437c:	f800283a 	ret

02014380 <altera_avalon_jtag_uart_init>:
 2014380:	defffa04 	addi	sp,sp,-24
 2014384:	dfc00515 	stw	ra,20(sp)
 2014388:	df000415 	stw	fp,16(sp)
 201438c:	df000404 	addi	fp,sp,16
 2014390:	e13ffd15 	stw	r4,-12(fp)
 2014394:	e17ffe15 	stw	r5,-8(fp)
 2014398:	e1bfff15 	stw	r6,-4(fp)
 201439c:	e0bffd17 	ldw	r2,-12(fp)
 20143a0:	00c00044 	movi	r3,1
 20143a4:	10c00815 	stw	r3,32(r2)
 20143a8:	e0bffd17 	ldw	r2,-12(fp)
 20143ac:	10800017 	ldw	r2,0(r2)
 20143b0:	10800104 	addi	r2,r2,4
 20143b4:	e0fffd17 	ldw	r3,-12(fp)
 20143b8:	18c00817 	ldw	r3,32(r3)
 20143bc:	10c00035 	stwio	r3,0(r2)
 20143c0:	e0fffe17 	ldw	r3,-8(fp)
 20143c4:	e0bfff17 	ldw	r2,-4(fp)
 20143c8:	d8000015 	stw	zero,0(sp)
 20143cc:	1809883a 	mov	r4,r3
 20143d0:	100b883a 	mov	r5,r2
 20143d4:	01808074 	movhi	r6,513
 20143d8:	31911004 	addi	r6,r6,17472
 20143dc:	e1fffd17 	ldw	r7,-12(fp)
 20143e0:	201613c0 	call	201613c <alt_ic_isr_register>
 20143e4:	e0bffd17 	ldw	r2,-12(fp)
 20143e8:	10000915 	stw	zero,36(r2)
 20143ec:	e0bffd17 	ldw	r2,-12(fp)
 20143f0:	10c00204 	addi	r3,r2,8
 20143f4:	008080b4 	movhi	r2,514
 20143f8:	10838004 	addi	r2,r2,3584
 20143fc:	10800017 	ldw	r2,0(r2)
 2014400:	1809883a 	mov	r4,r3
 2014404:	100b883a 	mov	r5,r2
 2014408:	01808074 	movhi	r6,513
 201440c:	31918f04 	addi	r6,r6,17980
 2014410:	e1fffd17 	ldw	r7,-12(fp)
 2014414:	20127c80 	call	20127c8 <alt_alarm_start>
 2014418:	1000040e 	bge	r2,zero,201442c <altera_avalon_jtag_uart_init+0xac>
 201441c:	e0bffd17 	ldw	r2,-12(fp)
 2014420:	00e00034 	movhi	r3,32768
 2014424:	18ffffc4 	addi	r3,r3,-1
 2014428:	10c00115 	stw	r3,4(r2)
 201442c:	e037883a 	mov	sp,fp
 2014430:	dfc00117 	ldw	ra,4(sp)
 2014434:	df000017 	ldw	fp,0(sp)
 2014438:	dec00204 	addi	sp,sp,8
 201443c:	f800283a 	ret

02014440 <altera_avalon_jtag_uart_irq>:
 2014440:	defff804 	addi	sp,sp,-32
 2014444:	df000715 	stw	fp,28(sp)
 2014448:	df000704 	addi	fp,sp,28
 201444c:	e13fff15 	stw	r4,-4(fp)
 2014450:	e0bfff17 	ldw	r2,-4(fp)
 2014454:	e0bffb15 	stw	r2,-20(fp)
 2014458:	e0bffb17 	ldw	r2,-20(fp)
 201445c:	10800017 	ldw	r2,0(r2)
 2014460:	e0bffc15 	stw	r2,-16(fp)
 2014464:	e0bffc17 	ldw	r2,-16(fp)
 2014468:	10800104 	addi	r2,r2,4
 201446c:	10800037 	ldwio	r2,0(r2)
 2014470:	e0bffd15 	stw	r2,-12(fp)
 2014474:	e0bffd17 	ldw	r2,-12(fp)
 2014478:	1080c00c 	andi	r2,r2,768
 201447c:	1000011e 	bne	r2,zero,2014484 <altera_avalon_jtag_uart_irq+0x44>
 2014480:	00006a06 	br	201462c <altera_avalon_jtag_uart_irq+0x1ec>
 2014484:	e0bffd17 	ldw	r2,-12(fp)
 2014488:	1080400c 	andi	r2,r2,256
 201448c:	10003226 	beq	r2,zero,2014558 <altera_avalon_jtag_uart_irq+0x118>
 2014490:	00800074 	movhi	r2,1
 2014494:	e0bff915 	stw	r2,-28(fp)
 2014498:	e0bffb17 	ldw	r2,-20(fp)
 201449c:	10800a17 	ldw	r2,40(r2)
 20144a0:	10800044 	addi	r2,r2,1
 20144a4:	1081ffcc 	andi	r2,r2,2047
 20144a8:	e0bffe15 	stw	r2,-8(fp)
 20144ac:	e0bffb17 	ldw	r2,-20(fp)
 20144b0:	10c00b17 	ldw	r3,44(r2)
 20144b4:	e0bffe17 	ldw	r2,-8(fp)
 20144b8:	1880011e 	bne	r3,r2,20144c0 <altera_avalon_jtag_uart_irq+0x80>
 20144bc:	00001506 	br	2014514 <altera_avalon_jtag_uart_irq+0xd4>
 20144c0:	e0bffc17 	ldw	r2,-16(fp)
 20144c4:	10800037 	ldwio	r2,0(r2)
 20144c8:	e0bff915 	stw	r2,-28(fp)
 20144cc:	e0bff917 	ldw	r2,-28(fp)
 20144d0:	10a0000c 	andi	r2,r2,32768
 20144d4:	1000011e 	bne	r2,zero,20144dc <altera_avalon_jtag_uart_irq+0x9c>
 20144d8:	00000e06 	br	2014514 <altera_avalon_jtag_uart_irq+0xd4>
 20144dc:	e0bffb17 	ldw	r2,-20(fp)
 20144e0:	10800a17 	ldw	r2,40(r2)
 20144e4:	e0fff917 	ldw	r3,-28(fp)
 20144e8:	e13ffb17 	ldw	r4,-20(fp)
 20144ec:	2085883a 	add	r2,r4,r2
 20144f0:	10800e04 	addi	r2,r2,56
 20144f4:	10c00005 	stb	r3,0(r2)
 20144f8:	e0bffb17 	ldw	r2,-20(fp)
 20144fc:	10800a17 	ldw	r2,40(r2)
 2014500:	10800044 	addi	r2,r2,1
 2014504:	10c1ffcc 	andi	r3,r2,2047
 2014508:	e0bffb17 	ldw	r2,-20(fp)
 201450c:	10c00a15 	stw	r3,40(r2)
 2014510:	003fe106 	br	2014498 <__reset+0xfe00b498>
 2014514:	e0bff917 	ldw	r2,-28(fp)
 2014518:	10bfffec 	andhi	r2,r2,65535
 201451c:	10000e26 	beq	r2,zero,2014558 <altera_avalon_jtag_uart_irq+0x118>
 2014520:	e0bffb17 	ldw	r2,-20(fp)
 2014524:	10c00817 	ldw	r3,32(r2)
 2014528:	00bfff84 	movi	r2,-2
 201452c:	1886703a 	and	r3,r3,r2
 2014530:	e0bffb17 	ldw	r2,-20(fp)
 2014534:	10c00815 	stw	r3,32(r2)
 2014538:	e0bffc17 	ldw	r2,-16(fp)
 201453c:	10800104 	addi	r2,r2,4
 2014540:	e0fffb17 	ldw	r3,-20(fp)
 2014544:	18c00817 	ldw	r3,32(r3)
 2014548:	10c00035 	stwio	r3,0(r2)
 201454c:	e0bffc17 	ldw	r2,-16(fp)
 2014550:	10800104 	addi	r2,r2,4
 2014554:	10800037 	ldwio	r2,0(r2)
 2014558:	e0bffd17 	ldw	r2,-12(fp)
 201455c:	1080800c 	andi	r2,r2,512
 2014560:	10003126 	beq	r2,zero,2014628 <altera_avalon_jtag_uart_irq+0x1e8>
 2014564:	e0bffd17 	ldw	r2,-12(fp)
 2014568:	1004d43a 	srli	r2,r2,16
 201456c:	e0bffa15 	stw	r2,-24(fp)
 2014570:	00001406 	br	20145c4 <altera_avalon_jtag_uart_irq+0x184>
 2014574:	e0bffc17 	ldw	r2,-16(fp)
 2014578:	e0fffb17 	ldw	r3,-20(fp)
 201457c:	18c00d17 	ldw	r3,52(r3)
 2014580:	e13ffb17 	ldw	r4,-20(fp)
 2014584:	20c7883a 	add	r3,r4,r3
 2014588:	18c20e04 	addi	r3,r3,2104
 201458c:	18c00003 	ldbu	r3,0(r3)
 2014590:	18c03fcc 	andi	r3,r3,255
 2014594:	18c0201c 	xori	r3,r3,128
 2014598:	18ffe004 	addi	r3,r3,-128
 201459c:	10c00035 	stwio	r3,0(r2)
 20145a0:	e0bffb17 	ldw	r2,-20(fp)
 20145a4:	10800d17 	ldw	r2,52(r2)
 20145a8:	10800044 	addi	r2,r2,1
 20145ac:	10c1ffcc 	andi	r3,r2,2047
 20145b0:	e0bffb17 	ldw	r2,-20(fp)
 20145b4:	10c00d15 	stw	r3,52(r2)
 20145b8:	e0bffa17 	ldw	r2,-24(fp)
 20145bc:	10bfffc4 	addi	r2,r2,-1
 20145c0:	e0bffa15 	stw	r2,-24(fp)
 20145c4:	e0bffa17 	ldw	r2,-24(fp)
 20145c8:	10000526 	beq	r2,zero,20145e0 <altera_avalon_jtag_uart_irq+0x1a0>
 20145cc:	e0bffb17 	ldw	r2,-20(fp)
 20145d0:	10c00d17 	ldw	r3,52(r2)
 20145d4:	e0bffb17 	ldw	r2,-20(fp)
 20145d8:	10800c17 	ldw	r2,48(r2)
 20145dc:	18bfe51e 	bne	r3,r2,2014574 <__reset+0xfe00b574>
 20145e0:	e0bffa17 	ldw	r2,-24(fp)
 20145e4:	10001026 	beq	r2,zero,2014628 <altera_avalon_jtag_uart_irq+0x1e8>
 20145e8:	e0bffb17 	ldw	r2,-20(fp)
 20145ec:	10c00817 	ldw	r3,32(r2)
 20145f0:	00bfff44 	movi	r2,-3
 20145f4:	1886703a 	and	r3,r3,r2
 20145f8:	e0bffb17 	ldw	r2,-20(fp)
 20145fc:	10c00815 	stw	r3,32(r2)
 2014600:	e0bffb17 	ldw	r2,-20(fp)
 2014604:	10800017 	ldw	r2,0(r2)
 2014608:	10800104 	addi	r2,r2,4
 201460c:	e0fffb17 	ldw	r3,-20(fp)
 2014610:	18c00817 	ldw	r3,32(r3)
 2014614:	10c00035 	stwio	r3,0(r2)
 2014618:	e0bffc17 	ldw	r2,-16(fp)
 201461c:	10800104 	addi	r2,r2,4
 2014620:	10800037 	ldwio	r2,0(r2)
 2014624:	003f8f06 	br	2014464 <__reset+0xfe00b464>
 2014628:	003f8e06 	br	2014464 <__reset+0xfe00b464>
 201462c:	e037883a 	mov	sp,fp
 2014630:	df000017 	ldw	fp,0(sp)
 2014634:	dec00104 	addi	sp,sp,4
 2014638:	f800283a 	ret

0201463c <altera_avalon_jtag_uart_timeout>:
 201463c:	defff804 	addi	sp,sp,-32
 2014640:	df000715 	stw	fp,28(sp)
 2014644:	df000704 	addi	fp,sp,28
 2014648:	e13ffb15 	stw	r4,-20(fp)
 201464c:	e0bffb17 	ldw	r2,-20(fp)
 2014650:	e0bff915 	stw	r2,-28(fp)
 2014654:	e0bff917 	ldw	r2,-28(fp)
 2014658:	10800017 	ldw	r2,0(r2)
 201465c:	10800104 	addi	r2,r2,4
 2014660:	10800037 	ldwio	r2,0(r2)
 2014664:	e0bffa15 	stw	r2,-24(fp)
 2014668:	e0bffa17 	ldw	r2,-24(fp)
 201466c:	1081000c 	andi	r2,r2,1024
 2014670:	10000a26 	beq	r2,zero,201469c <altera_avalon_jtag_uart_timeout+0x60>
 2014674:	e0bff917 	ldw	r2,-28(fp)
 2014678:	10800017 	ldw	r2,0(r2)
 201467c:	10800104 	addi	r2,r2,4
 2014680:	e0fff917 	ldw	r3,-28(fp)
 2014684:	18c00817 	ldw	r3,32(r3)
 2014688:	18c10014 	ori	r3,r3,1024
 201468c:	10c00035 	stwio	r3,0(r2)
 2014690:	e0bff917 	ldw	r2,-28(fp)
 2014694:	10000915 	stw	zero,36(r2)
 2014698:	00000a06 	br	20146c4 <altera_avalon_jtag_uart_timeout+0x88>
 201469c:	e0bff917 	ldw	r2,-28(fp)
 20146a0:	10800917 	ldw	r2,36(r2)
 20146a4:	00e00034 	movhi	r3,32768
 20146a8:	18ffff04 	addi	r3,r3,-4
 20146ac:	18800536 	bltu	r3,r2,20146c4 <altera_avalon_jtag_uart_timeout+0x88>
 20146b0:	e0bff917 	ldw	r2,-28(fp)
 20146b4:	10800917 	ldw	r2,36(r2)
 20146b8:	10c00044 	addi	r3,r2,1
 20146bc:	e0bff917 	ldw	r2,-28(fp)
 20146c0:	10c00915 	stw	r3,36(r2)
 20146c4:	008080b4 	movhi	r2,514
 20146c8:	10838004 	addi	r2,r2,3584
 20146cc:	10800017 	ldw	r2,0(r2)
 20146d0:	e037883a 	mov	sp,fp
 20146d4:	df000017 	ldw	fp,0(sp)
 20146d8:	dec00104 	addi	sp,sp,4
 20146dc:	f800283a 	ret

020146e0 <altera_avalon_jtag_uart_close>:
 20146e0:	defffd04 	addi	sp,sp,-12
 20146e4:	df000215 	stw	fp,8(sp)
 20146e8:	df000204 	addi	fp,sp,8
 20146ec:	e13ffe15 	stw	r4,-8(fp)
 20146f0:	e17fff15 	stw	r5,-4(fp)
 20146f4:	00000506 	br	201470c <altera_avalon_jtag_uart_close+0x2c>
 20146f8:	e0bfff17 	ldw	r2,-4(fp)
 20146fc:	1090000c 	andi	r2,r2,16384
 2014700:	10000226 	beq	r2,zero,201470c <altera_avalon_jtag_uart_close+0x2c>
 2014704:	00bffd44 	movi	r2,-11
 2014708:	00000b06 	br	2014738 <altera_avalon_jtag_uart_close+0x58>
 201470c:	e0bffe17 	ldw	r2,-8(fp)
 2014710:	10c00d17 	ldw	r3,52(r2)
 2014714:	e0bffe17 	ldw	r2,-8(fp)
 2014718:	10800c17 	ldw	r2,48(r2)
 201471c:	18800526 	beq	r3,r2,2014734 <altera_avalon_jtag_uart_close+0x54>
 2014720:	e0bffe17 	ldw	r2,-8(fp)
 2014724:	10c00917 	ldw	r3,36(r2)
 2014728:	e0bffe17 	ldw	r2,-8(fp)
 201472c:	10800117 	ldw	r2,4(r2)
 2014730:	18bff136 	bltu	r3,r2,20146f8 <__reset+0xfe00b6f8>
 2014734:	0005883a 	mov	r2,zero
 2014738:	e037883a 	mov	sp,fp
 201473c:	df000017 	ldw	fp,0(sp)
 2014740:	dec00104 	addi	sp,sp,4
 2014744:	f800283a 	ret

02014748 <altera_avalon_jtag_uart_ioctl>:
 2014748:	defffa04 	addi	sp,sp,-24
 201474c:	df000515 	stw	fp,20(sp)
 2014750:	df000504 	addi	fp,sp,20
 2014754:	e13ffd15 	stw	r4,-12(fp)
 2014758:	e17ffe15 	stw	r5,-8(fp)
 201475c:	e1bfff15 	stw	r6,-4(fp)
 2014760:	00bff9c4 	movi	r2,-25
 2014764:	e0bffb15 	stw	r2,-20(fp)
 2014768:	e0bffe17 	ldw	r2,-8(fp)
 201476c:	10da8060 	cmpeqi	r3,r2,27137
 2014770:	1800031e 	bne	r3,zero,2014780 <altera_avalon_jtag_uart_ioctl+0x38>
 2014774:	109a80a0 	cmpeqi	r2,r2,27138
 2014778:	1000191e 	bne	r2,zero,20147e0 <altera_avalon_jtag_uart_ioctl+0x98>
 201477c:	00002806 	br	2014820 <altera_avalon_jtag_uart_ioctl+0xd8>
 2014780:	e0bffd17 	ldw	r2,-12(fp)
 2014784:	10c00117 	ldw	r3,4(r2)
 2014788:	00a00034 	movhi	r2,32768
 201478c:	10bfffc4 	addi	r2,r2,-1
 2014790:	18801226 	beq	r3,r2,20147dc <altera_avalon_jtag_uart_ioctl+0x94>
 2014794:	e0bfff17 	ldw	r2,-4(fp)
 2014798:	10800017 	ldw	r2,0(r2)
 201479c:	e0bffc15 	stw	r2,-16(fp)
 20147a0:	e0bffc17 	ldw	r2,-16(fp)
 20147a4:	10800090 	cmplti	r2,r2,2
 20147a8:	1000061e 	bne	r2,zero,20147c4 <altera_avalon_jtag_uart_ioctl+0x7c>
 20147ac:	e0fffc17 	ldw	r3,-16(fp)
 20147b0:	00a00034 	movhi	r2,32768
 20147b4:	10bfffc4 	addi	r2,r2,-1
 20147b8:	18800226 	beq	r3,r2,20147c4 <altera_avalon_jtag_uart_ioctl+0x7c>
 20147bc:	e0bffc17 	ldw	r2,-16(fp)
 20147c0:	00000206 	br	20147cc <altera_avalon_jtag_uart_ioctl+0x84>
 20147c4:	00a00034 	movhi	r2,32768
 20147c8:	10bfff84 	addi	r2,r2,-2
 20147cc:	e0fffd17 	ldw	r3,-12(fp)
 20147d0:	18800115 	stw	r2,4(r3)
 20147d4:	e03ffb15 	stw	zero,-20(fp)
 20147d8:	00001106 	br	2014820 <altera_avalon_jtag_uart_ioctl+0xd8>
 20147dc:	00001006 	br	2014820 <altera_avalon_jtag_uart_ioctl+0xd8>
 20147e0:	e0bffd17 	ldw	r2,-12(fp)
 20147e4:	10c00117 	ldw	r3,4(r2)
 20147e8:	00a00034 	movhi	r2,32768
 20147ec:	10bfffc4 	addi	r2,r2,-1
 20147f0:	18800a26 	beq	r3,r2,201481c <altera_avalon_jtag_uart_ioctl+0xd4>
 20147f4:	e0bffd17 	ldw	r2,-12(fp)
 20147f8:	10c00917 	ldw	r3,36(r2)
 20147fc:	e0bffd17 	ldw	r2,-12(fp)
 2014800:	10800117 	ldw	r2,4(r2)
 2014804:	1885803a 	cmpltu	r2,r3,r2
 2014808:	10c03fcc 	andi	r3,r2,255
 201480c:	e0bfff17 	ldw	r2,-4(fp)
 2014810:	10c00015 	stw	r3,0(r2)
 2014814:	e03ffb15 	stw	zero,-20(fp)
 2014818:	00000006 	br	201481c <altera_avalon_jtag_uart_ioctl+0xd4>
 201481c:	0001883a 	nop
 2014820:	e0bffb17 	ldw	r2,-20(fp)
 2014824:	e037883a 	mov	sp,fp
 2014828:	df000017 	ldw	fp,0(sp)
 201482c:	dec00104 	addi	sp,sp,4
 2014830:	f800283a 	ret

02014834 <altera_avalon_jtag_uart_read>:
 2014834:	defff304 	addi	sp,sp,-52
 2014838:	dfc00c15 	stw	ra,48(sp)
 201483c:	df000b15 	stw	fp,44(sp)
 2014840:	df000b04 	addi	fp,sp,44
 2014844:	e13ffc15 	stw	r4,-16(fp)
 2014848:	e17ffd15 	stw	r5,-12(fp)
 201484c:	e1bffe15 	stw	r6,-8(fp)
 2014850:	e1ffff15 	stw	r7,-4(fp)
 2014854:	e0bffd17 	ldw	r2,-12(fp)
 2014858:	e0bff515 	stw	r2,-44(fp)
 201485c:	00004906 	br	2014984 <altera_avalon_jtag_uart_read+0x150>
 2014860:	e0bffc17 	ldw	r2,-16(fp)
 2014864:	10800a17 	ldw	r2,40(r2)
 2014868:	e0bff715 	stw	r2,-36(fp)
 201486c:	e0bffc17 	ldw	r2,-16(fp)
 2014870:	10800b17 	ldw	r2,44(r2)
 2014874:	e0bff815 	stw	r2,-32(fp)
 2014878:	e0fff717 	ldw	r3,-36(fp)
 201487c:	e0bff817 	ldw	r2,-32(fp)
 2014880:	18800536 	bltu	r3,r2,2014898 <altera_avalon_jtag_uart_read+0x64>
 2014884:	e0fff717 	ldw	r3,-36(fp)
 2014888:	e0bff817 	ldw	r2,-32(fp)
 201488c:	1885c83a 	sub	r2,r3,r2
 2014890:	e0bff615 	stw	r2,-40(fp)
 2014894:	00000406 	br	20148a8 <altera_avalon_jtag_uart_read+0x74>
 2014898:	00c20004 	movi	r3,2048
 201489c:	e0bff817 	ldw	r2,-32(fp)
 20148a0:	1885c83a 	sub	r2,r3,r2
 20148a4:	e0bff615 	stw	r2,-40(fp)
 20148a8:	e0bff617 	ldw	r2,-40(fp)
 20148ac:	1000011e 	bne	r2,zero,20148b4 <altera_avalon_jtag_uart_read+0x80>
 20148b0:	00001d06 	br	2014928 <altera_avalon_jtag_uart_read+0xf4>
 20148b4:	e0fffe17 	ldw	r3,-8(fp)
 20148b8:	e0bff617 	ldw	r2,-40(fp)
 20148bc:	1880022e 	bgeu	r3,r2,20148c8 <altera_avalon_jtag_uart_read+0x94>
 20148c0:	e0bffe17 	ldw	r2,-8(fp)
 20148c4:	e0bff615 	stw	r2,-40(fp)
 20148c8:	e0bff817 	ldw	r2,-32(fp)
 20148cc:	10800e04 	addi	r2,r2,56
 20148d0:	e0fffc17 	ldw	r3,-16(fp)
 20148d4:	1885883a 	add	r2,r3,r2
 20148d8:	e13ff517 	ldw	r4,-44(fp)
 20148dc:	100b883a 	mov	r5,r2
 20148e0:	e1bff617 	ldw	r6,-40(fp)
 20148e4:	20087040 	call	2008704 <memcpy>
 20148e8:	e0fff517 	ldw	r3,-44(fp)
 20148ec:	e0bff617 	ldw	r2,-40(fp)
 20148f0:	1885883a 	add	r2,r3,r2
 20148f4:	e0bff515 	stw	r2,-44(fp)
 20148f8:	e0fffe17 	ldw	r3,-8(fp)
 20148fc:	e0bff617 	ldw	r2,-40(fp)
 2014900:	1885c83a 	sub	r2,r3,r2
 2014904:	e0bffe15 	stw	r2,-8(fp)
 2014908:	e0fff817 	ldw	r3,-32(fp)
 201490c:	e0bff617 	ldw	r2,-40(fp)
 2014910:	1885883a 	add	r2,r3,r2
 2014914:	10c1ffcc 	andi	r3,r2,2047
 2014918:	e0bffc17 	ldw	r2,-16(fp)
 201491c:	10c00b15 	stw	r3,44(r2)
 2014920:	e0bffe17 	ldw	r2,-8(fp)
 2014924:	00bfce16 	blt	zero,r2,2014860 <__reset+0xfe00b860>
 2014928:	e0fff517 	ldw	r3,-44(fp)
 201492c:	e0bffd17 	ldw	r2,-12(fp)
 2014930:	18800126 	beq	r3,r2,2014938 <altera_avalon_jtag_uart_read+0x104>
 2014934:	00001506 	br	201498c <altera_avalon_jtag_uart_read+0x158>
 2014938:	e0bfff17 	ldw	r2,-4(fp)
 201493c:	1090000c 	andi	r2,r2,16384
 2014940:	10000126 	beq	r2,zero,2014948 <altera_avalon_jtag_uart_read+0x114>
 2014944:	00001106 	br	201498c <altera_avalon_jtag_uart_read+0x158>
 2014948:	0001883a 	nop
 201494c:	e0bffc17 	ldw	r2,-16(fp)
 2014950:	10c00a17 	ldw	r3,40(r2)
 2014954:	e0bff717 	ldw	r2,-36(fp)
 2014958:	1880051e 	bne	r3,r2,2014970 <altera_avalon_jtag_uart_read+0x13c>
 201495c:	e0bffc17 	ldw	r2,-16(fp)
 2014960:	10c00917 	ldw	r3,36(r2)
 2014964:	e0bffc17 	ldw	r2,-16(fp)
 2014968:	10800117 	ldw	r2,4(r2)
 201496c:	18bff736 	bltu	r3,r2,201494c <__reset+0xfe00b94c>
 2014970:	e0bffc17 	ldw	r2,-16(fp)
 2014974:	10c00a17 	ldw	r3,40(r2)
 2014978:	e0bff717 	ldw	r2,-36(fp)
 201497c:	1880011e 	bne	r3,r2,2014984 <altera_avalon_jtag_uart_read+0x150>
 2014980:	00000206 	br	201498c <altera_avalon_jtag_uart_read+0x158>
 2014984:	e0bffe17 	ldw	r2,-8(fp)
 2014988:	00bfb516 	blt	zero,r2,2014860 <__reset+0xfe00b860>
 201498c:	e0fff517 	ldw	r3,-44(fp)
 2014990:	e0bffd17 	ldw	r2,-12(fp)
 2014994:	18801726 	beq	r3,r2,20149f4 <altera_avalon_jtag_uart_read+0x1c0>
 2014998:	0005303a 	rdctl	r2,status
 201499c:	e0bffa15 	stw	r2,-24(fp)
 20149a0:	e0fffa17 	ldw	r3,-24(fp)
 20149a4:	00bfff84 	movi	r2,-2
 20149a8:	1884703a 	and	r2,r3,r2
 20149ac:	1001703a 	wrctl	status,r2
 20149b0:	e0bffa17 	ldw	r2,-24(fp)
 20149b4:	e0bff915 	stw	r2,-28(fp)
 20149b8:	e0bffc17 	ldw	r2,-16(fp)
 20149bc:	10800817 	ldw	r2,32(r2)
 20149c0:	10c00054 	ori	r3,r2,1
 20149c4:	e0bffc17 	ldw	r2,-16(fp)
 20149c8:	10c00815 	stw	r3,32(r2)
 20149cc:	e0bffc17 	ldw	r2,-16(fp)
 20149d0:	10800017 	ldw	r2,0(r2)
 20149d4:	10800104 	addi	r2,r2,4
 20149d8:	e0fffc17 	ldw	r3,-16(fp)
 20149dc:	18c00817 	ldw	r3,32(r3)
 20149e0:	10c00035 	stwio	r3,0(r2)
 20149e4:	e0bff917 	ldw	r2,-28(fp)
 20149e8:	e0bffb15 	stw	r2,-20(fp)
 20149ec:	e0bffb17 	ldw	r2,-20(fp)
 20149f0:	1001703a 	wrctl	status,r2
 20149f4:	e0fff517 	ldw	r3,-44(fp)
 20149f8:	e0bffd17 	ldw	r2,-12(fp)
 20149fc:	18800426 	beq	r3,r2,2014a10 <altera_avalon_jtag_uart_read+0x1dc>
 2014a00:	e0fff517 	ldw	r3,-44(fp)
 2014a04:	e0bffd17 	ldw	r2,-12(fp)
 2014a08:	1885c83a 	sub	r2,r3,r2
 2014a0c:	00000606 	br	2014a28 <altera_avalon_jtag_uart_read+0x1f4>
 2014a10:	e0bfff17 	ldw	r2,-4(fp)
 2014a14:	1090000c 	andi	r2,r2,16384
 2014a18:	10000226 	beq	r2,zero,2014a24 <altera_avalon_jtag_uart_read+0x1f0>
 2014a1c:	00bffd44 	movi	r2,-11
 2014a20:	00000106 	br	2014a28 <altera_avalon_jtag_uart_read+0x1f4>
 2014a24:	00bffec4 	movi	r2,-5
 2014a28:	e037883a 	mov	sp,fp
 2014a2c:	dfc00117 	ldw	ra,4(sp)
 2014a30:	df000017 	ldw	fp,0(sp)
 2014a34:	dec00204 	addi	sp,sp,8
 2014a38:	f800283a 	ret

02014a3c <altera_avalon_jtag_uart_write>:
 2014a3c:	defff304 	addi	sp,sp,-52
 2014a40:	dfc00c15 	stw	ra,48(sp)
 2014a44:	df000b15 	stw	fp,44(sp)
 2014a48:	df000b04 	addi	fp,sp,44
 2014a4c:	e13ffc15 	stw	r4,-16(fp)
 2014a50:	e17ffd15 	stw	r5,-12(fp)
 2014a54:	e1bffe15 	stw	r6,-8(fp)
 2014a58:	e1ffff15 	stw	r7,-4(fp)
 2014a5c:	e03ff515 	stw	zero,-44(fp)
 2014a60:	e0bffd17 	ldw	r2,-12(fp)
 2014a64:	e0bff715 	stw	r2,-36(fp)
 2014a68:	00003906 	br	2014b50 <altera_avalon_jtag_uart_write+0x114>
 2014a6c:	00003806 	br	2014b50 <altera_avalon_jtag_uart_write+0x114>
 2014a70:	e0bffc17 	ldw	r2,-16(fp)
 2014a74:	10800c17 	ldw	r2,48(r2)
 2014a78:	e0bff815 	stw	r2,-32(fp)
 2014a7c:	e0bffc17 	ldw	r2,-16(fp)
 2014a80:	10800d17 	ldw	r2,52(r2)
 2014a84:	e0bff515 	stw	r2,-44(fp)
 2014a88:	e0fff817 	ldw	r3,-32(fp)
 2014a8c:	e0bff517 	ldw	r2,-44(fp)
 2014a90:	1880062e 	bgeu	r3,r2,2014aac <altera_avalon_jtag_uart_write+0x70>
 2014a94:	e0fff517 	ldw	r3,-44(fp)
 2014a98:	e0bff817 	ldw	r2,-32(fp)
 2014a9c:	1885c83a 	sub	r2,r3,r2
 2014aa0:	10bfffc4 	addi	r2,r2,-1
 2014aa4:	e0bff615 	stw	r2,-40(fp)
 2014aa8:	00000b06 	br	2014ad8 <altera_avalon_jtag_uart_write+0x9c>
 2014aac:	e0bff517 	ldw	r2,-44(fp)
 2014ab0:	10000526 	beq	r2,zero,2014ac8 <altera_avalon_jtag_uart_write+0x8c>
 2014ab4:	00c20004 	movi	r3,2048
 2014ab8:	e0bff817 	ldw	r2,-32(fp)
 2014abc:	1885c83a 	sub	r2,r3,r2
 2014ac0:	e0bff615 	stw	r2,-40(fp)
 2014ac4:	00000406 	br	2014ad8 <altera_avalon_jtag_uart_write+0x9c>
 2014ac8:	00c1ffc4 	movi	r3,2047
 2014acc:	e0bff817 	ldw	r2,-32(fp)
 2014ad0:	1885c83a 	sub	r2,r3,r2
 2014ad4:	e0bff615 	stw	r2,-40(fp)
 2014ad8:	e0bff617 	ldw	r2,-40(fp)
 2014adc:	1000011e 	bne	r2,zero,2014ae4 <altera_avalon_jtag_uart_write+0xa8>
 2014ae0:	00001d06 	br	2014b58 <altera_avalon_jtag_uart_write+0x11c>
 2014ae4:	e0fffe17 	ldw	r3,-8(fp)
 2014ae8:	e0bff617 	ldw	r2,-40(fp)
 2014aec:	1880022e 	bgeu	r3,r2,2014af8 <altera_avalon_jtag_uart_write+0xbc>
 2014af0:	e0bffe17 	ldw	r2,-8(fp)
 2014af4:	e0bff615 	stw	r2,-40(fp)
 2014af8:	e0bff817 	ldw	r2,-32(fp)
 2014afc:	10820e04 	addi	r2,r2,2104
 2014b00:	e0fffc17 	ldw	r3,-16(fp)
 2014b04:	1885883a 	add	r2,r3,r2
 2014b08:	1009883a 	mov	r4,r2
 2014b0c:	e17ffd17 	ldw	r5,-12(fp)
 2014b10:	e1bff617 	ldw	r6,-40(fp)
 2014b14:	20087040 	call	2008704 <memcpy>
 2014b18:	e0fffd17 	ldw	r3,-12(fp)
 2014b1c:	e0bff617 	ldw	r2,-40(fp)
 2014b20:	1885883a 	add	r2,r3,r2
 2014b24:	e0bffd15 	stw	r2,-12(fp)
 2014b28:	e0fffe17 	ldw	r3,-8(fp)
 2014b2c:	e0bff617 	ldw	r2,-40(fp)
 2014b30:	1885c83a 	sub	r2,r3,r2
 2014b34:	e0bffe15 	stw	r2,-8(fp)
 2014b38:	e0fff817 	ldw	r3,-32(fp)
 2014b3c:	e0bff617 	ldw	r2,-40(fp)
 2014b40:	1885883a 	add	r2,r3,r2
 2014b44:	10c1ffcc 	andi	r3,r2,2047
 2014b48:	e0bffc17 	ldw	r2,-16(fp)
 2014b4c:	10c00c15 	stw	r3,48(r2)
 2014b50:	e0bffe17 	ldw	r2,-8(fp)
 2014b54:	00bfc616 	blt	zero,r2,2014a70 <__reset+0xfe00ba70>
 2014b58:	0005303a 	rdctl	r2,status
 2014b5c:	e0bffa15 	stw	r2,-24(fp)
 2014b60:	e0fffa17 	ldw	r3,-24(fp)
 2014b64:	00bfff84 	movi	r2,-2
 2014b68:	1884703a 	and	r2,r3,r2
 2014b6c:	1001703a 	wrctl	status,r2
 2014b70:	e0bffa17 	ldw	r2,-24(fp)
 2014b74:	e0bff915 	stw	r2,-28(fp)
 2014b78:	e0bffc17 	ldw	r2,-16(fp)
 2014b7c:	10800817 	ldw	r2,32(r2)
 2014b80:	10c00094 	ori	r3,r2,2
 2014b84:	e0bffc17 	ldw	r2,-16(fp)
 2014b88:	10c00815 	stw	r3,32(r2)
 2014b8c:	e0bffc17 	ldw	r2,-16(fp)
 2014b90:	10800017 	ldw	r2,0(r2)
 2014b94:	10800104 	addi	r2,r2,4
 2014b98:	e0fffc17 	ldw	r3,-16(fp)
 2014b9c:	18c00817 	ldw	r3,32(r3)
 2014ba0:	10c00035 	stwio	r3,0(r2)
 2014ba4:	e0bff917 	ldw	r2,-28(fp)
 2014ba8:	e0bffb15 	stw	r2,-20(fp)
 2014bac:	e0bffb17 	ldw	r2,-20(fp)
 2014bb0:	1001703a 	wrctl	status,r2
 2014bb4:	e0bffe17 	ldw	r2,-8(fp)
 2014bb8:	0080120e 	bge	zero,r2,2014c04 <altera_avalon_jtag_uart_write+0x1c8>
 2014bbc:	e0bfff17 	ldw	r2,-4(fp)
 2014bc0:	1090000c 	andi	r2,r2,16384
 2014bc4:	10000126 	beq	r2,zero,2014bcc <altera_avalon_jtag_uart_write+0x190>
 2014bc8:	00001006 	br	2014c0c <altera_avalon_jtag_uart_write+0x1d0>
 2014bcc:	0001883a 	nop
 2014bd0:	e0bffc17 	ldw	r2,-16(fp)
 2014bd4:	10c00d17 	ldw	r3,52(r2)
 2014bd8:	e0bff517 	ldw	r2,-44(fp)
 2014bdc:	1880051e 	bne	r3,r2,2014bf4 <altera_avalon_jtag_uart_write+0x1b8>
 2014be0:	e0bffc17 	ldw	r2,-16(fp)
 2014be4:	10c00917 	ldw	r3,36(r2)
 2014be8:	e0bffc17 	ldw	r2,-16(fp)
 2014bec:	10800117 	ldw	r2,4(r2)
 2014bf0:	18bff736 	bltu	r3,r2,2014bd0 <__reset+0xfe00bbd0>
 2014bf4:	e0bffc17 	ldw	r2,-16(fp)
 2014bf8:	10800917 	ldw	r2,36(r2)
 2014bfc:	10000126 	beq	r2,zero,2014c04 <altera_avalon_jtag_uart_write+0x1c8>
 2014c00:	00000206 	br	2014c0c <altera_avalon_jtag_uart_write+0x1d0>
 2014c04:	e0bffe17 	ldw	r2,-8(fp)
 2014c08:	00bf9816 	blt	zero,r2,2014a6c <__reset+0xfe00ba6c>
 2014c0c:	e0fffd17 	ldw	r3,-12(fp)
 2014c10:	e0bff717 	ldw	r2,-36(fp)
 2014c14:	18800426 	beq	r3,r2,2014c28 <altera_avalon_jtag_uart_write+0x1ec>
 2014c18:	e0fffd17 	ldw	r3,-12(fp)
 2014c1c:	e0bff717 	ldw	r2,-36(fp)
 2014c20:	1885c83a 	sub	r2,r3,r2
 2014c24:	00000606 	br	2014c40 <altera_avalon_jtag_uart_write+0x204>
 2014c28:	e0bfff17 	ldw	r2,-4(fp)
 2014c2c:	1090000c 	andi	r2,r2,16384
 2014c30:	10000226 	beq	r2,zero,2014c3c <altera_avalon_jtag_uart_write+0x200>
 2014c34:	00bffd44 	movi	r2,-11
 2014c38:	00000106 	br	2014c40 <altera_avalon_jtag_uart_write+0x204>
 2014c3c:	00bffec4 	movi	r2,-5
 2014c40:	e037883a 	mov	sp,fp
 2014c44:	dfc00117 	ldw	ra,4(sp)
 2014c48:	df000017 	ldw	fp,0(sp)
 2014c4c:	dec00204 	addi	sp,sp,8
 2014c50:	f800283a 	ret

02014c54 <alt_avalon_timer_sc_irq>:
 2014c54:	defffa04 	addi	sp,sp,-24
 2014c58:	dfc00515 	stw	ra,20(sp)
 2014c5c:	df000415 	stw	fp,16(sp)
 2014c60:	df000404 	addi	fp,sp,16
 2014c64:	e13fff15 	stw	r4,-4(fp)
 2014c68:	0007883a 	mov	r3,zero
 2014c6c:	e0bfff17 	ldw	r2,-4(fp)
 2014c70:	10c00035 	stwio	r3,0(r2)
 2014c74:	e0bfff17 	ldw	r2,-4(fp)
 2014c78:	10800104 	addi	r2,r2,4
 2014c7c:	10800037 	ldwio	r2,0(r2)
 2014c80:	0005303a 	rdctl	r2,status
 2014c84:	e0bffd15 	stw	r2,-12(fp)
 2014c88:	e0fffd17 	ldw	r3,-12(fp)
 2014c8c:	00bfff84 	movi	r2,-2
 2014c90:	1884703a 	and	r2,r3,r2
 2014c94:	1001703a 	wrctl	status,r2
 2014c98:	e0bffd17 	ldw	r2,-12(fp)
 2014c9c:	e0bffc15 	stw	r2,-16(fp)
 2014ca0:	20133e00 	call	20133e0 <alt_tick>
 2014ca4:	e0bffc17 	ldw	r2,-16(fp)
 2014ca8:	e0bffe15 	stw	r2,-8(fp)
 2014cac:	e0bffe17 	ldw	r2,-8(fp)
 2014cb0:	1001703a 	wrctl	status,r2
 2014cb4:	e037883a 	mov	sp,fp
 2014cb8:	dfc00117 	ldw	ra,4(sp)
 2014cbc:	df000017 	ldw	fp,0(sp)
 2014cc0:	dec00204 	addi	sp,sp,8
 2014cc4:	f800283a 	ret

02014cc8 <alt_avalon_timer_sc_init>:
 2014cc8:	defff804 	addi	sp,sp,-32
 2014ccc:	dfc00715 	stw	ra,28(sp)
 2014cd0:	df000615 	stw	fp,24(sp)
 2014cd4:	df000604 	addi	fp,sp,24
 2014cd8:	e13ffc15 	stw	r4,-16(fp)
 2014cdc:	e17ffd15 	stw	r5,-12(fp)
 2014ce0:	e1bffe15 	stw	r6,-8(fp)
 2014ce4:	e1ffff15 	stw	r7,-4(fp)
 2014ce8:	e0bfff17 	ldw	r2,-4(fp)
 2014cec:	e0bffb15 	stw	r2,-20(fp)
 2014cf0:	008080b4 	movhi	r2,514
 2014cf4:	10838004 	addi	r2,r2,3584
 2014cf8:	10800017 	ldw	r2,0(r2)
 2014cfc:	1000041e 	bne	r2,zero,2014d10 <alt_avalon_timer_sc_init+0x48>
 2014d00:	008080b4 	movhi	r2,514
 2014d04:	10838004 	addi	r2,r2,3584
 2014d08:	e0fffb17 	ldw	r3,-20(fp)
 2014d0c:	10c00015 	stw	r3,0(r2)
 2014d10:	e0bffc17 	ldw	r2,-16(fp)
 2014d14:	10800104 	addi	r2,r2,4
 2014d18:	00c001c4 	movi	r3,7
 2014d1c:	10c00035 	stwio	r3,0(r2)
 2014d20:	d8000015 	stw	zero,0(sp)
 2014d24:	e13ffd17 	ldw	r4,-12(fp)
 2014d28:	e17ffe17 	ldw	r5,-8(fp)
 2014d2c:	01808074 	movhi	r6,513
 2014d30:	31931504 	addi	r6,r6,19540
 2014d34:	e1fffc17 	ldw	r7,-16(fp)
 2014d38:	201613c0 	call	201613c <alt_ic_isr_register>
 2014d3c:	e037883a 	mov	sp,fp
 2014d40:	dfc00117 	ldw	ra,4(sp)
 2014d44:	df000017 	ldw	fp,0(sp)
 2014d48:	dec00204 	addi	sp,sp,8
 2014d4c:	f800283a 	ret

02014d50 <altera_avalon_uart_read_fd>:
 2014d50:	defffa04 	addi	sp,sp,-24
 2014d54:	dfc00515 	stw	ra,20(sp)
 2014d58:	df000415 	stw	fp,16(sp)
 2014d5c:	df000404 	addi	fp,sp,16
 2014d60:	e13ffd15 	stw	r4,-12(fp)
 2014d64:	e17ffe15 	stw	r5,-8(fp)
 2014d68:	e1bfff15 	stw	r6,-4(fp)
 2014d6c:	e0bffd17 	ldw	r2,-12(fp)
 2014d70:	10800017 	ldw	r2,0(r2)
 2014d74:	e0bffc15 	stw	r2,-16(fp)
 2014d78:	e0bffc17 	ldw	r2,-16(fp)
 2014d7c:	10c00a04 	addi	r3,r2,40
 2014d80:	e0bffd17 	ldw	r2,-12(fp)
 2014d84:	10800217 	ldw	r2,8(r2)
 2014d88:	1809883a 	mov	r4,r3
 2014d8c:	e17ffe17 	ldw	r5,-8(fp)
 2014d90:	e1bfff17 	ldw	r6,-4(fp)
 2014d94:	100f883a 	mov	r7,r2
 2014d98:	20152640 	call	2015264 <altera_avalon_uart_read>
 2014d9c:	e037883a 	mov	sp,fp
 2014da0:	dfc00117 	ldw	ra,4(sp)
 2014da4:	df000017 	ldw	fp,0(sp)
 2014da8:	dec00204 	addi	sp,sp,8
 2014dac:	f800283a 	ret

02014db0 <altera_avalon_uart_write_fd>:
 2014db0:	defffa04 	addi	sp,sp,-24
 2014db4:	dfc00515 	stw	ra,20(sp)
 2014db8:	df000415 	stw	fp,16(sp)
 2014dbc:	df000404 	addi	fp,sp,16
 2014dc0:	e13ffd15 	stw	r4,-12(fp)
 2014dc4:	e17ffe15 	stw	r5,-8(fp)
 2014dc8:	e1bfff15 	stw	r6,-4(fp)
 2014dcc:	e0bffd17 	ldw	r2,-12(fp)
 2014dd0:	10800017 	ldw	r2,0(r2)
 2014dd4:	e0bffc15 	stw	r2,-16(fp)
 2014dd8:	e0bffc17 	ldw	r2,-16(fp)
 2014ddc:	10c00a04 	addi	r3,r2,40
 2014de0:	e0bffd17 	ldw	r2,-12(fp)
 2014de4:	10800217 	ldw	r2,8(r2)
 2014de8:	1809883a 	mov	r4,r3
 2014dec:	e17ffe17 	ldw	r5,-8(fp)
 2014df0:	e1bfff17 	ldw	r6,-4(fp)
 2014df4:	100f883a 	mov	r7,r2
 2014df8:	20154900 	call	2015490 <altera_avalon_uart_write>
 2014dfc:	e037883a 	mov	sp,fp
 2014e00:	dfc00117 	ldw	ra,4(sp)
 2014e04:	df000017 	ldw	fp,0(sp)
 2014e08:	dec00204 	addi	sp,sp,8
 2014e0c:	f800283a 	ret

02014e10 <altera_avalon_uart_close_fd>:
 2014e10:	defffc04 	addi	sp,sp,-16
 2014e14:	dfc00315 	stw	ra,12(sp)
 2014e18:	df000215 	stw	fp,8(sp)
 2014e1c:	df000204 	addi	fp,sp,8
 2014e20:	e13fff15 	stw	r4,-4(fp)
 2014e24:	e0bfff17 	ldw	r2,-4(fp)
 2014e28:	10800017 	ldw	r2,0(r2)
 2014e2c:	e0bffe15 	stw	r2,-8(fp)
 2014e30:	e0bffe17 	ldw	r2,-8(fp)
 2014e34:	10c00a04 	addi	r3,r2,40
 2014e38:	e0bfff17 	ldw	r2,-4(fp)
 2014e3c:	10800217 	ldw	r2,8(r2)
 2014e40:	1809883a 	mov	r4,r3
 2014e44:	100b883a 	mov	r5,r2
 2014e48:	20151c00 	call	20151c0 <altera_avalon_uart_close>
 2014e4c:	e037883a 	mov	sp,fp
 2014e50:	dfc00117 	ldw	ra,4(sp)
 2014e54:	df000017 	ldw	fp,0(sp)
 2014e58:	dec00204 	addi	sp,sp,8
 2014e5c:	f800283a 	ret

02014e60 <altera_avalon_uart_init>:
 2014e60:	defff804 	addi	sp,sp,-32
 2014e64:	dfc00715 	stw	ra,28(sp)
 2014e68:	df000615 	stw	fp,24(sp)
 2014e6c:	df000604 	addi	fp,sp,24
 2014e70:	e13ffd15 	stw	r4,-12(fp)
 2014e74:	e17ffe15 	stw	r5,-8(fp)
 2014e78:	e1bfff15 	stw	r6,-4(fp)
 2014e7c:	e0bffd17 	ldw	r2,-12(fp)
 2014e80:	10800017 	ldw	r2,0(r2)
 2014e84:	e0bffb15 	stw	r2,-20(fp)
 2014e88:	0005883a 	mov	r2,zero
 2014e8c:	1000041e 	bne	r2,zero,2014ea0 <altera_avalon_uart_init+0x40>
 2014e90:	0005883a 	mov	r2,zero
 2014e94:	1000021e 	bne	r2,zero,2014ea0 <altera_avalon_uart_init+0x40>
 2014e98:	0005883a 	mov	r2,zero
 2014e9c:	10000226 	beq	r2,zero,2014ea8 <altera_avalon_uart_init+0x48>
 2014ea0:	00800044 	movi	r2,1
 2014ea4:	00000106 	br	2014eac <altera_avalon_uart_init+0x4c>
 2014ea8:	0005883a 	mov	r2,zero
 2014eac:	e0bffc15 	stw	r2,-16(fp)
 2014eb0:	e0bffc17 	ldw	r2,-16(fp)
 2014eb4:	10000f1e 	bne	r2,zero,2014ef4 <altera_avalon_uart_init+0x94>
 2014eb8:	e0bffd17 	ldw	r2,-12(fp)
 2014ebc:	00c32004 	movi	r3,3200
 2014ec0:	10c00115 	stw	r3,4(r2)
 2014ec4:	e0bffb17 	ldw	r2,-20(fp)
 2014ec8:	10800304 	addi	r2,r2,12
 2014ecc:	e0fffd17 	ldw	r3,-12(fp)
 2014ed0:	18c00117 	ldw	r3,4(r3)
 2014ed4:	10c00035 	stwio	r3,0(r2)
 2014ed8:	d8000015 	stw	zero,0(sp)
 2014edc:	e13ffe17 	ldw	r4,-8(fp)
 2014ee0:	e17fff17 	ldw	r5,-4(fp)
 2014ee4:	01808074 	movhi	r6,513
 2014ee8:	3193c204 	addi	r6,r6,20232
 2014eec:	e1fffd17 	ldw	r7,-12(fp)
 2014ef0:	201613c0 	call	201613c <alt_ic_isr_register>
 2014ef4:	e037883a 	mov	sp,fp
 2014ef8:	dfc00117 	ldw	ra,4(sp)
 2014efc:	df000017 	ldw	fp,0(sp)
 2014f00:	dec00204 	addi	sp,sp,8
 2014f04:	f800283a 	ret

02014f08 <altera_avalon_uart_irq>:
 2014f08:	defffa04 	addi	sp,sp,-24
 2014f0c:	dfc00515 	stw	ra,20(sp)
 2014f10:	df000415 	stw	fp,16(sp)
 2014f14:	df000404 	addi	fp,sp,16
 2014f18:	e13fff15 	stw	r4,-4(fp)
 2014f1c:	e0bfff17 	ldw	r2,-4(fp)
 2014f20:	e0bffc15 	stw	r2,-16(fp)
 2014f24:	e0bffc17 	ldw	r2,-16(fp)
 2014f28:	10800017 	ldw	r2,0(r2)
 2014f2c:	e0bffd15 	stw	r2,-12(fp)
 2014f30:	e0bffd17 	ldw	r2,-12(fp)
 2014f34:	10800204 	addi	r2,r2,8
 2014f38:	10800037 	ldwio	r2,0(r2)
 2014f3c:	e0bffe15 	stw	r2,-8(fp)
 2014f40:	e0bffd17 	ldw	r2,-12(fp)
 2014f44:	10800204 	addi	r2,r2,8
 2014f48:	0007883a 	mov	r3,zero
 2014f4c:	10c00035 	stwio	r3,0(r2)
 2014f50:	e0bffd17 	ldw	r2,-12(fp)
 2014f54:	10800204 	addi	r2,r2,8
 2014f58:	10800037 	ldwio	r2,0(r2)
 2014f5c:	e0bffe17 	ldw	r2,-8(fp)
 2014f60:	1080200c 	andi	r2,r2,128
 2014f64:	10000326 	beq	r2,zero,2014f74 <altera_avalon_uart_irq+0x6c>
 2014f68:	e13ffc17 	ldw	r4,-16(fp)
 2014f6c:	e17ffe17 	ldw	r5,-8(fp)
 2014f70:	2014fa00 	call	2014fa0 <altera_avalon_uart_rxirq>
 2014f74:	e0bffe17 	ldw	r2,-8(fp)
 2014f78:	1081100c 	andi	r2,r2,1088
 2014f7c:	10000326 	beq	r2,zero,2014f8c <altera_avalon_uart_irq+0x84>
 2014f80:	e13ffc17 	ldw	r4,-16(fp)
 2014f84:	e17ffe17 	ldw	r5,-8(fp)
 2014f88:	201507c0 	call	201507c <altera_avalon_uart_txirq>
 2014f8c:	e037883a 	mov	sp,fp
 2014f90:	dfc00117 	ldw	ra,4(sp)
 2014f94:	df000017 	ldw	fp,0(sp)
 2014f98:	dec00204 	addi	sp,sp,8
 2014f9c:	f800283a 	ret

02014fa0 <altera_avalon_uart_rxirq>:
 2014fa0:	defffc04 	addi	sp,sp,-16
 2014fa4:	df000315 	stw	fp,12(sp)
 2014fa8:	df000304 	addi	fp,sp,12
 2014fac:	e13ffe15 	stw	r4,-8(fp)
 2014fb0:	e17fff15 	stw	r5,-4(fp)
 2014fb4:	e0bfff17 	ldw	r2,-4(fp)
 2014fb8:	108000cc 	andi	r2,r2,3
 2014fbc:	10000126 	beq	r2,zero,2014fc4 <altera_avalon_uart_rxirq+0x24>
 2014fc0:	00002a06 	br	201506c <altera_avalon_uart_rxirq+0xcc>
 2014fc4:	e0bffe17 	ldw	r2,-8(fp)
 2014fc8:	10800317 	ldw	r2,12(r2)
 2014fcc:	e0bffe17 	ldw	r2,-8(fp)
 2014fd0:	10800217 	ldw	r2,8(r2)
 2014fd4:	e0bffe17 	ldw	r2,-8(fp)
 2014fd8:	10800317 	ldw	r2,12(r2)
 2014fdc:	10800044 	addi	r2,r2,1
 2014fe0:	10800fcc 	andi	r2,r2,63
 2014fe4:	e0bffd15 	stw	r2,-12(fp)
 2014fe8:	e0bffe17 	ldw	r2,-8(fp)
 2014fec:	10800317 	ldw	r2,12(r2)
 2014ff0:	e0fffe17 	ldw	r3,-8(fp)
 2014ff4:	18c00017 	ldw	r3,0(r3)
 2014ff8:	18c00037 	ldwio	r3,0(r3)
 2014ffc:	e13ffe17 	ldw	r4,-8(fp)
 2015000:	2085883a 	add	r2,r4,r2
 2015004:	10800704 	addi	r2,r2,28
 2015008:	10c00005 	stb	r3,0(r2)
 201500c:	e0bffe17 	ldw	r2,-8(fp)
 2015010:	e0fffd17 	ldw	r3,-12(fp)
 2015014:	10c00315 	stw	r3,12(r2)
 2015018:	e0bffe17 	ldw	r2,-8(fp)
 201501c:	10800317 	ldw	r2,12(r2)
 2015020:	10800044 	addi	r2,r2,1
 2015024:	10800fcc 	andi	r2,r2,63
 2015028:	e0bffd15 	stw	r2,-12(fp)
 201502c:	e0bffe17 	ldw	r2,-8(fp)
 2015030:	10c00217 	ldw	r3,8(r2)
 2015034:	e0bffd17 	ldw	r2,-12(fp)
 2015038:	18800c1e 	bne	r3,r2,201506c <altera_avalon_uart_rxirq+0xcc>
 201503c:	e0bffe17 	ldw	r2,-8(fp)
 2015040:	10c00117 	ldw	r3,4(r2)
 2015044:	00bfdfc4 	movi	r2,-129
 2015048:	1886703a 	and	r3,r3,r2
 201504c:	e0bffe17 	ldw	r2,-8(fp)
 2015050:	10c00115 	stw	r3,4(r2)
 2015054:	e0bffe17 	ldw	r2,-8(fp)
 2015058:	10800017 	ldw	r2,0(r2)
 201505c:	10800304 	addi	r2,r2,12
 2015060:	e0fffe17 	ldw	r3,-8(fp)
 2015064:	18c00117 	ldw	r3,4(r3)
 2015068:	10c00035 	stwio	r3,0(r2)
 201506c:	e037883a 	mov	sp,fp
 2015070:	df000017 	ldw	fp,0(sp)
 2015074:	dec00104 	addi	sp,sp,4
 2015078:	f800283a 	ret

0201507c <altera_avalon_uart_txirq>:
 201507c:	defffb04 	addi	sp,sp,-20
 2015080:	df000415 	stw	fp,16(sp)
 2015084:	df000404 	addi	fp,sp,16
 2015088:	e13ffc15 	stw	r4,-16(fp)
 201508c:	e17ffd15 	stw	r5,-12(fp)
 2015090:	e0bffc17 	ldw	r2,-16(fp)
 2015094:	10c00417 	ldw	r3,16(r2)
 2015098:	e0bffc17 	ldw	r2,-16(fp)
 201509c:	10800517 	ldw	r2,20(r2)
 20150a0:	18803226 	beq	r3,r2,201516c <altera_avalon_uart_txirq+0xf0>
 20150a4:	e0bffc17 	ldw	r2,-16(fp)
 20150a8:	10800617 	ldw	r2,24(r2)
 20150ac:	1080008c 	andi	r2,r2,2
 20150b0:	10000326 	beq	r2,zero,20150c0 <altera_avalon_uart_txirq+0x44>
 20150b4:	e0bffd17 	ldw	r2,-12(fp)
 20150b8:	1082000c 	andi	r2,r2,2048
 20150bc:	10001d26 	beq	r2,zero,2015134 <altera_avalon_uart_txirq+0xb8>
 20150c0:	e0bffc17 	ldw	r2,-16(fp)
 20150c4:	10800417 	ldw	r2,16(r2)
 20150c8:	e0bffc17 	ldw	r2,-16(fp)
 20150cc:	10800517 	ldw	r2,20(r2)
 20150d0:	e0bffc17 	ldw	r2,-16(fp)
 20150d4:	10800017 	ldw	r2,0(r2)
 20150d8:	10800104 	addi	r2,r2,4
 20150dc:	e0fffc17 	ldw	r3,-16(fp)
 20150e0:	18c00417 	ldw	r3,16(r3)
 20150e4:	e13ffc17 	ldw	r4,-16(fp)
 20150e8:	20c7883a 	add	r3,r4,r3
 20150ec:	18c01704 	addi	r3,r3,92
 20150f0:	18c00003 	ldbu	r3,0(r3)
 20150f4:	18c03fcc 	andi	r3,r3,255
 20150f8:	10c00035 	stwio	r3,0(r2)
 20150fc:	e0bffc17 	ldw	r2,-16(fp)
 2015100:	10800417 	ldw	r2,16(r2)
 2015104:	10800044 	addi	r2,r2,1
 2015108:	e0fffc17 	ldw	r3,-16(fp)
 201510c:	18800415 	stw	r2,16(r3)
 2015110:	10c00fcc 	andi	r3,r2,63
 2015114:	e0bffc17 	ldw	r2,-16(fp)
 2015118:	10c00415 	stw	r3,16(r2)
 201511c:	e0bffc17 	ldw	r2,-16(fp)
 2015120:	10800117 	ldw	r2,4(r2)
 2015124:	10c01014 	ori	r3,r2,64
 2015128:	e0bffc17 	ldw	r2,-16(fp)
 201512c:	10c00115 	stw	r3,4(r2)
 2015130:	00000e06 	br	201516c <altera_avalon_uart_txirq+0xf0>
 2015134:	e0bffc17 	ldw	r2,-16(fp)
 2015138:	10800017 	ldw	r2,0(r2)
 201513c:	10800204 	addi	r2,r2,8
 2015140:	10800037 	ldwio	r2,0(r2)
 2015144:	e0bffd15 	stw	r2,-12(fp)
 2015148:	e0bffd17 	ldw	r2,-12(fp)
 201514c:	1082000c 	andi	r2,r2,2048
 2015150:	1000061e 	bne	r2,zero,201516c <altera_avalon_uart_txirq+0xf0>
 2015154:	e0bffc17 	ldw	r2,-16(fp)
 2015158:	10c00117 	ldw	r3,4(r2)
 201515c:	00bfefc4 	movi	r2,-65
 2015160:	1886703a 	and	r3,r3,r2
 2015164:	e0bffc17 	ldw	r2,-16(fp)
 2015168:	10c00115 	stw	r3,4(r2)
 201516c:	e0bffc17 	ldw	r2,-16(fp)
 2015170:	10c00417 	ldw	r3,16(r2)
 2015174:	e0bffc17 	ldw	r2,-16(fp)
 2015178:	10800517 	ldw	r2,20(r2)
 201517c:	1880061e 	bne	r3,r2,2015198 <altera_avalon_uart_txirq+0x11c>
 2015180:	e0bffc17 	ldw	r2,-16(fp)
 2015184:	10c00117 	ldw	r3,4(r2)
 2015188:	00beefc4 	movi	r2,-1089
 201518c:	1886703a 	and	r3,r3,r2
 2015190:	e0bffc17 	ldw	r2,-16(fp)
 2015194:	10c00115 	stw	r3,4(r2)
 2015198:	e0bffc17 	ldw	r2,-16(fp)
 201519c:	10800017 	ldw	r2,0(r2)
 20151a0:	10800304 	addi	r2,r2,12
 20151a4:	e0fffc17 	ldw	r3,-16(fp)
 20151a8:	18c00117 	ldw	r3,4(r3)
 20151ac:	10c00035 	stwio	r3,0(r2)
 20151b0:	e037883a 	mov	sp,fp
 20151b4:	df000017 	ldw	fp,0(sp)
 20151b8:	dec00104 	addi	sp,sp,4
 20151bc:	f800283a 	ret

020151c0 <altera_avalon_uart_close>:
 20151c0:	defffd04 	addi	sp,sp,-12
 20151c4:	df000215 	stw	fp,8(sp)
 20151c8:	df000204 	addi	fp,sp,8
 20151cc:	e13ffe15 	stw	r4,-8(fp)
 20151d0:	e17fff15 	stw	r5,-4(fp)
 20151d4:	00000506 	br	20151ec <altera_avalon_uart_close+0x2c>
 20151d8:	e0bfff17 	ldw	r2,-4(fp)
 20151dc:	1090000c 	andi	r2,r2,16384
 20151e0:	10000226 	beq	r2,zero,20151ec <altera_avalon_uart_close+0x2c>
 20151e4:	00bffd44 	movi	r2,-11
 20151e8:	00000606 	br	2015204 <altera_avalon_uart_close+0x44>
 20151ec:	e0bffe17 	ldw	r2,-8(fp)
 20151f0:	10c00417 	ldw	r3,16(r2)
 20151f4:	e0bffe17 	ldw	r2,-8(fp)
 20151f8:	10800517 	ldw	r2,20(r2)
 20151fc:	18bff61e 	bne	r3,r2,20151d8 <__reset+0xfe00c1d8>
 2015200:	0005883a 	mov	r2,zero
 2015204:	e037883a 	mov	sp,fp
 2015208:	df000017 	ldw	fp,0(sp)
 201520c:	dec00104 	addi	sp,sp,4
 2015210:	f800283a 	ret

02015214 <alt_get_errno>:
 2015214:	defffe04 	addi	sp,sp,-8
 2015218:	dfc00115 	stw	ra,4(sp)
 201521c:	df000015 	stw	fp,0(sp)
 2015220:	d839883a 	mov	fp,sp
 2015224:	008080b4 	movhi	r2,514
 2015228:	10836b04 	addi	r2,r2,3500
 201522c:	10800017 	ldw	r2,0(r2)
 2015230:	10000526 	beq	r2,zero,2015248 <alt_get_errno+0x34>
 2015234:	008080b4 	movhi	r2,514
 2015238:	10836b04 	addi	r2,r2,3500
 201523c:	10800017 	ldw	r2,0(r2)
 2015240:	103ee83a 	callr	r2
 2015244:	00000206 	br	2015250 <alt_get_errno+0x3c>
 2015248:	008080b4 	movhi	r2,514
 201524c:	10837904 	addi	r2,r2,3556
 2015250:	e037883a 	mov	sp,fp
 2015254:	dfc00117 	ldw	ra,4(sp)
 2015258:	df000017 	ldw	fp,0(sp)
 201525c:	dec00204 	addi	sp,sp,8
 2015260:	f800283a 	ret

02015264 <altera_avalon_uart_read>:
 2015264:	defff204 	addi	sp,sp,-56
 2015268:	dfc00d15 	stw	ra,52(sp)
 201526c:	df000c15 	stw	fp,48(sp)
 2015270:	df000c04 	addi	fp,sp,48
 2015274:	e13ffc15 	stw	r4,-16(fp)
 2015278:	e17ffd15 	stw	r5,-12(fp)
 201527c:	e1bffe15 	stw	r6,-8(fp)
 2015280:	e1ffff15 	stw	r7,-4(fp)
 2015284:	e03ff405 	stb	zero,-48(fp)
 2015288:	e03ff515 	stw	zero,-44(fp)
 201528c:	e0bfff17 	ldw	r2,-4(fp)
 2015290:	1090000c 	andi	r2,r2,16384
 2015294:	1005003a 	cmpeq	r2,r2,zero
 2015298:	10803fcc 	andi	r2,r2,255
 201529c:	e0bff615 	stw	r2,-40(fp)
 20152a0:	00001406 	br	20152f4 <altera_avalon_uart_read+0x90>
 20152a4:	00001306 	br	20152f4 <altera_avalon_uart_read+0x90>
 20152a8:	e0bff517 	ldw	r2,-44(fp)
 20152ac:	10800044 	addi	r2,r2,1
 20152b0:	e0bff515 	stw	r2,-44(fp)
 20152b4:	e0bffd17 	ldw	r2,-12(fp)
 20152b8:	10c00044 	addi	r3,r2,1
 20152bc:	e0fffd15 	stw	r3,-12(fp)
 20152c0:	e0fffc17 	ldw	r3,-16(fp)
 20152c4:	18c00217 	ldw	r3,8(r3)
 20152c8:	e13ffc17 	ldw	r4,-16(fp)
 20152cc:	20c7883a 	add	r3,r4,r3
 20152d0:	18c00704 	addi	r3,r3,28
 20152d4:	18c00003 	ldbu	r3,0(r3)
 20152d8:	10c00005 	stb	r3,0(r2)
 20152dc:	e0bffc17 	ldw	r2,-16(fp)
 20152e0:	10800217 	ldw	r2,8(r2)
 20152e4:	10800044 	addi	r2,r2,1
 20152e8:	10c00fcc 	andi	r3,r2,63
 20152ec:	e0bffc17 	ldw	r2,-16(fp)
 20152f0:	10c00215 	stw	r3,8(r2)
 20152f4:	e0fff517 	ldw	r3,-44(fp)
 20152f8:	e0bffe17 	ldw	r2,-8(fp)
 20152fc:	1880050e 	bge	r3,r2,2015314 <altera_avalon_uart_read+0xb0>
 2015300:	e0bffc17 	ldw	r2,-16(fp)
 2015304:	10c00217 	ldw	r3,8(r2)
 2015308:	e0bffc17 	ldw	r2,-16(fp)
 201530c:	10800317 	ldw	r2,12(r2)
 2015310:	18bfe51e 	bne	r3,r2,20152a8 <__reset+0xfe00c2a8>
 2015314:	e0bff517 	ldw	r2,-44(fp)
 2015318:	1000241e 	bne	r2,zero,20153ac <altera_avalon_uart_read+0x148>
 201531c:	e0bffc17 	ldw	r2,-16(fp)
 2015320:	10c00217 	ldw	r3,8(r2)
 2015324:	e0bffc17 	ldw	r2,-16(fp)
 2015328:	10800317 	ldw	r2,12(r2)
 201532c:	18801f1e 	bne	r3,r2,20153ac <altera_avalon_uart_read+0x148>
 2015330:	e0bff617 	ldw	r2,-40(fp)
 2015334:	1000061e 	bne	r2,zero,2015350 <altera_avalon_uart_read+0xec>
 2015338:	20152140 	call	2015214 <alt_get_errno>
 201533c:	00c002c4 	movi	r3,11
 2015340:	10c00015 	stw	r3,0(r2)
 2015344:	00800044 	movi	r2,1
 2015348:	e0bff405 	stb	r2,-48(fp)
 201534c:	00001b06 	br	20153bc <altera_avalon_uart_read+0x158>
 2015350:	0005303a 	rdctl	r2,status
 2015354:	e0bff815 	stw	r2,-32(fp)
 2015358:	e0fff817 	ldw	r3,-32(fp)
 201535c:	00bfff84 	movi	r2,-2
 2015360:	1884703a 	and	r2,r3,r2
 2015364:	1001703a 	wrctl	status,r2
 2015368:	e0bff817 	ldw	r2,-32(fp)
 201536c:	e0bff715 	stw	r2,-36(fp)
 2015370:	e0bffc17 	ldw	r2,-16(fp)
 2015374:	10800117 	ldw	r2,4(r2)
 2015378:	10c02014 	ori	r3,r2,128
 201537c:	e0bffc17 	ldw	r2,-16(fp)
 2015380:	10c00115 	stw	r3,4(r2)
 2015384:	e0bffc17 	ldw	r2,-16(fp)
 2015388:	10800017 	ldw	r2,0(r2)
 201538c:	10800304 	addi	r2,r2,12
 2015390:	e0fffc17 	ldw	r3,-16(fp)
 2015394:	18c00117 	ldw	r3,4(r3)
 2015398:	10c00035 	stwio	r3,0(r2)
 201539c:	e0bff717 	ldw	r2,-36(fp)
 20153a0:	e0bff915 	stw	r2,-28(fp)
 20153a4:	e0bff917 	ldw	r2,-28(fp)
 20153a8:	1001703a 	wrctl	status,r2
 20153ac:	e0bff517 	ldw	r2,-44(fp)
 20153b0:	1000021e 	bne	r2,zero,20153bc <altera_avalon_uart_read+0x158>
 20153b4:	e0bffe17 	ldw	r2,-8(fp)
 20153b8:	103fba1e 	bne	r2,zero,20152a4 <__reset+0xfe00c2a4>
 20153bc:	0005303a 	rdctl	r2,status
 20153c0:	e0bffa15 	stw	r2,-24(fp)
 20153c4:	e0fffa17 	ldw	r3,-24(fp)
 20153c8:	00bfff84 	movi	r2,-2
 20153cc:	1884703a 	and	r2,r3,r2
 20153d0:	1001703a 	wrctl	status,r2
 20153d4:	e0bffa17 	ldw	r2,-24(fp)
 20153d8:	e0bff715 	stw	r2,-36(fp)
 20153dc:	e0bffc17 	ldw	r2,-16(fp)
 20153e0:	10800117 	ldw	r2,4(r2)
 20153e4:	10c02014 	ori	r3,r2,128
 20153e8:	e0bffc17 	ldw	r2,-16(fp)
 20153ec:	10c00115 	stw	r3,4(r2)
 20153f0:	e0bffc17 	ldw	r2,-16(fp)
 20153f4:	10800017 	ldw	r2,0(r2)
 20153f8:	10800304 	addi	r2,r2,12
 20153fc:	e0fffc17 	ldw	r3,-16(fp)
 2015400:	18c00117 	ldw	r3,4(r3)
 2015404:	10c00035 	stwio	r3,0(r2)
 2015408:	e0bff717 	ldw	r2,-36(fp)
 201540c:	e0bffb15 	stw	r2,-20(fp)
 2015410:	e0bffb17 	ldw	r2,-20(fp)
 2015414:	1001703a 	wrctl	status,r2
 2015418:	e0bff403 	ldbu	r2,-48(fp)
 201541c:	10000226 	beq	r2,zero,2015428 <altera_avalon_uart_read+0x1c4>
 2015420:	00bffd44 	movi	r2,-11
 2015424:	00000106 	br	201542c <altera_avalon_uart_read+0x1c8>
 2015428:	e0bff517 	ldw	r2,-44(fp)
 201542c:	e037883a 	mov	sp,fp
 2015430:	dfc00117 	ldw	ra,4(sp)
 2015434:	df000017 	ldw	fp,0(sp)
 2015438:	dec00204 	addi	sp,sp,8
 201543c:	f800283a 	ret

02015440 <alt_get_errno>:
 2015440:	defffe04 	addi	sp,sp,-8
 2015444:	dfc00115 	stw	ra,4(sp)
 2015448:	df000015 	stw	fp,0(sp)
 201544c:	d839883a 	mov	fp,sp
 2015450:	008080b4 	movhi	r2,514
 2015454:	10836b04 	addi	r2,r2,3500
 2015458:	10800017 	ldw	r2,0(r2)
 201545c:	10000526 	beq	r2,zero,2015474 <alt_get_errno+0x34>
 2015460:	008080b4 	movhi	r2,514
 2015464:	10836b04 	addi	r2,r2,3500
 2015468:	10800017 	ldw	r2,0(r2)
 201546c:	103ee83a 	callr	r2
 2015470:	00000206 	br	201547c <alt_get_errno+0x3c>
 2015474:	008080b4 	movhi	r2,514
 2015478:	10837904 	addi	r2,r2,3556
 201547c:	e037883a 	mov	sp,fp
 2015480:	dfc00117 	ldw	ra,4(sp)
 2015484:	df000017 	ldw	fp,0(sp)
 2015488:	dec00204 	addi	sp,sp,8
 201548c:	f800283a 	ret

02015490 <altera_avalon_uart_write>:
 2015490:	defff204 	addi	sp,sp,-56
 2015494:	dfc00d15 	stw	ra,52(sp)
 2015498:	df000c15 	stw	fp,48(sp)
 201549c:	df000c04 	addi	fp,sp,48
 20154a0:	e13ffc15 	stw	r4,-16(fp)
 20154a4:	e17ffd15 	stw	r5,-12(fp)
 20154a8:	e1bffe15 	stw	r6,-8(fp)
 20154ac:	e1ffff15 	stw	r7,-4(fp)
 20154b0:	e0bffe17 	ldw	r2,-8(fp)
 20154b4:	e0bff415 	stw	r2,-48(fp)
 20154b8:	e0bfff17 	ldw	r2,-4(fp)
 20154bc:	1090000c 	andi	r2,r2,16384
 20154c0:	e0bff515 	stw	r2,-44(fp)
 20154c4:	00003b06 	br	20155b4 <altera_avalon_uart_write+0x124>
 20154c8:	e0bffc17 	ldw	r2,-16(fp)
 20154cc:	10800517 	ldw	r2,20(r2)
 20154d0:	10800044 	addi	r2,r2,1
 20154d4:	10800fcc 	andi	r2,r2,63
 20154d8:	e0bff615 	stw	r2,-40(fp)
 20154dc:	e0bffc17 	ldw	r2,-16(fp)
 20154e0:	10c00417 	ldw	r3,16(r2)
 20154e4:	e0bff617 	ldw	r2,-40(fp)
 20154e8:	1880211e 	bne	r3,r2,2015570 <altera_avalon_uart_write+0xe0>
 20154ec:	e0bff517 	ldw	r2,-44(fp)
 20154f0:	10000426 	beq	r2,zero,2015504 <altera_avalon_uart_write+0x74>
 20154f4:	20154400 	call	2015440 <alt_get_errno>
 20154f8:	00c002c4 	movi	r3,11
 20154fc:	10c00015 	stw	r3,0(r2)
 2015500:	00002e06 	br	20155bc <altera_avalon_uart_write+0x12c>
 2015504:	0005303a 	rdctl	r2,status
 2015508:	e0bff815 	stw	r2,-32(fp)
 201550c:	e0fff817 	ldw	r3,-32(fp)
 2015510:	00bfff84 	movi	r2,-2
 2015514:	1884703a 	and	r2,r3,r2
 2015518:	1001703a 	wrctl	status,r2
 201551c:	e0bff817 	ldw	r2,-32(fp)
 2015520:	e0bff715 	stw	r2,-36(fp)
 2015524:	e0bffc17 	ldw	r2,-16(fp)
 2015528:	10800117 	ldw	r2,4(r2)
 201552c:	10c11014 	ori	r3,r2,1088
 2015530:	e0bffc17 	ldw	r2,-16(fp)
 2015534:	10c00115 	stw	r3,4(r2)
 2015538:	e0bffc17 	ldw	r2,-16(fp)
 201553c:	10800017 	ldw	r2,0(r2)
 2015540:	10800304 	addi	r2,r2,12
 2015544:	e0fffc17 	ldw	r3,-16(fp)
 2015548:	18c00117 	ldw	r3,4(r3)
 201554c:	10c00035 	stwio	r3,0(r2)
 2015550:	e0bff717 	ldw	r2,-36(fp)
 2015554:	e0bff915 	stw	r2,-28(fp)
 2015558:	e0bff917 	ldw	r2,-28(fp)
 201555c:	1001703a 	wrctl	status,r2
 2015560:	e0bffc17 	ldw	r2,-16(fp)
 2015564:	10c00417 	ldw	r3,16(r2)
 2015568:	e0bff617 	ldw	r2,-40(fp)
 201556c:	18bffc26 	beq	r3,r2,2015560 <__reset+0xfe00c560>
 2015570:	e0bff417 	ldw	r2,-48(fp)
 2015574:	10bfffc4 	addi	r2,r2,-1
 2015578:	e0bff415 	stw	r2,-48(fp)
 201557c:	e0bffc17 	ldw	r2,-16(fp)
 2015580:	11000517 	ldw	r4,20(r2)
 2015584:	e0bffd17 	ldw	r2,-12(fp)
 2015588:	10c00044 	addi	r3,r2,1
 201558c:	e0fffd15 	stw	r3,-12(fp)
 2015590:	10800003 	ldbu	r2,0(r2)
 2015594:	1007883a 	mov	r3,r2
 2015598:	e0bffc17 	ldw	r2,-16(fp)
 201559c:	1105883a 	add	r2,r2,r4
 20155a0:	10801704 	addi	r2,r2,92
 20155a4:	10c00005 	stb	r3,0(r2)
 20155a8:	e0bffc17 	ldw	r2,-16(fp)
 20155ac:	e0fff617 	ldw	r3,-40(fp)
 20155b0:	10c00515 	stw	r3,20(r2)
 20155b4:	e0bff417 	ldw	r2,-48(fp)
 20155b8:	103fc31e 	bne	r2,zero,20154c8 <__reset+0xfe00c4c8>
 20155bc:	0005303a 	rdctl	r2,status
 20155c0:	e0bffa15 	stw	r2,-24(fp)
 20155c4:	e0fffa17 	ldw	r3,-24(fp)
 20155c8:	00bfff84 	movi	r2,-2
 20155cc:	1884703a 	and	r2,r3,r2
 20155d0:	1001703a 	wrctl	status,r2
 20155d4:	e0bffa17 	ldw	r2,-24(fp)
 20155d8:	e0bff715 	stw	r2,-36(fp)
 20155dc:	e0bffc17 	ldw	r2,-16(fp)
 20155e0:	10800117 	ldw	r2,4(r2)
 20155e4:	10c11014 	ori	r3,r2,1088
 20155e8:	e0bffc17 	ldw	r2,-16(fp)
 20155ec:	10c00115 	stw	r3,4(r2)
 20155f0:	e0bffc17 	ldw	r2,-16(fp)
 20155f4:	10800017 	ldw	r2,0(r2)
 20155f8:	10800304 	addi	r2,r2,12
 20155fc:	e0fffc17 	ldw	r3,-16(fp)
 2015600:	18c00117 	ldw	r3,4(r3)
 2015604:	10c00035 	stwio	r3,0(r2)
 2015608:	e0bff717 	ldw	r2,-36(fp)
 201560c:	e0bffb15 	stw	r2,-20(fp)
 2015610:	e0bffb17 	ldw	r2,-20(fp)
 2015614:	1001703a 	wrctl	status,r2
 2015618:	e0fffe17 	ldw	r3,-8(fp)
 201561c:	e0bff417 	ldw	r2,-48(fp)
 2015620:	1885c83a 	sub	r2,r3,r2
 2015624:	e037883a 	mov	sp,fp
 2015628:	dfc00117 	ldw	ra,4(sp)
 201562c:	df000017 	ldw	fp,0(sp)
 2015630:	dec00204 	addi	sp,sp,8
 2015634:	f800283a 	ret

02015638 <epcs_read_status_register>:
 2015638:	defff904 	addi	sp,sp,-28
 201563c:	dfc00615 	stw	ra,24(sp)
 2015640:	df000515 	stw	fp,20(sp)
 2015644:	df000504 	addi	fp,sp,20
 2015648:	e13fff15 	stw	r4,-4(fp)
 201564c:	00800144 	movi	r2,5
 2015650:	e0bffe05 	stb	r2,-8(fp)
 2015654:	00800044 	movi	r2,1
 2015658:	d8800015 	stw	r2,0(sp)
 201565c:	e0bffe44 	addi	r2,fp,-7
 2015660:	d8800115 	stw	r2,4(sp)
 2015664:	d8000215 	stw	zero,8(sp)
 2015668:	e13fff17 	ldw	r4,-4(fp)
 201566c:	000b883a 	mov	r5,zero
 2015670:	01800044 	movi	r6,1
 2015674:	e1fffe04 	addi	r7,fp,-8
 2015678:	201657c0 	call	201657c <alt_avalon_spi_command>
 201567c:	e0bffe43 	ldbu	r2,-7(fp)
 2015680:	e037883a 	mov	sp,fp
 2015684:	dfc00117 	ldw	ra,4(sp)
 2015688:	df000017 	ldw	fp,0(sp)
 201568c:	dec00204 	addi	sp,sp,8
 2015690:	f800283a 	ret

02015694 <epcs_test_wip>:
 2015694:	defffd04 	addi	sp,sp,-12
 2015698:	dfc00215 	stw	ra,8(sp)
 201569c:	df000115 	stw	fp,4(sp)
 20156a0:	df000104 	addi	fp,sp,4
 20156a4:	e13fff15 	stw	r4,-4(fp)
 20156a8:	e13fff17 	ldw	r4,-4(fp)
 20156ac:	20156380 	call	2015638 <epcs_read_status_register>
 20156b0:	10803fcc 	andi	r2,r2,255
 20156b4:	1080004c 	andi	r2,r2,1
 20156b8:	e037883a 	mov	sp,fp
 20156bc:	dfc00117 	ldw	ra,4(sp)
 20156c0:	df000017 	ldw	fp,0(sp)
 20156c4:	dec00204 	addi	sp,sp,8
 20156c8:	f800283a 	ret

020156cc <epcs_await_wip_released>:
 20156cc:	defffd04 	addi	sp,sp,-12
 20156d0:	dfc00215 	stw	ra,8(sp)
 20156d4:	df000115 	stw	fp,4(sp)
 20156d8:	df000104 	addi	fp,sp,4
 20156dc:	e13fff15 	stw	r4,-4(fp)
 20156e0:	0001883a 	nop
 20156e4:	e13fff17 	ldw	r4,-4(fp)
 20156e8:	20156940 	call	2015694 <epcs_test_wip>
 20156ec:	103ffd1e 	bne	r2,zero,20156e4 <__reset+0xfe00c6e4>
 20156f0:	e037883a 	mov	sp,fp
 20156f4:	dfc00117 	ldw	ra,4(sp)
 20156f8:	df000017 	ldw	fp,0(sp)
 20156fc:	dec00204 	addi	sp,sp,8
 2015700:	f800283a 	ret

02015704 <epcs_sector_erase>:
 2015704:	defff604 	addi	sp,sp,-40
 2015708:	dfc00915 	stw	ra,36(sp)
 201570c:	df000815 	stw	fp,32(sp)
 2015710:	df000804 	addi	fp,sp,32
 2015714:	e13ffd15 	stw	r4,-12(fp)
 2015718:	e17ffe15 	stw	r5,-8(fp)
 201571c:	e1bfff15 	stw	r6,-4(fp)
 2015720:	e0bfff17 	ldw	r2,-4(fp)
 2015724:	10001226 	beq	r2,zero,2015770 <epcs_sector_erase+0x6c>
 2015728:	00bff604 	movi	r2,-40
 201572c:	e0bffb45 	stb	r2,-19(fp)
 2015730:	e0bffe17 	ldw	r2,-8(fp)
 2015734:	1004d63a 	srli	r2,r2,24
 2015738:	e0bffb85 	stb	r2,-18(fp)
 201573c:	e0bffe17 	ldw	r2,-8(fp)
 2015740:	1004d43a 	srli	r2,r2,16
 2015744:	e0bffbc5 	stb	r2,-17(fp)
 2015748:	e0bffe17 	ldw	r2,-8(fp)
 201574c:	1004d23a 	srli	r2,r2,8
 2015750:	e0bffc05 	stb	r2,-16(fp)
 2015754:	e0bffe17 	ldw	r2,-8(fp)
 2015758:	e0bffc45 	stb	r2,-15(fp)
 201575c:	00800144 	movi	r2,5
 2015760:	e0bffb05 	stb	r2,-20(fp)
 2015764:	e13ffd17 	ldw	r4,-12(fp)
 2015768:	2015bac0 	call	2015bac <epcs_enter_4_bytes_mode>
 201576c:	00000c06 	br	20157a0 <epcs_sector_erase+0x9c>
 2015770:	00bff604 	movi	r2,-40
 2015774:	e0bffb45 	stb	r2,-19(fp)
 2015778:	e0bffe17 	ldw	r2,-8(fp)
 201577c:	1004d43a 	srli	r2,r2,16
 2015780:	e0bffb85 	stb	r2,-18(fp)
 2015784:	e0bffe17 	ldw	r2,-8(fp)
 2015788:	1004d23a 	srli	r2,r2,8
 201578c:	e0bffbc5 	stb	r2,-17(fp)
 2015790:	e0bffe17 	ldw	r2,-8(fp)
 2015794:	e0bffc05 	stb	r2,-16(fp)
 2015798:	00800104 	movi	r2,4
 201579c:	e0bffb05 	stb	r2,-20(fp)
 20157a0:	e13ffd17 	ldw	r4,-12(fp)
 20157a4:	20158f00 	call	20158f0 <epcs_write_enable>
 20157a8:	e0fffb03 	ldbu	r3,-20(fp)
 20157ac:	e0bffb44 	addi	r2,fp,-19
 20157b0:	d8000015 	stw	zero,0(sp)
 20157b4:	d8000115 	stw	zero,4(sp)
 20157b8:	d8000215 	stw	zero,8(sp)
 20157bc:	e13ffd17 	ldw	r4,-12(fp)
 20157c0:	000b883a 	mov	r5,zero
 20157c4:	180d883a 	mov	r6,r3
 20157c8:	100f883a 	mov	r7,r2
 20157cc:	201657c0 	call	201657c <alt_avalon_spi_command>
 20157d0:	e13ffd17 	ldw	r4,-12(fp)
 20157d4:	20156cc0 	call	20156cc <epcs_await_wip_released>
 20157d8:	e0bfff17 	ldw	r2,-4(fp)
 20157dc:	10000226 	beq	r2,zero,20157e8 <epcs_sector_erase+0xe4>
 20157e0:	e13ffd17 	ldw	r4,-12(fp)
 20157e4:	2015c080 	call	2015c08 <epcs_exit_4_bytes_mode>
 20157e8:	e037883a 	mov	sp,fp
 20157ec:	dfc00117 	ldw	ra,4(sp)
 20157f0:	df000017 	ldw	fp,0(sp)
 20157f4:	dec00204 	addi	sp,sp,8
 20157f8:	f800283a 	ret

020157fc <epcs_read_buffer>:
 20157fc:	defff404 	addi	sp,sp,-48
 2015800:	dfc00b15 	stw	ra,44(sp)
 2015804:	df000a15 	stw	fp,40(sp)
 2015808:	df000a04 	addi	fp,sp,40
 201580c:	e13ffc15 	stw	r4,-16(fp)
 2015810:	e17ffd15 	stw	r5,-12(fp)
 2015814:	e1bffe15 	stw	r6,-8(fp)
 2015818:	e1ffff15 	stw	r7,-4(fp)
 201581c:	008000c4 	movi	r2,3
 2015820:	e0bffa05 	stb	r2,-24(fp)
 2015824:	e0800217 	ldw	r2,8(fp)
 2015828:	10001026 	beq	r2,zero,201586c <epcs_read_buffer+0x70>
 201582c:	e0bffd17 	ldw	r2,-12(fp)
 2015830:	1004d63a 	srli	r2,r2,24
 2015834:	e0bffa45 	stb	r2,-23(fp)
 2015838:	e0bffd17 	ldw	r2,-12(fp)
 201583c:	1005d43a 	srai	r2,r2,16
 2015840:	e0bffa85 	stb	r2,-22(fp)
 2015844:	e0bffd17 	ldw	r2,-12(fp)
 2015848:	1005d23a 	srai	r2,r2,8
 201584c:	e0bffac5 	stb	r2,-21(fp)
 2015850:	e0bffd17 	ldw	r2,-12(fp)
 2015854:	e0bffb05 	stb	r2,-20(fp)
 2015858:	00800144 	movi	r2,5
 201585c:	e0bff915 	stw	r2,-28(fp)
 2015860:	e13ffc17 	ldw	r4,-16(fp)
 2015864:	2015bac0 	call	2015bac <epcs_enter_4_bytes_mode>
 2015868:	00000a06 	br	2015894 <epcs_read_buffer+0x98>
 201586c:	e0bffd17 	ldw	r2,-12(fp)
 2015870:	1005d43a 	srai	r2,r2,16
 2015874:	e0bffa45 	stb	r2,-23(fp)
 2015878:	e0bffd17 	ldw	r2,-12(fp)
 201587c:	1005d23a 	srai	r2,r2,8
 2015880:	e0bffa85 	stb	r2,-22(fp)
 2015884:	e0bffd17 	ldw	r2,-12(fp)
 2015888:	e0bffac5 	stb	r2,-21(fp)
 201588c:	00800104 	movi	r2,4
 2015890:	e0bff915 	stw	r2,-28(fp)
 2015894:	e13ffc17 	ldw	r4,-16(fp)
 2015898:	20156cc0 	call	20156cc <epcs_await_wip_released>
 201589c:	e0ffff17 	ldw	r3,-4(fp)
 20158a0:	e0bffa04 	addi	r2,fp,-24
 20158a4:	d8c00015 	stw	r3,0(sp)
 20158a8:	e0fffe17 	ldw	r3,-8(fp)
 20158ac:	d8c00115 	stw	r3,4(sp)
 20158b0:	d8000215 	stw	zero,8(sp)
 20158b4:	e13ffc17 	ldw	r4,-16(fp)
 20158b8:	000b883a 	mov	r5,zero
 20158bc:	e1bff917 	ldw	r6,-28(fp)
 20158c0:	100f883a 	mov	r7,r2
 20158c4:	201657c0 	call	201657c <alt_avalon_spi_command>
 20158c8:	e0800217 	ldw	r2,8(fp)
 20158cc:	10000226 	beq	r2,zero,20158d8 <epcs_read_buffer+0xdc>
 20158d0:	e13ffc17 	ldw	r4,-16(fp)
 20158d4:	2015c080 	call	2015c08 <epcs_exit_4_bytes_mode>
 20158d8:	e0bfff17 	ldw	r2,-4(fp)
 20158dc:	e037883a 	mov	sp,fp
 20158e0:	dfc00117 	ldw	ra,4(sp)
 20158e4:	df000017 	ldw	fp,0(sp)
 20158e8:	dec00204 	addi	sp,sp,8
 20158ec:	f800283a 	ret

020158f0 <epcs_write_enable>:
 20158f0:	defff904 	addi	sp,sp,-28
 20158f4:	dfc00615 	stw	ra,24(sp)
 20158f8:	df000515 	stw	fp,20(sp)
 20158fc:	df000504 	addi	fp,sp,20
 2015900:	e13fff15 	stw	r4,-4(fp)
 2015904:	00800184 	movi	r2,6
 2015908:	e0bffe05 	stb	r2,-8(fp)
 201590c:	d8000015 	stw	zero,0(sp)
 2015910:	d8000115 	stw	zero,4(sp)
 2015914:	d8000215 	stw	zero,8(sp)
 2015918:	e13fff17 	ldw	r4,-4(fp)
 201591c:	000b883a 	mov	r5,zero
 2015920:	01800044 	movi	r6,1
 2015924:	e1fffe04 	addi	r7,fp,-8
 2015928:	201657c0 	call	201657c <alt_avalon_spi_command>
 201592c:	e037883a 	mov	sp,fp
 2015930:	dfc00117 	ldw	ra,4(sp)
 2015934:	df000017 	ldw	fp,0(sp)
 2015938:	dec00204 	addi	sp,sp,8
 201593c:	f800283a 	ret

02015940 <epcs_write_status_register>:
 2015940:	defff804 	addi	sp,sp,-32
 2015944:	dfc00715 	stw	ra,28(sp)
 2015948:	df000615 	stw	fp,24(sp)
 201594c:	df000604 	addi	fp,sp,24
 2015950:	e13ffe15 	stw	r4,-8(fp)
 2015954:	2805883a 	mov	r2,r5
 2015958:	e0bfff05 	stb	r2,-4(fp)
 201595c:	00800044 	movi	r2,1
 2015960:	e0bffd05 	stb	r2,-12(fp)
 2015964:	e0bfff03 	ldbu	r2,-4(fp)
 2015968:	e0bffd45 	stb	r2,-11(fp)
 201596c:	d8000015 	stw	zero,0(sp)
 2015970:	d8000115 	stw	zero,4(sp)
 2015974:	d8000215 	stw	zero,8(sp)
 2015978:	e13ffe17 	ldw	r4,-8(fp)
 201597c:	000b883a 	mov	r5,zero
 2015980:	01800084 	movi	r6,2
 2015984:	e1fffd04 	addi	r7,fp,-12
 2015988:	201657c0 	call	201657c <alt_avalon_spi_command>
 201598c:	e13ffe17 	ldw	r4,-8(fp)
 2015990:	20156cc0 	call	20156cc <epcs_await_wip_released>
 2015994:	e037883a 	mov	sp,fp
 2015998:	dfc00117 	ldw	ra,4(sp)
 201599c:	df000017 	ldw	fp,0(sp)
 20159a0:	dec00204 	addi	sp,sp,8
 20159a4:	f800283a 	ret

020159a8 <epcs_write_buffer>:
 20159a8:	defff404 	addi	sp,sp,-48
 20159ac:	dfc00b15 	stw	ra,44(sp)
 20159b0:	df000a15 	stw	fp,40(sp)
 20159b4:	df000a04 	addi	fp,sp,40
 20159b8:	e13ffc15 	stw	r4,-16(fp)
 20159bc:	e17ffd15 	stw	r5,-12(fp)
 20159c0:	e1bffe15 	stw	r6,-8(fp)
 20159c4:	e1ffff15 	stw	r7,-4(fp)
 20159c8:	00800084 	movi	r2,2
 20159cc:	e0bffa05 	stb	r2,-24(fp)
 20159d0:	e0800217 	ldw	r2,8(fp)
 20159d4:	10001026 	beq	r2,zero,2015a18 <epcs_write_buffer+0x70>
 20159d8:	e0bffd17 	ldw	r2,-12(fp)
 20159dc:	1004d63a 	srli	r2,r2,24
 20159e0:	e0bffa45 	stb	r2,-23(fp)
 20159e4:	e0bffd17 	ldw	r2,-12(fp)
 20159e8:	1005d43a 	srai	r2,r2,16
 20159ec:	e0bffa85 	stb	r2,-22(fp)
 20159f0:	e0bffd17 	ldw	r2,-12(fp)
 20159f4:	1005d23a 	srai	r2,r2,8
 20159f8:	e0bffac5 	stb	r2,-21(fp)
 20159fc:	e0bffd17 	ldw	r2,-12(fp)
 2015a00:	e0bffb05 	stb	r2,-20(fp)
 2015a04:	00800144 	movi	r2,5
 2015a08:	e0bff915 	stw	r2,-28(fp)
 2015a0c:	e13ffc17 	ldw	r4,-16(fp)
 2015a10:	2015bac0 	call	2015bac <epcs_enter_4_bytes_mode>
 2015a14:	00000a06 	br	2015a40 <epcs_write_buffer+0x98>
 2015a18:	e0bffd17 	ldw	r2,-12(fp)
 2015a1c:	1005d43a 	srai	r2,r2,16
 2015a20:	e0bffa45 	stb	r2,-23(fp)
 2015a24:	e0bffd17 	ldw	r2,-12(fp)
 2015a28:	1005d23a 	srai	r2,r2,8
 2015a2c:	e0bffa85 	stb	r2,-22(fp)
 2015a30:	e0bffd17 	ldw	r2,-12(fp)
 2015a34:	e0bffac5 	stb	r2,-21(fp)
 2015a38:	00800104 	movi	r2,4
 2015a3c:	e0bff915 	stw	r2,-28(fp)
 2015a40:	e13ffc17 	ldw	r4,-16(fp)
 2015a44:	20158f00 	call	20158f0 <epcs_write_enable>
 2015a48:	e0bffa04 	addi	r2,fp,-24
 2015a4c:	d8000015 	stw	zero,0(sp)
 2015a50:	d8000115 	stw	zero,4(sp)
 2015a54:	00c00044 	movi	r3,1
 2015a58:	d8c00215 	stw	r3,8(sp)
 2015a5c:	e13ffc17 	ldw	r4,-16(fp)
 2015a60:	000b883a 	mov	r5,zero
 2015a64:	e1bff917 	ldw	r6,-28(fp)
 2015a68:	100f883a 	mov	r7,r2
 2015a6c:	201657c0 	call	201657c <alt_avalon_spi_command>
 2015a70:	e0bfff17 	ldw	r2,-4(fp)
 2015a74:	d8000015 	stw	zero,0(sp)
 2015a78:	d8000115 	stw	zero,4(sp)
 2015a7c:	d8000215 	stw	zero,8(sp)
 2015a80:	e13ffc17 	ldw	r4,-16(fp)
 2015a84:	000b883a 	mov	r5,zero
 2015a88:	100d883a 	mov	r6,r2
 2015a8c:	e1fffe17 	ldw	r7,-8(fp)
 2015a90:	201657c0 	call	201657c <alt_avalon_spi_command>
 2015a94:	e13ffc17 	ldw	r4,-16(fp)
 2015a98:	20156cc0 	call	20156cc <epcs_await_wip_released>
 2015a9c:	e0800217 	ldw	r2,8(fp)
 2015aa0:	10000226 	beq	r2,zero,2015aac <epcs_write_buffer+0x104>
 2015aa4:	e13ffc17 	ldw	r4,-16(fp)
 2015aa8:	2015c080 	call	2015c08 <epcs_exit_4_bytes_mode>
 2015aac:	e0bfff17 	ldw	r2,-4(fp)
 2015ab0:	e037883a 	mov	sp,fp
 2015ab4:	dfc00117 	ldw	ra,4(sp)
 2015ab8:	df000017 	ldw	fp,0(sp)
 2015abc:	dec00204 	addi	sp,sp,8
 2015ac0:	f800283a 	ret

02015ac4 <epcs_read_electronic_signature>:
 2015ac4:	defff804 	addi	sp,sp,-32
 2015ac8:	dfc00715 	stw	ra,28(sp)
 2015acc:	df000615 	stw	fp,24(sp)
 2015ad0:	df000604 	addi	fp,sp,24
 2015ad4:	e13fff15 	stw	r4,-4(fp)
 2015ad8:	00bfeac4 	movi	r2,-85
 2015adc:	e0bffd05 	stb	r2,-12(fp)
 2015ae0:	e03ffd45 	stb	zero,-11(fp)
 2015ae4:	e03ffd85 	stb	zero,-10(fp)
 2015ae8:	e03ffdc5 	stb	zero,-9(fp)
 2015aec:	00800044 	movi	r2,1
 2015af0:	d8800015 	stw	r2,0(sp)
 2015af4:	e0bffe04 	addi	r2,fp,-8
 2015af8:	d8800115 	stw	r2,4(sp)
 2015afc:	d8000215 	stw	zero,8(sp)
 2015b00:	e13fff17 	ldw	r4,-4(fp)
 2015b04:	000b883a 	mov	r5,zero
 2015b08:	01800104 	movi	r6,4
 2015b0c:	e1fffd04 	addi	r7,fp,-12
 2015b10:	201657c0 	call	201657c <alt_avalon_spi_command>
 2015b14:	e0bffe03 	ldbu	r2,-8(fp)
 2015b18:	e037883a 	mov	sp,fp
 2015b1c:	dfc00117 	ldw	ra,4(sp)
 2015b20:	df000017 	ldw	fp,0(sp)
 2015b24:	dec00204 	addi	sp,sp,8
 2015b28:	f800283a 	ret

02015b2c <epcs_read_device_id>:
 2015b2c:	defff904 	addi	sp,sp,-28
 2015b30:	dfc00615 	stw	ra,24(sp)
 2015b34:	df000515 	stw	fp,20(sp)
 2015b38:	df000504 	addi	fp,sp,20
 2015b3c:	e13fff15 	stw	r4,-4(fp)
 2015b40:	00bfe7c4 	movi	r2,-97
 2015b44:	e0bffe05 	stb	r2,-8(fp)
 2015b48:	008000c4 	movi	r2,3
 2015b4c:	d8800015 	stw	r2,0(sp)
 2015b50:	e0bffe44 	addi	r2,fp,-7
 2015b54:	d8800115 	stw	r2,4(sp)
 2015b58:	d8000215 	stw	zero,8(sp)
 2015b5c:	e13fff17 	ldw	r4,-4(fp)
 2015b60:	000b883a 	mov	r5,zero
 2015b64:	01800044 	movi	r6,1
 2015b68:	e1fffe04 	addi	r7,fp,-8
 2015b6c:	201657c0 	call	201657c <alt_avalon_spi_command>
 2015b70:	e0bffe43 	ldbu	r2,-7(fp)
 2015b74:	10803fcc 	andi	r2,r2,255
 2015b78:	1006943a 	slli	r3,r2,16
 2015b7c:	e0bffe83 	ldbu	r2,-6(fp)
 2015b80:	10803fcc 	andi	r2,r2,255
 2015b84:	1004923a 	slli	r2,r2,8
 2015b88:	1886b03a 	or	r3,r3,r2
 2015b8c:	e0bffec3 	ldbu	r2,-5(fp)
 2015b90:	10803fcc 	andi	r2,r2,255
 2015b94:	1884b03a 	or	r2,r3,r2
 2015b98:	e037883a 	mov	sp,fp
 2015b9c:	dfc00117 	ldw	ra,4(sp)
 2015ba0:	df000017 	ldw	fp,0(sp)
 2015ba4:	dec00204 	addi	sp,sp,8
 2015ba8:	f800283a 	ret

02015bac <epcs_enter_4_bytes_mode>:
 2015bac:	defff904 	addi	sp,sp,-28
 2015bb0:	dfc00615 	stw	ra,24(sp)
 2015bb4:	df000515 	stw	fp,20(sp)
 2015bb8:	df000504 	addi	fp,sp,20
 2015bbc:	e13fff15 	stw	r4,-4(fp)
 2015bc0:	00bfedc4 	movi	r2,-73
 2015bc4:	e0bffe05 	stb	r2,-8(fp)
 2015bc8:	e13fff17 	ldw	r4,-4(fp)
 2015bcc:	20158f00 	call	20158f0 <epcs_write_enable>
 2015bd0:	d8000015 	stw	zero,0(sp)
 2015bd4:	d8000115 	stw	zero,4(sp)
 2015bd8:	d8000215 	stw	zero,8(sp)
 2015bdc:	e13fff17 	ldw	r4,-4(fp)
 2015be0:	000b883a 	mov	r5,zero
 2015be4:	01800044 	movi	r6,1
 2015be8:	e1fffe04 	addi	r7,fp,-8
 2015bec:	201657c0 	call	201657c <alt_avalon_spi_command>
 2015bf0:	0001883a 	nop
 2015bf4:	e037883a 	mov	sp,fp
 2015bf8:	dfc00117 	ldw	ra,4(sp)
 2015bfc:	df000017 	ldw	fp,0(sp)
 2015c00:	dec00204 	addi	sp,sp,8
 2015c04:	f800283a 	ret

02015c08 <epcs_exit_4_bytes_mode>:
 2015c08:	defff904 	addi	sp,sp,-28
 2015c0c:	dfc00615 	stw	ra,24(sp)
 2015c10:	df000515 	stw	fp,20(sp)
 2015c14:	df000504 	addi	fp,sp,20
 2015c18:	e13fff15 	stw	r4,-4(fp)
 2015c1c:	00bffa44 	movi	r2,-23
 2015c20:	e0bffe05 	stb	r2,-8(fp)
 2015c24:	e13fff17 	ldw	r4,-4(fp)
 2015c28:	20158f00 	call	20158f0 <epcs_write_enable>
 2015c2c:	d8000015 	stw	zero,0(sp)
 2015c30:	d8000115 	stw	zero,4(sp)
 2015c34:	d8000215 	stw	zero,8(sp)
 2015c38:	e13fff17 	ldw	r4,-4(fp)
 2015c3c:	000b883a 	mov	r5,zero
 2015c40:	01800044 	movi	r6,1
 2015c44:	e1fffe04 	addi	r7,fp,-8
 2015c48:	201657c0 	call	201657c <alt_avalon_spi_command>
 2015c4c:	0001883a 	nop
 2015c50:	e037883a 	mov	sp,fp
 2015c54:	dfc00117 	ldw	ra,4(sp)
 2015c58:	df000017 	ldw	fp,0(sp)
 2015c5c:	dec00204 	addi	sp,sp,8
 2015c60:	f800283a 	ret

02015c64 <alt_get_errno>:
 2015c64:	defffe04 	addi	sp,sp,-8
 2015c68:	dfc00115 	stw	ra,4(sp)
 2015c6c:	df000015 	stw	fp,0(sp)
 2015c70:	d839883a 	mov	fp,sp
 2015c74:	008080b4 	movhi	r2,514
 2015c78:	10836b04 	addi	r2,r2,3500
 2015c7c:	10800017 	ldw	r2,0(r2)
 2015c80:	10000526 	beq	r2,zero,2015c98 <alt_get_errno+0x34>
 2015c84:	008080b4 	movhi	r2,514
 2015c88:	10836b04 	addi	r2,r2,3500
 2015c8c:	10800017 	ldw	r2,0(r2)
 2015c90:	103ee83a 	callr	r2
 2015c94:	00000206 	br	2015ca0 <alt_get_errno+0x3c>
 2015c98:	008080b4 	movhi	r2,514
 2015c9c:	10837904 	addi	r2,r2,3556
 2015ca0:	e037883a 	mov	sp,fp
 2015ca4:	dfc00117 	ldw	ra,4(sp)
 2015ca8:	df000017 	ldw	fp,0(sp)
 2015cac:	dec00204 	addi	sp,sp,8
 2015cb0:	f800283a 	ret

02015cb4 <alt_dev_llist_insert>:
 2015cb4:	defffa04 	addi	sp,sp,-24
 2015cb8:	dfc00515 	stw	ra,20(sp)
 2015cbc:	df000415 	stw	fp,16(sp)
 2015cc0:	df000404 	addi	fp,sp,16
 2015cc4:	e13ffe15 	stw	r4,-8(fp)
 2015cc8:	e17fff15 	stw	r5,-4(fp)
 2015ccc:	e0bffe17 	ldw	r2,-8(fp)
 2015cd0:	10000326 	beq	r2,zero,2015ce0 <alt_dev_llist_insert+0x2c>
 2015cd4:	e0bffe17 	ldw	r2,-8(fp)
 2015cd8:	10800217 	ldw	r2,8(r2)
 2015cdc:	1000051e 	bne	r2,zero,2015cf4 <alt_dev_llist_insert+0x40>
 2015ce0:	2015c640 	call	2015c64 <alt_get_errno>
 2015ce4:	00c00584 	movi	r3,22
 2015ce8:	10c00015 	stw	r3,0(r2)
 2015cec:	00bffa84 	movi	r2,-22
 2015cf0:	00001306 	br	2015d40 <alt_dev_llist_insert+0x8c>
 2015cf4:	e0bffe17 	ldw	r2,-8(fp)
 2015cf8:	e0ffff17 	ldw	r3,-4(fp)
 2015cfc:	e0fffc15 	stw	r3,-16(fp)
 2015d00:	e0bffd15 	stw	r2,-12(fp)
 2015d04:	e0bffd17 	ldw	r2,-12(fp)
 2015d08:	e0fffc17 	ldw	r3,-16(fp)
 2015d0c:	10c00115 	stw	r3,4(r2)
 2015d10:	e0bffc17 	ldw	r2,-16(fp)
 2015d14:	10c00017 	ldw	r3,0(r2)
 2015d18:	e0bffd17 	ldw	r2,-12(fp)
 2015d1c:	10c00015 	stw	r3,0(r2)
 2015d20:	e0bffc17 	ldw	r2,-16(fp)
 2015d24:	10800017 	ldw	r2,0(r2)
 2015d28:	e0fffd17 	ldw	r3,-12(fp)
 2015d2c:	10c00115 	stw	r3,4(r2)
 2015d30:	e0bffc17 	ldw	r2,-16(fp)
 2015d34:	e0fffd17 	ldw	r3,-12(fp)
 2015d38:	10c00015 	stw	r3,0(r2)
 2015d3c:	0005883a 	mov	r2,zero
 2015d40:	e037883a 	mov	sp,fp
 2015d44:	dfc00117 	ldw	ra,4(sp)
 2015d48:	df000017 	ldw	fp,0(sp)
 2015d4c:	dec00204 	addi	sp,sp,8
 2015d50:	f800283a 	ret

02015d54 <_do_ctors>:
 2015d54:	defffd04 	addi	sp,sp,-12
 2015d58:	dfc00215 	stw	ra,8(sp)
 2015d5c:	df000115 	stw	fp,4(sp)
 2015d60:	df000104 	addi	fp,sp,4
 2015d64:	00808074 	movhi	r2,513
 2015d68:	109ad504 	addi	r2,r2,27476
 2015d6c:	e0bfff15 	stw	r2,-4(fp)
 2015d70:	00000606 	br	2015d8c <_do_ctors+0x38>
 2015d74:	e0bfff17 	ldw	r2,-4(fp)
 2015d78:	10800017 	ldw	r2,0(r2)
 2015d7c:	103ee83a 	callr	r2
 2015d80:	e0bfff17 	ldw	r2,-4(fp)
 2015d84:	10bfff04 	addi	r2,r2,-4
 2015d88:	e0bfff15 	stw	r2,-4(fp)
 2015d8c:	e0ffff17 	ldw	r3,-4(fp)
 2015d90:	00808074 	movhi	r2,513
 2015d94:	109ad604 	addi	r2,r2,27480
 2015d98:	18bff62e 	bgeu	r3,r2,2015d74 <__reset+0xfe00cd74>
 2015d9c:	e037883a 	mov	sp,fp
 2015da0:	dfc00117 	ldw	ra,4(sp)
 2015da4:	df000017 	ldw	fp,0(sp)
 2015da8:	dec00204 	addi	sp,sp,8
 2015dac:	f800283a 	ret

02015db0 <_do_dtors>:
 2015db0:	defffd04 	addi	sp,sp,-12
 2015db4:	dfc00215 	stw	ra,8(sp)
 2015db8:	df000115 	stw	fp,4(sp)
 2015dbc:	df000104 	addi	fp,sp,4
 2015dc0:	00808074 	movhi	r2,513
 2015dc4:	109ad504 	addi	r2,r2,27476
 2015dc8:	e0bfff15 	stw	r2,-4(fp)
 2015dcc:	00000606 	br	2015de8 <_do_dtors+0x38>
 2015dd0:	e0bfff17 	ldw	r2,-4(fp)
 2015dd4:	10800017 	ldw	r2,0(r2)
 2015dd8:	103ee83a 	callr	r2
 2015ddc:	e0bfff17 	ldw	r2,-4(fp)
 2015de0:	10bfff04 	addi	r2,r2,-4
 2015de4:	e0bfff15 	stw	r2,-4(fp)
 2015de8:	e0ffff17 	ldw	r3,-4(fp)
 2015dec:	00808074 	movhi	r2,513
 2015df0:	109ad604 	addi	r2,r2,27480
 2015df4:	18bff62e 	bgeu	r3,r2,2015dd0 <__reset+0xfe00cdd0>
 2015df8:	e037883a 	mov	sp,fp
 2015dfc:	dfc00117 	ldw	ra,4(sp)
 2015e00:	df000017 	ldw	fp,0(sp)
 2015e04:	dec00204 	addi	sp,sp,8
 2015e08:	f800283a 	ret

02015e0c <alt_find_dev>:
 2015e0c:	defffa04 	addi	sp,sp,-24
 2015e10:	dfc00515 	stw	ra,20(sp)
 2015e14:	df000415 	stw	fp,16(sp)
 2015e18:	df000404 	addi	fp,sp,16
 2015e1c:	e13ffe15 	stw	r4,-8(fp)
 2015e20:	e17fff15 	stw	r5,-4(fp)
 2015e24:	e0bfff17 	ldw	r2,-4(fp)
 2015e28:	10800017 	ldw	r2,0(r2)
 2015e2c:	e0bffc15 	stw	r2,-16(fp)
 2015e30:	e13ffe17 	ldw	r4,-8(fp)
 2015e34:	200e6380 	call	200e638 <strlen>
 2015e38:	10800044 	addi	r2,r2,1
 2015e3c:	e0bffd15 	stw	r2,-12(fp)
 2015e40:	00000d06 	br	2015e78 <alt_find_dev+0x6c>
 2015e44:	e0bffc17 	ldw	r2,-16(fp)
 2015e48:	10c00217 	ldw	r3,8(r2)
 2015e4c:	e0bffd17 	ldw	r2,-12(fp)
 2015e50:	1809883a 	mov	r4,r3
 2015e54:	e17ffe17 	ldw	r5,-8(fp)
 2015e58:	100d883a 	mov	r6,r2
 2015e5c:	20086880 	call	2008688 <memcmp>
 2015e60:	1000021e 	bne	r2,zero,2015e6c <alt_find_dev+0x60>
 2015e64:	e0bffc17 	ldw	r2,-16(fp)
 2015e68:	00000706 	br	2015e88 <alt_find_dev+0x7c>
 2015e6c:	e0bffc17 	ldw	r2,-16(fp)
 2015e70:	10800017 	ldw	r2,0(r2)
 2015e74:	e0bffc15 	stw	r2,-16(fp)
 2015e78:	e0fffc17 	ldw	r3,-16(fp)
 2015e7c:	e0bfff17 	ldw	r2,-4(fp)
 2015e80:	18bff01e 	bne	r3,r2,2015e44 <__reset+0xfe00ce44>
 2015e84:	0005883a 	mov	r2,zero
 2015e88:	e037883a 	mov	sp,fp
 2015e8c:	dfc00117 	ldw	ra,4(sp)
 2015e90:	df000017 	ldw	fp,0(sp)
 2015e94:	dec00204 	addi	sp,sp,8
 2015e98:	f800283a 	ret

02015e9c <alt_find_file>:
 2015e9c:	defffb04 	addi	sp,sp,-20
 2015ea0:	dfc00415 	stw	ra,16(sp)
 2015ea4:	df000315 	stw	fp,12(sp)
 2015ea8:	df000304 	addi	fp,sp,12
 2015eac:	e13fff15 	stw	r4,-4(fp)
 2015eb0:	008080b4 	movhi	r2,514
 2015eb4:	10836604 	addi	r2,r2,3480
 2015eb8:	10800017 	ldw	r2,0(r2)
 2015ebc:	e0bffd15 	stw	r2,-12(fp)
 2015ec0:	00003106 	br	2015f88 <alt_find_file+0xec>
 2015ec4:	e0bffd17 	ldw	r2,-12(fp)
 2015ec8:	10800217 	ldw	r2,8(r2)
 2015ecc:	1009883a 	mov	r4,r2
 2015ed0:	200e6380 	call	200e638 <strlen>
 2015ed4:	e0bffe15 	stw	r2,-8(fp)
 2015ed8:	e0bffd17 	ldw	r2,-12(fp)
 2015edc:	10c00217 	ldw	r3,8(r2)
 2015ee0:	e0bffe17 	ldw	r2,-8(fp)
 2015ee4:	10bfffc4 	addi	r2,r2,-1
 2015ee8:	1885883a 	add	r2,r3,r2
 2015eec:	10800003 	ldbu	r2,0(r2)
 2015ef0:	10803fcc 	andi	r2,r2,255
 2015ef4:	1080201c 	xori	r2,r2,128
 2015ef8:	10bfe004 	addi	r2,r2,-128
 2015efc:	10800bd8 	cmpnei	r2,r2,47
 2015f00:	1000031e 	bne	r2,zero,2015f10 <alt_find_file+0x74>
 2015f04:	e0bffe17 	ldw	r2,-8(fp)
 2015f08:	10bfffc4 	addi	r2,r2,-1
 2015f0c:	e0bffe15 	stw	r2,-8(fp)
 2015f10:	e0bffe17 	ldw	r2,-8(fp)
 2015f14:	e0ffff17 	ldw	r3,-4(fp)
 2015f18:	1885883a 	add	r2,r3,r2
 2015f1c:	10800003 	ldbu	r2,0(r2)
 2015f20:	10803fcc 	andi	r2,r2,255
 2015f24:	1080201c 	xori	r2,r2,128
 2015f28:	10bfe004 	addi	r2,r2,-128
 2015f2c:	10800be0 	cmpeqi	r2,r2,47
 2015f30:	1000081e 	bne	r2,zero,2015f54 <alt_find_file+0xb8>
 2015f34:	e0bffe17 	ldw	r2,-8(fp)
 2015f38:	e0ffff17 	ldw	r3,-4(fp)
 2015f3c:	1885883a 	add	r2,r3,r2
 2015f40:	10800003 	ldbu	r2,0(r2)
 2015f44:	10803fcc 	andi	r2,r2,255
 2015f48:	1080201c 	xori	r2,r2,128
 2015f4c:	10bfe004 	addi	r2,r2,-128
 2015f50:	10000a1e 	bne	r2,zero,2015f7c <alt_find_file+0xe0>
 2015f54:	e0bffd17 	ldw	r2,-12(fp)
 2015f58:	10c00217 	ldw	r3,8(r2)
 2015f5c:	e0bffe17 	ldw	r2,-8(fp)
 2015f60:	1809883a 	mov	r4,r3
 2015f64:	e17fff17 	ldw	r5,-4(fp)
 2015f68:	100d883a 	mov	r6,r2
 2015f6c:	20086880 	call	2008688 <memcmp>
 2015f70:	1000021e 	bne	r2,zero,2015f7c <alt_find_file+0xe0>
 2015f74:	e0bffd17 	ldw	r2,-12(fp)
 2015f78:	00000806 	br	2015f9c <alt_find_file+0x100>
 2015f7c:	e0bffd17 	ldw	r2,-12(fp)
 2015f80:	10800017 	ldw	r2,0(r2)
 2015f84:	e0bffd15 	stw	r2,-12(fp)
 2015f88:	e0fffd17 	ldw	r3,-12(fp)
 2015f8c:	008080b4 	movhi	r2,514
 2015f90:	10836604 	addi	r2,r2,3480
 2015f94:	18bfcb1e 	bne	r3,r2,2015ec4 <__reset+0xfe00cec4>
 2015f98:	0005883a 	mov	r2,zero
 2015f9c:	e037883a 	mov	sp,fp
 2015fa0:	dfc00117 	ldw	ra,4(sp)
 2015fa4:	df000017 	ldw	fp,0(sp)
 2015fa8:	dec00204 	addi	sp,sp,8
 2015fac:	f800283a 	ret

02015fb0 <alt_flash_open_dev>:
 2015fb0:	defffc04 	addi	sp,sp,-16
 2015fb4:	dfc00315 	stw	ra,12(sp)
 2015fb8:	df000215 	stw	fp,8(sp)
 2015fbc:	df000204 	addi	fp,sp,8
 2015fc0:	e13fff15 	stw	r4,-4(fp)
 2015fc4:	e13fff17 	ldw	r4,-4(fp)
 2015fc8:	d1601104 	addi	r5,gp,-32700
 2015fcc:	2015e0c0 	call	2015e0c <alt_find_dev>
 2015fd0:	e0bffe15 	stw	r2,-8(fp)
 2015fd4:	e0bffe17 	ldw	r2,-8(fp)
 2015fd8:	10000926 	beq	r2,zero,2016000 <alt_flash_open_dev+0x50>
 2015fdc:	e0bffe17 	ldw	r2,-8(fp)
 2015fe0:	10800317 	ldw	r2,12(r2)
 2015fe4:	10000626 	beq	r2,zero,2016000 <alt_flash_open_dev+0x50>
 2015fe8:	e0bffe17 	ldw	r2,-8(fp)
 2015fec:	10800317 	ldw	r2,12(r2)
 2015ff0:	e13ffe17 	ldw	r4,-8(fp)
 2015ff4:	e17fff17 	ldw	r5,-4(fp)
 2015ff8:	103ee83a 	callr	r2
 2015ffc:	00000106 	br	2016004 <alt_flash_open_dev+0x54>
 2016000:	e0bffe17 	ldw	r2,-8(fp)
 2016004:	e037883a 	mov	sp,fp
 2016008:	dfc00117 	ldw	ra,4(sp)
 201600c:	df000017 	ldw	fp,0(sp)
 2016010:	dec00204 	addi	sp,sp,8
 2016014:	f800283a 	ret

02016018 <alt_flash_close_dev>:
 2016018:	defffd04 	addi	sp,sp,-12
 201601c:	dfc00215 	stw	ra,8(sp)
 2016020:	df000115 	stw	fp,4(sp)
 2016024:	df000104 	addi	fp,sp,4
 2016028:	e13fff15 	stw	r4,-4(fp)
 201602c:	e0bfff17 	ldw	r2,-4(fp)
 2016030:	10000726 	beq	r2,zero,2016050 <alt_flash_close_dev+0x38>
 2016034:	e0bfff17 	ldw	r2,-4(fp)
 2016038:	10800417 	ldw	r2,16(r2)
 201603c:	10000426 	beq	r2,zero,2016050 <alt_flash_close_dev+0x38>
 2016040:	e0bfff17 	ldw	r2,-4(fp)
 2016044:	10800417 	ldw	r2,16(r2)
 2016048:	e13fff17 	ldw	r4,-4(fp)
 201604c:	103ee83a 	callr	r2
 2016050:	0001883a 	nop
 2016054:	e037883a 	mov	sp,fp
 2016058:	dfc00117 	ldw	ra,4(sp)
 201605c:	df000017 	ldw	fp,0(sp)
 2016060:	dec00204 	addi	sp,sp,8
 2016064:	f800283a 	ret

02016068 <alt_get_fd>:
 2016068:	defffa04 	addi	sp,sp,-24
 201606c:	dfc00515 	stw	ra,20(sp)
 2016070:	df000415 	stw	fp,16(sp)
 2016074:	dc000315 	stw	r16,12(sp)
 2016078:	df000404 	addi	fp,sp,16
 201607c:	e13ffe15 	stw	r4,-8(fp)
 2016080:	00bffa04 	movi	r2,-24
 2016084:	e0bffd15 	stw	r2,-12(fp)
 2016088:	e03ffc15 	stw	zero,-16(fp)
 201608c:	00002106 	br	2016114 <alt_get_fd+0xac>
 2016090:	040080b4 	movhi	r16,514
 2016094:	843e8304 	addi	r16,r16,-1524
 2016098:	e0bffc17 	ldw	r2,-16(fp)
 201609c:	1009883a 	mov	r4,r2
 20160a0:	01400304 	movi	r5,12
 20160a4:	20059200 	call	2005920 <__mulsi3>
 20160a8:	8085883a 	add	r2,r16,r2
 20160ac:	10800017 	ldw	r2,0(r2)
 20160b0:	1000151e 	bne	r2,zero,2016108 <alt_get_fd+0xa0>
 20160b4:	040080b4 	movhi	r16,514
 20160b8:	843e8304 	addi	r16,r16,-1524
 20160bc:	e0bffc17 	ldw	r2,-16(fp)
 20160c0:	1009883a 	mov	r4,r2
 20160c4:	01400304 	movi	r5,12
 20160c8:	20059200 	call	2005920 <__mulsi3>
 20160cc:	8085883a 	add	r2,r16,r2
 20160d0:	e0fffe17 	ldw	r3,-8(fp)
 20160d4:	10c00015 	stw	r3,0(r2)
 20160d8:	008080b4 	movhi	r2,514
 20160dc:	10836a04 	addi	r2,r2,3496
 20160e0:	10c00017 	ldw	r3,0(r2)
 20160e4:	e0bffc17 	ldw	r2,-16(fp)
 20160e8:	1880040e 	bge	r3,r2,20160fc <alt_get_fd+0x94>
 20160ec:	008080b4 	movhi	r2,514
 20160f0:	10836a04 	addi	r2,r2,3496
 20160f4:	e0fffc17 	ldw	r3,-16(fp)
 20160f8:	10c00015 	stw	r3,0(r2)
 20160fc:	e0bffc17 	ldw	r2,-16(fp)
 2016100:	e0bffd15 	stw	r2,-12(fp)
 2016104:	00000606 	br	2016120 <alt_get_fd+0xb8>
 2016108:	e0bffc17 	ldw	r2,-16(fp)
 201610c:	10800044 	addi	r2,r2,1
 2016110:	e0bffc15 	stw	r2,-16(fp)
 2016114:	e0bffc17 	ldw	r2,-16(fp)
 2016118:	10800810 	cmplti	r2,r2,32
 201611c:	103fdc1e 	bne	r2,zero,2016090 <__reset+0xfe00d090>
 2016120:	e0bffd17 	ldw	r2,-12(fp)
 2016124:	e6ffff04 	addi	sp,fp,-4
 2016128:	dfc00217 	ldw	ra,8(sp)
 201612c:	df000117 	ldw	fp,4(sp)
 2016130:	dc000017 	ldw	r16,0(sp)
 2016134:	dec00304 	addi	sp,sp,12
 2016138:	f800283a 	ret

0201613c <alt_ic_isr_register>:
 201613c:	defff904 	addi	sp,sp,-28
 2016140:	dfc00615 	stw	ra,24(sp)
 2016144:	df000515 	stw	fp,20(sp)
 2016148:	df000504 	addi	fp,sp,20
 201614c:	e13ffc15 	stw	r4,-16(fp)
 2016150:	e17ffd15 	stw	r5,-12(fp)
 2016154:	e1bffe15 	stw	r6,-8(fp)
 2016158:	e1ffff15 	stw	r7,-4(fp)
 201615c:	e0800217 	ldw	r2,8(fp)
 2016160:	d8800015 	stw	r2,0(sp)
 2016164:	e13ffc17 	ldw	r4,-16(fp)
 2016168:	e17ffd17 	ldw	r5,-12(fp)
 201616c:	e1bffe17 	ldw	r6,-8(fp)
 2016170:	e1ffff17 	ldw	r7,-4(fp)
 2016174:	20163140 	call	2016314 <alt_iic_isr_register>
 2016178:	e037883a 	mov	sp,fp
 201617c:	dfc00117 	ldw	ra,4(sp)
 2016180:	df000017 	ldw	fp,0(sp)
 2016184:	dec00204 	addi	sp,sp,8
 2016188:	f800283a 	ret

0201618c <alt_ic_irq_enable>:
 201618c:	defff904 	addi	sp,sp,-28
 2016190:	df000615 	stw	fp,24(sp)
 2016194:	df000604 	addi	fp,sp,24
 2016198:	e13ffe15 	stw	r4,-8(fp)
 201619c:	e17fff15 	stw	r5,-4(fp)
 20161a0:	e0bfff17 	ldw	r2,-4(fp)
 20161a4:	e0bffa15 	stw	r2,-24(fp)
 20161a8:	0005303a 	rdctl	r2,status
 20161ac:	e0bffb15 	stw	r2,-20(fp)
 20161b0:	e0fffb17 	ldw	r3,-20(fp)
 20161b4:	00bfff84 	movi	r2,-2
 20161b8:	1884703a 	and	r2,r3,r2
 20161bc:	1001703a 	wrctl	status,r2
 20161c0:	e0bffb17 	ldw	r2,-20(fp)
 20161c4:	e0bffc15 	stw	r2,-16(fp)
 20161c8:	e0bffa17 	ldw	r2,-24(fp)
 20161cc:	00c00044 	movi	r3,1
 20161d0:	1884983a 	sll	r2,r3,r2
 20161d4:	1007883a 	mov	r3,r2
 20161d8:	008080b4 	movhi	r2,514
 20161dc:	10838204 	addi	r2,r2,3592
 20161e0:	10800017 	ldw	r2,0(r2)
 20161e4:	1886b03a 	or	r3,r3,r2
 20161e8:	008080b4 	movhi	r2,514
 20161ec:	10838204 	addi	r2,r2,3592
 20161f0:	10c00015 	stw	r3,0(r2)
 20161f4:	008080b4 	movhi	r2,514
 20161f8:	10838204 	addi	r2,r2,3592
 20161fc:	10800017 	ldw	r2,0(r2)
 2016200:	100170fa 	wrctl	ienable,r2
 2016204:	e0bffc17 	ldw	r2,-16(fp)
 2016208:	e0bffd15 	stw	r2,-12(fp)
 201620c:	e0bffd17 	ldw	r2,-12(fp)
 2016210:	1001703a 	wrctl	status,r2
 2016214:	0005883a 	mov	r2,zero
 2016218:	e037883a 	mov	sp,fp
 201621c:	df000017 	ldw	fp,0(sp)
 2016220:	dec00104 	addi	sp,sp,4
 2016224:	f800283a 	ret

02016228 <alt_ic_irq_disable>:
 2016228:	defff904 	addi	sp,sp,-28
 201622c:	df000615 	stw	fp,24(sp)
 2016230:	df000604 	addi	fp,sp,24
 2016234:	e13ffe15 	stw	r4,-8(fp)
 2016238:	e17fff15 	stw	r5,-4(fp)
 201623c:	e0bfff17 	ldw	r2,-4(fp)
 2016240:	e0bffa15 	stw	r2,-24(fp)
 2016244:	0005303a 	rdctl	r2,status
 2016248:	e0bffb15 	stw	r2,-20(fp)
 201624c:	e0fffb17 	ldw	r3,-20(fp)
 2016250:	00bfff84 	movi	r2,-2
 2016254:	1884703a 	and	r2,r3,r2
 2016258:	1001703a 	wrctl	status,r2
 201625c:	e0bffb17 	ldw	r2,-20(fp)
 2016260:	e0bffc15 	stw	r2,-16(fp)
 2016264:	e0bffa17 	ldw	r2,-24(fp)
 2016268:	00c00044 	movi	r3,1
 201626c:	1884983a 	sll	r2,r3,r2
 2016270:	0084303a 	nor	r2,zero,r2
 2016274:	1007883a 	mov	r3,r2
 2016278:	008080b4 	movhi	r2,514
 201627c:	10838204 	addi	r2,r2,3592
 2016280:	10800017 	ldw	r2,0(r2)
 2016284:	1886703a 	and	r3,r3,r2
 2016288:	008080b4 	movhi	r2,514
 201628c:	10838204 	addi	r2,r2,3592
 2016290:	10c00015 	stw	r3,0(r2)
 2016294:	008080b4 	movhi	r2,514
 2016298:	10838204 	addi	r2,r2,3592
 201629c:	10800017 	ldw	r2,0(r2)
 20162a0:	100170fa 	wrctl	ienable,r2
 20162a4:	e0bffc17 	ldw	r2,-16(fp)
 20162a8:	e0bffd15 	stw	r2,-12(fp)
 20162ac:	e0bffd17 	ldw	r2,-12(fp)
 20162b0:	1001703a 	wrctl	status,r2
 20162b4:	0005883a 	mov	r2,zero
 20162b8:	e037883a 	mov	sp,fp
 20162bc:	df000017 	ldw	fp,0(sp)
 20162c0:	dec00104 	addi	sp,sp,4
 20162c4:	f800283a 	ret

020162c8 <alt_ic_irq_enabled>:
 20162c8:	defffc04 	addi	sp,sp,-16
 20162cc:	df000315 	stw	fp,12(sp)
 20162d0:	df000304 	addi	fp,sp,12
 20162d4:	e13ffe15 	stw	r4,-8(fp)
 20162d8:	e17fff15 	stw	r5,-4(fp)
 20162dc:	000530fa 	rdctl	r2,ienable
 20162e0:	e0bffd15 	stw	r2,-12(fp)
 20162e4:	e0bfff17 	ldw	r2,-4(fp)
 20162e8:	00c00044 	movi	r3,1
 20162ec:	1884983a 	sll	r2,r3,r2
 20162f0:	1007883a 	mov	r3,r2
 20162f4:	e0bffd17 	ldw	r2,-12(fp)
 20162f8:	1884703a 	and	r2,r3,r2
 20162fc:	1004c03a 	cmpne	r2,r2,zero
 2016300:	10803fcc 	andi	r2,r2,255
 2016304:	e037883a 	mov	sp,fp
 2016308:	df000017 	ldw	fp,0(sp)
 201630c:	dec00104 	addi	sp,sp,4
 2016310:	f800283a 	ret

02016314 <alt_iic_isr_register>:
 2016314:	defff504 	addi	sp,sp,-44
 2016318:	dfc00a15 	stw	ra,40(sp)
 201631c:	df000915 	stw	fp,36(sp)
 2016320:	df000904 	addi	fp,sp,36
 2016324:	e13ffc15 	stw	r4,-16(fp)
 2016328:	e17ffd15 	stw	r5,-12(fp)
 201632c:	e1bffe15 	stw	r6,-8(fp)
 2016330:	e1ffff15 	stw	r7,-4(fp)
 2016334:	00bffa84 	movi	r2,-22
 2016338:	e0bff715 	stw	r2,-36(fp)
 201633c:	e0bffd17 	ldw	r2,-12(fp)
 2016340:	e0bff815 	stw	r2,-32(fp)
 2016344:	e0bff817 	ldw	r2,-32(fp)
 2016348:	10800808 	cmpgei	r2,r2,32
 201634c:	1000271e 	bne	r2,zero,20163ec <alt_iic_isr_register+0xd8>
 2016350:	0005303a 	rdctl	r2,status
 2016354:	e0bffa15 	stw	r2,-24(fp)
 2016358:	e0fffa17 	ldw	r3,-24(fp)
 201635c:	00bfff84 	movi	r2,-2
 2016360:	1884703a 	and	r2,r3,r2
 2016364:	1001703a 	wrctl	status,r2
 2016368:	e0bffa17 	ldw	r2,-24(fp)
 201636c:	e0bff915 	stw	r2,-28(fp)
 2016370:	00c080b4 	movhi	r3,514
 2016374:	18c39404 	addi	r3,r3,3664
 2016378:	e0bff817 	ldw	r2,-32(fp)
 201637c:	100490fa 	slli	r2,r2,3
 2016380:	1885883a 	add	r2,r3,r2
 2016384:	e0fffe17 	ldw	r3,-8(fp)
 2016388:	10c00015 	stw	r3,0(r2)
 201638c:	00c080b4 	movhi	r3,514
 2016390:	18c39404 	addi	r3,r3,3664
 2016394:	e0bff817 	ldw	r2,-32(fp)
 2016398:	100490fa 	slli	r2,r2,3
 201639c:	1885883a 	add	r2,r3,r2
 20163a0:	10800104 	addi	r2,r2,4
 20163a4:	e0ffff17 	ldw	r3,-4(fp)
 20163a8:	10c00015 	stw	r3,0(r2)
 20163ac:	e0bffe17 	ldw	r2,-8(fp)
 20163b0:	10000526 	beq	r2,zero,20163c8 <alt_iic_isr_register+0xb4>
 20163b4:	e0bff817 	ldw	r2,-32(fp)
 20163b8:	e13ffc17 	ldw	r4,-16(fp)
 20163bc:	100b883a 	mov	r5,r2
 20163c0:	201618c0 	call	201618c <alt_ic_irq_enable>
 20163c4:	00000406 	br	20163d8 <alt_iic_isr_register+0xc4>
 20163c8:	e0bff817 	ldw	r2,-32(fp)
 20163cc:	e13ffc17 	ldw	r4,-16(fp)
 20163d0:	100b883a 	mov	r5,r2
 20163d4:	20162280 	call	2016228 <alt_ic_irq_disable>
 20163d8:	e0bff715 	stw	r2,-36(fp)
 20163dc:	e0bff917 	ldw	r2,-28(fp)
 20163e0:	e0bffb15 	stw	r2,-20(fp)
 20163e4:	e0bffb17 	ldw	r2,-20(fp)
 20163e8:	1001703a 	wrctl	status,r2
 20163ec:	e0bff717 	ldw	r2,-36(fp)
 20163f0:	e037883a 	mov	sp,fp
 20163f4:	dfc00117 	ldw	ra,4(sp)
 20163f8:	df000017 	ldw	fp,0(sp)
 20163fc:	dec00204 	addi	sp,sp,8
 2016400:	f800283a 	ret

02016404 <alt_open_fd>:
 2016404:	defff804 	addi	sp,sp,-32
 2016408:	dfc00715 	stw	ra,28(sp)
 201640c:	df000615 	stw	fp,24(sp)
 2016410:	dc000515 	stw	r16,20(sp)
 2016414:	df000604 	addi	fp,sp,24
 2016418:	e13ffb15 	stw	r4,-20(fp)
 201641c:	e17ffc15 	stw	r5,-16(fp)
 2016420:	e1bffd15 	stw	r6,-12(fp)
 2016424:	e1fffe15 	stw	r7,-8(fp)
 2016428:	e13ffc17 	ldw	r4,-16(fp)
 201642c:	e17ffd17 	ldw	r5,-12(fp)
 2016430:	e1bffe17 	ldw	r6,-8(fp)
 2016434:	2012f740 	call	2012f74 <open>
 2016438:	e0bffa15 	stw	r2,-24(fp)
 201643c:	e0bffa17 	ldw	r2,-24(fp)
 2016440:	10002216 	blt	r2,zero,20164cc <alt_open_fd+0xc8>
 2016444:	040080b4 	movhi	r16,514
 2016448:	843e8304 	addi	r16,r16,-1524
 201644c:	e0bffa17 	ldw	r2,-24(fp)
 2016450:	1009883a 	mov	r4,r2
 2016454:	01400304 	movi	r5,12
 2016458:	20059200 	call	2005920 <__mulsi3>
 201645c:	8085883a 	add	r2,r16,r2
 2016460:	10c00017 	ldw	r3,0(r2)
 2016464:	e0bffb17 	ldw	r2,-20(fp)
 2016468:	10c00015 	stw	r3,0(r2)
 201646c:	040080b4 	movhi	r16,514
 2016470:	843e8304 	addi	r16,r16,-1524
 2016474:	e0bffa17 	ldw	r2,-24(fp)
 2016478:	1009883a 	mov	r4,r2
 201647c:	01400304 	movi	r5,12
 2016480:	20059200 	call	2005920 <__mulsi3>
 2016484:	8085883a 	add	r2,r16,r2
 2016488:	10800104 	addi	r2,r2,4
 201648c:	10c00017 	ldw	r3,0(r2)
 2016490:	e0bffb17 	ldw	r2,-20(fp)
 2016494:	10c00115 	stw	r3,4(r2)
 2016498:	040080b4 	movhi	r16,514
 201649c:	843e8304 	addi	r16,r16,-1524
 20164a0:	e0bffa17 	ldw	r2,-24(fp)
 20164a4:	1009883a 	mov	r4,r2
 20164a8:	01400304 	movi	r5,12
 20164ac:	20059200 	call	2005920 <__mulsi3>
 20164b0:	8085883a 	add	r2,r16,r2
 20164b4:	10800204 	addi	r2,r2,8
 20164b8:	10c00017 	ldw	r3,0(r2)
 20164bc:	e0bffb17 	ldw	r2,-20(fp)
 20164c0:	10c00215 	stw	r3,8(r2)
 20164c4:	e13ffa17 	ldw	r4,-24(fp)
 20164c8:	20132180 	call	2013218 <alt_release_fd>
 20164cc:	e6ffff04 	addi	sp,fp,-4
 20164d0:	dfc00217 	ldw	ra,8(sp)
 20164d4:	df000117 	ldw	fp,4(sp)
 20164d8:	dc000017 	ldw	r16,0(sp)
 20164dc:	dec00304 	addi	sp,sp,12
 20164e0:	f800283a 	ret

020164e4 <alt_io_redirect>:
 20164e4:	defffb04 	addi	sp,sp,-20
 20164e8:	dfc00415 	stw	ra,16(sp)
 20164ec:	df000315 	stw	fp,12(sp)
 20164f0:	df000304 	addi	fp,sp,12
 20164f4:	e13ffd15 	stw	r4,-12(fp)
 20164f8:	e17ffe15 	stw	r5,-8(fp)
 20164fc:	e1bfff15 	stw	r6,-4(fp)
 2016500:	010080b4 	movhi	r4,514
 2016504:	213e8604 	addi	r4,r4,-1512
 2016508:	e17ffd17 	ldw	r5,-12(fp)
 201650c:	01800044 	movi	r6,1
 2016510:	01c07fc4 	movi	r7,511
 2016514:	20164040 	call	2016404 <alt_open_fd>
 2016518:	010080b4 	movhi	r4,514
 201651c:	213e8304 	addi	r4,r4,-1524
 2016520:	e17ffe17 	ldw	r5,-8(fp)
 2016524:	000d883a 	mov	r6,zero
 2016528:	01c07fc4 	movi	r7,511
 201652c:	20164040 	call	2016404 <alt_open_fd>
 2016530:	010080b4 	movhi	r4,514
 2016534:	213e8904 	addi	r4,r4,-1500
 2016538:	e17fff17 	ldw	r5,-4(fp)
 201653c:	01800044 	movi	r6,1
 2016540:	01c07fc4 	movi	r7,511
 2016544:	20164040 	call	2016404 <alt_open_fd>
 2016548:	e037883a 	mov	sp,fp
 201654c:	dfc00117 	ldw	ra,4(sp)
 2016550:	df000017 	ldw	fp,0(sp)
 2016554:	dec00204 	addi	sp,sp,8
 2016558:	f800283a 	ret

0201655c <altera_nios2_gen2_irq_init>:
 201655c:	deffff04 	addi	sp,sp,-4
 2016560:	df000015 	stw	fp,0(sp)
 2016564:	d839883a 	mov	fp,sp
 2016568:	000170fa 	wrctl	ienable,zero
 201656c:	e037883a 	mov	sp,fp
 2016570:	df000017 	ldw	fp,0(sp)
 2016574:	dec00104 	addi	sp,sp,4
 2016578:	f800283a 	ret

0201657c <alt_avalon_spi_command>:
 201657c:	defff404 	addi	sp,sp,-48
 2016580:	df000b15 	stw	fp,44(sp)
 2016584:	df000b04 	addi	fp,sp,44
 2016588:	e13ffc15 	stw	r4,-16(fp)
 201658c:	e17ffd15 	stw	r5,-12(fp)
 2016590:	e1bffe15 	stw	r6,-8(fp)
 2016594:	e1ffff15 	stw	r7,-4(fp)
 2016598:	e0ffff17 	ldw	r3,-4(fp)
 201659c:	e0bffe17 	ldw	r2,-8(fp)
 20165a0:	1885883a 	add	r2,r3,r2
 20165a4:	e0bff815 	stw	r2,-32(fp)
 20165a8:	e0c00217 	ldw	r3,8(fp)
 20165ac:	e0800117 	ldw	r2,4(fp)
 20165b0:	1885883a 	add	r2,r3,r2
 20165b4:	e0bff915 	stw	r2,-28(fp)
 20165b8:	e0800117 	ldw	r2,4(fp)
 20165bc:	e0bff515 	stw	r2,-44(fp)
 20165c0:	e0bffe17 	ldw	r2,-8(fp)
 20165c4:	e0bff615 	stw	r2,-40(fp)
 20165c8:	00800044 	movi	r2,1
 20165cc:	e0bff715 	stw	r2,-36(fp)
 20165d0:	e0bffc17 	ldw	r2,-16(fp)
 20165d4:	10800504 	addi	r2,r2,20
 20165d8:	e0fffd17 	ldw	r3,-12(fp)
 20165dc:	01000044 	movi	r4,1
 20165e0:	20c6983a 	sll	r3,r4,r3
 20165e4:	10c00035 	stwio	r3,0(r2)
 20165e8:	e0800317 	ldw	r2,12(fp)
 20165ec:	1080008c 	andi	r2,r2,2
 20165f0:	1000041e 	bne	r2,zero,2016604 <alt_avalon_spi_command+0x88>
 20165f4:	e0bffc17 	ldw	r2,-16(fp)
 20165f8:	10800304 	addi	r2,r2,12
 20165fc:	00c10004 	movi	r3,1024
 2016600:	10c00035 	stwio	r3,0(r2)
 2016604:	e0bffc17 	ldw	r2,-16(fp)
 2016608:	10800037 	ldwio	r2,0(r2)
 201660c:	e0bffc17 	ldw	r2,-16(fp)
 2016610:	10800204 	addi	r2,r2,8
 2016614:	10800037 	ldwio	r2,0(r2)
 2016618:	e0bffa15 	stw	r2,-24(fp)
 201661c:	e0bffa17 	ldw	r2,-24(fp)
 2016620:	1080100c 	andi	r2,r2,64
 2016624:	10000226 	beq	r2,zero,2016630 <alt_avalon_spi_command+0xb4>
 2016628:	e0bff717 	ldw	r2,-36(fp)
 201662c:	1000031e 	bne	r2,zero,201663c <alt_avalon_spi_command+0xc0>
 2016630:	e0bffa17 	ldw	r2,-24(fp)
 2016634:	1080200c 	andi	r2,r2,128
 2016638:	103ff426 	beq	r2,zero,201660c <__reset+0xfe00d60c>
 201663c:	e0bffa17 	ldw	r2,-24(fp)
 2016640:	1080100c 	andi	r2,r2,64
 2016644:	10001e26 	beq	r2,zero,20166c0 <alt_avalon_spi_command+0x144>
 2016648:	e0bff717 	ldw	r2,-36(fp)
 201664c:	00801c0e 	bge	zero,r2,20166c0 <alt_avalon_spi_command+0x144>
 2016650:	e0bff717 	ldw	r2,-36(fp)
 2016654:	10bfffc4 	addi	r2,r2,-1
 2016658:	e0bff715 	stw	r2,-36(fp)
 201665c:	e0ffff17 	ldw	r3,-4(fp)
 2016660:	e0bff817 	ldw	r2,-32(fp)
 2016664:	18800a2e 	bgeu	r3,r2,2016690 <alt_avalon_spi_command+0x114>
 2016668:	e0bffc17 	ldw	r2,-16(fp)
 201666c:	10800104 	addi	r2,r2,4
 2016670:	1007883a 	mov	r3,r2
 2016674:	e0bfff17 	ldw	r2,-4(fp)
 2016678:	11000044 	addi	r4,r2,1
 201667c:	e13fff15 	stw	r4,-4(fp)
 2016680:	10800003 	ldbu	r2,0(r2)
 2016684:	10803fcc 	andi	r2,r2,255
 2016688:	18800035 	stwio	r2,0(r3)
 201668c:	00000c06 	br	20166c0 <alt_avalon_spi_command+0x144>
 2016690:	e0bff517 	ldw	r2,-44(fp)
 2016694:	10000826 	beq	r2,zero,20166b8 <alt_avalon_spi_command+0x13c>
 2016698:	e0bff517 	ldw	r2,-44(fp)
 201669c:	10bfffc4 	addi	r2,r2,-1
 20166a0:	e0bff515 	stw	r2,-44(fp)
 20166a4:	e0bffc17 	ldw	r2,-16(fp)
 20166a8:	10800104 	addi	r2,r2,4
 20166ac:	0007883a 	mov	r3,zero
 20166b0:	10c00035 	stwio	r3,0(r2)
 20166b4:	00000206 	br	20166c0 <alt_avalon_spi_command+0x144>
 20166b8:	00bf0004 	movi	r2,-1024
 20166bc:	e0bff715 	stw	r2,-36(fp)
 20166c0:	e0bffa17 	ldw	r2,-24(fp)
 20166c4:	1080200c 	andi	r2,r2,128
 20166c8:	10001726 	beq	r2,zero,2016728 <alt_avalon_spi_command+0x1ac>
 20166cc:	e0bffc17 	ldw	r2,-16(fp)
 20166d0:	10800037 	ldwio	r2,0(r2)
 20166d4:	e0bffb15 	stw	r2,-20(fp)
 20166d8:	e0bff617 	ldw	r2,-40(fp)
 20166dc:	10000426 	beq	r2,zero,20166f0 <alt_avalon_spi_command+0x174>
 20166e0:	e0bff617 	ldw	r2,-40(fp)
 20166e4:	10bfffc4 	addi	r2,r2,-1
 20166e8:	e0bff615 	stw	r2,-40(fp)
 20166ec:	00000506 	br	2016704 <alt_avalon_spi_command+0x188>
 20166f0:	e0800217 	ldw	r2,8(fp)
 20166f4:	10c00044 	addi	r3,r2,1
 20166f8:	e0c00215 	stw	r3,8(fp)
 20166fc:	e0fffb17 	ldw	r3,-20(fp)
 2016700:	10c00005 	stb	r3,0(r2)
 2016704:	e0bff717 	ldw	r2,-36(fp)
 2016708:	10800044 	addi	r2,r2,1
 201670c:	e0bff715 	stw	r2,-36(fp)
 2016710:	e0bff617 	ldw	r2,-40(fp)
 2016714:	1000041e 	bne	r2,zero,2016728 <alt_avalon_spi_command+0x1ac>
 2016718:	e0c00217 	ldw	r3,8(fp)
 201671c:	e0bff917 	ldw	r2,-28(fp)
 2016720:	1880011e 	bne	r3,r2,2016728 <alt_avalon_spi_command+0x1ac>
 2016724:	00000106 	br	201672c <alt_avalon_spi_command+0x1b0>
 2016728:	003fb806 	br	201660c <__reset+0xfe00d60c>
 201672c:	e0bffc17 	ldw	r2,-16(fp)
 2016730:	10800204 	addi	r2,r2,8
 2016734:	10800037 	ldwio	r2,0(r2)
 2016738:	e0bffa15 	stw	r2,-24(fp)
 201673c:	e0bffa17 	ldw	r2,-24(fp)
 2016740:	1080080c 	andi	r2,r2,32
 2016744:	103ff926 	beq	r2,zero,201672c <__reset+0xfe00d72c>
 2016748:	e0800317 	ldw	r2,12(fp)
 201674c:	1080004c 	andi	r2,r2,1
 2016750:	1000041e 	bne	r2,zero,2016764 <alt_avalon_spi_command+0x1e8>
 2016754:	e0bffc17 	ldw	r2,-16(fp)
 2016758:	10800304 	addi	r2,r2,12
 201675c:	0007883a 	mov	r3,zero
 2016760:	10c00035 	stwio	r3,0(r2)
 2016764:	e0800117 	ldw	r2,4(fp)
 2016768:	e037883a 	mov	sp,fp
 201676c:	df000017 	ldw	fp,0(sp)
 2016770:	dec00104 	addi	sp,sp,4
 2016774:	f800283a 	ret

02016778 <alt_exception_cause_generated_bad_addr>:
 2016778:	defffe04 	addi	sp,sp,-8
 201677c:	df000115 	stw	fp,4(sp)
 2016780:	df000104 	addi	fp,sp,4
 2016784:	e13fff15 	stw	r4,-4(fp)
 2016788:	e0bfff17 	ldw	r2,-4(fp)
 201678c:	10bffe84 	addi	r2,r2,-6
 2016790:	10c00428 	cmpgeui	r3,r2,16
 2016794:	18001b1e 	bne	r3,zero,2016804 <alt_exception_cause_generated_bad_addr+0x8c>
 2016798:	1085883a 	add	r2,r2,r2
 201679c:	1087883a 	add	r3,r2,r2
 20167a0:	00808074 	movhi	r2,513
 20167a4:	1099ed04 	addi	r2,r2,26548
 20167a8:	1885883a 	add	r2,r3,r2
 20167ac:	10800017 	ldw	r2,0(r2)
 20167b0:	1000683a 	jmp	r2
 20167b4:	020167f4 	movhi	r8,1439
 20167b8:	020167f4 	movhi	r8,1439
 20167bc:	02016804 	movi	r8,1440
 20167c0:	02016804 	movi	r8,1440
 20167c4:	02016804 	movi	r8,1440
 20167c8:	020167f4 	movhi	r8,1439
 20167cc:	020167fc 	xorhi	r8,zero,1439
 20167d0:	02016804 	movi	r8,1440
 20167d4:	020167f4 	movhi	r8,1439
 20167d8:	020167f4 	movhi	r8,1439
 20167dc:	02016804 	movi	r8,1440
 20167e0:	020167f4 	movhi	r8,1439
 20167e4:	020167fc 	xorhi	r8,zero,1439
 20167e8:	02016804 	movi	r8,1440
 20167ec:	02016804 	movi	r8,1440
 20167f0:	020167f4 	movhi	r8,1439
 20167f4:	00800044 	movi	r2,1
 20167f8:	00000306 	br	2016808 <alt_exception_cause_generated_bad_addr+0x90>
 20167fc:	0005883a 	mov	r2,zero
 2016800:	00000106 	br	2016808 <alt_exception_cause_generated_bad_addr+0x90>
 2016804:	0005883a 	mov	r2,zero
 2016808:	e037883a 	mov	sp,fp
 201680c:	df000017 	ldw	fp,0(sp)
 2016810:	dec00104 	addi	sp,sp,4
 2016814:	f800283a 	ret

02016818 <atexit>:
 2016818:	200b883a 	mov	r5,r4
 201681c:	000d883a 	mov	r6,zero
 2016820:	0009883a 	mov	r4,zero
 2016824:	000f883a 	mov	r7,zero
 2016828:	20168641 	jmpi	2016864 <__register_exitproc>

0201682c <exit>:
 201682c:	defffe04 	addi	sp,sp,-8
 2016830:	000b883a 	mov	r5,zero
 2016834:	dc000015 	stw	r16,0(sp)
 2016838:	dfc00115 	stw	ra,4(sp)
 201683c:	2021883a 	mov	r16,r4
 2016840:	20169800 	call	2016980 <__call_exitprocs>
 2016844:	008080b4 	movhi	r2,514
 2016848:	10836004 	addi	r2,r2,3456
 201684c:	11000017 	ldw	r4,0(r2)
 2016850:	20800f17 	ldw	r2,60(r4)
 2016854:	10000126 	beq	r2,zero,201685c <exit+0x30>
 2016858:	103ee83a 	callr	r2
 201685c:	8009883a 	mov	r4,r16
 2016860:	2016b240 	call	2016b24 <_exit>

02016864 <__register_exitproc>:
 2016864:	defffa04 	addi	sp,sp,-24
 2016868:	008080b4 	movhi	r2,514
 201686c:	10836004 	addi	r2,r2,3456
 2016870:	dc000315 	stw	r16,12(sp)
 2016874:	14000017 	ldw	r16,0(r2)
 2016878:	dc400415 	stw	r17,16(sp)
 201687c:	dfc00515 	stw	ra,20(sp)
 2016880:	80805217 	ldw	r2,328(r16)
 2016884:	2023883a 	mov	r17,r4
 2016888:	10003a26 	beq	r2,zero,2016974 <__register_exitproc+0x110>
 201688c:	10c00117 	ldw	r3,4(r2)
 2016890:	020007c4 	movi	r8,31
 2016894:	40c0190e 	bge	r8,r3,20168fc <__register_exitproc+0x98>
 2016898:	00808034 	movhi	r2,512
 201689c:	109fa704 	addi	r2,r2,32412
 20168a0:	1000061e 	bne	r2,zero,20168bc <__register_exitproc+0x58>
 20168a4:	00bfffc4 	movi	r2,-1
 20168a8:	dfc00517 	ldw	ra,20(sp)
 20168ac:	dc400417 	ldw	r17,16(sp)
 20168b0:	dc000317 	ldw	r16,12(sp)
 20168b4:	dec00604 	addi	sp,sp,24
 20168b8:	f800283a 	ret
 20168bc:	01006404 	movi	r4,400
 20168c0:	d9400015 	stw	r5,0(sp)
 20168c4:	d9800115 	stw	r6,4(sp)
 20168c8:	d9c00215 	stw	r7,8(sp)
 20168cc:	2007e9c0 	call	2007e9c <malloc>
 20168d0:	d9400017 	ldw	r5,0(sp)
 20168d4:	d9800117 	ldw	r6,4(sp)
 20168d8:	d9c00217 	ldw	r7,8(sp)
 20168dc:	103ff126 	beq	r2,zero,20168a4 <__reset+0xfe00d8a4>
 20168e0:	81005217 	ldw	r4,328(r16)
 20168e4:	10000115 	stw	zero,4(r2)
 20168e8:	0007883a 	mov	r3,zero
 20168ec:	11000015 	stw	r4,0(r2)
 20168f0:	80805215 	stw	r2,328(r16)
 20168f4:	10006215 	stw	zero,392(r2)
 20168f8:	10006315 	stw	zero,396(r2)
 20168fc:	88000d1e 	bne	r17,zero,2016934 <__register_exitproc+0xd0>
 2016900:	19000084 	addi	r4,r3,2
 2016904:	2109883a 	add	r4,r4,r4
 2016908:	18c00044 	addi	r3,r3,1
 201690c:	2109883a 	add	r4,r4,r4
 2016910:	10c00115 	stw	r3,4(r2)
 2016914:	1105883a 	add	r2,r2,r4
 2016918:	11400015 	stw	r5,0(r2)
 201691c:	0005883a 	mov	r2,zero
 2016920:	dfc00517 	ldw	ra,20(sp)
 2016924:	dc400417 	ldw	r17,16(sp)
 2016928:	dc000317 	ldw	r16,12(sp)
 201692c:	dec00604 	addi	sp,sp,24
 2016930:	f800283a 	ret
 2016934:	18c9883a 	add	r4,r3,r3
 2016938:	2109883a 	add	r4,r4,r4
 201693c:	1109883a 	add	r4,r2,r4
 2016940:	21802215 	stw	r6,136(r4)
 2016944:	01800044 	movi	r6,1
 2016948:	12006217 	ldw	r8,392(r2)
 201694c:	30cc983a 	sll	r6,r6,r3
 2016950:	4190b03a 	or	r8,r8,r6
 2016954:	12006215 	stw	r8,392(r2)
 2016958:	21c04215 	stw	r7,264(r4)
 201695c:	01000084 	movi	r4,2
 2016960:	893fe71e 	bne	r17,r4,2016900 <__reset+0xfe00d900>
 2016964:	11006317 	ldw	r4,396(r2)
 2016968:	218cb03a 	or	r6,r4,r6
 201696c:	11806315 	stw	r6,396(r2)
 2016970:	003fe306 	br	2016900 <__reset+0xfe00d900>
 2016974:	80805304 	addi	r2,r16,332
 2016978:	80805215 	stw	r2,328(r16)
 201697c:	003fc306 	br	201688c <__reset+0xfe00d88c>

02016980 <__call_exitprocs>:
 2016980:	008080b4 	movhi	r2,514
 2016984:	10836004 	addi	r2,r2,3456
 2016988:	10800017 	ldw	r2,0(r2)
 201698c:	defff304 	addi	sp,sp,-52
 2016990:	df000b15 	stw	fp,44(sp)
 2016994:	d8800015 	stw	r2,0(sp)
 2016998:	10805204 	addi	r2,r2,328
 201699c:	dd400815 	stw	r21,32(sp)
 20169a0:	dfc00c15 	stw	ra,48(sp)
 20169a4:	ddc00a15 	stw	r23,40(sp)
 20169a8:	dd800915 	stw	r22,36(sp)
 20169ac:	dd000715 	stw	r20,28(sp)
 20169b0:	dcc00615 	stw	r19,24(sp)
 20169b4:	dc800515 	stw	r18,20(sp)
 20169b8:	dc400415 	stw	r17,16(sp)
 20169bc:	dc000315 	stw	r16,12(sp)
 20169c0:	d9000115 	stw	r4,4(sp)
 20169c4:	2839883a 	mov	fp,r5
 20169c8:	d8800215 	stw	r2,8(sp)
 20169cc:	057fffc4 	movi	r21,-1
 20169d0:	d8800017 	ldw	r2,0(sp)
 20169d4:	14805217 	ldw	r18,328(r2)
 20169d8:	90001826 	beq	r18,zero,2016a3c <__call_exitprocs+0xbc>
 20169dc:	ddc00217 	ldw	r23,8(sp)
 20169e0:	90c00117 	ldw	r3,4(r18)
 20169e4:	1c3fffc4 	addi	r16,r3,-1
 20169e8:	80001116 	blt	r16,zero,2016a30 <__call_exitprocs+0xb0>
 20169ec:	18c00044 	addi	r3,r3,1
 20169f0:	8427883a 	add	r19,r16,r16
 20169f4:	18c7883a 	add	r3,r3,r3
 20169f8:	95802204 	addi	r22,r18,136
 20169fc:	9ce7883a 	add	r19,r19,r19
 2016a00:	18c7883a 	add	r3,r3,r3
 2016a04:	b4e7883a 	add	r19,r22,r19
 2016a08:	90e3883a 	add	r17,r18,r3
 2016a0c:	e0001726 	beq	fp,zero,2016a6c <__call_exitprocs+0xec>
 2016a10:	8c87c83a 	sub	r3,r17,r18
 2016a14:	b0c7883a 	add	r3,r22,r3
 2016a18:	18c01e17 	ldw	r3,120(r3)
 2016a1c:	1f001326 	beq	r3,fp,2016a6c <__call_exitprocs+0xec>
 2016a20:	843fffc4 	addi	r16,r16,-1
 2016a24:	9cffff04 	addi	r19,r19,-4
 2016a28:	8c7fff04 	addi	r17,r17,-4
 2016a2c:	857ff71e 	bne	r16,r21,2016a0c <__reset+0xfe00da0c>
 2016a30:	00808034 	movhi	r2,512
 2016a34:	109fac04 	addi	r2,r2,32432
 2016a38:	10002a1e 	bne	r2,zero,2016ae4 <__call_exitprocs+0x164>
 2016a3c:	dfc00c17 	ldw	ra,48(sp)
 2016a40:	df000b17 	ldw	fp,44(sp)
 2016a44:	ddc00a17 	ldw	r23,40(sp)
 2016a48:	dd800917 	ldw	r22,36(sp)
 2016a4c:	dd400817 	ldw	r21,32(sp)
 2016a50:	dd000717 	ldw	r20,28(sp)
 2016a54:	dcc00617 	ldw	r19,24(sp)
 2016a58:	dc800517 	ldw	r18,20(sp)
 2016a5c:	dc400417 	ldw	r17,16(sp)
 2016a60:	dc000317 	ldw	r16,12(sp)
 2016a64:	dec00d04 	addi	sp,sp,52
 2016a68:	f800283a 	ret
 2016a6c:	91000117 	ldw	r4,4(r18)
 2016a70:	88c00017 	ldw	r3,0(r17)
 2016a74:	213fffc4 	addi	r4,r4,-1
 2016a78:	24001526 	beq	r4,r16,2016ad0 <__call_exitprocs+0x150>
 2016a7c:	88000015 	stw	zero,0(r17)
 2016a80:	183fe726 	beq	r3,zero,2016a20 <__reset+0xfe00da20>
 2016a84:	00800044 	movi	r2,1
 2016a88:	1408983a 	sll	r4,r2,r16
 2016a8c:	91406217 	ldw	r5,392(r18)
 2016a90:	95000117 	ldw	r20,4(r18)
 2016a94:	214a703a 	and	r5,r4,r5
 2016a98:	28000b26 	beq	r5,zero,2016ac8 <__call_exitprocs+0x148>
 2016a9c:	91406317 	ldw	r5,396(r18)
 2016aa0:	2148703a 	and	r4,r4,r5
 2016aa4:	20000c1e 	bne	r4,zero,2016ad8 <__call_exitprocs+0x158>
 2016aa8:	99400017 	ldw	r5,0(r19)
 2016aac:	d9000117 	ldw	r4,4(sp)
 2016ab0:	183ee83a 	callr	r3
 2016ab4:	90c00117 	ldw	r3,4(r18)
 2016ab8:	1d3fc51e 	bne	r3,r20,20169d0 <__reset+0xfe00d9d0>
 2016abc:	b8c00017 	ldw	r3,0(r23)
 2016ac0:	1cbfd726 	beq	r3,r18,2016a20 <__reset+0xfe00da20>
 2016ac4:	003fc206 	br	20169d0 <__reset+0xfe00d9d0>
 2016ac8:	183ee83a 	callr	r3
 2016acc:	003ff906 	br	2016ab4 <__reset+0xfe00dab4>
 2016ad0:	94000115 	stw	r16,4(r18)
 2016ad4:	003fea06 	br	2016a80 <__reset+0xfe00da80>
 2016ad8:	99000017 	ldw	r4,0(r19)
 2016adc:	183ee83a 	callr	r3
 2016ae0:	003ff406 	br	2016ab4 <__reset+0xfe00dab4>
 2016ae4:	90c00117 	ldw	r3,4(r18)
 2016ae8:	1800081e 	bne	r3,zero,2016b0c <__call_exitprocs+0x18c>
 2016aec:	90c00017 	ldw	r3,0(r18)
 2016af0:	18000a26 	beq	r3,zero,2016b1c <__call_exitprocs+0x19c>
 2016af4:	9009883a 	mov	r4,r18
 2016af8:	b8c00015 	stw	r3,0(r23)
 2016afc:	2007eb00 	call	2007eb0 <free>
 2016b00:	bc800017 	ldw	r18,0(r23)
 2016b04:	903fb61e 	bne	r18,zero,20169e0 <__reset+0xfe00d9e0>
 2016b08:	003fcc06 	br	2016a3c <__reset+0xfe00da3c>
 2016b0c:	90c00017 	ldw	r3,0(r18)
 2016b10:	902f883a 	mov	r23,r18
 2016b14:	1825883a 	mov	r18,r3
 2016b18:	003ffa06 	br	2016b04 <__reset+0xfe00db04>
 2016b1c:	0007883a 	mov	r3,zero
 2016b20:	003ffb06 	br	2016b10 <__reset+0xfe00db10>

02016b24 <_exit>:
 2016b24:	defffd04 	addi	sp,sp,-12
 2016b28:	df000215 	stw	fp,8(sp)
 2016b2c:	df000204 	addi	fp,sp,8
 2016b30:	e13fff15 	stw	r4,-4(fp)
 2016b34:	0001883a 	nop
 2016b38:	e0bfff17 	ldw	r2,-4(fp)
 2016b3c:	e0bffe15 	stw	r2,-8(fp)
 2016b40:	e0bffe17 	ldw	r2,-8(fp)
 2016b44:	10000226 	beq	r2,zero,2016b50 <_exit+0x2c>
 2016b48:	002af070 	cmpltui	zero,zero,43969
 2016b4c:	00000106 	br	2016b54 <_exit+0x30>
 2016b50:	002af0b0 	cmpltui	zero,zero,43970
 2016b54:	003fff06 	br	2016b54 <__reset+0xfe00db54>
