
LEDTileHalloween.elf:     file format elf32-littlenios2
LEDTileHalloween.elf
architecture: nios2:r1, flags 0x00000112:
EXEC_P, HAS_SYMS, D_PAGED
start address 0x02000230

Program Header:
    LOAD off    0x00001020 vaddr 0x02000020 paddr 0x02000020 align 2**12
         filesz 0x0007f64c memsz 0x0007f7c4 flags rwx
    LOAD off    0x00081000 vaddr 0x04009000 paddr 0x04009000 align 2**12
         filesz 0x00000000 memsz 0x00000000 flags r-x

Sections:
Idx Name          Size      VMA       LMA       File off  Algn
  0 .entry        00000000  04009000  04009000  00081000  2**5
                  CONTENTS, ALLOC, LOAD, READONLY, CODE
  1 .exceptions   00000210  02000020  02000020  00001020  2**2
                  CONTENTS, ALLOC, LOAD, READONLY, CODE
  2 .text         0000a9d0  02000230  02000230  00001230  2**2
                  CONTENTS, ALLOC, LOAD, READONLY, CODE
  3 .rodata       00072de8  0200ac00  0200ac00  0000bc00  2**2
                  CONTENTS, ALLOC, LOAD, READONLY, DATA
  4 .rwdata       00001c84  0207d9e8  0207d9e8  0007e9e8  2**2
                  CONTENTS, ALLOC, LOAD, DATA, SMALL_DATA
  5 .bss          00000178  0207f66c  0207f66c  0008066c  2**2
                  ALLOC, SMALL_DATA
  6 .sdram_controller 00000000  0207f7e4  0207f7e4  00081000  2**0
                  CONTENTS
  7 .onchip_memory2 00000000  04000000  04000000  00081000  2**0
                  CONTENTS
  8 .epcs_flash_controller 00000000  04009020  04009020  00081000  2**0
                  CONTENTS
  9 .comment      00000023  00000000  00000000  00081000  2**0
                  CONTENTS, READONLY
 10 .debug_aranges 00000c90  00000000  00000000  00081028  2**3
                  CONTENTS, READONLY, DEBUGGING
 11 .debug_info   0001e137  00000000  00000000  00081cb8  2**0
                  CONTENTS, READONLY, DEBUGGING
 12 .debug_abbrev 00007fdb  00000000  00000000  0009fdef  2**0
                  CONTENTS, READONLY, DEBUGGING
 13 .debug_line   00008d00  00000000  00000000  000a7dca  2**0
                  CONTENTS, READONLY, DEBUGGING
 14 .debug_frame  00001fac  00000000  00000000  000b0acc  2**2
                  CONTENTS, READONLY, DEBUGGING
 15 .debug_str    00003784  00000000  00000000  000b2a78  2**0
                  CONTENTS, READONLY, DEBUGGING
 16 .debug_loc    00008292  00000000  00000000  000b61fc  2**0
                  CONTENTS, READONLY, DEBUGGING
 17 .debug_alt_sim_info 00000010  00000000  00000000  000be490  2**2
                  CONTENTS, READONLY, DEBUGGING
 18 .debug_ranges 00000b28  00000000  00000000  000be4a0  2**3
                  CONTENTS, READONLY, DEBUGGING
 19 .thread_model 00000003  00000000  00000000  000c22d8  2**0
                  CONTENTS, READONLY
 20 .cpu          00000003  00000000  00000000  000c22db  2**0
                  CONTENTS, READONLY
 21 .qsys         00000001  00000000  00000000  000c22de  2**0
                  CONTENTS, READONLY
 22 .simulation_enabled 00000001  00000000  00000000  000c22df  2**0
                  CONTENTS, READONLY
 23 .sysid_hash   00000004  00000000  00000000  000c22e0  2**0
                  CONTENTS, READONLY
 24 .sysid_base   00000004  00000000  00000000  000c22e4  2**0
                  CONTENTS, READONLY
 25 .sysid_time   00000004  00000000  00000000  000c22e8  2**0
                  CONTENTS, READONLY
 26 .stderr_dev   00000009  00000000  00000000  000c22ec  2**0
                  CONTENTS, READONLY
 27 .stdin_dev    00000006  00000000  00000000  000c22f5  2**0
                  CONTENTS, READONLY
 28 .stdout_dev   00000009  00000000  00000000  000c22fb  2**0
                  CONTENTS, READONLY
 29 .sopc_system_name 00000004  00000000  00000000  000c2304  2**0
                  CONTENTS, READONLY
 30 .sopcinfo     0007c1af  00000000  00000000  000c2308  2**0
                  CONTENTS, READONLY
SYMBOL TABLE:
04009000 l    d  .entry	00000000 .entry
02000020 l    d  .exceptions	00000000 .exceptions
02000230 l    d  .text	00000000 .text
0200ac00 l    d  .rodata	00000000 .rodata
0207d9e8 l    d  .rwdata	00000000 .rwdata
0207f66c l    d  .bss	00000000 .bss
0207f7e4 l    d  .sdram_controller	00000000 .sdram_controller
04000000 l    d  .onchip_memory2	00000000 .onchip_memory2
04009020 l    d  .epcs_flash_controller	00000000 .epcs_flash_controller
00000000 l    d  .comment	00000000 .comment
00000000 l    d  .debug_aranges	00000000 .debug_aranges
00000000 l    d  .debug_info	00000000 .debug_info
00000000 l    d  .debug_abbrev	00000000 .debug_abbrev
00000000 l    d  .debug_line	00000000 .debug_line
00000000 l    d  .debug_frame	00000000 .debug_frame
00000000 l    d  .debug_str	00000000 .debug_str
00000000 l    d  .debug_loc	00000000 .debug_loc
00000000 l    d  .debug_alt_sim_info	00000000 .debug_alt_sim_info
00000000 l    d  .debug_ranges	00000000 .debug_ranges
00000000 l    df *ABS*	00000000 ../LEDTile_BSP2/obj/HAL/src/crt0.o
02000264 l       .text	00000000 alt_after_alt_main
00000000 l    df *ABS*	00000000 alt_irq_handler.c
00000000 l    df *ABS*	00000000 alt_instruction_exception_entry.c
00000000 l    df *ABS*	00000000 main.c
0207f6a4 l     O .bss	00000018 alarm
0207f670 l     O .bss	00000004 i.3232
00000000 l    df *ABS*	00000000 LEDTileLib.c
00000000 l    df *ABS*	00000000 lib2-divmod.c
00000000 l    df *ABS*	00000000 divdf3.c
00000000 l    df *ABS*	00000000 muldf3.c
00000000 l    df *ABS*	00000000 fixdfsi.c
00000000 l    df *ABS*	00000000 floatsidf.c
00000000 l    df *ABS*	00000000 libgcc2.c
00000000 l    df *ABS*	00000000 lib2-mul.c
00000000 l    df *ABS*	00000000 libgcc2.c
00000000 l    df *ABS*	00000000 getc.c
00000000 l    df *ABS*	00000000 impure.c
0207da5c l     O .rwdata	00000424 impure_data
00000000 l    df *ABS*	00000000 putchar.c
00000000 l    df *ABS*	00000000 puts.c
00000000 l    df *ABS*	00000000 rget.c
00000000 l    df *ABS*	00000000 strlen.c
00000000 l    df *ABS*	00000000 findfp.c
02003920 l     F .text	00000008 __fp_unlock
02003934 l     F .text	0000019c __sinit.part.1
02003ad0 l     F .text	00000008 __fp_lock
00000000 l    df *ABS*	00000000 fvwrite.c
00000000 l    df *ABS*	00000000 fwalk.c
00000000 l    df *ABS*	00000000 mallocr.c
00000000 l    df *ABS*	00000000 memchr.c
00000000 l    df *ABS*	00000000 memcpy.c
00000000 l    df *ABS*	00000000 memmove.c
00000000 l    df *ABS*	00000000 memset.c
00000000 l    df *ABS*	00000000 putc.c
00000000 l    df *ABS*	00000000 mallocr.c
00000000 l    df *ABS*	00000000 refill.c
020056a8 l     F .text	0000001c lflush
00000000 l    df *ABS*	00000000 sbrkr.c
00000000 l    df *ABS*	00000000 stdio.c
00000000 l    df *ABS*	00000000 wbuf.c
00000000 l    df *ABS*	00000000 writer.c
00000000 l    df *ABS*	00000000 wsetup.c
00000000 l    df *ABS*	00000000 closer.c
00000000 l    df *ABS*	00000000 fclose.c
00000000 l    df *ABS*	00000000 fflush.c
00000000 l    df *ABS*	00000000 mallocr.c
00000000 l    df *ABS*	00000000 int_errno.c
00000000 l    df *ABS*	00000000 lseekr.c
00000000 l    df *ABS*	00000000 makebuf.c
00000000 l    df *ABS*	00000000 readr.c
00000000 l    df *ABS*	00000000 fstatr.c
00000000 l    df *ABS*	00000000 isattyr.c
00000000 l    df *ABS*	00000000 alt_alarm_start.c
00000000 l    df *ABS*	00000000 alt_close.c
020069c0 l     F .text	0000003c alt_get_errno
00000000 l    df *ABS*	00000000 alt_dev.c
02006ad4 l     F .text	0000002c alt_dev_null_write
00000000 l    df *ABS*	00000000 alt_errno.c
00000000 l    df *ABS*	00000000 alt_fstat.c
02006b00 l     F .text	0000003c alt_get_errno
00000000 l    df *ABS*	00000000 alt_isatty.c
02006bf4 l     F .text	0000003c alt_get_errno
00000000 l    df *ABS*	00000000 alt_lseek.c
02006cdc l     F .text	0000003c alt_get_errno
00000000 l    df *ABS*	00000000 alt_main.c
00000000 l    df *ABS*	00000000 alt_malloc_lock.c
00000000 l    df *ABS*	00000000 alt_read.c
02006eb8 l     F .text	0000003c alt_get_errno
00000000 l    df *ABS*	00000000 alt_release_fd.c
00000000 l    df *ABS*	00000000 alt_sbrk.c
0207f654 l     O .rwdata	00000004 heap_end
00000000 l    df *ABS*	00000000 alt_tick.c
00000000 l    df *ABS*	00000000 alt_write.c
020072d0 l     F .text	0000003c alt_get_errno
00000000 l    df *ABS*	00000000 alt_sys_init.c
0200740c l     F .text	00000034 alt_dev_reg
0207e430 l     O .rwdata	000000cc epcs_flash_controller
0207e4fc l     O .rwdata	00001060 jtag_uart
0207f55c l     O .rwdata	000000c4 uart_0
00000000 l    df *ABS*	00000000 altera_avalon_epcs_flash_controller.c
02007508 l     F .text	00000034 alt_flash_device_register
02007590 l     F .text	000003f8 alt_epcs_flash_query
02007988 l     F .text	000000ec alt_epcs_flash_memcmp
02007d60 l     F .text	00000094 alt_epcs_test_address
00000000 l    df *ABS*	00000000 altera_avalon_jtag_uart_fd.c
00000000 l    df *ABS*	00000000 altera_avalon_jtag_uart_init.c
02008228 l     F .text	0000020c altera_avalon_jtag_uart_irq
02008434 l     F .text	000000a0 altera_avalon_jtag_uart_timeout
00000000 l    df *ABS*	00000000 altera_avalon_jtag_uart_ioctl.c
00000000 l    df *ABS*	00000000 altera_avalon_jtag_uart_read.c
00000000 l    df *ABS*	00000000 altera_avalon_jtag_uart_write.c
00000000 l    df *ABS*	00000000 altera_avalon_timer_sc.c
02008a6c l     F .text	00000078 alt_avalon_timer_sc_irq
00000000 l    df *ABS*	00000000 altera_avalon_uart_fd.c
00000000 l    df *ABS*	00000000 altera_avalon_uart_init.c
02008d1c l     F .text	0000009c altera_avalon_uart_irq
02008db8 l     F .text	000000e4 altera_avalon_uart_rxirq
02008e9c l     F .text	00000148 altera_avalon_uart_txirq
00000000 l    df *ABS*	00000000 altera_avalon_uart_read.c
02009038 l     F .text	0000003c alt_get_errno
00000000 l    df *ABS*	00000000 altera_avalon_uart_write.c
02009250 l     F .text	0000003c alt_get_errno
00000000 l    df *ABS*	00000000 epcs_commands.c
02009494 l     F .text	00000038 epcs_test_wip
020094cc l     F .text	0000003c epcs_await_wip_released
00000000 l    df *ABS*	00000000 alt_dev_llist_insert.c
02009a74 l     F .text	0000003c alt_get_errno
00000000 l    df *ABS*	00000000 alt_do_ctors.c
00000000 l    df *ABS*	00000000 alt_do_dtors.c
00000000 l    df *ABS*	00000000 alt_flash_dev.c
00000000 l    df *ABS*	00000000 alt_iic.c
00000000 l    df *ABS*	00000000 alt_iic_isr_register.c
00000000 l    df *ABS*	00000000 alt_io_redirect.c
02009f70 l     F .text	000000e4 alt_open_fd
00000000 l    df *ABS*	00000000 alt_irq_vars.c
00000000 l    df *ABS*	00000000 alt_open.c
0200a0d0 l     F .text	0000003c alt_get_errno
0200a10c l     F .text	000000ec alt_file_locked
00000000 l    df *ABS*	00000000 altera_nios2_gen2_irq.c
00000000 l    df *ABS*	00000000 altera_avalon_spi.c
00000000 l    df *ABS*	00000000 alt_find_dev.c
00000000 l    df *ABS*	00000000 alt_find_file.c
00000000 l    df *ABS*	00000000 alt_get_fd.c
00000000 l    df *ABS*	00000000 atexit.c
00000000 l    df *ABS*	00000000 exit.c
00000000 l    df *ABS*	00000000 memcmp.c
00000000 l    df *ABS*	00000000 __atexit.c
00000000 l    df *ABS*	00000000 __call_atexit.c
00000000 l    df *ABS*	00000000 alt_exit.c
0207f6a0 g     O .bss	00000004 alt_instruction_exception_handler
02003714 g     F .text	00000018 putchar
02025dd8 g     O .rodata	0000100c Edgar
02007cd4 g     F .text	0000008c alt_epcs_flash_get_info
02006840 g     F .text	00000054 _isatty_r
02006df4 g     F .text	0000007c alt_main
0200372c g     F .text	000000c0 _puts_r
0207f6e4 g     O .bss	00000100 alt_irq
02006568 g     F .text	00000060 _lseek_r
0201dd20 g     O .rodata	0000100c Coin
0207f7e4 g       *ABS*	00000000 __alt_heap_start
0200041c g     F .text	000000dc blank
020059c4 g     F .text	0000005c __sseek
02003c80 g     F .text	00000010 __sinit
02005a28 g     F .text	00000140 __swbuf_r
02003ad8 g     F .text	00000078 __sfmoreglue
02006e94 g     F .text	00000024 __malloc_unlock
020002a8 g     F .text	00000074 frame_callback
0207d67e g     O .rodata	00000200 gamma46half
02004d58 g     F .text	0000015c memmove
02003c68 g     F .text	00000018 _cleanup
0201cd0c g     O .rodata	0000100c Bowser
02022d94 g     O .rodata	0000100c RedSlime
0200a354 g     F .text	00000024 altera_nios2_gen2_irq_init
02009508 g     F .text	000000fc epcs_sector_erase
04009000 g     F .entry	00000000 __reset
020067e4 g     F .text	0000005c _fstat_r
0207f684 g     O .bss	00000004 errno
02003874 g     F .text	00000014 __srget
02005940 g     F .text	00000008 __seofread
02000000 g       *ABS*	00000000 __alt_mem_sdram_controller
0207f674 g     O .bss	00000004 currentAnimation
0207f68c g     O .bss	00000004 alt_argv
02087620 g       *ABS*	00000000 _gp
02068e5c g     O .rodata	0001400c ie
0207e2b0 g     O .rwdata	00000180 alt_fd_list
02003614 g     F .text	00000070 _getc_r
02003684 g     F .text	00000088 getc
0200370c g     F .text	00000008 _putchar_r
0200974c g     F .text	0000006c epcs_write_status_register
0200a574 g     F .text	00000090 alt_find_dev
02004c10 g     F .text	00000148 memcpy
02003928 g     F .text	0000000c _cleanup_r
020034ac g     F .text	000000dc .hidden __floatsidf
0207d9e8 g     O .rwdata	00000068 animations
0207d07e g     O .rodata	00000200 cie1931
0200a054 g     F .text	0000007c alt_io_redirect
0200ac00 g       *ABS*	00000000 __DTOR_END__
020037ec g     F .text	00000014 puts
0200a7d0 g     F .text	0000009c alt_exception_cause_generated_bad_addr
02012c4c g     O .rodata	0000100c RedPotionZelda1
02007e6c g     F .text	00000100 alt_epcs_flash_write_block
0200862c g     F .text	0000021c altera_avalon_jtag_uart_read
02002134 g     F .text	00000064 .hidden __udivsi3
02006c30 g     F .text	000000ac isatty
0201fd4c g     O .rodata	0000100c Link
0207f680 g     O .bss	00000004 __malloc_top_pad
0201ed38 g     O .rodata	0000100c MegaMan
02003cd0 g     F .text	000004c8 __sfvwrite_r
02005898 g     F .text	00000054 _sbrk_r
02010c34 g     O .rodata	0000200c Rupee
02006784 g     F .text	00000060 _read_r
0207f64c g     O .rwdata	00000004 alt_max_fd
02019cc4 g     O .rodata	0000100c Goomba
02005d88 g     F .text	000000f0 _fclose_r
0200ac10 g     O .rodata	0000400c question
02006104 g     F .text	00000030 fflush
0207f67c g     O .bss	00000004 __malloc_max_sbrked_mem
02007df4 g     F .text	00000078 alt_epcs_flash_erase_block
02014c78 g     O .rodata	0000200c FF4Chest
02006d18 g     F .text	000000dc lseek
0207f62c g     O .rwdata	00000004 _global_impure_ptr
02009a18 g     F .text	0000005c epcs_exit_4_bytes_mode
02005144 g     F .text	00000564 _realloc_r
0207f7e4 g       *ABS*	00000000 __bss_end
02009e80 g     F .text	000000f0 alt_iic_isr_register
02023dac g     O .rodata	0000100c BlueGhost
020071c8 g     F .text	00000108 alt_tick
0207f628 g     O .rwdata	00000004 numBitmaps
02008c70 g     F .text	000000ac altera_avalon_uart_init
0207d27e g     O .rodata	00000200 gamma149half
02003ca0 g     F .text	00000018 __fp_lock_all
02009e34 g     F .text	0000004c alt_ic_irq_enabled
0207f66c g     O .bss	00000004 state
0200712c g     F .text	0000009c alt_alarm_stop
0200ec20 g     O .rodata	0000200c Cid_Walk_Front
0207f69c g     O .bss	00000004 alt_irq_active
020000fc g     F .exceptions	000000d4 alt_irq_handler
0207e288 g     O .rwdata	00000028 alt_dev_null
02028e1c g     O .rodata	0001800c mosaic
0200342c g     F .text	00000080 .hidden __fixdfsi
02013c60 g     O .rodata	0000100c BombZelda1
0207f644 g     O .rwdata	00000008 alt_dev_list
02027e04 g     O .rodata	0000100c ns6icon
0200730c g     F .text	00000100 write
02004fdc g     F .text	000000a0 _putc_r
02006b3c g     F .text	000000b8 fstat
02001bbc g     F .text	00000480 displayGamma46ColourBars
02002198 g     F .text	00000058 .hidden __umodsi3
020098d4 g     F .text	00000068 epcs_read_electronic_signature
0201acdc g     O .rodata	0000100c CheepCheep
0207f7e4 g       *ABS*	00000000 end
0200928c g     F .text	000001ac altera_avalon_uart_write
02008168 g     F .text	000000c0 altera_avalon_jtag_uart_init
020001d0 g     F .exceptions	00000060 alt_instruction_exception_entry
02020d64 g     O .rodata	0000100c Kain
0200ac00 g       *ABS*	00000000 __CTOR_LIST__
04000000 g       *ABS*	00000000 __alt_stack_pointer
02008ae4 g     F .text	0000007c alt_avalon_timer_sc_init
02008bc0 g     F .text	00000060 altera_avalon_uart_write_fd
02003588 g     F .text	00000064 .hidden __clzsi2
02008c20 g     F .text	00000050 altera_avalon_uart_close_fd
02008848 g     F .text	00000224 altera_avalon_jtag_uart_write
02003c90 g     F .text	00000004 __sfp_lock_acquire
02004b2c g     F .text	000000e4 memchr
02006258 g     F .text	00000310 _free_r
0200aa4c g     F .text	00000180 __call_exitprocs
02003800 g     F .text	00000074 __srget_r
0207f634 g     O .rwdata	00000004 __malloc_sbrk_base
02000230 g     F .text	00000038 _start
0207f694 g     O .bss	00000004 _alt_tick_rate
0200a378 g     F .text	000001fc alt_avalon_spi_command
0207f698 g     O .bss	00000004 _alt_nticks
02006ef4 g     F .text	00000104 read
02007478 g     F .text	00000090 alt_sys_init
0200a934 g     F .text	00000118 __register_exitproc
020084d4 g     F .text	00000068 altera_avalon_jtag_uart_close
020035ec g     F .text	00000028 .hidden __mulsi3
0207f6bc g     O .bss	00000028 __malloc_current_mallinfo
020012bc g     F .text	00000480 displayGamma149ColourBars
02009438 g     F .text	0000005c epcs_read_status_register
02008004 g     F .text	00000060 altera_avalon_jtag_uart_read_fd
0200a70c g     F .text	000000c4 alt_get_fd
02005d34 g     F .text	00000054 _close_r
0207da50 g     O .rwdata	0000000c halloweenAnimations
0200993c g     F .text	00000080 epcs_read_device_id
0200a8b8 g     F .text	0000007c memcmp
020080c4 g     F .text	00000050 altera_avalon_jtag_uart_close_fd
0207f7e4 g       *ABS*	00000000 __alt_stack_base
02008114 g     F .text	00000054 altera_avalon_jtag_uart_ioctl_fd
02024dc4 g     O .rodata	0000100c CecilHead
02005be0 g     F .text	00000154 __swsetup_r
020021f0 g     F .text	000009d0 .hidden __divdf3
02003b50 g     F .text	00000118 __sfp
0207de80 g     O .rwdata	00000408 __malloc_av_
02003c9c g     F .text	00000004 __sinit_lock_release
02002bc0 g     F .text	0000086c .hidden __muldf3
04009000 g       *ABS*	00000000 __alt_mem_epcs_flash_controller
020058ec g     F .text	00000054 __sread
0200a604 g     F .text	00000108 alt_find_file
02009ab0 g     F .text	000000a4 alt_dev_llist_insert
02006e70 g     F .text	00000024 __malloc_lock
0200707c g     F .text	000000b0 sbrk
020004f8 g     F .text	0000014c displayBitmap
020060a8 g     F .text	0000005c _fflush_r
0207f660 g     O .rwdata	00000008 alt_flash_dev_list
0200173c g     F .text	00000480 displayGamma98ColourBars
0201bcf8 g     O .rodata	0000100c KoopaTroopa
02021d7c g     O .rodata	0000100c BlueVirus
0207f66c g       *ABS*	00000000 __bss_start
02000644 g     F .text	000007f8 displayColourBars
02004eb4 g     F .text	00000128 memset
0200031c g     F .text	000000c4 main
0207f690 g     O .bss	00000004 alt_envp
0207f678 g     O .bss	00000004 __malloc_max_total_mem
02016c90 g     O .rodata	0000100c Mushroom
02008064 g     F .text	00000060 altera_avalon_jtag_uart_write_fd
02005b68 g     F .text	00000018 __swbuf
02005a20 g     F .text	00000008 __sclose
04000000 g       *ABS*	00000000 __alt_heap_limit
02005e78 g     F .text	00000014 fclose
02017cb0 g     O .rodata	0000200c Kain_Walk_Left
02004320 g     F .text	0000080c _malloc_r
0207f650 g     O .rwdata	00000004 alt_errno
02004198 g     F .text	000000c4 _fwalk
0200507c g     F .text	000000c8 putc
0200203c g     F .text	00000084 .hidden __divsi3
02006134 g     F .text	00000124 _malloc_trim_r
0200ac00 g       *ABS*	00000000 __CTOR_END__
02007a74 g     F .text	00000260 alt_epcs_flash_write
0200ac00 g       *ABS*	00000000 __DTOR_LIST__
020003e0 g     F .text	0000003c delay
02007440 g     F .text	00000038 alt_irq_init
02006ff8 g     F .text	00000084 alt_release_fd
0207d87e g     O .rodata	00000100 .hidden __clz_tab
0200a86c g     F .text	00000014 atexit
02005b80 g     F .text	00000060 _write_r
0207f624 g     O .rwdata	00000004 numHalloweenAnimations
0207f630 g     O .rwdata	00000004 _impure_ptr
0207f688 g     O .bss	00000004 alt_argc
02040e3c g     O .rodata	0002800c Netscapethrobber
02005e8c g     F .text	0000021c __sflush_r
02009bb4 g     F .text	00000060 _do_dtors
020056c4 g     F .text	000001d4 __srefill_r
02000020 g       .exceptions	00000000 alt_irq_entry
02003cb8 g     F .text	00000018 __fp_unlock_all
0207f63c g     O .rwdata	00000008 alt_fs_list
02009604 g     F .text	000000f4 epcs_read_buffer
04000000 g       *ABS*	00000000 __alt_mem_onchip_memory2
0200753c g     F .text	00000054 alt_epcs_flash_init
02009cd0 g     F .text	00000050 alt_ic_isr_register
0207f66c g       *ABS*	00000000 _edata
02008b60 g     F .text	00000060 altera_avalon_uart_read_fd
0207f7e4 g       *ABS*	00000000 _end
02009c14 g     F .text	00000068 alt_flash_open_dev
0200853c g     F .text	000000f0 altera_avalon_jtag_uart_ioctl
02009da8 g     F .text	0000008c alt_ic_irq_disable
020099bc g     F .text	0000005c epcs_enter_4_bytes_mode
02005948 g     F .text	0000007c __swrite
0207f638 g     O .rwdata	00000004 __malloc_trim_threshold
0200a880 g     F .text	00000038 exit
0200425c g     F .text	000000c4 _fwalk_reent
02009c7c g     F .text	00000054 alt_flash_close_dev
020020c0 g     F .text	00000074 .hidden __modsi3
04000000 g       *ABS*	00000000 __alt_data_end
02000020 g     F .exceptions	00000000 alt_exception
02003c94 g     F .text	00000004 __sfp_lock_release
02008fe4 g     F .text	00000054 altera_avalon_uart_close
0200abcc g     F .text	00000034 _exit
02006894 g     F .text	0000012c alt_alarm_start
0207f620 g     O .rwdata	00000004 numAnimations
020065c8 g     F .text	000001bc __smakebuf_r
02003888 g     F .text	00000098 strlen
020096f8 g     F .text	00000054 epcs_write_enable
0200a1f8 g     F .text	0000015c open
02026dec g     O .rodata	0000100c MacTCP
02000e3c g     F .text	00000480 displayCIEColourBars
0207f668 g     O .rwdata	00000004 alt_priority_mask
02009d20 g     F .text	00000088 alt_ic_irq_enable
02009074 g     F .text	000001dc altera_avalon_uart_read
0207d47e g     O .rodata	00000200 gamma98half
02007f6c g     F .text	00000098 alt_epcs_flash_read
0207f658 g     O .rwdata	00000008 alt_alarm_list
02009b54 g     F .text	00000060 _do_ctors
0207ce7e g     O .rodata	00000200 linearRGB
020069fc g     F .text	000000d8 close
02000268 g     F .text	00000040 longDelay
02003c98 g     F .text	00000004 __sinit_lock_acquire
020097b8 g     F .text	0000011c epcs_write_buffer



Disassembly of section .exceptions:

02000020 <alt_exception>:
 2000020:	deffed04 	addi	sp,sp,-76
 2000024:	dfc00015 	stw	ra,0(sp)
 2000028:	d8400215 	stw	at,8(sp)
 200002c:	d8800315 	stw	r2,12(sp)
 2000030:	d8c00415 	stw	r3,16(sp)
 2000034:	d9000515 	stw	r4,20(sp)
 2000038:	d9400615 	stw	r5,24(sp)
 200003c:	d9800715 	stw	r6,28(sp)
 2000040:	d9c00815 	stw	r7,32(sp)
 2000044:	000b307a 	rdctl	r5,estatus
 2000048:	da000915 	stw	r8,36(sp)
 200004c:	da400a15 	stw	r9,40(sp)
 2000050:	da800b15 	stw	r10,44(sp)
 2000054:	dac00c15 	stw	r11,48(sp)
 2000058:	db000d15 	stw	r12,52(sp)
 200005c:	db400e15 	stw	r13,56(sp)
 2000060:	db800f15 	stw	r14,60(sp)
 2000064:	dbc01015 	stw	r15,64(sp)
 2000068:	d9401115 	stw	r5,68(sp)
 200006c:	ebffff04 	addi	r15,ea,-4
 2000070:	dbc01215 	stw	r15,72(sp)
 2000074:	0009313a 	rdctl	r4,ipending
 2000078:	2880004c 	andi	r2,r5,1
 200007c:	10000326 	beq	r2,zero,200008c <alt_exception+0x6c>
 2000080:	20000226 	beq	r4,zero,200008c <alt_exception+0x6c>
 2000084:	20000fc0 	call	20000fc <alt_irq_handler>
 2000088:	00000706 	br	20000a8 <alt_exception+0x88>
 200008c:	df401215 	stw	ea,72(sp)
 2000090:	e8bfff17 	ldw	r2,-4(ea)
 2000094:	e93fff04 	addi	r4,ea,-4
 2000098:	20001d00 	call	20001d0 <alt_instruction_exception_entry>
 200009c:	1000021e 	bne	r2,zero,20000a8 <alt_exception+0x88>
 20000a0:	ebffff04 	addi	r15,ea,-4
 20000a4:	dbc01215 	stw	r15,72(sp)
 20000a8:	d9401117 	ldw	r5,68(sp)
 20000ac:	df401217 	ldw	ea,72(sp)
 20000b0:	dfc00017 	ldw	ra,0(sp)
 20000b4:	2801707a 	wrctl	estatus,r5
 20000b8:	d8400217 	ldw	at,8(sp)
 20000bc:	d8800317 	ldw	r2,12(sp)
 20000c0:	d8c00417 	ldw	r3,16(sp)
 20000c4:	d9000517 	ldw	r4,20(sp)
 20000c8:	d9400617 	ldw	r5,24(sp)
 20000cc:	d9800717 	ldw	r6,28(sp)
 20000d0:	d9c00817 	ldw	r7,32(sp)
 20000d4:	da000917 	ldw	r8,36(sp)
 20000d8:	da400a17 	ldw	r9,40(sp)
 20000dc:	da800b17 	ldw	r10,44(sp)
 20000e0:	dac00c17 	ldw	r11,48(sp)
 20000e4:	db000d17 	ldw	r12,52(sp)
 20000e8:	db400e17 	ldw	r13,56(sp)
 20000ec:	db800f17 	ldw	r14,60(sp)
 20000f0:	dbc01017 	ldw	r15,64(sp)
 20000f4:	dec01304 	addi	sp,sp,76
 20000f8:	ef80083a 	eret

020000fc <alt_irq_handler>:
 20000fc:	defff904 	addi	sp,sp,-28
 2000100:	dfc00615 	stw	ra,24(sp)
 2000104:	df000515 	stw	fp,20(sp)
 2000108:	df000504 	addi	fp,sp,20
 200010c:	0001883a 	nop
 2000110:	0005313a 	rdctl	r2,ipending
 2000114:	e0bffe15 	stw	r2,-8(fp)
 2000118:	e0bffe17 	ldw	r2,-8(fp)
 200011c:	e0bffb15 	stw	r2,-20(fp)
 2000120:	e03ffd15 	stw	zero,-12(fp)
 2000124:	00800044 	movi	r2,1
 2000128:	e0bffc15 	stw	r2,-16(fp)
 200012c:	e0fffb17 	ldw	r3,-20(fp)
 2000130:	e0bffc17 	ldw	r2,-16(fp)
 2000134:	1884703a 	and	r2,r3,r2
 2000138:	10001426 	beq	r2,zero,200018c <alt_irq_handler+0x90>
 200013c:	00808234 	movhi	r2,520
 2000140:	10bdb904 	addi	r2,r2,-2332
 2000144:	e0fffd17 	ldw	r3,-12(fp)
 2000148:	180690fa 	slli	r3,r3,3
 200014c:	10c5883a 	add	r2,r2,r3
 2000150:	10c00017 	ldw	r3,0(r2)
 2000154:	00808234 	movhi	r2,520
 2000158:	10bdb904 	addi	r2,r2,-2332
 200015c:	e13ffd17 	ldw	r4,-12(fp)
 2000160:	200890fa 	slli	r4,r4,3
 2000164:	1105883a 	add	r2,r2,r4
 2000168:	10800104 	addi	r2,r2,4
 200016c:	10800017 	ldw	r2,0(r2)
 2000170:	1009883a 	mov	r4,r2
 2000174:	183ee83a 	callr	r3
 2000178:	0001883a 	nop
 200017c:	0005313a 	rdctl	r2,ipending
 2000180:	e0bfff15 	stw	r2,-4(fp)
 2000184:	e0bfff17 	ldw	r2,-4(fp)
 2000188:	00000706 	br	20001a8 <alt_irq_handler+0xac>
 200018c:	e0bffc17 	ldw	r2,-16(fp)
 2000190:	1085883a 	add	r2,r2,r2
 2000194:	e0bffc15 	stw	r2,-16(fp)
 2000198:	e0bffd17 	ldw	r2,-12(fp)
 200019c:	10800044 	addi	r2,r2,1
 20001a0:	e0bffd15 	stw	r2,-12(fp)
 20001a4:	003fe106 	br	200012c <__alt_mem_epcs_flash_controller+0xfdff712c>
 20001a8:	e0bffb15 	stw	r2,-20(fp)
 20001ac:	e0bffb17 	ldw	r2,-20(fp)
 20001b0:	103fdb1e 	bne	r2,zero,2000120 <__alt_mem_epcs_flash_controller+0xfdff7120>
 20001b4:	0001883a 	nop
 20001b8:	0001883a 	nop
 20001bc:	e037883a 	mov	sp,fp
 20001c0:	dfc00117 	ldw	ra,4(sp)
 20001c4:	df000017 	ldw	fp,0(sp)
 20001c8:	dec00204 	addi	sp,sp,8
 20001cc:	f800283a 	ret

020001d0 <alt_instruction_exception_entry>:
 20001d0:	defffb04 	addi	sp,sp,-20
 20001d4:	dfc00415 	stw	ra,16(sp)
 20001d8:	df000315 	stw	fp,12(sp)
 20001dc:	df000304 	addi	fp,sp,12
 20001e0:	e13fff15 	stw	r4,-4(fp)
 20001e4:	00bfffc4 	movi	r2,-1
 20001e8:	e0bffd15 	stw	r2,-12(fp)
 20001ec:	e03ffe15 	stw	zero,-8(fp)
 20001f0:	d0a02017 	ldw	r2,-32640(gp)
 20001f4:	10000726 	beq	r2,zero,2000214 <alt_instruction_exception_entry+0x44>
 20001f8:	d0a02017 	ldw	r2,-32640(gp)
 20001fc:	e0fffd17 	ldw	r3,-12(fp)
 2000200:	e1bffe17 	ldw	r6,-8(fp)
 2000204:	e17fff17 	ldw	r5,-4(fp)
 2000208:	1809883a 	mov	r4,r3
 200020c:	103ee83a 	callr	r2
 2000210:	00000206 	br	200021c <alt_instruction_exception_entry+0x4c>
 2000214:	003da03a 	break	0
 2000218:	0005883a 	mov	r2,zero
 200021c:	e037883a 	mov	sp,fp
 2000220:	dfc00117 	ldw	ra,4(sp)
 2000224:	df000017 	ldw	fp,0(sp)
 2000228:	dec00204 	addi	sp,sp,8
 200022c:	f800283a 	ret

Disassembly of section .text:

02000230 <_start>:
 2000230:	06c10034 	movhi	sp,1024
 2000234:	dec00014 	ori	sp,sp,0
 2000238:	06808234 	movhi	gp,520
 200023c:	d69d8814 	ori	gp,gp,30240
 2000240:	008081f4 	movhi	r2,519
 2000244:	10bd9b14 	ori	r2,r2,63084
 2000248:	00c081f4 	movhi	r3,519
 200024c:	18fdf914 	ori	r3,r3,63460
 2000250:	10c00326 	beq	r2,r3,2000260 <_start+0x30>
 2000254:	10000015 	stw	zero,0(r2)
 2000258:	10800104 	addi	r2,r2,4
 200025c:	10fffd36 	bltu	r2,r3,2000254 <__alt_mem_epcs_flash_controller+0xfdff7254>
 2000260:	2006df40 	call	2006df4 <alt_main>

02000264 <alt_after_alt_main>:
 2000264:	003fff06 	br	2000264 <__alt_mem_epcs_flash_controller+0xfdff7264>

02000268 <longDelay>:
 2000268:	defffe04 	addi	sp,sp,-8
 200026c:	df000115 	stw	fp,4(sp)
 2000270:	df000104 	addi	fp,sp,4
 2000274:	e03fff15 	stw	zero,-4(fp)
 2000278:	00000306 	br	2000288 <longDelay+0x20>
 200027c:	e0bfff17 	ldw	r2,-4(fp)
 2000280:	10800044 	addi	r2,r2,1
 2000284:	e0bfff15 	stw	r2,-4(fp)
 2000288:	e0bfff17 	ldw	r2,-4(fp)
 200028c:	1082ee10 	cmplti	r2,r2,3000
 2000290:	103ffa1e 	bne	r2,zero,200027c <__alt_mem_epcs_flash_controller+0xfdff727c>
 2000294:	0001883a 	nop
 2000298:	e037883a 	mov	sp,fp
 200029c:	df000017 	ldw	fp,0(sp)
 20002a0:	dec00104 	addi	sp,sp,4
 20002a4:	f800283a 	ret

020002a8 <frame_callback>:
 20002a8:	defffc04 	addi	sp,sp,-16
 20002ac:	dfc00315 	stw	ra,12(sp)
 20002b0:	df000215 	stw	fp,8(sp)
 20002b4:	df000204 	addi	fp,sp,8
 20002b8:	e13fff15 	stw	r4,-4(fp)
 20002bc:	d0a01517 	ldw	r2,-32684(gp)
 20002c0:	e0bffe15 	stw	r2,-8(fp)
 20002c4:	d0a01417 	ldw	r2,-32688(gp)
 20002c8:	1004933a 	slli	r2,r2,12
 20002cc:	10800304 	addi	r2,r2,12
 20002d0:	e0fffe17 	ldw	r3,-8(fp)
 20002d4:	1885883a 	add	r2,r3,r2
 20002d8:	1009883a 	mov	r4,r2
 20002dc:	20004f80 	call	20004f8 <displayBitmap>
 20002e0:	d0a01417 	ldw	r2,-32688(gp)
 20002e4:	10c00044 	addi	r3,r2,1
 20002e8:	e0bffe17 	ldw	r2,-8(fp)
 20002ec:	10800217 	ldw	r2,8(r2)
 20002f0:	100b883a 	mov	r5,r2
 20002f4:	1809883a 	mov	r4,r3
 20002f8:	20020c00 	call	20020c0 <__modsi3>
 20002fc:	d0a01415 	stw	r2,-32688(gp)
 2000300:	e0bffe17 	ldw	r2,-8(fp)
 2000304:	10800117 	ldw	r2,4(r2)
 2000308:	e037883a 	mov	sp,fp
 200030c:	dfc00117 	ldw	ra,4(sp)
 2000310:	df000017 	ldw	fp,0(sp)
 2000314:	dec00204 	addi	sp,sp,8
 2000318:	f800283a 	ret

0200031c <main>:
 200031c:	defffd04 	addi	sp,sp,-12
 2000320:	dfc00215 	stw	ra,8(sp)
 2000324:	df000115 	stw	fp,4(sp)
 2000328:	df000104 	addi	fp,sp,4
 200032c:	200041c0 	call	200041c <blank>
 2000330:	01008234 	movhi	r4,520
 2000334:	21339a04 	addi	r4,r4,-12696
 2000338:	20037ec0 	call	20037ec <puts>
 200033c:	20003e00 	call	20003e0 <delay>
 2000340:	00808234 	movhi	r2,520
 2000344:	10b67a04 	addi	r2,r2,-9752
 2000348:	10800117 	ldw	r2,4(r2)
 200034c:	d0a01515 	stw	r2,-32684(gp)
 2000350:	000f883a 	mov	r7,zero
 2000354:	01808034 	movhi	r6,512
 2000358:	3180aa04 	addi	r6,r6,680
 200035c:	0140fa04 	movi	r5,1000
 2000360:	01008234 	movhi	r4,520
 2000364:	213da904 	addi	r4,r4,-2396
 2000368:	20068940 	call	2006894 <alt_alarm_start>
 200036c:	d0a00417 	ldw	r2,-32752(gp)
 2000370:	10800117 	ldw	r2,4(r2)
 2000374:	1009883a 	mov	r4,r2
 2000378:	20036840 	call	2003684 <getc>
 200037c:	e0bfff05 	stb	r2,-4(fp)
 2000380:	e0bfff07 	ldb	r2,-4(fp)
 2000384:	1009883a 	mov	r4,r2
 2000388:	20037140 	call	2003714 <putchar>
 200038c:	e0bfff07 	ldb	r2,-4(fp)
 2000390:	10800c18 	cmpnei	r2,r2,48
 2000394:	1000051e 	bne	r2,zero,20003ac <main+0x90>
 2000398:	00808234 	movhi	r2,520
 200039c:	10b69404 	addi	r2,r2,-9648
 20003a0:	10800017 	ldw	r2,0(r2)
 20003a4:	d0a01515 	stw	r2,-32684(gp)
 20003a8:	003ff006 	br	200036c <__alt_mem_epcs_flash_controller+0xfdff736c>
 20003ac:	e0bfff07 	ldb	r2,-4(fp)
 20003b0:	10800c58 	cmpnei	r2,r2,49
 20003b4:	1000051e 	bne	r2,zero,20003cc <main+0xb0>
 20003b8:	00808234 	movhi	r2,520
 20003bc:	10b69404 	addi	r2,r2,-9648
 20003c0:	10800117 	ldw	r2,4(r2)
 20003c4:	d0a01515 	stw	r2,-32684(gp)
 20003c8:	003fe806 	br	200036c <__alt_mem_epcs_flash_controller+0xfdff736c>
 20003cc:	00808234 	movhi	r2,520
 20003d0:	10b69404 	addi	r2,r2,-9648
 20003d4:	10800217 	ldw	r2,8(r2)
 20003d8:	d0a01515 	stw	r2,-32684(gp)
 20003dc:	003fe306 	br	200036c <__alt_mem_epcs_flash_controller+0xfdff736c>

020003e0 <delay>:
 20003e0:	defffe04 	addi	sp,sp,-8
 20003e4:	df000115 	stw	fp,4(sp)
 20003e8:	df000104 	addi	fp,sp,4
 20003ec:	e03fff15 	stw	zero,-4(fp)
 20003f0:	00000306 	br	2000400 <delay+0x20>
 20003f4:	e0bfff17 	ldw	r2,-4(fp)
 20003f8:	10800044 	addi	r2,r2,1
 20003fc:	e0bfff15 	stw	r2,-4(fp)
 2000400:	e0bfff17 	ldw	r2,-4(fp)
 2000404:	00bffb0e 	bge	zero,r2,20003f4 <__alt_mem_epcs_flash_controller+0xfdff73f4>
 2000408:	0001883a 	nop
 200040c:	e037883a 	mov	sp,fp
 2000410:	df000017 	ldw	fp,0(sp)
 2000414:	dec00104 	addi	sp,sp,4
 2000418:	f800283a 	ret

0200041c <blank>:
 200041c:	defffb04 	addi	sp,sp,-20
 2000420:	dfc00415 	stw	ra,16(sp)
 2000424:	df000315 	stw	fp,12(sp)
 2000428:	df000304 	addi	fp,sp,12
 200042c:	e03ffd15 	stw	zero,-12(fp)
 2000430:	00002806 	br	20004d4 <blank+0xb8>
 2000434:	e03ffe15 	stw	zero,-8(fp)
 2000438:	00002006 	br	20004bc <blank+0xa0>
 200043c:	00810004 	movi	r2,1024
 2000440:	e0bfff15 	stw	r2,-4(fp)
 2000444:	e0bffd17 	ldw	r2,-12(fp)
 2000448:	1004917a 	slli	r2,r2,5
 200044c:	e0ffff17 	ldw	r3,-4(fp)
 2000450:	1885883a 	add	r2,r3,r2
 2000454:	e0bfff15 	stw	r2,-4(fp)
 2000458:	e0ffff17 	ldw	r3,-4(fp)
 200045c:	e0bffe17 	ldw	r2,-8(fp)
 2000460:	1885883a 	add	r2,r3,r2
 2000464:	e0bfff15 	stw	r2,-4(fp)
 2000468:	00810074 	movhi	r2,1025
 200046c:	10a82004 	addi	r2,r2,-24448
 2000470:	e0ffff17 	ldw	r3,-4(fp)
 2000474:	10c00035 	stwio	r3,0(r2)
 2000478:	0007883a 	mov	r3,zero
 200047c:	00810074 	movhi	r2,1025
 2000480:	10a81c04 	addi	r2,r2,-24464
 2000484:	10c00035 	stwio	r3,0(r2)
 2000488:	20003e00 	call	20003e0 <delay>
 200048c:	00c00044 	movi	r3,1
 2000490:	00810074 	movhi	r2,1025
 2000494:	10a81804 	addi	r2,r2,-24480
 2000498:	10c00035 	stwio	r3,0(r2)
 200049c:	20003e00 	call	20003e0 <delay>
 20004a0:	0007883a 	mov	r3,zero
 20004a4:	00810074 	movhi	r2,1025
 20004a8:	10a81804 	addi	r2,r2,-24480
 20004ac:	10c00035 	stwio	r3,0(r2)
 20004b0:	e0bffe17 	ldw	r2,-8(fp)
 20004b4:	10800044 	addi	r2,r2,1
 20004b8:	e0bffe15 	stw	r2,-8(fp)
 20004bc:	e0bffe17 	ldw	r2,-8(fp)
 20004c0:	10800810 	cmplti	r2,r2,32
 20004c4:	103fdd1e 	bne	r2,zero,200043c <__alt_mem_epcs_flash_controller+0xfdff743c>
 20004c8:	e0bffd17 	ldw	r2,-12(fp)
 20004cc:	10800044 	addi	r2,r2,1
 20004d0:	e0bffd15 	stw	r2,-12(fp)
 20004d4:	e0bffd17 	ldw	r2,-12(fp)
 20004d8:	10800810 	cmplti	r2,r2,32
 20004dc:	103fd51e 	bne	r2,zero,2000434 <__alt_mem_epcs_flash_controller+0xfdff7434>
 20004e0:	0001883a 	nop
 20004e4:	e037883a 	mov	sp,fp
 20004e8:	dfc00117 	ldw	ra,4(sp)
 20004ec:	df000017 	ldw	fp,0(sp)
 20004f0:	dec00204 	addi	sp,sp,8
 20004f4:	f800283a 	ret

020004f8 <displayBitmap>:
 20004f8:	defff804 	addi	sp,sp,-32
 20004fc:	df000715 	stw	fp,28(sp)
 2000500:	df000704 	addi	fp,sp,28
 2000504:	e13fff15 	stw	r4,-4(fp)
 2000508:	e03ff915 	stw	zero,-28(fp)
 200050c:	00004506 	br	2000624 <displayBitmap+0x12c>
 2000510:	e0bff917 	ldw	r2,-28(fp)
 2000514:	10810004 	addi	r2,r2,1024
 2000518:	e0bffa15 	stw	r2,-24(fp)
 200051c:	e0bff917 	ldw	r2,-28(fp)
 2000520:	1085883a 	add	r2,r2,r2
 2000524:	1085883a 	add	r2,r2,r2
 2000528:	1007883a 	mov	r3,r2
 200052c:	e0bfff17 	ldw	r2,-4(fp)
 2000530:	10c5883a 	add	r2,r2,r3
 2000534:	10800017 	ldw	r2,0(r2)
 2000538:	e0bffb15 	stw	r2,-20(fp)
 200053c:	e0bffb17 	ldw	r2,-20(fp)
 2000540:	1004d43a 	srli	r2,r2,16
 2000544:	10c03fcc 	andi	r3,r2,255
 2000548:	00808234 	movhi	r2,520
 200054c:	10b59f84 	addi	r2,r2,-10626
 2000550:	18c7883a 	add	r3,r3,r3
 2000554:	10c5883a 	add	r2,r2,r3
 2000558:	1080000b 	ldhu	r2,0(r2)
 200055c:	e0bffc0d 	sth	r2,-16(fp)
 2000560:	e0bffb17 	ldw	r2,-20(fp)
 2000564:	1004d23a 	srli	r2,r2,8
 2000568:	10c03fcc 	andi	r3,r2,255
 200056c:	00808234 	movhi	r2,520
 2000570:	10b59f84 	addi	r2,r2,-10626
 2000574:	18c7883a 	add	r3,r3,r3
 2000578:	10c5883a 	add	r2,r2,r3
 200057c:	1080000b 	ldhu	r2,0(r2)
 2000580:	e0bffc8d 	sth	r2,-14(fp)
 2000584:	e0bffb17 	ldw	r2,-20(fp)
 2000588:	10c03fcc 	andi	r3,r2,255
 200058c:	00808234 	movhi	r2,520
 2000590:	10b59f84 	addi	r2,r2,-10626
 2000594:	18c7883a 	add	r3,r3,r3
 2000598:	10c5883a 	add	r2,r2,r3
 200059c:	1080000b 	ldhu	r2,0(r2)
 20005a0:	e0bffd0d 	sth	r2,-12(fp)
 20005a4:	e0bffd0b 	ldhu	r2,-12(fp)
 20005a8:	1004953a 	slli	r2,r2,20
 20005ac:	10cffc2c 	andhi	r3,r2,16368
 20005b0:	e0bffc8b 	ldhu	r2,-14(fp)
 20005b4:	100892ba 	slli	r4,r2,10
 20005b8:	00800434 	movhi	r2,16
 20005bc:	10bf0004 	addi	r2,r2,-1024
 20005c0:	2084703a 	and	r2,r4,r2
 20005c4:	1886b03a 	or	r3,r3,r2
 20005c8:	e0bffc0b 	ldhu	r2,-16(fp)
 20005cc:	1080ffcc 	andi	r2,r2,1023
 20005d0:	1884b03a 	or	r2,r3,r2
 20005d4:	e0bffe15 	stw	r2,-8(fp)
 20005d8:	00810074 	movhi	r2,1025
 20005dc:	10a82004 	addi	r2,r2,-24448
 20005e0:	e0fffa17 	ldw	r3,-24(fp)
 20005e4:	10c00035 	stwio	r3,0(r2)
 20005e8:	e0fffe17 	ldw	r3,-8(fp)
 20005ec:	00810074 	movhi	r2,1025
 20005f0:	10a81c04 	addi	r2,r2,-24464
 20005f4:	10c00035 	stwio	r3,0(r2)
 20005f8:	00c00044 	movi	r3,1
 20005fc:	00810074 	movhi	r2,1025
 2000600:	10a81804 	addi	r2,r2,-24480
 2000604:	10c00035 	stwio	r3,0(r2)
 2000608:	0007883a 	mov	r3,zero
 200060c:	00810074 	movhi	r2,1025
 2000610:	10a81804 	addi	r2,r2,-24480
 2000614:	10c00035 	stwio	r3,0(r2)
 2000618:	e0bff917 	ldw	r2,-28(fp)
 200061c:	10800044 	addi	r2,r2,1
 2000620:	e0bff915 	stw	r2,-28(fp)
 2000624:	e0bff917 	ldw	r2,-28(fp)
 2000628:	10810010 	cmplti	r2,r2,1024
 200062c:	103fb81e 	bne	r2,zero,2000510 <__alt_mem_epcs_flash_controller+0xfdff7510>
 2000630:	0001883a 	nop
 2000634:	e037883a 	mov	sp,fp
 2000638:	df000017 	ldw	fp,0(sp)
 200063c:	dec00104 	addi	sp,sp,4
 2000640:	f800283a 	ret

02000644 <displayColourBars>:
 2000644:	defff804 	addi	sp,sp,-32
 2000648:	dfc00715 	stw	ra,28(sp)
 200064c:	df000615 	stw	fp,24(sp)
 2000650:	df000604 	addi	fp,sp,24
 2000654:	e03ffa15 	stw	zero,-24(fp)
 2000658:	0001ef06 	br	2000e18 <displayColourBars+0x7d4>
 200065c:	e03ffb15 	stw	zero,-20(fp)
 2000660:	0001e706 	br	2000e00 <displayColourBars+0x7bc>
 2000664:	00810004 	movi	r2,1024
 2000668:	e0bffe15 	stw	r2,-8(fp)
 200066c:	e0bffa17 	ldw	r2,-24(fp)
 2000670:	1004917a 	slli	r2,r2,5
 2000674:	e0fffe17 	ldw	r3,-8(fp)
 2000678:	1885883a 	add	r2,r3,r2
 200067c:	e0bffe15 	stw	r2,-8(fp)
 2000680:	e0fffe17 	ldw	r3,-8(fp)
 2000684:	e0bffb17 	ldw	r2,-20(fp)
 2000688:	1885883a 	add	r2,r3,r2
 200068c:	e0bffe15 	stw	r2,-8(fp)
 2000690:	e0bffa17 	ldw	r2,-24(fp)
 2000694:	10800108 	cmpgei	r2,r2,4
 2000698:	1000241e 	bne	r2,zero,200072c <displayColourBars+0xe8>
 200069c:	e13ffb17 	ldw	r4,-20(fp)
 20006a0:	20034ac0 	call	20034ac <__floatsidf>
 20006a4:	1011883a 	mov	r8,r2
 20006a8:	1813883a 	mov	r9,r3
 20006ac:	000d883a 	mov	r6,zero
 20006b0:	01d00ff4 	movhi	r7,16447
 20006b4:	4009883a 	mov	r4,r8
 20006b8:	480b883a 	mov	r5,r9
 20006bc:	20021f00 	call	20021f0 <__divdf3>
 20006c0:	1009883a 	mov	r4,r2
 20006c4:	180b883a 	mov	r5,r3
 20006c8:	2005883a 	mov	r2,r4
 20006cc:	2807883a 	mov	r3,r5
 20006d0:	000d883a 	mov	r6,zero
 20006d4:	01d01c34 	movhi	r7,16496
 20006d8:	39f80004 	addi	r7,r7,-8192
 20006dc:	1009883a 	mov	r4,r2
 20006e0:	180b883a 	mov	r5,r3
 20006e4:	2002bc00 	call	2002bc0 <__muldf3>
 20006e8:	1009883a 	mov	r4,r2
 20006ec:	180b883a 	mov	r5,r3
 20006f0:	2005883a 	mov	r2,r4
 20006f4:	2807883a 	mov	r3,r5
 20006f8:	1009883a 	mov	r4,r2
 20006fc:	180b883a 	mov	r5,r3
 2000700:	200342c0 	call	200342c <__fixdfsi>
 2000704:	1007883a 	mov	r3,r2
 2000708:	00808234 	movhi	r2,520
 200070c:	10b39f84 	addi	r2,r2,-12674
 2000710:	18c7883a 	add	r3,r3,r3
 2000714:	10c5883a 	add	r2,r2,r3
 2000718:	1080000b 	ldhu	r2,0(r2)
 200071c:	e0bffc0d 	sth	r2,-16(fp)
 2000720:	e03ffc8d 	sth	zero,-14(fp)
 2000724:	e03ffd0d 	sth	zero,-12(fp)
 2000728:	00019506 	br	2000d80 <displayColourBars+0x73c>
 200072c:	e0bffa17 	ldw	r2,-24(fp)
 2000730:	10800110 	cmplti	r2,r2,4
 2000734:	1000471e 	bne	r2,zero,2000854 <displayColourBars+0x210>
 2000738:	e0bffa17 	ldw	r2,-24(fp)
 200073c:	10800208 	cmpgei	r2,r2,8
 2000740:	1000441e 	bne	r2,zero,2000854 <displayColourBars+0x210>
 2000744:	e13ffb17 	ldw	r4,-20(fp)
 2000748:	20034ac0 	call	20034ac <__floatsidf>
 200074c:	1011883a 	mov	r8,r2
 2000750:	1813883a 	mov	r9,r3
 2000754:	000d883a 	mov	r6,zero
 2000758:	01d00ff4 	movhi	r7,16447
 200075c:	4009883a 	mov	r4,r8
 2000760:	480b883a 	mov	r5,r9
 2000764:	20021f00 	call	20021f0 <__divdf3>
 2000768:	1009883a 	mov	r4,r2
 200076c:	180b883a 	mov	r5,r3
 2000770:	2005883a 	mov	r2,r4
 2000774:	2807883a 	mov	r3,r5
 2000778:	000d883a 	mov	r6,zero
 200077c:	01d01c34 	movhi	r7,16496
 2000780:	39f80004 	addi	r7,r7,-8192
 2000784:	1009883a 	mov	r4,r2
 2000788:	180b883a 	mov	r5,r3
 200078c:	2002bc00 	call	2002bc0 <__muldf3>
 2000790:	1009883a 	mov	r4,r2
 2000794:	180b883a 	mov	r5,r3
 2000798:	2005883a 	mov	r2,r4
 200079c:	2807883a 	mov	r3,r5
 20007a0:	1009883a 	mov	r4,r2
 20007a4:	180b883a 	mov	r5,r3
 20007a8:	200342c0 	call	200342c <__fixdfsi>
 20007ac:	1007883a 	mov	r3,r2
 20007b0:	00808234 	movhi	r2,520
 20007b4:	10b39f84 	addi	r2,r2,-12674
 20007b8:	18c7883a 	add	r3,r3,r3
 20007bc:	10c5883a 	add	r2,r2,r3
 20007c0:	1080000b 	ldhu	r2,0(r2)
 20007c4:	e0bffc0d 	sth	r2,-16(fp)
 20007c8:	e13ffb17 	ldw	r4,-20(fp)
 20007cc:	20034ac0 	call	20034ac <__floatsidf>
 20007d0:	1011883a 	mov	r8,r2
 20007d4:	1813883a 	mov	r9,r3
 20007d8:	000d883a 	mov	r6,zero
 20007dc:	01d00ff4 	movhi	r7,16447
 20007e0:	4009883a 	mov	r4,r8
 20007e4:	480b883a 	mov	r5,r9
 20007e8:	20021f00 	call	20021f0 <__divdf3>
 20007ec:	1009883a 	mov	r4,r2
 20007f0:	180b883a 	mov	r5,r3
 20007f4:	2005883a 	mov	r2,r4
 20007f8:	2807883a 	mov	r3,r5
 20007fc:	000d883a 	mov	r6,zero
 2000800:	01d01c34 	movhi	r7,16496
 2000804:	39f80004 	addi	r7,r7,-8192
 2000808:	1009883a 	mov	r4,r2
 200080c:	180b883a 	mov	r5,r3
 2000810:	2002bc00 	call	2002bc0 <__muldf3>
 2000814:	1009883a 	mov	r4,r2
 2000818:	180b883a 	mov	r5,r3
 200081c:	2005883a 	mov	r2,r4
 2000820:	2807883a 	mov	r3,r5
 2000824:	1009883a 	mov	r4,r2
 2000828:	180b883a 	mov	r5,r3
 200082c:	200342c0 	call	200342c <__fixdfsi>
 2000830:	1007883a 	mov	r3,r2
 2000834:	00808234 	movhi	r2,520
 2000838:	10b39f84 	addi	r2,r2,-12674
 200083c:	18c7883a 	add	r3,r3,r3
 2000840:	10c5883a 	add	r2,r2,r3
 2000844:	1080000b 	ldhu	r2,0(r2)
 2000848:	e0bffc8d 	sth	r2,-14(fp)
 200084c:	e03ffd0d 	sth	zero,-12(fp)
 2000850:	00014b06 	br	2000d80 <displayColourBars+0x73c>
 2000854:	e0bffa17 	ldw	r2,-24(fp)
 2000858:	10800210 	cmplti	r2,r2,8
 200085c:	1000271e 	bne	r2,zero,20008fc <displayColourBars+0x2b8>
 2000860:	e0bffa17 	ldw	r2,-24(fp)
 2000864:	10800308 	cmpgei	r2,r2,12
 2000868:	1000241e 	bne	r2,zero,20008fc <displayColourBars+0x2b8>
 200086c:	e03ffc0d 	sth	zero,-16(fp)
 2000870:	e13ffb17 	ldw	r4,-20(fp)
 2000874:	20034ac0 	call	20034ac <__floatsidf>
 2000878:	1011883a 	mov	r8,r2
 200087c:	1813883a 	mov	r9,r3
 2000880:	000d883a 	mov	r6,zero
 2000884:	01d00ff4 	movhi	r7,16447
 2000888:	4009883a 	mov	r4,r8
 200088c:	480b883a 	mov	r5,r9
 2000890:	20021f00 	call	20021f0 <__divdf3>
 2000894:	1009883a 	mov	r4,r2
 2000898:	180b883a 	mov	r5,r3
 200089c:	2005883a 	mov	r2,r4
 20008a0:	2807883a 	mov	r3,r5
 20008a4:	000d883a 	mov	r6,zero
 20008a8:	01d01c34 	movhi	r7,16496
 20008ac:	39f80004 	addi	r7,r7,-8192
 20008b0:	1009883a 	mov	r4,r2
 20008b4:	180b883a 	mov	r5,r3
 20008b8:	2002bc00 	call	2002bc0 <__muldf3>
 20008bc:	1009883a 	mov	r4,r2
 20008c0:	180b883a 	mov	r5,r3
 20008c4:	2005883a 	mov	r2,r4
 20008c8:	2807883a 	mov	r3,r5
 20008cc:	1009883a 	mov	r4,r2
 20008d0:	180b883a 	mov	r5,r3
 20008d4:	200342c0 	call	200342c <__fixdfsi>
 20008d8:	1007883a 	mov	r3,r2
 20008dc:	00808234 	movhi	r2,520
 20008e0:	10b39f84 	addi	r2,r2,-12674
 20008e4:	18c7883a 	add	r3,r3,r3
 20008e8:	10c5883a 	add	r2,r2,r3
 20008ec:	1080000b 	ldhu	r2,0(r2)
 20008f0:	e0bffc8d 	sth	r2,-14(fp)
 20008f4:	e03ffd0d 	sth	zero,-12(fp)
 20008f8:	00012106 	br	2000d80 <displayColourBars+0x73c>
 20008fc:	e0bffa17 	ldw	r2,-24(fp)
 2000900:	10800310 	cmplti	r2,r2,12
 2000904:	1000471e 	bne	r2,zero,2000a24 <displayColourBars+0x3e0>
 2000908:	e0bffa17 	ldw	r2,-24(fp)
 200090c:	10800408 	cmpgei	r2,r2,16
 2000910:	1000441e 	bne	r2,zero,2000a24 <displayColourBars+0x3e0>
 2000914:	e03ffc0d 	sth	zero,-16(fp)
 2000918:	e13ffb17 	ldw	r4,-20(fp)
 200091c:	20034ac0 	call	20034ac <__floatsidf>
 2000920:	1011883a 	mov	r8,r2
 2000924:	1813883a 	mov	r9,r3
 2000928:	000d883a 	mov	r6,zero
 200092c:	01d00ff4 	movhi	r7,16447
 2000930:	4009883a 	mov	r4,r8
 2000934:	480b883a 	mov	r5,r9
 2000938:	20021f00 	call	20021f0 <__divdf3>
 200093c:	1009883a 	mov	r4,r2
 2000940:	180b883a 	mov	r5,r3
 2000944:	2005883a 	mov	r2,r4
 2000948:	2807883a 	mov	r3,r5
 200094c:	000d883a 	mov	r6,zero
 2000950:	01d01c34 	movhi	r7,16496
 2000954:	39f80004 	addi	r7,r7,-8192
 2000958:	1009883a 	mov	r4,r2
 200095c:	180b883a 	mov	r5,r3
 2000960:	2002bc00 	call	2002bc0 <__muldf3>
 2000964:	1009883a 	mov	r4,r2
 2000968:	180b883a 	mov	r5,r3
 200096c:	2005883a 	mov	r2,r4
 2000970:	2807883a 	mov	r3,r5
 2000974:	1009883a 	mov	r4,r2
 2000978:	180b883a 	mov	r5,r3
 200097c:	200342c0 	call	200342c <__fixdfsi>
 2000980:	1007883a 	mov	r3,r2
 2000984:	00808234 	movhi	r2,520
 2000988:	10b39f84 	addi	r2,r2,-12674
 200098c:	18c7883a 	add	r3,r3,r3
 2000990:	10c5883a 	add	r2,r2,r3
 2000994:	1080000b 	ldhu	r2,0(r2)
 2000998:	e0bffc8d 	sth	r2,-14(fp)
 200099c:	e13ffb17 	ldw	r4,-20(fp)
 20009a0:	20034ac0 	call	20034ac <__floatsidf>
 20009a4:	1011883a 	mov	r8,r2
 20009a8:	1813883a 	mov	r9,r3
 20009ac:	000d883a 	mov	r6,zero
 20009b0:	01d00ff4 	movhi	r7,16447
 20009b4:	4009883a 	mov	r4,r8
 20009b8:	480b883a 	mov	r5,r9
 20009bc:	20021f00 	call	20021f0 <__divdf3>
 20009c0:	1009883a 	mov	r4,r2
 20009c4:	180b883a 	mov	r5,r3
 20009c8:	2005883a 	mov	r2,r4
 20009cc:	2807883a 	mov	r3,r5
 20009d0:	000d883a 	mov	r6,zero
 20009d4:	01d01c34 	movhi	r7,16496
 20009d8:	39f80004 	addi	r7,r7,-8192
 20009dc:	1009883a 	mov	r4,r2
 20009e0:	180b883a 	mov	r5,r3
 20009e4:	2002bc00 	call	2002bc0 <__muldf3>
 20009e8:	1009883a 	mov	r4,r2
 20009ec:	180b883a 	mov	r5,r3
 20009f0:	2005883a 	mov	r2,r4
 20009f4:	2807883a 	mov	r3,r5
 20009f8:	1009883a 	mov	r4,r2
 20009fc:	180b883a 	mov	r5,r3
 2000a00:	200342c0 	call	200342c <__fixdfsi>
 2000a04:	1007883a 	mov	r3,r2
 2000a08:	00808234 	movhi	r2,520
 2000a0c:	10b39f84 	addi	r2,r2,-12674
 2000a10:	18c7883a 	add	r3,r3,r3
 2000a14:	10c5883a 	add	r2,r2,r3
 2000a18:	1080000b 	ldhu	r2,0(r2)
 2000a1c:	e0bffd0d 	sth	r2,-12(fp)
 2000a20:	0000d706 	br	2000d80 <displayColourBars+0x73c>
 2000a24:	e0bffa17 	ldw	r2,-24(fp)
 2000a28:	10800410 	cmplti	r2,r2,16
 2000a2c:	1000271e 	bne	r2,zero,2000acc <displayColourBars+0x488>
 2000a30:	e0bffa17 	ldw	r2,-24(fp)
 2000a34:	10800508 	cmpgei	r2,r2,20
 2000a38:	1000241e 	bne	r2,zero,2000acc <displayColourBars+0x488>
 2000a3c:	e03ffc0d 	sth	zero,-16(fp)
 2000a40:	e03ffc8d 	sth	zero,-14(fp)
 2000a44:	e13ffb17 	ldw	r4,-20(fp)
 2000a48:	20034ac0 	call	20034ac <__floatsidf>
 2000a4c:	1011883a 	mov	r8,r2
 2000a50:	1813883a 	mov	r9,r3
 2000a54:	000d883a 	mov	r6,zero
 2000a58:	01d00ff4 	movhi	r7,16447
 2000a5c:	4009883a 	mov	r4,r8
 2000a60:	480b883a 	mov	r5,r9
 2000a64:	20021f00 	call	20021f0 <__divdf3>
 2000a68:	1009883a 	mov	r4,r2
 2000a6c:	180b883a 	mov	r5,r3
 2000a70:	2005883a 	mov	r2,r4
 2000a74:	2807883a 	mov	r3,r5
 2000a78:	000d883a 	mov	r6,zero
 2000a7c:	01d01c34 	movhi	r7,16496
 2000a80:	39f80004 	addi	r7,r7,-8192
 2000a84:	1009883a 	mov	r4,r2
 2000a88:	180b883a 	mov	r5,r3
 2000a8c:	2002bc00 	call	2002bc0 <__muldf3>
 2000a90:	1009883a 	mov	r4,r2
 2000a94:	180b883a 	mov	r5,r3
 2000a98:	2005883a 	mov	r2,r4
 2000a9c:	2807883a 	mov	r3,r5
 2000aa0:	1009883a 	mov	r4,r2
 2000aa4:	180b883a 	mov	r5,r3
 2000aa8:	200342c0 	call	200342c <__fixdfsi>
 2000aac:	1007883a 	mov	r3,r2
 2000ab0:	00808234 	movhi	r2,520
 2000ab4:	10b39f84 	addi	r2,r2,-12674
 2000ab8:	18c7883a 	add	r3,r3,r3
 2000abc:	10c5883a 	add	r2,r2,r3
 2000ac0:	1080000b 	ldhu	r2,0(r2)
 2000ac4:	e0bffd0d 	sth	r2,-12(fp)
 2000ac8:	0000ad06 	br	2000d80 <displayColourBars+0x73c>
 2000acc:	e0bffa17 	ldw	r2,-24(fp)
 2000ad0:	10800510 	cmplti	r2,r2,20
 2000ad4:	1000471e 	bne	r2,zero,2000bf4 <displayColourBars+0x5b0>
 2000ad8:	e0bffa17 	ldw	r2,-24(fp)
 2000adc:	10800608 	cmpgei	r2,r2,24
 2000ae0:	1000441e 	bne	r2,zero,2000bf4 <displayColourBars+0x5b0>
 2000ae4:	e13ffb17 	ldw	r4,-20(fp)
 2000ae8:	20034ac0 	call	20034ac <__floatsidf>
 2000aec:	1011883a 	mov	r8,r2
 2000af0:	1813883a 	mov	r9,r3
 2000af4:	000d883a 	mov	r6,zero
 2000af8:	01d00ff4 	movhi	r7,16447
 2000afc:	4009883a 	mov	r4,r8
 2000b00:	480b883a 	mov	r5,r9
 2000b04:	20021f00 	call	20021f0 <__divdf3>
 2000b08:	1009883a 	mov	r4,r2
 2000b0c:	180b883a 	mov	r5,r3
 2000b10:	2005883a 	mov	r2,r4
 2000b14:	2807883a 	mov	r3,r5
 2000b18:	000d883a 	mov	r6,zero
 2000b1c:	01d01c34 	movhi	r7,16496
 2000b20:	39f80004 	addi	r7,r7,-8192
 2000b24:	1009883a 	mov	r4,r2
 2000b28:	180b883a 	mov	r5,r3
 2000b2c:	2002bc00 	call	2002bc0 <__muldf3>
 2000b30:	1009883a 	mov	r4,r2
 2000b34:	180b883a 	mov	r5,r3
 2000b38:	2005883a 	mov	r2,r4
 2000b3c:	2807883a 	mov	r3,r5
 2000b40:	1009883a 	mov	r4,r2
 2000b44:	180b883a 	mov	r5,r3
 2000b48:	200342c0 	call	200342c <__fixdfsi>
 2000b4c:	1007883a 	mov	r3,r2
 2000b50:	00808234 	movhi	r2,520
 2000b54:	10b39f84 	addi	r2,r2,-12674
 2000b58:	18c7883a 	add	r3,r3,r3
 2000b5c:	10c5883a 	add	r2,r2,r3
 2000b60:	1080000b 	ldhu	r2,0(r2)
 2000b64:	e0bffc0d 	sth	r2,-16(fp)
 2000b68:	e03ffc8d 	sth	zero,-14(fp)
 2000b6c:	e13ffb17 	ldw	r4,-20(fp)
 2000b70:	20034ac0 	call	20034ac <__floatsidf>
 2000b74:	1011883a 	mov	r8,r2
 2000b78:	1813883a 	mov	r9,r3
 2000b7c:	000d883a 	mov	r6,zero
 2000b80:	01d00ff4 	movhi	r7,16447
 2000b84:	4009883a 	mov	r4,r8
 2000b88:	480b883a 	mov	r5,r9
 2000b8c:	20021f00 	call	20021f0 <__divdf3>
 2000b90:	1009883a 	mov	r4,r2
 2000b94:	180b883a 	mov	r5,r3
 2000b98:	2005883a 	mov	r2,r4
 2000b9c:	2807883a 	mov	r3,r5
 2000ba0:	000d883a 	mov	r6,zero
 2000ba4:	01d01c34 	movhi	r7,16496
 2000ba8:	39f80004 	addi	r7,r7,-8192
 2000bac:	1009883a 	mov	r4,r2
 2000bb0:	180b883a 	mov	r5,r3
 2000bb4:	2002bc00 	call	2002bc0 <__muldf3>
 2000bb8:	1009883a 	mov	r4,r2
 2000bbc:	180b883a 	mov	r5,r3
 2000bc0:	2005883a 	mov	r2,r4
 2000bc4:	2807883a 	mov	r3,r5
 2000bc8:	1009883a 	mov	r4,r2
 2000bcc:	180b883a 	mov	r5,r3
 2000bd0:	200342c0 	call	200342c <__fixdfsi>
 2000bd4:	1007883a 	mov	r3,r2
 2000bd8:	00808234 	movhi	r2,520
 2000bdc:	10b39f84 	addi	r2,r2,-12674
 2000be0:	18c7883a 	add	r3,r3,r3
 2000be4:	10c5883a 	add	r2,r2,r3
 2000be8:	1080000b 	ldhu	r2,0(r2)
 2000bec:	e0bffd0d 	sth	r2,-12(fp)
 2000bf0:	00006306 	br	2000d80 <displayColourBars+0x73c>
 2000bf4:	e13ffb17 	ldw	r4,-20(fp)
 2000bf8:	20034ac0 	call	20034ac <__floatsidf>
 2000bfc:	1011883a 	mov	r8,r2
 2000c00:	1813883a 	mov	r9,r3
 2000c04:	000d883a 	mov	r6,zero
 2000c08:	01d00ff4 	movhi	r7,16447
 2000c0c:	4009883a 	mov	r4,r8
 2000c10:	480b883a 	mov	r5,r9
 2000c14:	20021f00 	call	20021f0 <__divdf3>
 2000c18:	1009883a 	mov	r4,r2
 2000c1c:	180b883a 	mov	r5,r3
 2000c20:	2005883a 	mov	r2,r4
 2000c24:	2807883a 	mov	r3,r5
 2000c28:	000d883a 	mov	r6,zero
 2000c2c:	01d01c34 	movhi	r7,16496
 2000c30:	39f80004 	addi	r7,r7,-8192
 2000c34:	1009883a 	mov	r4,r2
 2000c38:	180b883a 	mov	r5,r3
 2000c3c:	2002bc00 	call	2002bc0 <__muldf3>
 2000c40:	1009883a 	mov	r4,r2
 2000c44:	180b883a 	mov	r5,r3
 2000c48:	2005883a 	mov	r2,r4
 2000c4c:	2807883a 	mov	r3,r5
 2000c50:	1009883a 	mov	r4,r2
 2000c54:	180b883a 	mov	r5,r3
 2000c58:	200342c0 	call	200342c <__fixdfsi>
 2000c5c:	1007883a 	mov	r3,r2
 2000c60:	00808234 	movhi	r2,520
 2000c64:	10b39f84 	addi	r2,r2,-12674
 2000c68:	18c7883a 	add	r3,r3,r3
 2000c6c:	10c5883a 	add	r2,r2,r3
 2000c70:	1080000b 	ldhu	r2,0(r2)
 2000c74:	e0bffc0d 	sth	r2,-16(fp)
 2000c78:	e13ffb17 	ldw	r4,-20(fp)
 2000c7c:	20034ac0 	call	20034ac <__floatsidf>
 2000c80:	1011883a 	mov	r8,r2
 2000c84:	1813883a 	mov	r9,r3
 2000c88:	000d883a 	mov	r6,zero
 2000c8c:	01d00ff4 	movhi	r7,16447
 2000c90:	4009883a 	mov	r4,r8
 2000c94:	480b883a 	mov	r5,r9
 2000c98:	20021f00 	call	20021f0 <__divdf3>
 2000c9c:	1009883a 	mov	r4,r2
 2000ca0:	180b883a 	mov	r5,r3
 2000ca4:	2005883a 	mov	r2,r4
 2000ca8:	2807883a 	mov	r3,r5
 2000cac:	000d883a 	mov	r6,zero
 2000cb0:	01d01c34 	movhi	r7,16496
 2000cb4:	39f80004 	addi	r7,r7,-8192
 2000cb8:	1009883a 	mov	r4,r2
 2000cbc:	180b883a 	mov	r5,r3
 2000cc0:	2002bc00 	call	2002bc0 <__muldf3>
 2000cc4:	1009883a 	mov	r4,r2
 2000cc8:	180b883a 	mov	r5,r3
 2000ccc:	2005883a 	mov	r2,r4
 2000cd0:	2807883a 	mov	r3,r5
 2000cd4:	1009883a 	mov	r4,r2
 2000cd8:	180b883a 	mov	r5,r3
 2000cdc:	200342c0 	call	200342c <__fixdfsi>
 2000ce0:	1007883a 	mov	r3,r2
 2000ce4:	00808234 	movhi	r2,520
 2000ce8:	10b39f84 	addi	r2,r2,-12674
 2000cec:	18c7883a 	add	r3,r3,r3
 2000cf0:	10c5883a 	add	r2,r2,r3
 2000cf4:	1080000b 	ldhu	r2,0(r2)
 2000cf8:	e0bffc8d 	sth	r2,-14(fp)
 2000cfc:	e13ffb17 	ldw	r4,-20(fp)
 2000d00:	20034ac0 	call	20034ac <__floatsidf>
 2000d04:	1011883a 	mov	r8,r2
 2000d08:	1813883a 	mov	r9,r3
 2000d0c:	000d883a 	mov	r6,zero
 2000d10:	01d00ff4 	movhi	r7,16447
 2000d14:	4009883a 	mov	r4,r8
 2000d18:	480b883a 	mov	r5,r9
 2000d1c:	20021f00 	call	20021f0 <__divdf3>
 2000d20:	1009883a 	mov	r4,r2
 2000d24:	180b883a 	mov	r5,r3
 2000d28:	2005883a 	mov	r2,r4
 2000d2c:	2807883a 	mov	r3,r5
 2000d30:	000d883a 	mov	r6,zero
 2000d34:	01d01c34 	movhi	r7,16496
 2000d38:	39f80004 	addi	r7,r7,-8192
 2000d3c:	1009883a 	mov	r4,r2
 2000d40:	180b883a 	mov	r5,r3
 2000d44:	2002bc00 	call	2002bc0 <__muldf3>
 2000d48:	1009883a 	mov	r4,r2
 2000d4c:	180b883a 	mov	r5,r3
 2000d50:	2005883a 	mov	r2,r4
 2000d54:	2807883a 	mov	r3,r5
 2000d58:	1009883a 	mov	r4,r2
 2000d5c:	180b883a 	mov	r5,r3
 2000d60:	200342c0 	call	200342c <__fixdfsi>
 2000d64:	1007883a 	mov	r3,r2
 2000d68:	00808234 	movhi	r2,520
 2000d6c:	10b39f84 	addi	r2,r2,-12674
 2000d70:	18c7883a 	add	r3,r3,r3
 2000d74:	10c5883a 	add	r2,r2,r3
 2000d78:	1080000b 	ldhu	r2,0(r2)
 2000d7c:	e0bffd0d 	sth	r2,-12(fp)
 2000d80:	e0bffc0b 	ldhu	r2,-16(fp)
 2000d84:	1004953a 	slli	r2,r2,20
 2000d88:	10cffc2c 	andhi	r3,r2,16368
 2000d8c:	e0bffc8b 	ldhu	r2,-14(fp)
 2000d90:	100892ba 	slli	r4,r2,10
 2000d94:	00800434 	movhi	r2,16
 2000d98:	10bf0004 	addi	r2,r2,-1024
 2000d9c:	2084703a 	and	r2,r4,r2
 2000da0:	1886b03a 	or	r3,r3,r2
 2000da4:	e0bffd0b 	ldhu	r2,-12(fp)
 2000da8:	1080ffcc 	andi	r2,r2,1023
 2000dac:	1884b03a 	or	r2,r3,r2
 2000db0:	e0bfff15 	stw	r2,-4(fp)
 2000db4:	00810074 	movhi	r2,1025
 2000db8:	10a82004 	addi	r2,r2,-24448
 2000dbc:	e0fffe17 	ldw	r3,-8(fp)
 2000dc0:	10c00035 	stwio	r3,0(r2)
 2000dc4:	e0ffff17 	ldw	r3,-4(fp)
 2000dc8:	00810074 	movhi	r2,1025
 2000dcc:	10a81c04 	addi	r2,r2,-24464
 2000dd0:	10c00035 	stwio	r3,0(r2)
 2000dd4:	00c00044 	movi	r3,1
 2000dd8:	00810074 	movhi	r2,1025
 2000ddc:	10a81804 	addi	r2,r2,-24480
 2000de0:	10c00035 	stwio	r3,0(r2)
 2000de4:	0007883a 	mov	r3,zero
 2000de8:	00810074 	movhi	r2,1025
 2000dec:	10a81804 	addi	r2,r2,-24480
 2000df0:	10c00035 	stwio	r3,0(r2)
 2000df4:	e0bffb17 	ldw	r2,-20(fp)
 2000df8:	10800044 	addi	r2,r2,1
 2000dfc:	e0bffb15 	stw	r2,-20(fp)
 2000e00:	e0bffb17 	ldw	r2,-20(fp)
 2000e04:	10800810 	cmplti	r2,r2,32
 2000e08:	103e161e 	bne	r2,zero,2000664 <__alt_mem_epcs_flash_controller+0xfdff7664>
 2000e0c:	e0bffa17 	ldw	r2,-24(fp)
 2000e10:	10800044 	addi	r2,r2,1
 2000e14:	e0bffa15 	stw	r2,-24(fp)
 2000e18:	e0bffa17 	ldw	r2,-24(fp)
 2000e1c:	10800810 	cmplti	r2,r2,32
 2000e20:	103e0e1e 	bne	r2,zero,200065c <__alt_mem_epcs_flash_controller+0xfdff765c>
 2000e24:	0001883a 	nop
 2000e28:	e037883a 	mov	sp,fp
 2000e2c:	dfc00117 	ldw	ra,4(sp)
 2000e30:	df000017 	ldw	fp,0(sp)
 2000e34:	dec00204 	addi	sp,sp,8
 2000e38:	f800283a 	ret

02000e3c <displayCIEColourBars>:
 2000e3c:	defff804 	addi	sp,sp,-32
 2000e40:	dfc00715 	stw	ra,28(sp)
 2000e44:	df000615 	stw	fp,24(sp)
 2000e48:	df000604 	addi	fp,sp,24
 2000e4c:	e03ffa15 	stw	zero,-24(fp)
 2000e50:	00011106 	br	2001298 <displayCIEColourBars+0x45c>
 2000e54:	e03ffb15 	stw	zero,-20(fp)
 2000e58:	00010906 	br	2001280 <displayCIEColourBars+0x444>
 2000e5c:	00810004 	movi	r2,1024
 2000e60:	e0bffe15 	stw	r2,-8(fp)
 2000e64:	e0bffa17 	ldw	r2,-24(fp)
 2000e68:	1004917a 	slli	r2,r2,5
 2000e6c:	e0fffe17 	ldw	r3,-8(fp)
 2000e70:	1885883a 	add	r2,r3,r2
 2000e74:	e0bffe15 	stw	r2,-8(fp)
 2000e78:	e0fffe17 	ldw	r3,-8(fp)
 2000e7c:	e0bffb17 	ldw	r2,-20(fp)
 2000e80:	1885883a 	add	r2,r3,r2
 2000e84:	e0bffe15 	stw	r2,-8(fp)
 2000e88:	e0bffa17 	ldw	r2,-24(fp)
 2000e8c:	10800208 	cmpgei	r2,r2,8
 2000e90:	1000241e 	bne	r2,zero,2000f24 <displayCIEColourBars+0xe8>
 2000e94:	e13ffb17 	ldw	r4,-20(fp)
 2000e98:	20034ac0 	call	20034ac <__floatsidf>
 2000e9c:	1011883a 	mov	r8,r2
 2000ea0:	1813883a 	mov	r9,r3
 2000ea4:	000d883a 	mov	r6,zero
 2000ea8:	01d00ff4 	movhi	r7,16447
 2000eac:	4009883a 	mov	r4,r8
 2000eb0:	480b883a 	mov	r5,r9
 2000eb4:	20021f00 	call	20021f0 <__divdf3>
 2000eb8:	1009883a 	mov	r4,r2
 2000ebc:	180b883a 	mov	r5,r3
 2000ec0:	2005883a 	mov	r2,r4
 2000ec4:	2807883a 	mov	r3,r5
 2000ec8:	000d883a 	mov	r6,zero
 2000ecc:	01d01c34 	movhi	r7,16496
 2000ed0:	39f80004 	addi	r7,r7,-8192
 2000ed4:	1009883a 	mov	r4,r2
 2000ed8:	180b883a 	mov	r5,r3
 2000edc:	2002bc00 	call	2002bc0 <__muldf3>
 2000ee0:	1009883a 	mov	r4,r2
 2000ee4:	180b883a 	mov	r5,r3
 2000ee8:	2005883a 	mov	r2,r4
 2000eec:	2807883a 	mov	r3,r5
 2000ef0:	1009883a 	mov	r4,r2
 2000ef4:	180b883a 	mov	r5,r3
 2000ef8:	200342c0 	call	200342c <__fixdfsi>
 2000efc:	1007883a 	mov	r3,r2
 2000f00:	00808234 	movhi	r2,520
 2000f04:	10b41f84 	addi	r2,r2,-12162
 2000f08:	18c7883a 	add	r3,r3,r3
 2000f0c:	10c5883a 	add	r2,r2,r3
 2000f10:	1080000b 	ldhu	r2,0(r2)
 2000f14:	e0bffc0d 	sth	r2,-16(fp)
 2000f18:	e03ffc8d 	sth	zero,-14(fp)
 2000f1c:	e03ffd0d 	sth	zero,-12(fp)
 2000f20:	0000b706 	br	2001200 <displayCIEColourBars+0x3c4>
 2000f24:	e0bffa17 	ldw	r2,-24(fp)
 2000f28:	10800210 	cmplti	r2,r2,8
 2000f2c:	1000271e 	bne	r2,zero,2000fcc <displayCIEColourBars+0x190>
 2000f30:	e0bffa17 	ldw	r2,-24(fp)
 2000f34:	10800408 	cmpgei	r2,r2,16
 2000f38:	1000241e 	bne	r2,zero,2000fcc <displayCIEColourBars+0x190>
 2000f3c:	e03ffc0d 	sth	zero,-16(fp)
 2000f40:	e13ffb17 	ldw	r4,-20(fp)
 2000f44:	20034ac0 	call	20034ac <__floatsidf>
 2000f48:	1011883a 	mov	r8,r2
 2000f4c:	1813883a 	mov	r9,r3
 2000f50:	000d883a 	mov	r6,zero
 2000f54:	01d00ff4 	movhi	r7,16447
 2000f58:	4009883a 	mov	r4,r8
 2000f5c:	480b883a 	mov	r5,r9
 2000f60:	20021f00 	call	20021f0 <__divdf3>
 2000f64:	1009883a 	mov	r4,r2
 2000f68:	180b883a 	mov	r5,r3
 2000f6c:	2005883a 	mov	r2,r4
 2000f70:	2807883a 	mov	r3,r5
 2000f74:	000d883a 	mov	r6,zero
 2000f78:	01d01c34 	movhi	r7,16496
 2000f7c:	39f80004 	addi	r7,r7,-8192
 2000f80:	1009883a 	mov	r4,r2
 2000f84:	180b883a 	mov	r5,r3
 2000f88:	2002bc00 	call	2002bc0 <__muldf3>
 2000f8c:	1009883a 	mov	r4,r2
 2000f90:	180b883a 	mov	r5,r3
 2000f94:	2005883a 	mov	r2,r4
 2000f98:	2807883a 	mov	r3,r5
 2000f9c:	1009883a 	mov	r4,r2
 2000fa0:	180b883a 	mov	r5,r3
 2000fa4:	200342c0 	call	200342c <__fixdfsi>
 2000fa8:	1007883a 	mov	r3,r2
 2000fac:	00808234 	movhi	r2,520
 2000fb0:	10b41f84 	addi	r2,r2,-12162
 2000fb4:	18c7883a 	add	r3,r3,r3
 2000fb8:	10c5883a 	add	r2,r2,r3
 2000fbc:	1080000b 	ldhu	r2,0(r2)
 2000fc0:	e0bffc8d 	sth	r2,-14(fp)
 2000fc4:	e03ffd0d 	sth	zero,-12(fp)
 2000fc8:	00008d06 	br	2001200 <displayCIEColourBars+0x3c4>
 2000fcc:	e0bffa17 	ldw	r2,-24(fp)
 2000fd0:	10800410 	cmplti	r2,r2,16
 2000fd4:	1000271e 	bne	r2,zero,2001074 <displayCIEColourBars+0x238>
 2000fd8:	e0bffa17 	ldw	r2,-24(fp)
 2000fdc:	10800608 	cmpgei	r2,r2,24
 2000fe0:	1000241e 	bne	r2,zero,2001074 <displayCIEColourBars+0x238>
 2000fe4:	e03ffc0d 	sth	zero,-16(fp)
 2000fe8:	e03ffc8d 	sth	zero,-14(fp)
 2000fec:	e13ffb17 	ldw	r4,-20(fp)
 2000ff0:	20034ac0 	call	20034ac <__floatsidf>
 2000ff4:	1011883a 	mov	r8,r2
 2000ff8:	1813883a 	mov	r9,r3
 2000ffc:	000d883a 	mov	r6,zero
 2001000:	01d00ff4 	movhi	r7,16447
 2001004:	4009883a 	mov	r4,r8
 2001008:	480b883a 	mov	r5,r9
 200100c:	20021f00 	call	20021f0 <__divdf3>
 2001010:	1009883a 	mov	r4,r2
 2001014:	180b883a 	mov	r5,r3
 2001018:	2005883a 	mov	r2,r4
 200101c:	2807883a 	mov	r3,r5
 2001020:	000d883a 	mov	r6,zero
 2001024:	01d01c34 	movhi	r7,16496
 2001028:	39f80004 	addi	r7,r7,-8192
 200102c:	1009883a 	mov	r4,r2
 2001030:	180b883a 	mov	r5,r3
 2001034:	2002bc00 	call	2002bc0 <__muldf3>
 2001038:	1009883a 	mov	r4,r2
 200103c:	180b883a 	mov	r5,r3
 2001040:	2005883a 	mov	r2,r4
 2001044:	2807883a 	mov	r3,r5
 2001048:	1009883a 	mov	r4,r2
 200104c:	180b883a 	mov	r5,r3
 2001050:	200342c0 	call	200342c <__fixdfsi>
 2001054:	1007883a 	mov	r3,r2
 2001058:	00808234 	movhi	r2,520
 200105c:	10b41f84 	addi	r2,r2,-12162
 2001060:	18c7883a 	add	r3,r3,r3
 2001064:	10c5883a 	add	r2,r2,r3
 2001068:	1080000b 	ldhu	r2,0(r2)
 200106c:	e0bffd0d 	sth	r2,-12(fp)
 2001070:	00006306 	br	2001200 <displayCIEColourBars+0x3c4>
 2001074:	e13ffb17 	ldw	r4,-20(fp)
 2001078:	20034ac0 	call	20034ac <__floatsidf>
 200107c:	1011883a 	mov	r8,r2
 2001080:	1813883a 	mov	r9,r3
 2001084:	000d883a 	mov	r6,zero
 2001088:	01d00ff4 	movhi	r7,16447
 200108c:	4009883a 	mov	r4,r8
 2001090:	480b883a 	mov	r5,r9
 2001094:	20021f00 	call	20021f0 <__divdf3>
 2001098:	1009883a 	mov	r4,r2
 200109c:	180b883a 	mov	r5,r3
 20010a0:	2005883a 	mov	r2,r4
 20010a4:	2807883a 	mov	r3,r5
 20010a8:	000d883a 	mov	r6,zero
 20010ac:	01d01c34 	movhi	r7,16496
 20010b0:	39f80004 	addi	r7,r7,-8192
 20010b4:	1009883a 	mov	r4,r2
 20010b8:	180b883a 	mov	r5,r3
 20010bc:	2002bc00 	call	2002bc0 <__muldf3>
 20010c0:	1009883a 	mov	r4,r2
 20010c4:	180b883a 	mov	r5,r3
 20010c8:	2005883a 	mov	r2,r4
 20010cc:	2807883a 	mov	r3,r5
 20010d0:	1009883a 	mov	r4,r2
 20010d4:	180b883a 	mov	r5,r3
 20010d8:	200342c0 	call	200342c <__fixdfsi>
 20010dc:	1007883a 	mov	r3,r2
 20010e0:	00808234 	movhi	r2,520
 20010e4:	10b41f84 	addi	r2,r2,-12162
 20010e8:	18c7883a 	add	r3,r3,r3
 20010ec:	10c5883a 	add	r2,r2,r3
 20010f0:	1080000b 	ldhu	r2,0(r2)
 20010f4:	e0bffc0d 	sth	r2,-16(fp)
 20010f8:	e13ffb17 	ldw	r4,-20(fp)
 20010fc:	20034ac0 	call	20034ac <__floatsidf>
 2001100:	1011883a 	mov	r8,r2
 2001104:	1813883a 	mov	r9,r3
 2001108:	000d883a 	mov	r6,zero
 200110c:	01d00ff4 	movhi	r7,16447
 2001110:	4009883a 	mov	r4,r8
 2001114:	480b883a 	mov	r5,r9
 2001118:	20021f00 	call	20021f0 <__divdf3>
 200111c:	1009883a 	mov	r4,r2
 2001120:	180b883a 	mov	r5,r3
 2001124:	2005883a 	mov	r2,r4
 2001128:	2807883a 	mov	r3,r5
 200112c:	000d883a 	mov	r6,zero
 2001130:	01d01c34 	movhi	r7,16496
 2001134:	39f80004 	addi	r7,r7,-8192
 2001138:	1009883a 	mov	r4,r2
 200113c:	180b883a 	mov	r5,r3
 2001140:	2002bc00 	call	2002bc0 <__muldf3>
 2001144:	1009883a 	mov	r4,r2
 2001148:	180b883a 	mov	r5,r3
 200114c:	2005883a 	mov	r2,r4
 2001150:	2807883a 	mov	r3,r5
 2001154:	1009883a 	mov	r4,r2
 2001158:	180b883a 	mov	r5,r3
 200115c:	200342c0 	call	200342c <__fixdfsi>
 2001160:	1007883a 	mov	r3,r2
 2001164:	00808234 	movhi	r2,520
 2001168:	10b41f84 	addi	r2,r2,-12162
 200116c:	18c7883a 	add	r3,r3,r3
 2001170:	10c5883a 	add	r2,r2,r3
 2001174:	1080000b 	ldhu	r2,0(r2)
 2001178:	e0bffc8d 	sth	r2,-14(fp)
 200117c:	e13ffb17 	ldw	r4,-20(fp)
 2001180:	20034ac0 	call	20034ac <__floatsidf>
 2001184:	1011883a 	mov	r8,r2
 2001188:	1813883a 	mov	r9,r3
 200118c:	000d883a 	mov	r6,zero
 2001190:	01d00ff4 	movhi	r7,16447
 2001194:	4009883a 	mov	r4,r8
 2001198:	480b883a 	mov	r5,r9
 200119c:	20021f00 	call	20021f0 <__divdf3>
 20011a0:	1009883a 	mov	r4,r2
 20011a4:	180b883a 	mov	r5,r3
 20011a8:	2005883a 	mov	r2,r4
 20011ac:	2807883a 	mov	r3,r5
 20011b0:	000d883a 	mov	r6,zero
 20011b4:	01d01c34 	movhi	r7,16496
 20011b8:	39f80004 	addi	r7,r7,-8192
 20011bc:	1009883a 	mov	r4,r2
 20011c0:	180b883a 	mov	r5,r3
 20011c4:	2002bc00 	call	2002bc0 <__muldf3>
 20011c8:	1009883a 	mov	r4,r2
 20011cc:	180b883a 	mov	r5,r3
 20011d0:	2005883a 	mov	r2,r4
 20011d4:	2807883a 	mov	r3,r5
 20011d8:	1009883a 	mov	r4,r2
 20011dc:	180b883a 	mov	r5,r3
 20011e0:	200342c0 	call	200342c <__fixdfsi>
 20011e4:	1007883a 	mov	r3,r2
 20011e8:	00808234 	movhi	r2,520
 20011ec:	10b41f84 	addi	r2,r2,-12162
 20011f0:	18c7883a 	add	r3,r3,r3
 20011f4:	10c5883a 	add	r2,r2,r3
 20011f8:	1080000b 	ldhu	r2,0(r2)
 20011fc:	e0bffd0d 	sth	r2,-12(fp)
 2001200:	e0bffc0b 	ldhu	r2,-16(fp)
 2001204:	1004953a 	slli	r2,r2,20
 2001208:	10cffc2c 	andhi	r3,r2,16368
 200120c:	e0bffc8b 	ldhu	r2,-14(fp)
 2001210:	100892ba 	slli	r4,r2,10
 2001214:	00800434 	movhi	r2,16
 2001218:	10bf0004 	addi	r2,r2,-1024
 200121c:	2084703a 	and	r2,r4,r2
 2001220:	1886b03a 	or	r3,r3,r2
 2001224:	e0bffd0b 	ldhu	r2,-12(fp)
 2001228:	1080ffcc 	andi	r2,r2,1023
 200122c:	1884b03a 	or	r2,r3,r2
 2001230:	e0bfff15 	stw	r2,-4(fp)
 2001234:	00810074 	movhi	r2,1025
 2001238:	10a82004 	addi	r2,r2,-24448
 200123c:	e0fffe17 	ldw	r3,-8(fp)
 2001240:	10c00035 	stwio	r3,0(r2)
 2001244:	e0ffff17 	ldw	r3,-4(fp)
 2001248:	00810074 	movhi	r2,1025
 200124c:	10a81c04 	addi	r2,r2,-24464
 2001250:	10c00035 	stwio	r3,0(r2)
 2001254:	00c00044 	movi	r3,1
 2001258:	00810074 	movhi	r2,1025
 200125c:	10a81804 	addi	r2,r2,-24480
 2001260:	10c00035 	stwio	r3,0(r2)
 2001264:	0007883a 	mov	r3,zero
 2001268:	00810074 	movhi	r2,1025
 200126c:	10a81804 	addi	r2,r2,-24480
 2001270:	10c00035 	stwio	r3,0(r2)
 2001274:	e0bffb17 	ldw	r2,-20(fp)
 2001278:	10800044 	addi	r2,r2,1
 200127c:	e0bffb15 	stw	r2,-20(fp)
 2001280:	e0bffb17 	ldw	r2,-20(fp)
 2001284:	10800810 	cmplti	r2,r2,32
 2001288:	103ef41e 	bne	r2,zero,2000e5c <__alt_mem_epcs_flash_controller+0xfdff7e5c>
 200128c:	e0bffa17 	ldw	r2,-24(fp)
 2001290:	10800044 	addi	r2,r2,1
 2001294:	e0bffa15 	stw	r2,-24(fp)
 2001298:	e0bffa17 	ldw	r2,-24(fp)
 200129c:	10800810 	cmplti	r2,r2,32
 20012a0:	103eec1e 	bne	r2,zero,2000e54 <__alt_mem_epcs_flash_controller+0xfdff7e54>
 20012a4:	0001883a 	nop
 20012a8:	e037883a 	mov	sp,fp
 20012ac:	dfc00117 	ldw	ra,4(sp)
 20012b0:	df000017 	ldw	fp,0(sp)
 20012b4:	dec00204 	addi	sp,sp,8
 20012b8:	f800283a 	ret

020012bc <displayGamma149ColourBars>:
 20012bc:	defff804 	addi	sp,sp,-32
 20012c0:	dfc00715 	stw	ra,28(sp)
 20012c4:	df000615 	stw	fp,24(sp)
 20012c8:	df000604 	addi	fp,sp,24
 20012cc:	e03ffa15 	stw	zero,-24(fp)
 20012d0:	00011106 	br	2001718 <displayGamma149ColourBars+0x45c>
 20012d4:	e03ffb15 	stw	zero,-20(fp)
 20012d8:	00010906 	br	2001700 <displayGamma149ColourBars+0x444>
 20012dc:	00810004 	movi	r2,1024
 20012e0:	e0bffe15 	stw	r2,-8(fp)
 20012e4:	e0bffa17 	ldw	r2,-24(fp)
 20012e8:	1004917a 	slli	r2,r2,5
 20012ec:	e0fffe17 	ldw	r3,-8(fp)
 20012f0:	1885883a 	add	r2,r3,r2
 20012f4:	e0bffe15 	stw	r2,-8(fp)
 20012f8:	e0fffe17 	ldw	r3,-8(fp)
 20012fc:	e0bffb17 	ldw	r2,-20(fp)
 2001300:	1885883a 	add	r2,r3,r2
 2001304:	e0bffe15 	stw	r2,-8(fp)
 2001308:	e0bffa17 	ldw	r2,-24(fp)
 200130c:	10800208 	cmpgei	r2,r2,8
 2001310:	1000241e 	bne	r2,zero,20013a4 <displayGamma149ColourBars+0xe8>
 2001314:	e13ffb17 	ldw	r4,-20(fp)
 2001318:	20034ac0 	call	20034ac <__floatsidf>
 200131c:	1011883a 	mov	r8,r2
 2001320:	1813883a 	mov	r9,r3
 2001324:	000d883a 	mov	r6,zero
 2001328:	01d00ff4 	movhi	r7,16447
 200132c:	4009883a 	mov	r4,r8
 2001330:	480b883a 	mov	r5,r9
 2001334:	20021f00 	call	20021f0 <__divdf3>
 2001338:	1009883a 	mov	r4,r2
 200133c:	180b883a 	mov	r5,r3
 2001340:	2005883a 	mov	r2,r4
 2001344:	2807883a 	mov	r3,r5
 2001348:	000d883a 	mov	r6,zero
 200134c:	01d01c34 	movhi	r7,16496
 2001350:	39f80004 	addi	r7,r7,-8192
 2001354:	1009883a 	mov	r4,r2
 2001358:	180b883a 	mov	r5,r3
 200135c:	2002bc00 	call	2002bc0 <__muldf3>
 2001360:	1009883a 	mov	r4,r2
 2001364:	180b883a 	mov	r5,r3
 2001368:	2005883a 	mov	r2,r4
 200136c:	2807883a 	mov	r3,r5
 2001370:	1009883a 	mov	r4,r2
 2001374:	180b883a 	mov	r5,r3
 2001378:	200342c0 	call	200342c <__fixdfsi>
 200137c:	1007883a 	mov	r3,r2
 2001380:	00808234 	movhi	r2,520
 2001384:	10b49f84 	addi	r2,r2,-11650
 2001388:	18c7883a 	add	r3,r3,r3
 200138c:	10c5883a 	add	r2,r2,r3
 2001390:	1080000b 	ldhu	r2,0(r2)
 2001394:	e0bffc0d 	sth	r2,-16(fp)
 2001398:	e03ffc8d 	sth	zero,-14(fp)
 200139c:	e03ffd0d 	sth	zero,-12(fp)
 20013a0:	0000b706 	br	2001680 <displayGamma149ColourBars+0x3c4>
 20013a4:	e0bffa17 	ldw	r2,-24(fp)
 20013a8:	10800210 	cmplti	r2,r2,8
 20013ac:	1000271e 	bne	r2,zero,200144c <displayGamma149ColourBars+0x190>
 20013b0:	e0bffa17 	ldw	r2,-24(fp)
 20013b4:	10800408 	cmpgei	r2,r2,16
 20013b8:	1000241e 	bne	r2,zero,200144c <displayGamma149ColourBars+0x190>
 20013bc:	e03ffc0d 	sth	zero,-16(fp)
 20013c0:	e13ffb17 	ldw	r4,-20(fp)
 20013c4:	20034ac0 	call	20034ac <__floatsidf>
 20013c8:	1011883a 	mov	r8,r2
 20013cc:	1813883a 	mov	r9,r3
 20013d0:	000d883a 	mov	r6,zero
 20013d4:	01d00ff4 	movhi	r7,16447
 20013d8:	4009883a 	mov	r4,r8
 20013dc:	480b883a 	mov	r5,r9
 20013e0:	20021f00 	call	20021f0 <__divdf3>
 20013e4:	1009883a 	mov	r4,r2
 20013e8:	180b883a 	mov	r5,r3
 20013ec:	2005883a 	mov	r2,r4
 20013f0:	2807883a 	mov	r3,r5
 20013f4:	000d883a 	mov	r6,zero
 20013f8:	01d01c34 	movhi	r7,16496
 20013fc:	39f80004 	addi	r7,r7,-8192
 2001400:	1009883a 	mov	r4,r2
 2001404:	180b883a 	mov	r5,r3
 2001408:	2002bc00 	call	2002bc0 <__muldf3>
 200140c:	1009883a 	mov	r4,r2
 2001410:	180b883a 	mov	r5,r3
 2001414:	2005883a 	mov	r2,r4
 2001418:	2807883a 	mov	r3,r5
 200141c:	1009883a 	mov	r4,r2
 2001420:	180b883a 	mov	r5,r3
 2001424:	200342c0 	call	200342c <__fixdfsi>
 2001428:	1007883a 	mov	r3,r2
 200142c:	00808234 	movhi	r2,520
 2001430:	10b49f84 	addi	r2,r2,-11650
 2001434:	18c7883a 	add	r3,r3,r3
 2001438:	10c5883a 	add	r2,r2,r3
 200143c:	1080000b 	ldhu	r2,0(r2)
 2001440:	e0bffc8d 	sth	r2,-14(fp)
 2001444:	e03ffd0d 	sth	zero,-12(fp)
 2001448:	00008d06 	br	2001680 <displayGamma149ColourBars+0x3c4>
 200144c:	e0bffa17 	ldw	r2,-24(fp)
 2001450:	10800410 	cmplti	r2,r2,16
 2001454:	1000271e 	bne	r2,zero,20014f4 <displayGamma149ColourBars+0x238>
 2001458:	e0bffa17 	ldw	r2,-24(fp)
 200145c:	10800608 	cmpgei	r2,r2,24
 2001460:	1000241e 	bne	r2,zero,20014f4 <displayGamma149ColourBars+0x238>
 2001464:	e03ffc0d 	sth	zero,-16(fp)
 2001468:	e03ffc8d 	sth	zero,-14(fp)
 200146c:	e13ffb17 	ldw	r4,-20(fp)
 2001470:	20034ac0 	call	20034ac <__floatsidf>
 2001474:	1011883a 	mov	r8,r2
 2001478:	1813883a 	mov	r9,r3
 200147c:	000d883a 	mov	r6,zero
 2001480:	01d00ff4 	movhi	r7,16447
 2001484:	4009883a 	mov	r4,r8
 2001488:	480b883a 	mov	r5,r9
 200148c:	20021f00 	call	20021f0 <__divdf3>
 2001490:	1009883a 	mov	r4,r2
 2001494:	180b883a 	mov	r5,r3
 2001498:	2005883a 	mov	r2,r4
 200149c:	2807883a 	mov	r3,r5
 20014a0:	000d883a 	mov	r6,zero
 20014a4:	01d01c34 	movhi	r7,16496
 20014a8:	39f80004 	addi	r7,r7,-8192
 20014ac:	1009883a 	mov	r4,r2
 20014b0:	180b883a 	mov	r5,r3
 20014b4:	2002bc00 	call	2002bc0 <__muldf3>
 20014b8:	1009883a 	mov	r4,r2
 20014bc:	180b883a 	mov	r5,r3
 20014c0:	2005883a 	mov	r2,r4
 20014c4:	2807883a 	mov	r3,r5
 20014c8:	1009883a 	mov	r4,r2
 20014cc:	180b883a 	mov	r5,r3
 20014d0:	200342c0 	call	200342c <__fixdfsi>
 20014d4:	1007883a 	mov	r3,r2
 20014d8:	00808234 	movhi	r2,520
 20014dc:	10b49f84 	addi	r2,r2,-11650
 20014e0:	18c7883a 	add	r3,r3,r3
 20014e4:	10c5883a 	add	r2,r2,r3
 20014e8:	1080000b 	ldhu	r2,0(r2)
 20014ec:	e0bffd0d 	sth	r2,-12(fp)
 20014f0:	00006306 	br	2001680 <displayGamma149ColourBars+0x3c4>
 20014f4:	e13ffb17 	ldw	r4,-20(fp)
 20014f8:	20034ac0 	call	20034ac <__floatsidf>
 20014fc:	1011883a 	mov	r8,r2
 2001500:	1813883a 	mov	r9,r3
 2001504:	000d883a 	mov	r6,zero
 2001508:	01d00ff4 	movhi	r7,16447
 200150c:	4009883a 	mov	r4,r8
 2001510:	480b883a 	mov	r5,r9
 2001514:	20021f00 	call	20021f0 <__divdf3>
 2001518:	1009883a 	mov	r4,r2
 200151c:	180b883a 	mov	r5,r3
 2001520:	2005883a 	mov	r2,r4
 2001524:	2807883a 	mov	r3,r5
 2001528:	000d883a 	mov	r6,zero
 200152c:	01d01c34 	movhi	r7,16496
 2001530:	39f80004 	addi	r7,r7,-8192
 2001534:	1009883a 	mov	r4,r2
 2001538:	180b883a 	mov	r5,r3
 200153c:	2002bc00 	call	2002bc0 <__muldf3>
 2001540:	1009883a 	mov	r4,r2
 2001544:	180b883a 	mov	r5,r3
 2001548:	2005883a 	mov	r2,r4
 200154c:	2807883a 	mov	r3,r5
 2001550:	1009883a 	mov	r4,r2
 2001554:	180b883a 	mov	r5,r3
 2001558:	200342c0 	call	200342c <__fixdfsi>
 200155c:	1007883a 	mov	r3,r2
 2001560:	00808234 	movhi	r2,520
 2001564:	10b49f84 	addi	r2,r2,-11650
 2001568:	18c7883a 	add	r3,r3,r3
 200156c:	10c5883a 	add	r2,r2,r3
 2001570:	1080000b 	ldhu	r2,0(r2)
 2001574:	e0bffc0d 	sth	r2,-16(fp)
 2001578:	e13ffb17 	ldw	r4,-20(fp)
 200157c:	20034ac0 	call	20034ac <__floatsidf>
 2001580:	1011883a 	mov	r8,r2
 2001584:	1813883a 	mov	r9,r3
 2001588:	000d883a 	mov	r6,zero
 200158c:	01d00ff4 	movhi	r7,16447
 2001590:	4009883a 	mov	r4,r8
 2001594:	480b883a 	mov	r5,r9
 2001598:	20021f00 	call	20021f0 <__divdf3>
 200159c:	1009883a 	mov	r4,r2
 20015a0:	180b883a 	mov	r5,r3
 20015a4:	2005883a 	mov	r2,r4
 20015a8:	2807883a 	mov	r3,r5
 20015ac:	000d883a 	mov	r6,zero
 20015b0:	01d01c34 	movhi	r7,16496
 20015b4:	39f80004 	addi	r7,r7,-8192
 20015b8:	1009883a 	mov	r4,r2
 20015bc:	180b883a 	mov	r5,r3
 20015c0:	2002bc00 	call	2002bc0 <__muldf3>
 20015c4:	1009883a 	mov	r4,r2
 20015c8:	180b883a 	mov	r5,r3
 20015cc:	2005883a 	mov	r2,r4
 20015d0:	2807883a 	mov	r3,r5
 20015d4:	1009883a 	mov	r4,r2
 20015d8:	180b883a 	mov	r5,r3
 20015dc:	200342c0 	call	200342c <__fixdfsi>
 20015e0:	1007883a 	mov	r3,r2
 20015e4:	00808234 	movhi	r2,520
 20015e8:	10b49f84 	addi	r2,r2,-11650
 20015ec:	18c7883a 	add	r3,r3,r3
 20015f0:	10c5883a 	add	r2,r2,r3
 20015f4:	1080000b 	ldhu	r2,0(r2)
 20015f8:	e0bffc8d 	sth	r2,-14(fp)
 20015fc:	e13ffb17 	ldw	r4,-20(fp)
 2001600:	20034ac0 	call	20034ac <__floatsidf>
 2001604:	1011883a 	mov	r8,r2
 2001608:	1813883a 	mov	r9,r3
 200160c:	000d883a 	mov	r6,zero
 2001610:	01d00ff4 	movhi	r7,16447
 2001614:	4009883a 	mov	r4,r8
 2001618:	480b883a 	mov	r5,r9
 200161c:	20021f00 	call	20021f0 <__divdf3>
 2001620:	1009883a 	mov	r4,r2
 2001624:	180b883a 	mov	r5,r3
 2001628:	2005883a 	mov	r2,r4
 200162c:	2807883a 	mov	r3,r5
 2001630:	000d883a 	mov	r6,zero
 2001634:	01d01c34 	movhi	r7,16496
 2001638:	39f80004 	addi	r7,r7,-8192
 200163c:	1009883a 	mov	r4,r2
 2001640:	180b883a 	mov	r5,r3
 2001644:	2002bc00 	call	2002bc0 <__muldf3>
 2001648:	1009883a 	mov	r4,r2
 200164c:	180b883a 	mov	r5,r3
 2001650:	2005883a 	mov	r2,r4
 2001654:	2807883a 	mov	r3,r5
 2001658:	1009883a 	mov	r4,r2
 200165c:	180b883a 	mov	r5,r3
 2001660:	200342c0 	call	200342c <__fixdfsi>
 2001664:	1007883a 	mov	r3,r2
 2001668:	00808234 	movhi	r2,520
 200166c:	10b49f84 	addi	r2,r2,-11650
 2001670:	18c7883a 	add	r3,r3,r3
 2001674:	10c5883a 	add	r2,r2,r3
 2001678:	1080000b 	ldhu	r2,0(r2)
 200167c:	e0bffd0d 	sth	r2,-12(fp)
 2001680:	e0bffc0b 	ldhu	r2,-16(fp)
 2001684:	1004953a 	slli	r2,r2,20
 2001688:	10cffc2c 	andhi	r3,r2,16368
 200168c:	e0bffc8b 	ldhu	r2,-14(fp)
 2001690:	100892ba 	slli	r4,r2,10
 2001694:	00800434 	movhi	r2,16
 2001698:	10bf0004 	addi	r2,r2,-1024
 200169c:	2084703a 	and	r2,r4,r2
 20016a0:	1886b03a 	or	r3,r3,r2
 20016a4:	e0bffd0b 	ldhu	r2,-12(fp)
 20016a8:	1080ffcc 	andi	r2,r2,1023
 20016ac:	1884b03a 	or	r2,r3,r2
 20016b0:	e0bfff15 	stw	r2,-4(fp)
 20016b4:	00810074 	movhi	r2,1025
 20016b8:	10a82004 	addi	r2,r2,-24448
 20016bc:	e0fffe17 	ldw	r3,-8(fp)
 20016c0:	10c00035 	stwio	r3,0(r2)
 20016c4:	e0ffff17 	ldw	r3,-4(fp)
 20016c8:	00810074 	movhi	r2,1025
 20016cc:	10a81c04 	addi	r2,r2,-24464
 20016d0:	10c00035 	stwio	r3,0(r2)
 20016d4:	00c00044 	movi	r3,1
 20016d8:	00810074 	movhi	r2,1025
 20016dc:	10a81804 	addi	r2,r2,-24480
 20016e0:	10c00035 	stwio	r3,0(r2)
 20016e4:	0007883a 	mov	r3,zero
 20016e8:	00810074 	movhi	r2,1025
 20016ec:	10a81804 	addi	r2,r2,-24480
 20016f0:	10c00035 	stwio	r3,0(r2)
 20016f4:	e0bffb17 	ldw	r2,-20(fp)
 20016f8:	10800044 	addi	r2,r2,1
 20016fc:	e0bffb15 	stw	r2,-20(fp)
 2001700:	e0bffb17 	ldw	r2,-20(fp)
 2001704:	10800810 	cmplti	r2,r2,32
 2001708:	103ef41e 	bne	r2,zero,20012dc <__alt_mem_epcs_flash_controller+0xfdff82dc>
 200170c:	e0bffa17 	ldw	r2,-24(fp)
 2001710:	10800044 	addi	r2,r2,1
 2001714:	e0bffa15 	stw	r2,-24(fp)
 2001718:	e0bffa17 	ldw	r2,-24(fp)
 200171c:	10800810 	cmplti	r2,r2,32
 2001720:	103eec1e 	bne	r2,zero,20012d4 <__alt_mem_epcs_flash_controller+0xfdff82d4>
 2001724:	0001883a 	nop
 2001728:	e037883a 	mov	sp,fp
 200172c:	dfc00117 	ldw	ra,4(sp)
 2001730:	df000017 	ldw	fp,0(sp)
 2001734:	dec00204 	addi	sp,sp,8
 2001738:	f800283a 	ret

0200173c <displayGamma98ColourBars>:
 200173c:	defff804 	addi	sp,sp,-32
 2001740:	dfc00715 	stw	ra,28(sp)
 2001744:	df000615 	stw	fp,24(sp)
 2001748:	df000604 	addi	fp,sp,24
 200174c:	e03ffa15 	stw	zero,-24(fp)
 2001750:	00011106 	br	2001b98 <displayGamma98ColourBars+0x45c>
 2001754:	e03ffb15 	stw	zero,-20(fp)
 2001758:	00010906 	br	2001b80 <displayGamma98ColourBars+0x444>
 200175c:	00810004 	movi	r2,1024
 2001760:	e0bffe15 	stw	r2,-8(fp)
 2001764:	e0bffa17 	ldw	r2,-24(fp)
 2001768:	1004917a 	slli	r2,r2,5
 200176c:	e0fffe17 	ldw	r3,-8(fp)
 2001770:	1885883a 	add	r2,r3,r2
 2001774:	e0bffe15 	stw	r2,-8(fp)
 2001778:	e0fffe17 	ldw	r3,-8(fp)
 200177c:	e0bffb17 	ldw	r2,-20(fp)
 2001780:	1885883a 	add	r2,r3,r2
 2001784:	e0bffe15 	stw	r2,-8(fp)
 2001788:	e0bffa17 	ldw	r2,-24(fp)
 200178c:	10800208 	cmpgei	r2,r2,8
 2001790:	1000241e 	bne	r2,zero,2001824 <displayGamma98ColourBars+0xe8>
 2001794:	e13ffb17 	ldw	r4,-20(fp)
 2001798:	20034ac0 	call	20034ac <__floatsidf>
 200179c:	1011883a 	mov	r8,r2
 20017a0:	1813883a 	mov	r9,r3
 20017a4:	000d883a 	mov	r6,zero
 20017a8:	01d00ff4 	movhi	r7,16447
 20017ac:	4009883a 	mov	r4,r8
 20017b0:	480b883a 	mov	r5,r9
 20017b4:	20021f00 	call	20021f0 <__divdf3>
 20017b8:	1009883a 	mov	r4,r2
 20017bc:	180b883a 	mov	r5,r3
 20017c0:	2005883a 	mov	r2,r4
 20017c4:	2807883a 	mov	r3,r5
 20017c8:	000d883a 	mov	r6,zero
 20017cc:	01d01c34 	movhi	r7,16496
 20017d0:	39f80004 	addi	r7,r7,-8192
 20017d4:	1009883a 	mov	r4,r2
 20017d8:	180b883a 	mov	r5,r3
 20017dc:	2002bc00 	call	2002bc0 <__muldf3>
 20017e0:	1009883a 	mov	r4,r2
 20017e4:	180b883a 	mov	r5,r3
 20017e8:	2005883a 	mov	r2,r4
 20017ec:	2807883a 	mov	r3,r5
 20017f0:	1009883a 	mov	r4,r2
 20017f4:	180b883a 	mov	r5,r3
 20017f8:	200342c0 	call	200342c <__fixdfsi>
 20017fc:	1007883a 	mov	r3,r2
 2001800:	00808234 	movhi	r2,520
 2001804:	10b51f84 	addi	r2,r2,-11138
 2001808:	18c7883a 	add	r3,r3,r3
 200180c:	10c5883a 	add	r2,r2,r3
 2001810:	1080000b 	ldhu	r2,0(r2)
 2001814:	e0bffc0d 	sth	r2,-16(fp)
 2001818:	e03ffc8d 	sth	zero,-14(fp)
 200181c:	e03ffd0d 	sth	zero,-12(fp)
 2001820:	0000b706 	br	2001b00 <displayGamma98ColourBars+0x3c4>
 2001824:	e0bffa17 	ldw	r2,-24(fp)
 2001828:	10800210 	cmplti	r2,r2,8
 200182c:	1000271e 	bne	r2,zero,20018cc <displayGamma98ColourBars+0x190>
 2001830:	e0bffa17 	ldw	r2,-24(fp)
 2001834:	10800408 	cmpgei	r2,r2,16
 2001838:	1000241e 	bne	r2,zero,20018cc <displayGamma98ColourBars+0x190>
 200183c:	e03ffc0d 	sth	zero,-16(fp)
 2001840:	e13ffb17 	ldw	r4,-20(fp)
 2001844:	20034ac0 	call	20034ac <__floatsidf>
 2001848:	1011883a 	mov	r8,r2
 200184c:	1813883a 	mov	r9,r3
 2001850:	000d883a 	mov	r6,zero
 2001854:	01d00ff4 	movhi	r7,16447
 2001858:	4009883a 	mov	r4,r8
 200185c:	480b883a 	mov	r5,r9
 2001860:	20021f00 	call	20021f0 <__divdf3>
 2001864:	1009883a 	mov	r4,r2
 2001868:	180b883a 	mov	r5,r3
 200186c:	2005883a 	mov	r2,r4
 2001870:	2807883a 	mov	r3,r5
 2001874:	000d883a 	mov	r6,zero
 2001878:	01d01c34 	movhi	r7,16496
 200187c:	39f80004 	addi	r7,r7,-8192
 2001880:	1009883a 	mov	r4,r2
 2001884:	180b883a 	mov	r5,r3
 2001888:	2002bc00 	call	2002bc0 <__muldf3>
 200188c:	1009883a 	mov	r4,r2
 2001890:	180b883a 	mov	r5,r3
 2001894:	2005883a 	mov	r2,r4
 2001898:	2807883a 	mov	r3,r5
 200189c:	1009883a 	mov	r4,r2
 20018a0:	180b883a 	mov	r5,r3
 20018a4:	200342c0 	call	200342c <__fixdfsi>
 20018a8:	1007883a 	mov	r3,r2
 20018ac:	00808234 	movhi	r2,520
 20018b0:	10b51f84 	addi	r2,r2,-11138
 20018b4:	18c7883a 	add	r3,r3,r3
 20018b8:	10c5883a 	add	r2,r2,r3
 20018bc:	1080000b 	ldhu	r2,0(r2)
 20018c0:	e0bffc8d 	sth	r2,-14(fp)
 20018c4:	e03ffd0d 	sth	zero,-12(fp)
 20018c8:	00008d06 	br	2001b00 <displayGamma98ColourBars+0x3c4>
 20018cc:	e0bffa17 	ldw	r2,-24(fp)
 20018d0:	10800410 	cmplti	r2,r2,16
 20018d4:	1000271e 	bne	r2,zero,2001974 <displayGamma98ColourBars+0x238>
 20018d8:	e0bffa17 	ldw	r2,-24(fp)
 20018dc:	10800608 	cmpgei	r2,r2,24
 20018e0:	1000241e 	bne	r2,zero,2001974 <displayGamma98ColourBars+0x238>
 20018e4:	e03ffc0d 	sth	zero,-16(fp)
 20018e8:	e03ffc8d 	sth	zero,-14(fp)
 20018ec:	e13ffb17 	ldw	r4,-20(fp)
 20018f0:	20034ac0 	call	20034ac <__floatsidf>
 20018f4:	1011883a 	mov	r8,r2
 20018f8:	1813883a 	mov	r9,r3
 20018fc:	000d883a 	mov	r6,zero
 2001900:	01d00ff4 	movhi	r7,16447
 2001904:	4009883a 	mov	r4,r8
 2001908:	480b883a 	mov	r5,r9
 200190c:	20021f00 	call	20021f0 <__divdf3>
 2001910:	1009883a 	mov	r4,r2
 2001914:	180b883a 	mov	r5,r3
 2001918:	2005883a 	mov	r2,r4
 200191c:	2807883a 	mov	r3,r5
 2001920:	000d883a 	mov	r6,zero
 2001924:	01d01c34 	movhi	r7,16496
 2001928:	39f80004 	addi	r7,r7,-8192
 200192c:	1009883a 	mov	r4,r2
 2001930:	180b883a 	mov	r5,r3
 2001934:	2002bc00 	call	2002bc0 <__muldf3>
 2001938:	1009883a 	mov	r4,r2
 200193c:	180b883a 	mov	r5,r3
 2001940:	2005883a 	mov	r2,r4
 2001944:	2807883a 	mov	r3,r5
 2001948:	1009883a 	mov	r4,r2
 200194c:	180b883a 	mov	r5,r3
 2001950:	200342c0 	call	200342c <__fixdfsi>
 2001954:	1007883a 	mov	r3,r2
 2001958:	00808234 	movhi	r2,520
 200195c:	10b51f84 	addi	r2,r2,-11138
 2001960:	18c7883a 	add	r3,r3,r3
 2001964:	10c5883a 	add	r2,r2,r3
 2001968:	1080000b 	ldhu	r2,0(r2)
 200196c:	e0bffd0d 	sth	r2,-12(fp)
 2001970:	00006306 	br	2001b00 <displayGamma98ColourBars+0x3c4>
 2001974:	e13ffb17 	ldw	r4,-20(fp)
 2001978:	20034ac0 	call	20034ac <__floatsidf>
 200197c:	1011883a 	mov	r8,r2
 2001980:	1813883a 	mov	r9,r3
 2001984:	000d883a 	mov	r6,zero
 2001988:	01d00ff4 	movhi	r7,16447
 200198c:	4009883a 	mov	r4,r8
 2001990:	480b883a 	mov	r5,r9
 2001994:	20021f00 	call	20021f0 <__divdf3>
 2001998:	1009883a 	mov	r4,r2
 200199c:	180b883a 	mov	r5,r3
 20019a0:	2005883a 	mov	r2,r4
 20019a4:	2807883a 	mov	r3,r5
 20019a8:	000d883a 	mov	r6,zero
 20019ac:	01d01c34 	movhi	r7,16496
 20019b0:	39f80004 	addi	r7,r7,-8192
 20019b4:	1009883a 	mov	r4,r2
 20019b8:	180b883a 	mov	r5,r3
 20019bc:	2002bc00 	call	2002bc0 <__muldf3>
 20019c0:	1009883a 	mov	r4,r2
 20019c4:	180b883a 	mov	r5,r3
 20019c8:	2005883a 	mov	r2,r4
 20019cc:	2807883a 	mov	r3,r5
 20019d0:	1009883a 	mov	r4,r2
 20019d4:	180b883a 	mov	r5,r3
 20019d8:	200342c0 	call	200342c <__fixdfsi>
 20019dc:	1007883a 	mov	r3,r2
 20019e0:	00808234 	movhi	r2,520
 20019e4:	10b51f84 	addi	r2,r2,-11138
 20019e8:	18c7883a 	add	r3,r3,r3
 20019ec:	10c5883a 	add	r2,r2,r3
 20019f0:	1080000b 	ldhu	r2,0(r2)
 20019f4:	e0bffc0d 	sth	r2,-16(fp)
 20019f8:	e13ffb17 	ldw	r4,-20(fp)
 20019fc:	20034ac0 	call	20034ac <__floatsidf>
 2001a00:	1011883a 	mov	r8,r2
 2001a04:	1813883a 	mov	r9,r3
 2001a08:	000d883a 	mov	r6,zero
 2001a0c:	01d00ff4 	movhi	r7,16447
 2001a10:	4009883a 	mov	r4,r8
 2001a14:	480b883a 	mov	r5,r9
 2001a18:	20021f00 	call	20021f0 <__divdf3>
 2001a1c:	1009883a 	mov	r4,r2
 2001a20:	180b883a 	mov	r5,r3
 2001a24:	2005883a 	mov	r2,r4
 2001a28:	2807883a 	mov	r3,r5
 2001a2c:	000d883a 	mov	r6,zero
 2001a30:	01d01c34 	movhi	r7,16496
 2001a34:	39f80004 	addi	r7,r7,-8192
 2001a38:	1009883a 	mov	r4,r2
 2001a3c:	180b883a 	mov	r5,r3
 2001a40:	2002bc00 	call	2002bc0 <__muldf3>
 2001a44:	1009883a 	mov	r4,r2
 2001a48:	180b883a 	mov	r5,r3
 2001a4c:	2005883a 	mov	r2,r4
 2001a50:	2807883a 	mov	r3,r5
 2001a54:	1009883a 	mov	r4,r2
 2001a58:	180b883a 	mov	r5,r3
 2001a5c:	200342c0 	call	200342c <__fixdfsi>
 2001a60:	1007883a 	mov	r3,r2
 2001a64:	00808234 	movhi	r2,520
 2001a68:	10b51f84 	addi	r2,r2,-11138
 2001a6c:	18c7883a 	add	r3,r3,r3
 2001a70:	10c5883a 	add	r2,r2,r3
 2001a74:	1080000b 	ldhu	r2,0(r2)
 2001a78:	e0bffc8d 	sth	r2,-14(fp)
 2001a7c:	e13ffb17 	ldw	r4,-20(fp)
 2001a80:	20034ac0 	call	20034ac <__floatsidf>
 2001a84:	1011883a 	mov	r8,r2
 2001a88:	1813883a 	mov	r9,r3
 2001a8c:	000d883a 	mov	r6,zero
 2001a90:	01d00ff4 	movhi	r7,16447
 2001a94:	4009883a 	mov	r4,r8
 2001a98:	480b883a 	mov	r5,r9
 2001a9c:	20021f00 	call	20021f0 <__divdf3>
 2001aa0:	1009883a 	mov	r4,r2
 2001aa4:	180b883a 	mov	r5,r3
 2001aa8:	2005883a 	mov	r2,r4
 2001aac:	2807883a 	mov	r3,r5
 2001ab0:	000d883a 	mov	r6,zero
 2001ab4:	01d01c34 	movhi	r7,16496
 2001ab8:	39f80004 	addi	r7,r7,-8192
 2001abc:	1009883a 	mov	r4,r2
 2001ac0:	180b883a 	mov	r5,r3
 2001ac4:	2002bc00 	call	2002bc0 <__muldf3>
 2001ac8:	1009883a 	mov	r4,r2
 2001acc:	180b883a 	mov	r5,r3
 2001ad0:	2005883a 	mov	r2,r4
 2001ad4:	2807883a 	mov	r3,r5
 2001ad8:	1009883a 	mov	r4,r2
 2001adc:	180b883a 	mov	r5,r3
 2001ae0:	200342c0 	call	200342c <__fixdfsi>
 2001ae4:	1007883a 	mov	r3,r2
 2001ae8:	00808234 	movhi	r2,520
 2001aec:	10b51f84 	addi	r2,r2,-11138
 2001af0:	18c7883a 	add	r3,r3,r3
 2001af4:	10c5883a 	add	r2,r2,r3
 2001af8:	1080000b 	ldhu	r2,0(r2)
 2001afc:	e0bffd0d 	sth	r2,-12(fp)
 2001b00:	e0bffc0b 	ldhu	r2,-16(fp)
 2001b04:	1004953a 	slli	r2,r2,20
 2001b08:	10cffc2c 	andhi	r3,r2,16368
 2001b0c:	e0bffc8b 	ldhu	r2,-14(fp)
 2001b10:	100892ba 	slli	r4,r2,10
 2001b14:	00800434 	movhi	r2,16
 2001b18:	10bf0004 	addi	r2,r2,-1024
 2001b1c:	2084703a 	and	r2,r4,r2
 2001b20:	1886b03a 	or	r3,r3,r2
 2001b24:	e0bffd0b 	ldhu	r2,-12(fp)
 2001b28:	1080ffcc 	andi	r2,r2,1023
 2001b2c:	1884b03a 	or	r2,r3,r2
 2001b30:	e0bfff15 	stw	r2,-4(fp)
 2001b34:	00810074 	movhi	r2,1025
 2001b38:	10a82004 	addi	r2,r2,-24448
 2001b3c:	e0fffe17 	ldw	r3,-8(fp)
 2001b40:	10c00035 	stwio	r3,0(r2)
 2001b44:	e0ffff17 	ldw	r3,-4(fp)
 2001b48:	00810074 	movhi	r2,1025
 2001b4c:	10a81c04 	addi	r2,r2,-24464
 2001b50:	10c00035 	stwio	r3,0(r2)
 2001b54:	00c00044 	movi	r3,1
 2001b58:	00810074 	movhi	r2,1025
 2001b5c:	10a81804 	addi	r2,r2,-24480
 2001b60:	10c00035 	stwio	r3,0(r2)
 2001b64:	0007883a 	mov	r3,zero
 2001b68:	00810074 	movhi	r2,1025
 2001b6c:	10a81804 	addi	r2,r2,-24480
 2001b70:	10c00035 	stwio	r3,0(r2)
 2001b74:	e0bffb17 	ldw	r2,-20(fp)
 2001b78:	10800044 	addi	r2,r2,1
 2001b7c:	e0bffb15 	stw	r2,-20(fp)
 2001b80:	e0bffb17 	ldw	r2,-20(fp)
 2001b84:	10800810 	cmplti	r2,r2,32
 2001b88:	103ef41e 	bne	r2,zero,200175c <__alt_mem_epcs_flash_controller+0xfdff875c>
 2001b8c:	e0bffa17 	ldw	r2,-24(fp)
 2001b90:	10800044 	addi	r2,r2,1
 2001b94:	e0bffa15 	stw	r2,-24(fp)
 2001b98:	e0bffa17 	ldw	r2,-24(fp)
 2001b9c:	10800810 	cmplti	r2,r2,32
 2001ba0:	103eec1e 	bne	r2,zero,2001754 <__alt_mem_epcs_flash_controller+0xfdff8754>
 2001ba4:	0001883a 	nop
 2001ba8:	e037883a 	mov	sp,fp
 2001bac:	dfc00117 	ldw	ra,4(sp)
 2001bb0:	df000017 	ldw	fp,0(sp)
 2001bb4:	dec00204 	addi	sp,sp,8
 2001bb8:	f800283a 	ret

02001bbc <displayGamma46ColourBars>:
 2001bbc:	defff804 	addi	sp,sp,-32
 2001bc0:	dfc00715 	stw	ra,28(sp)
 2001bc4:	df000615 	stw	fp,24(sp)
 2001bc8:	df000604 	addi	fp,sp,24
 2001bcc:	e03ffa15 	stw	zero,-24(fp)
 2001bd0:	00011106 	br	2002018 <displayGamma46ColourBars+0x45c>
 2001bd4:	e03ffb15 	stw	zero,-20(fp)
 2001bd8:	00010906 	br	2002000 <displayGamma46ColourBars+0x444>
 2001bdc:	00810004 	movi	r2,1024
 2001be0:	e0bffe15 	stw	r2,-8(fp)
 2001be4:	e0bffa17 	ldw	r2,-24(fp)
 2001be8:	1004917a 	slli	r2,r2,5
 2001bec:	e0fffe17 	ldw	r3,-8(fp)
 2001bf0:	1885883a 	add	r2,r3,r2
 2001bf4:	e0bffe15 	stw	r2,-8(fp)
 2001bf8:	e0fffe17 	ldw	r3,-8(fp)
 2001bfc:	e0bffb17 	ldw	r2,-20(fp)
 2001c00:	1885883a 	add	r2,r3,r2
 2001c04:	e0bffe15 	stw	r2,-8(fp)
 2001c08:	e0bffa17 	ldw	r2,-24(fp)
 2001c0c:	10800208 	cmpgei	r2,r2,8
 2001c10:	1000241e 	bne	r2,zero,2001ca4 <displayGamma46ColourBars+0xe8>
 2001c14:	e13ffb17 	ldw	r4,-20(fp)
 2001c18:	20034ac0 	call	20034ac <__floatsidf>
 2001c1c:	1011883a 	mov	r8,r2
 2001c20:	1813883a 	mov	r9,r3
 2001c24:	000d883a 	mov	r6,zero
 2001c28:	01d00ff4 	movhi	r7,16447
 2001c2c:	4009883a 	mov	r4,r8
 2001c30:	480b883a 	mov	r5,r9
 2001c34:	20021f00 	call	20021f0 <__divdf3>
 2001c38:	1009883a 	mov	r4,r2
 2001c3c:	180b883a 	mov	r5,r3
 2001c40:	2005883a 	mov	r2,r4
 2001c44:	2807883a 	mov	r3,r5
 2001c48:	000d883a 	mov	r6,zero
 2001c4c:	01d01c34 	movhi	r7,16496
 2001c50:	39f80004 	addi	r7,r7,-8192
 2001c54:	1009883a 	mov	r4,r2
 2001c58:	180b883a 	mov	r5,r3
 2001c5c:	2002bc00 	call	2002bc0 <__muldf3>
 2001c60:	1009883a 	mov	r4,r2
 2001c64:	180b883a 	mov	r5,r3
 2001c68:	2005883a 	mov	r2,r4
 2001c6c:	2807883a 	mov	r3,r5
 2001c70:	1009883a 	mov	r4,r2
 2001c74:	180b883a 	mov	r5,r3
 2001c78:	200342c0 	call	200342c <__fixdfsi>
 2001c7c:	1007883a 	mov	r3,r2
 2001c80:	00808234 	movhi	r2,520
 2001c84:	10b59f84 	addi	r2,r2,-10626
 2001c88:	18c7883a 	add	r3,r3,r3
 2001c8c:	10c5883a 	add	r2,r2,r3
 2001c90:	1080000b 	ldhu	r2,0(r2)
 2001c94:	e0bffc0d 	sth	r2,-16(fp)
 2001c98:	e03ffc8d 	sth	zero,-14(fp)
 2001c9c:	e03ffd0d 	sth	zero,-12(fp)
 2001ca0:	0000b706 	br	2001f80 <displayGamma46ColourBars+0x3c4>
 2001ca4:	e0bffa17 	ldw	r2,-24(fp)
 2001ca8:	10800210 	cmplti	r2,r2,8
 2001cac:	1000271e 	bne	r2,zero,2001d4c <displayGamma46ColourBars+0x190>
 2001cb0:	e0bffa17 	ldw	r2,-24(fp)
 2001cb4:	10800408 	cmpgei	r2,r2,16
 2001cb8:	1000241e 	bne	r2,zero,2001d4c <displayGamma46ColourBars+0x190>
 2001cbc:	e03ffc0d 	sth	zero,-16(fp)
 2001cc0:	e13ffb17 	ldw	r4,-20(fp)
 2001cc4:	20034ac0 	call	20034ac <__floatsidf>
 2001cc8:	1011883a 	mov	r8,r2
 2001ccc:	1813883a 	mov	r9,r3
 2001cd0:	000d883a 	mov	r6,zero
 2001cd4:	01d00ff4 	movhi	r7,16447
 2001cd8:	4009883a 	mov	r4,r8
 2001cdc:	480b883a 	mov	r5,r9
 2001ce0:	20021f00 	call	20021f0 <__divdf3>
 2001ce4:	1009883a 	mov	r4,r2
 2001ce8:	180b883a 	mov	r5,r3
 2001cec:	2005883a 	mov	r2,r4
 2001cf0:	2807883a 	mov	r3,r5
 2001cf4:	000d883a 	mov	r6,zero
 2001cf8:	01d01c34 	movhi	r7,16496
 2001cfc:	39f80004 	addi	r7,r7,-8192
 2001d00:	1009883a 	mov	r4,r2
 2001d04:	180b883a 	mov	r5,r3
 2001d08:	2002bc00 	call	2002bc0 <__muldf3>
 2001d0c:	1009883a 	mov	r4,r2
 2001d10:	180b883a 	mov	r5,r3
 2001d14:	2005883a 	mov	r2,r4
 2001d18:	2807883a 	mov	r3,r5
 2001d1c:	1009883a 	mov	r4,r2
 2001d20:	180b883a 	mov	r5,r3
 2001d24:	200342c0 	call	200342c <__fixdfsi>
 2001d28:	1007883a 	mov	r3,r2
 2001d2c:	00808234 	movhi	r2,520
 2001d30:	10b59f84 	addi	r2,r2,-10626
 2001d34:	18c7883a 	add	r3,r3,r3
 2001d38:	10c5883a 	add	r2,r2,r3
 2001d3c:	1080000b 	ldhu	r2,0(r2)
 2001d40:	e0bffc8d 	sth	r2,-14(fp)
 2001d44:	e03ffd0d 	sth	zero,-12(fp)
 2001d48:	00008d06 	br	2001f80 <displayGamma46ColourBars+0x3c4>
 2001d4c:	e0bffa17 	ldw	r2,-24(fp)
 2001d50:	10800410 	cmplti	r2,r2,16
 2001d54:	1000271e 	bne	r2,zero,2001df4 <displayGamma46ColourBars+0x238>
 2001d58:	e0bffa17 	ldw	r2,-24(fp)
 2001d5c:	10800608 	cmpgei	r2,r2,24
 2001d60:	1000241e 	bne	r2,zero,2001df4 <displayGamma46ColourBars+0x238>
 2001d64:	e03ffc0d 	sth	zero,-16(fp)
 2001d68:	e03ffc8d 	sth	zero,-14(fp)
 2001d6c:	e13ffb17 	ldw	r4,-20(fp)
 2001d70:	20034ac0 	call	20034ac <__floatsidf>
 2001d74:	1011883a 	mov	r8,r2
 2001d78:	1813883a 	mov	r9,r3
 2001d7c:	000d883a 	mov	r6,zero
 2001d80:	01d00ff4 	movhi	r7,16447
 2001d84:	4009883a 	mov	r4,r8
 2001d88:	480b883a 	mov	r5,r9
 2001d8c:	20021f00 	call	20021f0 <__divdf3>
 2001d90:	1009883a 	mov	r4,r2
 2001d94:	180b883a 	mov	r5,r3
 2001d98:	2005883a 	mov	r2,r4
 2001d9c:	2807883a 	mov	r3,r5
 2001da0:	000d883a 	mov	r6,zero
 2001da4:	01d01c34 	movhi	r7,16496
 2001da8:	39f80004 	addi	r7,r7,-8192
 2001dac:	1009883a 	mov	r4,r2
 2001db0:	180b883a 	mov	r5,r3
 2001db4:	2002bc00 	call	2002bc0 <__muldf3>
 2001db8:	1009883a 	mov	r4,r2
 2001dbc:	180b883a 	mov	r5,r3
 2001dc0:	2005883a 	mov	r2,r4
 2001dc4:	2807883a 	mov	r3,r5
 2001dc8:	1009883a 	mov	r4,r2
 2001dcc:	180b883a 	mov	r5,r3
 2001dd0:	200342c0 	call	200342c <__fixdfsi>
 2001dd4:	1007883a 	mov	r3,r2
 2001dd8:	00808234 	movhi	r2,520
 2001ddc:	10b59f84 	addi	r2,r2,-10626
 2001de0:	18c7883a 	add	r3,r3,r3
 2001de4:	10c5883a 	add	r2,r2,r3
 2001de8:	1080000b 	ldhu	r2,0(r2)
 2001dec:	e0bffd0d 	sth	r2,-12(fp)
 2001df0:	00006306 	br	2001f80 <displayGamma46ColourBars+0x3c4>
 2001df4:	e13ffb17 	ldw	r4,-20(fp)
 2001df8:	20034ac0 	call	20034ac <__floatsidf>
 2001dfc:	1011883a 	mov	r8,r2
 2001e00:	1813883a 	mov	r9,r3
 2001e04:	000d883a 	mov	r6,zero
 2001e08:	01d00ff4 	movhi	r7,16447
 2001e0c:	4009883a 	mov	r4,r8
 2001e10:	480b883a 	mov	r5,r9
 2001e14:	20021f00 	call	20021f0 <__divdf3>
 2001e18:	1009883a 	mov	r4,r2
 2001e1c:	180b883a 	mov	r5,r3
 2001e20:	2005883a 	mov	r2,r4
 2001e24:	2807883a 	mov	r3,r5
 2001e28:	000d883a 	mov	r6,zero
 2001e2c:	01d01c34 	movhi	r7,16496
 2001e30:	39f80004 	addi	r7,r7,-8192
 2001e34:	1009883a 	mov	r4,r2
 2001e38:	180b883a 	mov	r5,r3
 2001e3c:	2002bc00 	call	2002bc0 <__muldf3>
 2001e40:	1009883a 	mov	r4,r2
 2001e44:	180b883a 	mov	r5,r3
 2001e48:	2005883a 	mov	r2,r4
 2001e4c:	2807883a 	mov	r3,r5
 2001e50:	1009883a 	mov	r4,r2
 2001e54:	180b883a 	mov	r5,r3
 2001e58:	200342c0 	call	200342c <__fixdfsi>
 2001e5c:	1007883a 	mov	r3,r2
 2001e60:	00808234 	movhi	r2,520
 2001e64:	10b59f84 	addi	r2,r2,-10626
 2001e68:	18c7883a 	add	r3,r3,r3
 2001e6c:	10c5883a 	add	r2,r2,r3
 2001e70:	1080000b 	ldhu	r2,0(r2)
 2001e74:	e0bffc0d 	sth	r2,-16(fp)
 2001e78:	e13ffb17 	ldw	r4,-20(fp)
 2001e7c:	20034ac0 	call	20034ac <__floatsidf>
 2001e80:	1011883a 	mov	r8,r2
 2001e84:	1813883a 	mov	r9,r3
 2001e88:	000d883a 	mov	r6,zero
 2001e8c:	01d00ff4 	movhi	r7,16447
 2001e90:	4009883a 	mov	r4,r8
 2001e94:	480b883a 	mov	r5,r9
 2001e98:	20021f00 	call	20021f0 <__divdf3>
 2001e9c:	1009883a 	mov	r4,r2
 2001ea0:	180b883a 	mov	r5,r3
 2001ea4:	2005883a 	mov	r2,r4
 2001ea8:	2807883a 	mov	r3,r5
 2001eac:	000d883a 	mov	r6,zero
 2001eb0:	01d01c34 	movhi	r7,16496
 2001eb4:	39f80004 	addi	r7,r7,-8192
 2001eb8:	1009883a 	mov	r4,r2
 2001ebc:	180b883a 	mov	r5,r3
 2001ec0:	2002bc00 	call	2002bc0 <__muldf3>
 2001ec4:	1009883a 	mov	r4,r2
 2001ec8:	180b883a 	mov	r5,r3
 2001ecc:	2005883a 	mov	r2,r4
 2001ed0:	2807883a 	mov	r3,r5
 2001ed4:	1009883a 	mov	r4,r2
 2001ed8:	180b883a 	mov	r5,r3
 2001edc:	200342c0 	call	200342c <__fixdfsi>
 2001ee0:	1007883a 	mov	r3,r2
 2001ee4:	00808234 	movhi	r2,520
 2001ee8:	10b59f84 	addi	r2,r2,-10626
 2001eec:	18c7883a 	add	r3,r3,r3
 2001ef0:	10c5883a 	add	r2,r2,r3
 2001ef4:	1080000b 	ldhu	r2,0(r2)
 2001ef8:	e0bffc8d 	sth	r2,-14(fp)
 2001efc:	e13ffb17 	ldw	r4,-20(fp)
 2001f00:	20034ac0 	call	20034ac <__floatsidf>
 2001f04:	1011883a 	mov	r8,r2
 2001f08:	1813883a 	mov	r9,r3
 2001f0c:	000d883a 	mov	r6,zero
 2001f10:	01d00ff4 	movhi	r7,16447
 2001f14:	4009883a 	mov	r4,r8
 2001f18:	480b883a 	mov	r5,r9
 2001f1c:	20021f00 	call	20021f0 <__divdf3>
 2001f20:	1009883a 	mov	r4,r2
 2001f24:	180b883a 	mov	r5,r3
 2001f28:	2005883a 	mov	r2,r4
 2001f2c:	2807883a 	mov	r3,r5
 2001f30:	000d883a 	mov	r6,zero
 2001f34:	01d01c34 	movhi	r7,16496
 2001f38:	39f80004 	addi	r7,r7,-8192
 2001f3c:	1009883a 	mov	r4,r2
 2001f40:	180b883a 	mov	r5,r3
 2001f44:	2002bc00 	call	2002bc0 <__muldf3>
 2001f48:	1009883a 	mov	r4,r2
 2001f4c:	180b883a 	mov	r5,r3
 2001f50:	2005883a 	mov	r2,r4
 2001f54:	2807883a 	mov	r3,r5
 2001f58:	1009883a 	mov	r4,r2
 2001f5c:	180b883a 	mov	r5,r3
 2001f60:	200342c0 	call	200342c <__fixdfsi>
 2001f64:	1007883a 	mov	r3,r2
 2001f68:	00808234 	movhi	r2,520
 2001f6c:	10b59f84 	addi	r2,r2,-10626
 2001f70:	18c7883a 	add	r3,r3,r3
 2001f74:	10c5883a 	add	r2,r2,r3
 2001f78:	1080000b 	ldhu	r2,0(r2)
 2001f7c:	e0bffd0d 	sth	r2,-12(fp)
 2001f80:	e0bffc0b 	ldhu	r2,-16(fp)
 2001f84:	1004953a 	slli	r2,r2,20
 2001f88:	10cffc2c 	andhi	r3,r2,16368
 2001f8c:	e0bffc8b 	ldhu	r2,-14(fp)
 2001f90:	100892ba 	slli	r4,r2,10
 2001f94:	00800434 	movhi	r2,16
 2001f98:	10bf0004 	addi	r2,r2,-1024
 2001f9c:	2084703a 	and	r2,r4,r2
 2001fa0:	1886b03a 	or	r3,r3,r2
 2001fa4:	e0bffd0b 	ldhu	r2,-12(fp)
 2001fa8:	1080ffcc 	andi	r2,r2,1023
 2001fac:	1884b03a 	or	r2,r3,r2
 2001fb0:	e0bfff15 	stw	r2,-4(fp)
 2001fb4:	00810074 	movhi	r2,1025
 2001fb8:	10a82004 	addi	r2,r2,-24448
 2001fbc:	e0fffe17 	ldw	r3,-8(fp)
 2001fc0:	10c00035 	stwio	r3,0(r2)
 2001fc4:	e0ffff17 	ldw	r3,-4(fp)
 2001fc8:	00810074 	movhi	r2,1025
 2001fcc:	10a81c04 	addi	r2,r2,-24464
 2001fd0:	10c00035 	stwio	r3,0(r2)
 2001fd4:	00c00044 	movi	r3,1
 2001fd8:	00810074 	movhi	r2,1025
 2001fdc:	10a81804 	addi	r2,r2,-24480
 2001fe0:	10c00035 	stwio	r3,0(r2)
 2001fe4:	0007883a 	mov	r3,zero
 2001fe8:	00810074 	movhi	r2,1025
 2001fec:	10a81804 	addi	r2,r2,-24480
 2001ff0:	10c00035 	stwio	r3,0(r2)
 2001ff4:	e0bffb17 	ldw	r2,-20(fp)
 2001ff8:	10800044 	addi	r2,r2,1
 2001ffc:	e0bffb15 	stw	r2,-20(fp)
 2002000:	e0bffb17 	ldw	r2,-20(fp)
 2002004:	10800810 	cmplti	r2,r2,32
 2002008:	103ef41e 	bne	r2,zero,2001bdc <__alt_mem_epcs_flash_controller+0xfdff8bdc>
 200200c:	e0bffa17 	ldw	r2,-24(fp)
 2002010:	10800044 	addi	r2,r2,1
 2002014:	e0bffa15 	stw	r2,-24(fp)
 2002018:	e0bffa17 	ldw	r2,-24(fp)
 200201c:	10800810 	cmplti	r2,r2,32
 2002020:	103eec1e 	bne	r2,zero,2001bd4 <__alt_mem_epcs_flash_controller+0xfdff8bd4>
 2002024:	0001883a 	nop
 2002028:	e037883a 	mov	sp,fp
 200202c:	dfc00117 	ldw	ra,4(sp)
 2002030:	df000017 	ldw	fp,0(sp)
 2002034:	dec00204 	addi	sp,sp,8
 2002038:	f800283a 	ret

0200203c <__divsi3>:
 200203c:	20001b16 	blt	r4,zero,20020ac <__divsi3+0x70>
 2002040:	000f883a 	mov	r7,zero
 2002044:	28001616 	blt	r5,zero,20020a0 <__divsi3+0x64>
 2002048:	200d883a 	mov	r6,r4
 200204c:	29001a2e 	bgeu	r5,r4,20020b8 <__divsi3+0x7c>
 2002050:	00800804 	movi	r2,32
 2002054:	00c00044 	movi	r3,1
 2002058:	00000106 	br	2002060 <__divsi3+0x24>
 200205c:	10000d26 	beq	r2,zero,2002094 <__divsi3+0x58>
 2002060:	294b883a 	add	r5,r5,r5
 2002064:	10bfffc4 	addi	r2,r2,-1
 2002068:	18c7883a 	add	r3,r3,r3
 200206c:	293ffb36 	bltu	r5,r4,200205c <__alt_mem_epcs_flash_controller+0xfdff905c>
 2002070:	0005883a 	mov	r2,zero
 2002074:	18000726 	beq	r3,zero,2002094 <__divsi3+0x58>
 2002078:	0005883a 	mov	r2,zero
 200207c:	31400236 	bltu	r6,r5,2002088 <__divsi3+0x4c>
 2002080:	314dc83a 	sub	r6,r6,r5
 2002084:	10c4b03a 	or	r2,r2,r3
 2002088:	1806d07a 	srli	r3,r3,1
 200208c:	280ad07a 	srli	r5,r5,1
 2002090:	183ffa1e 	bne	r3,zero,200207c <__alt_mem_epcs_flash_controller+0xfdff907c>
 2002094:	38000126 	beq	r7,zero,200209c <__divsi3+0x60>
 2002098:	0085c83a 	sub	r2,zero,r2
 200209c:	f800283a 	ret
 20020a0:	014bc83a 	sub	r5,zero,r5
 20020a4:	39c0005c 	xori	r7,r7,1
 20020a8:	003fe706 	br	2002048 <__alt_mem_epcs_flash_controller+0xfdff9048>
 20020ac:	0109c83a 	sub	r4,zero,r4
 20020b0:	01c00044 	movi	r7,1
 20020b4:	003fe306 	br	2002044 <__alt_mem_epcs_flash_controller+0xfdff9044>
 20020b8:	00c00044 	movi	r3,1
 20020bc:	003fee06 	br	2002078 <__alt_mem_epcs_flash_controller+0xfdff9078>

020020c0 <__modsi3>:
 20020c0:	20001716 	blt	r4,zero,2002120 <__modsi3+0x60>
 20020c4:	000f883a 	mov	r7,zero
 20020c8:	2005883a 	mov	r2,r4
 20020cc:	28001216 	blt	r5,zero,2002118 <__modsi3+0x58>
 20020d0:	2900162e 	bgeu	r5,r4,200212c <__modsi3+0x6c>
 20020d4:	01800804 	movi	r6,32
 20020d8:	00c00044 	movi	r3,1
 20020dc:	00000106 	br	20020e4 <__modsi3+0x24>
 20020e0:	30000a26 	beq	r6,zero,200210c <__modsi3+0x4c>
 20020e4:	294b883a 	add	r5,r5,r5
 20020e8:	31bfffc4 	addi	r6,r6,-1
 20020ec:	18c7883a 	add	r3,r3,r3
 20020f0:	293ffb36 	bltu	r5,r4,20020e0 <__alt_mem_epcs_flash_controller+0xfdff90e0>
 20020f4:	18000526 	beq	r3,zero,200210c <__modsi3+0x4c>
 20020f8:	1806d07a 	srli	r3,r3,1
 20020fc:	11400136 	bltu	r2,r5,2002104 <__modsi3+0x44>
 2002100:	1145c83a 	sub	r2,r2,r5
 2002104:	280ad07a 	srli	r5,r5,1
 2002108:	183ffb1e 	bne	r3,zero,20020f8 <__alt_mem_epcs_flash_controller+0xfdff90f8>
 200210c:	38000126 	beq	r7,zero,2002114 <__modsi3+0x54>
 2002110:	0085c83a 	sub	r2,zero,r2
 2002114:	f800283a 	ret
 2002118:	014bc83a 	sub	r5,zero,r5
 200211c:	003fec06 	br	20020d0 <__alt_mem_epcs_flash_controller+0xfdff90d0>
 2002120:	0109c83a 	sub	r4,zero,r4
 2002124:	01c00044 	movi	r7,1
 2002128:	003fe706 	br	20020c8 <__alt_mem_epcs_flash_controller+0xfdff90c8>
 200212c:	00c00044 	movi	r3,1
 2002130:	003ff106 	br	20020f8 <__alt_mem_epcs_flash_controller+0xfdff90f8>

02002134 <__udivsi3>:
 2002134:	200d883a 	mov	r6,r4
 2002138:	2900152e 	bgeu	r5,r4,2002190 <__udivsi3+0x5c>
 200213c:	28001416 	blt	r5,zero,2002190 <__udivsi3+0x5c>
 2002140:	00800804 	movi	r2,32
 2002144:	00c00044 	movi	r3,1
 2002148:	00000206 	br	2002154 <__udivsi3+0x20>
 200214c:	10000e26 	beq	r2,zero,2002188 <__udivsi3+0x54>
 2002150:	28000516 	blt	r5,zero,2002168 <__udivsi3+0x34>
 2002154:	294b883a 	add	r5,r5,r5
 2002158:	10bfffc4 	addi	r2,r2,-1
 200215c:	18c7883a 	add	r3,r3,r3
 2002160:	293ffa36 	bltu	r5,r4,200214c <__alt_mem_epcs_flash_controller+0xfdff914c>
 2002164:	18000826 	beq	r3,zero,2002188 <__udivsi3+0x54>
 2002168:	0005883a 	mov	r2,zero
 200216c:	31400236 	bltu	r6,r5,2002178 <__udivsi3+0x44>
 2002170:	314dc83a 	sub	r6,r6,r5
 2002174:	10c4b03a 	or	r2,r2,r3
 2002178:	1806d07a 	srli	r3,r3,1
 200217c:	280ad07a 	srli	r5,r5,1
 2002180:	183ffa1e 	bne	r3,zero,200216c <__alt_mem_epcs_flash_controller+0xfdff916c>
 2002184:	f800283a 	ret
 2002188:	0005883a 	mov	r2,zero
 200218c:	f800283a 	ret
 2002190:	00c00044 	movi	r3,1
 2002194:	003ff406 	br	2002168 <__alt_mem_epcs_flash_controller+0xfdff9168>

02002198 <__umodsi3>:
 2002198:	2005883a 	mov	r2,r4
 200219c:	2900122e 	bgeu	r5,r4,20021e8 <__umodsi3+0x50>
 20021a0:	28001116 	blt	r5,zero,20021e8 <__umodsi3+0x50>
 20021a4:	01800804 	movi	r6,32
 20021a8:	00c00044 	movi	r3,1
 20021ac:	00000206 	br	20021b8 <__umodsi3+0x20>
 20021b0:	30000c26 	beq	r6,zero,20021e4 <__umodsi3+0x4c>
 20021b4:	28000516 	blt	r5,zero,20021cc <__umodsi3+0x34>
 20021b8:	294b883a 	add	r5,r5,r5
 20021bc:	31bfffc4 	addi	r6,r6,-1
 20021c0:	18c7883a 	add	r3,r3,r3
 20021c4:	293ffa36 	bltu	r5,r4,20021b0 <__alt_mem_epcs_flash_controller+0xfdff91b0>
 20021c8:	18000626 	beq	r3,zero,20021e4 <__umodsi3+0x4c>
 20021cc:	1806d07a 	srli	r3,r3,1
 20021d0:	11400136 	bltu	r2,r5,20021d8 <__umodsi3+0x40>
 20021d4:	1145c83a 	sub	r2,r2,r5
 20021d8:	280ad07a 	srli	r5,r5,1
 20021dc:	183ffb1e 	bne	r3,zero,20021cc <__alt_mem_epcs_flash_controller+0xfdff91cc>
 20021e0:	f800283a 	ret
 20021e4:	f800283a 	ret
 20021e8:	00c00044 	movi	r3,1
 20021ec:	003ff706 	br	20021cc <__alt_mem_epcs_flash_controller+0xfdff91cc>

020021f0 <__divdf3>:
 20021f0:	defff004 	addi	sp,sp,-64
 20021f4:	dc800815 	stw	r18,32(sp)
 20021f8:	2824d53a 	srli	r18,r5,20
 20021fc:	dd800c15 	stw	r22,48(sp)
 2002200:	282cd7fa 	srli	r22,r5,31
 2002204:	dc000615 	stw	r16,24(sp)
 2002208:	04000434 	movhi	r16,16
 200220c:	843fffc4 	addi	r16,r16,-1
 2002210:	dfc00f15 	stw	ra,60(sp)
 2002214:	df000e15 	stw	fp,56(sp)
 2002218:	ddc00d15 	stw	r23,52(sp)
 200221c:	dd400b15 	stw	r21,44(sp)
 2002220:	dd000a15 	stw	r20,40(sp)
 2002224:	dcc00915 	stw	r19,36(sp)
 2002228:	dc400715 	stw	r17,28(sp)
 200222c:	9481ffcc 	andi	r18,r18,2047
 2002230:	2c20703a 	and	r16,r5,r16
 2002234:	b2003fcc 	andi	r8,r22,255
 2002238:	90006126 	beq	r18,zero,20023c0 <__divdf3+0x1d0>
 200223c:	0081ffc4 	movi	r2,2047
 2002240:	202b883a 	mov	r21,r4
 2002244:	90803726 	beq	r18,r2,2002324 <__divdf3+0x134>
 2002248:	80800434 	orhi	r2,r16,16
 200224c:	100490fa 	slli	r2,r2,3
 2002250:	2020d77a 	srli	r16,r4,29
 2002254:	202a90fa 	slli	r21,r4,3
 2002258:	94bf0044 	addi	r18,r18,-1023
 200225c:	80a0b03a 	or	r16,r16,r2
 2002260:	0013883a 	mov	r9,zero
 2002264:	000b883a 	mov	r5,zero
 2002268:	3806d53a 	srli	r3,r7,20
 200226c:	382ed7fa 	srli	r23,r7,31
 2002270:	04400434 	movhi	r17,16
 2002274:	8c7fffc4 	addi	r17,r17,-1
 2002278:	18c1ffcc 	andi	r3,r3,2047
 200227c:	3029883a 	mov	r20,r6
 2002280:	3c62703a 	and	r17,r7,r17
 2002284:	bf003fcc 	andi	fp,r23,255
 2002288:	18006e26 	beq	r3,zero,2002444 <__divdf3+0x254>
 200228c:	0081ffc4 	movi	r2,2047
 2002290:	18806626 	beq	r3,r2,200242c <__divdf3+0x23c>
 2002294:	88800434 	orhi	r2,r17,16
 2002298:	100490fa 	slli	r2,r2,3
 200229c:	3022d77a 	srli	r17,r6,29
 20022a0:	302890fa 	slli	r20,r6,3
 20022a4:	18ff0044 	addi	r3,r3,-1023
 20022a8:	88a2b03a 	or	r17,r17,r2
 20022ac:	000f883a 	mov	r7,zero
 20022b0:	b5e6f03a 	xor	r19,r22,r23
 20022b4:	3a4cb03a 	or	r6,r7,r9
 20022b8:	008003c4 	movi	r2,15
 20022bc:	9809883a 	mov	r4,r19
 20022c0:	90c7c83a 	sub	r3,r18,r3
 20022c4:	9cc03fcc 	andi	r19,r19,255
 20022c8:	11809636 	bltu	r2,r6,2002524 <__divdf3+0x334>
 20022cc:	300c90ba 	slli	r6,r6,2
 20022d0:	00808034 	movhi	r2,512
 20022d4:	1088b904 	addi	r2,r2,8932
 20022d8:	308d883a 	add	r6,r6,r2
 20022dc:	30800017 	ldw	r2,0(r6)
 20022e0:	1000683a 	jmp	r2
 20022e4:	02002524 	muli	r8,zero,148
 20022e8:	0200235c 	xori	r8,zero,141
 20022ec:	02002514 	movui	r8,148
 20022f0:	02002350 	cmplti	r8,zero,141
 20022f4:	02002514 	movui	r8,148
 20022f8:	020024e8 	cmpgeui	r8,zero,147
 20022fc:	02002514 	movui	r8,148
 2002300:	02002350 	cmplti	r8,zero,141
 2002304:	0200235c 	xori	r8,zero,141
 2002308:	0200235c 	xori	r8,zero,141
 200230c:	020024e8 	cmpgeui	r8,zero,147
 2002310:	02002350 	cmplti	r8,zero,141
 2002314:	02002340 	call	200234 <__alt_mem_sdram_controller-0x1dffdcc>
 2002318:	02002340 	call	200234 <__alt_mem_sdram_controller-0x1dffdcc>
 200231c:	02002340 	call	200234 <__alt_mem_sdram_controller-0x1dffdcc>
 2002320:	020028ac 	andhi	r8,zero,162
 2002324:	2404b03a 	or	r2,r4,r16
 2002328:	10006c1e 	bne	r2,zero,20024dc <__divdf3+0x2ec>
 200232c:	02400204 	movi	r9,8
 2002330:	0021883a 	mov	r16,zero
 2002334:	002b883a 	mov	r21,zero
 2002338:	01400084 	movi	r5,2
 200233c:	003fca06 	br	2002268 <__alt_mem_epcs_flash_controller+0xfdff9268>
 2002340:	8023883a 	mov	r17,r16
 2002344:	a829883a 	mov	r20,r21
 2002348:	4039883a 	mov	fp,r8
 200234c:	280f883a 	mov	r7,r5
 2002350:	00800084 	movi	r2,2
 2002354:	3881601e 	bne	r7,r2,20028d8 <__divdf3+0x6e8>
 2002358:	e027883a 	mov	r19,fp
 200235c:	9900004c 	andi	r4,r19,1
 2002360:	0081ffc4 	movi	r2,2047
 2002364:	0021883a 	mov	r16,zero
 2002368:	002b883a 	mov	r21,zero
 200236c:	1004953a 	slli	r2,r2,20
 2002370:	20c03fcc 	andi	r3,r4,255
 2002374:	01400434 	movhi	r5,16
 2002378:	297fffc4 	addi	r5,r5,-1
 200237c:	180697fa 	slli	r3,r3,31
 2002380:	8160703a 	and	r16,r16,r5
 2002384:	80a0b03a 	or	r16,r16,r2
 2002388:	80c6b03a 	or	r3,r16,r3
 200238c:	a805883a 	mov	r2,r21
 2002390:	dfc00f17 	ldw	ra,60(sp)
 2002394:	df000e17 	ldw	fp,56(sp)
 2002398:	ddc00d17 	ldw	r23,52(sp)
 200239c:	dd800c17 	ldw	r22,48(sp)
 20023a0:	dd400b17 	ldw	r21,44(sp)
 20023a4:	dd000a17 	ldw	r20,40(sp)
 20023a8:	dcc00917 	ldw	r19,36(sp)
 20023ac:	dc800817 	ldw	r18,32(sp)
 20023b0:	dc400717 	ldw	r17,28(sp)
 20023b4:	dc000617 	ldw	r16,24(sp)
 20023b8:	dec01004 	addi	sp,sp,64
 20023bc:	f800283a 	ret
 20023c0:	2404b03a 	or	r2,r4,r16
 20023c4:	2023883a 	mov	r17,r4
 20023c8:	10003f26 	beq	r2,zero,20024c8 <__divdf3+0x2d8>
 20023cc:	80015e26 	beq	r16,zero,2002948 <__divdf3+0x758>
 20023d0:	8009883a 	mov	r4,r16
 20023d4:	d9800215 	stw	r6,8(sp)
 20023d8:	d9c00515 	stw	r7,20(sp)
 20023dc:	da000415 	stw	r8,16(sp)
 20023e0:	20035880 	call	2003588 <__clzsi2>
 20023e4:	d9800217 	ldw	r6,8(sp)
 20023e8:	d9c00517 	ldw	r7,20(sp)
 20023ec:	da000417 	ldw	r8,16(sp)
 20023f0:	113ffd44 	addi	r4,r2,-11
 20023f4:	00c00704 	movi	r3,28
 20023f8:	19014f16 	blt	r3,r4,2002938 <__divdf3+0x748>
 20023fc:	00c00744 	movi	r3,29
 2002400:	157ffe04 	addi	r21,r2,-8
 2002404:	1907c83a 	sub	r3,r3,r4
 2002408:	8560983a 	sll	r16,r16,r21
 200240c:	88c6d83a 	srl	r3,r17,r3
 2002410:	8d6a983a 	sll	r21,r17,r21
 2002414:	1c20b03a 	or	r16,r3,r16
 2002418:	1080fcc4 	addi	r2,r2,1011
 200241c:	00a5c83a 	sub	r18,zero,r2
 2002420:	0013883a 	mov	r9,zero
 2002424:	000b883a 	mov	r5,zero
 2002428:	003f8f06 	br	2002268 <__alt_mem_epcs_flash_controller+0xfdff9268>
 200242c:	3444b03a 	or	r2,r6,r17
 2002430:	1000231e 	bne	r2,zero,20024c0 <__divdf3+0x2d0>
 2002434:	0023883a 	mov	r17,zero
 2002438:	0029883a 	mov	r20,zero
 200243c:	01c00084 	movi	r7,2
 2002440:	003f9b06 	br	20022b0 <__alt_mem_epcs_flash_controller+0xfdff92b0>
 2002444:	3444b03a 	or	r2,r6,r17
 2002448:	10001926 	beq	r2,zero,20024b0 <__divdf3+0x2c0>
 200244c:	88014b26 	beq	r17,zero,200297c <__divdf3+0x78c>
 2002450:	8809883a 	mov	r4,r17
 2002454:	d9400115 	stw	r5,4(sp)
 2002458:	d9800215 	stw	r6,8(sp)
 200245c:	da000415 	stw	r8,16(sp)
 2002460:	da400315 	stw	r9,12(sp)
 2002464:	20035880 	call	2003588 <__clzsi2>
 2002468:	d9400117 	ldw	r5,4(sp)
 200246c:	d9800217 	ldw	r6,8(sp)
 2002470:	da000417 	ldw	r8,16(sp)
 2002474:	da400317 	ldw	r9,12(sp)
 2002478:	113ffd44 	addi	r4,r2,-11
 200247c:	00c00704 	movi	r3,28
 2002480:	19013a16 	blt	r3,r4,200296c <__divdf3+0x77c>
 2002484:	00c00744 	movi	r3,29
 2002488:	153ffe04 	addi	r20,r2,-8
 200248c:	1907c83a 	sub	r3,r3,r4
 2002490:	8d22983a 	sll	r17,r17,r20
 2002494:	30c6d83a 	srl	r3,r6,r3
 2002498:	3528983a 	sll	r20,r6,r20
 200249c:	1c62b03a 	or	r17,r3,r17
 20024a0:	1080fcc4 	addi	r2,r2,1011
 20024a4:	0087c83a 	sub	r3,zero,r2
 20024a8:	000f883a 	mov	r7,zero
 20024ac:	003f8006 	br	20022b0 <__alt_mem_epcs_flash_controller+0xfdff92b0>
 20024b0:	0023883a 	mov	r17,zero
 20024b4:	0029883a 	mov	r20,zero
 20024b8:	01c00044 	movi	r7,1
 20024bc:	003f7c06 	br	20022b0 <__alt_mem_epcs_flash_controller+0xfdff92b0>
 20024c0:	01c000c4 	movi	r7,3
 20024c4:	003f7a06 	br	20022b0 <__alt_mem_epcs_flash_controller+0xfdff92b0>
 20024c8:	02400104 	movi	r9,4
 20024cc:	0021883a 	mov	r16,zero
 20024d0:	002b883a 	mov	r21,zero
 20024d4:	01400044 	movi	r5,1
 20024d8:	003f6306 	br	2002268 <__alt_mem_epcs_flash_controller+0xfdff9268>
 20024dc:	02400304 	movi	r9,12
 20024e0:	014000c4 	movi	r5,3
 20024e4:	003f6006 	br	2002268 <__alt_mem_epcs_flash_controller+0xfdff9268>
 20024e8:	04000434 	movhi	r16,16
 20024ec:	0009883a 	mov	r4,zero
 20024f0:	843fffc4 	addi	r16,r16,-1
 20024f4:	057fffc4 	movi	r21,-1
 20024f8:	0081ffc4 	movi	r2,2047
 20024fc:	003f9b06 	br	200236c <__alt_mem_epcs_flash_controller+0xfdff936c>
 2002500:	00c00044 	movi	r3,1
 2002504:	1887c83a 	sub	r3,r3,r2
 2002508:	01000e04 	movi	r4,56
 200250c:	20c1530e 	bge	r4,r3,2002a5c <__divdf3+0x86c>
 2002510:	9900004c 	andi	r4,r19,1
 2002514:	0005883a 	mov	r2,zero
 2002518:	0021883a 	mov	r16,zero
 200251c:	002b883a 	mov	r21,zero
 2002520:	003f9206 	br	200236c <__alt_mem_epcs_flash_controller+0xfdff936c>
 2002524:	8c012e36 	bltu	r17,r16,20029e0 <__divdf3+0x7f0>
 2002528:	84412c26 	beq	r16,r17,20029dc <__divdf3+0x7ec>
 200252c:	a82f883a 	mov	r23,r21
 2002530:	18ffffc4 	addi	r3,r3,-1
 2002534:	002b883a 	mov	r21,zero
 2002538:	a004d63a 	srli	r2,r20,24
 200253c:	8822923a 	slli	r17,r17,8
 2002540:	a028923a 	slli	r20,r20,8
 2002544:	8009883a 	mov	r4,r16
 2002548:	88acb03a 	or	r22,r17,r2
 200254c:	dd000015 	stw	r20,0(sp)
 2002550:	b028d43a 	srli	r20,r22,16
 2002554:	d8c00215 	stw	r3,8(sp)
 2002558:	b4bfffcc 	andi	r18,r22,65535
 200255c:	a00b883a 	mov	r5,r20
 2002560:	20021340 	call	2002134 <__udivsi3>
 2002564:	100b883a 	mov	r5,r2
 2002568:	9009883a 	mov	r4,r18
 200256c:	1023883a 	mov	r17,r2
 2002570:	20035ec0 	call	20035ec <__mulsi3>
 2002574:	8009883a 	mov	r4,r16
 2002578:	a00b883a 	mov	r5,r20
 200257c:	1039883a 	mov	fp,r2
 2002580:	20021980 	call	2002198 <__umodsi3>
 2002584:	1004943a 	slli	r2,r2,16
 2002588:	b808d43a 	srli	r4,r23,16
 200258c:	d8c00217 	ldw	r3,8(sp)
 2002590:	2084b03a 	or	r2,r4,r2
 2002594:	1700062e 	bgeu	r2,fp,20025b0 <__divdf3+0x3c0>
 2002598:	1585883a 	add	r2,r2,r22
 200259c:	893fffc4 	addi	r4,r17,-1
 20025a0:	15811d36 	bltu	r2,r22,2002a18 <__divdf3+0x828>
 20025a4:	17011c2e 	bgeu	r2,fp,2002a18 <__divdf3+0x828>
 20025a8:	8c7fff84 	addi	r17,r17,-2
 20025ac:	1585883a 	add	r2,r2,r22
 20025b0:	1739c83a 	sub	fp,r2,fp
 20025b4:	a00b883a 	mov	r5,r20
 20025b8:	e009883a 	mov	r4,fp
 20025bc:	d8c00215 	stw	r3,8(sp)
 20025c0:	20021340 	call	2002134 <__udivsi3>
 20025c4:	100b883a 	mov	r5,r2
 20025c8:	9009883a 	mov	r4,r18
 20025cc:	1021883a 	mov	r16,r2
 20025d0:	20035ec0 	call	20035ec <__mulsi3>
 20025d4:	a00b883a 	mov	r5,r20
 20025d8:	e009883a 	mov	r4,fp
 20025dc:	d8800415 	stw	r2,16(sp)
 20025e0:	20021980 	call	2002198 <__umodsi3>
 20025e4:	1004943a 	slli	r2,r2,16
 20025e8:	da000417 	ldw	r8,16(sp)
 20025ec:	bdffffcc 	andi	r23,r23,65535
 20025f0:	b884b03a 	or	r2,r23,r2
 20025f4:	d8c00217 	ldw	r3,8(sp)
 20025f8:	1200062e 	bgeu	r2,r8,2002614 <__divdf3+0x424>
 20025fc:	1585883a 	add	r2,r2,r22
 2002600:	813fffc4 	addi	r4,r16,-1
 2002604:	15810236 	bltu	r2,r22,2002a10 <__divdf3+0x820>
 2002608:	1201012e 	bgeu	r2,r8,2002a10 <__divdf3+0x820>
 200260c:	843fff84 	addi	r16,r16,-2
 2002610:	1585883a 	add	r2,r2,r22
 2002614:	8822943a 	slli	r17,r17,16
 2002618:	d9800017 	ldw	r6,0(sp)
 200261c:	1211c83a 	sub	r8,r2,r8
 2002620:	8c22b03a 	or	r17,r17,r16
 2002624:	373fffcc 	andi	fp,r6,65535
 2002628:	8abfffcc 	andi	r10,r17,65535
 200262c:	8820d43a 	srli	r16,r17,16
 2002630:	5009883a 	mov	r4,r10
 2002634:	e00b883a 	mov	r5,fp
 2002638:	302ed43a 	srli	r23,r6,16
 200263c:	d8c00215 	stw	r3,8(sp)
 2002640:	da000415 	stw	r8,16(sp)
 2002644:	da800115 	stw	r10,4(sp)
 2002648:	20035ec0 	call	20035ec <__mulsi3>
 200264c:	800b883a 	mov	r5,r16
 2002650:	e009883a 	mov	r4,fp
 2002654:	d8800515 	stw	r2,20(sp)
 2002658:	20035ec0 	call	20035ec <__mulsi3>
 200265c:	8009883a 	mov	r4,r16
 2002660:	b80b883a 	mov	r5,r23
 2002664:	d8800315 	stw	r2,12(sp)
 2002668:	20035ec0 	call	20035ec <__mulsi3>
 200266c:	da800117 	ldw	r10,4(sp)
 2002670:	b80b883a 	mov	r5,r23
 2002674:	1021883a 	mov	r16,r2
 2002678:	5009883a 	mov	r4,r10
 200267c:	20035ec0 	call	20035ec <__mulsi3>
 2002680:	d9c00517 	ldw	r7,20(sp)
 2002684:	da400317 	ldw	r9,12(sp)
 2002688:	d8c00217 	ldw	r3,8(sp)
 200268c:	3808d43a 	srli	r4,r7,16
 2002690:	1245883a 	add	r2,r2,r9
 2002694:	da000417 	ldw	r8,16(sp)
 2002698:	2085883a 	add	r2,r4,r2
 200269c:	1240022e 	bgeu	r2,r9,20026a8 <__divdf3+0x4b8>
 20026a0:	01000074 	movhi	r4,1
 20026a4:	8121883a 	add	r16,r16,r4
 20026a8:	1008d43a 	srli	r4,r2,16
 20026ac:	1004943a 	slli	r2,r2,16
 20026b0:	39ffffcc 	andi	r7,r7,65535
 20026b4:	2409883a 	add	r4,r4,r16
 20026b8:	11c5883a 	add	r2,r2,r7
 20026bc:	4100bb36 	bltu	r8,r4,20029ac <__divdf3+0x7bc>
 20026c0:	4100d726 	beq	r8,r4,2002a20 <__divdf3+0x830>
 20026c4:	4109c83a 	sub	r4,r8,r4
 20026c8:	a8a1c83a 	sub	r16,r21,r2
 20026cc:	ac2b803a 	cmpltu	r21,r21,r16
 20026d0:	256bc83a 	sub	r21,r4,r21
 20026d4:	b540d926 	beq	r22,r21,2002a3c <__divdf3+0x84c>
 20026d8:	a00b883a 	mov	r5,r20
 20026dc:	a809883a 	mov	r4,r21
 20026e0:	d8c00215 	stw	r3,8(sp)
 20026e4:	20021340 	call	2002134 <__udivsi3>
 20026e8:	100b883a 	mov	r5,r2
 20026ec:	9009883a 	mov	r4,r18
 20026f0:	d8800515 	stw	r2,20(sp)
 20026f4:	20035ec0 	call	20035ec <__mulsi3>
 20026f8:	a809883a 	mov	r4,r21
 20026fc:	a00b883a 	mov	r5,r20
 2002700:	d8800415 	stw	r2,16(sp)
 2002704:	20021980 	call	2002198 <__umodsi3>
 2002708:	1004943a 	slli	r2,r2,16
 200270c:	8008d43a 	srli	r4,r16,16
 2002710:	da000417 	ldw	r8,16(sp)
 2002714:	d8c00217 	ldw	r3,8(sp)
 2002718:	2084b03a 	or	r2,r4,r2
 200271c:	d9c00517 	ldw	r7,20(sp)
 2002720:	1200062e 	bgeu	r2,r8,200273c <__divdf3+0x54c>
 2002724:	1585883a 	add	r2,r2,r22
 2002728:	393fffc4 	addi	r4,r7,-1
 200272c:	1580c536 	bltu	r2,r22,2002a44 <__divdf3+0x854>
 2002730:	1200c42e 	bgeu	r2,r8,2002a44 <__divdf3+0x854>
 2002734:	39ffff84 	addi	r7,r7,-2
 2002738:	1585883a 	add	r2,r2,r22
 200273c:	122bc83a 	sub	r21,r2,r8
 2002740:	a00b883a 	mov	r5,r20
 2002744:	a809883a 	mov	r4,r21
 2002748:	d8c00215 	stw	r3,8(sp)
 200274c:	d9c00515 	stw	r7,20(sp)
 2002750:	20021340 	call	2002134 <__udivsi3>
 2002754:	9009883a 	mov	r4,r18
 2002758:	100b883a 	mov	r5,r2
 200275c:	d8800415 	stw	r2,16(sp)
 2002760:	20035ec0 	call	20035ec <__mulsi3>
 2002764:	a809883a 	mov	r4,r21
 2002768:	a00b883a 	mov	r5,r20
 200276c:	1025883a 	mov	r18,r2
 2002770:	20021980 	call	2002198 <__umodsi3>
 2002774:	1004943a 	slli	r2,r2,16
 2002778:	813fffcc 	andi	r4,r16,65535
 200277c:	d8c00217 	ldw	r3,8(sp)
 2002780:	20a0b03a 	or	r16,r4,r2
 2002784:	d9c00517 	ldw	r7,20(sp)
 2002788:	da000417 	ldw	r8,16(sp)
 200278c:	8480062e 	bgeu	r16,r18,20027a8 <__divdf3+0x5b8>
 2002790:	85a1883a 	add	r16,r16,r22
 2002794:	40bfffc4 	addi	r2,r8,-1
 2002798:	8580ac36 	bltu	r16,r22,2002a4c <__divdf3+0x85c>
 200279c:	8480ab2e 	bgeu	r16,r18,2002a4c <__divdf3+0x85c>
 20027a0:	423fff84 	addi	r8,r8,-2
 20027a4:	85a1883a 	add	r16,r16,r22
 20027a8:	3804943a 	slli	r2,r7,16
 20027ac:	84a1c83a 	sub	r16,r16,r18
 20027b0:	e009883a 	mov	r4,fp
 20027b4:	1228b03a 	or	r20,r2,r8
 20027b8:	a1ffffcc 	andi	r7,r20,65535
 20027bc:	a024d43a 	srli	r18,r20,16
 20027c0:	380b883a 	mov	r5,r7
 20027c4:	d8c00215 	stw	r3,8(sp)
 20027c8:	d9c00515 	stw	r7,20(sp)
 20027cc:	20035ec0 	call	20035ec <__mulsi3>
 20027d0:	900b883a 	mov	r5,r18
 20027d4:	e009883a 	mov	r4,fp
 20027d8:	102b883a 	mov	r21,r2
 20027dc:	20035ec0 	call	20035ec <__mulsi3>
 20027e0:	900b883a 	mov	r5,r18
 20027e4:	b809883a 	mov	r4,r23
 20027e8:	1039883a 	mov	fp,r2
 20027ec:	20035ec0 	call	20035ec <__mulsi3>
 20027f0:	d9c00517 	ldw	r7,20(sp)
 20027f4:	b80b883a 	mov	r5,r23
 20027f8:	1025883a 	mov	r18,r2
 20027fc:	3809883a 	mov	r4,r7
 2002800:	20035ec0 	call	20035ec <__mulsi3>
 2002804:	a808d43a 	srli	r4,r21,16
 2002808:	1705883a 	add	r2,r2,fp
 200280c:	d8c00217 	ldw	r3,8(sp)
 2002810:	2085883a 	add	r2,r4,r2
 2002814:	1700022e 	bgeu	r2,fp,2002820 <__divdf3+0x630>
 2002818:	01000074 	movhi	r4,1
 200281c:	9125883a 	add	r18,r18,r4
 2002820:	1008d43a 	srli	r4,r2,16
 2002824:	1004943a 	slli	r2,r2,16
 2002828:	ad7fffcc 	andi	r21,r21,65535
 200282c:	2489883a 	add	r4,r4,r18
 2002830:	1545883a 	add	r2,r2,r21
 2002834:	81003836 	bltu	r16,r4,2002918 <__divdf3+0x728>
 2002838:	81003626 	beq	r16,r4,2002914 <__divdf3+0x724>
 200283c:	a5000054 	ori	r20,r20,1
 2002840:	1880ffc4 	addi	r2,r3,1023
 2002844:	00bf2e0e 	bge	zero,r2,2002500 <__alt_mem_epcs_flash_controller+0xfdff9500>
 2002848:	a10001cc 	andi	r4,r20,7
 200284c:	20000726 	beq	r4,zero,200286c <__divdf3+0x67c>
 2002850:	a10003cc 	andi	r4,r20,15
 2002854:	01400104 	movi	r5,4
 2002858:	21400426 	beq	r4,r5,200286c <__divdf3+0x67c>
 200285c:	a149883a 	add	r4,r20,r5
 2002860:	2529803a 	cmpltu	r20,r4,r20
 2002864:	8d23883a 	add	r17,r17,r20
 2002868:	2029883a 	mov	r20,r4
 200286c:	8900402c 	andhi	r4,r17,256
 2002870:	20000426 	beq	r4,zero,2002884 <__divdf3+0x694>
 2002874:	18810004 	addi	r2,r3,1024
 2002878:	00ffc034 	movhi	r3,65280
 200287c:	18ffffc4 	addi	r3,r3,-1
 2002880:	88e2703a 	and	r17,r17,r3
 2002884:	00c1ff84 	movi	r3,2046
 2002888:	18beb416 	blt	r3,r2,200235c <__alt_mem_epcs_flash_controller+0xfdff935c>
 200288c:	a028d0fa 	srli	r20,r20,3
 2002890:	882a977a 	slli	r21,r17,29
 2002894:	8820927a 	slli	r16,r17,9
 2002898:	1081ffcc 	andi	r2,r2,2047
 200289c:	ad2ab03a 	or	r21,r21,r20
 20028a0:	8020d33a 	srli	r16,r16,12
 20028a4:	9900004c 	andi	r4,r19,1
 20028a8:	003eb006 	br	200236c <__alt_mem_epcs_flash_controller+0xfdff936c>
 20028ac:	8080022c 	andhi	r2,r16,8
 20028b0:	10001226 	beq	r2,zero,20028fc <__divdf3+0x70c>
 20028b4:	8880022c 	andhi	r2,r17,8
 20028b8:	1000101e 	bne	r2,zero,20028fc <__divdf3+0x70c>
 20028bc:	00800434 	movhi	r2,16
 20028c0:	8c000234 	orhi	r16,r17,8
 20028c4:	10bfffc4 	addi	r2,r2,-1
 20028c8:	b809883a 	mov	r4,r23
 20028cc:	80a0703a 	and	r16,r16,r2
 20028d0:	a02b883a 	mov	r21,r20
 20028d4:	003f0806 	br	20024f8 <__alt_mem_epcs_flash_controller+0xfdff94f8>
 20028d8:	008000c4 	movi	r2,3
 20028dc:	3880b126 	beq	r7,r2,2002ba4 <__divdf3+0x9b4>
 20028e0:	00800044 	movi	r2,1
 20028e4:	38805b1e 	bne	r7,r2,2002a54 <__divdf3+0x864>
 20028e8:	e009883a 	mov	r4,fp
 20028ec:	0005883a 	mov	r2,zero
 20028f0:	0021883a 	mov	r16,zero
 20028f4:	002b883a 	mov	r21,zero
 20028f8:	003e9c06 	br	200236c <__alt_mem_epcs_flash_controller+0xfdff936c>
 20028fc:	00800434 	movhi	r2,16
 2002900:	84000234 	orhi	r16,r16,8
 2002904:	10bfffc4 	addi	r2,r2,-1
 2002908:	b009883a 	mov	r4,r22
 200290c:	80a0703a 	and	r16,r16,r2
 2002910:	003ef906 	br	20024f8 <__alt_mem_epcs_flash_controller+0xfdff94f8>
 2002914:	103fca26 	beq	r2,zero,2002840 <__alt_mem_epcs_flash_controller+0xfdff9840>
 2002918:	b421883a 	add	r16,r22,r16
 200291c:	a17fffc4 	addi	r5,r20,-1
 2002920:	8580422e 	bgeu	r16,r22,2002a2c <__divdf3+0x83c>
 2002924:	2829883a 	mov	r20,r5
 2002928:	813fc41e 	bne	r16,r4,200283c <__alt_mem_epcs_flash_controller+0xfdff983c>
 200292c:	d9800017 	ldw	r6,0(sp)
 2002930:	30bfc21e 	bne	r6,r2,200283c <__alt_mem_epcs_flash_controller+0xfdff983c>
 2002934:	003fc206 	br	2002840 <__alt_mem_epcs_flash_controller+0xfdff9840>
 2002938:	143ff604 	addi	r16,r2,-40
 200293c:	8c20983a 	sll	r16,r17,r16
 2002940:	002b883a 	mov	r21,zero
 2002944:	003eb406 	br	2002418 <__alt_mem_epcs_flash_controller+0xfdff9418>
 2002948:	d9800215 	stw	r6,8(sp)
 200294c:	d9c00515 	stw	r7,20(sp)
 2002950:	da000415 	stw	r8,16(sp)
 2002954:	20035880 	call	2003588 <__clzsi2>
 2002958:	10800804 	addi	r2,r2,32
 200295c:	da000417 	ldw	r8,16(sp)
 2002960:	d9c00517 	ldw	r7,20(sp)
 2002964:	d9800217 	ldw	r6,8(sp)
 2002968:	003ea106 	br	20023f0 <__alt_mem_epcs_flash_controller+0xfdff93f0>
 200296c:	147ff604 	addi	r17,r2,-40
 2002970:	3462983a 	sll	r17,r6,r17
 2002974:	0029883a 	mov	r20,zero
 2002978:	003ec906 	br	20024a0 <__alt_mem_epcs_flash_controller+0xfdff94a0>
 200297c:	3009883a 	mov	r4,r6
 2002980:	d9400115 	stw	r5,4(sp)
 2002984:	d9800215 	stw	r6,8(sp)
 2002988:	da000415 	stw	r8,16(sp)
 200298c:	da400315 	stw	r9,12(sp)
 2002990:	20035880 	call	2003588 <__clzsi2>
 2002994:	10800804 	addi	r2,r2,32
 2002998:	da400317 	ldw	r9,12(sp)
 200299c:	da000417 	ldw	r8,16(sp)
 20029a0:	d9800217 	ldw	r6,8(sp)
 20029a4:	d9400117 	ldw	r5,4(sp)
 20029a8:	003eb306 	br	2002478 <__alt_mem_epcs_flash_controller+0xfdff9478>
 20029ac:	d9800017 	ldw	r6,0(sp)
 20029b0:	a9ab883a 	add	r21,r21,r6
 20029b4:	a98b803a 	cmpltu	r5,r21,r6
 20029b8:	2d8b883a 	add	r5,r5,r22
 20029bc:	2a11883a 	add	r8,r5,r8
 20029c0:	897fffc4 	addi	r5,r17,-1
 20029c4:	b2000c2e 	bgeu	r22,r8,20029f8 <__divdf3+0x808>
 20029c8:	41003f36 	bltu	r8,r4,2002ac8 <__divdf3+0x8d8>
 20029cc:	22006c26 	beq	r4,r8,2002b80 <__divdf3+0x990>
 20029d0:	4109c83a 	sub	r4,r8,r4
 20029d4:	2823883a 	mov	r17,r5
 20029d8:	003f3b06 	br	20026c8 <__alt_mem_epcs_flash_controller+0xfdff96c8>
 20029dc:	ad3ed336 	bltu	r21,r20,200252c <__alt_mem_epcs_flash_controller+0xfdff952c>
 20029e0:	a804d07a 	srli	r2,r21,1
 20029e4:	802e97fa 	slli	r23,r16,31
 20029e8:	a82a97fa 	slli	r21,r21,31
 20029ec:	8020d07a 	srli	r16,r16,1
 20029f0:	b8aeb03a 	or	r23,r23,r2
 20029f4:	003ed006 	br	2002538 <__alt_mem_epcs_flash_controller+0xfdff9538>
 20029f8:	b23ff51e 	bne	r22,r8,20029d0 <__alt_mem_epcs_flash_controller+0xfdff99d0>
 20029fc:	d9800017 	ldw	r6,0(sp)
 2002a00:	a9bff12e 	bgeu	r21,r6,20029c8 <__alt_mem_epcs_flash_controller+0xfdff99c8>
 2002a04:	b109c83a 	sub	r4,r22,r4
 2002a08:	2823883a 	mov	r17,r5
 2002a0c:	003f2e06 	br	20026c8 <__alt_mem_epcs_flash_controller+0xfdff96c8>
 2002a10:	2021883a 	mov	r16,r4
 2002a14:	003eff06 	br	2002614 <__alt_mem_epcs_flash_controller+0xfdff9614>
 2002a18:	2023883a 	mov	r17,r4
 2002a1c:	003ee406 	br	20025b0 <__alt_mem_epcs_flash_controller+0xfdff95b0>
 2002a20:	a8bfe236 	bltu	r21,r2,20029ac <__alt_mem_epcs_flash_controller+0xfdff99ac>
 2002a24:	0009883a 	mov	r4,zero
 2002a28:	003f2706 	br	20026c8 <__alt_mem_epcs_flash_controller+0xfdff96c8>
 2002a2c:	81002d36 	bltu	r16,r4,2002ae4 <__divdf3+0x8f4>
 2002a30:	24005626 	beq	r4,r16,2002b8c <__divdf3+0x99c>
 2002a34:	2829883a 	mov	r20,r5
 2002a38:	003f8006 	br	200283c <__alt_mem_epcs_flash_controller+0xfdff983c>
 2002a3c:	053fffc4 	movi	r20,-1
 2002a40:	003f7f06 	br	2002840 <__alt_mem_epcs_flash_controller+0xfdff9840>
 2002a44:	200f883a 	mov	r7,r4
 2002a48:	003f3c06 	br	200273c <__alt_mem_epcs_flash_controller+0xfdff973c>
 2002a4c:	1011883a 	mov	r8,r2
 2002a50:	003f5506 	br	20027a8 <__alt_mem_epcs_flash_controller+0xfdff97a8>
 2002a54:	e027883a 	mov	r19,fp
 2002a58:	003f7906 	br	2002840 <__alt_mem_epcs_flash_controller+0xfdff9840>
 2002a5c:	010007c4 	movi	r4,31
 2002a60:	20c02816 	blt	r4,r3,2002b04 <__divdf3+0x914>
 2002a64:	00800804 	movi	r2,32
 2002a68:	10c5c83a 	sub	r2,r2,r3
 2002a6c:	888a983a 	sll	r5,r17,r2
 2002a70:	a0c8d83a 	srl	r4,r20,r3
 2002a74:	a084983a 	sll	r2,r20,r2
 2002a78:	88e2d83a 	srl	r17,r17,r3
 2002a7c:	2906b03a 	or	r3,r5,r4
 2002a80:	1004c03a 	cmpne	r2,r2,zero
 2002a84:	1886b03a 	or	r3,r3,r2
 2002a88:	188001cc 	andi	r2,r3,7
 2002a8c:	10000726 	beq	r2,zero,2002aac <__divdf3+0x8bc>
 2002a90:	188003cc 	andi	r2,r3,15
 2002a94:	01000104 	movi	r4,4
 2002a98:	11000426 	beq	r2,r4,2002aac <__divdf3+0x8bc>
 2002a9c:	1805883a 	mov	r2,r3
 2002aa0:	10c00104 	addi	r3,r2,4
 2002aa4:	1885803a 	cmpltu	r2,r3,r2
 2002aa8:	88a3883a 	add	r17,r17,r2
 2002aac:	8880202c 	andhi	r2,r17,128
 2002ab0:	10002926 	beq	r2,zero,2002b58 <__divdf3+0x968>
 2002ab4:	9900004c 	andi	r4,r19,1
 2002ab8:	00800044 	movi	r2,1
 2002abc:	0021883a 	mov	r16,zero
 2002ac0:	002b883a 	mov	r21,zero
 2002ac4:	003e2906 	br	200236c <__alt_mem_epcs_flash_controller+0xfdff936c>
 2002ac8:	d9800017 	ldw	r6,0(sp)
 2002acc:	8c7fff84 	addi	r17,r17,-2
 2002ad0:	a9ab883a 	add	r21,r21,r6
 2002ad4:	a98b803a 	cmpltu	r5,r21,r6
 2002ad8:	2d8b883a 	add	r5,r5,r22
 2002adc:	2a11883a 	add	r8,r5,r8
 2002ae0:	003ef806 	br	20026c4 <__alt_mem_epcs_flash_controller+0xfdff96c4>
 2002ae4:	d9800017 	ldw	r6,0(sp)
 2002ae8:	318f883a 	add	r7,r6,r6
 2002aec:	398b803a 	cmpltu	r5,r7,r6
 2002af0:	2d8d883a 	add	r6,r5,r22
 2002af4:	81a1883a 	add	r16,r16,r6
 2002af8:	a17fff84 	addi	r5,r20,-2
 2002afc:	d9c00015 	stw	r7,0(sp)
 2002b00:	003f8806 	br	2002924 <__alt_mem_epcs_flash_controller+0xfdff9924>
 2002b04:	013ff844 	movi	r4,-31
 2002b08:	2085c83a 	sub	r2,r4,r2
 2002b0c:	8888d83a 	srl	r4,r17,r2
 2002b10:	00800804 	movi	r2,32
 2002b14:	18802126 	beq	r3,r2,2002b9c <__divdf3+0x9ac>
 2002b18:	04001004 	movi	r16,64
 2002b1c:	80c7c83a 	sub	r3,r16,r3
 2002b20:	88e0983a 	sll	r16,r17,r3
 2002b24:	8504b03a 	or	r2,r16,r20
 2002b28:	1004c03a 	cmpne	r2,r2,zero
 2002b2c:	2084b03a 	or	r2,r4,r2
 2002b30:	144001cc 	andi	r17,r2,7
 2002b34:	88000d1e 	bne	r17,zero,2002b6c <__divdf3+0x97c>
 2002b38:	0021883a 	mov	r16,zero
 2002b3c:	102ad0fa 	srli	r21,r2,3
 2002b40:	9900004c 	andi	r4,r19,1
 2002b44:	0005883a 	mov	r2,zero
 2002b48:	ac6ab03a 	or	r21,r21,r17
 2002b4c:	003e0706 	br	200236c <__alt_mem_epcs_flash_controller+0xfdff936c>
 2002b50:	1007883a 	mov	r3,r2
 2002b54:	0023883a 	mov	r17,zero
 2002b58:	8820927a 	slli	r16,r17,9
 2002b5c:	1805883a 	mov	r2,r3
 2002b60:	8822977a 	slli	r17,r17,29
 2002b64:	8020d33a 	srli	r16,r16,12
 2002b68:	003ff406 	br	2002b3c <__alt_mem_epcs_flash_controller+0xfdff9b3c>
 2002b6c:	10c003cc 	andi	r3,r2,15
 2002b70:	01000104 	movi	r4,4
 2002b74:	193ff626 	beq	r3,r4,2002b50 <__alt_mem_epcs_flash_controller+0xfdff9b50>
 2002b78:	0023883a 	mov	r17,zero
 2002b7c:	003fc806 	br	2002aa0 <__alt_mem_epcs_flash_controller+0xfdff9aa0>
 2002b80:	a8bfd136 	bltu	r21,r2,2002ac8 <__alt_mem_epcs_flash_controller+0xfdff9ac8>
 2002b84:	2823883a 	mov	r17,r5
 2002b88:	003fa606 	br	2002a24 <__alt_mem_epcs_flash_controller+0xfdff9a24>
 2002b8c:	d9800017 	ldw	r6,0(sp)
 2002b90:	30bfd436 	bltu	r6,r2,2002ae4 <__alt_mem_epcs_flash_controller+0xfdff9ae4>
 2002b94:	2829883a 	mov	r20,r5
 2002b98:	003f6406 	br	200292c <__alt_mem_epcs_flash_controller+0xfdff992c>
 2002b9c:	0021883a 	mov	r16,zero
 2002ba0:	003fe006 	br	2002b24 <__alt_mem_epcs_flash_controller+0xfdff9b24>
 2002ba4:	00800434 	movhi	r2,16
 2002ba8:	8c000234 	orhi	r16,r17,8
 2002bac:	10bfffc4 	addi	r2,r2,-1
 2002bb0:	e009883a 	mov	r4,fp
 2002bb4:	80a0703a 	and	r16,r16,r2
 2002bb8:	a02b883a 	mov	r21,r20
 2002bbc:	003e4e06 	br	20024f8 <__alt_mem_epcs_flash_controller+0xfdff94f8>

02002bc0 <__muldf3>:
 2002bc0:	deffee04 	addi	sp,sp,-72
 2002bc4:	dd000c15 	stw	r20,48(sp)
 2002bc8:	2828d53a 	srli	r20,r5,20
 2002bcc:	ddc00f15 	stw	r23,60(sp)
 2002bd0:	282ed7fa 	srli	r23,r5,31
 2002bd4:	dc000815 	stw	r16,32(sp)
 2002bd8:	04000434 	movhi	r16,16
 2002bdc:	dcc00b15 	stw	r19,44(sp)
 2002be0:	843fffc4 	addi	r16,r16,-1
 2002be4:	dfc01115 	stw	ra,68(sp)
 2002be8:	df001015 	stw	fp,64(sp)
 2002bec:	dd800e15 	stw	r22,56(sp)
 2002bf0:	dd400d15 	stw	r21,52(sp)
 2002bf4:	dc800a15 	stw	r18,40(sp)
 2002bf8:	dc400915 	stw	r17,36(sp)
 2002bfc:	a501ffcc 	andi	r20,r20,2047
 2002c00:	2c20703a 	and	r16,r5,r16
 2002c04:	b827883a 	mov	r19,r23
 2002c08:	ba403fcc 	andi	r9,r23,255
 2002c0c:	a0006026 	beq	r20,zero,2002d90 <__muldf3+0x1d0>
 2002c10:	0081ffc4 	movi	r2,2047
 2002c14:	202d883a 	mov	r22,r4
 2002c18:	a0803626 	beq	r20,r2,2002cf4 <__muldf3+0x134>
 2002c1c:	84000434 	orhi	r16,r16,16
 2002c20:	200ad77a 	srli	r5,r4,29
 2002c24:	800490fa 	slli	r2,r16,3
 2002c28:	202c90fa 	slli	r22,r4,3
 2002c2c:	a53f0044 	addi	r20,r20,-1023
 2002c30:	28a0b03a 	or	r16,r5,r2
 2002c34:	002b883a 	mov	r21,zero
 2002c38:	000b883a 	mov	r5,zero
 2002c3c:	3804d53a 	srli	r2,r7,20
 2002c40:	3838d7fa 	srli	fp,r7,31
 2002c44:	04400434 	movhi	r17,16
 2002c48:	8c7fffc4 	addi	r17,r17,-1
 2002c4c:	1081ffcc 	andi	r2,r2,2047
 2002c50:	3025883a 	mov	r18,r6
 2002c54:	3c62703a 	and	r17,r7,r17
 2002c58:	e2803fcc 	andi	r10,fp,255
 2002c5c:	10006d26 	beq	r2,zero,2002e14 <__muldf3+0x254>
 2002c60:	00c1ffc4 	movi	r3,2047
 2002c64:	10c06526 	beq	r2,r3,2002dfc <__muldf3+0x23c>
 2002c68:	8c400434 	orhi	r17,r17,16
 2002c6c:	300ed77a 	srli	r7,r6,29
 2002c70:	880690fa 	slli	r3,r17,3
 2002c74:	302490fa 	slli	r18,r6,3
 2002c78:	10bf0044 	addi	r2,r2,-1023
 2002c7c:	38e2b03a 	or	r17,r7,r3
 2002c80:	000f883a 	mov	r7,zero
 2002c84:	a087883a 	add	r3,r20,r2
 2002c88:	010003c4 	movi	r4,15
 2002c8c:	3d44b03a 	or	r2,r7,r21
 2002c90:	e5ccf03a 	xor	r6,fp,r23
 2002c94:	1a000044 	addi	r8,r3,1
 2002c98:	20809b36 	bltu	r4,r2,2002f08 <__muldf3+0x348>
 2002c9c:	100490ba 	slli	r2,r2,2
 2002ca0:	01008034 	movhi	r4,512
 2002ca4:	210b2d04 	addi	r4,r4,11444
 2002ca8:	1105883a 	add	r2,r2,r4
 2002cac:	10800017 	ldw	r2,0(r2)
 2002cb0:	1000683a 	jmp	r2
 2002cb4:	02002f08 	cmpgei	r8,zero,188
 2002cb8:	02002d14 	movui	r8,180
 2002cbc:	02002d14 	movui	r8,180
 2002cc0:	02002d10 	cmplti	r8,zero,180
 2002cc4:	02002ee4 	muli	r8,zero,187
 2002cc8:	02002ee4 	muli	r8,zero,187
 2002ccc:	02002ecc 	andi	r8,zero,187
 2002cd0:	02002d10 	cmplti	r8,zero,180
 2002cd4:	02002ee4 	muli	r8,zero,187
 2002cd8:	02002ecc 	andi	r8,zero,187
 2002cdc:	02002ee4 	muli	r8,zero,187
 2002ce0:	02002d10 	cmplti	r8,zero,180
 2002ce4:	02002ef4 	movhi	r8,187
 2002ce8:	02002ef4 	movhi	r8,187
 2002cec:	02002ef4 	movhi	r8,187
 2002cf0:	02003254 	movui	r8,201
 2002cf4:	2404b03a 	or	r2,r4,r16
 2002cf8:	1000711e 	bne	r2,zero,2002ec0 <__muldf3+0x300>
 2002cfc:	05400204 	movi	r21,8
 2002d00:	0021883a 	mov	r16,zero
 2002d04:	002d883a 	mov	r22,zero
 2002d08:	01400084 	movi	r5,2
 2002d0c:	003fcb06 	br	2002c3c <__alt_mem_epcs_flash_controller+0xfdff9c3c>
 2002d10:	500d883a 	mov	r6,r10
 2002d14:	00800084 	movi	r2,2
 2002d18:	38805926 	beq	r7,r2,2002e80 <__muldf3+0x2c0>
 2002d1c:	008000c4 	movi	r2,3
 2002d20:	3881bb26 	beq	r7,r2,2003410 <__muldf3+0x850>
 2002d24:	00800044 	movi	r2,1
 2002d28:	3881961e 	bne	r7,r2,2003384 <__muldf3+0x7c4>
 2002d2c:	3027883a 	mov	r19,r6
 2002d30:	0005883a 	mov	r2,zero
 2002d34:	0021883a 	mov	r16,zero
 2002d38:	002d883a 	mov	r22,zero
 2002d3c:	1004953a 	slli	r2,r2,20
 2002d40:	98c03fcc 	andi	r3,r19,255
 2002d44:	04400434 	movhi	r17,16
 2002d48:	8c7fffc4 	addi	r17,r17,-1
 2002d4c:	180697fa 	slli	r3,r3,31
 2002d50:	8460703a 	and	r16,r16,r17
 2002d54:	80a0b03a 	or	r16,r16,r2
 2002d58:	80c6b03a 	or	r3,r16,r3
 2002d5c:	b005883a 	mov	r2,r22
 2002d60:	dfc01117 	ldw	ra,68(sp)
 2002d64:	df001017 	ldw	fp,64(sp)
 2002d68:	ddc00f17 	ldw	r23,60(sp)
 2002d6c:	dd800e17 	ldw	r22,56(sp)
 2002d70:	dd400d17 	ldw	r21,52(sp)
 2002d74:	dd000c17 	ldw	r20,48(sp)
 2002d78:	dcc00b17 	ldw	r19,44(sp)
 2002d7c:	dc800a17 	ldw	r18,40(sp)
 2002d80:	dc400917 	ldw	r17,36(sp)
 2002d84:	dc000817 	ldw	r16,32(sp)
 2002d88:	dec01204 	addi	sp,sp,72
 2002d8c:	f800283a 	ret
 2002d90:	2404b03a 	or	r2,r4,r16
 2002d94:	202b883a 	mov	r21,r4
 2002d98:	10004426 	beq	r2,zero,2002eac <__muldf3+0x2ec>
 2002d9c:	80015126 	beq	r16,zero,20032e4 <__muldf3+0x724>
 2002da0:	8009883a 	mov	r4,r16
 2002da4:	d9800715 	stw	r6,28(sp)
 2002da8:	d9c00215 	stw	r7,8(sp)
 2002dac:	da400415 	stw	r9,16(sp)
 2002db0:	20035880 	call	2003588 <__clzsi2>
 2002db4:	d9800717 	ldw	r6,28(sp)
 2002db8:	d9c00217 	ldw	r7,8(sp)
 2002dbc:	da400417 	ldw	r9,16(sp)
 2002dc0:	113ffd44 	addi	r4,r2,-11
 2002dc4:	00c00704 	movi	r3,28
 2002dc8:	19014216 	blt	r3,r4,20032d4 <__muldf3+0x714>
 2002dcc:	00c00744 	movi	r3,29
 2002dd0:	15bffe04 	addi	r22,r2,-8
 2002dd4:	1907c83a 	sub	r3,r3,r4
 2002dd8:	85a0983a 	sll	r16,r16,r22
 2002ddc:	a8c6d83a 	srl	r3,r21,r3
 2002de0:	adac983a 	sll	r22,r21,r22
 2002de4:	1c20b03a 	or	r16,r3,r16
 2002de8:	1080fcc4 	addi	r2,r2,1011
 2002dec:	00a9c83a 	sub	r20,zero,r2
 2002df0:	002b883a 	mov	r21,zero
 2002df4:	000b883a 	mov	r5,zero
 2002df8:	003f9006 	br	2002c3c <__alt_mem_epcs_flash_controller+0xfdff9c3c>
 2002dfc:	3446b03a 	or	r3,r6,r17
 2002e00:	1800281e 	bne	r3,zero,2002ea4 <__muldf3+0x2e4>
 2002e04:	0023883a 	mov	r17,zero
 2002e08:	0025883a 	mov	r18,zero
 2002e0c:	01c00084 	movi	r7,2
 2002e10:	003f9c06 	br	2002c84 <__alt_mem_epcs_flash_controller+0xfdff9c84>
 2002e14:	3446b03a 	or	r3,r6,r17
 2002e18:	18001e26 	beq	r3,zero,2002e94 <__muldf3+0x2d4>
 2002e1c:	88012126 	beq	r17,zero,20032a4 <__muldf3+0x6e4>
 2002e20:	8809883a 	mov	r4,r17
 2002e24:	d9400215 	stw	r5,8(sp)
 2002e28:	d9800715 	stw	r6,28(sp)
 2002e2c:	da400415 	stw	r9,16(sp)
 2002e30:	da800315 	stw	r10,12(sp)
 2002e34:	20035880 	call	2003588 <__clzsi2>
 2002e38:	d9400217 	ldw	r5,8(sp)
 2002e3c:	d9800717 	ldw	r6,28(sp)
 2002e40:	da400417 	ldw	r9,16(sp)
 2002e44:	da800317 	ldw	r10,12(sp)
 2002e48:	113ffd44 	addi	r4,r2,-11
 2002e4c:	00c00704 	movi	r3,28
 2002e50:	19011016 	blt	r3,r4,2003294 <__muldf3+0x6d4>
 2002e54:	00c00744 	movi	r3,29
 2002e58:	14bffe04 	addi	r18,r2,-8
 2002e5c:	1907c83a 	sub	r3,r3,r4
 2002e60:	8ca2983a 	sll	r17,r17,r18
 2002e64:	30c6d83a 	srl	r3,r6,r3
 2002e68:	34a4983a 	sll	r18,r6,r18
 2002e6c:	1c62b03a 	or	r17,r3,r17
 2002e70:	1080fcc4 	addi	r2,r2,1011
 2002e74:	0085c83a 	sub	r2,zero,r2
 2002e78:	000f883a 	mov	r7,zero
 2002e7c:	003f8106 	br	2002c84 <__alt_mem_epcs_flash_controller+0xfdff9c84>
 2002e80:	3027883a 	mov	r19,r6
 2002e84:	0081ffc4 	movi	r2,2047
 2002e88:	0021883a 	mov	r16,zero
 2002e8c:	002d883a 	mov	r22,zero
 2002e90:	003faa06 	br	2002d3c <__alt_mem_epcs_flash_controller+0xfdff9d3c>
 2002e94:	0023883a 	mov	r17,zero
 2002e98:	0025883a 	mov	r18,zero
 2002e9c:	01c00044 	movi	r7,1
 2002ea0:	003f7806 	br	2002c84 <__alt_mem_epcs_flash_controller+0xfdff9c84>
 2002ea4:	01c000c4 	movi	r7,3
 2002ea8:	003f7606 	br	2002c84 <__alt_mem_epcs_flash_controller+0xfdff9c84>
 2002eac:	05400104 	movi	r21,4
 2002eb0:	0021883a 	mov	r16,zero
 2002eb4:	002d883a 	mov	r22,zero
 2002eb8:	01400044 	movi	r5,1
 2002ebc:	003f5f06 	br	2002c3c <__alt_mem_epcs_flash_controller+0xfdff9c3c>
 2002ec0:	05400304 	movi	r21,12
 2002ec4:	014000c4 	movi	r5,3
 2002ec8:	003f5c06 	br	2002c3c <__alt_mem_epcs_flash_controller+0xfdff9c3c>
 2002ecc:	04000434 	movhi	r16,16
 2002ed0:	0027883a 	mov	r19,zero
 2002ed4:	843fffc4 	addi	r16,r16,-1
 2002ed8:	05bfffc4 	movi	r22,-1
 2002edc:	0081ffc4 	movi	r2,2047
 2002ee0:	003f9606 	br	2002d3c <__alt_mem_epcs_flash_controller+0xfdff9d3c>
 2002ee4:	8023883a 	mov	r17,r16
 2002ee8:	b025883a 	mov	r18,r22
 2002eec:	280f883a 	mov	r7,r5
 2002ef0:	003f8806 	br	2002d14 <__alt_mem_epcs_flash_controller+0xfdff9d14>
 2002ef4:	8023883a 	mov	r17,r16
 2002ef8:	b025883a 	mov	r18,r22
 2002efc:	480d883a 	mov	r6,r9
 2002f00:	280f883a 	mov	r7,r5
 2002f04:	003f8306 	br	2002d14 <__alt_mem_epcs_flash_controller+0xfdff9d14>
 2002f08:	b026d43a 	srli	r19,r22,16
 2002f0c:	902ed43a 	srli	r23,r18,16
 2002f10:	b5bfffcc 	andi	r22,r22,65535
 2002f14:	94bfffcc 	andi	r18,r18,65535
 2002f18:	b00b883a 	mov	r5,r22
 2002f1c:	9009883a 	mov	r4,r18
 2002f20:	d8c00515 	stw	r3,20(sp)
 2002f24:	d9800715 	stw	r6,28(sp)
 2002f28:	da000615 	stw	r8,24(sp)
 2002f2c:	20035ec0 	call	20035ec <__mulsi3>
 2002f30:	980b883a 	mov	r5,r19
 2002f34:	9009883a 	mov	r4,r18
 2002f38:	1029883a 	mov	r20,r2
 2002f3c:	20035ec0 	call	20035ec <__mulsi3>
 2002f40:	b80b883a 	mov	r5,r23
 2002f44:	9809883a 	mov	r4,r19
 2002f48:	102b883a 	mov	r21,r2
 2002f4c:	20035ec0 	call	20035ec <__mulsi3>
 2002f50:	b809883a 	mov	r4,r23
 2002f54:	b00b883a 	mov	r5,r22
 2002f58:	1039883a 	mov	fp,r2
 2002f5c:	20035ec0 	call	20035ec <__mulsi3>
 2002f60:	a008d43a 	srli	r4,r20,16
 2002f64:	1545883a 	add	r2,r2,r21
 2002f68:	d8c00517 	ldw	r3,20(sp)
 2002f6c:	2085883a 	add	r2,r4,r2
 2002f70:	d9800717 	ldw	r6,28(sp)
 2002f74:	da000617 	ldw	r8,24(sp)
 2002f78:	1540022e 	bgeu	r2,r21,2002f84 <__muldf3+0x3c4>
 2002f7c:	01000074 	movhi	r4,1
 2002f80:	e139883a 	add	fp,fp,r4
 2002f84:	100e943a 	slli	r7,r2,16
 2002f88:	1004d43a 	srli	r2,r2,16
 2002f8c:	882ad43a 	srli	r21,r17,16
 2002f90:	a53fffcc 	andi	r20,r20,65535
 2002f94:	8c7fffcc 	andi	r17,r17,65535
 2002f98:	3d29883a 	add	r20,r7,r20
 2002f9c:	b00b883a 	mov	r5,r22
 2002fa0:	8809883a 	mov	r4,r17
 2002fa4:	d8c00515 	stw	r3,20(sp)
 2002fa8:	d9800715 	stw	r6,28(sp)
 2002fac:	da000615 	stw	r8,24(sp)
 2002fb0:	dd000115 	stw	r20,4(sp)
 2002fb4:	d8800015 	stw	r2,0(sp)
 2002fb8:	20035ec0 	call	20035ec <__mulsi3>
 2002fbc:	980b883a 	mov	r5,r19
 2002fc0:	8809883a 	mov	r4,r17
 2002fc4:	d8800215 	stw	r2,8(sp)
 2002fc8:	20035ec0 	call	20035ec <__mulsi3>
 2002fcc:	9809883a 	mov	r4,r19
 2002fd0:	a80b883a 	mov	r5,r21
 2002fd4:	1029883a 	mov	r20,r2
 2002fd8:	20035ec0 	call	20035ec <__mulsi3>
 2002fdc:	b00b883a 	mov	r5,r22
 2002fe0:	a809883a 	mov	r4,r21
 2002fe4:	d8800415 	stw	r2,16(sp)
 2002fe8:	20035ec0 	call	20035ec <__mulsi3>
 2002fec:	d9c00217 	ldw	r7,8(sp)
 2002ff0:	1505883a 	add	r2,r2,r20
 2002ff4:	d8c00517 	ldw	r3,20(sp)
 2002ff8:	3826d43a 	srli	r19,r7,16
 2002ffc:	d9800717 	ldw	r6,28(sp)
 2003000:	da000617 	ldw	r8,24(sp)
 2003004:	9885883a 	add	r2,r19,r2
 2003008:	da400417 	ldw	r9,16(sp)
 200300c:	1500022e 	bgeu	r2,r20,2003018 <__muldf3+0x458>
 2003010:	01000074 	movhi	r4,1
 2003014:	4913883a 	add	r9,r9,r4
 2003018:	1028d43a 	srli	r20,r2,16
 200301c:	1004943a 	slli	r2,r2,16
 2003020:	802cd43a 	srli	r22,r16,16
 2003024:	843fffcc 	andi	r16,r16,65535
 2003028:	3cffffcc 	andi	r19,r7,65535
 200302c:	9009883a 	mov	r4,r18
 2003030:	800b883a 	mov	r5,r16
 2003034:	a269883a 	add	r20,r20,r9
 2003038:	d8c00515 	stw	r3,20(sp)
 200303c:	d9800715 	stw	r6,28(sp)
 2003040:	da000615 	stw	r8,24(sp)
 2003044:	14e7883a 	add	r19,r2,r19
 2003048:	20035ec0 	call	20035ec <__mulsi3>
 200304c:	9009883a 	mov	r4,r18
 2003050:	b00b883a 	mov	r5,r22
 2003054:	d8800315 	stw	r2,12(sp)
 2003058:	20035ec0 	call	20035ec <__mulsi3>
 200305c:	b809883a 	mov	r4,r23
 2003060:	b00b883a 	mov	r5,r22
 2003064:	d8800215 	stw	r2,8(sp)
 2003068:	20035ec0 	call	20035ec <__mulsi3>
 200306c:	b80b883a 	mov	r5,r23
 2003070:	8009883a 	mov	r4,r16
 2003074:	d8800415 	stw	r2,16(sp)
 2003078:	20035ec0 	call	20035ec <__mulsi3>
 200307c:	da800317 	ldw	r10,12(sp)
 2003080:	d9c00217 	ldw	r7,8(sp)
 2003084:	d9000017 	ldw	r4,0(sp)
 2003088:	502ed43a 	srli	r23,r10,16
 200308c:	11c5883a 	add	r2,r2,r7
 2003090:	24e5883a 	add	r18,r4,r19
 2003094:	b885883a 	add	r2,r23,r2
 2003098:	d8c00517 	ldw	r3,20(sp)
 200309c:	d9800717 	ldw	r6,28(sp)
 20030a0:	da000617 	ldw	r8,24(sp)
 20030a4:	da400417 	ldw	r9,16(sp)
 20030a8:	11c0022e 	bgeu	r2,r7,20030b4 <__muldf3+0x4f4>
 20030ac:	01000074 	movhi	r4,1
 20030b0:	4913883a 	add	r9,r9,r4
 20030b4:	100ed43a 	srli	r7,r2,16
 20030b8:	1004943a 	slli	r2,r2,16
 20030bc:	55ffffcc 	andi	r23,r10,65535
 20030c0:	3a53883a 	add	r9,r7,r9
 20030c4:	8809883a 	mov	r4,r17
 20030c8:	800b883a 	mov	r5,r16
 20030cc:	d8c00515 	stw	r3,20(sp)
 20030d0:	d9800715 	stw	r6,28(sp)
 20030d4:	da000615 	stw	r8,24(sp)
 20030d8:	da400415 	stw	r9,16(sp)
 20030dc:	15ef883a 	add	r23,r2,r23
 20030e0:	20035ec0 	call	20035ec <__mulsi3>
 20030e4:	8809883a 	mov	r4,r17
 20030e8:	b00b883a 	mov	r5,r22
 20030ec:	d8800215 	stw	r2,8(sp)
 20030f0:	20035ec0 	call	20035ec <__mulsi3>
 20030f4:	b00b883a 	mov	r5,r22
 20030f8:	a809883a 	mov	r4,r21
 20030fc:	d8800315 	stw	r2,12(sp)
 2003100:	20035ec0 	call	20035ec <__mulsi3>
 2003104:	8009883a 	mov	r4,r16
 2003108:	a80b883a 	mov	r5,r21
 200310c:	1023883a 	mov	r17,r2
 2003110:	20035ec0 	call	20035ec <__mulsi3>
 2003114:	d9c00217 	ldw	r7,8(sp)
 2003118:	da800317 	ldw	r10,12(sp)
 200311c:	d8c00517 	ldw	r3,20(sp)
 2003120:	3808d43a 	srli	r4,r7,16
 2003124:	1285883a 	add	r2,r2,r10
 2003128:	d9800717 	ldw	r6,28(sp)
 200312c:	2085883a 	add	r2,r4,r2
 2003130:	da000617 	ldw	r8,24(sp)
 2003134:	da400417 	ldw	r9,16(sp)
 2003138:	1280022e 	bgeu	r2,r10,2003144 <__muldf3+0x584>
 200313c:	01000074 	movhi	r4,1
 2003140:	8923883a 	add	r17,r17,r4
 2003144:	1008943a 	slli	r4,r2,16
 2003148:	39ffffcc 	andi	r7,r7,65535
 200314c:	e4b9883a 	add	fp,fp,r18
 2003150:	21cf883a 	add	r7,r4,r7
 2003154:	e4e7803a 	cmpltu	r19,fp,r19
 2003158:	3d0f883a 	add	r7,r7,r20
 200315c:	bf39883a 	add	fp,r23,fp
 2003160:	99c9883a 	add	r4,r19,r7
 2003164:	e5ef803a 	cmpltu	r23,fp,r23
 2003168:	490b883a 	add	r5,r9,r4
 200316c:	1004d43a 	srli	r2,r2,16
 2003170:	b965883a 	add	r18,r23,r5
 2003174:	24c9803a 	cmpltu	r4,r4,r19
 2003178:	3d29803a 	cmpltu	r20,r7,r20
 200317c:	a128b03a 	or	r20,r20,r4
 2003180:	95ef803a 	cmpltu	r23,r18,r23
 2003184:	2a53803a 	cmpltu	r9,r5,r9
 2003188:	a0a9883a 	add	r20,r20,r2
 200318c:	4deeb03a 	or	r23,r9,r23
 2003190:	a5ef883a 	add	r23,r20,r23
 2003194:	bc63883a 	add	r17,r23,r17
 2003198:	e004927a 	slli	r2,fp,9
 200319c:	d9000117 	ldw	r4,4(sp)
 20031a0:	882e927a 	slli	r23,r17,9
 20031a4:	9022d5fa 	srli	r17,r18,23
 20031a8:	e038d5fa 	srli	fp,fp,23
 20031ac:	1104b03a 	or	r2,r2,r4
 20031b0:	9024927a 	slli	r18,r18,9
 20031b4:	1004c03a 	cmpne	r2,r2,zero
 20031b8:	bc62b03a 	or	r17,r23,r17
 20031bc:	1738b03a 	or	fp,r2,fp
 20031c0:	8880402c 	andhi	r2,r17,256
 20031c4:	e4a4b03a 	or	r18,fp,r18
 20031c8:	10000726 	beq	r2,zero,20031e8 <__muldf3+0x628>
 20031cc:	9006d07a 	srli	r3,r18,1
 20031d0:	880497fa 	slli	r2,r17,31
 20031d4:	9480004c 	andi	r18,r18,1
 20031d8:	8822d07a 	srli	r17,r17,1
 20031dc:	1ca4b03a 	or	r18,r3,r18
 20031e0:	14a4b03a 	or	r18,r2,r18
 20031e4:	4007883a 	mov	r3,r8
 20031e8:	1880ffc4 	addi	r2,r3,1023
 20031ec:	0080460e 	bge	zero,r2,2003308 <__muldf3+0x748>
 20031f0:	910001cc 	andi	r4,r18,7
 20031f4:	20000726 	beq	r4,zero,2003214 <__muldf3+0x654>
 20031f8:	910003cc 	andi	r4,r18,15
 20031fc:	01400104 	movi	r5,4
 2003200:	21400426 	beq	r4,r5,2003214 <__muldf3+0x654>
 2003204:	9149883a 	add	r4,r18,r5
 2003208:	24a5803a 	cmpltu	r18,r4,r18
 200320c:	8ca3883a 	add	r17,r17,r18
 2003210:	2025883a 	mov	r18,r4
 2003214:	8900402c 	andhi	r4,r17,256
 2003218:	20000426 	beq	r4,zero,200322c <__muldf3+0x66c>
 200321c:	18810004 	addi	r2,r3,1024
 2003220:	00ffc034 	movhi	r3,65280
 2003224:	18ffffc4 	addi	r3,r3,-1
 2003228:	88e2703a 	and	r17,r17,r3
 200322c:	00c1ff84 	movi	r3,2046
 2003230:	18bf1316 	blt	r3,r2,2002e80 <__alt_mem_epcs_flash_controller+0xfdff9e80>
 2003234:	882c977a 	slli	r22,r17,29
 2003238:	9024d0fa 	srli	r18,r18,3
 200323c:	8822927a 	slli	r17,r17,9
 2003240:	1081ffcc 	andi	r2,r2,2047
 2003244:	b4acb03a 	or	r22,r22,r18
 2003248:	8820d33a 	srli	r16,r17,12
 200324c:	3027883a 	mov	r19,r6
 2003250:	003eba06 	br	2002d3c <__alt_mem_epcs_flash_controller+0xfdff9d3c>
 2003254:	8080022c 	andhi	r2,r16,8
 2003258:	10000926 	beq	r2,zero,2003280 <__muldf3+0x6c0>
 200325c:	8880022c 	andhi	r2,r17,8
 2003260:	1000071e 	bne	r2,zero,2003280 <__muldf3+0x6c0>
 2003264:	00800434 	movhi	r2,16
 2003268:	8c000234 	orhi	r16,r17,8
 200326c:	10bfffc4 	addi	r2,r2,-1
 2003270:	e027883a 	mov	r19,fp
 2003274:	80a0703a 	and	r16,r16,r2
 2003278:	902d883a 	mov	r22,r18
 200327c:	003f1706 	br	2002edc <__alt_mem_epcs_flash_controller+0xfdff9edc>
 2003280:	00800434 	movhi	r2,16
 2003284:	84000234 	orhi	r16,r16,8
 2003288:	10bfffc4 	addi	r2,r2,-1
 200328c:	80a0703a 	and	r16,r16,r2
 2003290:	003f1206 	br	2002edc <__alt_mem_epcs_flash_controller+0xfdff9edc>
 2003294:	147ff604 	addi	r17,r2,-40
 2003298:	3462983a 	sll	r17,r6,r17
 200329c:	0025883a 	mov	r18,zero
 20032a0:	003ef306 	br	2002e70 <__alt_mem_epcs_flash_controller+0xfdff9e70>
 20032a4:	3009883a 	mov	r4,r6
 20032a8:	d9400215 	stw	r5,8(sp)
 20032ac:	d9800715 	stw	r6,28(sp)
 20032b0:	da400415 	stw	r9,16(sp)
 20032b4:	da800315 	stw	r10,12(sp)
 20032b8:	20035880 	call	2003588 <__clzsi2>
 20032bc:	10800804 	addi	r2,r2,32
 20032c0:	da800317 	ldw	r10,12(sp)
 20032c4:	da400417 	ldw	r9,16(sp)
 20032c8:	d9800717 	ldw	r6,28(sp)
 20032cc:	d9400217 	ldw	r5,8(sp)
 20032d0:	003edd06 	br	2002e48 <__alt_mem_epcs_flash_controller+0xfdff9e48>
 20032d4:	143ff604 	addi	r16,r2,-40
 20032d8:	ac20983a 	sll	r16,r21,r16
 20032dc:	002d883a 	mov	r22,zero
 20032e0:	003ec106 	br	2002de8 <__alt_mem_epcs_flash_controller+0xfdff9de8>
 20032e4:	d9800715 	stw	r6,28(sp)
 20032e8:	d9c00215 	stw	r7,8(sp)
 20032ec:	da400415 	stw	r9,16(sp)
 20032f0:	20035880 	call	2003588 <__clzsi2>
 20032f4:	10800804 	addi	r2,r2,32
 20032f8:	da400417 	ldw	r9,16(sp)
 20032fc:	d9c00217 	ldw	r7,8(sp)
 2003300:	d9800717 	ldw	r6,28(sp)
 2003304:	003eae06 	br	2002dc0 <__alt_mem_epcs_flash_controller+0xfdff9dc0>
 2003308:	00c00044 	movi	r3,1
 200330c:	1887c83a 	sub	r3,r3,r2
 2003310:	01000e04 	movi	r4,56
 2003314:	20fe8516 	blt	r4,r3,2002d2c <__alt_mem_epcs_flash_controller+0xfdff9d2c>
 2003318:	010007c4 	movi	r4,31
 200331c:	20c01b16 	blt	r4,r3,200338c <__muldf3+0x7cc>
 2003320:	00800804 	movi	r2,32
 2003324:	10c5c83a 	sub	r2,r2,r3
 2003328:	888a983a 	sll	r5,r17,r2
 200332c:	90c8d83a 	srl	r4,r18,r3
 2003330:	9084983a 	sll	r2,r18,r2
 2003334:	88e2d83a 	srl	r17,r17,r3
 2003338:	2906b03a 	or	r3,r5,r4
 200333c:	1004c03a 	cmpne	r2,r2,zero
 2003340:	1886b03a 	or	r3,r3,r2
 2003344:	188001cc 	andi	r2,r3,7
 2003348:	10000726 	beq	r2,zero,2003368 <__muldf3+0x7a8>
 200334c:	188003cc 	andi	r2,r3,15
 2003350:	01000104 	movi	r4,4
 2003354:	11000426 	beq	r2,r4,2003368 <__muldf3+0x7a8>
 2003358:	1805883a 	mov	r2,r3
 200335c:	10c00104 	addi	r3,r2,4
 2003360:	1885803a 	cmpltu	r2,r3,r2
 2003364:	88a3883a 	add	r17,r17,r2
 2003368:	8880202c 	andhi	r2,r17,128
 200336c:	10001c26 	beq	r2,zero,20033e0 <__muldf3+0x820>
 2003370:	3027883a 	mov	r19,r6
 2003374:	00800044 	movi	r2,1
 2003378:	0021883a 	mov	r16,zero
 200337c:	002d883a 	mov	r22,zero
 2003380:	003e6e06 	br	2002d3c <__alt_mem_epcs_flash_controller+0xfdff9d3c>
 2003384:	4007883a 	mov	r3,r8
 2003388:	003f9706 	br	20031e8 <__alt_mem_epcs_flash_controller+0xfdffa1e8>
 200338c:	017ff844 	movi	r5,-31
 2003390:	2885c83a 	sub	r2,r5,r2
 2003394:	888ad83a 	srl	r5,r17,r2
 2003398:	00800804 	movi	r2,32
 200339c:	18801a26 	beq	r3,r2,2003408 <__muldf3+0x848>
 20033a0:	01001004 	movi	r4,64
 20033a4:	20c7c83a 	sub	r3,r4,r3
 20033a8:	88e2983a 	sll	r17,r17,r3
 20033ac:	8ca4b03a 	or	r18,r17,r18
 20033b0:	9004c03a 	cmpne	r2,r18,zero
 20033b4:	2884b03a 	or	r2,r5,r2
 20033b8:	144001cc 	andi	r17,r2,7
 20033bc:	88000d1e 	bne	r17,zero,20033f4 <__muldf3+0x834>
 20033c0:	0021883a 	mov	r16,zero
 20033c4:	102cd0fa 	srli	r22,r2,3
 20033c8:	3027883a 	mov	r19,r6
 20033cc:	0005883a 	mov	r2,zero
 20033d0:	b46cb03a 	or	r22,r22,r17
 20033d4:	003e5906 	br	2002d3c <__alt_mem_epcs_flash_controller+0xfdff9d3c>
 20033d8:	1007883a 	mov	r3,r2
 20033dc:	0023883a 	mov	r17,zero
 20033e0:	8820927a 	slli	r16,r17,9
 20033e4:	1805883a 	mov	r2,r3
 20033e8:	8822977a 	slli	r17,r17,29
 20033ec:	8020d33a 	srli	r16,r16,12
 20033f0:	003ff406 	br	20033c4 <__alt_mem_epcs_flash_controller+0xfdffa3c4>
 20033f4:	10c003cc 	andi	r3,r2,15
 20033f8:	01000104 	movi	r4,4
 20033fc:	193ff626 	beq	r3,r4,20033d8 <__alt_mem_epcs_flash_controller+0xfdffa3d8>
 2003400:	0023883a 	mov	r17,zero
 2003404:	003fd506 	br	200335c <__alt_mem_epcs_flash_controller+0xfdffa35c>
 2003408:	0023883a 	mov	r17,zero
 200340c:	003fe706 	br	20033ac <__alt_mem_epcs_flash_controller+0xfdffa3ac>
 2003410:	00800434 	movhi	r2,16
 2003414:	8c000234 	orhi	r16,r17,8
 2003418:	10bfffc4 	addi	r2,r2,-1
 200341c:	3027883a 	mov	r19,r6
 2003420:	80a0703a 	and	r16,r16,r2
 2003424:	902d883a 	mov	r22,r18
 2003428:	003eac06 	br	2002edc <__alt_mem_epcs_flash_controller+0xfdff9edc>

0200342c <__fixdfsi>:
 200342c:	280cd53a 	srli	r6,r5,20
 2003430:	00c00434 	movhi	r3,16
 2003434:	18ffffc4 	addi	r3,r3,-1
 2003438:	3181ffcc 	andi	r6,r6,2047
 200343c:	01c0ff84 	movi	r7,1022
 2003440:	28c6703a 	and	r3,r5,r3
 2003444:	280ad7fa 	srli	r5,r5,31
 2003448:	3980120e 	bge	r7,r6,2003494 <__fixdfsi+0x68>
 200344c:	00810744 	movi	r2,1053
 2003450:	11800c16 	blt	r2,r6,2003484 <__fixdfsi+0x58>
 2003454:	00810cc4 	movi	r2,1075
 2003458:	1185c83a 	sub	r2,r2,r6
 200345c:	01c007c4 	movi	r7,31
 2003460:	18c00434 	orhi	r3,r3,16
 2003464:	38800d16 	blt	r7,r2,200349c <__fixdfsi+0x70>
 2003468:	31befb44 	addi	r6,r6,-1043
 200346c:	2084d83a 	srl	r2,r4,r2
 2003470:	1986983a 	sll	r3,r3,r6
 2003474:	1884b03a 	or	r2,r3,r2
 2003478:	28000726 	beq	r5,zero,2003498 <__fixdfsi+0x6c>
 200347c:	0085c83a 	sub	r2,zero,r2
 2003480:	f800283a 	ret
 2003484:	00a00034 	movhi	r2,32768
 2003488:	10bfffc4 	addi	r2,r2,-1
 200348c:	2885883a 	add	r2,r5,r2
 2003490:	f800283a 	ret
 2003494:	0005883a 	mov	r2,zero
 2003498:	f800283a 	ret
 200349c:	008104c4 	movi	r2,1043
 20034a0:	1185c83a 	sub	r2,r2,r6
 20034a4:	1884d83a 	srl	r2,r3,r2
 20034a8:	003ff306 	br	2003478 <__alt_mem_epcs_flash_controller+0xfdffa478>

020034ac <__floatsidf>:
 20034ac:	defffd04 	addi	sp,sp,-12
 20034b0:	dfc00215 	stw	ra,8(sp)
 20034b4:	dc400115 	stw	r17,4(sp)
 20034b8:	dc000015 	stw	r16,0(sp)
 20034bc:	20002b26 	beq	r4,zero,200356c <__floatsidf+0xc0>
 20034c0:	2023883a 	mov	r17,r4
 20034c4:	2020d7fa 	srli	r16,r4,31
 20034c8:	20002d16 	blt	r4,zero,2003580 <__floatsidf+0xd4>
 20034cc:	8809883a 	mov	r4,r17
 20034d0:	20035880 	call	2003588 <__clzsi2>
 20034d4:	01410784 	movi	r5,1054
 20034d8:	288bc83a 	sub	r5,r5,r2
 20034dc:	01010cc4 	movi	r4,1075
 20034e0:	2149c83a 	sub	r4,r4,r5
 20034e4:	00c007c4 	movi	r3,31
 20034e8:	1900160e 	bge	r3,r4,2003544 <__floatsidf+0x98>
 20034ec:	00c104c4 	movi	r3,1043
 20034f0:	1947c83a 	sub	r3,r3,r5
 20034f4:	88c6983a 	sll	r3,r17,r3
 20034f8:	00800434 	movhi	r2,16
 20034fc:	10bfffc4 	addi	r2,r2,-1
 2003500:	1886703a 	and	r3,r3,r2
 2003504:	2941ffcc 	andi	r5,r5,2047
 2003508:	800d883a 	mov	r6,r16
 200350c:	0005883a 	mov	r2,zero
 2003510:	280a953a 	slli	r5,r5,20
 2003514:	31803fcc 	andi	r6,r6,255
 2003518:	01000434 	movhi	r4,16
 200351c:	300c97fa 	slli	r6,r6,31
 2003520:	213fffc4 	addi	r4,r4,-1
 2003524:	1906703a 	and	r3,r3,r4
 2003528:	1946b03a 	or	r3,r3,r5
 200352c:	1986b03a 	or	r3,r3,r6
 2003530:	dfc00217 	ldw	ra,8(sp)
 2003534:	dc400117 	ldw	r17,4(sp)
 2003538:	dc000017 	ldw	r16,0(sp)
 200353c:	dec00304 	addi	sp,sp,12
 2003540:	f800283a 	ret
 2003544:	00c002c4 	movi	r3,11
 2003548:	1887c83a 	sub	r3,r3,r2
 200354c:	88c6d83a 	srl	r3,r17,r3
 2003550:	8904983a 	sll	r2,r17,r4
 2003554:	01000434 	movhi	r4,16
 2003558:	213fffc4 	addi	r4,r4,-1
 200355c:	2941ffcc 	andi	r5,r5,2047
 2003560:	1906703a 	and	r3,r3,r4
 2003564:	800d883a 	mov	r6,r16
 2003568:	003fe906 	br	2003510 <__alt_mem_epcs_flash_controller+0xfdffa510>
 200356c:	000d883a 	mov	r6,zero
 2003570:	000b883a 	mov	r5,zero
 2003574:	0007883a 	mov	r3,zero
 2003578:	0005883a 	mov	r2,zero
 200357c:	003fe406 	br	2003510 <__alt_mem_epcs_flash_controller+0xfdffa510>
 2003580:	0123c83a 	sub	r17,zero,r4
 2003584:	003fd106 	br	20034cc <__alt_mem_epcs_flash_controller+0xfdffa4cc>

02003588 <__clzsi2>:
 2003588:	00bfffd4 	movui	r2,65535
 200358c:	11000536 	bltu	r2,r4,20035a4 <__clzsi2+0x1c>
 2003590:	00803fc4 	movi	r2,255
 2003594:	11000f36 	bltu	r2,r4,20035d4 <__clzsi2+0x4c>
 2003598:	00800804 	movi	r2,32
 200359c:	0007883a 	mov	r3,zero
 20035a0:	00000506 	br	20035b8 <__clzsi2+0x30>
 20035a4:	00804034 	movhi	r2,256
 20035a8:	10bfffc4 	addi	r2,r2,-1
 20035ac:	11000c2e 	bgeu	r2,r4,20035e0 <__clzsi2+0x58>
 20035b0:	00800204 	movi	r2,8
 20035b4:	00c00604 	movi	r3,24
 20035b8:	20c8d83a 	srl	r4,r4,r3
 20035bc:	00c08234 	movhi	r3,520
 20035c0:	18f61f84 	addi	r3,r3,-10114
 20035c4:	1909883a 	add	r4,r3,r4
 20035c8:	20c00003 	ldbu	r3,0(r4)
 20035cc:	10c5c83a 	sub	r2,r2,r3
 20035d0:	f800283a 	ret
 20035d4:	00800604 	movi	r2,24
 20035d8:	00c00204 	movi	r3,8
 20035dc:	003ff606 	br	20035b8 <__alt_mem_epcs_flash_controller+0xfdffa5b8>
 20035e0:	00800404 	movi	r2,16
 20035e4:	1007883a 	mov	r3,r2
 20035e8:	003ff306 	br	20035b8 <__alt_mem_epcs_flash_controller+0xfdffa5b8>

020035ec <__mulsi3>:
 20035ec:	0005883a 	mov	r2,zero
 20035f0:	20000726 	beq	r4,zero,2003610 <__mulsi3+0x24>
 20035f4:	20c0004c 	andi	r3,r4,1
 20035f8:	2008d07a 	srli	r4,r4,1
 20035fc:	18000126 	beq	r3,zero,2003604 <__mulsi3+0x18>
 2003600:	1145883a 	add	r2,r2,r5
 2003604:	294b883a 	add	r5,r5,r5
 2003608:	203ffa1e 	bne	r4,zero,20035f4 <__alt_mem_epcs_flash_controller+0xfdffa5f4>
 200360c:	f800283a 	ret
 2003610:	f800283a 	ret

02003614 <_getc_r>:
 2003614:	defffd04 	addi	sp,sp,-12
 2003618:	dc000115 	stw	r16,4(sp)
 200361c:	dfc00215 	stw	ra,8(sp)
 2003620:	2021883a 	mov	r16,r4
 2003624:	20000226 	beq	r4,zero,2003630 <_getc_r+0x1c>
 2003628:	20800e17 	ldw	r2,56(r4)
 200362c:	10000c26 	beq	r2,zero,2003660 <_getc_r+0x4c>
 2003630:	28800117 	ldw	r2,4(r5)
 2003634:	10bfffc4 	addi	r2,r2,-1
 2003638:	28800115 	stw	r2,4(r5)
 200363c:	10000c16 	blt	r2,zero,2003670 <_getc_r+0x5c>
 2003640:	28800017 	ldw	r2,0(r5)
 2003644:	10c00044 	addi	r3,r2,1
 2003648:	28c00015 	stw	r3,0(r5)
 200364c:	10800003 	ldbu	r2,0(r2)
 2003650:	dfc00217 	ldw	ra,8(sp)
 2003654:	dc000117 	ldw	r16,4(sp)
 2003658:	dec00304 	addi	sp,sp,12
 200365c:	f800283a 	ret
 2003660:	d9400015 	stw	r5,0(sp)
 2003664:	2003c800 	call	2003c80 <__sinit>
 2003668:	d9400017 	ldw	r5,0(sp)
 200366c:	003ff006 	br	2003630 <__alt_mem_epcs_flash_controller+0xfdffa630>
 2003670:	8009883a 	mov	r4,r16
 2003674:	dfc00217 	ldw	ra,8(sp)
 2003678:	dc000117 	ldw	r16,4(sp)
 200367c:	dec00304 	addi	sp,sp,12
 2003680:	20038001 	jmpi	2003800 <__srget_r>

02003684 <getc>:
 2003684:	00808234 	movhi	r2,520
 2003688:	defffd04 	addi	sp,sp,-12
 200368c:	10bd8c04 	addi	r2,r2,-2512
 2003690:	dc400115 	stw	r17,4(sp)
 2003694:	14400017 	ldw	r17,0(r2)
 2003698:	dc000015 	stw	r16,0(sp)
 200369c:	dfc00215 	stw	ra,8(sp)
 20036a0:	2021883a 	mov	r16,r4
 20036a4:	88000226 	beq	r17,zero,20036b0 <getc+0x2c>
 20036a8:	88800e17 	ldw	r2,56(r17)
 20036ac:	10000d26 	beq	r2,zero,20036e4 <getc+0x60>
 20036b0:	80800117 	ldw	r2,4(r16)
 20036b4:	10bfffc4 	addi	r2,r2,-1
 20036b8:	80800115 	stw	r2,4(r16)
 20036bc:	10000c16 	blt	r2,zero,20036f0 <getc+0x6c>
 20036c0:	80800017 	ldw	r2,0(r16)
 20036c4:	10c00044 	addi	r3,r2,1
 20036c8:	80c00015 	stw	r3,0(r16)
 20036cc:	10800003 	ldbu	r2,0(r2)
 20036d0:	dfc00217 	ldw	ra,8(sp)
 20036d4:	dc400117 	ldw	r17,4(sp)
 20036d8:	dc000017 	ldw	r16,0(sp)
 20036dc:	dec00304 	addi	sp,sp,12
 20036e0:	f800283a 	ret
 20036e4:	8809883a 	mov	r4,r17
 20036e8:	2003c800 	call	2003c80 <__sinit>
 20036ec:	003ff006 	br	20036b0 <__alt_mem_epcs_flash_controller+0xfdffa6b0>
 20036f0:	800b883a 	mov	r5,r16
 20036f4:	8809883a 	mov	r4,r17
 20036f8:	dfc00217 	ldw	ra,8(sp)
 20036fc:	dc400117 	ldw	r17,4(sp)
 2003700:	dc000017 	ldw	r16,0(sp)
 2003704:	dec00304 	addi	sp,sp,12
 2003708:	20038001 	jmpi	2003800 <__srget_r>

0200370c <_putchar_r>:
 200370c:	21800217 	ldw	r6,8(r4)
 2003710:	2004fdc1 	jmpi	2004fdc <_putc_r>

02003714 <putchar>:
 2003714:	00808234 	movhi	r2,520
 2003718:	10bd8c04 	addi	r2,r2,-2512
 200371c:	200b883a 	mov	r5,r4
 2003720:	11000017 	ldw	r4,0(r2)
 2003724:	21800217 	ldw	r6,8(r4)
 2003728:	2004fdc1 	jmpi	2004fdc <_putc_r>

0200372c <_puts_r>:
 200372c:	defff604 	addi	sp,sp,-40
 2003730:	dc000715 	stw	r16,28(sp)
 2003734:	2021883a 	mov	r16,r4
 2003738:	2809883a 	mov	r4,r5
 200373c:	dc400815 	stw	r17,32(sp)
 2003740:	dfc00915 	stw	ra,36(sp)
 2003744:	2823883a 	mov	r17,r5
 2003748:	20038880 	call	2003888 <strlen>
 200374c:	10c00044 	addi	r3,r2,1
 2003750:	d8800115 	stw	r2,4(sp)
 2003754:	00808234 	movhi	r2,520
 2003758:	10b66104 	addi	r2,r2,-9852
 200375c:	d8800215 	stw	r2,8(sp)
 2003760:	00800044 	movi	r2,1
 2003764:	d8800315 	stw	r2,12(sp)
 2003768:	00800084 	movi	r2,2
 200376c:	dc400015 	stw	r17,0(sp)
 2003770:	d8c00615 	stw	r3,24(sp)
 2003774:	dec00415 	stw	sp,16(sp)
 2003778:	d8800515 	stw	r2,20(sp)
 200377c:	80000226 	beq	r16,zero,2003788 <_puts_r+0x5c>
 2003780:	80800e17 	ldw	r2,56(r16)
 2003784:	10001426 	beq	r2,zero,20037d8 <_puts_r+0xac>
 2003788:	81400217 	ldw	r5,8(r16)
 200378c:	2880030b 	ldhu	r2,12(r5)
 2003790:	10c8000c 	andi	r3,r2,8192
 2003794:	1800061e 	bne	r3,zero,20037b0 <_puts_r+0x84>
 2003798:	29001917 	ldw	r4,100(r5)
 200379c:	00f7ffc4 	movi	r3,-8193
 20037a0:	10880014 	ori	r2,r2,8192
 20037a4:	20c6703a 	and	r3,r4,r3
 20037a8:	2880030d 	sth	r2,12(r5)
 20037ac:	28c01915 	stw	r3,100(r5)
 20037b0:	d9800404 	addi	r6,sp,16
 20037b4:	8009883a 	mov	r4,r16
 20037b8:	2003cd00 	call	2003cd0 <__sfvwrite_r>
 20037bc:	1000091e 	bne	r2,zero,20037e4 <_puts_r+0xb8>
 20037c0:	00800284 	movi	r2,10
 20037c4:	dfc00917 	ldw	ra,36(sp)
 20037c8:	dc400817 	ldw	r17,32(sp)
 20037cc:	dc000717 	ldw	r16,28(sp)
 20037d0:	dec00a04 	addi	sp,sp,40
 20037d4:	f800283a 	ret
 20037d8:	8009883a 	mov	r4,r16
 20037dc:	2003c800 	call	2003c80 <__sinit>
 20037e0:	003fe906 	br	2003788 <__alt_mem_epcs_flash_controller+0xfdffa788>
 20037e4:	00bfffc4 	movi	r2,-1
 20037e8:	003ff606 	br	20037c4 <__alt_mem_epcs_flash_controller+0xfdffa7c4>

020037ec <puts>:
 20037ec:	00808234 	movhi	r2,520
 20037f0:	10bd8c04 	addi	r2,r2,-2512
 20037f4:	200b883a 	mov	r5,r4
 20037f8:	11000017 	ldw	r4,0(r2)
 20037fc:	200372c1 	jmpi	200372c <_puts_r>

02003800 <__srget_r>:
 2003800:	defffd04 	addi	sp,sp,-12
 2003804:	dc400115 	stw	r17,4(sp)
 2003808:	dc000015 	stw	r16,0(sp)
 200380c:	dfc00215 	stw	ra,8(sp)
 2003810:	2023883a 	mov	r17,r4
 2003814:	2821883a 	mov	r16,r5
 2003818:	20000226 	beq	r4,zero,2003824 <__srget_r+0x24>
 200381c:	20800e17 	ldw	r2,56(r4)
 2003820:	10001026 	beq	r2,zero,2003864 <__srget_r+0x64>
 2003824:	800b883a 	mov	r5,r16
 2003828:	8809883a 	mov	r4,r17
 200382c:	20056c40 	call	20056c4 <__srefill_r>
 2003830:	10000e1e 	bne	r2,zero,200386c <__srget_r+0x6c>
 2003834:	80c00017 	ldw	r3,0(r16)
 2003838:	80800117 	ldw	r2,4(r16)
 200383c:	19000044 	addi	r4,r3,1
 2003840:	10bfffc4 	addi	r2,r2,-1
 2003844:	80800115 	stw	r2,4(r16)
 2003848:	81000015 	stw	r4,0(r16)
 200384c:	18800003 	ldbu	r2,0(r3)
 2003850:	dfc00217 	ldw	ra,8(sp)
 2003854:	dc400117 	ldw	r17,4(sp)
 2003858:	dc000017 	ldw	r16,0(sp)
 200385c:	dec00304 	addi	sp,sp,12
 2003860:	f800283a 	ret
 2003864:	2003c800 	call	2003c80 <__sinit>
 2003868:	003fee06 	br	2003824 <__alt_mem_epcs_flash_controller+0xfdffa824>
 200386c:	00bfffc4 	movi	r2,-1
 2003870:	003ff706 	br	2003850 <__alt_mem_epcs_flash_controller+0xfdffa850>

02003874 <__srget>:
 2003874:	00808234 	movhi	r2,520
 2003878:	10bd8c04 	addi	r2,r2,-2512
 200387c:	200b883a 	mov	r5,r4
 2003880:	11000017 	ldw	r4,0(r2)
 2003884:	20038001 	jmpi	2003800 <__srget_r>

02003888 <strlen>:
 2003888:	208000cc 	andi	r2,r4,3
 200388c:	10002026 	beq	r2,zero,2003910 <strlen+0x88>
 2003890:	20800007 	ldb	r2,0(r4)
 2003894:	10002026 	beq	r2,zero,2003918 <strlen+0x90>
 2003898:	2005883a 	mov	r2,r4
 200389c:	00000206 	br	20038a8 <strlen+0x20>
 20038a0:	10c00007 	ldb	r3,0(r2)
 20038a4:	18001826 	beq	r3,zero,2003908 <strlen+0x80>
 20038a8:	10800044 	addi	r2,r2,1
 20038ac:	10c000cc 	andi	r3,r2,3
 20038b0:	183ffb1e 	bne	r3,zero,20038a0 <__alt_mem_epcs_flash_controller+0xfdffa8a0>
 20038b4:	10c00017 	ldw	r3,0(r2)
 20038b8:	01ffbff4 	movhi	r7,65279
 20038bc:	39ffbfc4 	addi	r7,r7,-257
 20038c0:	00ca303a 	nor	r5,zero,r3
 20038c4:	01a02074 	movhi	r6,32897
 20038c8:	19c7883a 	add	r3,r3,r7
 20038cc:	31a02004 	addi	r6,r6,-32640
 20038d0:	1946703a 	and	r3,r3,r5
 20038d4:	1986703a 	and	r3,r3,r6
 20038d8:	1800091e 	bne	r3,zero,2003900 <strlen+0x78>
 20038dc:	10800104 	addi	r2,r2,4
 20038e0:	10c00017 	ldw	r3,0(r2)
 20038e4:	19cb883a 	add	r5,r3,r7
 20038e8:	00c6303a 	nor	r3,zero,r3
 20038ec:	28c6703a 	and	r3,r5,r3
 20038f0:	1986703a 	and	r3,r3,r6
 20038f4:	183ff926 	beq	r3,zero,20038dc <__alt_mem_epcs_flash_controller+0xfdffa8dc>
 20038f8:	00000106 	br	2003900 <strlen+0x78>
 20038fc:	10800044 	addi	r2,r2,1
 2003900:	10c00007 	ldb	r3,0(r2)
 2003904:	183ffd1e 	bne	r3,zero,20038fc <__alt_mem_epcs_flash_controller+0xfdffa8fc>
 2003908:	1105c83a 	sub	r2,r2,r4
 200390c:	f800283a 	ret
 2003910:	2005883a 	mov	r2,r4
 2003914:	003fe706 	br	20038b4 <__alt_mem_epcs_flash_controller+0xfdffa8b4>
 2003918:	0005883a 	mov	r2,zero
 200391c:	f800283a 	ret

02003920 <__fp_unlock>:
 2003920:	0005883a 	mov	r2,zero
 2003924:	f800283a 	ret

02003928 <_cleanup_r>:
 2003928:	01408034 	movhi	r5,512
 200392c:	29576204 	addi	r5,r5,23944
 2003930:	200425c1 	jmpi	200425c <_fwalk_reent>

02003934 <__sinit.part.1>:
 2003934:	defff704 	addi	sp,sp,-36
 2003938:	00c08034 	movhi	r3,512
 200393c:	dfc00815 	stw	ra,32(sp)
 2003940:	ddc00715 	stw	r23,28(sp)
 2003944:	dd800615 	stw	r22,24(sp)
 2003948:	dd400515 	stw	r21,20(sp)
 200394c:	dd000415 	stw	r20,16(sp)
 2003950:	dcc00315 	stw	r19,12(sp)
 2003954:	dc800215 	stw	r18,8(sp)
 2003958:	dc400115 	stw	r17,4(sp)
 200395c:	dc000015 	stw	r16,0(sp)
 2003960:	18ce4a04 	addi	r3,r3,14632
 2003964:	24000117 	ldw	r16,4(r4)
 2003968:	20c00f15 	stw	r3,60(r4)
 200396c:	2080bb04 	addi	r2,r4,748
 2003970:	00c000c4 	movi	r3,3
 2003974:	20c0b915 	stw	r3,740(r4)
 2003978:	2080ba15 	stw	r2,744(r4)
 200397c:	2000b815 	stw	zero,736(r4)
 2003980:	05c00204 	movi	r23,8
 2003984:	00800104 	movi	r2,4
 2003988:	2025883a 	mov	r18,r4
 200398c:	b80d883a 	mov	r6,r23
 2003990:	81001704 	addi	r4,r16,92
 2003994:	000b883a 	mov	r5,zero
 2003998:	80000015 	stw	zero,0(r16)
 200399c:	80000115 	stw	zero,4(r16)
 20039a0:	80000215 	stw	zero,8(r16)
 20039a4:	8080030d 	sth	r2,12(r16)
 20039a8:	80001915 	stw	zero,100(r16)
 20039ac:	8000038d 	sth	zero,14(r16)
 20039b0:	80000415 	stw	zero,16(r16)
 20039b4:	80000515 	stw	zero,20(r16)
 20039b8:	80000615 	stw	zero,24(r16)
 20039bc:	2004eb40 	call	2004eb4 <memset>
 20039c0:	05808034 	movhi	r22,512
 20039c4:	94400217 	ldw	r17,8(r18)
 20039c8:	05408034 	movhi	r21,512
 20039cc:	05008034 	movhi	r20,512
 20039d0:	04c08034 	movhi	r19,512
 20039d4:	b5963b04 	addi	r22,r22,22764
 20039d8:	ad565204 	addi	r21,r21,22856
 20039dc:	a5167104 	addi	r20,r20,22980
 20039e0:	9cd68804 	addi	r19,r19,23072
 20039e4:	85800815 	stw	r22,32(r16)
 20039e8:	85400915 	stw	r21,36(r16)
 20039ec:	85000a15 	stw	r20,40(r16)
 20039f0:	84c00b15 	stw	r19,44(r16)
 20039f4:	84000715 	stw	r16,28(r16)
 20039f8:	00800284 	movi	r2,10
 20039fc:	8880030d 	sth	r2,12(r17)
 2003a00:	00800044 	movi	r2,1
 2003a04:	b80d883a 	mov	r6,r23
 2003a08:	89001704 	addi	r4,r17,92
 2003a0c:	000b883a 	mov	r5,zero
 2003a10:	88000015 	stw	zero,0(r17)
 2003a14:	88000115 	stw	zero,4(r17)
 2003a18:	88000215 	stw	zero,8(r17)
 2003a1c:	88001915 	stw	zero,100(r17)
 2003a20:	8880038d 	sth	r2,14(r17)
 2003a24:	88000415 	stw	zero,16(r17)
 2003a28:	88000515 	stw	zero,20(r17)
 2003a2c:	88000615 	stw	zero,24(r17)
 2003a30:	2004eb40 	call	2004eb4 <memset>
 2003a34:	94000317 	ldw	r16,12(r18)
 2003a38:	00800484 	movi	r2,18
 2003a3c:	8c400715 	stw	r17,28(r17)
 2003a40:	8d800815 	stw	r22,32(r17)
 2003a44:	8d400915 	stw	r21,36(r17)
 2003a48:	8d000a15 	stw	r20,40(r17)
 2003a4c:	8cc00b15 	stw	r19,44(r17)
 2003a50:	8080030d 	sth	r2,12(r16)
 2003a54:	00800084 	movi	r2,2
 2003a58:	80000015 	stw	zero,0(r16)
 2003a5c:	80000115 	stw	zero,4(r16)
 2003a60:	80000215 	stw	zero,8(r16)
 2003a64:	80001915 	stw	zero,100(r16)
 2003a68:	8080038d 	sth	r2,14(r16)
 2003a6c:	80000415 	stw	zero,16(r16)
 2003a70:	80000515 	stw	zero,20(r16)
 2003a74:	80000615 	stw	zero,24(r16)
 2003a78:	b80d883a 	mov	r6,r23
 2003a7c:	000b883a 	mov	r5,zero
 2003a80:	81001704 	addi	r4,r16,92
 2003a84:	2004eb40 	call	2004eb4 <memset>
 2003a88:	00800044 	movi	r2,1
 2003a8c:	84000715 	stw	r16,28(r16)
 2003a90:	85800815 	stw	r22,32(r16)
 2003a94:	85400915 	stw	r21,36(r16)
 2003a98:	85000a15 	stw	r20,40(r16)
 2003a9c:	84c00b15 	stw	r19,44(r16)
 2003aa0:	90800e15 	stw	r2,56(r18)
 2003aa4:	dfc00817 	ldw	ra,32(sp)
 2003aa8:	ddc00717 	ldw	r23,28(sp)
 2003aac:	dd800617 	ldw	r22,24(sp)
 2003ab0:	dd400517 	ldw	r21,20(sp)
 2003ab4:	dd000417 	ldw	r20,16(sp)
 2003ab8:	dcc00317 	ldw	r19,12(sp)
 2003abc:	dc800217 	ldw	r18,8(sp)
 2003ac0:	dc400117 	ldw	r17,4(sp)
 2003ac4:	dc000017 	ldw	r16,0(sp)
 2003ac8:	dec00904 	addi	sp,sp,36
 2003acc:	f800283a 	ret

02003ad0 <__fp_lock>:
 2003ad0:	0005883a 	mov	r2,zero
 2003ad4:	f800283a 	ret

02003ad8 <__sfmoreglue>:
 2003ad8:	defffc04 	addi	sp,sp,-16
 2003adc:	dc800215 	stw	r18,8(sp)
 2003ae0:	2825883a 	mov	r18,r5
 2003ae4:	dc000015 	stw	r16,0(sp)
 2003ae8:	01401a04 	movi	r5,104
 2003aec:	2021883a 	mov	r16,r4
 2003af0:	913fffc4 	addi	r4,r18,-1
 2003af4:	dfc00315 	stw	ra,12(sp)
 2003af8:	dc400115 	stw	r17,4(sp)
 2003afc:	20035ec0 	call	20035ec <__mulsi3>
 2003b00:	8009883a 	mov	r4,r16
 2003b04:	11401d04 	addi	r5,r2,116
 2003b08:	1023883a 	mov	r17,r2
 2003b0c:	20043200 	call	2004320 <_malloc_r>
 2003b10:	1021883a 	mov	r16,r2
 2003b14:	10000726 	beq	r2,zero,2003b34 <__sfmoreglue+0x5c>
 2003b18:	11000304 	addi	r4,r2,12
 2003b1c:	10000015 	stw	zero,0(r2)
 2003b20:	14800115 	stw	r18,4(r2)
 2003b24:	11000215 	stw	r4,8(r2)
 2003b28:	89801a04 	addi	r6,r17,104
 2003b2c:	000b883a 	mov	r5,zero
 2003b30:	2004eb40 	call	2004eb4 <memset>
 2003b34:	8005883a 	mov	r2,r16
 2003b38:	dfc00317 	ldw	ra,12(sp)
 2003b3c:	dc800217 	ldw	r18,8(sp)
 2003b40:	dc400117 	ldw	r17,4(sp)
 2003b44:	dc000017 	ldw	r16,0(sp)
 2003b48:	dec00404 	addi	sp,sp,16
 2003b4c:	f800283a 	ret

02003b50 <__sfp>:
 2003b50:	defffb04 	addi	sp,sp,-20
 2003b54:	dc000015 	stw	r16,0(sp)
 2003b58:	04008234 	movhi	r16,520
 2003b5c:	843d8b04 	addi	r16,r16,-2516
 2003b60:	dcc00315 	stw	r19,12(sp)
 2003b64:	2027883a 	mov	r19,r4
 2003b68:	81000017 	ldw	r4,0(r16)
 2003b6c:	dfc00415 	stw	ra,16(sp)
 2003b70:	dc800215 	stw	r18,8(sp)
 2003b74:	20800e17 	ldw	r2,56(r4)
 2003b78:	dc400115 	stw	r17,4(sp)
 2003b7c:	1000021e 	bne	r2,zero,2003b88 <__sfp+0x38>
 2003b80:	20039340 	call	2003934 <__sinit.part.1>
 2003b84:	81000017 	ldw	r4,0(r16)
 2003b88:	2480b804 	addi	r18,r4,736
 2003b8c:	047fffc4 	movi	r17,-1
 2003b90:	91000117 	ldw	r4,4(r18)
 2003b94:	94000217 	ldw	r16,8(r18)
 2003b98:	213fffc4 	addi	r4,r4,-1
 2003b9c:	20000a16 	blt	r4,zero,2003bc8 <__sfp+0x78>
 2003ba0:	8080030f 	ldh	r2,12(r16)
 2003ba4:	10000c26 	beq	r2,zero,2003bd8 <__sfp+0x88>
 2003ba8:	80c01d04 	addi	r3,r16,116
 2003bac:	00000206 	br	2003bb8 <__sfp+0x68>
 2003bb0:	18bfe60f 	ldh	r2,-104(r3)
 2003bb4:	10000826 	beq	r2,zero,2003bd8 <__sfp+0x88>
 2003bb8:	213fffc4 	addi	r4,r4,-1
 2003bbc:	1c3ffd04 	addi	r16,r3,-12
 2003bc0:	18c01a04 	addi	r3,r3,104
 2003bc4:	247ffa1e 	bne	r4,r17,2003bb0 <__alt_mem_epcs_flash_controller+0xfdffabb0>
 2003bc8:	90800017 	ldw	r2,0(r18)
 2003bcc:	10001d26 	beq	r2,zero,2003c44 <__sfp+0xf4>
 2003bd0:	1025883a 	mov	r18,r2
 2003bd4:	003fee06 	br	2003b90 <__alt_mem_epcs_flash_controller+0xfdffab90>
 2003bd8:	00bfffc4 	movi	r2,-1
 2003bdc:	8080038d 	sth	r2,14(r16)
 2003be0:	00800044 	movi	r2,1
 2003be4:	8080030d 	sth	r2,12(r16)
 2003be8:	80001915 	stw	zero,100(r16)
 2003bec:	80000015 	stw	zero,0(r16)
 2003bf0:	80000215 	stw	zero,8(r16)
 2003bf4:	80000115 	stw	zero,4(r16)
 2003bf8:	80000415 	stw	zero,16(r16)
 2003bfc:	80000515 	stw	zero,20(r16)
 2003c00:	80000615 	stw	zero,24(r16)
 2003c04:	01800204 	movi	r6,8
 2003c08:	000b883a 	mov	r5,zero
 2003c0c:	81001704 	addi	r4,r16,92
 2003c10:	2004eb40 	call	2004eb4 <memset>
 2003c14:	8005883a 	mov	r2,r16
 2003c18:	80000c15 	stw	zero,48(r16)
 2003c1c:	80000d15 	stw	zero,52(r16)
 2003c20:	80001115 	stw	zero,68(r16)
 2003c24:	80001215 	stw	zero,72(r16)
 2003c28:	dfc00417 	ldw	ra,16(sp)
 2003c2c:	dcc00317 	ldw	r19,12(sp)
 2003c30:	dc800217 	ldw	r18,8(sp)
 2003c34:	dc400117 	ldw	r17,4(sp)
 2003c38:	dc000017 	ldw	r16,0(sp)
 2003c3c:	dec00504 	addi	sp,sp,20
 2003c40:	f800283a 	ret
 2003c44:	01400104 	movi	r5,4
 2003c48:	9809883a 	mov	r4,r19
 2003c4c:	2003ad80 	call	2003ad8 <__sfmoreglue>
 2003c50:	90800015 	stw	r2,0(r18)
 2003c54:	103fde1e 	bne	r2,zero,2003bd0 <__alt_mem_epcs_flash_controller+0xfdffabd0>
 2003c58:	00800304 	movi	r2,12
 2003c5c:	98800015 	stw	r2,0(r19)
 2003c60:	0005883a 	mov	r2,zero
 2003c64:	003ff006 	br	2003c28 <__alt_mem_epcs_flash_controller+0xfdffac28>

02003c68 <_cleanup>:
 2003c68:	00808234 	movhi	r2,520
 2003c6c:	10bd8b04 	addi	r2,r2,-2516
 2003c70:	11000017 	ldw	r4,0(r2)
 2003c74:	01408034 	movhi	r5,512
 2003c78:	29576204 	addi	r5,r5,23944
 2003c7c:	200425c1 	jmpi	200425c <_fwalk_reent>

02003c80 <__sinit>:
 2003c80:	20800e17 	ldw	r2,56(r4)
 2003c84:	10000126 	beq	r2,zero,2003c8c <__sinit+0xc>
 2003c88:	f800283a 	ret
 2003c8c:	20039341 	jmpi	2003934 <__sinit.part.1>

02003c90 <__sfp_lock_acquire>:
 2003c90:	f800283a 	ret

02003c94 <__sfp_lock_release>:
 2003c94:	f800283a 	ret

02003c98 <__sinit_lock_acquire>:
 2003c98:	f800283a 	ret

02003c9c <__sinit_lock_release>:
 2003c9c:	f800283a 	ret

02003ca0 <__fp_lock_all>:
 2003ca0:	00808234 	movhi	r2,520
 2003ca4:	10bd8c04 	addi	r2,r2,-2512
 2003ca8:	11000017 	ldw	r4,0(r2)
 2003cac:	01408034 	movhi	r5,512
 2003cb0:	294eb404 	addi	r5,r5,15056
 2003cb4:	20041981 	jmpi	2004198 <_fwalk>

02003cb8 <__fp_unlock_all>:
 2003cb8:	00808234 	movhi	r2,520
 2003cbc:	10bd8c04 	addi	r2,r2,-2512
 2003cc0:	11000017 	ldw	r4,0(r2)
 2003cc4:	01408034 	movhi	r5,512
 2003cc8:	294e4804 	addi	r5,r5,14624
 2003ccc:	20041981 	jmpi	2004198 <_fwalk>

02003cd0 <__sfvwrite_r>:
 2003cd0:	30800217 	ldw	r2,8(r6)
 2003cd4:	10006726 	beq	r2,zero,2003e74 <__sfvwrite_r+0x1a4>
 2003cd8:	28c0030b 	ldhu	r3,12(r5)
 2003cdc:	defff404 	addi	sp,sp,-48
 2003ce0:	dd400715 	stw	r21,28(sp)
 2003ce4:	dd000615 	stw	r20,24(sp)
 2003ce8:	dc000215 	stw	r16,8(sp)
 2003cec:	dfc00b15 	stw	ra,44(sp)
 2003cf0:	df000a15 	stw	fp,40(sp)
 2003cf4:	ddc00915 	stw	r23,36(sp)
 2003cf8:	dd800815 	stw	r22,32(sp)
 2003cfc:	dcc00515 	stw	r19,20(sp)
 2003d00:	dc800415 	stw	r18,16(sp)
 2003d04:	dc400315 	stw	r17,12(sp)
 2003d08:	1880020c 	andi	r2,r3,8
 2003d0c:	2821883a 	mov	r16,r5
 2003d10:	202b883a 	mov	r21,r4
 2003d14:	3029883a 	mov	r20,r6
 2003d18:	10002726 	beq	r2,zero,2003db8 <__sfvwrite_r+0xe8>
 2003d1c:	28800417 	ldw	r2,16(r5)
 2003d20:	10002526 	beq	r2,zero,2003db8 <__sfvwrite_r+0xe8>
 2003d24:	1880008c 	andi	r2,r3,2
 2003d28:	a4400017 	ldw	r17,0(r20)
 2003d2c:	10002a26 	beq	r2,zero,2003dd8 <__sfvwrite_r+0x108>
 2003d30:	05a00034 	movhi	r22,32768
 2003d34:	0027883a 	mov	r19,zero
 2003d38:	0025883a 	mov	r18,zero
 2003d3c:	b5bf0004 	addi	r22,r22,-1024
 2003d40:	980d883a 	mov	r6,r19
 2003d44:	a809883a 	mov	r4,r21
 2003d48:	90004626 	beq	r18,zero,2003e64 <__sfvwrite_r+0x194>
 2003d4c:	900f883a 	mov	r7,r18
 2003d50:	b480022e 	bgeu	r22,r18,2003d5c <__sfvwrite_r+0x8c>
 2003d54:	01e00034 	movhi	r7,32768
 2003d58:	39ff0004 	addi	r7,r7,-1024
 2003d5c:	80800917 	ldw	r2,36(r16)
 2003d60:	81400717 	ldw	r5,28(r16)
 2003d64:	103ee83a 	callr	r2
 2003d68:	00805a0e 	bge	zero,r2,2003ed4 <__sfvwrite_r+0x204>
 2003d6c:	a0c00217 	ldw	r3,8(r20)
 2003d70:	98a7883a 	add	r19,r19,r2
 2003d74:	90a5c83a 	sub	r18,r18,r2
 2003d78:	1885c83a 	sub	r2,r3,r2
 2003d7c:	a0800215 	stw	r2,8(r20)
 2003d80:	103fef1e 	bne	r2,zero,2003d40 <__alt_mem_epcs_flash_controller+0xfdffad40>
 2003d84:	0005883a 	mov	r2,zero
 2003d88:	dfc00b17 	ldw	ra,44(sp)
 2003d8c:	df000a17 	ldw	fp,40(sp)
 2003d90:	ddc00917 	ldw	r23,36(sp)
 2003d94:	dd800817 	ldw	r22,32(sp)
 2003d98:	dd400717 	ldw	r21,28(sp)
 2003d9c:	dd000617 	ldw	r20,24(sp)
 2003da0:	dcc00517 	ldw	r19,20(sp)
 2003da4:	dc800417 	ldw	r18,16(sp)
 2003da8:	dc400317 	ldw	r17,12(sp)
 2003dac:	dc000217 	ldw	r16,8(sp)
 2003db0:	dec00c04 	addi	sp,sp,48
 2003db4:	f800283a 	ret
 2003db8:	800b883a 	mov	r5,r16
 2003dbc:	a809883a 	mov	r4,r21
 2003dc0:	2005be00 	call	2005be0 <__swsetup_r>
 2003dc4:	1000ee1e 	bne	r2,zero,2004180 <__sfvwrite_r+0x4b0>
 2003dc8:	80c0030b 	ldhu	r3,12(r16)
 2003dcc:	a4400017 	ldw	r17,0(r20)
 2003dd0:	1880008c 	andi	r2,r3,2
 2003dd4:	103fd61e 	bne	r2,zero,2003d30 <__alt_mem_epcs_flash_controller+0xfdffad30>
 2003dd8:	1880004c 	andi	r2,r3,1
 2003ddc:	1000421e 	bne	r2,zero,2003ee8 <__sfvwrite_r+0x218>
 2003de0:	0039883a 	mov	fp,zero
 2003de4:	0025883a 	mov	r18,zero
 2003de8:	90001a26 	beq	r18,zero,2003e54 <__sfvwrite_r+0x184>
 2003dec:	1880800c 	andi	r2,r3,512
 2003df0:	84c00217 	ldw	r19,8(r16)
 2003df4:	10002126 	beq	r2,zero,2003e7c <__sfvwrite_r+0x1ac>
 2003df8:	982f883a 	mov	r23,r19
 2003dfc:	94c09636 	bltu	r18,r19,2004058 <__sfvwrite_r+0x388>
 2003e00:	1881200c 	andi	r2,r3,1152
 2003e04:	1000a11e 	bne	r2,zero,200408c <__sfvwrite_r+0x3bc>
 2003e08:	81000017 	ldw	r4,0(r16)
 2003e0c:	b80d883a 	mov	r6,r23
 2003e10:	e00b883a 	mov	r5,fp
 2003e14:	2004d580 	call	2004d58 <memmove>
 2003e18:	80c00217 	ldw	r3,8(r16)
 2003e1c:	81000017 	ldw	r4,0(r16)
 2003e20:	9005883a 	mov	r2,r18
 2003e24:	1ce7c83a 	sub	r19,r3,r19
 2003e28:	25cf883a 	add	r7,r4,r23
 2003e2c:	84c00215 	stw	r19,8(r16)
 2003e30:	81c00015 	stw	r7,0(r16)
 2003e34:	a0c00217 	ldw	r3,8(r20)
 2003e38:	e0b9883a 	add	fp,fp,r2
 2003e3c:	90a5c83a 	sub	r18,r18,r2
 2003e40:	18a7c83a 	sub	r19,r3,r2
 2003e44:	a4c00215 	stw	r19,8(r20)
 2003e48:	983fce26 	beq	r19,zero,2003d84 <__alt_mem_epcs_flash_controller+0xfdffad84>
 2003e4c:	80c0030b 	ldhu	r3,12(r16)
 2003e50:	903fe61e 	bne	r18,zero,2003dec <__alt_mem_epcs_flash_controller+0xfdffadec>
 2003e54:	8f000017 	ldw	fp,0(r17)
 2003e58:	8c800117 	ldw	r18,4(r17)
 2003e5c:	8c400204 	addi	r17,r17,8
 2003e60:	003fe106 	br	2003de8 <__alt_mem_epcs_flash_controller+0xfdffade8>
 2003e64:	8cc00017 	ldw	r19,0(r17)
 2003e68:	8c800117 	ldw	r18,4(r17)
 2003e6c:	8c400204 	addi	r17,r17,8
 2003e70:	003fb306 	br	2003d40 <__alt_mem_epcs_flash_controller+0xfdffad40>
 2003e74:	0005883a 	mov	r2,zero
 2003e78:	f800283a 	ret
 2003e7c:	81000017 	ldw	r4,0(r16)
 2003e80:	80800417 	ldw	r2,16(r16)
 2003e84:	11005a36 	bltu	r2,r4,2003ff0 <__sfvwrite_r+0x320>
 2003e88:	85c00517 	ldw	r23,20(r16)
 2003e8c:	95c05836 	bltu	r18,r23,2003ff0 <__sfvwrite_r+0x320>
 2003e90:	00a00034 	movhi	r2,32768
 2003e94:	10bfffc4 	addi	r2,r2,-1
 2003e98:	9009883a 	mov	r4,r18
 2003e9c:	1480012e 	bgeu	r2,r18,2003ea4 <__sfvwrite_r+0x1d4>
 2003ea0:	1009883a 	mov	r4,r2
 2003ea4:	b80b883a 	mov	r5,r23
 2003ea8:	200203c0 	call	200203c <__divsi3>
 2003eac:	b80b883a 	mov	r5,r23
 2003eb0:	1009883a 	mov	r4,r2
 2003eb4:	20035ec0 	call	20035ec <__mulsi3>
 2003eb8:	81400717 	ldw	r5,28(r16)
 2003ebc:	80c00917 	ldw	r3,36(r16)
 2003ec0:	100f883a 	mov	r7,r2
 2003ec4:	e00d883a 	mov	r6,fp
 2003ec8:	a809883a 	mov	r4,r21
 2003ecc:	183ee83a 	callr	r3
 2003ed0:	00bfd816 	blt	zero,r2,2003e34 <__alt_mem_epcs_flash_controller+0xfdffae34>
 2003ed4:	8080030b 	ldhu	r2,12(r16)
 2003ed8:	10801014 	ori	r2,r2,64
 2003edc:	8080030d 	sth	r2,12(r16)
 2003ee0:	00bfffc4 	movi	r2,-1
 2003ee4:	003fa806 	br	2003d88 <__alt_mem_epcs_flash_controller+0xfdffad88>
 2003ee8:	0027883a 	mov	r19,zero
 2003eec:	0011883a 	mov	r8,zero
 2003ef0:	0039883a 	mov	fp,zero
 2003ef4:	0025883a 	mov	r18,zero
 2003ef8:	90001f26 	beq	r18,zero,2003f78 <__sfvwrite_r+0x2a8>
 2003efc:	40005a26 	beq	r8,zero,2004068 <__sfvwrite_r+0x398>
 2003f00:	982d883a 	mov	r22,r19
 2003f04:	94c0012e 	bgeu	r18,r19,2003f0c <__sfvwrite_r+0x23c>
 2003f08:	902d883a 	mov	r22,r18
 2003f0c:	81000017 	ldw	r4,0(r16)
 2003f10:	80800417 	ldw	r2,16(r16)
 2003f14:	b02f883a 	mov	r23,r22
 2003f18:	81c00517 	ldw	r7,20(r16)
 2003f1c:	1100032e 	bgeu	r2,r4,2003f2c <__sfvwrite_r+0x25c>
 2003f20:	80c00217 	ldw	r3,8(r16)
 2003f24:	38c7883a 	add	r3,r7,r3
 2003f28:	1d801816 	blt	r3,r22,2003f8c <__sfvwrite_r+0x2bc>
 2003f2c:	b1c03e16 	blt	r22,r7,2004028 <__sfvwrite_r+0x358>
 2003f30:	80800917 	ldw	r2,36(r16)
 2003f34:	81400717 	ldw	r5,28(r16)
 2003f38:	e00d883a 	mov	r6,fp
 2003f3c:	da000115 	stw	r8,4(sp)
 2003f40:	a809883a 	mov	r4,r21
 2003f44:	103ee83a 	callr	r2
 2003f48:	102f883a 	mov	r23,r2
 2003f4c:	da000117 	ldw	r8,4(sp)
 2003f50:	00bfe00e 	bge	zero,r2,2003ed4 <__alt_mem_epcs_flash_controller+0xfdffaed4>
 2003f54:	9de7c83a 	sub	r19,r19,r23
 2003f58:	98001f26 	beq	r19,zero,2003fd8 <__sfvwrite_r+0x308>
 2003f5c:	a0800217 	ldw	r2,8(r20)
 2003f60:	e5f9883a 	add	fp,fp,r23
 2003f64:	95e5c83a 	sub	r18,r18,r23
 2003f68:	15efc83a 	sub	r23,r2,r23
 2003f6c:	a5c00215 	stw	r23,8(r20)
 2003f70:	b83f8426 	beq	r23,zero,2003d84 <__alt_mem_epcs_flash_controller+0xfdffad84>
 2003f74:	903fe11e 	bne	r18,zero,2003efc <__alt_mem_epcs_flash_controller+0xfdffaefc>
 2003f78:	8f000017 	ldw	fp,0(r17)
 2003f7c:	8c800117 	ldw	r18,4(r17)
 2003f80:	0011883a 	mov	r8,zero
 2003f84:	8c400204 	addi	r17,r17,8
 2003f88:	003fdb06 	br	2003ef8 <__alt_mem_epcs_flash_controller+0xfdffaef8>
 2003f8c:	180d883a 	mov	r6,r3
 2003f90:	e00b883a 	mov	r5,fp
 2003f94:	da000115 	stw	r8,4(sp)
 2003f98:	d8c00015 	stw	r3,0(sp)
 2003f9c:	2004d580 	call	2004d58 <memmove>
 2003fa0:	d8c00017 	ldw	r3,0(sp)
 2003fa4:	80800017 	ldw	r2,0(r16)
 2003fa8:	800b883a 	mov	r5,r16
 2003fac:	a809883a 	mov	r4,r21
 2003fb0:	10c5883a 	add	r2,r2,r3
 2003fb4:	80800015 	stw	r2,0(r16)
 2003fb8:	d8c00015 	stw	r3,0(sp)
 2003fbc:	20060a80 	call	20060a8 <_fflush_r>
 2003fc0:	d8c00017 	ldw	r3,0(sp)
 2003fc4:	da000117 	ldw	r8,4(sp)
 2003fc8:	103fc21e 	bne	r2,zero,2003ed4 <__alt_mem_epcs_flash_controller+0xfdffaed4>
 2003fcc:	182f883a 	mov	r23,r3
 2003fd0:	9de7c83a 	sub	r19,r19,r23
 2003fd4:	983fe11e 	bne	r19,zero,2003f5c <__alt_mem_epcs_flash_controller+0xfdffaf5c>
 2003fd8:	800b883a 	mov	r5,r16
 2003fdc:	a809883a 	mov	r4,r21
 2003fe0:	20060a80 	call	20060a8 <_fflush_r>
 2003fe4:	103fbb1e 	bne	r2,zero,2003ed4 <__alt_mem_epcs_flash_controller+0xfdffaed4>
 2003fe8:	0011883a 	mov	r8,zero
 2003fec:	003fdb06 	br	2003f5c <__alt_mem_epcs_flash_controller+0xfdffaf5c>
 2003ff0:	94c0012e 	bgeu	r18,r19,2003ff8 <__sfvwrite_r+0x328>
 2003ff4:	9027883a 	mov	r19,r18
 2003ff8:	980d883a 	mov	r6,r19
 2003ffc:	e00b883a 	mov	r5,fp
 2004000:	2004d580 	call	2004d58 <memmove>
 2004004:	80800217 	ldw	r2,8(r16)
 2004008:	80c00017 	ldw	r3,0(r16)
 200400c:	14c5c83a 	sub	r2,r2,r19
 2004010:	1cc7883a 	add	r3,r3,r19
 2004014:	80800215 	stw	r2,8(r16)
 2004018:	80c00015 	stw	r3,0(r16)
 200401c:	10004326 	beq	r2,zero,200412c <__sfvwrite_r+0x45c>
 2004020:	9805883a 	mov	r2,r19
 2004024:	003f8306 	br	2003e34 <__alt_mem_epcs_flash_controller+0xfdffae34>
 2004028:	b00d883a 	mov	r6,r22
 200402c:	e00b883a 	mov	r5,fp
 2004030:	da000115 	stw	r8,4(sp)
 2004034:	2004d580 	call	2004d58 <memmove>
 2004038:	80800217 	ldw	r2,8(r16)
 200403c:	80c00017 	ldw	r3,0(r16)
 2004040:	da000117 	ldw	r8,4(sp)
 2004044:	1585c83a 	sub	r2,r2,r22
 2004048:	1dad883a 	add	r22,r3,r22
 200404c:	80800215 	stw	r2,8(r16)
 2004050:	85800015 	stw	r22,0(r16)
 2004054:	003fbf06 	br	2003f54 <__alt_mem_epcs_flash_controller+0xfdffaf54>
 2004058:	81000017 	ldw	r4,0(r16)
 200405c:	9027883a 	mov	r19,r18
 2004060:	902f883a 	mov	r23,r18
 2004064:	003f6906 	br	2003e0c <__alt_mem_epcs_flash_controller+0xfdffae0c>
 2004068:	900d883a 	mov	r6,r18
 200406c:	01400284 	movi	r5,10
 2004070:	e009883a 	mov	r4,fp
 2004074:	2004b2c0 	call	2004b2c <memchr>
 2004078:	10003e26 	beq	r2,zero,2004174 <__sfvwrite_r+0x4a4>
 200407c:	10800044 	addi	r2,r2,1
 2004080:	1727c83a 	sub	r19,r2,fp
 2004084:	02000044 	movi	r8,1
 2004088:	003f9d06 	br	2003f00 <__alt_mem_epcs_flash_controller+0xfdffaf00>
 200408c:	80800517 	ldw	r2,20(r16)
 2004090:	81400417 	ldw	r5,16(r16)
 2004094:	81c00017 	ldw	r7,0(r16)
 2004098:	10a7883a 	add	r19,r2,r2
 200409c:	9885883a 	add	r2,r19,r2
 20040a0:	1026d7fa 	srli	r19,r2,31
 20040a4:	396dc83a 	sub	r22,r7,r5
 20040a8:	b1000044 	addi	r4,r22,1
 20040ac:	9885883a 	add	r2,r19,r2
 20040b0:	1027d07a 	srai	r19,r2,1
 20040b4:	2485883a 	add	r2,r4,r18
 20040b8:	980d883a 	mov	r6,r19
 20040bc:	9880022e 	bgeu	r19,r2,20040c8 <__sfvwrite_r+0x3f8>
 20040c0:	1027883a 	mov	r19,r2
 20040c4:	100d883a 	mov	r6,r2
 20040c8:	18c1000c 	andi	r3,r3,1024
 20040cc:	18001c26 	beq	r3,zero,2004140 <__sfvwrite_r+0x470>
 20040d0:	300b883a 	mov	r5,r6
 20040d4:	a809883a 	mov	r4,r21
 20040d8:	20043200 	call	2004320 <_malloc_r>
 20040dc:	102f883a 	mov	r23,r2
 20040e0:	10002926 	beq	r2,zero,2004188 <__sfvwrite_r+0x4b8>
 20040e4:	81400417 	ldw	r5,16(r16)
 20040e8:	b00d883a 	mov	r6,r22
 20040ec:	1009883a 	mov	r4,r2
 20040f0:	2004c100 	call	2004c10 <memcpy>
 20040f4:	8080030b 	ldhu	r2,12(r16)
 20040f8:	00fedfc4 	movi	r3,-1153
 20040fc:	10c4703a 	and	r2,r2,r3
 2004100:	10802014 	ori	r2,r2,128
 2004104:	8080030d 	sth	r2,12(r16)
 2004108:	bd89883a 	add	r4,r23,r22
 200410c:	9d8fc83a 	sub	r7,r19,r22
 2004110:	85c00415 	stw	r23,16(r16)
 2004114:	84c00515 	stw	r19,20(r16)
 2004118:	81000015 	stw	r4,0(r16)
 200411c:	9027883a 	mov	r19,r18
 2004120:	81c00215 	stw	r7,8(r16)
 2004124:	902f883a 	mov	r23,r18
 2004128:	003f3806 	br	2003e0c <__alt_mem_epcs_flash_controller+0xfdffae0c>
 200412c:	800b883a 	mov	r5,r16
 2004130:	a809883a 	mov	r4,r21
 2004134:	20060a80 	call	20060a8 <_fflush_r>
 2004138:	103fb926 	beq	r2,zero,2004020 <__alt_mem_epcs_flash_controller+0xfdffb020>
 200413c:	003f6506 	br	2003ed4 <__alt_mem_epcs_flash_controller+0xfdffaed4>
 2004140:	a809883a 	mov	r4,r21
 2004144:	20051440 	call	2005144 <_realloc_r>
 2004148:	102f883a 	mov	r23,r2
 200414c:	103fee1e 	bne	r2,zero,2004108 <__alt_mem_epcs_flash_controller+0xfdffb108>
 2004150:	81400417 	ldw	r5,16(r16)
 2004154:	a809883a 	mov	r4,r21
 2004158:	20062580 	call	2006258 <_free_r>
 200415c:	8080030b 	ldhu	r2,12(r16)
 2004160:	00ffdfc4 	movi	r3,-129
 2004164:	1884703a 	and	r2,r3,r2
 2004168:	00c00304 	movi	r3,12
 200416c:	a8c00015 	stw	r3,0(r21)
 2004170:	003f5906 	br	2003ed8 <__alt_mem_epcs_flash_controller+0xfdffaed8>
 2004174:	94c00044 	addi	r19,r18,1
 2004178:	02000044 	movi	r8,1
 200417c:	003f6006 	br	2003f00 <__alt_mem_epcs_flash_controller+0xfdffaf00>
 2004180:	00bfffc4 	movi	r2,-1
 2004184:	003f0006 	br	2003d88 <__alt_mem_epcs_flash_controller+0xfdffad88>
 2004188:	00800304 	movi	r2,12
 200418c:	a8800015 	stw	r2,0(r21)
 2004190:	8080030b 	ldhu	r2,12(r16)
 2004194:	003f5006 	br	2003ed8 <__alt_mem_epcs_flash_controller+0xfdffaed8>

02004198 <_fwalk>:
 2004198:	defff704 	addi	sp,sp,-36
 200419c:	dd000415 	stw	r20,16(sp)
 20041a0:	dfc00815 	stw	ra,32(sp)
 20041a4:	ddc00715 	stw	r23,28(sp)
 20041a8:	dd800615 	stw	r22,24(sp)
 20041ac:	dd400515 	stw	r21,20(sp)
 20041b0:	dcc00315 	stw	r19,12(sp)
 20041b4:	dc800215 	stw	r18,8(sp)
 20041b8:	dc400115 	stw	r17,4(sp)
 20041bc:	dc000015 	stw	r16,0(sp)
 20041c0:	2500b804 	addi	r20,r4,736
 20041c4:	a0002326 	beq	r20,zero,2004254 <_fwalk+0xbc>
 20041c8:	282b883a 	mov	r21,r5
 20041cc:	002f883a 	mov	r23,zero
 20041d0:	05800044 	movi	r22,1
 20041d4:	04ffffc4 	movi	r19,-1
 20041d8:	a4400117 	ldw	r17,4(r20)
 20041dc:	a4800217 	ldw	r18,8(r20)
 20041e0:	8c7fffc4 	addi	r17,r17,-1
 20041e4:	88000d16 	blt	r17,zero,200421c <_fwalk+0x84>
 20041e8:	94000304 	addi	r16,r18,12
 20041ec:	94800384 	addi	r18,r18,14
 20041f0:	8080000b 	ldhu	r2,0(r16)
 20041f4:	8c7fffc4 	addi	r17,r17,-1
 20041f8:	813ffd04 	addi	r4,r16,-12
 20041fc:	b080042e 	bgeu	r22,r2,2004210 <_fwalk+0x78>
 2004200:	9080000f 	ldh	r2,0(r18)
 2004204:	14c00226 	beq	r2,r19,2004210 <_fwalk+0x78>
 2004208:	a83ee83a 	callr	r21
 200420c:	b8aeb03a 	or	r23,r23,r2
 2004210:	84001a04 	addi	r16,r16,104
 2004214:	94801a04 	addi	r18,r18,104
 2004218:	8cfff51e 	bne	r17,r19,20041f0 <__alt_mem_epcs_flash_controller+0xfdffb1f0>
 200421c:	a5000017 	ldw	r20,0(r20)
 2004220:	a03fed1e 	bne	r20,zero,20041d8 <__alt_mem_epcs_flash_controller+0xfdffb1d8>
 2004224:	b805883a 	mov	r2,r23
 2004228:	dfc00817 	ldw	ra,32(sp)
 200422c:	ddc00717 	ldw	r23,28(sp)
 2004230:	dd800617 	ldw	r22,24(sp)
 2004234:	dd400517 	ldw	r21,20(sp)
 2004238:	dd000417 	ldw	r20,16(sp)
 200423c:	dcc00317 	ldw	r19,12(sp)
 2004240:	dc800217 	ldw	r18,8(sp)
 2004244:	dc400117 	ldw	r17,4(sp)
 2004248:	dc000017 	ldw	r16,0(sp)
 200424c:	dec00904 	addi	sp,sp,36
 2004250:	f800283a 	ret
 2004254:	002f883a 	mov	r23,zero
 2004258:	003ff206 	br	2004224 <__alt_mem_epcs_flash_controller+0xfdffb224>

0200425c <_fwalk_reent>:
 200425c:	defff704 	addi	sp,sp,-36
 2004260:	dd000415 	stw	r20,16(sp)
 2004264:	dfc00815 	stw	ra,32(sp)
 2004268:	ddc00715 	stw	r23,28(sp)
 200426c:	dd800615 	stw	r22,24(sp)
 2004270:	dd400515 	stw	r21,20(sp)
 2004274:	dcc00315 	stw	r19,12(sp)
 2004278:	dc800215 	stw	r18,8(sp)
 200427c:	dc400115 	stw	r17,4(sp)
 2004280:	dc000015 	stw	r16,0(sp)
 2004284:	2500b804 	addi	r20,r4,736
 2004288:	a0002326 	beq	r20,zero,2004318 <_fwalk_reent+0xbc>
 200428c:	282b883a 	mov	r21,r5
 2004290:	2027883a 	mov	r19,r4
 2004294:	002f883a 	mov	r23,zero
 2004298:	05800044 	movi	r22,1
 200429c:	04bfffc4 	movi	r18,-1
 20042a0:	a4400117 	ldw	r17,4(r20)
 20042a4:	a4000217 	ldw	r16,8(r20)
 20042a8:	8c7fffc4 	addi	r17,r17,-1
 20042ac:	88000c16 	blt	r17,zero,20042e0 <_fwalk_reent+0x84>
 20042b0:	84000304 	addi	r16,r16,12
 20042b4:	8080000b 	ldhu	r2,0(r16)
 20042b8:	8c7fffc4 	addi	r17,r17,-1
 20042bc:	817ffd04 	addi	r5,r16,-12
 20042c0:	b080052e 	bgeu	r22,r2,20042d8 <_fwalk_reent+0x7c>
 20042c4:	8080008f 	ldh	r2,2(r16)
 20042c8:	9809883a 	mov	r4,r19
 20042cc:	14800226 	beq	r2,r18,20042d8 <_fwalk_reent+0x7c>
 20042d0:	a83ee83a 	callr	r21
 20042d4:	b8aeb03a 	or	r23,r23,r2
 20042d8:	84001a04 	addi	r16,r16,104
 20042dc:	8cbff51e 	bne	r17,r18,20042b4 <__alt_mem_epcs_flash_controller+0xfdffb2b4>
 20042e0:	a5000017 	ldw	r20,0(r20)
 20042e4:	a03fee1e 	bne	r20,zero,20042a0 <__alt_mem_epcs_flash_controller+0xfdffb2a0>
 20042e8:	b805883a 	mov	r2,r23
 20042ec:	dfc00817 	ldw	ra,32(sp)
 20042f0:	ddc00717 	ldw	r23,28(sp)
 20042f4:	dd800617 	ldw	r22,24(sp)
 20042f8:	dd400517 	ldw	r21,20(sp)
 20042fc:	dd000417 	ldw	r20,16(sp)
 2004300:	dcc00317 	ldw	r19,12(sp)
 2004304:	dc800217 	ldw	r18,8(sp)
 2004308:	dc400117 	ldw	r17,4(sp)
 200430c:	dc000017 	ldw	r16,0(sp)
 2004310:	dec00904 	addi	sp,sp,36
 2004314:	f800283a 	ret
 2004318:	002f883a 	mov	r23,zero
 200431c:	003ff206 	br	20042e8 <__alt_mem_epcs_flash_controller+0xfdffb2e8>

02004320 <_malloc_r>:
 2004320:	defff504 	addi	sp,sp,-44
 2004324:	dc800315 	stw	r18,12(sp)
 2004328:	dfc00a15 	stw	ra,40(sp)
 200432c:	df000915 	stw	fp,36(sp)
 2004330:	ddc00815 	stw	r23,32(sp)
 2004334:	dd800715 	stw	r22,28(sp)
 2004338:	dd400615 	stw	r21,24(sp)
 200433c:	dd000515 	stw	r20,20(sp)
 2004340:	dcc00415 	stw	r19,16(sp)
 2004344:	dc400215 	stw	r17,8(sp)
 2004348:	dc000115 	stw	r16,4(sp)
 200434c:	288002c4 	addi	r2,r5,11
 2004350:	00c00584 	movi	r3,22
 2004354:	2025883a 	mov	r18,r4
 2004358:	18807f2e 	bgeu	r3,r2,2004558 <_malloc_r+0x238>
 200435c:	047ffe04 	movi	r17,-8
 2004360:	1462703a 	and	r17,r2,r17
 2004364:	8800a316 	blt	r17,zero,20045f4 <_malloc_r+0x2d4>
 2004368:	8940a236 	bltu	r17,r5,20045f4 <_malloc_r+0x2d4>
 200436c:	2006e700 	call	2006e70 <__malloc_lock>
 2004370:	00807dc4 	movi	r2,503
 2004374:	1441e92e 	bgeu	r2,r17,2004b1c <_malloc_r+0x7fc>
 2004378:	8804d27a 	srli	r2,r17,9
 200437c:	1000a126 	beq	r2,zero,2004604 <_malloc_r+0x2e4>
 2004380:	00c00104 	movi	r3,4
 2004384:	18811e36 	bltu	r3,r2,2004800 <_malloc_r+0x4e0>
 2004388:	8804d1ba 	srli	r2,r17,6
 200438c:	12000e44 	addi	r8,r2,57
 2004390:	11c00e04 	addi	r7,r2,56
 2004394:	4209883a 	add	r4,r8,r8
 2004398:	04c08234 	movhi	r19,520
 200439c:	2109883a 	add	r4,r4,r4
 20043a0:	9cf7a004 	addi	r19,r19,-8576
 20043a4:	2109883a 	add	r4,r4,r4
 20043a8:	9909883a 	add	r4,r19,r4
 20043ac:	24000117 	ldw	r16,4(r4)
 20043b0:	213ffe04 	addi	r4,r4,-8
 20043b4:	24009726 	beq	r4,r16,2004614 <_malloc_r+0x2f4>
 20043b8:	80800117 	ldw	r2,4(r16)
 20043bc:	01bfff04 	movi	r6,-4
 20043c0:	014003c4 	movi	r5,15
 20043c4:	1184703a 	and	r2,r2,r6
 20043c8:	1447c83a 	sub	r3,r2,r17
 20043cc:	28c00716 	blt	r5,r3,20043ec <_malloc_r+0xcc>
 20043d0:	1800920e 	bge	r3,zero,200461c <_malloc_r+0x2fc>
 20043d4:	84000317 	ldw	r16,12(r16)
 20043d8:	24008e26 	beq	r4,r16,2004614 <_malloc_r+0x2f4>
 20043dc:	80800117 	ldw	r2,4(r16)
 20043e0:	1184703a 	and	r2,r2,r6
 20043e4:	1447c83a 	sub	r3,r2,r17
 20043e8:	28fff90e 	bge	r5,r3,20043d0 <__alt_mem_epcs_flash_controller+0xfdffb3d0>
 20043ec:	3809883a 	mov	r4,r7
 20043f0:	01808234 	movhi	r6,520
 20043f4:	9c000417 	ldw	r16,16(r19)
 20043f8:	31b7a004 	addi	r6,r6,-8576
 20043fc:	32000204 	addi	r8,r6,8
 2004400:	82013426 	beq	r16,r8,20048d4 <_malloc_r+0x5b4>
 2004404:	80c00117 	ldw	r3,4(r16)
 2004408:	00bfff04 	movi	r2,-4
 200440c:	188e703a 	and	r7,r3,r2
 2004410:	3c45c83a 	sub	r2,r7,r17
 2004414:	00c003c4 	movi	r3,15
 2004418:	18811f16 	blt	r3,r2,2004898 <_malloc_r+0x578>
 200441c:	32000515 	stw	r8,20(r6)
 2004420:	32000415 	stw	r8,16(r6)
 2004424:	10007f0e 	bge	r2,zero,2004624 <_malloc_r+0x304>
 2004428:	00807fc4 	movi	r2,511
 200442c:	11c0fd36 	bltu	r2,r7,2004824 <_malloc_r+0x504>
 2004430:	3806d0fa 	srli	r3,r7,3
 2004434:	01c00044 	movi	r7,1
 2004438:	30800117 	ldw	r2,4(r6)
 200443c:	19400044 	addi	r5,r3,1
 2004440:	294b883a 	add	r5,r5,r5
 2004444:	1807d0ba 	srai	r3,r3,2
 2004448:	294b883a 	add	r5,r5,r5
 200444c:	294b883a 	add	r5,r5,r5
 2004450:	298b883a 	add	r5,r5,r6
 2004454:	38c6983a 	sll	r3,r7,r3
 2004458:	29c00017 	ldw	r7,0(r5)
 200445c:	2a7ffe04 	addi	r9,r5,-8
 2004460:	1886b03a 	or	r3,r3,r2
 2004464:	82400315 	stw	r9,12(r16)
 2004468:	81c00215 	stw	r7,8(r16)
 200446c:	30c00115 	stw	r3,4(r6)
 2004470:	2c000015 	stw	r16,0(r5)
 2004474:	3c000315 	stw	r16,12(r7)
 2004478:	2005d0ba 	srai	r2,r4,2
 200447c:	01400044 	movi	r5,1
 2004480:	288a983a 	sll	r5,r5,r2
 2004484:	19406f36 	bltu	r3,r5,2004644 <_malloc_r+0x324>
 2004488:	28c4703a 	and	r2,r5,r3
 200448c:	10000a1e 	bne	r2,zero,20044b8 <_malloc_r+0x198>
 2004490:	00bfff04 	movi	r2,-4
 2004494:	294b883a 	add	r5,r5,r5
 2004498:	2088703a 	and	r4,r4,r2
 200449c:	28c4703a 	and	r2,r5,r3
 20044a0:	21000104 	addi	r4,r4,4
 20044a4:	1000041e 	bne	r2,zero,20044b8 <_malloc_r+0x198>
 20044a8:	294b883a 	add	r5,r5,r5
 20044ac:	28c4703a 	and	r2,r5,r3
 20044b0:	21000104 	addi	r4,r4,4
 20044b4:	103ffc26 	beq	r2,zero,20044a8 <__alt_mem_epcs_flash_controller+0xfdffb4a8>
 20044b8:	02bfff04 	movi	r10,-4
 20044bc:	024003c4 	movi	r9,15
 20044c0:	21800044 	addi	r6,r4,1
 20044c4:	318d883a 	add	r6,r6,r6
 20044c8:	318d883a 	add	r6,r6,r6
 20044cc:	318d883a 	add	r6,r6,r6
 20044d0:	998d883a 	add	r6,r19,r6
 20044d4:	333ffe04 	addi	r12,r6,-8
 20044d8:	2017883a 	mov	r11,r4
 20044dc:	31800104 	addi	r6,r6,4
 20044e0:	34000017 	ldw	r16,0(r6)
 20044e4:	31fffd04 	addi	r7,r6,-12
 20044e8:	81c0041e 	bne	r16,r7,20044fc <_malloc_r+0x1dc>
 20044ec:	0000fb06 	br	20048dc <_malloc_r+0x5bc>
 20044f0:	1801030e 	bge	r3,zero,2004900 <_malloc_r+0x5e0>
 20044f4:	84000317 	ldw	r16,12(r16)
 20044f8:	81c0f826 	beq	r16,r7,20048dc <_malloc_r+0x5bc>
 20044fc:	80800117 	ldw	r2,4(r16)
 2004500:	1284703a 	and	r2,r2,r10
 2004504:	1447c83a 	sub	r3,r2,r17
 2004508:	48fff90e 	bge	r9,r3,20044f0 <__alt_mem_epcs_flash_controller+0xfdffb4f0>
 200450c:	80800317 	ldw	r2,12(r16)
 2004510:	81000217 	ldw	r4,8(r16)
 2004514:	89400054 	ori	r5,r17,1
 2004518:	81400115 	stw	r5,4(r16)
 200451c:	20800315 	stw	r2,12(r4)
 2004520:	11000215 	stw	r4,8(r2)
 2004524:	8463883a 	add	r17,r16,r17
 2004528:	9c400515 	stw	r17,20(r19)
 200452c:	9c400415 	stw	r17,16(r19)
 2004530:	18800054 	ori	r2,r3,1
 2004534:	88800115 	stw	r2,4(r17)
 2004538:	8a000315 	stw	r8,12(r17)
 200453c:	8a000215 	stw	r8,8(r17)
 2004540:	88e3883a 	add	r17,r17,r3
 2004544:	88c00015 	stw	r3,0(r17)
 2004548:	9009883a 	mov	r4,r18
 200454c:	2006e940 	call	2006e94 <__malloc_unlock>
 2004550:	80800204 	addi	r2,r16,8
 2004554:	00001b06 	br	20045c4 <_malloc_r+0x2a4>
 2004558:	04400404 	movi	r17,16
 200455c:	89402536 	bltu	r17,r5,20045f4 <_malloc_r+0x2d4>
 2004560:	2006e700 	call	2006e70 <__malloc_lock>
 2004564:	00800184 	movi	r2,6
 2004568:	01000084 	movi	r4,2
 200456c:	04c08234 	movhi	r19,520
 2004570:	1085883a 	add	r2,r2,r2
 2004574:	9cf7a004 	addi	r19,r19,-8576
 2004578:	1085883a 	add	r2,r2,r2
 200457c:	9885883a 	add	r2,r19,r2
 2004580:	14000117 	ldw	r16,4(r2)
 2004584:	10fffe04 	addi	r3,r2,-8
 2004588:	80c0d926 	beq	r16,r3,20048f0 <_malloc_r+0x5d0>
 200458c:	80c00117 	ldw	r3,4(r16)
 2004590:	81000317 	ldw	r4,12(r16)
 2004594:	00bfff04 	movi	r2,-4
 2004598:	1884703a 	and	r2,r3,r2
 200459c:	81400217 	ldw	r5,8(r16)
 20045a0:	8085883a 	add	r2,r16,r2
 20045a4:	10c00117 	ldw	r3,4(r2)
 20045a8:	29000315 	stw	r4,12(r5)
 20045ac:	21400215 	stw	r5,8(r4)
 20045b0:	18c00054 	ori	r3,r3,1
 20045b4:	10c00115 	stw	r3,4(r2)
 20045b8:	9009883a 	mov	r4,r18
 20045bc:	2006e940 	call	2006e94 <__malloc_unlock>
 20045c0:	80800204 	addi	r2,r16,8
 20045c4:	dfc00a17 	ldw	ra,40(sp)
 20045c8:	df000917 	ldw	fp,36(sp)
 20045cc:	ddc00817 	ldw	r23,32(sp)
 20045d0:	dd800717 	ldw	r22,28(sp)
 20045d4:	dd400617 	ldw	r21,24(sp)
 20045d8:	dd000517 	ldw	r20,20(sp)
 20045dc:	dcc00417 	ldw	r19,16(sp)
 20045e0:	dc800317 	ldw	r18,12(sp)
 20045e4:	dc400217 	ldw	r17,8(sp)
 20045e8:	dc000117 	ldw	r16,4(sp)
 20045ec:	dec00b04 	addi	sp,sp,44
 20045f0:	f800283a 	ret
 20045f4:	00800304 	movi	r2,12
 20045f8:	90800015 	stw	r2,0(r18)
 20045fc:	0005883a 	mov	r2,zero
 2004600:	003ff006 	br	20045c4 <__alt_mem_epcs_flash_controller+0xfdffb5c4>
 2004604:	01002004 	movi	r4,128
 2004608:	02001004 	movi	r8,64
 200460c:	01c00fc4 	movi	r7,63
 2004610:	003f6106 	br	2004398 <__alt_mem_epcs_flash_controller+0xfdffb398>
 2004614:	4009883a 	mov	r4,r8
 2004618:	003f7506 	br	20043f0 <__alt_mem_epcs_flash_controller+0xfdffb3f0>
 200461c:	81000317 	ldw	r4,12(r16)
 2004620:	003fde06 	br	200459c <__alt_mem_epcs_flash_controller+0xfdffb59c>
 2004624:	81c5883a 	add	r2,r16,r7
 2004628:	11400117 	ldw	r5,4(r2)
 200462c:	9009883a 	mov	r4,r18
 2004630:	29400054 	ori	r5,r5,1
 2004634:	11400115 	stw	r5,4(r2)
 2004638:	2006e940 	call	2006e94 <__malloc_unlock>
 200463c:	80800204 	addi	r2,r16,8
 2004640:	003fe006 	br	20045c4 <__alt_mem_epcs_flash_controller+0xfdffb5c4>
 2004644:	9c000217 	ldw	r16,8(r19)
 2004648:	00bfff04 	movi	r2,-4
 200464c:	85800117 	ldw	r22,4(r16)
 2004650:	b0ac703a 	and	r22,r22,r2
 2004654:	b4400336 	bltu	r22,r17,2004664 <_malloc_r+0x344>
 2004658:	b445c83a 	sub	r2,r22,r17
 200465c:	00c003c4 	movi	r3,15
 2004660:	18805d16 	blt	r3,r2,20047d8 <_malloc_r+0x4b8>
 2004664:	05c08234 	movhi	r23,520
 2004668:	00808234 	movhi	r2,520
 200466c:	10bda004 	addi	r2,r2,-2432
 2004670:	bdfd8d04 	addi	r23,r23,-2508
 2004674:	15400017 	ldw	r21,0(r2)
 2004678:	b8c00017 	ldw	r3,0(r23)
 200467c:	00bfffc4 	movi	r2,-1
 2004680:	858d883a 	add	r6,r16,r22
 2004684:	8d6b883a 	add	r21,r17,r21
 2004688:	1880ea26 	beq	r3,r2,2004a34 <_malloc_r+0x714>
 200468c:	ad4403c4 	addi	r21,r21,4111
 2004690:	00bc0004 	movi	r2,-4096
 2004694:	a8aa703a 	and	r21,r21,r2
 2004698:	a80b883a 	mov	r5,r21
 200469c:	9009883a 	mov	r4,r18
 20046a0:	d9800015 	stw	r6,0(sp)
 20046a4:	20058980 	call	2005898 <_sbrk_r>
 20046a8:	1029883a 	mov	r20,r2
 20046ac:	00bfffc4 	movi	r2,-1
 20046b0:	d9800017 	ldw	r6,0(sp)
 20046b4:	a080e826 	beq	r20,r2,2004a58 <_malloc_r+0x738>
 20046b8:	a180a636 	bltu	r20,r6,2004954 <_malloc_r+0x634>
 20046bc:	07008234 	movhi	fp,520
 20046c0:	e73daf04 	addi	fp,fp,-2372
 20046c4:	e0800017 	ldw	r2,0(fp)
 20046c8:	a887883a 	add	r3,r21,r2
 20046cc:	e0c00015 	stw	r3,0(fp)
 20046d0:	3500e626 	beq	r6,r20,2004a6c <_malloc_r+0x74c>
 20046d4:	b9000017 	ldw	r4,0(r23)
 20046d8:	00bfffc4 	movi	r2,-1
 20046dc:	2080ee26 	beq	r4,r2,2004a98 <_malloc_r+0x778>
 20046e0:	a185c83a 	sub	r2,r20,r6
 20046e4:	10c5883a 	add	r2,r2,r3
 20046e8:	e0800015 	stw	r2,0(fp)
 20046ec:	a0c001cc 	andi	r3,r20,7
 20046f0:	1800bc26 	beq	r3,zero,20049e4 <_malloc_r+0x6c4>
 20046f4:	a0e9c83a 	sub	r20,r20,r3
 20046f8:	00840204 	movi	r2,4104
 20046fc:	a5000204 	addi	r20,r20,8
 2004700:	10c7c83a 	sub	r3,r2,r3
 2004704:	a545883a 	add	r2,r20,r21
 2004708:	1083ffcc 	andi	r2,r2,4095
 200470c:	18abc83a 	sub	r21,r3,r2
 2004710:	a80b883a 	mov	r5,r21
 2004714:	9009883a 	mov	r4,r18
 2004718:	20058980 	call	2005898 <_sbrk_r>
 200471c:	00ffffc4 	movi	r3,-1
 2004720:	10c0e126 	beq	r2,r3,2004aa8 <_malloc_r+0x788>
 2004724:	1505c83a 	sub	r2,r2,r20
 2004728:	1545883a 	add	r2,r2,r21
 200472c:	10800054 	ori	r2,r2,1
 2004730:	e0c00017 	ldw	r3,0(fp)
 2004734:	9d000215 	stw	r20,8(r19)
 2004738:	a0800115 	stw	r2,4(r20)
 200473c:	a8c7883a 	add	r3,r21,r3
 2004740:	e0c00015 	stw	r3,0(fp)
 2004744:	84c00e26 	beq	r16,r19,2004780 <_malloc_r+0x460>
 2004748:	018003c4 	movi	r6,15
 200474c:	3580a72e 	bgeu	r6,r22,20049ec <_malloc_r+0x6cc>
 2004750:	81400117 	ldw	r5,4(r16)
 2004754:	013ffe04 	movi	r4,-8
 2004758:	b0bffd04 	addi	r2,r22,-12
 200475c:	1104703a 	and	r2,r2,r4
 2004760:	2900004c 	andi	r4,r5,1
 2004764:	2088b03a 	or	r4,r4,r2
 2004768:	81000115 	stw	r4,4(r16)
 200476c:	01400144 	movi	r5,5
 2004770:	8089883a 	add	r4,r16,r2
 2004774:	21400115 	stw	r5,4(r4)
 2004778:	21400215 	stw	r5,8(r4)
 200477c:	3080cd36 	bltu	r6,r2,2004ab4 <_malloc_r+0x794>
 2004780:	00808234 	movhi	r2,520
 2004784:	10bd9f04 	addi	r2,r2,-2436
 2004788:	11000017 	ldw	r4,0(r2)
 200478c:	20c0012e 	bgeu	r4,r3,2004794 <_malloc_r+0x474>
 2004790:	10c00015 	stw	r3,0(r2)
 2004794:	00808234 	movhi	r2,520
 2004798:	10bd9e04 	addi	r2,r2,-2440
 200479c:	11000017 	ldw	r4,0(r2)
 20047a0:	9c000217 	ldw	r16,8(r19)
 20047a4:	20c0012e 	bgeu	r4,r3,20047ac <_malloc_r+0x48c>
 20047a8:	10c00015 	stw	r3,0(r2)
 20047ac:	80c00117 	ldw	r3,4(r16)
 20047b0:	00bfff04 	movi	r2,-4
 20047b4:	1886703a 	and	r3,r3,r2
 20047b8:	1c45c83a 	sub	r2,r3,r17
 20047bc:	1c400236 	bltu	r3,r17,20047c8 <_malloc_r+0x4a8>
 20047c0:	00c003c4 	movi	r3,15
 20047c4:	18800416 	blt	r3,r2,20047d8 <_malloc_r+0x4b8>
 20047c8:	9009883a 	mov	r4,r18
 20047cc:	2006e940 	call	2006e94 <__malloc_unlock>
 20047d0:	0005883a 	mov	r2,zero
 20047d4:	003f7b06 	br	20045c4 <__alt_mem_epcs_flash_controller+0xfdffb5c4>
 20047d8:	88c00054 	ori	r3,r17,1
 20047dc:	80c00115 	stw	r3,4(r16)
 20047e0:	8463883a 	add	r17,r16,r17
 20047e4:	10800054 	ori	r2,r2,1
 20047e8:	9c400215 	stw	r17,8(r19)
 20047ec:	88800115 	stw	r2,4(r17)
 20047f0:	9009883a 	mov	r4,r18
 20047f4:	2006e940 	call	2006e94 <__malloc_unlock>
 20047f8:	80800204 	addi	r2,r16,8
 20047fc:	003f7106 	br	20045c4 <__alt_mem_epcs_flash_controller+0xfdffb5c4>
 2004800:	00c00504 	movi	r3,20
 2004804:	18804a2e 	bgeu	r3,r2,2004930 <_malloc_r+0x610>
 2004808:	00c01504 	movi	r3,84
 200480c:	18806e36 	bltu	r3,r2,20049c8 <_malloc_r+0x6a8>
 2004810:	8804d33a 	srli	r2,r17,12
 2004814:	12001bc4 	addi	r8,r2,111
 2004818:	11c01b84 	addi	r7,r2,110
 200481c:	4209883a 	add	r4,r8,r8
 2004820:	003edd06 	br	2004398 <__alt_mem_epcs_flash_controller+0xfdffb398>
 2004824:	3804d27a 	srli	r2,r7,9
 2004828:	00c00104 	movi	r3,4
 200482c:	1880442e 	bgeu	r3,r2,2004940 <_malloc_r+0x620>
 2004830:	00c00504 	movi	r3,20
 2004834:	18808136 	bltu	r3,r2,2004a3c <_malloc_r+0x71c>
 2004838:	11401704 	addi	r5,r2,92
 200483c:	10c016c4 	addi	r3,r2,91
 2004840:	294b883a 	add	r5,r5,r5
 2004844:	294b883a 	add	r5,r5,r5
 2004848:	294b883a 	add	r5,r5,r5
 200484c:	994b883a 	add	r5,r19,r5
 2004850:	28800017 	ldw	r2,0(r5)
 2004854:	01808234 	movhi	r6,520
 2004858:	297ffe04 	addi	r5,r5,-8
 200485c:	31b7a004 	addi	r6,r6,-8576
 2004860:	28806526 	beq	r5,r2,20049f8 <_malloc_r+0x6d8>
 2004864:	01bfff04 	movi	r6,-4
 2004868:	10c00117 	ldw	r3,4(r2)
 200486c:	1986703a 	and	r3,r3,r6
 2004870:	38c0022e 	bgeu	r7,r3,200487c <_malloc_r+0x55c>
 2004874:	10800217 	ldw	r2,8(r2)
 2004878:	28bffb1e 	bne	r5,r2,2004868 <__alt_mem_epcs_flash_controller+0xfdffb868>
 200487c:	11400317 	ldw	r5,12(r2)
 2004880:	98c00117 	ldw	r3,4(r19)
 2004884:	81400315 	stw	r5,12(r16)
 2004888:	80800215 	stw	r2,8(r16)
 200488c:	2c000215 	stw	r16,8(r5)
 2004890:	14000315 	stw	r16,12(r2)
 2004894:	003ef806 	br	2004478 <__alt_mem_epcs_flash_controller+0xfdffb478>
 2004898:	88c00054 	ori	r3,r17,1
 200489c:	80c00115 	stw	r3,4(r16)
 20048a0:	8463883a 	add	r17,r16,r17
 20048a4:	34400515 	stw	r17,20(r6)
 20048a8:	34400415 	stw	r17,16(r6)
 20048ac:	10c00054 	ori	r3,r2,1
 20048b0:	8a000315 	stw	r8,12(r17)
 20048b4:	8a000215 	stw	r8,8(r17)
 20048b8:	88c00115 	stw	r3,4(r17)
 20048bc:	88a3883a 	add	r17,r17,r2
 20048c0:	88800015 	stw	r2,0(r17)
 20048c4:	9009883a 	mov	r4,r18
 20048c8:	2006e940 	call	2006e94 <__malloc_unlock>
 20048cc:	80800204 	addi	r2,r16,8
 20048d0:	003f3c06 	br	20045c4 <__alt_mem_epcs_flash_controller+0xfdffb5c4>
 20048d4:	30c00117 	ldw	r3,4(r6)
 20048d8:	003ee706 	br	2004478 <__alt_mem_epcs_flash_controller+0xfdffb478>
 20048dc:	5ac00044 	addi	r11,r11,1
 20048e0:	588000cc 	andi	r2,r11,3
 20048e4:	31800204 	addi	r6,r6,8
 20048e8:	103efd1e 	bne	r2,zero,20044e0 <__alt_mem_epcs_flash_controller+0xfdffb4e0>
 20048ec:	00002406 	br	2004980 <_malloc_r+0x660>
 20048f0:	14000317 	ldw	r16,12(r2)
 20048f4:	143f251e 	bne	r2,r16,200458c <__alt_mem_epcs_flash_controller+0xfdffb58c>
 20048f8:	21000084 	addi	r4,r4,2
 20048fc:	003ebc06 	br	20043f0 <__alt_mem_epcs_flash_controller+0xfdffb3f0>
 2004900:	8085883a 	add	r2,r16,r2
 2004904:	10c00117 	ldw	r3,4(r2)
 2004908:	81000317 	ldw	r4,12(r16)
 200490c:	81400217 	ldw	r5,8(r16)
 2004910:	18c00054 	ori	r3,r3,1
 2004914:	10c00115 	stw	r3,4(r2)
 2004918:	29000315 	stw	r4,12(r5)
 200491c:	21400215 	stw	r5,8(r4)
 2004920:	9009883a 	mov	r4,r18
 2004924:	2006e940 	call	2006e94 <__malloc_unlock>
 2004928:	80800204 	addi	r2,r16,8
 200492c:	003f2506 	br	20045c4 <__alt_mem_epcs_flash_controller+0xfdffb5c4>
 2004930:	12001704 	addi	r8,r2,92
 2004934:	11c016c4 	addi	r7,r2,91
 2004938:	4209883a 	add	r4,r8,r8
 200493c:	003e9606 	br	2004398 <__alt_mem_epcs_flash_controller+0xfdffb398>
 2004940:	3804d1ba 	srli	r2,r7,6
 2004944:	11400e44 	addi	r5,r2,57
 2004948:	10c00e04 	addi	r3,r2,56
 200494c:	294b883a 	add	r5,r5,r5
 2004950:	003fbc06 	br	2004844 <__alt_mem_epcs_flash_controller+0xfdffb844>
 2004954:	84ff5926 	beq	r16,r19,20046bc <__alt_mem_epcs_flash_controller+0xfdffb6bc>
 2004958:	00808234 	movhi	r2,520
 200495c:	10b7a004 	addi	r2,r2,-8576
 2004960:	14000217 	ldw	r16,8(r2)
 2004964:	00bfff04 	movi	r2,-4
 2004968:	80c00117 	ldw	r3,4(r16)
 200496c:	1886703a 	and	r3,r3,r2
 2004970:	003f9106 	br	20047b8 <__alt_mem_epcs_flash_controller+0xfdffb7b8>
 2004974:	60800217 	ldw	r2,8(r12)
 2004978:	213fffc4 	addi	r4,r4,-1
 200497c:	1300651e 	bne	r2,r12,2004b14 <_malloc_r+0x7f4>
 2004980:	208000cc 	andi	r2,r4,3
 2004984:	633ffe04 	addi	r12,r12,-8
 2004988:	103ffa1e 	bne	r2,zero,2004974 <__alt_mem_epcs_flash_controller+0xfdffb974>
 200498c:	98800117 	ldw	r2,4(r19)
 2004990:	0146303a 	nor	r3,zero,r5
 2004994:	1884703a 	and	r2,r3,r2
 2004998:	98800115 	stw	r2,4(r19)
 200499c:	294b883a 	add	r5,r5,r5
 20049a0:	117f2836 	bltu	r2,r5,2004644 <__alt_mem_epcs_flash_controller+0xfdffb644>
 20049a4:	283f2726 	beq	r5,zero,2004644 <__alt_mem_epcs_flash_controller+0xfdffb644>
 20049a8:	2886703a 	and	r3,r5,r2
 20049ac:	5809883a 	mov	r4,r11
 20049b0:	183ec31e 	bne	r3,zero,20044c0 <__alt_mem_epcs_flash_controller+0xfdffb4c0>
 20049b4:	294b883a 	add	r5,r5,r5
 20049b8:	2886703a 	and	r3,r5,r2
 20049bc:	21000104 	addi	r4,r4,4
 20049c0:	183ffc26 	beq	r3,zero,20049b4 <__alt_mem_epcs_flash_controller+0xfdffb9b4>
 20049c4:	003ebe06 	br	20044c0 <__alt_mem_epcs_flash_controller+0xfdffb4c0>
 20049c8:	00c05504 	movi	r3,340
 20049cc:	18801236 	bltu	r3,r2,2004a18 <_malloc_r+0x6f8>
 20049d0:	8804d3fa 	srli	r2,r17,15
 20049d4:	12001e04 	addi	r8,r2,120
 20049d8:	11c01dc4 	addi	r7,r2,119
 20049dc:	4209883a 	add	r4,r8,r8
 20049e0:	003e6d06 	br	2004398 <__alt_mem_epcs_flash_controller+0xfdffb398>
 20049e4:	00c40004 	movi	r3,4096
 20049e8:	003f4606 	br	2004704 <__alt_mem_epcs_flash_controller+0xfdffb704>
 20049ec:	00800044 	movi	r2,1
 20049f0:	a0800115 	stw	r2,4(r20)
 20049f4:	003f7406 	br	20047c8 <__alt_mem_epcs_flash_controller+0xfdffb7c8>
 20049f8:	1805d0ba 	srai	r2,r3,2
 20049fc:	01c00044 	movi	r7,1
 2004a00:	30c00117 	ldw	r3,4(r6)
 2004a04:	388e983a 	sll	r7,r7,r2
 2004a08:	2805883a 	mov	r2,r5
 2004a0c:	38c6b03a 	or	r3,r7,r3
 2004a10:	30c00115 	stw	r3,4(r6)
 2004a14:	003f9b06 	br	2004884 <__alt_mem_epcs_flash_controller+0xfdffb884>
 2004a18:	00c15504 	movi	r3,1364
 2004a1c:	18801a36 	bltu	r3,r2,2004a88 <_malloc_r+0x768>
 2004a20:	8804d4ba 	srli	r2,r17,18
 2004a24:	12001f44 	addi	r8,r2,125
 2004a28:	11c01f04 	addi	r7,r2,124
 2004a2c:	4209883a 	add	r4,r8,r8
 2004a30:	003e5906 	br	2004398 <__alt_mem_epcs_flash_controller+0xfdffb398>
 2004a34:	ad400404 	addi	r21,r21,16
 2004a38:	003f1706 	br	2004698 <__alt_mem_epcs_flash_controller+0xfdffb698>
 2004a3c:	00c01504 	movi	r3,84
 2004a40:	18802336 	bltu	r3,r2,2004ad0 <_malloc_r+0x7b0>
 2004a44:	3804d33a 	srli	r2,r7,12
 2004a48:	11401bc4 	addi	r5,r2,111
 2004a4c:	10c01b84 	addi	r3,r2,110
 2004a50:	294b883a 	add	r5,r5,r5
 2004a54:	003f7b06 	br	2004844 <__alt_mem_epcs_flash_controller+0xfdffb844>
 2004a58:	9c000217 	ldw	r16,8(r19)
 2004a5c:	00bfff04 	movi	r2,-4
 2004a60:	80c00117 	ldw	r3,4(r16)
 2004a64:	1886703a 	and	r3,r3,r2
 2004a68:	003f5306 	br	20047b8 <__alt_mem_epcs_flash_controller+0xfdffb7b8>
 2004a6c:	3083ffcc 	andi	r2,r6,4095
 2004a70:	103f181e 	bne	r2,zero,20046d4 <__alt_mem_epcs_flash_controller+0xfdffb6d4>
 2004a74:	99000217 	ldw	r4,8(r19)
 2004a78:	b545883a 	add	r2,r22,r21
 2004a7c:	10800054 	ori	r2,r2,1
 2004a80:	20800115 	stw	r2,4(r4)
 2004a84:	003f3e06 	br	2004780 <__alt_mem_epcs_flash_controller+0xfdffb780>
 2004a88:	01003f84 	movi	r4,254
 2004a8c:	02001fc4 	movi	r8,127
 2004a90:	01c01f84 	movi	r7,126
 2004a94:	003e4006 	br	2004398 <__alt_mem_epcs_flash_controller+0xfdffb398>
 2004a98:	00808234 	movhi	r2,520
 2004a9c:	10bd8d04 	addi	r2,r2,-2508
 2004aa0:	15000015 	stw	r20,0(r2)
 2004aa4:	003f1106 	br	20046ec <__alt_mem_epcs_flash_controller+0xfdffb6ec>
 2004aa8:	00800044 	movi	r2,1
 2004aac:	002b883a 	mov	r21,zero
 2004ab0:	003f1f06 	br	2004730 <__alt_mem_epcs_flash_controller+0xfdffb730>
 2004ab4:	81400204 	addi	r5,r16,8
 2004ab8:	9009883a 	mov	r4,r18
 2004abc:	20062580 	call	2006258 <_free_r>
 2004ac0:	00808234 	movhi	r2,520
 2004ac4:	10bdaf04 	addi	r2,r2,-2372
 2004ac8:	10c00017 	ldw	r3,0(r2)
 2004acc:	003f2c06 	br	2004780 <__alt_mem_epcs_flash_controller+0xfdffb780>
 2004ad0:	00c05504 	movi	r3,340
 2004ad4:	18800536 	bltu	r3,r2,2004aec <_malloc_r+0x7cc>
 2004ad8:	3804d3fa 	srli	r2,r7,15
 2004adc:	11401e04 	addi	r5,r2,120
 2004ae0:	10c01dc4 	addi	r3,r2,119
 2004ae4:	294b883a 	add	r5,r5,r5
 2004ae8:	003f5606 	br	2004844 <__alt_mem_epcs_flash_controller+0xfdffb844>
 2004aec:	00c15504 	movi	r3,1364
 2004af0:	18800536 	bltu	r3,r2,2004b08 <_malloc_r+0x7e8>
 2004af4:	3804d4ba 	srli	r2,r7,18
 2004af8:	11401f44 	addi	r5,r2,125
 2004afc:	10c01f04 	addi	r3,r2,124
 2004b00:	294b883a 	add	r5,r5,r5
 2004b04:	003f4f06 	br	2004844 <__alt_mem_epcs_flash_controller+0xfdffb844>
 2004b08:	01403f84 	movi	r5,254
 2004b0c:	00c01f84 	movi	r3,126
 2004b10:	003f4c06 	br	2004844 <__alt_mem_epcs_flash_controller+0xfdffb844>
 2004b14:	98800117 	ldw	r2,4(r19)
 2004b18:	003fa006 	br	200499c <__alt_mem_epcs_flash_controller+0xfdffb99c>
 2004b1c:	8808d0fa 	srli	r4,r17,3
 2004b20:	20800044 	addi	r2,r4,1
 2004b24:	1085883a 	add	r2,r2,r2
 2004b28:	003e9006 	br	200456c <__alt_mem_epcs_flash_controller+0xfdffb56c>

02004b2c <memchr>:
 2004b2c:	208000cc 	andi	r2,r4,3
 2004b30:	280f883a 	mov	r7,r5
 2004b34:	10003426 	beq	r2,zero,2004c08 <memchr+0xdc>
 2004b38:	30bfffc4 	addi	r2,r6,-1
 2004b3c:	30001a26 	beq	r6,zero,2004ba8 <memchr+0x7c>
 2004b40:	20c00003 	ldbu	r3,0(r4)
 2004b44:	29803fcc 	andi	r6,r5,255
 2004b48:	30c0051e 	bne	r6,r3,2004b60 <memchr+0x34>
 2004b4c:	00001806 	br	2004bb0 <memchr+0x84>
 2004b50:	10001526 	beq	r2,zero,2004ba8 <memchr+0x7c>
 2004b54:	20c00003 	ldbu	r3,0(r4)
 2004b58:	10bfffc4 	addi	r2,r2,-1
 2004b5c:	30c01426 	beq	r6,r3,2004bb0 <memchr+0x84>
 2004b60:	21000044 	addi	r4,r4,1
 2004b64:	20c000cc 	andi	r3,r4,3
 2004b68:	183ff91e 	bne	r3,zero,2004b50 <__alt_mem_epcs_flash_controller+0xfdffbb50>
 2004b6c:	020000c4 	movi	r8,3
 2004b70:	40801136 	bltu	r8,r2,2004bb8 <memchr+0x8c>
 2004b74:	10000c26 	beq	r2,zero,2004ba8 <memchr+0x7c>
 2004b78:	20c00003 	ldbu	r3,0(r4)
 2004b7c:	29403fcc 	andi	r5,r5,255
 2004b80:	28c00b26 	beq	r5,r3,2004bb0 <memchr+0x84>
 2004b84:	20c00044 	addi	r3,r4,1
 2004b88:	39803fcc 	andi	r6,r7,255
 2004b8c:	2089883a 	add	r4,r4,r2
 2004b90:	00000306 	br	2004ba0 <memchr+0x74>
 2004b94:	18c00044 	addi	r3,r3,1
 2004b98:	197fffc3 	ldbu	r5,-1(r3)
 2004b9c:	31400526 	beq	r6,r5,2004bb4 <memchr+0x88>
 2004ba0:	1805883a 	mov	r2,r3
 2004ba4:	20fffb1e 	bne	r4,r3,2004b94 <__alt_mem_epcs_flash_controller+0xfdffbb94>
 2004ba8:	0005883a 	mov	r2,zero
 2004bac:	f800283a 	ret
 2004bb0:	2005883a 	mov	r2,r4
 2004bb4:	f800283a 	ret
 2004bb8:	28c03fcc 	andi	r3,r5,255
 2004bbc:	1812923a 	slli	r9,r3,8
 2004bc0:	02ffbff4 	movhi	r11,65279
 2004bc4:	02a02074 	movhi	r10,32897
 2004bc8:	48d2b03a 	or	r9,r9,r3
 2004bcc:	4806943a 	slli	r3,r9,16
 2004bd0:	5affbfc4 	addi	r11,r11,-257
 2004bd4:	52a02004 	addi	r10,r10,-32640
 2004bd8:	48d2b03a 	or	r9,r9,r3
 2004bdc:	20c00017 	ldw	r3,0(r4)
 2004be0:	48c6f03a 	xor	r3,r9,r3
 2004be4:	1acd883a 	add	r6,r3,r11
 2004be8:	00c6303a 	nor	r3,zero,r3
 2004bec:	30c6703a 	and	r3,r6,r3
 2004bf0:	1a86703a 	and	r3,r3,r10
 2004bf4:	183fe01e 	bne	r3,zero,2004b78 <__alt_mem_epcs_flash_controller+0xfdffbb78>
 2004bf8:	10bfff04 	addi	r2,r2,-4
 2004bfc:	21000104 	addi	r4,r4,4
 2004c00:	40bff636 	bltu	r8,r2,2004bdc <__alt_mem_epcs_flash_controller+0xfdffbbdc>
 2004c04:	003fdb06 	br	2004b74 <__alt_mem_epcs_flash_controller+0xfdffbb74>
 2004c08:	3005883a 	mov	r2,r6
 2004c0c:	003fd706 	br	2004b6c <__alt_mem_epcs_flash_controller+0xfdffbb6c>

02004c10 <memcpy>:
 2004c10:	defffd04 	addi	sp,sp,-12
 2004c14:	dfc00215 	stw	ra,8(sp)
 2004c18:	dc400115 	stw	r17,4(sp)
 2004c1c:	dc000015 	stw	r16,0(sp)
 2004c20:	00c003c4 	movi	r3,15
 2004c24:	2005883a 	mov	r2,r4
 2004c28:	1980452e 	bgeu	r3,r6,2004d40 <memcpy+0x130>
 2004c2c:	2906b03a 	or	r3,r5,r4
 2004c30:	18c000cc 	andi	r3,r3,3
 2004c34:	1800441e 	bne	r3,zero,2004d48 <memcpy+0x138>
 2004c38:	347ffc04 	addi	r17,r6,-16
 2004c3c:	8822d13a 	srli	r17,r17,4
 2004c40:	28c00104 	addi	r3,r5,4
 2004c44:	23400104 	addi	r13,r4,4
 2004c48:	8820913a 	slli	r16,r17,4
 2004c4c:	2b000204 	addi	r12,r5,8
 2004c50:	22c00204 	addi	r11,r4,8
 2004c54:	84000504 	addi	r16,r16,20
 2004c58:	2a800304 	addi	r10,r5,12
 2004c5c:	22400304 	addi	r9,r4,12
 2004c60:	2c21883a 	add	r16,r5,r16
 2004c64:	2811883a 	mov	r8,r5
 2004c68:	200f883a 	mov	r7,r4
 2004c6c:	41000017 	ldw	r4,0(r8)
 2004c70:	1fc00017 	ldw	ra,0(r3)
 2004c74:	63c00017 	ldw	r15,0(r12)
 2004c78:	39000015 	stw	r4,0(r7)
 2004c7c:	53800017 	ldw	r14,0(r10)
 2004c80:	6fc00015 	stw	ra,0(r13)
 2004c84:	5bc00015 	stw	r15,0(r11)
 2004c88:	4b800015 	stw	r14,0(r9)
 2004c8c:	18c00404 	addi	r3,r3,16
 2004c90:	39c00404 	addi	r7,r7,16
 2004c94:	42000404 	addi	r8,r8,16
 2004c98:	6b400404 	addi	r13,r13,16
 2004c9c:	63000404 	addi	r12,r12,16
 2004ca0:	5ac00404 	addi	r11,r11,16
 2004ca4:	52800404 	addi	r10,r10,16
 2004ca8:	4a400404 	addi	r9,r9,16
 2004cac:	1c3fef1e 	bne	r3,r16,2004c6c <__alt_mem_epcs_flash_controller+0xfdffbc6c>
 2004cb0:	89c00044 	addi	r7,r17,1
 2004cb4:	380e913a 	slli	r7,r7,4
 2004cb8:	310003cc 	andi	r4,r6,15
 2004cbc:	02c000c4 	movi	r11,3
 2004cc0:	11c7883a 	add	r3,r2,r7
 2004cc4:	29cb883a 	add	r5,r5,r7
 2004cc8:	5900212e 	bgeu	r11,r4,2004d50 <memcpy+0x140>
 2004ccc:	1813883a 	mov	r9,r3
 2004cd0:	2811883a 	mov	r8,r5
 2004cd4:	200f883a 	mov	r7,r4
 2004cd8:	42800017 	ldw	r10,0(r8)
 2004cdc:	4a400104 	addi	r9,r9,4
 2004ce0:	39ffff04 	addi	r7,r7,-4
 2004ce4:	4abfff15 	stw	r10,-4(r9)
 2004ce8:	42000104 	addi	r8,r8,4
 2004cec:	59fffa36 	bltu	r11,r7,2004cd8 <__alt_mem_epcs_flash_controller+0xfdffbcd8>
 2004cf0:	213fff04 	addi	r4,r4,-4
 2004cf4:	2008d0ba 	srli	r4,r4,2
 2004cf8:	318000cc 	andi	r6,r6,3
 2004cfc:	21000044 	addi	r4,r4,1
 2004d00:	2109883a 	add	r4,r4,r4
 2004d04:	2109883a 	add	r4,r4,r4
 2004d08:	1907883a 	add	r3,r3,r4
 2004d0c:	290b883a 	add	r5,r5,r4
 2004d10:	30000626 	beq	r6,zero,2004d2c <memcpy+0x11c>
 2004d14:	198d883a 	add	r6,r3,r6
 2004d18:	29c00003 	ldbu	r7,0(r5)
 2004d1c:	18c00044 	addi	r3,r3,1
 2004d20:	29400044 	addi	r5,r5,1
 2004d24:	19ffffc5 	stb	r7,-1(r3)
 2004d28:	19bffb1e 	bne	r3,r6,2004d18 <__alt_mem_epcs_flash_controller+0xfdffbd18>
 2004d2c:	dfc00217 	ldw	ra,8(sp)
 2004d30:	dc400117 	ldw	r17,4(sp)
 2004d34:	dc000017 	ldw	r16,0(sp)
 2004d38:	dec00304 	addi	sp,sp,12
 2004d3c:	f800283a 	ret
 2004d40:	2007883a 	mov	r3,r4
 2004d44:	003ff206 	br	2004d10 <__alt_mem_epcs_flash_controller+0xfdffbd10>
 2004d48:	2007883a 	mov	r3,r4
 2004d4c:	003ff106 	br	2004d14 <__alt_mem_epcs_flash_controller+0xfdffbd14>
 2004d50:	200d883a 	mov	r6,r4
 2004d54:	003fee06 	br	2004d10 <__alt_mem_epcs_flash_controller+0xfdffbd10>

02004d58 <memmove>:
 2004d58:	2005883a 	mov	r2,r4
 2004d5c:	29000b2e 	bgeu	r5,r4,2004d8c <memmove+0x34>
 2004d60:	298f883a 	add	r7,r5,r6
 2004d64:	21c0092e 	bgeu	r4,r7,2004d8c <memmove+0x34>
 2004d68:	2187883a 	add	r3,r4,r6
 2004d6c:	198bc83a 	sub	r5,r3,r6
 2004d70:	30004826 	beq	r6,zero,2004e94 <memmove+0x13c>
 2004d74:	39ffffc4 	addi	r7,r7,-1
 2004d78:	39000003 	ldbu	r4,0(r7)
 2004d7c:	18ffffc4 	addi	r3,r3,-1
 2004d80:	19000005 	stb	r4,0(r3)
 2004d84:	28fffb1e 	bne	r5,r3,2004d74 <__alt_mem_epcs_flash_controller+0xfdffbd74>
 2004d88:	f800283a 	ret
 2004d8c:	00c003c4 	movi	r3,15
 2004d90:	1980412e 	bgeu	r3,r6,2004e98 <memmove+0x140>
 2004d94:	2886b03a 	or	r3,r5,r2
 2004d98:	18c000cc 	andi	r3,r3,3
 2004d9c:	1800401e 	bne	r3,zero,2004ea0 <memmove+0x148>
 2004da0:	33fffc04 	addi	r15,r6,-16
 2004da4:	781ed13a 	srli	r15,r15,4
 2004da8:	28c00104 	addi	r3,r5,4
 2004dac:	13400104 	addi	r13,r2,4
 2004db0:	781c913a 	slli	r14,r15,4
 2004db4:	2b000204 	addi	r12,r5,8
 2004db8:	12c00204 	addi	r11,r2,8
 2004dbc:	73800504 	addi	r14,r14,20
 2004dc0:	2a800304 	addi	r10,r5,12
 2004dc4:	12400304 	addi	r9,r2,12
 2004dc8:	2b9d883a 	add	r14,r5,r14
 2004dcc:	2811883a 	mov	r8,r5
 2004dd0:	100f883a 	mov	r7,r2
 2004dd4:	41000017 	ldw	r4,0(r8)
 2004dd8:	39c00404 	addi	r7,r7,16
 2004ddc:	18c00404 	addi	r3,r3,16
 2004de0:	393ffc15 	stw	r4,-16(r7)
 2004de4:	193ffc17 	ldw	r4,-16(r3)
 2004de8:	6b400404 	addi	r13,r13,16
 2004dec:	5ac00404 	addi	r11,r11,16
 2004df0:	693ffc15 	stw	r4,-16(r13)
 2004df4:	61000017 	ldw	r4,0(r12)
 2004df8:	4a400404 	addi	r9,r9,16
 2004dfc:	42000404 	addi	r8,r8,16
 2004e00:	593ffc15 	stw	r4,-16(r11)
 2004e04:	51000017 	ldw	r4,0(r10)
 2004e08:	63000404 	addi	r12,r12,16
 2004e0c:	52800404 	addi	r10,r10,16
 2004e10:	493ffc15 	stw	r4,-16(r9)
 2004e14:	1bbfef1e 	bne	r3,r14,2004dd4 <__alt_mem_epcs_flash_controller+0xfdffbdd4>
 2004e18:	79000044 	addi	r4,r15,1
 2004e1c:	2008913a 	slli	r4,r4,4
 2004e20:	328003cc 	andi	r10,r6,15
 2004e24:	02c000c4 	movi	r11,3
 2004e28:	1107883a 	add	r3,r2,r4
 2004e2c:	290b883a 	add	r5,r5,r4
 2004e30:	5a801e2e 	bgeu	r11,r10,2004eac <memmove+0x154>
 2004e34:	1813883a 	mov	r9,r3
 2004e38:	2811883a 	mov	r8,r5
 2004e3c:	500f883a 	mov	r7,r10
 2004e40:	41000017 	ldw	r4,0(r8)
 2004e44:	4a400104 	addi	r9,r9,4
 2004e48:	39ffff04 	addi	r7,r7,-4
 2004e4c:	493fff15 	stw	r4,-4(r9)
 2004e50:	42000104 	addi	r8,r8,4
 2004e54:	59fffa36 	bltu	r11,r7,2004e40 <__alt_mem_epcs_flash_controller+0xfdffbe40>
 2004e58:	513fff04 	addi	r4,r10,-4
 2004e5c:	2008d0ba 	srli	r4,r4,2
 2004e60:	318000cc 	andi	r6,r6,3
 2004e64:	21000044 	addi	r4,r4,1
 2004e68:	2109883a 	add	r4,r4,r4
 2004e6c:	2109883a 	add	r4,r4,r4
 2004e70:	1907883a 	add	r3,r3,r4
 2004e74:	290b883a 	add	r5,r5,r4
 2004e78:	30000b26 	beq	r6,zero,2004ea8 <memmove+0x150>
 2004e7c:	198d883a 	add	r6,r3,r6
 2004e80:	29c00003 	ldbu	r7,0(r5)
 2004e84:	18c00044 	addi	r3,r3,1
 2004e88:	29400044 	addi	r5,r5,1
 2004e8c:	19ffffc5 	stb	r7,-1(r3)
 2004e90:	19bffb1e 	bne	r3,r6,2004e80 <__alt_mem_epcs_flash_controller+0xfdffbe80>
 2004e94:	f800283a 	ret
 2004e98:	1007883a 	mov	r3,r2
 2004e9c:	003ff606 	br	2004e78 <__alt_mem_epcs_flash_controller+0xfdffbe78>
 2004ea0:	1007883a 	mov	r3,r2
 2004ea4:	003ff506 	br	2004e7c <__alt_mem_epcs_flash_controller+0xfdffbe7c>
 2004ea8:	f800283a 	ret
 2004eac:	500d883a 	mov	r6,r10
 2004eb0:	003ff106 	br	2004e78 <__alt_mem_epcs_flash_controller+0xfdffbe78>

02004eb4 <memset>:
 2004eb4:	20c000cc 	andi	r3,r4,3
 2004eb8:	2005883a 	mov	r2,r4
 2004ebc:	18004426 	beq	r3,zero,2004fd0 <memset+0x11c>
 2004ec0:	31ffffc4 	addi	r7,r6,-1
 2004ec4:	30004026 	beq	r6,zero,2004fc8 <memset+0x114>
 2004ec8:	2813883a 	mov	r9,r5
 2004ecc:	200d883a 	mov	r6,r4
 2004ed0:	2007883a 	mov	r3,r4
 2004ed4:	00000406 	br	2004ee8 <memset+0x34>
 2004ed8:	3a3fffc4 	addi	r8,r7,-1
 2004edc:	31800044 	addi	r6,r6,1
 2004ee0:	38003926 	beq	r7,zero,2004fc8 <memset+0x114>
 2004ee4:	400f883a 	mov	r7,r8
 2004ee8:	18c00044 	addi	r3,r3,1
 2004eec:	32400005 	stb	r9,0(r6)
 2004ef0:	1a0000cc 	andi	r8,r3,3
 2004ef4:	403ff81e 	bne	r8,zero,2004ed8 <__alt_mem_epcs_flash_controller+0xfdffbed8>
 2004ef8:	010000c4 	movi	r4,3
 2004efc:	21c02d2e 	bgeu	r4,r7,2004fb4 <memset+0x100>
 2004f00:	29003fcc 	andi	r4,r5,255
 2004f04:	200c923a 	slli	r6,r4,8
 2004f08:	3108b03a 	or	r4,r6,r4
 2004f0c:	200c943a 	slli	r6,r4,16
 2004f10:	218cb03a 	or	r6,r4,r6
 2004f14:	010003c4 	movi	r4,15
 2004f18:	21c0182e 	bgeu	r4,r7,2004f7c <memset+0xc8>
 2004f1c:	3b3ffc04 	addi	r12,r7,-16
 2004f20:	6018d13a 	srli	r12,r12,4
 2004f24:	1a000104 	addi	r8,r3,4
 2004f28:	1ac00204 	addi	r11,r3,8
 2004f2c:	6008913a 	slli	r4,r12,4
 2004f30:	1a800304 	addi	r10,r3,12
 2004f34:	1813883a 	mov	r9,r3
 2004f38:	21000504 	addi	r4,r4,20
 2004f3c:	1909883a 	add	r4,r3,r4
 2004f40:	49800015 	stw	r6,0(r9)
 2004f44:	41800015 	stw	r6,0(r8)
 2004f48:	59800015 	stw	r6,0(r11)
 2004f4c:	51800015 	stw	r6,0(r10)
 2004f50:	42000404 	addi	r8,r8,16
 2004f54:	4a400404 	addi	r9,r9,16
 2004f58:	5ac00404 	addi	r11,r11,16
 2004f5c:	52800404 	addi	r10,r10,16
 2004f60:	413ff71e 	bne	r8,r4,2004f40 <__alt_mem_epcs_flash_controller+0xfdffbf40>
 2004f64:	63000044 	addi	r12,r12,1
 2004f68:	6018913a 	slli	r12,r12,4
 2004f6c:	39c003cc 	andi	r7,r7,15
 2004f70:	010000c4 	movi	r4,3
 2004f74:	1b07883a 	add	r3,r3,r12
 2004f78:	21c00e2e 	bgeu	r4,r7,2004fb4 <memset+0x100>
 2004f7c:	1813883a 	mov	r9,r3
 2004f80:	3811883a 	mov	r8,r7
 2004f84:	010000c4 	movi	r4,3
 2004f88:	49800015 	stw	r6,0(r9)
 2004f8c:	423fff04 	addi	r8,r8,-4
 2004f90:	4a400104 	addi	r9,r9,4
 2004f94:	223ffc36 	bltu	r4,r8,2004f88 <__alt_mem_epcs_flash_controller+0xfdffbf88>
 2004f98:	393fff04 	addi	r4,r7,-4
 2004f9c:	2008d0ba 	srli	r4,r4,2
 2004fa0:	39c000cc 	andi	r7,r7,3
 2004fa4:	21000044 	addi	r4,r4,1
 2004fa8:	2109883a 	add	r4,r4,r4
 2004fac:	2109883a 	add	r4,r4,r4
 2004fb0:	1907883a 	add	r3,r3,r4
 2004fb4:	38000526 	beq	r7,zero,2004fcc <memset+0x118>
 2004fb8:	19cf883a 	add	r7,r3,r7
 2004fbc:	19400005 	stb	r5,0(r3)
 2004fc0:	18c00044 	addi	r3,r3,1
 2004fc4:	38fffd1e 	bne	r7,r3,2004fbc <__alt_mem_epcs_flash_controller+0xfdffbfbc>
 2004fc8:	f800283a 	ret
 2004fcc:	f800283a 	ret
 2004fd0:	2007883a 	mov	r3,r4
 2004fd4:	300f883a 	mov	r7,r6
 2004fd8:	003fc706 	br	2004ef8 <__alt_mem_epcs_flash_controller+0xfdffbef8>

02004fdc <_putc_r>:
 2004fdc:	defffc04 	addi	sp,sp,-16
 2004fe0:	dc000215 	stw	r16,8(sp)
 2004fe4:	dfc00315 	stw	ra,12(sp)
 2004fe8:	2021883a 	mov	r16,r4
 2004fec:	20000226 	beq	r4,zero,2004ff8 <_putc_r+0x1c>
 2004ff0:	20800e17 	ldw	r2,56(r4)
 2004ff4:	10001b26 	beq	r2,zero,2005064 <_putc_r+0x88>
 2004ff8:	30800217 	ldw	r2,8(r6)
 2004ffc:	10bfffc4 	addi	r2,r2,-1
 2005000:	30800215 	stw	r2,8(r6)
 2005004:	10000a16 	blt	r2,zero,2005030 <_putc_r+0x54>
 2005008:	30800017 	ldw	r2,0(r6)
 200500c:	11400005 	stb	r5,0(r2)
 2005010:	30800017 	ldw	r2,0(r6)
 2005014:	10c00044 	addi	r3,r2,1
 2005018:	30c00015 	stw	r3,0(r6)
 200501c:	10800003 	ldbu	r2,0(r2)
 2005020:	dfc00317 	ldw	ra,12(sp)
 2005024:	dc000217 	ldw	r16,8(sp)
 2005028:	dec00404 	addi	sp,sp,16
 200502c:	f800283a 	ret
 2005030:	30c00617 	ldw	r3,24(r6)
 2005034:	10c00616 	blt	r2,r3,2005050 <_putc_r+0x74>
 2005038:	30800017 	ldw	r2,0(r6)
 200503c:	00c00284 	movi	r3,10
 2005040:	11400005 	stb	r5,0(r2)
 2005044:	30800017 	ldw	r2,0(r6)
 2005048:	11400003 	ldbu	r5,0(r2)
 200504c:	28fff11e 	bne	r5,r3,2005014 <__alt_mem_epcs_flash_controller+0xfdffc014>
 2005050:	8009883a 	mov	r4,r16
 2005054:	dfc00317 	ldw	ra,12(sp)
 2005058:	dc000217 	ldw	r16,8(sp)
 200505c:	dec00404 	addi	sp,sp,16
 2005060:	2005a281 	jmpi	2005a28 <__swbuf_r>
 2005064:	d9400015 	stw	r5,0(sp)
 2005068:	d9800115 	stw	r6,4(sp)
 200506c:	2003c800 	call	2003c80 <__sinit>
 2005070:	d9800117 	ldw	r6,4(sp)
 2005074:	d9400017 	ldw	r5,0(sp)
 2005078:	003fdf06 	br	2004ff8 <__alt_mem_epcs_flash_controller+0xfdffbff8>

0200507c <putc>:
 200507c:	00808234 	movhi	r2,520
 2005080:	defffc04 	addi	sp,sp,-16
 2005084:	10bd8c04 	addi	r2,r2,-2512
 2005088:	dc000115 	stw	r16,4(sp)
 200508c:	14000017 	ldw	r16,0(r2)
 2005090:	dc400215 	stw	r17,8(sp)
 2005094:	dfc00315 	stw	ra,12(sp)
 2005098:	2023883a 	mov	r17,r4
 200509c:	80000226 	beq	r16,zero,20050a8 <putc+0x2c>
 20050a0:	80800e17 	ldw	r2,56(r16)
 20050a4:	10001a26 	beq	r2,zero,2005110 <putc+0x94>
 20050a8:	28800217 	ldw	r2,8(r5)
 20050ac:	10bfffc4 	addi	r2,r2,-1
 20050b0:	28800215 	stw	r2,8(r5)
 20050b4:	10000b16 	blt	r2,zero,20050e4 <putc+0x68>
 20050b8:	28800017 	ldw	r2,0(r5)
 20050bc:	14400005 	stb	r17,0(r2)
 20050c0:	28800017 	ldw	r2,0(r5)
 20050c4:	10c00044 	addi	r3,r2,1
 20050c8:	28c00015 	stw	r3,0(r5)
 20050cc:	10800003 	ldbu	r2,0(r2)
 20050d0:	dfc00317 	ldw	ra,12(sp)
 20050d4:	dc400217 	ldw	r17,8(sp)
 20050d8:	dc000117 	ldw	r16,4(sp)
 20050dc:	dec00404 	addi	sp,sp,16
 20050e0:	f800283a 	ret
 20050e4:	28c00617 	ldw	r3,24(r5)
 20050e8:	10c00e16 	blt	r2,r3,2005124 <putc+0xa8>
 20050ec:	28800017 	ldw	r2,0(r5)
 20050f0:	01000284 	movi	r4,10
 20050f4:	14400005 	stb	r17,0(r2)
 20050f8:	28800017 	ldw	r2,0(r5)
 20050fc:	10c00003 	ldbu	r3,0(r2)
 2005100:	193ff01e 	bne	r3,r4,20050c4 <__alt_mem_epcs_flash_controller+0xfdffc0c4>
 2005104:	280d883a 	mov	r6,r5
 2005108:	180b883a 	mov	r5,r3
 200510c:	00000706 	br	200512c <putc+0xb0>
 2005110:	8009883a 	mov	r4,r16
 2005114:	d9400015 	stw	r5,0(sp)
 2005118:	2003c800 	call	2003c80 <__sinit>
 200511c:	d9400017 	ldw	r5,0(sp)
 2005120:	003fe106 	br	20050a8 <__alt_mem_epcs_flash_controller+0xfdffc0a8>
 2005124:	280d883a 	mov	r6,r5
 2005128:	880b883a 	mov	r5,r17
 200512c:	8009883a 	mov	r4,r16
 2005130:	dfc00317 	ldw	ra,12(sp)
 2005134:	dc400217 	ldw	r17,8(sp)
 2005138:	dc000117 	ldw	r16,4(sp)
 200513c:	dec00404 	addi	sp,sp,16
 2005140:	2005a281 	jmpi	2005a28 <__swbuf_r>

02005144 <_realloc_r>:
 2005144:	defff604 	addi	sp,sp,-40
 2005148:	dc800215 	stw	r18,8(sp)
 200514c:	dfc00915 	stw	ra,36(sp)
 2005150:	df000815 	stw	fp,32(sp)
 2005154:	ddc00715 	stw	r23,28(sp)
 2005158:	dd800615 	stw	r22,24(sp)
 200515c:	dd400515 	stw	r21,20(sp)
 2005160:	dd000415 	stw	r20,16(sp)
 2005164:	dcc00315 	stw	r19,12(sp)
 2005168:	dc400115 	stw	r17,4(sp)
 200516c:	dc000015 	stw	r16,0(sp)
 2005170:	3025883a 	mov	r18,r6
 2005174:	2800b726 	beq	r5,zero,2005454 <_realloc_r+0x310>
 2005178:	282b883a 	mov	r21,r5
 200517c:	2029883a 	mov	r20,r4
 2005180:	2006e700 	call	2006e70 <__malloc_lock>
 2005184:	a8bfff17 	ldw	r2,-4(r21)
 2005188:	043fff04 	movi	r16,-4
 200518c:	90c002c4 	addi	r3,r18,11
 2005190:	01000584 	movi	r4,22
 2005194:	acfffe04 	addi	r19,r21,-8
 2005198:	1420703a 	and	r16,r2,r16
 200519c:	20c0332e 	bgeu	r4,r3,200526c <_realloc_r+0x128>
 20051a0:	047ffe04 	movi	r17,-8
 20051a4:	1c62703a 	and	r17,r3,r17
 20051a8:	8807883a 	mov	r3,r17
 20051ac:	88005816 	blt	r17,zero,2005310 <_realloc_r+0x1cc>
 20051b0:	8c805736 	bltu	r17,r18,2005310 <_realloc_r+0x1cc>
 20051b4:	80c0300e 	bge	r16,r3,2005278 <_realloc_r+0x134>
 20051b8:	07008234 	movhi	fp,520
 20051bc:	e737a004 	addi	fp,fp,-8576
 20051c0:	e1c00217 	ldw	r7,8(fp)
 20051c4:	9c09883a 	add	r4,r19,r16
 20051c8:	22000117 	ldw	r8,4(r4)
 20051cc:	21c06326 	beq	r4,r7,200535c <_realloc_r+0x218>
 20051d0:	017fff84 	movi	r5,-2
 20051d4:	414a703a 	and	r5,r8,r5
 20051d8:	214b883a 	add	r5,r4,r5
 20051dc:	29800117 	ldw	r6,4(r5)
 20051e0:	3180004c 	andi	r6,r6,1
 20051e4:	30003f26 	beq	r6,zero,20052e4 <_realloc_r+0x1a0>
 20051e8:	1080004c 	andi	r2,r2,1
 20051ec:	10008326 	beq	r2,zero,20053fc <_realloc_r+0x2b8>
 20051f0:	900b883a 	mov	r5,r18
 20051f4:	a009883a 	mov	r4,r20
 20051f8:	20043200 	call	2004320 <_malloc_r>
 20051fc:	1025883a 	mov	r18,r2
 2005200:	10011e26 	beq	r2,zero,200567c <_realloc_r+0x538>
 2005204:	a93fff17 	ldw	r4,-4(r21)
 2005208:	10fffe04 	addi	r3,r2,-8
 200520c:	00bfff84 	movi	r2,-2
 2005210:	2084703a 	and	r2,r4,r2
 2005214:	9885883a 	add	r2,r19,r2
 2005218:	1880ee26 	beq	r3,r2,20055d4 <_realloc_r+0x490>
 200521c:	81bfff04 	addi	r6,r16,-4
 2005220:	00800904 	movi	r2,36
 2005224:	1180b836 	bltu	r2,r6,2005508 <_realloc_r+0x3c4>
 2005228:	00c004c4 	movi	r3,19
 200522c:	19809636 	bltu	r3,r6,2005488 <_realloc_r+0x344>
 2005230:	9005883a 	mov	r2,r18
 2005234:	a807883a 	mov	r3,r21
 2005238:	19000017 	ldw	r4,0(r3)
 200523c:	11000015 	stw	r4,0(r2)
 2005240:	19000117 	ldw	r4,4(r3)
 2005244:	11000115 	stw	r4,4(r2)
 2005248:	18c00217 	ldw	r3,8(r3)
 200524c:	10c00215 	stw	r3,8(r2)
 2005250:	a80b883a 	mov	r5,r21
 2005254:	a009883a 	mov	r4,r20
 2005258:	20062580 	call	2006258 <_free_r>
 200525c:	a009883a 	mov	r4,r20
 2005260:	2006e940 	call	2006e94 <__malloc_unlock>
 2005264:	9005883a 	mov	r2,r18
 2005268:	00001206 	br	20052b4 <_realloc_r+0x170>
 200526c:	00c00404 	movi	r3,16
 2005270:	1823883a 	mov	r17,r3
 2005274:	003fce06 	br	20051b0 <__alt_mem_epcs_flash_controller+0xfdffc1b0>
 2005278:	a825883a 	mov	r18,r21
 200527c:	8445c83a 	sub	r2,r16,r17
 2005280:	00c003c4 	movi	r3,15
 2005284:	18802636 	bltu	r3,r2,2005320 <_realloc_r+0x1dc>
 2005288:	99800117 	ldw	r6,4(r19)
 200528c:	9c07883a 	add	r3,r19,r16
 2005290:	3180004c 	andi	r6,r6,1
 2005294:	3420b03a 	or	r16,r6,r16
 2005298:	9c000115 	stw	r16,4(r19)
 200529c:	18800117 	ldw	r2,4(r3)
 20052a0:	10800054 	ori	r2,r2,1
 20052a4:	18800115 	stw	r2,4(r3)
 20052a8:	a009883a 	mov	r4,r20
 20052ac:	2006e940 	call	2006e94 <__malloc_unlock>
 20052b0:	9005883a 	mov	r2,r18
 20052b4:	dfc00917 	ldw	ra,36(sp)
 20052b8:	df000817 	ldw	fp,32(sp)
 20052bc:	ddc00717 	ldw	r23,28(sp)
 20052c0:	dd800617 	ldw	r22,24(sp)
 20052c4:	dd400517 	ldw	r21,20(sp)
 20052c8:	dd000417 	ldw	r20,16(sp)
 20052cc:	dcc00317 	ldw	r19,12(sp)
 20052d0:	dc800217 	ldw	r18,8(sp)
 20052d4:	dc400117 	ldw	r17,4(sp)
 20052d8:	dc000017 	ldw	r16,0(sp)
 20052dc:	dec00a04 	addi	sp,sp,40
 20052e0:	f800283a 	ret
 20052e4:	017fff04 	movi	r5,-4
 20052e8:	414a703a 	and	r5,r8,r5
 20052ec:	814d883a 	add	r6,r16,r5
 20052f0:	30c01f16 	blt	r6,r3,2005370 <_realloc_r+0x22c>
 20052f4:	20800317 	ldw	r2,12(r4)
 20052f8:	20c00217 	ldw	r3,8(r4)
 20052fc:	a825883a 	mov	r18,r21
 2005300:	3021883a 	mov	r16,r6
 2005304:	18800315 	stw	r2,12(r3)
 2005308:	10c00215 	stw	r3,8(r2)
 200530c:	003fdb06 	br	200527c <__alt_mem_epcs_flash_controller+0xfdffc27c>
 2005310:	00800304 	movi	r2,12
 2005314:	a0800015 	stw	r2,0(r20)
 2005318:	0005883a 	mov	r2,zero
 200531c:	003fe506 	br	20052b4 <__alt_mem_epcs_flash_controller+0xfdffc2b4>
 2005320:	98c00117 	ldw	r3,4(r19)
 2005324:	9c4b883a 	add	r5,r19,r17
 2005328:	11000054 	ori	r4,r2,1
 200532c:	18c0004c 	andi	r3,r3,1
 2005330:	1c62b03a 	or	r17,r3,r17
 2005334:	9c400115 	stw	r17,4(r19)
 2005338:	29000115 	stw	r4,4(r5)
 200533c:	2885883a 	add	r2,r5,r2
 2005340:	10c00117 	ldw	r3,4(r2)
 2005344:	29400204 	addi	r5,r5,8
 2005348:	a009883a 	mov	r4,r20
 200534c:	18c00054 	ori	r3,r3,1
 2005350:	10c00115 	stw	r3,4(r2)
 2005354:	20062580 	call	2006258 <_free_r>
 2005358:	003fd306 	br	20052a8 <__alt_mem_epcs_flash_controller+0xfdffc2a8>
 200535c:	017fff04 	movi	r5,-4
 2005360:	414a703a 	and	r5,r8,r5
 2005364:	89800404 	addi	r6,r17,16
 2005368:	8151883a 	add	r8,r16,r5
 200536c:	4180590e 	bge	r8,r6,20054d4 <_realloc_r+0x390>
 2005370:	1080004c 	andi	r2,r2,1
 2005374:	103f9e1e 	bne	r2,zero,20051f0 <__alt_mem_epcs_flash_controller+0xfdffc1f0>
 2005378:	adbffe17 	ldw	r22,-8(r21)
 200537c:	00bfff04 	movi	r2,-4
 2005380:	9dadc83a 	sub	r22,r19,r22
 2005384:	b1800117 	ldw	r6,4(r22)
 2005388:	3084703a 	and	r2,r6,r2
 200538c:	20002026 	beq	r4,zero,2005410 <_realloc_r+0x2cc>
 2005390:	80af883a 	add	r23,r16,r2
 2005394:	b96f883a 	add	r23,r23,r5
 2005398:	21c05f26 	beq	r4,r7,2005518 <_realloc_r+0x3d4>
 200539c:	b8c01c16 	blt	r23,r3,2005410 <_realloc_r+0x2cc>
 20053a0:	20800317 	ldw	r2,12(r4)
 20053a4:	20c00217 	ldw	r3,8(r4)
 20053a8:	81bfff04 	addi	r6,r16,-4
 20053ac:	01000904 	movi	r4,36
 20053b0:	18800315 	stw	r2,12(r3)
 20053b4:	10c00215 	stw	r3,8(r2)
 20053b8:	b0c00217 	ldw	r3,8(r22)
 20053bc:	b0800317 	ldw	r2,12(r22)
 20053c0:	b4800204 	addi	r18,r22,8
 20053c4:	18800315 	stw	r2,12(r3)
 20053c8:	10c00215 	stw	r3,8(r2)
 20053cc:	21801b36 	bltu	r4,r6,200543c <_realloc_r+0x2f8>
 20053d0:	008004c4 	movi	r2,19
 20053d4:	1180352e 	bgeu	r2,r6,20054ac <_realloc_r+0x368>
 20053d8:	a8800017 	ldw	r2,0(r21)
 20053dc:	b0800215 	stw	r2,8(r22)
 20053e0:	a8800117 	ldw	r2,4(r21)
 20053e4:	b0800315 	stw	r2,12(r22)
 20053e8:	008006c4 	movi	r2,27
 20053ec:	11807f36 	bltu	r2,r6,20055ec <_realloc_r+0x4a8>
 20053f0:	b0800404 	addi	r2,r22,16
 20053f4:	ad400204 	addi	r21,r21,8
 20053f8:	00002d06 	br	20054b0 <_realloc_r+0x36c>
 20053fc:	adbffe17 	ldw	r22,-8(r21)
 2005400:	00bfff04 	movi	r2,-4
 2005404:	9dadc83a 	sub	r22,r19,r22
 2005408:	b1000117 	ldw	r4,4(r22)
 200540c:	2084703a 	and	r2,r4,r2
 2005410:	b03f7726 	beq	r22,zero,20051f0 <__alt_mem_epcs_flash_controller+0xfdffc1f0>
 2005414:	80af883a 	add	r23,r16,r2
 2005418:	b8ff7516 	blt	r23,r3,20051f0 <__alt_mem_epcs_flash_controller+0xfdffc1f0>
 200541c:	b0800317 	ldw	r2,12(r22)
 2005420:	b0c00217 	ldw	r3,8(r22)
 2005424:	81bfff04 	addi	r6,r16,-4
 2005428:	01000904 	movi	r4,36
 200542c:	18800315 	stw	r2,12(r3)
 2005430:	10c00215 	stw	r3,8(r2)
 2005434:	b4800204 	addi	r18,r22,8
 2005438:	21bfe52e 	bgeu	r4,r6,20053d0 <__alt_mem_epcs_flash_controller+0xfdffc3d0>
 200543c:	a80b883a 	mov	r5,r21
 2005440:	9009883a 	mov	r4,r18
 2005444:	2004d580 	call	2004d58 <memmove>
 2005448:	b821883a 	mov	r16,r23
 200544c:	b027883a 	mov	r19,r22
 2005450:	003f8a06 	br	200527c <__alt_mem_epcs_flash_controller+0xfdffc27c>
 2005454:	300b883a 	mov	r5,r6
 2005458:	dfc00917 	ldw	ra,36(sp)
 200545c:	df000817 	ldw	fp,32(sp)
 2005460:	ddc00717 	ldw	r23,28(sp)
 2005464:	dd800617 	ldw	r22,24(sp)
 2005468:	dd400517 	ldw	r21,20(sp)
 200546c:	dd000417 	ldw	r20,16(sp)
 2005470:	dcc00317 	ldw	r19,12(sp)
 2005474:	dc800217 	ldw	r18,8(sp)
 2005478:	dc400117 	ldw	r17,4(sp)
 200547c:	dc000017 	ldw	r16,0(sp)
 2005480:	dec00a04 	addi	sp,sp,40
 2005484:	20043201 	jmpi	2004320 <_malloc_r>
 2005488:	a8c00017 	ldw	r3,0(r21)
 200548c:	90c00015 	stw	r3,0(r18)
 2005490:	a8c00117 	ldw	r3,4(r21)
 2005494:	90c00115 	stw	r3,4(r18)
 2005498:	00c006c4 	movi	r3,27
 200549c:	19804536 	bltu	r3,r6,20055b4 <_realloc_r+0x470>
 20054a0:	90800204 	addi	r2,r18,8
 20054a4:	a8c00204 	addi	r3,r21,8
 20054a8:	003f6306 	br	2005238 <__alt_mem_epcs_flash_controller+0xfdffc238>
 20054ac:	9005883a 	mov	r2,r18
 20054b0:	a8c00017 	ldw	r3,0(r21)
 20054b4:	b821883a 	mov	r16,r23
 20054b8:	b027883a 	mov	r19,r22
 20054bc:	10c00015 	stw	r3,0(r2)
 20054c0:	a8c00117 	ldw	r3,4(r21)
 20054c4:	10c00115 	stw	r3,4(r2)
 20054c8:	a8c00217 	ldw	r3,8(r21)
 20054cc:	10c00215 	stw	r3,8(r2)
 20054d0:	003f6a06 	br	200527c <__alt_mem_epcs_flash_controller+0xfdffc27c>
 20054d4:	9c67883a 	add	r19,r19,r17
 20054d8:	4445c83a 	sub	r2,r8,r17
 20054dc:	e4c00215 	stw	r19,8(fp)
 20054e0:	10800054 	ori	r2,r2,1
 20054e4:	98800115 	stw	r2,4(r19)
 20054e8:	a8bfff17 	ldw	r2,-4(r21)
 20054ec:	a009883a 	mov	r4,r20
 20054f0:	1080004c 	andi	r2,r2,1
 20054f4:	1462b03a 	or	r17,r2,r17
 20054f8:	ac7fff15 	stw	r17,-4(r21)
 20054fc:	2006e940 	call	2006e94 <__malloc_unlock>
 2005500:	a805883a 	mov	r2,r21
 2005504:	003f6b06 	br	20052b4 <__alt_mem_epcs_flash_controller+0xfdffc2b4>
 2005508:	a80b883a 	mov	r5,r21
 200550c:	9009883a 	mov	r4,r18
 2005510:	2004d580 	call	2004d58 <memmove>
 2005514:	003f4e06 	br	2005250 <__alt_mem_epcs_flash_controller+0xfdffc250>
 2005518:	89000404 	addi	r4,r17,16
 200551c:	b93fbc16 	blt	r23,r4,2005410 <__alt_mem_epcs_flash_controller+0xfdffc410>
 2005520:	b0800317 	ldw	r2,12(r22)
 2005524:	b0c00217 	ldw	r3,8(r22)
 2005528:	81bfff04 	addi	r6,r16,-4
 200552c:	01000904 	movi	r4,36
 2005530:	18800315 	stw	r2,12(r3)
 2005534:	10c00215 	stw	r3,8(r2)
 2005538:	b4800204 	addi	r18,r22,8
 200553c:	21804336 	bltu	r4,r6,200564c <_realloc_r+0x508>
 2005540:	008004c4 	movi	r2,19
 2005544:	11803f2e 	bgeu	r2,r6,2005644 <_realloc_r+0x500>
 2005548:	a8800017 	ldw	r2,0(r21)
 200554c:	b0800215 	stw	r2,8(r22)
 2005550:	a8800117 	ldw	r2,4(r21)
 2005554:	b0800315 	stw	r2,12(r22)
 2005558:	008006c4 	movi	r2,27
 200555c:	11803f36 	bltu	r2,r6,200565c <_realloc_r+0x518>
 2005560:	b0800404 	addi	r2,r22,16
 2005564:	ad400204 	addi	r21,r21,8
 2005568:	a8c00017 	ldw	r3,0(r21)
 200556c:	10c00015 	stw	r3,0(r2)
 2005570:	a8c00117 	ldw	r3,4(r21)
 2005574:	10c00115 	stw	r3,4(r2)
 2005578:	a8c00217 	ldw	r3,8(r21)
 200557c:	10c00215 	stw	r3,8(r2)
 2005580:	b447883a 	add	r3,r22,r17
 2005584:	bc45c83a 	sub	r2,r23,r17
 2005588:	e0c00215 	stw	r3,8(fp)
 200558c:	10800054 	ori	r2,r2,1
 2005590:	18800115 	stw	r2,4(r3)
 2005594:	b0800117 	ldw	r2,4(r22)
 2005598:	a009883a 	mov	r4,r20
 200559c:	1080004c 	andi	r2,r2,1
 20055a0:	1462b03a 	or	r17,r2,r17
 20055a4:	b4400115 	stw	r17,4(r22)
 20055a8:	2006e940 	call	2006e94 <__malloc_unlock>
 20055ac:	9005883a 	mov	r2,r18
 20055b0:	003f4006 	br	20052b4 <__alt_mem_epcs_flash_controller+0xfdffc2b4>
 20055b4:	a8c00217 	ldw	r3,8(r21)
 20055b8:	90c00215 	stw	r3,8(r18)
 20055bc:	a8c00317 	ldw	r3,12(r21)
 20055c0:	90c00315 	stw	r3,12(r18)
 20055c4:	30801126 	beq	r6,r2,200560c <_realloc_r+0x4c8>
 20055c8:	90800404 	addi	r2,r18,16
 20055cc:	a8c00404 	addi	r3,r21,16
 20055d0:	003f1906 	br	2005238 <__alt_mem_epcs_flash_controller+0xfdffc238>
 20055d4:	90ffff17 	ldw	r3,-4(r18)
 20055d8:	00bfff04 	movi	r2,-4
 20055dc:	a825883a 	mov	r18,r21
 20055e0:	1884703a 	and	r2,r3,r2
 20055e4:	80a1883a 	add	r16,r16,r2
 20055e8:	003f2406 	br	200527c <__alt_mem_epcs_flash_controller+0xfdffc27c>
 20055ec:	a8800217 	ldw	r2,8(r21)
 20055f0:	b0800415 	stw	r2,16(r22)
 20055f4:	a8800317 	ldw	r2,12(r21)
 20055f8:	b0800515 	stw	r2,20(r22)
 20055fc:	31000a26 	beq	r6,r4,2005628 <_realloc_r+0x4e4>
 2005600:	b0800604 	addi	r2,r22,24
 2005604:	ad400404 	addi	r21,r21,16
 2005608:	003fa906 	br	20054b0 <__alt_mem_epcs_flash_controller+0xfdffc4b0>
 200560c:	a9000417 	ldw	r4,16(r21)
 2005610:	90800604 	addi	r2,r18,24
 2005614:	a8c00604 	addi	r3,r21,24
 2005618:	91000415 	stw	r4,16(r18)
 200561c:	a9000517 	ldw	r4,20(r21)
 2005620:	91000515 	stw	r4,20(r18)
 2005624:	003f0406 	br	2005238 <__alt_mem_epcs_flash_controller+0xfdffc238>
 2005628:	a8c00417 	ldw	r3,16(r21)
 200562c:	ad400604 	addi	r21,r21,24
 2005630:	b0800804 	addi	r2,r22,32
 2005634:	b0c00615 	stw	r3,24(r22)
 2005638:	a8ffff17 	ldw	r3,-4(r21)
 200563c:	b0c00715 	stw	r3,28(r22)
 2005640:	003f9b06 	br	20054b0 <__alt_mem_epcs_flash_controller+0xfdffc4b0>
 2005644:	9005883a 	mov	r2,r18
 2005648:	003fc706 	br	2005568 <__alt_mem_epcs_flash_controller+0xfdffc568>
 200564c:	a80b883a 	mov	r5,r21
 2005650:	9009883a 	mov	r4,r18
 2005654:	2004d580 	call	2004d58 <memmove>
 2005658:	003fc906 	br	2005580 <__alt_mem_epcs_flash_controller+0xfdffc580>
 200565c:	a8800217 	ldw	r2,8(r21)
 2005660:	b0800415 	stw	r2,16(r22)
 2005664:	a8800317 	ldw	r2,12(r21)
 2005668:	b0800515 	stw	r2,20(r22)
 200566c:	31000726 	beq	r6,r4,200568c <_realloc_r+0x548>
 2005670:	b0800604 	addi	r2,r22,24
 2005674:	ad400404 	addi	r21,r21,16
 2005678:	003fbb06 	br	2005568 <__alt_mem_epcs_flash_controller+0xfdffc568>
 200567c:	a009883a 	mov	r4,r20
 2005680:	2006e940 	call	2006e94 <__malloc_unlock>
 2005684:	0005883a 	mov	r2,zero
 2005688:	003f0a06 	br	20052b4 <__alt_mem_epcs_flash_controller+0xfdffc2b4>
 200568c:	a8c00417 	ldw	r3,16(r21)
 2005690:	ad400604 	addi	r21,r21,24
 2005694:	b0800804 	addi	r2,r22,32
 2005698:	b0c00615 	stw	r3,24(r22)
 200569c:	a8ffff17 	ldw	r3,-4(r21)
 20056a0:	b0c00715 	stw	r3,28(r22)
 20056a4:	003fb006 	br	2005568 <__alt_mem_epcs_flash_controller+0xfdffc568>

020056a8 <lflush>:
 20056a8:	2080030b 	ldhu	r2,12(r4)
 20056ac:	00c00244 	movi	r3,9
 20056b0:	1080024c 	andi	r2,r2,9
 20056b4:	10c00226 	beq	r2,r3,20056c0 <lflush+0x18>
 20056b8:	0005883a 	mov	r2,zero
 20056bc:	f800283a 	ret
 20056c0:	20061041 	jmpi	2006104 <fflush>

020056c4 <__srefill_r>:
 20056c4:	defffc04 	addi	sp,sp,-16
 20056c8:	dc400115 	stw	r17,4(sp)
 20056cc:	dc000015 	stw	r16,0(sp)
 20056d0:	dfc00315 	stw	ra,12(sp)
 20056d4:	dc800215 	stw	r18,8(sp)
 20056d8:	2023883a 	mov	r17,r4
 20056dc:	2821883a 	mov	r16,r5
 20056e0:	20000226 	beq	r4,zero,20056ec <__srefill_r+0x28>
 20056e4:	20800e17 	ldw	r2,56(r4)
 20056e8:	10003c26 	beq	r2,zero,20057dc <__srefill_r+0x118>
 20056ec:	80c0030b 	ldhu	r3,12(r16)
 20056f0:	1908000c 	andi	r4,r3,8192
 20056f4:	1805883a 	mov	r2,r3
 20056f8:	2000071e 	bne	r4,zero,2005718 <__srefill_r+0x54>
 20056fc:	81001917 	ldw	r4,100(r16)
 2005700:	18880014 	ori	r2,r3,8192
 2005704:	00f7ffc4 	movi	r3,-8193
 2005708:	20c8703a 	and	r4,r4,r3
 200570c:	8080030d 	sth	r2,12(r16)
 2005710:	1007883a 	mov	r3,r2
 2005714:	81001915 	stw	r4,100(r16)
 2005718:	80000115 	stw	zero,4(r16)
 200571c:	1100080c 	andi	r4,r2,32
 2005720:	2000571e 	bne	r4,zero,2005880 <__srefill_r+0x1bc>
 2005724:	1100010c 	andi	r4,r2,4
 2005728:	20001f26 	beq	r4,zero,20057a8 <__srefill_r+0xe4>
 200572c:	81400c17 	ldw	r5,48(r16)
 2005730:	28000826 	beq	r5,zero,2005754 <__srefill_r+0x90>
 2005734:	80801004 	addi	r2,r16,64
 2005738:	28800226 	beq	r5,r2,2005744 <__srefill_r+0x80>
 200573c:	8809883a 	mov	r4,r17
 2005740:	20062580 	call	2006258 <_free_r>
 2005744:	80800f17 	ldw	r2,60(r16)
 2005748:	80000c15 	stw	zero,48(r16)
 200574c:	80800115 	stw	r2,4(r16)
 2005750:	1000391e 	bne	r2,zero,2005838 <__srefill_r+0x174>
 2005754:	80800417 	ldw	r2,16(r16)
 2005758:	10004b26 	beq	r2,zero,2005888 <__srefill_r+0x1c4>
 200575c:	8480030b 	ldhu	r18,12(r16)
 2005760:	908000cc 	andi	r2,r18,3
 2005764:	10001f1e 	bne	r2,zero,20057e4 <__srefill_r+0x120>
 2005768:	81800417 	ldw	r6,16(r16)
 200576c:	80800817 	ldw	r2,32(r16)
 2005770:	81c00517 	ldw	r7,20(r16)
 2005774:	81400717 	ldw	r5,28(r16)
 2005778:	81800015 	stw	r6,0(r16)
 200577c:	8809883a 	mov	r4,r17
 2005780:	103ee83a 	callr	r2
 2005784:	80800115 	stw	r2,4(r16)
 2005788:	00800e0e 	bge	zero,r2,20057c4 <__srefill_r+0x100>
 200578c:	0005883a 	mov	r2,zero
 2005790:	dfc00317 	ldw	ra,12(sp)
 2005794:	dc800217 	ldw	r18,8(sp)
 2005798:	dc400117 	ldw	r17,4(sp)
 200579c:	dc000017 	ldw	r16,0(sp)
 20057a0:	dec00404 	addi	sp,sp,16
 20057a4:	f800283a 	ret
 20057a8:	1100040c 	andi	r4,r2,16
 20057ac:	20003026 	beq	r4,zero,2005870 <__srefill_r+0x1ac>
 20057b0:	1080020c 	andi	r2,r2,8
 20057b4:	1000241e 	bne	r2,zero,2005848 <__srefill_r+0x184>
 20057b8:	18c00114 	ori	r3,r3,4
 20057bc:	80c0030d 	sth	r3,12(r16)
 20057c0:	003fe406 	br	2005754 <__alt_mem_epcs_flash_controller+0xfdffc754>
 20057c4:	80c0030b 	ldhu	r3,12(r16)
 20057c8:	1000161e 	bne	r2,zero,2005824 <__srefill_r+0x160>
 20057cc:	18c00814 	ori	r3,r3,32
 20057d0:	00bfffc4 	movi	r2,-1
 20057d4:	80c0030d 	sth	r3,12(r16)
 20057d8:	003fed06 	br	2005790 <__alt_mem_epcs_flash_controller+0xfdffc790>
 20057dc:	2003c800 	call	2003c80 <__sinit>
 20057e0:	003fc206 	br	20056ec <__alt_mem_epcs_flash_controller+0xfdffc6ec>
 20057e4:	00808234 	movhi	r2,520
 20057e8:	10bd8b04 	addi	r2,r2,-2516
 20057ec:	11000017 	ldw	r4,0(r2)
 20057f0:	01408034 	movhi	r5,512
 20057f4:	00800044 	movi	r2,1
 20057f8:	2955aa04 	addi	r5,r5,22184
 20057fc:	8080030d 	sth	r2,12(r16)
 2005800:	20041980 	call	2004198 <_fwalk>
 2005804:	00800244 	movi	r2,9
 2005808:	8480030d 	sth	r18,12(r16)
 200580c:	9480024c 	andi	r18,r18,9
 2005810:	90bfd51e 	bne	r18,r2,2005768 <__alt_mem_epcs_flash_controller+0xfdffc768>
 2005814:	800b883a 	mov	r5,r16
 2005818:	8809883a 	mov	r4,r17
 200581c:	2005e8c0 	call	2005e8c <__sflush_r>
 2005820:	003fd106 	br	2005768 <__alt_mem_epcs_flash_controller+0xfdffc768>
 2005824:	18c01014 	ori	r3,r3,64
 2005828:	80000115 	stw	zero,4(r16)
 200582c:	00bfffc4 	movi	r2,-1
 2005830:	80c0030d 	sth	r3,12(r16)
 2005834:	003fd606 	br	2005790 <__alt_mem_epcs_flash_controller+0xfdffc790>
 2005838:	80c00e17 	ldw	r3,56(r16)
 200583c:	0005883a 	mov	r2,zero
 2005840:	80c00015 	stw	r3,0(r16)
 2005844:	003fd206 	br	2005790 <__alt_mem_epcs_flash_controller+0xfdffc790>
 2005848:	800b883a 	mov	r5,r16
 200584c:	8809883a 	mov	r4,r17
 2005850:	20060a80 	call	20060a8 <_fflush_r>
 2005854:	10000a1e 	bne	r2,zero,2005880 <__srefill_r+0x1bc>
 2005858:	8080030b 	ldhu	r2,12(r16)
 200585c:	00fffdc4 	movi	r3,-9
 2005860:	80000215 	stw	zero,8(r16)
 2005864:	1886703a 	and	r3,r3,r2
 2005868:	80000615 	stw	zero,24(r16)
 200586c:	003fd206 	br	20057b8 <__alt_mem_epcs_flash_controller+0xfdffc7b8>
 2005870:	00800244 	movi	r2,9
 2005874:	88800015 	stw	r2,0(r17)
 2005878:	18c01014 	ori	r3,r3,64
 200587c:	80c0030d 	sth	r3,12(r16)
 2005880:	00bfffc4 	movi	r2,-1
 2005884:	003fc206 	br	2005790 <__alt_mem_epcs_flash_controller+0xfdffc790>
 2005888:	800b883a 	mov	r5,r16
 200588c:	8809883a 	mov	r4,r17
 2005890:	20065c80 	call	20065c8 <__smakebuf_r>
 2005894:	003fb106 	br	200575c <__alt_mem_epcs_flash_controller+0xfdffc75c>

02005898 <_sbrk_r>:
 2005898:	defffd04 	addi	sp,sp,-12
 200589c:	dc000015 	stw	r16,0(sp)
 20058a0:	04008234 	movhi	r16,520
 20058a4:	dc400115 	stw	r17,4(sp)
 20058a8:	843da104 	addi	r16,r16,-2428
 20058ac:	2023883a 	mov	r17,r4
 20058b0:	2809883a 	mov	r4,r5
 20058b4:	dfc00215 	stw	ra,8(sp)
 20058b8:	80000015 	stw	zero,0(r16)
 20058bc:	200707c0 	call	200707c <sbrk>
 20058c0:	00ffffc4 	movi	r3,-1
 20058c4:	10c00526 	beq	r2,r3,20058dc <_sbrk_r+0x44>
 20058c8:	dfc00217 	ldw	ra,8(sp)
 20058cc:	dc400117 	ldw	r17,4(sp)
 20058d0:	dc000017 	ldw	r16,0(sp)
 20058d4:	dec00304 	addi	sp,sp,12
 20058d8:	f800283a 	ret
 20058dc:	80c00017 	ldw	r3,0(r16)
 20058e0:	183ff926 	beq	r3,zero,20058c8 <__alt_mem_epcs_flash_controller+0xfdffc8c8>
 20058e4:	88c00015 	stw	r3,0(r17)
 20058e8:	003ff706 	br	20058c8 <__alt_mem_epcs_flash_controller+0xfdffc8c8>

020058ec <__sread>:
 20058ec:	defffe04 	addi	sp,sp,-8
 20058f0:	dc000015 	stw	r16,0(sp)
 20058f4:	2821883a 	mov	r16,r5
 20058f8:	2940038f 	ldh	r5,14(r5)
 20058fc:	dfc00115 	stw	ra,4(sp)
 2005900:	20067840 	call	2006784 <_read_r>
 2005904:	10000716 	blt	r2,zero,2005924 <__sread+0x38>
 2005908:	80c01417 	ldw	r3,80(r16)
 200590c:	1887883a 	add	r3,r3,r2
 2005910:	80c01415 	stw	r3,80(r16)
 2005914:	dfc00117 	ldw	ra,4(sp)
 2005918:	dc000017 	ldw	r16,0(sp)
 200591c:	dec00204 	addi	sp,sp,8
 2005920:	f800283a 	ret
 2005924:	80c0030b 	ldhu	r3,12(r16)
 2005928:	18fbffcc 	andi	r3,r3,61439
 200592c:	80c0030d 	sth	r3,12(r16)
 2005930:	dfc00117 	ldw	ra,4(sp)
 2005934:	dc000017 	ldw	r16,0(sp)
 2005938:	dec00204 	addi	sp,sp,8
 200593c:	f800283a 	ret

02005940 <__seofread>:
 2005940:	0005883a 	mov	r2,zero
 2005944:	f800283a 	ret

02005948 <__swrite>:
 2005948:	2880030b 	ldhu	r2,12(r5)
 200594c:	defffb04 	addi	sp,sp,-20
 2005950:	dcc00315 	stw	r19,12(sp)
 2005954:	dc800215 	stw	r18,8(sp)
 2005958:	dc400115 	stw	r17,4(sp)
 200595c:	dc000015 	stw	r16,0(sp)
 2005960:	dfc00415 	stw	ra,16(sp)
 2005964:	10c0400c 	andi	r3,r2,256
 2005968:	2821883a 	mov	r16,r5
 200596c:	2023883a 	mov	r17,r4
 2005970:	3025883a 	mov	r18,r6
 2005974:	3827883a 	mov	r19,r7
 2005978:	18000526 	beq	r3,zero,2005990 <__swrite+0x48>
 200597c:	2940038f 	ldh	r5,14(r5)
 2005980:	01c00084 	movi	r7,2
 2005984:	000d883a 	mov	r6,zero
 2005988:	20065680 	call	2006568 <_lseek_r>
 200598c:	8080030b 	ldhu	r2,12(r16)
 2005990:	8140038f 	ldh	r5,14(r16)
 2005994:	10bbffcc 	andi	r2,r2,61439
 2005998:	980f883a 	mov	r7,r19
 200599c:	900d883a 	mov	r6,r18
 20059a0:	8809883a 	mov	r4,r17
 20059a4:	8080030d 	sth	r2,12(r16)
 20059a8:	dfc00417 	ldw	ra,16(sp)
 20059ac:	dcc00317 	ldw	r19,12(sp)
 20059b0:	dc800217 	ldw	r18,8(sp)
 20059b4:	dc400117 	ldw	r17,4(sp)
 20059b8:	dc000017 	ldw	r16,0(sp)
 20059bc:	dec00504 	addi	sp,sp,20
 20059c0:	2005b801 	jmpi	2005b80 <_write_r>

020059c4 <__sseek>:
 20059c4:	defffe04 	addi	sp,sp,-8
 20059c8:	dc000015 	stw	r16,0(sp)
 20059cc:	2821883a 	mov	r16,r5
 20059d0:	2940038f 	ldh	r5,14(r5)
 20059d4:	dfc00115 	stw	ra,4(sp)
 20059d8:	20065680 	call	2006568 <_lseek_r>
 20059dc:	00ffffc4 	movi	r3,-1
 20059e0:	10c00826 	beq	r2,r3,2005a04 <__sseek+0x40>
 20059e4:	80c0030b 	ldhu	r3,12(r16)
 20059e8:	80801415 	stw	r2,80(r16)
 20059ec:	18c40014 	ori	r3,r3,4096
 20059f0:	80c0030d 	sth	r3,12(r16)
 20059f4:	dfc00117 	ldw	ra,4(sp)
 20059f8:	dc000017 	ldw	r16,0(sp)
 20059fc:	dec00204 	addi	sp,sp,8
 2005a00:	f800283a 	ret
 2005a04:	80c0030b 	ldhu	r3,12(r16)
 2005a08:	18fbffcc 	andi	r3,r3,61439
 2005a0c:	80c0030d 	sth	r3,12(r16)
 2005a10:	dfc00117 	ldw	ra,4(sp)
 2005a14:	dc000017 	ldw	r16,0(sp)
 2005a18:	dec00204 	addi	sp,sp,8
 2005a1c:	f800283a 	ret

02005a20 <__sclose>:
 2005a20:	2940038f 	ldh	r5,14(r5)
 2005a24:	2005d341 	jmpi	2005d34 <_close_r>

02005a28 <__swbuf_r>:
 2005a28:	defffb04 	addi	sp,sp,-20
 2005a2c:	dcc00315 	stw	r19,12(sp)
 2005a30:	dc800215 	stw	r18,8(sp)
 2005a34:	dc000015 	stw	r16,0(sp)
 2005a38:	dfc00415 	stw	ra,16(sp)
 2005a3c:	dc400115 	stw	r17,4(sp)
 2005a40:	2025883a 	mov	r18,r4
 2005a44:	2827883a 	mov	r19,r5
 2005a48:	3021883a 	mov	r16,r6
 2005a4c:	20000226 	beq	r4,zero,2005a58 <__swbuf_r+0x30>
 2005a50:	20800e17 	ldw	r2,56(r4)
 2005a54:	10004226 	beq	r2,zero,2005b60 <__swbuf_r+0x138>
 2005a58:	80800617 	ldw	r2,24(r16)
 2005a5c:	8100030b 	ldhu	r4,12(r16)
 2005a60:	80800215 	stw	r2,8(r16)
 2005a64:	2080020c 	andi	r2,r4,8
 2005a68:	10003626 	beq	r2,zero,2005b44 <__swbuf_r+0x11c>
 2005a6c:	80c00417 	ldw	r3,16(r16)
 2005a70:	18003426 	beq	r3,zero,2005b44 <__swbuf_r+0x11c>
 2005a74:	2088000c 	andi	r2,r4,8192
 2005a78:	9c403fcc 	andi	r17,r19,255
 2005a7c:	10001a26 	beq	r2,zero,2005ae8 <__swbuf_r+0xc0>
 2005a80:	80800017 	ldw	r2,0(r16)
 2005a84:	81000517 	ldw	r4,20(r16)
 2005a88:	10c7c83a 	sub	r3,r2,r3
 2005a8c:	1900200e 	bge	r3,r4,2005b10 <__swbuf_r+0xe8>
 2005a90:	18c00044 	addi	r3,r3,1
 2005a94:	81000217 	ldw	r4,8(r16)
 2005a98:	11400044 	addi	r5,r2,1
 2005a9c:	81400015 	stw	r5,0(r16)
 2005aa0:	213fffc4 	addi	r4,r4,-1
 2005aa4:	81000215 	stw	r4,8(r16)
 2005aa8:	14c00005 	stb	r19,0(r2)
 2005aac:	80800517 	ldw	r2,20(r16)
 2005ab0:	10c01e26 	beq	r2,r3,2005b2c <__swbuf_r+0x104>
 2005ab4:	8080030b 	ldhu	r2,12(r16)
 2005ab8:	1080004c 	andi	r2,r2,1
 2005abc:	10000226 	beq	r2,zero,2005ac8 <__swbuf_r+0xa0>
 2005ac0:	00800284 	movi	r2,10
 2005ac4:	88801926 	beq	r17,r2,2005b2c <__swbuf_r+0x104>
 2005ac8:	8805883a 	mov	r2,r17
 2005acc:	dfc00417 	ldw	ra,16(sp)
 2005ad0:	dcc00317 	ldw	r19,12(sp)
 2005ad4:	dc800217 	ldw	r18,8(sp)
 2005ad8:	dc400117 	ldw	r17,4(sp)
 2005adc:	dc000017 	ldw	r16,0(sp)
 2005ae0:	dec00504 	addi	sp,sp,20
 2005ae4:	f800283a 	ret
 2005ae8:	81401917 	ldw	r5,100(r16)
 2005aec:	00b7ffc4 	movi	r2,-8193
 2005af0:	21080014 	ori	r4,r4,8192
 2005af4:	2884703a 	and	r2,r5,r2
