
LEDTileHalloween.elf:     file format elf32-littlenios2
LEDTileHalloween.elf
architecture: nios2, flags 0x00000112:
EXEC_P, HAS_SYMS, D_PAGED
start address 0x0200022c

Program Header:
    LOAD off    0x00001020 vaddr 0x02000020 paddr 0x02000020 align 2**12
         filesz 0x0007f48c memsz 0x0007f604 flags rwx
    LOAD off    0x00081000 vaddr 0x04009000 paddr 0x04009000 align 2**12
         filesz 0x00000000 memsz 0x00000000 flags r-x

Sections:
Idx Name          Size      VMA       LMA       File off  Algn
  0 .entry        00000000  04009000  04009000  00081000  2**5
                  CONTENTS, ALLOC, LOAD, READONLY, CODE
  1 .exceptions   0000020c  02000020  02000020  00001020  2**2
                  CONTENTS, ALLOC, LOAD, READONLY, CODE
  2 .text         0000a824  0200022c  0200022c  0000122c  2**2
                  CONTENTS, ALLOC, LOAD, READONLY, CODE
  3 .rodata       00072ddc  0200aa50  0200aa50  0000ba50  2**2
                  CONTENTS, ALLOC, LOAD, READONLY, DATA
  4 .rwdata       00001c80  0207d82c  0207d82c  0007e82c  2**2
                  CONTENTS, ALLOC, LOAD, DATA, SMALL_DATA
  5 .bss          00000178  0207f4ac  0207f4ac  000804ac  2**2
                  ALLOC, SMALL_DATA
  6 .sdram_controller 00000000  0207f624  0207f624  00081000  2**0
                  CONTENTS
  7 .onchip_memory2 00000000  04000000  04000000  00081000  2**0
                  CONTENTS
  8 .epcs_flash_controller 00000000  04009020  04009020  00081000  2**0
                  CONTENTS
  9 .comment      00000039  00000000  00000000  00081000  2**0
                  CONTENTS, READONLY
 10 .debug_aranges 00000bc8  00000000  00000000  00081040  2**3
                  CONTENTS, READONLY, DEBUGGING
 11 .debug_info   0001df1b  00000000  00000000  00081c08  2**0
                  CONTENTS, READONLY, DEBUGGING
 12 .debug_abbrev 00007e75  00000000  00000000  0009fb23  2**0
                  CONTENTS, READONLY, DEBUGGING
 13 .debug_line   00008cdb  00000000  00000000  000a7998  2**0
                  CONTENTS, READONLY, DEBUGGING
 14 .debug_frame  00001fe8  00000000  00000000  000b0674  2**2
                  CONTENTS, READONLY, DEBUGGING
 15 .debug_str    000035dd  00000000  00000000  000b265c  2**0
                  CONTENTS, READONLY, DEBUGGING
 16 .debug_loc    0000811e  00000000  00000000  000b5c39  2**0
                  CONTENTS, READONLY, DEBUGGING
 17 .debug_alt_sim_info 00000010  00000000  00000000  000bdd58  2**2
                  CONTENTS, READONLY, DEBUGGING
 18 .debug_ranges 00000700  00000000  00000000  000bdd68  2**3
                  CONTENTS, READONLY, DEBUGGING
 19 .thread_model 00000003  00000000  00000000  000c1819  2**0
                  CONTENTS, READONLY
 20 .cpu          00000003  00000000  00000000  000c181c  2**0
                  CONTENTS, READONLY
 21 .qsys         00000001  00000000  00000000  000c181f  2**0
                  CONTENTS, READONLY
 22 .simulation_enabled 00000001  00000000  00000000  000c1820  2**0
                  CONTENTS, READONLY
 23 .sysid_hash   00000004  00000000  00000000  000c1821  2**0
                  CONTENTS, READONLY
 24 .sysid_base   00000004  00000000  00000000  000c1825  2**0
                  CONTENTS, READONLY
 25 .sysid_time   00000004  00000000  00000000  000c1829  2**0
                  CONTENTS, READONLY
 26 .stderr_dev   00000009  00000000  00000000  000c182d  2**0
                  CONTENTS, READONLY
 27 .stdin_dev    00000009  00000000  00000000  000c1836  2**0
                  CONTENTS, READONLY
 28 .stdout_dev   00000009  00000000  00000000  000c183f  2**0
                  CONTENTS, READONLY
 29 .sopc_system_name 00000004  00000000  00000000  000c1848  2**0
                  CONTENTS, READONLY
 30 .sopcinfo     0007c166  00000000  00000000  000c184c  2**0
                  CONTENTS, READONLY
SYMBOL TABLE:
04009000 l    d  .entry	00000000 .entry
02000020 l    d  .exceptions	00000000 .exceptions
0200022c l    d  .text	00000000 .text
0200aa50 l    d  .rodata	00000000 .rodata
0207d82c l    d  .rwdata	00000000 .rwdata
0207f4ac l    d  .bss	00000000 .bss
0207f624 l    d  .sdram_controller	00000000 .sdram_controller
04000000 l    d  .onchip_memory2	00000000 .onchip_memory2
04009020 l    d  .epcs_flash_controller	00000000 .epcs_flash_controller
00000000 l    d  .comment	00000000 .comment
00000000 l    d  .debug_aranges	00000000 .debug_aranges
00000000 l    d  .debug_info	00000000 .debug_info
00000000 l    d  .debug_abbrev	00000000 .debug_abbrev
00000000 l    d  .debug_line	00000000 .debug_line
00000000 l    d  .debug_frame	00000000 .debug_frame
00000000 l    d  .debug_str	00000000 .debug_str
00000000 l    d  .debug_loc	00000000 .debug_loc
00000000 l    d  .debug_alt_sim_info	00000000 .debug_alt_sim_info
00000000 l    d  .debug_ranges	00000000 .debug_ranges
00000000 l    df *ABS*	00000000 ../LEDTile_BSP2/obj/HAL/src/crt0.o
02000260 l       .text	00000000 alt_after_alt_main
00000000 l    df *ABS*	00000000 alt_irq_handler.c
00000000 l    df *ABS*	00000000 alt_instruction_exception_entry.c
00000000 l    df *ABS*	00000000 main.c
0207f4e4 l     O .bss	00000018 alarm
0207f4b0 l     O .bss	00000004 i.3005
00000000 l    df *ABS*	00000000 LEDTileLib.c
00000000 l    df *ABS*	00000000 lib2-divmod.c
02001f8c l     F .text	00000070 udivmodsi4
00000000 l    df *ABS*	00000000 divdf3.c
00000000 l    df *ABS*	00000000 muldf3.c
00000000 l    df *ABS*	00000000 fixdfsi.c
00000000 l    df *ABS*	00000000 floatsidf.c
00000000 l    df *ABS*	00000000 libgcc2.c
00000000 l    df *ABS*	00000000 lib2-mul.c
00000000 l    df *ABS*	00000000 libgcc2.c
00000000 l    df *ABS*	00000000 getc.c
00000000 l    df *ABS*	00000000 impure.c
0207d8a0 l     O .rwdata	00000424 impure_data
00000000 l    df *ABS*	00000000 putchar.c
00000000 l    df *ABS*	00000000 puts.c
00000000 l    df *ABS*	00000000 rget.c
00000000 l    df *ABS*	00000000 strlen.c
00000000 l    df *ABS*	00000000 findfp.c
02003770 l     F .text	00000008 __fp_lock
02003778 l     F .text	00000008 __fp_unlock
00000000 l    df *ABS*	00000000 fvwrite.c
00000000 l    df *ABS*	00000000 fwalk.c
00000000 l    df *ABS*	00000000 mallocr.c
00000000 l    df *ABS*	00000000 memchr.c
00000000 l    df *ABS*	00000000 memcpy.c
00000000 l    df *ABS*	00000000 memmove.c
00000000 l    df *ABS*	00000000 memset.c
00000000 l    df *ABS*	00000000 putc.c
00000000 l    df *ABS*	00000000 mallocr.c
00000000 l    df *ABS*	00000000 refill.c
020053f8 l     F .text	0000001c lflush
00000000 l    df *ABS*	00000000 sbrkr.c
00000000 l    df *ABS*	00000000 stdio.c
00000000 l    df *ABS*	00000000 wbuf.c
00000000 l    df *ABS*	00000000 writer.c
00000000 l    df *ABS*	00000000 wsetup.c
00000000 l    df *ABS*	00000000 closer.c
00000000 l    df *ABS*	00000000 fclose.c
00000000 l    df *ABS*	00000000 fflush.c
00000000 l    df *ABS*	00000000 mallocr.c
00000000 l    df *ABS*	00000000 int_errno.c
00000000 l    df *ABS*	00000000 lseekr.c
00000000 l    df *ABS*	00000000 makebuf.c
00000000 l    df *ABS*	00000000 readr.c
00000000 l    df *ABS*	00000000 fstatr.c
00000000 l    df *ABS*	00000000 isattyr.c
00000000 l    df *ABS*	00000000 alt_alarm_start.c
00000000 l    df *ABS*	00000000 alt_close.c
02006784 l     F .text	00000050 alt_get_errno
00000000 l    df *ABS*	00000000 alt_dev.c
020068a4 l     F .text	0000002c alt_dev_null_write
00000000 l    df *ABS*	00000000 alt_errno.c
00000000 l    df *ABS*	00000000 alt_fstat.c
020068d0 l     F .text	00000050 alt_get_errno
00000000 l    df *ABS*	00000000 alt_isatty.c
020069d4 l     F .text	00000050 alt_get_errno
00000000 l    df *ABS*	00000000 alt_lseek.c
02006acc l     F .text	00000050 alt_get_errno
00000000 l    df *ABS*	00000000 alt_main.c
00000000 l    df *ABS*	00000000 alt_malloc_lock.c
00000000 l    df *ABS*	00000000 alt_read.c
02006cac l     F .text	00000050 alt_get_errno
00000000 l    df *ABS*	00000000 alt_release_fd.c
00000000 l    df *ABS*	00000000 alt_sbrk.c
0207f494 l     O .rwdata	00000004 heap_end
00000000 l    df *ABS*	00000000 alt_tick.c
00000000 l    df *ABS*	00000000 alt_write.c
020070c0 l     F .text	00000050 alt_get_errno
00000000 l    df *ABS*	00000000 alt_sys_init.c
02007204 l     F .text	00000038 alt_dev_reg
0207e274 l     O .rwdata	000000c8 epcs_flash_controller
0207e33c l     O .rwdata	00001060 jtag_uart
0207f39c l     O .rwdata	000000c4 uart_0
00000000 l    df *ABS*	00000000 altera_avalon_epcs_flash_controller.c
020072fc l     F .text	00000038 alt_flash_device_register
02007388 l     F .text	000003f8 alt_epcs_flash_query
02007780 l     F .text	000000e8 alt_epcs_flash_memcmp
02007b54 l     F .text	00000094 alt_epcs_test_address
00000000 l    df *ABS*	00000000 altera_avalon_jtag_uart_fd.c
00000000 l    df *ABS*	00000000 altera_avalon_jtag_uart_init.c
0200801c l     F .text	000001fc altera_avalon_jtag_uart_irq
02008218 l     F .text	000000a4 altera_avalon_jtag_uart_timeout
00000000 l    df *ABS*	00000000 altera_avalon_jtag_uart_ioctl.c
00000000 l    df *ABS*	00000000 altera_avalon_jtag_uart_read.c
00000000 l    df *ABS*	00000000 altera_avalon_jtag_uart_write.c
00000000 l    df *ABS*	00000000 altera_avalon_timer_sc.c
02008830 l     F .text	00000074 alt_avalon_timer_sc_irq
00000000 l    df *ABS*	00000000 altera_avalon_uart_fd.c
00000000 l    df *ABS*	00000000 altera_avalon_uart_init.c
02008ae4 l     F .text	00000098 altera_avalon_uart_irq
02008b7c l     F .text	000000dc altera_avalon_uart_rxirq
02008c58 l     F .text	00000144 altera_avalon_uart_txirq
00000000 l    df *ABS*	00000000 altera_avalon_uart_read.c
02008df0 l     F .text	00000050 alt_get_errno
00000000 l    df *ABS*	00000000 altera_avalon_uart_write.c
0200901c l     F .text	00000050 alt_get_errno
00000000 l    df *ABS*	00000000 epcs_commands.c
02009270 l     F .text	00000038 epcs_test_wip
020092a8 l     F .text	00000038 epcs_await_wip_released
00000000 l    df *ABS*	00000000 alt_dev_llist_insert.c
02009840 l     F .text	00000050 alt_get_errno
00000000 l    df *ABS*	00000000 alt_do_ctors.c
00000000 l    df *ABS*	00000000 alt_do_dtors.c
00000000 l    df *ABS*	00000000 alt_flash_dev.c
00000000 l    df *ABS*	00000000 alt_iic.c
00000000 l    df *ABS*	00000000 alt_iic_isr_register.c
00000000 l    df *ABS*	00000000 alt_io_redirect.c
02009d68 l     F .text	000000e0 alt_open_fd
00000000 l    df *ABS*	00000000 alt_irq_vars.c
00000000 l    df *ABS*	00000000 alt_open.c
02009ec0 l     F .text	00000050 alt_get_errno
02009f10 l     F .text	000000f4 alt_file_locked
00000000 l    df *ABS*	00000000 altera_nios2_gen2_irq.c
00000000 l    df *ABS*	00000000 altera_avalon_spi.c
00000000 l    df *ABS*	00000000 alt_find_dev.c
00000000 l    df *ABS*	00000000 alt_find_file.c
00000000 l    df *ABS*	00000000 alt_get_fd.c
00000000 l    df *ABS*	00000000 atexit.c
00000000 l    df *ABS*	00000000 exit.c
00000000 l    df *ABS*	00000000 memcmp.c
00000000 l    df *ABS*	00000000 __atexit.c
00000000 l    df *ABS*	00000000 __call_atexit.c
00000000 l    df *ABS*	00000000 alt_exit.c
0207f4e0 g     O .bss	00000004 alt_instruction_exception_handler
02003574 g     F .text	0000001c putchar
02025c28 g     O .rodata	0000000c Edgar
02007ac8 g     F .text	0000008c alt_epcs_flash_get_info
020065e0 g     F .text	00000064 _isatty_r
02006bf4 g     F .text	00000078 alt_main
02003590 g     F .text	000000b8 _puts_r
0207f524 g     O .bss	00000100 alt_irq
020062ec g     F .text	0000006c _lseek_r
0201db70 g     O .rodata	0000000c Coin
0207f624 g       *ABS*	00000000 __alt_heap_start
0200041c g     F .text	000000d8 blank
02005728 g     F .text	0000005c __sseek
0200381c g     F .text	0000019c __sinit
0200578c g     F .text	00000180 __swbuf_r
0200378c g     F .text	00000078 __sfmoreglue
02006c8c g     F .text	00000020 __malloc_unlock
020002a0 g     F .text	00000074 frame_callback
0207d4d0 g     O .rodata	00000200 gamma46half
02004ad8 g     F .text	0000013c memmove
02003804 g     F .text	00000018 _cleanup
0201cb5c g     O .rodata	0000000c Bowser
02022be4 g     O .rodata	0000000c RedSlime
0200a160 g     F .text	00000020 altera_nios2_gen2_irq_init
00000000  w      *UND*	00000000 __errno
020092e0 g     F .text	000000f8 epcs_sector_erase
04009000 g     F .entry	00000000 __reset
02006578 g     F .text	00000068 _fstat_r
0207f4c4 g     O .bss	00000004 errno
020036d0 g     F .text	00000014 __srget
020056a4 g     F .text	00000008 __seofread
02000000 g       *ABS*	00000000 __alt_mem_sdram_controller
0207f4b4 g     O .bss	00000004 currentAnimation
0207f4cc g     O .bss	00000004 alt_argv
02087460 g       *ABS*	00000000 _gp
02068cac g     O .rodata	0000000c ie
0207e0f4 g     O .rwdata	00000180 alt_fd_list
02003460 g     F .text	00000080 _getc_r
020034e0 g     F .text	0000008c getc
0200356c g     F .text	00000008 _putchar_r
0200951c g     F .text	00000068 epcs_write_status_register
0200a37c g     F .text	00000090 alt_find_dev
020049cc g     F .text	0000010c memcpy
02003780 g     F .text	0000000c _cleanup_r
020032bc g     F .text	000000d0 .hidden __floatsidf
0207d82c g     O .rwdata	00000068 animations
0207ced0 g     O .rodata	00000200 cie1931
02009e48 g     F .text	00000078 alt_io_redirect
0200aa50 g       *ABS*	00000000 __DTOR_END__
02003648 g     F .text	00000014 puts
0200a5f4 g     F .text	000000a0 alt_exception_cause_generated_bad_addr
02012a9c g     O .rodata	0000000c RedPotionZelda1
02007c5c g     F .text	00000104 alt_epcs_flash_write_block
02008410 g     F .text	00000208 altera_avalon_jtag_uart_read
00000000  w      *UND*	00000000 malloc
02002090 g     F .text	00000008 .hidden __udivsi3
02006a24 g     F .text	000000a8 isatty
0201fb9c g     O .rodata	0000000c Link
0207f4c0 g     O .bss	00000004 __malloc_top_pad
0201eb88 g     O .rodata	0000000c MegaMan
02003b14 g     F .text	000004ac __sfvwrite_r
020055ec g     F .text	00000064 _sbrk_r
02010a84 g     O .rodata	0000000c Rupee
0200650c g     F .text	0000006c _read_r
0207f48c g     O .rwdata	00000004 alt_max_fd
02019b14 g     O .rodata	0000000c Goomba
02005b30 g     F .text	00000128 _fclose_r
0200aa60 g     O .rodata	0000000c question
02005eb0 g     F .text	00000030 fflush
0207f4bc g     O .bss	00000004 __malloc_max_sbrked_mem
02007be8 g     F .text	00000074 alt_epcs_flash_erase_block
02014ac8 g     O .rodata	0000000c FF4Chest
02006b1c g     F .text	000000d8 lseek
0207f46c g     O .rwdata	00000004 _global_impure_ptr
020097e4 g     F .text	0000005c epcs_exit_4_bytes_mode
02004e94 g     F .text	00000564 _realloc_r
0207f624 g       *ABS*	00000000 __bss_end
02009c78 g     F .text	000000f0 alt_iic_isr_register
02023bfc g     O .rodata	0000000c BlueGhost
02006fbc g     F .text	00000104 alt_tick
0207f468 g     O .rwdata	00000004 numBitmaps
02008a3c g     F .text	000000a8 altera_avalon_uart_init
0207d0d0 g     O .rodata	00000200 gamma149half
02003ae4 g     F .text	00000018 __fp_lock_all
02009c2c g     F .text	0000004c alt_ic_irq_enabled
0207f4ac g     O .bss	00000004 state
02006f24 g     F .text	00000098 alt_alarm_stop
0200ea70 g     O .rodata	0000000c Cid_Walk_Front
0207f4dc g     O .bss	00000004 alt_irq_active
020000fc g     F .exceptions	000000d0 alt_irq_handler
0207e0cc g     O .rwdata	00000028 alt_dev_null
02028c6c g     O .rodata	0000000c mosaic
0200323c g     F .text	00000080 .hidden __fixdfsi
02013ab0 g     O .rodata	0000000c BombZelda1
0207f484 g     O .rwdata	00000008 alt_dev_list
02027c54 g     O .rodata	0000000c ns6icon
02007110 g     F .text	000000f4 write
02004d28 g     F .text	000000a0 _putc_r
02006920 g     F .text	000000b4 fstat
02001b28 g     F .text	00000464 displayGamma46ColourBars
02002098 g     F .text	00000008 .hidden __umodsi3
020096a0 g     F .text	00000068 epcs_read_electronic_signature
0201ab2c g     O .rodata	0000000c CheepCheep
0207f624 g       *ABS*	00000000 end
0200906c g     F .text	000001a8 altera_avalon_uart_write
02007f5c g     F .text	000000c0 altera_avalon_jtag_uart_init
020001cc g     F .exceptions	00000060 alt_instruction_exception_entry
02020bb4 g     O .rodata	0000000c Kain
0200aa50 g       *ABS*	00000000 __CTOR_LIST__
04000000 g       *ABS*	00000000 __alt_stack_pointer
020088a4 g     F .text	00000088 alt_avalon_timer_sc_init
0200898c g     F .text	00000060 altera_avalon_uart_write_fd
0200338c g     F .text	000000ac .hidden __clzsi2
020089ec g     F .text	00000050 altera_avalon_uart_close_fd
02008618 g     F .text	00000218 altera_avalon_jtag_uart_write
02003ad4 g     F .text	00000004 __sfp_lock_acquire
020048e4 g     F .text	000000e8 memchr
0200601c g     F .text	000002d0 _free_r
0200a878 g     F .text	000001a4 __call_exitprocs
0200365c g     F .text	00000074 __srget_r
0207f474 g     O .rwdata	00000004 __malloc_sbrk_base
0200022c g     F .text	00000038 _start
0207f4d4 g     O .bss	00000004 _alt_tick_rate
0200a180 g     F .text	000001fc alt_avalon_spi_command
0207f4d8 g     O .bss	00000004 _alt_nticks
02006cfc g     F .text	000000f8 read
02007270 g     F .text	0000008c alt_sys_init
0200a75c g     F .text	0000011c __register_exitproc
020082bc g     F .text	00000068 altera_avalon_jtag_uart_close
02003438 g     F .text	00000028 .hidden __mulsi3
0207f4fc g     O .bss	00000028 __malloc_current_mallinfo
02001260 g     F .text	00000464 displayGamma149ColourBars
02009214 g     F .text	0000005c epcs_read_status_register
02007df8 g     F .text	00000060 altera_avalon_jtag_uart_read_fd
0200a520 g     F .text	000000d4 alt_get_fd
02005acc g     F .text	00000064 _close_r
0207d894 g     O .rwdata	0000000c halloweenAnimations
02009708 g     F .text	00000080 epcs_read_device_id
0200a6e0 g     F .text	0000007c memcmp
02007eb8 g     F .text	00000050 altera_avalon_jtag_uart_close_fd
0207f624 g       *ABS*	00000000 __alt_stack_base
02007f08 g     F .text	00000054 altera_avalon_jtag_uart_ioctl_fd
02024c14 g     O .rodata	0000000c CecilHead
02005994 g     F .text	00000138 __swsetup_r
020020a0 g     F .text	0000099c .hidden __divdf3
020039b8 g     F .text	0000011c __sfp
0207dcc4 g     O .rwdata	00000408 __malloc_av_
02003ae0 g     F .text	00000004 __sinit_lock_release
02002a3c g     F .text	00000800 .hidden __muldf3
04009000 g       *ABS*	00000000 __alt_mem_epcs_flash_controller
02005650 g     F .text	00000054 __sread
0200a40c g     F .text	00000114 alt_find_file
02009890 g     F .text	000000a0 alt_dev_llist_insert
02006c6c g     F .text	00000020 __malloc_lock
02006e74 g     F .text	000000b0 sbrk
020004f4 g     F .text	00000144 displayBitmap
02005c6c g     F .text	00000244 _fflush_r
0207f4a0 g     O .rwdata	00000008 alt_flash_dev_list
020016c4 g     F .text	00000464 displayGamma98ColourBars
0201bb48 g     O .rodata	0000000c KoopaTroopa
02021bcc g     O .rodata	0000000c BlueVirus
0207f4ac g       *ABS*	00000000 __bss_start
02000638 g     F .text	000007c4 displayColourBars
02004c14 g     F .text	00000114 memset
02000314 g     F .text	000000d0 main
0207f4d0 g     O .bss	00000004 alt_envp
0207f4b8 g     O .bss	00000004 __malloc_max_total_mem
02016ae0 g     O .rodata	0000000c Mushroom
02007e58 g     F .text	00000060 altera_avalon_jtag_uart_write_fd
0200590c g     F .text	0000001c __swbuf
02005784 g     F .text	00000008 __sclose
04000000 g       *ABS*	00000000 __alt_heap_limit
02005c58 g     F .text	00000014 fclose
02017b00 g     O .rodata	0000000c Kain_Walk_Left
02004120 g     F .text	000007c4 _malloc_r
0207f490 g     O .rwdata	00000004 alt_errno
02003fc0 g     F .text	000000a8 _fwalk
02004dc8 g     F .text	000000cc putc
02001ffc g     F .text	00000048 .hidden __divsi3
02005ee0 g     F .text	0000013c _malloc_trim_r
0200aa50 g       *ABS*	00000000 __CTOR_END__
02007868 g     F .text	00000260 alt_epcs_flash_write
0200aa50 g       *ABS*	00000000 __DTOR_LIST__
020003e4 g     F .text	00000038 delay
0200723c g     F .text	00000034 alt_irq_init
02006df4 g     F .text	00000080 alt_release_fd
0207d6d0 g     O .rodata	00000100 .hidden __clz_tab
0200a694 g     F .text	00000014 atexit
02005928 g     F .text	0000006c _write_r
0207f464 g     O .rwdata	00000004 numHalloweenAnimations
0207f470 g     O .rwdata	00000004 _impure_ptr
0207f4c8 g     O .bss	00000004 alt_argc
02040c8c g     O .rodata	0000000c Netscapethrobber
0200998c g     F .text	0000005c _do_dtors
02005414 g     F .text	000001d8 __srefill_r
02000020 g       .exceptions	00000000 alt_irq_entry
02003afc g     F .text	00000018 __fp_unlock_all
0207f47c g     O .rwdata	00000008 alt_fs_list
020093d8 g     F .text	000000f4 epcs_read_buffer
04000000 g       *ABS*	00000000 __alt_mem_onchip_memory2
02007334 g     F .text	00000054 alt_epcs_flash_init
02009aa0 g     F .text	00000050 alt_ic_isr_register
0207f4ac g       *ABS*	00000000 _edata
0200892c g     F .text	00000060 altera_avalon_uart_read_fd
0207f624 g       *ABS*	00000000 _end
020099e8 g     F .text	00000068 alt_flash_open_dev
02008324 g     F .text	000000ec altera_avalon_jtag_uart_ioctl
02009b8c g     F .text	000000a0 alt_ic_irq_disable
02009788 g     F .text	0000005c epcs_enter_4_bytes_mode
020056ac g     F .text	0000007c __swrite
0207f478 g     O .rwdata	00000004 __malloc_trim_threshold
0200a6a8 g     F .text	00000038 exit
02004068 g     F .text	000000b8 _fwalk_reent
02009a50 g     F .text	00000050 alt_flash_close_dev
02002044 g     F .text	0000004c .hidden __modsi3
04000000 g       *ABS*	00000000 __alt_data_end
02000020 g     F .exceptions	00000000 alt_exception
02003ad8 g     F .text	00000004 __sfp_lock_release
02008d9c g     F .text	00000054 altera_avalon_uart_close
0200aa1c g     F .text	00000034 _exit
02006644 g     F .text	00000140 alt_alarm_start
0207f460 g     O .rwdata	00000004 numAnimations
02006358 g     F .text	000001b4 __smakebuf_r
020036e4 g     F .text	0000008c strlen
020094cc g     F .text	00000050 epcs_write_enable
0200a004 g     F .text	0000015c open
02026c3c g     O .rodata	0000000c MacTCP
02000dfc g     F .text	00000464 displayCIEColourBars
0207f4a8 g     O .rwdata	00000004 alt_priority_mask
02009af0 g     F .text	0000009c alt_ic_irq_enable
02008e40 g     F .text	000001dc altera_avalon_uart_read
0207d2d0 g     O .rodata	00000200 gamma98half
02007d60 g     F .text	00000098 alt_epcs_flash_read
0207f498 g     O .rwdata	00000008 alt_alarm_list
02009930 g     F .text	0000005c _do_ctors
0207ccd0 g     O .rodata	00000200 linearRGB
020067d4 g     F .text	000000d0 close
02000264 g     F .text	0000003c longDelay
00000000  w      *UND*	00000000 free
02003adc g     F .text	00000004 __sinit_lock_acquire
02009584 g     F .text	0000011c epcs_write_buffer



Disassembly of section .exceptions:

02000020 <alt_exception>:
 2000020:	deffed04 	addi	sp,sp,-76
 2000024:	dfc00015 	stw	ra,0(sp)
 2000028:	d8400215 	stw	at,8(sp)
 200002c:	d8800315 	stw	r2,12(sp)
 2000030:	d8c00415 	stw	r3,16(sp)
 2000034:	d9000515 	stw	r4,20(sp)
 2000038:	d9400615 	stw	r5,24(sp)
 200003c:	d9800715 	stw	r6,28(sp)
 2000040:	d9c00815 	stw	r7,32(sp)
 2000044:	000b307a 	rdctl	r5,estatus
 2000048:	da000915 	stw	r8,36(sp)
 200004c:	da400a15 	stw	r9,40(sp)
 2000050:	da800b15 	stw	r10,44(sp)
 2000054:	dac00c15 	stw	r11,48(sp)
 2000058:	db000d15 	stw	r12,52(sp)
 200005c:	db400e15 	stw	r13,56(sp)
 2000060:	db800f15 	stw	r14,60(sp)
 2000064:	dbc01015 	stw	r15,64(sp)
 2000068:	d9401115 	stw	r5,68(sp)
 200006c:	ebffff04 	addi	r15,ea,-4
 2000070:	dbc01215 	stw	r15,72(sp)
 2000074:	0009313a 	rdctl	r4,ipending
 2000078:	2880004c 	andi	r2,r5,1
 200007c:	10000326 	beq	r2,zero,200008c <alt_exception+0x6c>
 2000080:	20000226 	beq	r4,zero,200008c <alt_exception+0x6c>
 2000084:	20000fc0 	call	20000fc <alt_irq_handler>
 2000088:	00000706 	br	20000a8 <alt_exception+0x88>
 200008c:	df401215 	stw	ea,72(sp)
 2000090:	e8bfff17 	ldw	r2,-4(ea)
 2000094:	e93fff04 	addi	r4,ea,-4
 2000098:	20001cc0 	call	20001cc <alt_instruction_exception_entry>
 200009c:	1000021e 	bne	r2,zero,20000a8 <alt_exception+0x88>
 20000a0:	ebffff04 	addi	r15,ea,-4
 20000a4:	dbc01215 	stw	r15,72(sp)
 20000a8:	d9401117 	ldw	r5,68(sp)
 20000ac:	df401217 	ldw	ea,72(sp)
 20000b0:	dfc00017 	ldw	ra,0(sp)
 20000b4:	2801707a 	wrctl	estatus,r5
 20000b8:	d8400217 	ldw	at,8(sp)
 20000bc:	d8800317 	ldw	r2,12(sp)
 20000c0:	d8c00417 	ldw	r3,16(sp)
 20000c4:	d9000517 	ldw	r4,20(sp)
 20000c8:	d9400617 	ldw	r5,24(sp)
 20000cc:	d9800717 	ldw	r6,28(sp)
 20000d0:	d9c00817 	ldw	r7,32(sp)
 20000d4:	da000917 	ldw	r8,36(sp)
 20000d8:	da400a17 	ldw	r9,40(sp)
 20000dc:	da800b17 	ldw	r10,44(sp)
 20000e0:	dac00c17 	ldw	r11,48(sp)
 20000e4:	db000d17 	ldw	r12,52(sp)
 20000e8:	db400e17 	ldw	r13,56(sp)
 20000ec:	db800f17 	ldw	r14,60(sp)
 20000f0:	dbc01017 	ldw	r15,64(sp)
 20000f4:	dec01304 	addi	sp,sp,76
 20000f8:	ef80083a 	eret

020000fc <alt_irq_handler>:
 20000fc:	defff904 	addi	sp,sp,-28
 2000100:	dfc00615 	stw	ra,24(sp)
 2000104:	df000515 	stw	fp,20(sp)
 2000108:	df000504 	addi	fp,sp,20
 200010c:	0001883a 	nop
 2000110:	0005313a 	rdctl	r2,ipending
 2000114:	e0bffe15 	stw	r2,-8(fp)
 2000118:	e0bffe17 	ldw	r2,-8(fp)
 200011c:	e0bffb15 	stw	r2,-20(fp)
 2000120:	e03ffd15 	stw	zero,-12(fp)
 2000124:	00800044 	movi	r2,1
 2000128:	e0bffc15 	stw	r2,-16(fp)
 200012c:	e0fffb17 	ldw	r3,-20(fp)
 2000130:	e0bffc17 	ldw	r2,-16(fp)
 2000134:	1884703a 	and	r2,r3,r2
 2000138:	10001726 	beq	r2,zero,2000198 <alt_irq_handler+0x9c>
 200013c:	00c08234 	movhi	r3,520
 2000140:	18fd4904 	addi	r3,r3,-2780
 2000144:	e0bffd17 	ldw	r2,-12(fp)
 2000148:	100490fa 	slli	r2,r2,3
 200014c:	1885883a 	add	r2,r3,r2
 2000150:	10800017 	ldw	r2,0(r2)
 2000154:	01008234 	movhi	r4,520
 2000158:	213d4904 	addi	r4,r4,-2780
 200015c:	e0fffd17 	ldw	r3,-12(fp)
 2000160:	180690fa 	slli	r3,r3,3
 2000164:	20c7883a 	add	r3,r4,r3
 2000168:	18c00104 	addi	r3,r3,4
 200016c:	18c00017 	ldw	r3,0(r3)
 2000170:	1809883a 	mov	r4,r3
 2000174:	103ee83a 	callr	r2
 2000178:	0001883a 	nop
 200017c:	0005313a 	rdctl	r2,ipending
 2000180:	e0bfff15 	stw	r2,-4(fp)
 2000184:	e0bfff17 	ldw	r2,-4(fp)
 2000188:	e0bffb15 	stw	r2,-20(fp)
 200018c:	e0bffb17 	ldw	r2,-20(fp)
 2000190:	103fe31e 	bne	r2,zero,2000120 <__reset+0xfdff7120>
 2000194:	00000706 	br	20001b4 <alt_irq_handler+0xb8>
 2000198:	e0bffc17 	ldw	r2,-16(fp)
 200019c:	1085883a 	add	r2,r2,r2
 20001a0:	e0bffc15 	stw	r2,-16(fp)
 20001a4:	e0bffd17 	ldw	r2,-12(fp)
 20001a8:	10800044 	addi	r2,r2,1
 20001ac:	e0bffd15 	stw	r2,-12(fp)
 20001b0:	003fde06 	br	200012c <__reset+0xfdff712c>
 20001b4:	0001883a 	nop
 20001b8:	e037883a 	mov	sp,fp
 20001bc:	dfc00117 	ldw	ra,4(sp)
 20001c0:	df000017 	ldw	fp,0(sp)
 20001c4:	dec00204 	addi	sp,sp,8
 20001c8:	f800283a 	ret

020001cc <alt_instruction_exception_entry>:
 20001cc:	defffb04 	addi	sp,sp,-20
 20001d0:	dfc00415 	stw	ra,16(sp)
 20001d4:	df000315 	stw	fp,12(sp)
 20001d8:	df000304 	addi	fp,sp,12
 20001dc:	e13fff15 	stw	r4,-4(fp)
 20001e0:	00bfffc4 	movi	r2,-1
 20001e4:	e0bffd15 	stw	r2,-12(fp)
 20001e8:	e03ffe15 	stw	zero,-8(fp)
 20001ec:	d0a02017 	ldw	r2,-32640(gp)
 20001f0:	10000726 	beq	r2,zero,2000210 <alt_instruction_exception_entry+0x44>
 20001f4:	d0a02017 	ldw	r2,-32640(gp)
 20001f8:	e0fffd17 	ldw	r3,-12(fp)
 20001fc:	1809883a 	mov	r4,r3
 2000200:	e17fff17 	ldw	r5,-4(fp)
 2000204:	e1bffe17 	ldw	r6,-8(fp)
 2000208:	103ee83a 	callr	r2
 200020c:	00000206 	br	2000218 <alt_instruction_exception_entry+0x4c>
 2000210:	003da03a 	break	0
 2000214:	0005883a 	mov	r2,zero
 2000218:	e037883a 	mov	sp,fp
 200021c:	dfc00117 	ldw	ra,4(sp)
 2000220:	df000017 	ldw	fp,0(sp)
 2000224:	dec00204 	addi	sp,sp,8
 2000228:	f800283a 	ret

Disassembly of section .text:

0200022c <_start>:
 200022c:	06c10034 	movhi	sp,1024
 2000230:	dec00014 	ori	sp,sp,0
 2000234:	06808234 	movhi	gp,520
 2000238:	d69d1814 	ori	gp,gp,29792
 200023c:	008081f4 	movhi	r2,519
 2000240:	10bd2b14 	ori	r2,r2,62636
 2000244:	00c081f4 	movhi	r3,519
 2000248:	18fd8914 	ori	r3,r3,63012
 200024c:	10c00326 	beq	r2,r3,200025c <_start+0x30>
 2000250:	10000015 	stw	zero,0(r2)
 2000254:	10800104 	addi	r2,r2,4
 2000258:	10fffd36 	bltu	r2,r3,2000250 <__reset+0xfdff7250>
 200025c:	2006bf40 	call	2006bf4 <alt_main>

02000260 <alt_after_alt_main>:
 2000260:	003fff06 	br	2000260 <__reset+0xfdff7260>

02000264 <longDelay>:
 2000264:	defffe04 	addi	sp,sp,-8
 2000268:	df000115 	stw	fp,4(sp)
 200026c:	df000104 	addi	fp,sp,4
 2000270:	e03fff15 	stw	zero,-4(fp)
 2000274:	00000306 	br	2000284 <longDelay+0x20>
 2000278:	e0bfff17 	ldw	r2,-4(fp)
 200027c:	10800044 	addi	r2,r2,1
 2000280:	e0bfff15 	stw	r2,-4(fp)
 2000284:	e0bfff17 	ldw	r2,-4(fp)
 2000288:	1082ee10 	cmplti	r2,r2,3000
 200028c:	103ffa1e 	bne	r2,zero,2000278 <__reset+0xfdff7278>
 2000290:	e037883a 	mov	sp,fp
 2000294:	df000017 	ldw	fp,0(sp)
 2000298:	dec00104 	addi	sp,sp,4
 200029c:	f800283a 	ret

020002a0 <frame_callback>:
 20002a0:	defffc04 	addi	sp,sp,-16
 20002a4:	dfc00315 	stw	ra,12(sp)
 20002a8:	df000215 	stw	fp,8(sp)
 20002ac:	df000204 	addi	fp,sp,8
 20002b0:	e13fff15 	stw	r4,-4(fp)
 20002b4:	d0a01517 	ldw	r2,-32684(gp)
 20002b8:	e0bffe15 	stw	r2,-8(fp)
 20002bc:	d0a01417 	ldw	r2,-32688(gp)
 20002c0:	1004933a 	slli	r2,r2,12
 20002c4:	10800304 	addi	r2,r2,12
 20002c8:	e0fffe17 	ldw	r3,-8(fp)
 20002cc:	1885883a 	add	r2,r3,r2
 20002d0:	1009883a 	mov	r4,r2
 20002d4:	20004f40 	call	20004f4 <displayBitmap>
 20002d8:	d0a01417 	ldw	r2,-32688(gp)
 20002dc:	10c00044 	addi	r3,r2,1
 20002e0:	e0bffe17 	ldw	r2,-8(fp)
 20002e4:	10800217 	ldw	r2,8(r2)
 20002e8:	1809883a 	mov	r4,r3
 20002ec:	100b883a 	mov	r5,r2
 20002f0:	20020440 	call	2002044 <__modsi3>
 20002f4:	d0a01415 	stw	r2,-32688(gp)
 20002f8:	e0bffe17 	ldw	r2,-8(fp)
 20002fc:	10800117 	ldw	r2,4(r2)
 2000300:	e037883a 	mov	sp,fp
 2000304:	dfc00117 	ldw	ra,4(sp)
 2000308:	df000017 	ldw	fp,0(sp)
 200030c:	dec00204 	addi	sp,sp,8
 2000310:	f800283a 	ret

02000314 <main>:
 2000314:	defffd04 	addi	sp,sp,-12
 2000318:	dfc00215 	stw	ra,8(sp)
 200031c:	df000115 	stw	fp,4(sp)
 2000320:	df000104 	addi	fp,sp,4
 2000324:	200041c0 	call	200041c <blank>
 2000328:	01008234 	movhi	r4,520
 200032c:	21332e04 	addi	r4,r4,-13128
 2000330:	20036480 	call	2003648 <puts>
 2000334:	20003e40 	call	20003e4 <delay>
 2000338:	00808234 	movhi	r2,520
 200033c:	10b60b04 	addi	r2,r2,-10196
 2000340:	10800117 	ldw	r2,4(r2)
 2000344:	d0a01515 	stw	r2,-32684(gp)
 2000348:	01008234 	movhi	r4,520
 200034c:	213d3904 	addi	r4,r4,-2844
 2000350:	0140fa04 	movi	r5,1000
 2000354:	01808034 	movhi	r6,512
 2000358:	3180a804 	addi	r6,r6,672
 200035c:	000f883a 	mov	r7,zero
 2000360:	20066440 	call	2006644 <alt_alarm_start>
 2000364:	00808234 	movhi	r2,520
 2000368:	10bd1c04 	addi	r2,r2,-2960
 200036c:	10800017 	ldw	r2,0(r2)
 2000370:	10800117 	ldw	r2,4(r2)
 2000374:	1009883a 	mov	r4,r2
 2000378:	20034e00 	call	20034e0 <getc>
 200037c:	e0bfff05 	stb	r2,-4(fp)
 2000380:	e0bfff07 	ldb	r2,-4(fp)
 2000384:	1009883a 	mov	r4,r2
 2000388:	20035740 	call	2003574 <putchar>
 200038c:	e0bfff07 	ldb	r2,-4(fp)
 2000390:	10800c18 	cmpnei	r2,r2,48
 2000394:	1000051e 	bne	r2,zero,20003ac <main+0x98>
 2000398:	00808234 	movhi	r2,520
 200039c:	10b62504 	addi	r2,r2,-10092
 20003a0:	10800017 	ldw	r2,0(r2)
 20003a4:	d0a01515 	stw	r2,-32684(gp)
 20003a8:	00000d06 	br	20003e0 <main+0xcc>
 20003ac:	e0bfff07 	ldb	r2,-4(fp)
 20003b0:	10800c58 	cmpnei	r2,r2,49
 20003b4:	1000051e 	bne	r2,zero,20003cc <main+0xb8>
 20003b8:	00808234 	movhi	r2,520
 20003bc:	10b62504 	addi	r2,r2,-10092
 20003c0:	10800117 	ldw	r2,4(r2)
 20003c4:	d0a01515 	stw	r2,-32684(gp)
 20003c8:	00000506 	br	20003e0 <main+0xcc>
 20003cc:	00808234 	movhi	r2,520
 20003d0:	10b62504 	addi	r2,r2,-10092
 20003d4:	10800217 	ldw	r2,8(r2)
 20003d8:	d0a01515 	stw	r2,-32684(gp)
 20003dc:	003fe106 	br	2000364 <__reset+0xfdff7364>
 20003e0:	003fe006 	br	2000364 <__reset+0xfdff7364>

020003e4 <delay>:
 20003e4:	defffe04 	addi	sp,sp,-8
 20003e8:	df000115 	stw	fp,4(sp)
 20003ec:	df000104 	addi	fp,sp,4
 20003f0:	e03fff15 	stw	zero,-4(fp)
 20003f4:	00000306 	br	2000404 <delay+0x20>
 20003f8:	e0bfff17 	ldw	r2,-4(fp)
 20003fc:	10800044 	addi	r2,r2,1
 2000400:	e0bfff15 	stw	r2,-4(fp)
 2000404:	e0bfff17 	ldw	r2,-4(fp)
 2000408:	00bffb0e 	bge	zero,r2,20003f8 <__reset+0xfdff73f8>
 200040c:	e037883a 	mov	sp,fp
 2000410:	df000017 	ldw	fp,0(sp)
 2000414:	dec00104 	addi	sp,sp,4
 2000418:	f800283a 	ret

0200041c <blank>:
 200041c:	defffb04 	addi	sp,sp,-20
 2000420:	dfc00415 	stw	ra,16(sp)
 2000424:	df000315 	stw	fp,12(sp)
 2000428:	df000304 	addi	fp,sp,12
 200042c:	e03ffd15 	stw	zero,-12(fp)
 2000430:	00002806 	br	20004d4 <blank+0xb8>
 2000434:	e03ffe15 	stw	zero,-8(fp)
 2000438:	00002006 	br	20004bc <blank+0xa0>
 200043c:	00810004 	movi	r2,1024
 2000440:	e0bfff15 	stw	r2,-4(fp)
 2000444:	e0bffd17 	ldw	r2,-12(fp)
 2000448:	1004917a 	slli	r2,r2,5
 200044c:	e0ffff17 	ldw	r3,-4(fp)
 2000450:	1885883a 	add	r2,r3,r2
 2000454:	e0bfff15 	stw	r2,-4(fp)
 2000458:	e0ffff17 	ldw	r3,-4(fp)
 200045c:	e0bffe17 	ldw	r2,-8(fp)
 2000460:	1885883a 	add	r2,r3,r2
 2000464:	e0bfff15 	stw	r2,-4(fp)
 2000468:	00810074 	movhi	r2,1025
 200046c:	10a82004 	addi	r2,r2,-24448
 2000470:	e0ffff17 	ldw	r3,-4(fp)
 2000474:	10c00035 	stwio	r3,0(r2)
 2000478:	0007883a 	mov	r3,zero
 200047c:	00810074 	movhi	r2,1025
 2000480:	10a81c04 	addi	r2,r2,-24464
 2000484:	10c00035 	stwio	r3,0(r2)
 2000488:	20003e40 	call	20003e4 <delay>
 200048c:	00c00044 	movi	r3,1
 2000490:	00810074 	movhi	r2,1025
 2000494:	10a81804 	addi	r2,r2,-24480
 2000498:	10c00035 	stwio	r3,0(r2)
 200049c:	20003e40 	call	20003e4 <delay>
 20004a0:	0007883a 	mov	r3,zero
 20004a4:	00810074 	movhi	r2,1025
 20004a8:	10a81804 	addi	r2,r2,-24480
 20004ac:	10c00035 	stwio	r3,0(r2)
 20004b0:	e0bffe17 	ldw	r2,-8(fp)
 20004b4:	10800044 	addi	r2,r2,1
 20004b8:	e0bffe15 	stw	r2,-8(fp)
 20004bc:	e0bffe17 	ldw	r2,-8(fp)
 20004c0:	10800810 	cmplti	r2,r2,32
 20004c4:	103fdd1e 	bne	r2,zero,200043c <__reset+0xfdff743c>
 20004c8:	e0bffd17 	ldw	r2,-12(fp)
 20004cc:	10800044 	addi	r2,r2,1
 20004d0:	e0bffd15 	stw	r2,-12(fp)
 20004d4:	e0bffd17 	ldw	r2,-12(fp)
 20004d8:	10800810 	cmplti	r2,r2,32
 20004dc:	103fd51e 	bne	r2,zero,2000434 <__reset+0xfdff7434>
 20004e0:	e037883a 	mov	sp,fp
 20004e4:	dfc00117 	ldw	ra,4(sp)
 20004e8:	df000017 	ldw	fp,0(sp)
 20004ec:	dec00204 	addi	sp,sp,8
 20004f0:	f800283a 	ret

020004f4 <displayBitmap>:
 20004f4:	defff804 	addi	sp,sp,-32
 20004f8:	df000715 	stw	fp,28(sp)
 20004fc:	df000704 	addi	fp,sp,28
 2000500:	e13fff15 	stw	r4,-4(fp)
 2000504:	e03ff915 	stw	zero,-28(fp)
 2000508:	00004406 	br	200061c <displayBitmap+0x128>
 200050c:	e0bff917 	ldw	r2,-28(fp)
 2000510:	10810004 	addi	r2,r2,1024
 2000514:	e0bffa15 	stw	r2,-24(fp)
 2000518:	e0bff917 	ldw	r2,-28(fp)
 200051c:	1085883a 	add	r2,r2,r2
 2000520:	1085883a 	add	r2,r2,r2
 2000524:	e0ffff17 	ldw	r3,-4(fp)
 2000528:	1885883a 	add	r2,r3,r2
 200052c:	10800017 	ldw	r2,0(r2)
 2000530:	e0bffb15 	stw	r2,-20(fp)
 2000534:	e0bffb17 	ldw	r2,-20(fp)
 2000538:	1004d43a 	srli	r2,r2,16
 200053c:	10803fcc 	andi	r2,r2,255
 2000540:	00c08234 	movhi	r3,520
 2000544:	18f53404 	addi	r3,r3,-11056
 2000548:	1085883a 	add	r2,r2,r2
 200054c:	1885883a 	add	r2,r3,r2
 2000550:	1080000b 	ldhu	r2,0(r2)
 2000554:	e0bffc0d 	sth	r2,-16(fp)
 2000558:	e0bffb17 	ldw	r2,-20(fp)
 200055c:	1004d23a 	srli	r2,r2,8
 2000560:	10803fcc 	andi	r2,r2,255
 2000564:	00c08234 	movhi	r3,520
 2000568:	18f53404 	addi	r3,r3,-11056
 200056c:	1085883a 	add	r2,r2,r2
 2000570:	1885883a 	add	r2,r3,r2
 2000574:	1080000b 	ldhu	r2,0(r2)
 2000578:	e0bffc8d 	sth	r2,-14(fp)
 200057c:	e0bffb17 	ldw	r2,-20(fp)
 2000580:	10803fcc 	andi	r2,r2,255
 2000584:	00c08234 	movhi	r3,520
 2000588:	18f53404 	addi	r3,r3,-11056
 200058c:	1085883a 	add	r2,r2,r2
 2000590:	1885883a 	add	r2,r3,r2
 2000594:	1080000b 	ldhu	r2,0(r2)
 2000598:	e0bffd0d 	sth	r2,-12(fp)
 200059c:	e0bffd0b 	ldhu	r2,-12(fp)
 20005a0:	1004953a 	slli	r2,r2,20
 20005a4:	10cffc2c 	andhi	r3,r2,16368
 20005a8:	e0bffc8b 	ldhu	r2,-14(fp)
 20005ac:	100892ba 	slli	r4,r2,10
 20005b0:	00800434 	movhi	r2,16
 20005b4:	10bf0004 	addi	r2,r2,-1024
 20005b8:	2084703a 	and	r2,r4,r2
 20005bc:	1886b03a 	or	r3,r3,r2
 20005c0:	e0bffc0b 	ldhu	r2,-16(fp)
 20005c4:	1080ffcc 	andi	r2,r2,1023
 20005c8:	1884b03a 	or	r2,r3,r2
 20005cc:	e0bffe15 	stw	r2,-8(fp)
 20005d0:	00810074 	movhi	r2,1025
 20005d4:	10a82004 	addi	r2,r2,-24448
 20005d8:	e0fffa17 	ldw	r3,-24(fp)
 20005dc:	10c00035 	stwio	r3,0(r2)
 20005e0:	e0fffe17 	ldw	r3,-8(fp)
 20005e4:	00810074 	movhi	r2,1025
 20005e8:	10a81c04 	addi	r2,r2,-24464
 20005ec:	10c00035 	stwio	r3,0(r2)
 20005f0:	00c00044 	movi	r3,1
 20005f4:	00810074 	movhi	r2,1025
 20005f8:	10a81804 	addi	r2,r2,-24480
 20005fc:	10c00035 	stwio	r3,0(r2)
 2000600:	0007883a 	mov	r3,zero
 2000604:	00810074 	movhi	r2,1025
 2000608:	10a81804 	addi	r2,r2,-24480
 200060c:	10c00035 	stwio	r3,0(r2)
 2000610:	e0bff917 	ldw	r2,-28(fp)
 2000614:	10800044 	addi	r2,r2,1
 2000618:	e0bff915 	stw	r2,-28(fp)
 200061c:	e0bff917 	ldw	r2,-28(fp)
 2000620:	10810010 	cmplti	r2,r2,1024
 2000624:	103fb91e 	bne	r2,zero,200050c <__reset+0xfdff750c>
 2000628:	e037883a 	mov	sp,fp
 200062c:	df000017 	ldw	fp,0(sp)
 2000630:	dec00104 	addi	sp,sp,4
 2000634:	f800283a 	ret

02000638 <displayColourBars>:
 2000638:	defff804 	addi	sp,sp,-32
 200063c:	dfc00715 	stw	ra,28(sp)
 2000640:	df000615 	stw	fp,24(sp)
 2000644:	df000604 	addi	fp,sp,24
 2000648:	e03ffa15 	stw	zero,-24(fp)
 200064c:	0001e306 	br	2000ddc <displayColourBars+0x7a4>
 2000650:	e03ffb15 	stw	zero,-20(fp)
 2000654:	0001db06 	br	2000dc4 <displayColourBars+0x78c>
 2000658:	00810004 	movi	r2,1024
 200065c:	e0bffe15 	stw	r2,-8(fp)
 2000660:	e0bffa17 	ldw	r2,-24(fp)
 2000664:	1004917a 	slli	r2,r2,5
 2000668:	e0fffe17 	ldw	r3,-8(fp)
 200066c:	1885883a 	add	r2,r3,r2
 2000670:	e0bffe15 	stw	r2,-8(fp)
 2000674:	e0fffe17 	ldw	r3,-8(fp)
 2000678:	e0bffb17 	ldw	r2,-20(fp)
 200067c:	1885883a 	add	r2,r3,r2
 2000680:	e0bffe15 	stw	r2,-8(fp)
 2000684:	e0bffa17 	ldw	r2,-24(fp)
 2000688:	10800108 	cmpgei	r2,r2,4
 200068c:	1000231e 	bne	r2,zero,200071c <displayColourBars+0xe4>
 2000690:	e13ffb17 	ldw	r4,-20(fp)
 2000694:	20032bc0 	call	20032bc <__floatsidf>
 2000698:	100b883a 	mov	r5,r2
 200069c:	180d883a 	mov	r6,r3
 20006a0:	2809883a 	mov	r4,r5
 20006a4:	300b883a 	mov	r5,r6
 20006a8:	000d883a 	mov	r6,zero
 20006ac:	01d00ff4 	movhi	r7,16447
 20006b0:	20020a00 	call	20020a0 <__divdf3>
 20006b4:	1009883a 	mov	r4,r2
 20006b8:	180b883a 	mov	r5,r3
 20006bc:	2005883a 	mov	r2,r4
 20006c0:	2807883a 	mov	r3,r5
 20006c4:	1009883a 	mov	r4,r2
 20006c8:	180b883a 	mov	r5,r3
 20006cc:	000d883a 	mov	r6,zero
 20006d0:	01d01c34 	movhi	r7,16496
 20006d4:	39f80004 	addi	r7,r7,-8192
 20006d8:	2002a3c0 	call	2002a3c <__muldf3>
 20006dc:	1009883a 	mov	r4,r2
 20006e0:	180b883a 	mov	r5,r3
 20006e4:	2005883a 	mov	r2,r4
 20006e8:	2807883a 	mov	r3,r5
 20006ec:	1009883a 	mov	r4,r2
 20006f0:	180b883a 	mov	r5,r3
 20006f4:	200323c0 	call	200323c <__fixdfsi>
 20006f8:	00c08234 	movhi	r3,520
 20006fc:	18f33404 	addi	r3,r3,-13104
 2000700:	1085883a 	add	r2,r2,r2
 2000704:	1885883a 	add	r2,r3,r2
 2000708:	1080000b 	ldhu	r2,0(r2)
 200070c:	e0bffc0d 	sth	r2,-16(fp)
 2000710:	e03ffc8d 	sth	zero,-14(fp)
 2000714:	e03ffd0d 	sth	zero,-12(fp)
 2000718:	00018a06 	br	2000d44 <displayColourBars+0x70c>
 200071c:	e0bffa17 	ldw	r2,-24(fp)
 2000720:	10800110 	cmplti	r2,r2,4
 2000724:	1000451e 	bne	r2,zero,200083c <displayColourBars+0x204>
 2000728:	e0bffa17 	ldw	r2,-24(fp)
 200072c:	10800208 	cmpgei	r2,r2,8
 2000730:	1000421e 	bne	r2,zero,200083c <displayColourBars+0x204>
 2000734:	e13ffb17 	ldw	r4,-20(fp)
 2000738:	20032bc0 	call	20032bc <__floatsidf>
 200073c:	100b883a 	mov	r5,r2
 2000740:	180d883a 	mov	r6,r3
 2000744:	2809883a 	mov	r4,r5
 2000748:	300b883a 	mov	r5,r6
 200074c:	000d883a 	mov	r6,zero
 2000750:	01d00ff4 	movhi	r7,16447
 2000754:	20020a00 	call	20020a0 <__divdf3>
 2000758:	1009883a 	mov	r4,r2
 200075c:	180b883a 	mov	r5,r3
 2000760:	2005883a 	mov	r2,r4
 2000764:	2807883a 	mov	r3,r5
 2000768:	1009883a 	mov	r4,r2
 200076c:	180b883a 	mov	r5,r3
 2000770:	000d883a 	mov	r6,zero
 2000774:	01d01c34 	movhi	r7,16496
 2000778:	39f80004 	addi	r7,r7,-8192
 200077c:	2002a3c0 	call	2002a3c <__muldf3>
 2000780:	1009883a 	mov	r4,r2
 2000784:	180b883a 	mov	r5,r3
 2000788:	2005883a 	mov	r2,r4
 200078c:	2807883a 	mov	r3,r5
 2000790:	1009883a 	mov	r4,r2
 2000794:	180b883a 	mov	r5,r3
 2000798:	200323c0 	call	200323c <__fixdfsi>
 200079c:	00c08234 	movhi	r3,520
 20007a0:	18f33404 	addi	r3,r3,-13104
 20007a4:	1085883a 	add	r2,r2,r2
 20007a8:	1885883a 	add	r2,r3,r2
 20007ac:	1080000b 	ldhu	r2,0(r2)
 20007b0:	e0bffc0d 	sth	r2,-16(fp)
 20007b4:	e13ffb17 	ldw	r4,-20(fp)
 20007b8:	20032bc0 	call	20032bc <__floatsidf>
 20007bc:	100b883a 	mov	r5,r2
 20007c0:	180d883a 	mov	r6,r3
 20007c4:	2809883a 	mov	r4,r5
 20007c8:	300b883a 	mov	r5,r6
 20007cc:	000d883a 	mov	r6,zero
 20007d0:	01d00ff4 	movhi	r7,16447
 20007d4:	20020a00 	call	20020a0 <__divdf3>
 20007d8:	1009883a 	mov	r4,r2
 20007dc:	180b883a 	mov	r5,r3
 20007e0:	2005883a 	mov	r2,r4
 20007e4:	2807883a 	mov	r3,r5
 20007e8:	1009883a 	mov	r4,r2
 20007ec:	180b883a 	mov	r5,r3
 20007f0:	000d883a 	mov	r6,zero
 20007f4:	01d01c34 	movhi	r7,16496
 20007f8:	39f80004 	addi	r7,r7,-8192
 20007fc:	2002a3c0 	call	2002a3c <__muldf3>
 2000800:	1009883a 	mov	r4,r2
 2000804:	180b883a 	mov	r5,r3
 2000808:	2005883a 	mov	r2,r4
 200080c:	2807883a 	mov	r3,r5
 2000810:	1009883a 	mov	r4,r2
 2000814:	180b883a 	mov	r5,r3
 2000818:	200323c0 	call	200323c <__fixdfsi>
 200081c:	00c08234 	movhi	r3,520
 2000820:	18f33404 	addi	r3,r3,-13104
 2000824:	1085883a 	add	r2,r2,r2
 2000828:	1885883a 	add	r2,r3,r2
 200082c:	1080000b 	ldhu	r2,0(r2)
 2000830:	e0bffc8d 	sth	r2,-14(fp)
 2000834:	e03ffd0d 	sth	zero,-12(fp)
 2000838:	00014206 	br	2000d44 <displayColourBars+0x70c>
 200083c:	e0bffa17 	ldw	r2,-24(fp)
 2000840:	10800210 	cmplti	r2,r2,8
 2000844:	1000261e 	bne	r2,zero,20008e0 <displayColourBars+0x2a8>
 2000848:	e0bffa17 	ldw	r2,-24(fp)
 200084c:	10800308 	cmpgei	r2,r2,12
 2000850:	1000231e 	bne	r2,zero,20008e0 <displayColourBars+0x2a8>
 2000854:	e03ffc0d 	sth	zero,-16(fp)
 2000858:	e13ffb17 	ldw	r4,-20(fp)
 200085c:	20032bc0 	call	20032bc <__floatsidf>
 2000860:	100b883a 	mov	r5,r2
 2000864:	180d883a 	mov	r6,r3
 2000868:	2809883a 	mov	r4,r5
 200086c:	300b883a 	mov	r5,r6
 2000870:	000d883a 	mov	r6,zero
 2000874:	01d00ff4 	movhi	r7,16447
 2000878:	20020a00 	call	20020a0 <__divdf3>
 200087c:	1009883a 	mov	r4,r2
 2000880:	180b883a 	mov	r5,r3
 2000884:	2005883a 	mov	r2,r4
 2000888:	2807883a 	mov	r3,r5
 200088c:	1009883a 	mov	r4,r2
 2000890:	180b883a 	mov	r5,r3
 2000894:	000d883a 	mov	r6,zero
 2000898:	01d01c34 	movhi	r7,16496
 200089c:	39f80004 	addi	r7,r7,-8192
 20008a0:	2002a3c0 	call	2002a3c <__muldf3>
 20008a4:	1009883a 	mov	r4,r2
 20008a8:	180b883a 	mov	r5,r3
 20008ac:	2005883a 	mov	r2,r4
 20008b0:	2807883a 	mov	r3,r5
 20008b4:	1009883a 	mov	r4,r2
 20008b8:	180b883a 	mov	r5,r3
 20008bc:	200323c0 	call	200323c <__fixdfsi>
 20008c0:	00c08234 	movhi	r3,520
 20008c4:	18f33404 	addi	r3,r3,-13104
 20008c8:	1085883a 	add	r2,r2,r2
 20008cc:	1885883a 	add	r2,r3,r2
 20008d0:	1080000b 	ldhu	r2,0(r2)
 20008d4:	e0bffc8d 	sth	r2,-14(fp)
 20008d8:	e03ffd0d 	sth	zero,-12(fp)
 20008dc:	00011906 	br	2000d44 <displayColourBars+0x70c>
 20008e0:	e0bffa17 	ldw	r2,-24(fp)
 20008e4:	10800310 	cmplti	r2,r2,12
 20008e8:	1000451e 	bne	r2,zero,2000a00 <displayColourBars+0x3c8>
 20008ec:	e0bffa17 	ldw	r2,-24(fp)
 20008f0:	10800408 	cmpgei	r2,r2,16
 20008f4:	1000421e 	bne	r2,zero,2000a00 <displayColourBars+0x3c8>
 20008f8:	e03ffc0d 	sth	zero,-16(fp)
 20008fc:	e13ffb17 	ldw	r4,-20(fp)
 2000900:	20032bc0 	call	20032bc <__floatsidf>
 2000904:	100b883a 	mov	r5,r2
 2000908:	180d883a 	mov	r6,r3
 200090c:	2809883a 	mov	r4,r5
 2000910:	300b883a 	mov	r5,r6
 2000914:	000d883a 	mov	r6,zero
 2000918:	01d00ff4 	movhi	r7,16447
 200091c:	20020a00 	call	20020a0 <__divdf3>
 2000920:	1009883a 	mov	r4,r2
 2000924:	180b883a 	mov	r5,r3
 2000928:	2005883a 	mov	r2,r4
 200092c:	2807883a 	mov	r3,r5
 2000930:	1009883a 	mov	r4,r2
 2000934:	180b883a 	mov	r5,r3
 2000938:	000d883a 	mov	r6,zero
 200093c:	01d01c34 	movhi	r7,16496
 2000940:	39f80004 	addi	r7,r7,-8192
 2000944:	2002a3c0 	call	2002a3c <__muldf3>
 2000948:	1009883a 	mov	r4,r2
 200094c:	180b883a 	mov	r5,r3
 2000950:	2005883a 	mov	r2,r4
 2000954:	2807883a 	mov	r3,r5
 2000958:	1009883a 	mov	r4,r2
 200095c:	180b883a 	mov	r5,r3
 2000960:	200323c0 	call	200323c <__fixdfsi>
 2000964:	00c08234 	movhi	r3,520
 2000968:	18f33404 	addi	r3,r3,-13104
 200096c:	1085883a 	add	r2,r2,r2
 2000970:	1885883a 	add	r2,r3,r2
 2000974:	1080000b 	ldhu	r2,0(r2)
 2000978:	e0bffc8d 	sth	r2,-14(fp)
 200097c:	e13ffb17 	ldw	r4,-20(fp)
 2000980:	20032bc0 	call	20032bc <__floatsidf>
 2000984:	100b883a 	mov	r5,r2
 2000988:	180d883a 	mov	r6,r3
 200098c:	2809883a 	mov	r4,r5
 2000990:	300b883a 	mov	r5,r6
 2000994:	000d883a 	mov	r6,zero
 2000998:	01d00ff4 	movhi	r7,16447
 200099c:	20020a00 	call	20020a0 <__divdf3>
 20009a0:	1009883a 	mov	r4,r2
 20009a4:	180b883a 	mov	r5,r3
 20009a8:	2005883a 	mov	r2,r4
 20009ac:	2807883a 	mov	r3,r5
 20009b0:	1009883a 	mov	r4,r2
 20009b4:	180b883a 	mov	r5,r3
 20009b8:	000d883a 	mov	r6,zero
 20009bc:	01d01c34 	movhi	r7,16496
 20009c0:	39f80004 	addi	r7,r7,-8192
 20009c4:	2002a3c0 	call	2002a3c <__muldf3>
 20009c8:	1009883a 	mov	r4,r2
 20009cc:	180b883a 	mov	r5,r3
 20009d0:	2005883a 	mov	r2,r4
 20009d4:	2807883a 	mov	r3,r5
 20009d8:	1009883a 	mov	r4,r2
 20009dc:	180b883a 	mov	r5,r3
 20009e0:	200323c0 	call	200323c <__fixdfsi>
 20009e4:	00c08234 	movhi	r3,520
 20009e8:	18f33404 	addi	r3,r3,-13104
 20009ec:	1085883a 	add	r2,r2,r2
 20009f0:	1885883a 	add	r2,r3,r2
 20009f4:	1080000b 	ldhu	r2,0(r2)
 20009f8:	e0bffd0d 	sth	r2,-12(fp)
 20009fc:	0000d106 	br	2000d44 <displayColourBars+0x70c>
 2000a00:	e0bffa17 	ldw	r2,-24(fp)
 2000a04:	10800410 	cmplti	r2,r2,16
 2000a08:	1000261e 	bne	r2,zero,2000aa4 <displayColourBars+0x46c>
 2000a0c:	e0bffa17 	ldw	r2,-24(fp)
 2000a10:	10800508 	cmpgei	r2,r2,20
 2000a14:	1000231e 	bne	r2,zero,2000aa4 <displayColourBars+0x46c>
 2000a18:	e03ffc0d 	sth	zero,-16(fp)
 2000a1c:	e03ffc8d 	sth	zero,-14(fp)
 2000a20:	e13ffb17 	ldw	r4,-20(fp)
 2000a24:	20032bc0 	call	20032bc <__floatsidf>
 2000a28:	100b883a 	mov	r5,r2
 2000a2c:	180d883a 	mov	r6,r3
 2000a30:	2809883a 	mov	r4,r5
 2000a34:	300b883a 	mov	r5,r6
 2000a38:	000d883a 	mov	r6,zero
 2000a3c:	01d00ff4 	movhi	r7,16447
 2000a40:	20020a00 	call	20020a0 <__divdf3>
 2000a44:	1009883a 	mov	r4,r2
 2000a48:	180b883a 	mov	r5,r3
 2000a4c:	2005883a 	mov	r2,r4
 2000a50:	2807883a 	mov	r3,r5
 2000a54:	1009883a 	mov	r4,r2
 2000a58:	180b883a 	mov	r5,r3
 2000a5c:	000d883a 	mov	r6,zero
 2000a60:	01d01c34 	movhi	r7,16496
 2000a64:	39f80004 	addi	r7,r7,-8192
 2000a68:	2002a3c0 	call	2002a3c <__muldf3>
 2000a6c:	1009883a 	mov	r4,r2
 2000a70:	180b883a 	mov	r5,r3
 2000a74:	2005883a 	mov	r2,r4
 2000a78:	2807883a 	mov	r3,r5
 2000a7c:	1009883a 	mov	r4,r2
 2000a80:	180b883a 	mov	r5,r3
 2000a84:	200323c0 	call	200323c <__fixdfsi>
 2000a88:	00c08234 	movhi	r3,520
 2000a8c:	18f33404 	addi	r3,r3,-13104
 2000a90:	1085883a 	add	r2,r2,r2
 2000a94:	1885883a 	add	r2,r3,r2
 2000a98:	1080000b 	ldhu	r2,0(r2)
 2000a9c:	e0bffd0d 	sth	r2,-12(fp)
 2000aa0:	0000a806 	br	2000d44 <displayColourBars+0x70c>
 2000aa4:	e0bffa17 	ldw	r2,-24(fp)
 2000aa8:	10800510 	cmplti	r2,r2,20
 2000aac:	1000451e 	bne	r2,zero,2000bc4 <displayColourBars+0x58c>
 2000ab0:	e0bffa17 	ldw	r2,-24(fp)
 2000ab4:	10800608 	cmpgei	r2,r2,24
 2000ab8:	1000421e 	bne	r2,zero,2000bc4 <displayColourBars+0x58c>
 2000abc:	e13ffb17 	ldw	r4,-20(fp)
 2000ac0:	20032bc0 	call	20032bc <__floatsidf>
 2000ac4:	100b883a 	mov	r5,r2
 2000ac8:	180d883a 	mov	r6,r3
 2000acc:	2809883a 	mov	r4,r5
 2000ad0:	300b883a 	mov	r5,r6
 2000ad4:	000d883a 	mov	r6,zero
 2000ad8:	01d00ff4 	movhi	r7,16447
 2000adc:	20020a00 	call	20020a0 <__divdf3>
 2000ae0:	1009883a 	mov	r4,r2
 2000ae4:	180b883a 	mov	r5,r3
 2000ae8:	2005883a 	mov	r2,r4
 2000aec:	2807883a 	mov	r3,r5
 2000af0:	1009883a 	mov	r4,r2
 2000af4:	180b883a 	mov	r5,r3
 2000af8:	000d883a 	mov	r6,zero
 2000afc:	01d01c34 	movhi	r7,16496
 2000b00:	39f80004 	addi	r7,r7,-8192
 2000b04:	2002a3c0 	call	2002a3c <__muldf3>
 2000b08:	1009883a 	mov	r4,r2
 2000b0c:	180b883a 	mov	r5,r3
 2000b10:	2005883a 	mov	r2,r4
 2000b14:	2807883a 	mov	r3,r5
 2000b18:	1009883a 	mov	r4,r2
 2000b1c:	180b883a 	mov	r5,r3
 2000b20:	200323c0 	call	200323c <__fixdfsi>
 2000b24:	00c08234 	movhi	r3,520
 2000b28:	18f33404 	addi	r3,r3,-13104
 2000b2c:	1085883a 	add	r2,r2,r2
 2000b30:	1885883a 	add	r2,r3,r2
 2000b34:	1080000b 	ldhu	r2,0(r2)
 2000b38:	e0bffc0d 	sth	r2,-16(fp)
 2000b3c:	e03ffc8d 	sth	zero,-14(fp)
 2000b40:	e13ffb17 	ldw	r4,-20(fp)
 2000b44:	20032bc0 	call	20032bc <__floatsidf>
 2000b48:	100b883a 	mov	r5,r2
 2000b4c:	180d883a 	mov	r6,r3
 2000b50:	2809883a 	mov	r4,r5
 2000b54:	300b883a 	mov	r5,r6
 2000b58:	000d883a 	mov	r6,zero
 2000b5c:	01d00ff4 	movhi	r7,16447
 2000b60:	20020a00 	call	20020a0 <__divdf3>
 2000b64:	1009883a 	mov	r4,r2
 2000b68:	180b883a 	mov	r5,r3
 2000b6c:	2005883a 	mov	r2,r4
 2000b70:	2807883a 	mov	r3,r5
 2000b74:	1009883a 	mov	r4,r2
 2000b78:	180b883a 	mov	r5,r3
 2000b7c:	000d883a 	mov	r6,zero
 2000b80:	01d01c34 	movhi	r7,16496
 2000b84:	39f80004 	addi	r7,r7,-8192
 2000b88:	2002a3c0 	call	2002a3c <__muldf3>
 2000b8c:	1009883a 	mov	r4,r2
 2000b90:	180b883a 	mov	r5,r3
 2000b94:	2005883a 	mov	r2,r4
 2000b98:	2807883a 	mov	r3,r5
 2000b9c:	1009883a 	mov	r4,r2
 2000ba0:	180b883a 	mov	r5,r3
 2000ba4:	200323c0 	call	200323c <__fixdfsi>
 2000ba8:	00c08234 	movhi	r3,520
 2000bac:	18f33404 	addi	r3,r3,-13104
 2000bb0:	1085883a 	add	r2,r2,r2
 2000bb4:	1885883a 	add	r2,r3,r2
 2000bb8:	1080000b 	ldhu	r2,0(r2)
 2000bbc:	e0bffd0d 	sth	r2,-12(fp)
 2000bc0:	00006006 	br	2000d44 <displayColourBars+0x70c>
 2000bc4:	e13ffb17 	ldw	r4,-20(fp)
 2000bc8:	20032bc0 	call	20032bc <__floatsidf>
 2000bcc:	100b883a 	mov	r5,r2
 2000bd0:	180d883a 	mov	r6,r3
 2000bd4:	2809883a 	mov	r4,r5
 2000bd8:	300b883a 	mov	r5,r6
 2000bdc:	000d883a 	mov	r6,zero
 2000be0:	01d00ff4 	movhi	r7,16447
 2000be4:	20020a00 	call	20020a0 <__divdf3>
 2000be8:	1009883a 	mov	r4,r2
 2000bec:	180b883a 	mov	r5,r3
 2000bf0:	2005883a 	mov	r2,r4
 2000bf4:	2807883a 	mov	r3,r5
 2000bf8:	1009883a 	mov	r4,r2
 2000bfc:	180b883a 	mov	r5,r3
 2000c00:	000d883a 	mov	r6,zero
 2000c04:	01d01c34 	movhi	r7,16496
 2000c08:	39f80004 	addi	r7,r7,-8192
 2000c0c:	2002a3c0 	call	2002a3c <__muldf3>
 2000c10:	1009883a 	mov	r4,r2
 2000c14:	180b883a 	mov	r5,r3
 2000c18:	2005883a 	mov	r2,r4
 2000c1c:	2807883a 	mov	r3,r5
 2000c20:	1009883a 	mov	r4,r2
 2000c24:	180b883a 	mov	r5,r3
 2000c28:	200323c0 	call	200323c <__fixdfsi>
 2000c2c:	00c08234 	movhi	r3,520
 2000c30:	18f33404 	addi	r3,r3,-13104
 2000c34:	1085883a 	add	r2,r2,r2
 2000c38:	1885883a 	add	r2,r3,r2
 2000c3c:	1080000b 	ldhu	r2,0(r2)
 2000c40:	e0bffc0d 	sth	r2,-16(fp)
 2000c44:	e13ffb17 	ldw	r4,-20(fp)
 2000c48:	20032bc0 	call	20032bc <__floatsidf>
 2000c4c:	100b883a 	mov	r5,r2
 2000c50:	180d883a 	mov	r6,r3
 2000c54:	2809883a 	mov	r4,r5
 2000c58:	300b883a 	mov	r5,r6
 2000c5c:	000d883a 	mov	r6,zero
 2000c60:	01d00ff4 	movhi	r7,16447
 2000c64:	20020a00 	call	20020a0 <__divdf3>
 2000c68:	1009883a 	mov	r4,r2
 2000c6c:	180b883a 	mov	r5,r3
 2000c70:	2005883a 	mov	r2,r4
 2000c74:	2807883a 	mov	r3,r5
 2000c78:	1009883a 	mov	r4,r2
 2000c7c:	180b883a 	mov	r5,r3
 2000c80:	000d883a 	mov	r6,zero
 2000c84:	01d01c34 	movhi	r7,16496
 2000c88:	39f80004 	addi	r7,r7,-8192
 2000c8c:	2002a3c0 	call	2002a3c <__muldf3>
 2000c90:	1009883a 	mov	r4,r2
 2000c94:	180b883a 	mov	r5,r3
 2000c98:	2005883a 	mov	r2,r4
 2000c9c:	2807883a 	mov	r3,r5
 2000ca0:	1009883a 	mov	r4,r2
 2000ca4:	180b883a 	mov	r5,r3
 2000ca8:	200323c0 	call	200323c <__fixdfsi>
 2000cac:	00c08234 	movhi	r3,520
 2000cb0:	18f33404 	addi	r3,r3,-13104
 2000cb4:	1085883a 	add	r2,r2,r2
 2000cb8:	1885883a 	add	r2,r3,r2
 2000cbc:	1080000b 	ldhu	r2,0(r2)
 2000cc0:	e0bffc8d 	sth	r2,-14(fp)
 2000cc4:	e13ffb17 	ldw	r4,-20(fp)
 2000cc8:	20032bc0 	call	20032bc <__floatsidf>
 2000ccc:	100b883a 	mov	r5,r2
 2000cd0:	180d883a 	mov	r6,r3
 2000cd4:	2809883a 	mov	r4,r5
 2000cd8:	300b883a 	mov	r5,r6
 2000cdc:	000d883a 	mov	r6,zero
 2000ce0:	01d00ff4 	movhi	r7,16447
 2000ce4:	20020a00 	call	20020a0 <__divdf3>
 2000ce8:	1009883a 	mov	r4,r2
 2000cec:	180b883a 	mov	r5,r3
 2000cf0:	2005883a 	mov	r2,r4
 2000cf4:	2807883a 	mov	r3,r5
 2000cf8:	1009883a 	mov	r4,r2
 2000cfc:	180b883a 	mov	r5,r3
 2000d00:	000d883a 	mov	r6,zero
 2000d04:	01d01c34 	movhi	r7,16496
 2000d08:	39f80004 	addi	r7,r7,-8192
 2000d0c:	2002a3c0 	call	2002a3c <__muldf3>
 2000d10:	1009883a 	mov	r4,r2
 2000d14:	180b883a 	mov	r5,r3
 2000d18:	2005883a 	mov	r2,r4
 2000d1c:	2807883a 	mov	r3,r5
 2000d20:	1009883a 	mov	r4,r2
 2000d24:	180b883a 	mov	r5,r3
 2000d28:	200323c0 	call	200323c <__fixdfsi>
 2000d2c:	00c08234 	movhi	r3,520
 2000d30:	18f33404 	addi	r3,r3,-13104
 2000d34:	1085883a 	add	r2,r2,r2
 2000d38:	1885883a 	add	r2,r3,r2
 2000d3c:	1080000b 	ldhu	r2,0(r2)
 2000d40:	e0bffd0d 	sth	r2,-12(fp)
 2000d44:	e0bffc0b 	ldhu	r2,-16(fp)
 2000d48:	1004953a 	slli	r2,r2,20
 2000d4c:	10cffc2c 	andhi	r3,r2,16368
 2000d50:	e0bffc8b 	ldhu	r2,-14(fp)
 2000d54:	100892ba 	slli	r4,r2,10
 2000d58:	00800434 	movhi	r2,16
 2000d5c:	10bf0004 	addi	r2,r2,-1024
 2000d60:	2084703a 	and	r2,r4,r2
 2000d64:	1886b03a 	or	r3,r3,r2
 2000d68:	e0bffd0b 	ldhu	r2,-12(fp)
 2000d6c:	1080ffcc 	andi	r2,r2,1023
 2000d70:	1884b03a 	or	r2,r3,r2
 2000d74:	e0bfff15 	stw	r2,-4(fp)
 2000d78:	00810074 	movhi	r2,1025
 2000d7c:	10a82004 	addi	r2,r2,-24448
 2000d80:	e0fffe17 	ldw	r3,-8(fp)
 2000d84:	10c00035 	stwio	r3,0(r2)
 2000d88:	e0ffff17 	ldw	r3,-4(fp)
 2000d8c:	00810074 	movhi	r2,1025
 2000d90:	10a81c04 	addi	r2,r2,-24464
 2000d94:	10c00035 	stwio	r3,0(r2)
 2000d98:	00c00044 	movi	r3,1
 2000d9c:	00810074 	movhi	r2,1025
 2000da0:	10a81804 	addi	r2,r2,-24480
 2000da4:	10c00035 	stwio	r3,0(r2)
 2000da8:	0007883a 	mov	r3,zero
 2000dac:	00810074 	movhi	r2,1025
 2000db0:	10a81804 	addi	r2,r2,-24480
 2000db4:	10c00035 	stwio	r3,0(r2)
 2000db8:	e0bffb17 	ldw	r2,-20(fp)
 2000dbc:	10800044 	addi	r2,r2,1
 2000dc0:	e0bffb15 	stw	r2,-20(fp)
 2000dc4:	e0bffb17 	ldw	r2,-20(fp)
 2000dc8:	10800810 	cmplti	r2,r2,32
 2000dcc:	103e221e 	bne	r2,zero,2000658 <__reset+0xfdff7658>
 2000dd0:	e0bffa17 	ldw	r2,-24(fp)
 2000dd4:	10800044 	addi	r2,r2,1
 2000dd8:	e0bffa15 	stw	r2,-24(fp)
 2000ddc:	e0bffa17 	ldw	r2,-24(fp)
 2000de0:	10800810 	cmplti	r2,r2,32
 2000de4:	103e1a1e 	bne	r2,zero,2000650 <__reset+0xfdff7650>
 2000de8:	e037883a 	mov	sp,fp
 2000dec:	dfc00117 	ldw	ra,4(sp)
 2000df0:	df000017 	ldw	fp,0(sp)
 2000df4:	dec00204 	addi	sp,sp,8
 2000df8:	f800283a 	ret

02000dfc <displayCIEColourBars>:
 2000dfc:	defff804 	addi	sp,sp,-32
 2000e00:	dfc00715 	stw	ra,28(sp)
 2000e04:	df000615 	stw	fp,24(sp)
 2000e08:	df000604 	addi	fp,sp,24
 2000e0c:	e03ffa15 	stw	zero,-24(fp)
 2000e10:	00010b06 	br	2001240 <displayCIEColourBars+0x444>
 2000e14:	e03ffb15 	stw	zero,-20(fp)
 2000e18:	00010306 	br	2001228 <displayCIEColourBars+0x42c>
 2000e1c:	00810004 	movi	r2,1024
 2000e20:	e0bffe15 	stw	r2,-8(fp)
 2000e24:	e0bffa17 	ldw	r2,-24(fp)
 2000e28:	1004917a 	slli	r2,r2,5
 2000e2c:	e0fffe17 	ldw	r3,-8(fp)
 2000e30:	1885883a 	add	r2,r3,r2
 2000e34:	e0bffe15 	stw	r2,-8(fp)
 2000e38:	e0fffe17 	ldw	r3,-8(fp)
 2000e3c:	e0bffb17 	ldw	r2,-20(fp)
 2000e40:	1885883a 	add	r2,r3,r2
 2000e44:	e0bffe15 	stw	r2,-8(fp)
 2000e48:	e0bffa17 	ldw	r2,-24(fp)
 2000e4c:	10800208 	cmpgei	r2,r2,8
 2000e50:	1000231e 	bne	r2,zero,2000ee0 <displayCIEColourBars+0xe4>
 2000e54:	e13ffb17 	ldw	r4,-20(fp)
 2000e58:	20032bc0 	call	20032bc <__floatsidf>
 2000e5c:	100b883a 	mov	r5,r2
 2000e60:	180d883a 	mov	r6,r3
 2000e64:	2809883a 	mov	r4,r5
 2000e68:	300b883a 	mov	r5,r6
 2000e6c:	000d883a 	mov	r6,zero
 2000e70:	01d00ff4 	movhi	r7,16447
 2000e74:	20020a00 	call	20020a0 <__divdf3>
 2000e78:	1009883a 	mov	r4,r2
 2000e7c:	180b883a 	mov	r5,r3
 2000e80:	2005883a 	mov	r2,r4
 2000e84:	2807883a 	mov	r3,r5
 2000e88:	1009883a 	mov	r4,r2
 2000e8c:	180b883a 	mov	r5,r3
 2000e90:	000d883a 	mov	r6,zero
 2000e94:	01d01c34 	movhi	r7,16496
 2000e98:	39f80004 	addi	r7,r7,-8192
 2000e9c:	2002a3c0 	call	2002a3c <__muldf3>
 2000ea0:	1009883a 	mov	r4,r2
 2000ea4:	180b883a 	mov	r5,r3
 2000ea8:	2005883a 	mov	r2,r4
 2000eac:	2807883a 	mov	r3,r5
 2000eb0:	1009883a 	mov	r4,r2
 2000eb4:	180b883a 	mov	r5,r3
 2000eb8:	200323c0 	call	200323c <__fixdfsi>
 2000ebc:	00c08234 	movhi	r3,520
 2000ec0:	18f3b404 	addi	r3,r3,-12592
 2000ec4:	1085883a 	add	r2,r2,r2
 2000ec8:	1885883a 	add	r2,r3,r2
 2000ecc:	1080000b 	ldhu	r2,0(r2)
 2000ed0:	e0bffc0d 	sth	r2,-16(fp)
 2000ed4:	e03ffc8d 	sth	zero,-14(fp)
 2000ed8:	e03ffd0d 	sth	zero,-12(fp)
 2000edc:	0000b206 	br	20011a8 <displayCIEColourBars+0x3ac>
 2000ee0:	e0bffa17 	ldw	r2,-24(fp)
 2000ee4:	10800210 	cmplti	r2,r2,8
 2000ee8:	1000261e 	bne	r2,zero,2000f84 <displayCIEColourBars+0x188>
 2000eec:	e0bffa17 	ldw	r2,-24(fp)
 2000ef0:	10800408 	cmpgei	r2,r2,16
 2000ef4:	1000231e 	bne	r2,zero,2000f84 <displayCIEColourBars+0x188>
 2000ef8:	e03ffc0d 	sth	zero,-16(fp)
 2000efc:	e13ffb17 	ldw	r4,-20(fp)
 2000f00:	20032bc0 	call	20032bc <__floatsidf>
 2000f04:	100b883a 	mov	r5,r2
 2000f08:	180d883a 	mov	r6,r3
 2000f0c:	2809883a 	mov	r4,r5
 2000f10:	300b883a 	mov	r5,r6
 2000f14:	000d883a 	mov	r6,zero
 2000f18:	01d00ff4 	movhi	r7,16447
 2000f1c:	20020a00 	call	20020a0 <__divdf3>
 2000f20:	1009883a 	mov	r4,r2
 2000f24:	180b883a 	mov	r5,r3
 2000f28:	2005883a 	mov	r2,r4
 2000f2c:	2807883a 	mov	r3,r5
 2000f30:	1009883a 	mov	r4,r2
 2000f34:	180b883a 	mov	r5,r3
 2000f38:	000d883a 	mov	r6,zero
 2000f3c:	01d01c34 	movhi	r7,16496
 2000f40:	39f80004 	addi	r7,r7,-8192
 2000f44:	2002a3c0 	call	2002a3c <__muldf3>
 2000f48:	1009883a 	mov	r4,r2
 2000f4c:	180b883a 	mov	r5,r3
 2000f50:	2005883a 	mov	r2,r4
 2000f54:	2807883a 	mov	r3,r5
 2000f58:	1009883a 	mov	r4,r2
 2000f5c:	180b883a 	mov	r5,r3
 2000f60:	200323c0 	call	200323c <__fixdfsi>
 2000f64:	00c08234 	movhi	r3,520
 2000f68:	18f3b404 	addi	r3,r3,-12592
 2000f6c:	1085883a 	add	r2,r2,r2
 2000f70:	1885883a 	add	r2,r3,r2
 2000f74:	1080000b 	ldhu	r2,0(r2)
 2000f78:	e0bffc8d 	sth	r2,-14(fp)
 2000f7c:	e03ffd0d 	sth	zero,-12(fp)
 2000f80:	00008906 	br	20011a8 <displayCIEColourBars+0x3ac>
 2000f84:	e0bffa17 	ldw	r2,-24(fp)
 2000f88:	10800410 	cmplti	r2,r2,16
 2000f8c:	1000261e 	bne	r2,zero,2001028 <displayCIEColourBars+0x22c>
 2000f90:	e0bffa17 	ldw	r2,-24(fp)
 2000f94:	10800608 	cmpgei	r2,r2,24
 2000f98:	1000231e 	bne	r2,zero,2001028 <displayCIEColourBars+0x22c>
 2000f9c:	e03ffc0d 	sth	zero,-16(fp)
 2000fa0:	e03ffc8d 	sth	zero,-14(fp)
 2000fa4:	e13ffb17 	ldw	r4,-20(fp)
 2000fa8:	20032bc0 	call	20032bc <__floatsidf>
 2000fac:	100b883a 	mov	r5,r2
 2000fb0:	180d883a 	mov	r6,r3
 2000fb4:	2809883a 	mov	r4,r5
 2000fb8:	300b883a 	mov	r5,r6
 2000fbc:	000d883a 	mov	r6,zero
 2000fc0:	01d00ff4 	movhi	r7,16447
 2000fc4:	20020a00 	call	20020a0 <__divdf3>
 2000fc8:	1009883a 	mov	r4,r2
 2000fcc:	180b883a 	mov	r5,r3
 2000fd0:	2005883a 	mov	r2,r4
 2000fd4:	2807883a 	mov	r3,r5
 2000fd8:	1009883a 	mov	r4,r2
 2000fdc:	180b883a 	mov	r5,r3
 2000fe0:	000d883a 	mov	r6,zero
 2000fe4:	01d01c34 	movhi	r7,16496
 2000fe8:	39f80004 	addi	r7,r7,-8192
 2000fec:	2002a3c0 	call	2002a3c <__muldf3>
 2000ff0:	1009883a 	mov	r4,r2
 2000ff4:	180b883a 	mov	r5,r3
 2000ff8:	2005883a 	mov	r2,r4
 2000ffc:	2807883a 	mov	r3,r5
 2001000:	1009883a 	mov	r4,r2
 2001004:	180b883a 	mov	r5,r3
 2001008:	200323c0 	call	200323c <__fixdfsi>
 200100c:	00c08234 	movhi	r3,520
 2001010:	18f3b404 	addi	r3,r3,-12592
 2001014:	1085883a 	add	r2,r2,r2
 2001018:	1885883a 	add	r2,r3,r2
 200101c:	1080000b 	ldhu	r2,0(r2)
 2001020:	e0bffd0d 	sth	r2,-12(fp)
 2001024:	00006006 	br	20011a8 <displayCIEColourBars+0x3ac>
 2001028:	e13ffb17 	ldw	r4,-20(fp)
 200102c:	20032bc0 	call	20032bc <__floatsidf>
 2001030:	100b883a 	mov	r5,r2
 2001034:	180d883a 	mov	r6,r3
 2001038:	2809883a 	mov	r4,r5
 200103c:	300b883a 	mov	r5,r6
 2001040:	000d883a 	mov	r6,zero
 2001044:	01d00ff4 	movhi	r7,16447
 2001048:	20020a00 	call	20020a0 <__divdf3>
 200104c:	1009883a 	mov	r4,r2
 2001050:	180b883a 	mov	r5,r3
 2001054:	2005883a 	mov	r2,r4
 2001058:	2807883a 	mov	r3,r5
 200105c:	1009883a 	mov	r4,r2
 2001060:	180b883a 	mov	r5,r3
 2001064:	000d883a 	mov	r6,zero
 2001068:	01d01c34 	movhi	r7,16496
 200106c:	39f80004 	addi	r7,r7,-8192
 2001070:	2002a3c0 	call	2002a3c <__muldf3>
 2001074:	1009883a 	mov	r4,r2
 2001078:	180b883a 	mov	r5,r3
 200107c:	2005883a 	mov	r2,r4
 2001080:	2807883a 	mov	r3,r5
 2001084:	1009883a 	mov	r4,r2
 2001088:	180b883a 	mov	r5,r3
 200108c:	200323c0 	call	200323c <__fixdfsi>
 2001090:	00c08234 	movhi	r3,520
 2001094:	18f3b404 	addi	r3,r3,-12592
 2001098:	1085883a 	add	r2,r2,r2
 200109c:	1885883a 	add	r2,r3,r2
 20010a0:	1080000b 	ldhu	r2,0(r2)
 20010a4:	e0bffc0d 	sth	r2,-16(fp)
 20010a8:	e13ffb17 	ldw	r4,-20(fp)
 20010ac:	20032bc0 	call	20032bc <__floatsidf>
 20010b0:	100b883a 	mov	r5,r2
 20010b4:	180d883a 	mov	r6,r3
 20010b8:	2809883a 	mov	r4,r5
 20010bc:	300b883a 	mov	r5,r6
 20010c0:	000d883a 	mov	r6,zero
 20010c4:	01d00ff4 	movhi	r7,16447
 20010c8:	20020a00 	call	20020a0 <__divdf3>
 20010cc:	1009883a 	mov	r4,r2
 20010d0:	180b883a 	mov	r5,r3
 20010d4:	2005883a 	mov	r2,r4
 20010d8:	2807883a 	mov	r3,r5
 20010dc:	1009883a 	mov	r4,r2
 20010e0:	180b883a 	mov	r5,r3
 20010e4:	000d883a 	mov	r6,zero
 20010e8:	01d01c34 	movhi	r7,16496
 20010ec:	39f80004 	addi	r7,r7,-8192
 20010f0:	2002a3c0 	call	2002a3c <__muldf3>
 20010f4:	1009883a 	mov	r4,r2
 20010f8:	180b883a 	mov	r5,r3
 20010fc:	2005883a 	mov	r2,r4
 2001100:	2807883a 	mov	r3,r5
 2001104:	1009883a 	mov	r4,r2
 2001108:	180b883a 	mov	r5,r3
 200110c:	200323c0 	call	200323c <__fixdfsi>
 2001110:	00c08234 	movhi	r3,520
 2001114:	18f3b404 	addi	r3,r3,-12592
 2001118:	1085883a 	add	r2,r2,r2
 200111c:	1885883a 	add	r2,r3,r2
 2001120:	1080000b 	ldhu	r2,0(r2)
 2001124:	e0bffc8d 	sth	r2,-14(fp)
 2001128:	e13ffb17 	ldw	r4,-20(fp)
 200112c:	20032bc0 	call	20032bc <__floatsidf>
 2001130:	100b883a 	mov	r5,r2
 2001134:	180d883a 	mov	r6,r3
 2001138:	2809883a 	mov	r4,r5
 200113c:	300b883a 	mov	r5,r6
 2001140:	000d883a 	mov	r6,zero
 2001144:	01d00ff4 	movhi	r7,16447
 2001148:	20020a00 	call	20020a0 <__divdf3>
 200114c:	1009883a 	mov	r4,r2
 2001150:	180b883a 	mov	r5,r3
 2001154:	2005883a 	mov	r2,r4
 2001158:	2807883a 	mov	r3,r5
 200115c:	1009883a 	mov	r4,r2
 2001160:	180b883a 	mov	r5,r3
 2001164:	000d883a 	mov	r6,zero
 2001168:	01d01c34 	movhi	r7,16496
 200116c:	39f80004 	addi	r7,r7,-8192
 2001170:	2002a3c0 	call	2002a3c <__muldf3>
 2001174:	1009883a 	mov	r4,r2
 2001178:	180b883a 	mov	r5,r3
 200117c:	2005883a 	mov	r2,r4
 2001180:	2807883a 	mov	r3,r5
 2001184:	1009883a 	mov	r4,r2
 2001188:	180b883a 	mov	r5,r3
 200118c:	200323c0 	call	200323c <__fixdfsi>
 2001190:	00c08234 	movhi	r3,520
 2001194:	18f3b404 	addi	r3,r3,-12592
 2001198:	1085883a 	add	r2,r2,r2
 200119c:	1885883a 	add	r2,r3,r2
 20011a0:	1080000b 	ldhu	r2,0(r2)
 20011a4:	e0bffd0d 	sth	r2,-12(fp)
 20011a8:	e0bffc0b 	ldhu	r2,-16(fp)
 20011ac:	1004953a 	slli	r2,r2,20
 20011b0:	10cffc2c 	andhi	r3,r2,16368
 20011b4:	e0bffc8b 	ldhu	r2,-14(fp)
 20011b8:	100892ba 	slli	r4,r2,10
 20011bc:	00800434 	movhi	r2,16
 20011c0:	10bf0004 	addi	r2,r2,-1024
 20011c4:	2084703a 	and	r2,r4,r2
 20011c8:	1886b03a 	or	r3,r3,r2
 20011cc:	e0bffd0b 	ldhu	r2,-12(fp)
 20011d0:	1080ffcc 	andi	r2,r2,1023
 20011d4:	1884b03a 	or	r2,r3,r2
 20011d8:	e0bfff15 	stw	r2,-4(fp)
 20011dc:	00810074 	movhi	r2,1025
 20011e0:	10a82004 	addi	r2,r2,-24448
 20011e4:	e0fffe17 	ldw	r3,-8(fp)
 20011e8:	10c00035 	stwio	r3,0(r2)
 20011ec:	e0ffff17 	ldw	r3,-4(fp)
 20011f0:	00810074 	movhi	r2,1025
 20011f4:	10a81c04 	addi	r2,r2,-24464
 20011f8:	10c00035 	stwio	r3,0(r2)
 20011fc:	00c00044 	movi	r3,1
 2001200:	00810074 	movhi	r2,1025
 2001204:	10a81804 	addi	r2,r2,-24480
 2001208:	10c00035 	stwio	r3,0(r2)
 200120c:	0007883a 	mov	r3,zero
 2001210:	00810074 	movhi	r2,1025
 2001214:	10a81804 	addi	r2,r2,-24480
 2001218:	10c00035 	stwio	r3,0(r2)
 200121c:	e0bffb17 	ldw	r2,-20(fp)
 2001220:	10800044 	addi	r2,r2,1
 2001224:	e0bffb15 	stw	r2,-20(fp)
 2001228:	e0bffb17 	ldw	r2,-20(fp)
 200122c:	10800810 	cmplti	r2,r2,32
 2001230:	103efa1e 	bne	r2,zero,2000e1c <__reset+0xfdff7e1c>
 2001234:	e0bffa17 	ldw	r2,-24(fp)
 2001238:	10800044 	addi	r2,r2,1
 200123c:	e0bffa15 	stw	r2,-24(fp)
 2001240:	e0bffa17 	ldw	r2,-24(fp)
 2001244:	10800810 	cmplti	r2,r2,32
 2001248:	103ef21e 	bne	r2,zero,2000e14 <__reset+0xfdff7e14>
 200124c:	e037883a 	mov	sp,fp
 2001250:	dfc00117 	ldw	ra,4(sp)
 2001254:	df000017 	ldw	fp,0(sp)
 2001258:	dec00204 	addi	sp,sp,8
 200125c:	f800283a 	ret

02001260 <displayGamma149ColourBars>:
 2001260:	defff804 	addi	sp,sp,-32
 2001264:	dfc00715 	stw	ra,28(sp)
 2001268:	df000615 	stw	fp,24(sp)
 200126c:	df000604 	addi	fp,sp,24
 2001270:	e03ffa15 	stw	zero,-24(fp)
 2001274:	00010b06 	br	20016a4 <displayGamma149ColourBars+0x444>
 2001278:	e03ffb15 	stw	zero,-20(fp)
 200127c:	00010306 	br	200168c <displayGamma149ColourBars+0x42c>
 2001280:	00810004 	movi	r2,1024
 2001284:	e0bffe15 	stw	r2,-8(fp)
 2001288:	e0bffa17 	ldw	r2,-24(fp)
 200128c:	1004917a 	slli	r2,r2,5
 2001290:	e0fffe17 	ldw	r3,-8(fp)
 2001294:	1885883a 	add	r2,r3,r2
 2001298:	e0bffe15 	stw	r2,-8(fp)
 200129c:	e0fffe17 	ldw	r3,-8(fp)
 20012a0:	e0bffb17 	ldw	r2,-20(fp)
 20012a4:	1885883a 	add	r2,r3,r2
 20012a8:	e0bffe15 	stw	r2,-8(fp)
 20012ac:	e0bffa17 	ldw	r2,-24(fp)
 20012b0:	10800208 	cmpgei	r2,r2,8
 20012b4:	1000231e 	bne	r2,zero,2001344 <displayGamma149ColourBars+0xe4>
 20012b8:	e13ffb17 	ldw	r4,-20(fp)
 20012bc:	20032bc0 	call	20032bc <__floatsidf>
 20012c0:	100b883a 	mov	r5,r2
 20012c4:	180d883a 	mov	r6,r3
 20012c8:	2809883a 	mov	r4,r5
 20012cc:	300b883a 	mov	r5,r6
 20012d0:	000d883a 	mov	r6,zero
 20012d4:	01d00ff4 	movhi	r7,16447
 20012d8:	20020a00 	call	20020a0 <__divdf3>
 20012dc:	1009883a 	mov	r4,r2
 20012e0:	180b883a 	mov	r5,r3
 20012e4:	2005883a 	mov	r2,r4
 20012e8:	2807883a 	mov	r3,r5
 20012ec:	1009883a 	mov	r4,r2
 20012f0:	180b883a 	mov	r5,r3
 20012f4:	000d883a 	mov	r6,zero
 20012f8:	01d01c34 	movhi	r7,16496
 20012fc:	39f80004 	addi	r7,r7,-8192
 2001300:	2002a3c0 	call	2002a3c <__muldf3>
 2001304:	1009883a 	mov	r4,r2
 2001308:	180b883a 	mov	r5,r3
 200130c:	2005883a 	mov	r2,r4
 2001310:	2807883a 	mov	r3,r5
 2001314:	1009883a 	mov	r4,r2
 2001318:	180b883a 	mov	r5,r3
 200131c:	200323c0 	call	200323c <__fixdfsi>
 2001320:	00c08234 	movhi	r3,520
 2001324:	18f43404 	addi	r3,r3,-12080
 2001328:	1085883a 	add	r2,r2,r2
 200132c:	1885883a 	add	r2,r3,r2
 2001330:	1080000b 	ldhu	r2,0(r2)
 2001334:	e0bffc0d 	sth	r2,-16(fp)
 2001338:	e03ffc8d 	sth	zero,-14(fp)
 200133c:	e03ffd0d 	sth	zero,-12(fp)
 2001340:	0000b206 	br	200160c <displayGamma149ColourBars+0x3ac>
 2001344:	e0bffa17 	ldw	r2,-24(fp)
 2001348:	10800210 	cmplti	r2,r2,8
 200134c:	1000261e 	bne	r2,zero,20013e8 <displayGamma149ColourBars+0x188>
 2001350:	e0bffa17 	ldw	r2,-24(fp)
 2001354:	10800408 	cmpgei	r2,r2,16
 2001358:	1000231e 	bne	r2,zero,20013e8 <displayGamma149ColourBars+0x188>
 200135c:	e03ffc0d 	sth	zero,-16(fp)
 2001360:	e13ffb17 	ldw	r4,-20(fp)
 2001364:	20032bc0 	call	20032bc <__floatsidf>
 2001368:	100b883a 	mov	r5,r2
 200136c:	180d883a 	mov	r6,r3
 2001370:	2809883a 	mov	r4,r5
 2001374:	300b883a 	mov	r5,r6
 2001378:	000d883a 	mov	r6,zero
 200137c:	01d00ff4 	movhi	r7,16447
 2001380:	20020a00 	call	20020a0 <__divdf3>
 2001384:	1009883a 	mov	r4,r2
 2001388:	180b883a 	mov	r5,r3
 200138c:	2005883a 	mov	r2,r4
 2001390:	2807883a 	mov	r3,r5
 2001394:	1009883a 	mov	r4,r2
 2001398:	180b883a 	mov	r5,r3
 200139c:	000d883a 	mov	r6,zero
 20013a0:	01d01c34 	movhi	r7,16496
 20013a4:	39f80004 	addi	r7,r7,-8192
 20013a8:	2002a3c0 	call	2002a3c <__muldf3>
 20013ac:	1009883a 	mov	r4,r2
 20013b0:	180b883a 	mov	r5,r3
 20013b4:	2005883a 	mov	r2,r4
 20013b8:	2807883a 	mov	r3,r5
 20013bc:	1009883a 	mov	r4,r2
 20013c0:	180b883a 	mov	r5,r3
 20013c4:	200323c0 	call	200323c <__fixdfsi>
 20013c8:	00c08234 	movhi	r3,520
 20013cc:	18f43404 	addi	r3,r3,-12080
 20013d0:	1085883a 	add	r2,r2,r2
 20013d4:	1885883a 	add	r2,r3,r2
 20013d8:	1080000b 	ldhu	r2,0(r2)
 20013dc:	e0bffc8d 	sth	r2,-14(fp)
 20013e0:	e03ffd0d 	sth	zero,-12(fp)
 20013e4:	00008906 	br	200160c <displayGamma149ColourBars+0x3ac>
 20013e8:	e0bffa17 	ldw	r2,-24(fp)
 20013ec:	10800410 	cmplti	r2,r2,16
 20013f0:	1000261e 	bne	r2,zero,200148c <displayGamma149ColourBars+0x22c>
 20013f4:	e0bffa17 	ldw	r2,-24(fp)
 20013f8:	10800608 	cmpgei	r2,r2,24
 20013fc:	1000231e 	bne	r2,zero,200148c <displayGamma149ColourBars+0x22c>
 2001400:	e03ffc0d 	sth	zero,-16(fp)
 2001404:	e03ffc8d 	sth	zero,-14(fp)
 2001408:	e13ffb17 	ldw	r4,-20(fp)
 200140c:	20032bc0 	call	20032bc <__floatsidf>
 2001410:	100b883a 	mov	r5,r2
 2001414:	180d883a 	mov	r6,r3
 2001418:	2809883a 	mov	r4,r5
 200141c:	300b883a 	mov	r5,r6
 2001420:	000d883a 	mov	r6,zero
 2001424:	01d00ff4 	movhi	r7,16447
 2001428:	20020a00 	call	20020a0 <__divdf3>
 200142c:	1009883a 	mov	r4,r2
 2001430:	180b883a 	mov	r5,r3
 2001434:	2005883a 	mov	r2,r4
 2001438:	2807883a 	mov	r3,r5
 200143c:	1009883a 	mov	r4,r2
 2001440:	180b883a 	mov	r5,r3
 2001444:	000d883a 	mov	r6,zero
 2001448:	01d01c34 	movhi	r7,16496
 200144c:	39f80004 	addi	r7,r7,-8192
 2001450:	2002a3c0 	call	2002a3c <__muldf3>
 2001454:	1009883a 	mov	r4,r2
 2001458:	180b883a 	mov	r5,r3
 200145c:	2005883a 	mov	r2,r4
 2001460:	2807883a 	mov	r3,r5
 2001464:	1009883a 	mov	r4,r2
 2001468:	180b883a 	mov	r5,r3
 200146c:	200323c0 	call	200323c <__fixdfsi>
 2001470:	00c08234 	movhi	r3,520
 2001474:	18f43404 	addi	r3,r3,-12080
 2001478:	1085883a 	add	r2,r2,r2
 200147c:	1885883a 	add	r2,r3,r2
 2001480:	1080000b 	ldhu	r2,0(r2)
 2001484:	e0bffd0d 	sth	r2,-12(fp)
 2001488:	00006006 	br	200160c <displayGamma149ColourBars+0x3ac>
 200148c:	e13ffb17 	ldw	r4,-20(fp)
 2001490:	20032bc0 	call	20032bc <__floatsidf>
 2001494:	100b883a 	mov	r5,r2
 2001498:	180d883a 	mov	r6,r3
 200149c:	2809883a 	mov	r4,r5
 20014a0:	300b883a 	mov	r5,r6
 20014a4:	000d883a 	mov	r6,zero
 20014a8:	01d00ff4 	movhi	r7,16447
 20014ac:	20020a00 	call	20020a0 <__divdf3>
 20014b0:	1009883a 	mov	r4,r2
 20014b4:	180b883a 	mov	r5,r3
 20014b8:	2005883a 	mov	r2,r4
 20014bc:	2807883a 	mov	r3,r5
 20014c0:	1009883a 	mov	r4,r2
 20014c4:	180b883a 	mov	r5,r3
 20014c8:	000d883a 	mov	r6,zero
 20014cc:	01d01c34 	movhi	r7,16496
 20014d0:	39f80004 	addi	r7,r7,-8192
 20014d4:	2002a3c0 	call	2002a3c <__muldf3>
 20014d8:	1009883a 	mov	r4,r2
 20014dc:	180b883a 	mov	r5,r3
 20014e0:	2005883a 	mov	r2,r4
 20014e4:	2807883a 	mov	r3,r5
 20014e8:	1009883a 	mov	r4,r2
 20014ec:	180b883a 	mov	r5,r3
 20014f0:	200323c0 	call	200323c <__fixdfsi>
 20014f4:	00c08234 	movhi	r3,520
 20014f8:	18f43404 	addi	r3,r3,-12080
 20014fc:	1085883a 	add	r2,r2,r2
 2001500:	1885883a 	add	r2,r3,r2
 2001504:	1080000b 	ldhu	r2,0(r2)
 2001508:	e0bffc0d 	sth	r2,-16(fp)
 200150c:	e13ffb17 	ldw	r4,-20(fp)
 2001510:	20032bc0 	call	20032bc <__floatsidf>
 2001514:	100b883a 	mov	r5,r2
 2001518:	180d883a 	mov	r6,r3
 200151c:	2809883a 	mov	r4,r5
 2001520:	300b883a 	mov	r5,r6
 2001524:	000d883a 	mov	r6,zero
 2001528:	01d00ff4 	movhi	r7,16447
 200152c:	20020a00 	call	20020a0 <__divdf3>
 2001530:	1009883a 	mov	r4,r2
 2001534:	180b883a 	mov	r5,r3
 2001538:	2005883a 	mov	r2,r4
 200153c:	2807883a 	mov	r3,r5
 2001540:	1009883a 	mov	r4,r2
 2001544:	180b883a 	mov	r5,r3
 2001548:	000d883a 	mov	r6,zero
 200154c:	01d01c34 	movhi	r7,16496
 2001550:	39f80004 	addi	r7,r7,-8192
 2001554:	2002a3c0 	call	2002a3c <__muldf3>
 2001558:	1009883a 	mov	r4,r2
 200155c:	180b883a 	mov	r5,r3
 2001560:	2005883a 	mov	r2,r4
 2001564:	2807883a 	mov	r3,r5
 2001568:	1009883a 	mov	r4,r2
 200156c:	180b883a 	mov	r5,r3
 2001570:	200323c0 	call	200323c <__fixdfsi>
 2001574:	00c08234 	movhi	r3,520
 2001578:	18f43404 	addi	r3,r3,-12080
 200157c:	1085883a 	add	r2,r2,r2
 2001580:	1885883a 	add	r2,r3,r2
 2001584:	1080000b 	ldhu	r2,0(r2)
 2001588:	e0bffc8d 	sth	r2,-14(fp)
 200158c:	e13ffb17 	ldw	r4,-20(fp)
 2001590:	20032bc0 	call	20032bc <__floatsidf>
 2001594:	100b883a 	mov	r5,r2
 2001598:	180d883a 	mov	r6,r3
 200159c:	2809883a 	mov	r4,r5
 20015a0:	300b883a 	mov	r5,r6
 20015a4:	000d883a 	mov	r6,zero
 20015a8:	01d00ff4 	movhi	r7,16447
 20015ac:	20020a00 	call	20020a0 <__divdf3>
 20015b0:	1009883a 	mov	r4,r2
 20015b4:	180b883a 	mov	r5,r3
 20015b8:	2005883a 	mov	r2,r4
 20015bc:	2807883a 	mov	r3,r5
 20015c0:	1009883a 	mov	r4,r2
 20015c4:	180b883a 	mov	r5,r3
 20015c8:	000d883a 	mov	r6,zero
 20015cc:	01d01c34 	movhi	r7,16496
 20015d0:	39f80004 	addi	r7,r7,-8192
 20015d4:	2002a3c0 	call	2002a3c <__muldf3>
 20015d8:	1009883a 	mov	r4,r2
 20015dc:	180b883a 	mov	r5,r3
 20015e0:	2005883a 	mov	r2,r4
 20015e4:	2807883a 	mov	r3,r5
 20015e8:	1009883a 	mov	r4,r2
 20015ec:	180b883a 	mov	r5,r3
 20015f0:	200323c0 	call	200323c <__fixdfsi>
 20015f4:	00c08234 	movhi	r3,520
 20015f8:	18f43404 	addi	r3,r3,-12080
 20015fc:	1085883a 	add	r2,r2,r2
 2001600:	1885883a 	add	r2,r3,r2
 2001604:	1080000b 	ldhu	r2,0(r2)
 2001608:	e0bffd0d 	sth	r2,-12(fp)
 200160c:	e0bffc0b 	ldhu	r2,-16(fp)
 2001610:	1004953a 	slli	r2,r2,20
 2001614:	10cffc2c 	andhi	r3,r2,16368
 2001618:	e0bffc8b 	ldhu	r2,-14(fp)
 200161c:	100892ba 	slli	r4,r2,10
 2001620:	00800434 	movhi	r2,16
 2001624:	10bf0004 	addi	r2,r2,-1024
 2001628:	2084703a 	and	r2,r4,r2
 200162c:	1886b03a 	or	r3,r3,r2
 2001630:	e0bffd0b 	ldhu	r2,-12(fp)
 2001634:	1080ffcc 	andi	r2,r2,1023
 2001638:	1884b03a 	or	r2,r3,r2
 200163c:	e0bfff15 	stw	r2,-4(fp)
 2001640:	00810074 	movhi	r2,1025
 2001644:	10a82004 	addi	r2,r2,-24448
 2001648:	e0fffe17 	ldw	r3,-8(fp)
 200164c:	10c00035 	stwio	r3,0(r2)
 2001650:	e0ffff17 	ldw	r3,-4(fp)
 2001654:	00810074 	movhi	r2,1025
 2001658:	10a81c04 	addi	r2,r2,-24464
 200165c:	10c00035 	stwio	r3,0(r2)
 2001660:	00c00044 	movi	r3,1
 2001664:	00810074 	movhi	r2,1025
 2001668:	10a81804 	addi	r2,r2,-24480
 200166c:	10c00035 	stwio	r3,0(r2)
 2001670:	0007883a 	mov	r3,zero
 2001674:	00810074 	movhi	r2,1025
 2001678:	10a81804 	addi	r2,r2,-24480
 200167c:	10c00035 	stwio	r3,0(r2)
 2001680:	e0bffb17 	ldw	r2,-20(fp)
 2001684:	10800044 	addi	r2,r2,1
 2001688:	e0bffb15 	stw	r2,-20(fp)
 200168c:	e0bffb17 	ldw	r2,-20(fp)
 2001690:	10800810 	cmplti	r2,r2,32
 2001694:	103efa1e 	bne	r2,zero,2001280 <__reset+0xfdff8280>
 2001698:	e0bffa17 	ldw	r2,-24(fp)
 200169c:	10800044 	addi	r2,r2,1
 20016a0:	e0bffa15 	stw	r2,-24(fp)
 20016a4:	e0bffa17 	ldw	r2,-24(fp)
 20016a8:	10800810 	cmplti	r2,r2,32
 20016ac:	103ef21e 	bne	r2,zero,2001278 <__reset+0xfdff8278>
 20016b0:	e037883a 	mov	sp,fp
 20016b4:	dfc00117 	ldw	ra,4(sp)
 20016b8:	df000017 	ldw	fp,0(sp)
 20016bc:	dec00204 	addi	sp,sp,8
 20016c0:	f800283a 	ret

020016c4 <displayGamma98ColourBars>:
 20016c4:	defff804 	addi	sp,sp,-32
 20016c8:	dfc00715 	stw	ra,28(sp)
 20016cc:	df000615 	stw	fp,24(sp)
 20016d0:	df000604 	addi	fp,sp,24
 20016d4:	e03ffa15 	stw	zero,-24(fp)
 20016d8:	00010b06 	br	2001b08 <displayGamma98ColourBars+0x444>
 20016dc:	e03ffb15 	stw	zero,-20(fp)
 20016e0:	00010306 	br	2001af0 <displayGamma98ColourBars+0x42c>
 20016e4:	00810004 	movi	r2,1024
 20016e8:	e0bffe15 	stw	r2,-8(fp)
 20016ec:	e0bffa17 	ldw	r2,-24(fp)
 20016f0:	1004917a 	slli	r2,r2,5
 20016f4:	e0fffe17 	ldw	r3,-8(fp)
 20016f8:	1885883a 	add	r2,r3,r2
 20016fc:	e0bffe15 	stw	r2,-8(fp)
 2001700:	e0fffe17 	ldw	r3,-8(fp)
 2001704:	e0bffb17 	ldw	r2,-20(fp)
 2001708:	1885883a 	add	r2,r3,r2
 200170c:	e0bffe15 	stw	r2,-8(fp)
 2001710:	e0bffa17 	ldw	r2,-24(fp)
 2001714:	10800208 	cmpgei	r2,r2,8
 2001718:	1000231e 	bne	r2,zero,20017a8 <displayGamma98ColourBars+0xe4>
 200171c:	e13ffb17 	ldw	r4,-20(fp)
 2001720:	20032bc0 	call	20032bc <__floatsidf>
 2001724:	100b883a 	mov	r5,r2
 2001728:	180d883a 	mov	r6,r3
 200172c:	2809883a 	mov	r4,r5
 2001730:	300b883a 	mov	r5,r6
 2001734:	000d883a 	mov	r6,zero
 2001738:	01d00ff4 	movhi	r7,16447
 200173c:	20020a00 	call	20020a0 <__divdf3>
 2001740:	1009883a 	mov	r4,r2
 2001744:	180b883a 	mov	r5,r3
 2001748:	2005883a 	mov	r2,r4
 200174c:	2807883a 	mov	r3,r5
 2001750:	1009883a 	mov	r4,r2
 2001754:	180b883a 	mov	r5,r3
 2001758:	000d883a 	mov	r6,zero
 200175c:	01d01c34 	movhi	r7,16496
 2001760:	39f80004 	addi	r7,r7,-8192
 2001764:	2002a3c0 	call	2002a3c <__muldf3>
 2001768:	1009883a 	mov	r4,r2
 200176c:	180b883a 	mov	r5,r3
 2001770:	2005883a 	mov	r2,r4
 2001774:	2807883a 	mov	r3,r5
 2001778:	1009883a 	mov	r4,r2
 200177c:	180b883a 	mov	r5,r3
 2001780:	200323c0 	call	200323c <__fixdfsi>
 2001784:	00c08234 	movhi	r3,520
 2001788:	18f4b404 	addi	r3,r3,-11568
 200178c:	1085883a 	add	r2,r2,r2
 2001790:	1885883a 	add	r2,r3,r2
 2001794:	1080000b 	ldhu	r2,0(r2)
 2001798:	e0bffc0d 	sth	r2,-16(fp)
 200179c:	e03ffc8d 	sth	zero,-14(fp)
 20017a0:	e03ffd0d 	sth	zero,-12(fp)
 20017a4:	0000b206 	br	2001a70 <displayGamma98ColourBars+0x3ac>
 20017a8:	e0bffa17 	ldw	r2,-24(fp)
 20017ac:	10800210 	cmplti	r2,r2,8
 20017b0:	1000261e 	bne	r2,zero,200184c <displayGamma98ColourBars+0x188>
 20017b4:	e0bffa17 	ldw	r2,-24(fp)
 20017b8:	10800408 	cmpgei	r2,r2,16
 20017bc:	1000231e 	bne	r2,zero,200184c <displayGamma98ColourBars+0x188>
 20017c0:	e03ffc0d 	sth	zero,-16(fp)
 20017c4:	e13ffb17 	ldw	r4,-20(fp)
 20017c8:	20032bc0 	call	20032bc <__floatsidf>
 20017cc:	100b883a 	mov	r5,r2
 20017d0:	180d883a 	mov	r6,r3
 20017d4:	2809883a 	mov	r4,r5
 20017d8:	300b883a 	mov	r5,r6
 20017dc:	000d883a 	mov	r6,zero
 20017e0:	01d00ff4 	movhi	r7,16447
 20017e4:	20020a00 	call	20020a0 <__divdf3>
 20017e8:	1009883a 	mov	r4,r2
 20017ec:	180b883a 	mov	r5,r3
 20017f0:	2005883a 	mov	r2,r4
 20017f4:	2807883a 	mov	r3,r5
 20017f8:	1009883a 	mov	r4,r2
 20017fc:	180b883a 	mov	r5,r3
 2001800:	000d883a 	mov	r6,zero
 2001804:	01d01c34 	movhi	r7,16496
 2001808:	39f80004 	addi	r7,r7,-8192
 200180c:	2002a3c0 	call	2002a3c <__muldf3>
 2001810:	1009883a 	mov	r4,r2
 2001814:	180b883a 	mov	r5,r3
 2001818:	2005883a 	mov	r2,r4
 200181c:	2807883a 	mov	r3,r5
 2001820:	1009883a 	mov	r4,r2
 2001824:	180b883a 	mov	r5,r3
 2001828:	200323c0 	call	200323c <__fixdfsi>
 200182c:	00c08234 	movhi	r3,520
 2001830:	18f4b404 	addi	r3,r3,-11568
 2001834:	1085883a 	add	r2,r2,r2
 2001838:	1885883a 	add	r2,r3,r2
 200183c:	1080000b 	ldhu	r2,0(r2)
 2001840:	e0bffc8d 	sth	r2,-14(fp)
 2001844:	e03ffd0d 	sth	zero,-12(fp)
 2001848:	00008906 	br	2001a70 <displayGamma98ColourBars+0x3ac>
 200184c:	e0bffa17 	ldw	r2,-24(fp)
 2001850:	10800410 	cmplti	r2,r2,16
 2001854:	1000261e 	bne	r2,zero,20018f0 <displayGamma98ColourBars+0x22c>
 2001858:	e0bffa17 	ldw	r2,-24(fp)
 200185c:	10800608 	cmpgei	r2,r2,24
 2001860:	1000231e 	bne	r2,zero,20018f0 <displayGamma98ColourBars+0x22c>
 2001864:	e03ffc0d 	sth	zero,-16(fp)
 2001868:	e03ffc8d 	sth	zero,-14(fp)
 200186c:	e13ffb17 	ldw	r4,-20(fp)
 2001870:	20032bc0 	call	20032bc <__floatsidf>
 2001874:	100b883a 	mov	r5,r2
 2001878:	180d883a 	mov	r6,r3
 200187c:	2809883a 	mov	r4,r5
 2001880:	300b883a 	mov	r5,r6
 2001884:	000d883a 	mov	r6,zero
 2001888:	01d00ff4 	movhi	r7,16447
 200188c:	20020a00 	call	20020a0 <__divdf3>
 2001890:	1009883a 	mov	r4,r2
 2001894:	180b883a 	mov	r5,r3
 2001898:	2005883a 	mov	r2,r4
 200189c:	2807883a 	mov	r3,r5
 20018a0:	1009883a 	mov	r4,r2
 20018a4:	180b883a 	mov	r5,r3
 20018a8:	000d883a 	mov	r6,zero
 20018ac:	01d01c34 	movhi	r7,16496
 20018b0:	39f80004 	addi	r7,r7,-8192
 20018b4:	2002a3c0 	call	2002a3c <__muldf3>
 20018b8:	1009883a 	mov	r4,r2
 20018bc:	180b883a 	mov	r5,r3
 20018c0:	2005883a 	mov	r2,r4
 20018c4:	2807883a 	mov	r3,r5
 20018c8:	1009883a 	mov	r4,r2
 20018cc:	180b883a 	mov	r5,r3
 20018d0:	200323c0 	call	200323c <__fixdfsi>
 20018d4:	00c08234 	movhi	r3,520
 20018d8:	18f4b404 	addi	r3,r3,-11568
 20018dc:	1085883a 	add	r2,r2,r2
 20018e0:	1885883a 	add	r2,r3,r2
 20018e4:	1080000b 	ldhu	r2,0(r2)
 20018e8:	e0bffd0d 	sth	r2,-12(fp)
 20018ec:	00006006 	br	2001a70 <displayGamma98ColourBars+0x3ac>
 20018f0:	e13ffb17 	ldw	r4,-20(fp)
 20018f4:	20032bc0 	call	20032bc <__floatsidf>
 20018f8:	100b883a 	mov	r5,r2
 20018fc:	180d883a 	mov	r6,r3
 2001900:	2809883a 	mov	r4,r5
 2001904:	300b883a 	mov	r5,r6
 2001908:	000d883a 	mov	r6,zero
 200190c:	01d00ff4 	movhi	r7,16447
 2001910:	20020a00 	call	20020a0 <__divdf3>
 2001914:	1009883a 	mov	r4,r2
 2001918:	180b883a 	mov	r5,r3
 200191c:	2005883a 	mov	r2,r4
 2001920:	2807883a 	mov	r3,r5
 2001924:	1009883a 	mov	r4,r2
 2001928:	180b883a 	mov	r5,r3
 200192c:	000d883a 	mov	r6,zero
 2001930:	01d01c34 	movhi	r7,16496
 2001934:	39f80004 	addi	r7,r7,-8192
 2001938:	2002a3c0 	call	2002a3c <__muldf3>
 200193c:	1009883a 	mov	r4,r2
 2001940:	180b883a 	mov	r5,r3
 2001944:	2005883a 	mov	r2,r4
 2001948:	2807883a 	mov	r3,r5
 200194c:	1009883a 	mov	r4,r2
 2001950:	180b883a 	mov	r5,r3
 2001954:	200323c0 	call	200323c <__fixdfsi>
 2001958:	00c08234 	movhi	r3,520
 200195c:	18f4b404 	addi	r3,r3,-11568
 2001960:	1085883a 	add	r2,r2,r2
 2001964:	1885883a 	add	r2,r3,r2
 2001968:	1080000b 	ldhu	r2,0(r2)
 200196c:	e0bffc0d 	sth	r2,-16(fp)
 2001970:	e13ffb17 	ldw	r4,-20(fp)
 2001974:	20032bc0 	call	20032bc <__floatsidf>
 2001978:	100b883a 	mov	r5,r2
 200197c:	180d883a 	mov	r6,r3
 2001980:	2809883a 	mov	r4,r5
 2001984:	300b883a 	mov	r5,r6
 2001988:	000d883a 	mov	r6,zero
 200198c:	01d00ff4 	movhi	r7,16447
 2001990:	20020a00 	call	20020a0 <__divdf3>
 2001994:	1009883a 	mov	r4,r2
 2001998:	180b883a 	mov	r5,r3
 200199c:	2005883a 	mov	r2,r4
 20019a0:	2807883a 	mov	r3,r5
 20019a4:	1009883a 	mov	r4,r2
 20019a8:	180b883a 	mov	r5,r3
 20019ac:	000d883a 	mov	r6,zero
 20019b0:	01d01c34 	movhi	r7,16496
 20019b4:	39f80004 	addi	r7,r7,-8192
 20019b8:	2002a3c0 	call	2002a3c <__muldf3>
 20019bc:	1009883a 	mov	r4,r2
 20019c0:	180b883a 	mov	r5,r3
 20019c4:	2005883a 	mov	r2,r4
 20019c8:	2807883a 	mov	r3,r5
 20019cc:	1009883a 	mov	r4,r2
 20019d0:	180b883a 	mov	r5,r3
 20019d4:	200323c0 	call	200323c <__fixdfsi>
 20019d8:	00c08234 	movhi	r3,520
 20019dc:	18f4b404 	addi	r3,r3,-11568
 20019e0:	1085883a 	add	r2,r2,r2
 20019e4:	1885883a 	add	r2,r3,r2
 20019e8:	1080000b 	ldhu	r2,0(r2)
 20019ec:	e0bffc8d 	sth	r2,-14(fp)
 20019f0:	e13ffb17 	ldw	r4,-20(fp)
 20019f4:	20032bc0 	call	20032bc <__floatsidf>
 20019f8:	100b883a 	mov	r5,r2
 20019fc:	180d883a 	mov	r6,r3
 2001a00:	2809883a 	mov	r4,r5
 2001a04:	300b883a 	mov	r5,r6
 2001a08:	000d883a 	mov	r6,zero
 2001a0c:	01d00ff4 	movhi	r7,16447
 2001a10:	20020a00 	call	20020a0 <__divdf3>
 2001a14:	1009883a 	mov	r4,r2
 2001a18:	180b883a 	mov	r5,r3
 2001a1c:	2005883a 	mov	r2,r4
 2001a20:	2807883a 	mov	r3,r5
 2001a24:	1009883a 	mov	r4,r2
 2001a28:	180b883a 	mov	r5,r3
 2001a2c:	000d883a 	mov	r6,zero
 2001a30:	01d01c34 	movhi	r7,16496
 2001a34:	39f80004 	addi	r7,r7,-8192
 2001a38:	2002a3c0 	call	2002a3c <__muldf3>
 2001a3c:	1009883a 	mov	r4,r2
 2001a40:	180b883a 	mov	r5,r3
 2001a44:	2005883a 	mov	r2,r4
 2001a48:	2807883a 	mov	r3,r5
 2001a4c:	1009883a 	mov	r4,r2
 2001a50:	180b883a 	mov	r5,r3
 2001a54:	200323c0 	call	200323c <__fixdfsi>
 2001a58:	00c08234 	movhi	r3,520
 2001a5c:	18f4b404 	addi	r3,r3,-11568
 2001a60:	1085883a 	add	r2,r2,r2
 2001a64:	1885883a 	add	r2,r3,r2
 2001a68:	1080000b 	ldhu	r2,0(r2)
 2001a6c:	e0bffd0d 	sth	r2,-12(fp)
 2001a70:	e0bffc0b 	ldhu	r2,-16(fp)
 2001a74:	1004953a 	slli	r2,r2,20
 2001a78:	10cffc2c 	andhi	r3,r2,16368
 2001a7c:	e0bffc8b 	ldhu	r2,-14(fp)
 2001a80:	100892ba 	slli	r4,r2,10
 2001a84:	00800434 	movhi	r2,16
 2001a88:	10bf0004 	addi	r2,r2,-1024
 2001a8c:	2084703a 	and	r2,r4,r2
 2001a90:	1886b03a 	or	r3,r3,r2
 2001a94:	e0bffd0b 	ldhu	r2,-12(fp)
 2001a98:	1080ffcc 	andi	r2,r2,1023
 2001a9c:	1884b03a 	or	r2,r3,r2
 2001aa0:	e0bfff15 	stw	r2,-4(fp)
 2001aa4:	00810074 	movhi	r2,1025
 2001aa8:	10a82004 	addi	r2,r2,-24448
 2001aac:	e0fffe17 	ldw	r3,-8(fp)
 2001ab0:	10c00035 	stwio	r3,0(r2)
 2001ab4:	e0ffff17 	ldw	r3,-4(fp)
 2001ab8:	00810074 	movhi	r2,1025
 2001abc:	10a81c04 	addi	r2,r2,-24464
 2001ac0:	10c00035 	stwio	r3,0(r2)
 2001ac4:	00c00044 	movi	r3,1
 2001ac8:	00810074 	movhi	r2,1025
 2001acc:	10a81804 	addi	r2,r2,-24480
 2001ad0:	10c00035 	stwio	r3,0(r2)
 2001ad4:	0007883a 	mov	r3,zero
 2001ad8:	00810074 	movhi	r2,1025
 2001adc:	10a81804 	addi	r2,r2,-24480
 2001ae0:	10c00035 	stwio	r3,0(r2)
 2001ae4:	e0bffb17 	ldw	r2,-20(fp)
 2001ae8:	10800044 	addi	r2,r2,1
 2001aec:	e0bffb15 	stw	r2,-20(fp)
 2001af0:	e0bffb17 	ldw	r2,-20(fp)
 2001af4:	10800810 	cmplti	r2,r2,32
 2001af8:	103efa1e 	bne	r2,zero,20016e4 <__reset+0xfdff86e4>
 2001afc:	e0bffa17 	ldw	r2,-24(fp)
 2001b00:	10800044 	addi	r2,r2,1
 2001b04:	e0bffa15 	stw	r2,-24(fp)
 2001b08:	e0bffa17 	ldw	r2,-24(fp)
 2001b0c:	10800810 	cmplti	r2,r2,32
 2001b10:	103ef21e 	bne	r2,zero,20016dc <__reset+0xfdff86dc>
 2001b14:	e037883a 	mov	sp,fp
 2001b18:	dfc00117 	ldw	ra,4(sp)
 2001b1c:	df000017 	ldw	fp,0(sp)
 2001b20:	dec00204 	addi	sp,sp,8
 2001b24:	f800283a 	ret

02001b28 <displayGamma46ColourBars>:
 2001b28:	defff804 	addi	sp,sp,-32
 2001b2c:	dfc00715 	stw	ra,28(sp)
 2001b30:	df000615 	stw	fp,24(sp)
 2001b34:	df000604 	addi	fp,sp,24
 2001b38:	e03ffa15 	stw	zero,-24(fp)
 2001b3c:	00010b06 	br	2001f6c <displayGamma46ColourBars+0x444>
 2001b40:	e03ffb15 	stw	zero,-20(fp)
 2001b44:	00010306 	br	2001f54 <displayGamma46ColourBars+0x42c>
 2001b48:	00810004 	movi	r2,1024
 2001b4c:	e0bffe15 	stw	r2,-8(fp)
 2001b50:	e0bffa17 	ldw	r2,-24(fp)
 2001b54:	1004917a 	slli	r2,r2,5
 2001b58:	e0fffe17 	ldw	r3,-8(fp)
 2001b5c:	1885883a 	add	r2,r3,r2
 2001b60:	e0bffe15 	stw	r2,-8(fp)
 2001b64:	e0fffe17 	ldw	r3,-8(fp)
 2001b68:	e0bffb17 	ldw	r2,-20(fp)
 2001b6c:	1885883a 	add	r2,r3,r2
 2001b70:	e0bffe15 	stw	r2,-8(fp)
 2001b74:	e0bffa17 	ldw	r2,-24(fp)
 2001b78:	10800208 	cmpgei	r2,r2,8
 2001b7c:	1000231e 	bne	r2,zero,2001c0c <displayGamma46ColourBars+0xe4>
 2001b80:	e13ffb17 	ldw	r4,-20(fp)
 2001b84:	20032bc0 	call	20032bc <__floatsidf>
 2001b88:	100b883a 	mov	r5,r2
 2001b8c:	180d883a 	mov	r6,r3
 2001b90:	2809883a 	mov	r4,r5
 2001b94:	300b883a 	mov	r5,r6
 2001b98:	000d883a 	mov	r6,zero
 2001b9c:	01d00ff4 	movhi	r7,16447
 2001ba0:	20020a00 	call	20020a0 <__divdf3>
 2001ba4:	1009883a 	mov	r4,r2
 2001ba8:	180b883a 	mov	r5,r3
 2001bac:	2005883a 	mov	r2,r4
 2001bb0:	2807883a 	mov	r3,r5
 2001bb4:	1009883a 	mov	r4,r2
 2001bb8:	180b883a 	mov	r5,r3
 2001bbc:	000d883a 	mov	r6,zero
 2001bc0:	01d01c34 	movhi	r7,16496
 2001bc4:	39f80004 	addi	r7,r7,-8192
 2001bc8:	2002a3c0 	call	2002a3c <__muldf3>
 2001bcc:	1009883a 	mov	r4,r2
 2001bd0:	180b883a 	mov	r5,r3
 2001bd4:	2005883a 	mov	r2,r4
 2001bd8:	2807883a 	mov	r3,r5
 2001bdc:	1009883a 	mov	r4,r2
 2001be0:	180b883a 	mov	r5,r3
 2001be4:	200323c0 	call	200323c <__fixdfsi>
 2001be8:	00c08234 	movhi	r3,520
 2001bec:	18f53404 	addi	r3,r3,-11056
 2001bf0:	1085883a 	add	r2,r2,r2
 2001bf4:	1885883a 	add	r2,r3,r2
 2001bf8:	1080000b 	ldhu	r2,0(r2)
 2001bfc:	e0bffc0d 	sth	r2,-16(fp)
 2001c00:	e03ffc8d 	sth	zero,-14(fp)
 2001c04:	e03ffd0d 	sth	zero,-12(fp)
 2001c08:	0000b206 	br	2001ed4 <displayGamma46ColourBars+0x3ac>
 2001c0c:	e0bffa17 	ldw	r2,-24(fp)
 2001c10:	10800210 	cmplti	r2,r2,8
 2001c14:	1000261e 	bne	r2,zero,2001cb0 <displayGamma46ColourBars+0x188>
 2001c18:	e0bffa17 	ldw	r2,-24(fp)
 2001c1c:	10800408 	cmpgei	r2,r2,16
 2001c20:	1000231e 	bne	r2,zero,2001cb0 <displayGamma46ColourBars+0x188>
 2001c24:	e03ffc0d 	sth	zero,-16(fp)
 2001c28:	e13ffb17 	ldw	r4,-20(fp)
 2001c2c:	20032bc0 	call	20032bc <__floatsidf>
 2001c30:	100b883a 	mov	r5,r2
 2001c34:	180d883a 	mov	r6,r3
 2001c38:	2809883a 	mov	r4,r5
 2001c3c:	300b883a 	mov	r5,r6
 2001c40:	000d883a 	mov	r6,zero
 2001c44:	01d00ff4 	movhi	r7,16447
 2001c48:	20020a00 	call	20020a0 <__divdf3>
 2001c4c:	1009883a 	mov	r4,r2
 2001c50:	180b883a 	mov	r5,r3
 2001c54:	2005883a 	mov	r2,r4
 2001c58:	2807883a 	mov	r3,r5
 2001c5c:	1009883a 	mov	r4,r2
 2001c60:	180b883a 	mov	r5,r3
 2001c64:	000d883a 	mov	r6,zero
 2001c68:	01d01c34 	movhi	r7,16496
 2001c6c:	39f80004 	addi	r7,r7,-8192
 2001c70:	2002a3c0 	call	2002a3c <__muldf3>
 2001c74:	1009883a 	mov	r4,r2
 2001c78:	180b883a 	mov	r5,r3
 2001c7c:	2005883a 	mov	r2,r4
 2001c80:	2807883a 	mov	r3,r5
 2001c84:	1009883a 	mov	r4,r2
 2001c88:	180b883a 	mov	r5,r3
 2001c8c:	200323c0 	call	200323c <__fixdfsi>
 2001c90:	00c08234 	movhi	r3,520
 2001c94:	18f53404 	addi	r3,r3,-11056
 2001c98:	1085883a 	add	r2,r2,r2
 2001c9c:	1885883a 	add	r2,r3,r2
 2001ca0:	1080000b 	ldhu	r2,0(r2)
 2001ca4:	e0bffc8d 	sth	r2,-14(fp)
 2001ca8:	e03ffd0d 	sth	zero,-12(fp)
 2001cac:	00008906 	br	2001ed4 <displayGamma46ColourBars+0x3ac>
 2001cb0:	e0bffa17 	ldw	r2,-24(fp)
 2001cb4:	10800410 	cmplti	r2,r2,16
 2001cb8:	1000261e 	bne	r2,zero,2001d54 <displayGamma46ColourBars+0x22c>
 2001cbc:	e0bffa17 	ldw	r2,-24(fp)
 2001cc0:	10800608 	cmpgei	r2,r2,24
 2001cc4:	1000231e 	bne	r2,zero,2001d54 <displayGamma46ColourBars+0x22c>
 2001cc8:	e03ffc0d 	sth	zero,-16(fp)
 2001ccc:	e03ffc8d 	sth	zero,-14(fp)
 2001cd0:	e13ffb17 	ldw	r4,-20(fp)
 2001cd4:	20032bc0 	call	20032bc <__floatsidf>
 2001cd8:	100b883a 	mov	r5,r2
 2001cdc:	180d883a 	mov	r6,r3
 2001ce0:	2809883a 	mov	r4,r5
 2001ce4:	300b883a 	mov	r5,r6
 2001ce8:	000d883a 	mov	r6,zero
 2001cec:	01d00ff4 	movhi	r7,16447
 2001cf0:	20020a00 	call	20020a0 <__divdf3>
 2001cf4:	1009883a 	mov	r4,r2
 2001cf8:	180b883a 	mov	r5,r3
 2001cfc:	2005883a 	mov	r2,r4
 2001d00:	2807883a 	mov	r3,r5
 2001d04:	1009883a 	mov	r4,r2
 2001d08:	180b883a 	mov	r5,r3
 2001d0c:	000d883a 	mov	r6,zero
 2001d10:	01d01c34 	movhi	r7,16496
 2001d14:	39f80004 	addi	r7,r7,-8192
 2001d18:	2002a3c0 	call	2002a3c <__muldf3>
 2001d1c:	1009883a 	mov	r4,r2
 2001d20:	180b883a 	mov	r5,r3
 2001d24:	2005883a 	mov	r2,r4
 2001d28:	2807883a 	mov	r3,r5
 2001d2c:	1009883a 	mov	r4,r2
 2001d30:	180b883a 	mov	r5,r3
 2001d34:	200323c0 	call	200323c <__fixdfsi>
 2001d38:	00c08234 	movhi	r3,520
 2001d3c:	18f53404 	addi	r3,r3,-11056
 2001d40:	1085883a 	add	r2,r2,r2
 2001d44:	1885883a 	add	r2,r3,r2
 2001d48:	1080000b 	ldhu	r2,0(r2)
 2001d4c:	e0bffd0d 	sth	r2,-12(fp)
 2001d50:	00006006 	br	2001ed4 <displayGamma46ColourBars+0x3ac>
 2001d54:	e13ffb17 	ldw	r4,-20(fp)
 2001d58:	20032bc0 	call	20032bc <__floatsidf>
 2001d5c:	100b883a 	mov	r5,r2
 2001d60:	180d883a 	mov	r6,r3
 2001d64:	2809883a 	mov	r4,r5
 2001d68:	300b883a 	mov	r5,r6
 2001d6c:	000d883a 	mov	r6,zero
 2001d70:	01d00ff4 	movhi	r7,16447
 2001d74:	20020a00 	call	20020a0 <__divdf3>
 2001d78:	1009883a 	mov	r4,r2
 2001d7c:	180b883a 	mov	r5,r3
 2001d80:	2005883a 	mov	r2,r4
 2001d84:	2807883a 	mov	r3,r5
 2001d88:	1009883a 	mov	r4,r2
 2001d8c:	180b883a 	mov	r5,r3
 2001d90:	000d883a 	mov	r6,zero
 2001d94:	01d01c34 	movhi	r7,16496
 2001d98:	39f80004 	addi	r7,r7,-8192
 2001d9c:	2002a3c0 	call	2002a3c <__muldf3>
 2001da0:	1009883a 	mov	r4,r2
 2001da4:	180b883a 	mov	r5,r3
 2001da8:	2005883a 	mov	r2,r4
 2001dac:	2807883a 	mov	r3,r5
 2001db0:	1009883a 	mov	r4,r2
 2001db4:	180b883a 	mov	r5,r3
 2001db8:	200323c0 	call	200323c <__fixdfsi>
 2001dbc:	00c08234 	movhi	r3,520
 2001dc0:	18f53404 	addi	r3,r3,-11056
 2001dc4:	1085883a 	add	r2,r2,r2
 2001dc8:	1885883a 	add	r2,r3,r2
 2001dcc:	1080000b 	ldhu	r2,0(r2)
 2001dd0:	e0bffc0d 	sth	r2,-16(fp)
 2001dd4:	e13ffb17 	ldw	r4,-20(fp)
 2001dd8:	20032bc0 	call	20032bc <__floatsidf>
 2001ddc:	100b883a 	mov	r5,r2
 2001de0:	180d883a 	mov	r6,r3
 2001de4:	2809883a 	mov	r4,r5
 2001de8:	300b883a 	mov	r5,r6
 2001dec:	000d883a 	mov	r6,zero
 2001df0:	01d00ff4 	movhi	r7,16447
 2001df4:	20020a00 	call	20020a0 <__divdf3>
 2001df8:	1009883a 	mov	r4,r2
 2001dfc:	180b883a 	mov	r5,r3
 2001e00:	2005883a 	mov	r2,r4
 2001e04:	2807883a 	mov	r3,r5
 2001e08:	1009883a 	mov	r4,r2
 2001e0c:	180b883a 	mov	r5,r3
 2001e10:	000d883a 	mov	r6,zero
 2001e14:	01d01c34 	movhi	r7,16496
 2001e18:	39f80004 	addi	r7,r7,-8192
 2001e1c:	2002a3c0 	call	2002a3c <__muldf3>
 2001e20:	1009883a 	mov	r4,r2
 2001e24:	180b883a 	mov	r5,r3
 2001e28:	2005883a 	mov	r2,r4
 2001e2c:	2807883a 	mov	r3,r5
 2001e30:	1009883a 	mov	r4,r2
 2001e34:	180b883a 	mov	r5,r3
 2001e38:	200323c0 	call	200323c <__fixdfsi>
 2001e3c:	00c08234 	movhi	r3,520
 2001e40:	18f53404 	addi	r3,r3,-11056
 2001e44:	1085883a 	add	r2,r2,r2
 2001e48:	1885883a 	add	r2,r3,r2
 2001e4c:	1080000b 	ldhu	r2,0(r2)
 2001e50:	e0bffc8d 	sth	r2,-14(fp)
 2001e54:	e13ffb17 	ldw	r4,-20(fp)
 2001e58:	20032bc0 	call	20032bc <__floatsidf>
 2001e5c:	100b883a 	mov	r5,r2
 2001e60:	180d883a 	mov	r6,r3
 2001e64:	2809883a 	mov	r4,r5
 2001e68:	300b883a 	mov	r5,r6
 2001e6c:	000d883a 	mov	r6,zero
 2001e70:	01d00ff4 	movhi	r7,16447
 2001e74:	20020a00 	call	20020a0 <__divdf3>
 2001e78:	1009883a 	mov	r4,r2
 2001e7c:	180b883a 	mov	r5,r3
 2001e80:	2005883a 	mov	r2,r4
 2001e84:	2807883a 	mov	r3,r5
 2001e88:	1009883a 	mov	r4,r2
 2001e8c:	180b883a 	mov	r5,r3
 2001e90:	000d883a 	mov	r6,zero
 2001e94:	01d01c34 	movhi	r7,16496
 2001e98:	39f80004 	addi	r7,r7,-8192
 2001e9c:	2002a3c0 	call	2002a3c <__muldf3>
 2001ea0:	1009883a 	mov	r4,r2
 2001ea4:	180b883a 	mov	r5,r3
 2001ea8:	2005883a 	mov	r2,r4
 2001eac:	2807883a 	mov	r3,r5
 2001eb0:	1009883a 	mov	r4,r2
 2001eb4:	180b883a 	mov	r5,r3
 2001eb8:	200323c0 	call	200323c <__fixdfsi>
 2001ebc:	00c08234 	movhi	r3,520
 2001ec0:	18f53404 	addi	r3,r3,-11056
 2001ec4:	1085883a 	add	r2,r2,r2
 2001ec8:	1885883a 	add	r2,r3,r2
 2001ecc:	1080000b 	ldhu	r2,0(r2)
 2001ed0:	e0bffd0d 	sth	r2,-12(fp)
 2001ed4:	e0bffc0b 	ldhu	r2,-16(fp)
 2001ed8:	1004953a 	slli	r2,r2,20
 2001edc:	10cffc2c 	andhi	r3,r2,16368
 2001ee0:	e0bffc8b 	ldhu	r2,-14(fp)
 2001ee4:	100892ba 	slli	r4,r2,10
 2001ee8:	00800434 	movhi	r2,16
 2001eec:	10bf0004 	addi	r2,r2,-1024
 2001ef0:	2084703a 	and	r2,r4,r2
 2001ef4:	1886b03a 	or	r3,r3,r2
 2001ef8:	e0bffd0b 	ldhu	r2,-12(fp)
 2001efc:	1080ffcc 	andi	r2,r2,1023
 2001f00:	1884b03a 	or	r2,r3,r2
 2001f04:	e0bfff15 	stw	r2,-4(fp)
 2001f08:	00810074 	movhi	r2,1025
 2001f0c:	10a82004 	addi	r2,r2,-24448
 2001f10:	e0fffe17 	ldw	r3,-8(fp)
 2001f14:	10c00035 	stwio	r3,0(r2)
 2001f18:	e0ffff17 	ldw	r3,-4(fp)
 2001f1c:	00810074 	movhi	r2,1025
 2001f20:	10a81c04 	addi	r2,r2,-24464
 2001f24:	10c00035 	stwio	r3,0(r2)
 2001f28:	00c00044 	movi	r3,1
 2001f2c:	00810074 	movhi	r2,1025
 2001f30:	10a81804 	addi	r2,r2,-24480
 2001f34:	10c00035 	stwio	r3,0(r2)
 2001f38:	0007883a 	mov	r3,zero
 2001f3c:	00810074 	movhi	r2,1025
 2001f40:	10a81804 	addi	r2,r2,-24480
 2001f44:	10c00035 	stwio	r3,0(r2)
 2001f48:	e0bffb17 	ldw	r2,-20(fp)
 2001f4c:	10800044 	addi	r2,r2,1
 2001f50:	e0bffb15 	stw	r2,-20(fp)
 2001f54:	e0bffb17 	ldw	r2,-20(fp)
 2001f58:	10800810 	cmplti	r2,r2,32
 2001f5c:	103efa1e 	bne	r2,zero,2001b48 <__reset+0xfdff8b48>
 2001f60:	e0bffa17 	ldw	r2,-24(fp)
 2001f64:	10800044 	addi	r2,r2,1
 2001f68:	e0bffa15 	stw	r2,-24(fp)
 2001f6c:	e0bffa17 	ldw	r2,-24(fp)
 2001f70:	10800810 	cmplti	r2,r2,32
 2001f74:	103ef21e 	bne	r2,zero,2001b40 <__reset+0xfdff8b40>
 2001f78:	e037883a 	mov	sp,fp
 2001f7c:	dfc00117 	ldw	ra,4(sp)
 2001f80:	df000017 	ldw	fp,0(sp)
 2001f84:	dec00204 	addi	sp,sp,8
 2001f88:	f800283a 	ret

02001f8c <udivmodsi4>:
 2001f8c:	2900182e 	bgeu	r5,r4,2001ff0 <udivmodsi4+0x64>
 2001f90:	28001716 	blt	r5,zero,2001ff0 <udivmodsi4+0x64>
 2001f94:	00800804 	movi	r2,32
 2001f98:	00c00044 	movi	r3,1
 2001f9c:	00000206 	br	2001fa8 <udivmodsi4+0x1c>
 2001fa0:	10001126 	beq	r2,zero,2001fe8 <udivmodsi4+0x5c>
 2001fa4:	28000516 	blt	r5,zero,2001fbc <udivmodsi4+0x30>
 2001fa8:	294b883a 	add	r5,r5,r5
 2001fac:	10bfffc4 	addi	r2,r2,-1
 2001fb0:	18c7883a 	add	r3,r3,r3
 2001fb4:	293ffa36 	bltu	r5,r4,2001fa0 <__reset+0xfdff8fa0>
 2001fb8:	18000b26 	beq	r3,zero,2001fe8 <udivmodsi4+0x5c>
 2001fbc:	0005883a 	mov	r2,zero
 2001fc0:	21400236 	bltu	r4,r5,2001fcc <udivmodsi4+0x40>
 2001fc4:	2149c83a 	sub	r4,r4,r5
 2001fc8:	10c4b03a 	or	r2,r2,r3
 2001fcc:	1806d07a 	srli	r3,r3,1
 2001fd0:	280ad07a 	srli	r5,r5,1
 2001fd4:	183ffa1e 	bne	r3,zero,2001fc0 <__reset+0xfdff8fc0>
 2001fd8:	3000011e 	bne	r6,zero,2001fe0 <udivmodsi4+0x54>
 2001fdc:	f800283a 	ret
 2001fe0:	2005883a 	mov	r2,r4
 2001fe4:	f800283a 	ret
 2001fe8:	0005883a 	mov	r2,zero
 2001fec:	003ffa06 	br	2001fd8 <__reset+0xfdff8fd8>
 2001ff0:	00c00044 	movi	r3,1
 2001ff4:	0005883a 	mov	r2,zero
 2001ff8:	003ff106 	br	2001fc0 <__reset+0xfdff8fc0>

02001ffc <__divsi3>:
 2001ffc:	deffff04 	addi	sp,sp,-4
 2002000:	dfc00015 	stw	ra,0(sp)
 2002004:	20000916 	blt	r4,zero,200202c <__divsi3+0x30>
 2002008:	000f883a 	mov	r7,zero
 200200c:	28000a16 	blt	r5,zero,2002038 <__divsi3+0x3c>
 2002010:	000d883a 	mov	r6,zero
 2002014:	2001f8c0 	call	2001f8c <udivmodsi4>
 2002018:	38000126 	beq	r7,zero,2002020 <__divsi3+0x24>
 200201c:	0085c83a 	sub	r2,zero,r2
 2002020:	dfc00017 	ldw	ra,0(sp)
 2002024:	dec00104 	addi	sp,sp,4
 2002028:	f800283a 	ret
 200202c:	0109c83a 	sub	r4,zero,r4
 2002030:	01c00044 	movi	r7,1
 2002034:	283ff60e 	bge	r5,zero,2002010 <__reset+0xfdff9010>
 2002038:	014bc83a 	sub	r5,zero,r5
 200203c:	39c0005c 	xori	r7,r7,1
 2002040:	003ff306 	br	2002010 <__reset+0xfdff9010>

02002044 <__modsi3>:
 2002044:	20000316 	blt	r4,zero,2002054 <__modsi3+0x10>
 2002048:	28000c16 	blt	r5,zero,200207c <__modsi3+0x38>
 200204c:	01800044 	movi	r6,1
 2002050:	2001f8c1 	jmpi	2001f8c <udivmodsi4>
 2002054:	deffff04 	addi	sp,sp,-4
 2002058:	dfc00015 	stw	ra,0(sp)
 200205c:	0109c83a 	sub	r4,zero,r4
 2002060:	28000916 	blt	r5,zero,2002088 <__modsi3+0x44>
 2002064:	01800044 	movi	r6,1
 2002068:	2001f8c0 	call	2001f8c <udivmodsi4>
 200206c:	0085c83a 	sub	r2,zero,r2
 2002070:	dfc00017 	ldw	ra,0(sp)
 2002074:	dec00104 	addi	sp,sp,4
 2002078:	f800283a 	ret
 200207c:	014bc83a 	sub	r5,zero,r5
 2002080:	01800044 	movi	r6,1
 2002084:	2001f8c1 	jmpi	2001f8c <udivmodsi4>
 2002088:	014bc83a 	sub	r5,zero,r5
 200208c:	003ff506 	br	2002064 <__reset+0xfdff9064>

02002090 <__udivsi3>:
 2002090:	000d883a 	mov	r6,zero
 2002094:	2001f8c1 	jmpi	2001f8c <udivmodsi4>

02002098 <__umodsi3>:
 2002098:	01800044 	movi	r6,1
 200209c:	2001f8c1 	jmpi	2001f8c <udivmodsi4>

020020a0 <__divdf3>:
 20020a0:	defff004 	addi	sp,sp,-64
 20020a4:	dd000a15 	stw	r20,40(sp)
 20020a8:	2828d53a 	srli	r20,r5,20
 20020ac:	dd800c15 	stw	r22,48(sp)
 20020b0:	282cd7fa 	srli	r22,r5,31
 20020b4:	df000e15 	stw	fp,56(sp)
 20020b8:	dcc00915 	stw	r19,36(sp)
 20020bc:	dc800815 	stw	r18,32(sp)
 20020c0:	04c00434 	movhi	r19,16
 20020c4:	9cffffc4 	addi	r19,r19,-1
 20020c8:	dfc00f15 	stw	ra,60(sp)
 20020cc:	ddc00d15 	stw	r23,52(sp)
 20020d0:	dd400b15 	stw	r21,44(sp)
 20020d4:	dc400715 	stw	r17,28(sp)
 20020d8:	dc000615 	stw	r16,24(sp)
 20020dc:	a501ffcc 	andi	r20,r20,2047
 20020e0:	2025883a 	mov	r18,r4
 20020e4:	2ce6703a 	and	r19,r5,r19
 20020e8:	b7003fcc 	andi	fp,r22,255
 20020ec:	a0006a26 	beq	r20,zero,2002298 <__divdf3+0x1f8>
 20020f0:	0081ffc4 	movi	r2,2047
 20020f4:	2021883a 	mov	r16,r4
 20020f8:	a0803726 	beq	r20,r2,20021d8 <__divdf3+0x138>
 20020fc:	98800434 	orhi	r2,r19,16
 2002100:	100490fa 	slli	r2,r2,3
 2002104:	2026d77a 	srli	r19,r4,29
 2002108:	202090fa 	slli	r16,r4,3
 200210c:	a53f0044 	addi	r20,r20,-1023
 2002110:	14e6b03a 	or	r19,r2,r19
 2002114:	002b883a 	mov	r21,zero
 2002118:	0013883a 	mov	r9,zero
 200211c:	3804d53a 	srli	r2,r7,20
 2002120:	382ed7fa 	srli	r23,r7,31
 2002124:	04400434 	movhi	r17,16
 2002128:	8c7fffc4 	addi	r17,r17,-1
 200212c:	1081ffcc 	andi	r2,r2,2047
 2002130:	3025883a 	mov	r18,r6
 2002134:	3c62703a 	and	r17,r7,r17
 2002138:	ba803fcc 	andi	r10,r23,255
 200213c:	10007326 	beq	r2,zero,200230c <__divdf3+0x26c>
 2002140:	0101ffc4 	movi	r4,2047
 2002144:	11006b26 	beq	r2,r4,20022f4 <__divdf3+0x254>
 2002148:	89000434 	orhi	r4,r17,16
 200214c:	200890fa 	slli	r4,r4,3
 2002150:	3022d77a 	srli	r17,r6,29
 2002154:	302490fa 	slli	r18,r6,3
 2002158:	10bf0044 	addi	r2,r2,-1023
 200215c:	2462b03a 	or	r17,r4,r17
 2002160:	000f883a 	mov	r7,zero
 2002164:	b5caf03a 	xor	r5,r22,r23
 2002168:	3d48b03a 	or	r4,r7,r21
 200216c:	00c003c4 	movi	r3,15
 2002170:	2811883a 	mov	r8,r5
 2002174:	2d403fcc 	andi	r21,r5,255
 2002178:	19009436 	bltu	r3,r4,20023cc <__divdf3+0x32c>
 200217c:	2109883a 	add	r4,r4,r4
 2002180:	00c08034 	movhi	r3,512
 2002184:	18c86604 	addi	r3,r3,8600
 2002188:	2109883a 	add	r4,r4,r4
 200218c:	20c9883a 	add	r4,r4,r3
 2002190:	20c00017 	ldw	r3,0(r4)
 2002194:	1800683a 	jmp	r3
 2002198:	020023cc 	andi	r8,zero,143
 200219c:	02002234 	movhi	r8,136
 20021a0:	020023bc 	xorhi	r8,zero,142
 20021a4:	02002204 	movi	r8,136
 20021a8:	020023bc 	xorhi	r8,zero,142
 20021ac:	020023a4 	muli	r8,zero,142
 20021b0:	020023bc 	xorhi	r8,zero,142
 20021b4:	02002204 	movi	r8,136
 20021b8:	02002234 	movhi	r8,136
 20021bc:	02002234 	movhi	r8,136
 20021c0:	020023a4 	muli	r8,zero,142
 20021c4:	02002204 	movi	r8,136
 20021c8:	020021f4 	movhi	r8,135
 20021cc:	020021f4 	movhi	r8,135
 20021d0:	020021f4 	movhi	r8,135
 20021d4:	0200275c 	xori	r8,zero,157
 20021d8:	9904b03a 	or	r2,r19,r4
 20021dc:	10006e1e 	bne	r2,zero,2002398 <__divdf3+0x2f8>
 20021e0:	05400204 	movi	r21,8
 20021e4:	0027883a 	mov	r19,zero
 20021e8:	0021883a 	mov	r16,zero
 20021ec:	02400084 	movi	r9,2
 20021f0:	003fca06 	br	200211c <__reset+0xfdff911c>
 20021f4:	9823883a 	mov	r17,r19
 20021f8:	8025883a 	mov	r18,r16
 20021fc:	e015883a 	mov	r10,fp
 2002200:	480f883a 	mov	r7,r9
 2002204:	00800084 	movi	r2,2
 2002208:	38800926 	beq	r7,r2,2002230 <__divdf3+0x190>
 200220c:	008000c4 	movi	r2,3
 2002210:	38820226 	beq	r7,r2,2002a1c <__divdf3+0x97c>
 2002214:	00800044 	movi	r2,1
 2002218:	3881b81e 	bne	r7,r2,20028fc <__divdf3+0x85c>
 200221c:	5011883a 	mov	r8,r10
 2002220:	0005883a 	mov	r2,zero
 2002224:	0027883a 	mov	r19,zero
 2002228:	0021883a 	mov	r16,zero
 200222c:	00000506 	br	2002244 <__divdf3+0x1a4>
 2002230:	502b883a 	mov	r21,r10
 2002234:	aa00004c 	andi	r8,r21,1
 2002238:	0081ffc4 	movi	r2,2047
 200223c:	0027883a 	mov	r19,zero
 2002240:	0021883a 	mov	r16,zero
 2002244:	1004953a 	slli	r2,r2,20
 2002248:	42003fcc 	andi	r8,r8,255
 200224c:	401097fa 	slli	r8,r8,31
 2002250:	00c00434 	movhi	r3,16
 2002254:	18ffffc4 	addi	r3,r3,-1
 2002258:	98e6703a 	and	r19,r19,r3
 200225c:	9886b03a 	or	r3,r19,r2
 2002260:	1a06b03a 	or	r3,r3,r8
 2002264:	8005883a 	mov	r2,r16
 2002268:	dfc00f17 	ldw	ra,60(sp)
 200226c:	df000e17 	ldw	fp,56(sp)
 2002270:	ddc00d17 	ldw	r23,52(sp)
 2002274:	dd800c17 	ldw	r22,48(sp)
 2002278:	dd400b17 	ldw	r21,44(sp)
 200227c:	dd000a17 	ldw	r20,40(sp)
 2002280:	dcc00917 	ldw	r19,36(sp)
 2002284:	dc800817 	ldw	r18,32(sp)
 2002288:	dc400717 	ldw	r17,28(sp)
 200228c:	dc000617 	ldw	r16,24(sp)
 2002290:	dec01004 	addi	sp,sp,64
 2002294:	f800283a 	ret
 2002298:	9904b03a 	or	r2,r19,r4
 200229c:	10003926 	beq	r2,zero,2002384 <__divdf3+0x2e4>
 20022a0:	98015326 	beq	r19,zero,20027f0 <__divdf3+0x750>
 20022a4:	9809883a 	mov	r4,r19
 20022a8:	d9800215 	stw	r6,8(sp)
 20022ac:	d9c00515 	stw	r7,20(sp)
 20022b0:	200338c0 	call	200338c <__clzsi2>
 20022b4:	d9800217 	ldw	r6,8(sp)
 20022b8:	d9c00517 	ldw	r7,20(sp)
 20022bc:	00c009c4 	movi	r3,39
 20022c0:	18814716 	blt	r3,r2,20027e0 <__divdf3+0x740>
 20022c4:	01400a04 	movi	r5,40
 20022c8:	143ffe04 	addi	r16,r2,-8
 20022cc:	288bc83a 	sub	r5,r5,r2
 20022d0:	9c26983a 	sll	r19,r19,r16
 20022d4:	914ad83a 	srl	r5,r18,r5
 20022d8:	9420983a 	sll	r16,r18,r16
 20022dc:	2ce6b03a 	or	r19,r5,r19
 20022e0:	053f0344 	movi	r20,-1011
 20022e4:	a0a9c83a 	sub	r20,r20,r2
 20022e8:	002b883a 	mov	r21,zero
 20022ec:	0013883a 	mov	r9,zero
 20022f0:	003f8a06 	br	200211c <__reset+0xfdff911c>
 20022f4:	8988b03a 	or	r4,r17,r6
 20022f8:	2000201e 	bne	r4,zero,200237c <__divdf3+0x2dc>
 20022fc:	0023883a 	mov	r17,zero
 2002300:	0025883a 	mov	r18,zero
 2002304:	01c00084 	movi	r7,2
 2002308:	003f9606 	br	2002164 <__reset+0xfdff9164>
 200230c:	8988b03a 	or	r4,r17,r6
 2002310:	20001626 	beq	r4,zero,200236c <__divdf3+0x2cc>
 2002314:	88012826 	beq	r17,zero,20027b8 <__divdf3+0x718>
 2002318:	8809883a 	mov	r4,r17
 200231c:	d9800215 	stw	r6,8(sp)
 2002320:	da400315 	stw	r9,12(sp)
 2002324:	da800415 	stw	r10,16(sp)
 2002328:	200338c0 	call	200338c <__clzsi2>
 200232c:	d9800217 	ldw	r6,8(sp)
 2002330:	da400317 	ldw	r9,12(sp)
 2002334:	da800417 	ldw	r10,16(sp)
 2002338:	010009c4 	movi	r4,39
 200233c:	20811a16 	blt	r4,r2,20027a8 <__divdf3+0x708>
 2002340:	01000a04 	movi	r4,40
 2002344:	14bffe04 	addi	r18,r2,-8
 2002348:	2089c83a 	sub	r4,r4,r2
 200234c:	8ca2983a 	sll	r17,r17,r18
 2002350:	3108d83a 	srl	r4,r6,r4
 2002354:	34a4983a 	sll	r18,r6,r18
 2002358:	2462b03a 	or	r17,r4,r17
 200235c:	013f0344 	movi	r4,-1011
 2002360:	2085c83a 	sub	r2,r4,r2
 2002364:	000f883a 	mov	r7,zero
 2002368:	003f7e06 	br	2002164 <__reset+0xfdff9164>
 200236c:	0023883a 	mov	r17,zero
 2002370:	0025883a 	mov	r18,zero
 2002374:	01c00044 	movi	r7,1
 2002378:	003f7a06 	br	2002164 <__reset+0xfdff9164>
 200237c:	01c000c4 	movi	r7,3
 2002380:	003f7806 	br	2002164 <__reset+0xfdff9164>
 2002384:	05400104 	movi	r21,4
 2002388:	0027883a 	mov	r19,zero
 200238c:	0021883a 	mov	r16,zero
 2002390:	02400044 	movi	r9,1
 2002394:	003f6106 	br	200211c <__reset+0xfdff911c>
 2002398:	05400304 	movi	r21,12
 200239c:	024000c4 	movi	r9,3
 20023a0:	003f5e06 	br	200211c <__reset+0xfdff911c>
 20023a4:	0011883a 	mov	r8,zero
 20023a8:	04c00434 	movhi	r19,16
 20023ac:	9cffffc4 	addi	r19,r19,-1
 20023b0:	043fffc4 	movi	r16,-1
 20023b4:	0081ffc4 	movi	r2,2047
 20023b8:	003fa206 	br	2002244 <__reset+0xfdff9244>
 20023bc:	0005883a 	mov	r2,zero
 20023c0:	0027883a 	mov	r19,zero
 20023c4:	0021883a 	mov	r16,zero
 20023c8:	003f9e06 	br	2002244 <__reset+0xfdff9244>
 20023cc:	a085c83a 	sub	r2,r20,r2
 20023d0:	d8800115 	stw	r2,4(sp)
 20023d4:	8cc11b36 	bltu	r17,r19,2002844 <__divdf3+0x7a4>
 20023d8:	9c411926 	beq	r19,r17,2002840 <__divdf3+0x7a0>
 20023dc:	d8c00117 	ldw	r3,4(sp)
 20023e0:	002d883a 	mov	r22,zero
 20023e4:	18ffffc4 	addi	r3,r3,-1
 20023e8:	d8c00115 	stw	r3,4(sp)
 20023ec:	9006d63a 	srli	r3,r18,24
 20023f0:	8822923a 	slli	r17,r17,8
 20023f4:	9024923a 	slli	r18,r18,8
 20023f8:	9809883a 	mov	r4,r19
 20023fc:	1c6eb03a 	or	r23,r3,r17
 2002400:	b828d43a 	srli	r20,r23,16
 2002404:	dc800015 	stw	r18,0(sp)
 2002408:	bcbfffcc 	andi	r18,r23,65535
 200240c:	a00b883a 	mov	r5,r20
 2002410:	20020900 	call	2002090 <__udivsi3>
 2002414:	1009883a 	mov	r4,r2
 2002418:	900b883a 	mov	r5,r18
 200241c:	1039883a 	mov	fp,r2
 2002420:	20034380 	call	2003438 <__mulsi3>
 2002424:	9809883a 	mov	r4,r19
 2002428:	a00b883a 	mov	r5,r20
 200242c:	1023883a 	mov	r17,r2
 2002430:	20020980 	call	2002098 <__umodsi3>
 2002434:	1004943a 	slli	r2,r2,16
 2002438:	8008d43a 	srli	r4,r16,16
 200243c:	110ab03a 	or	r5,r2,r4
 2002440:	2c40062e 	bgeu	r5,r17,200245c <__divdf3+0x3bc>
 2002444:	2dcb883a 	add	r5,r5,r23
 2002448:	e0bfffc4 	addi	r2,fp,-1
 200244c:	2dc11136 	bltu	r5,r23,2002894 <__divdf3+0x7f4>
 2002450:	2c41102e 	bgeu	r5,r17,2002894 <__divdf3+0x7f4>
 2002454:	e73fff84 	addi	fp,fp,-2
 2002458:	2dcb883a 	add	r5,r5,r23
 200245c:	2c67c83a 	sub	r19,r5,r17
 2002460:	9809883a 	mov	r4,r19
 2002464:	a00b883a 	mov	r5,r20
 2002468:	20020900 	call	2002090 <__udivsi3>
 200246c:	1009883a 	mov	r4,r2
 2002470:	900b883a 	mov	r5,r18
 2002474:	1023883a 	mov	r17,r2
 2002478:	20034380 	call	2003438 <__mulsi3>
 200247c:	9809883a 	mov	r4,r19
 2002480:	a00b883a 	mov	r5,r20
 2002484:	d8800215 	stw	r2,8(sp)
 2002488:	20020980 	call	2002098 <__umodsi3>
 200248c:	1004943a 	slli	r2,r2,16
 2002490:	da000217 	ldw	r8,8(sp)
 2002494:	843fffcc 	andi	r16,r16,65535
 2002498:	140eb03a 	or	r7,r2,r16
 200249c:	3a00062e 	bgeu	r7,r8,20024b8 <__divdf3+0x418>
 20024a0:	3dcf883a 	add	r7,r7,r23
 20024a4:	88bfffc4 	addi	r2,r17,-1
 20024a8:	3dc0f836 	bltu	r7,r23,200288c <__divdf3+0x7ec>
 20024ac:	3a00f72e 	bgeu	r7,r8,200288c <__divdf3+0x7ec>
 20024b0:	8c7fff84 	addi	r17,r17,-2
 20024b4:	3dcf883a 	add	r7,r7,r23
 20024b8:	e004943a 	slli	r2,fp,16
 20024bc:	d8c00017 	ldw	r3,0(sp)
 20024c0:	3a0fc83a 	sub	r7,r7,r8
 20024c4:	88a2b03a 	or	r17,r17,r2
 20024c8:	1f3fffcc 	andi	fp,r3,65535
 20024cc:	8a7fffcc 	andi	r9,r17,65535
 20024d0:	4809883a 	mov	r4,r9
 20024d4:	e00b883a 	mov	r5,fp
 20024d8:	1826d43a 	srli	r19,r3,16
 20024dc:	d9c00515 	stw	r7,20(sp)
 20024e0:	da400315 	stw	r9,12(sp)
 20024e4:	20034380 	call	2003438 <__mulsi3>
 20024e8:	da400317 	ldw	r9,12(sp)
 20024ec:	8820d43a 	srli	r16,r17,16
 20024f0:	980b883a 	mov	r5,r19
 20024f4:	4809883a 	mov	r4,r9
 20024f8:	d8800215 	stw	r2,8(sp)
 20024fc:	20034380 	call	2003438 <__mulsi3>
 2002500:	8009883a 	mov	r4,r16
 2002504:	e00b883a 	mov	r5,fp
 2002508:	d8800415 	stw	r2,16(sp)
 200250c:	20034380 	call	2003438 <__mulsi3>
 2002510:	8009883a 	mov	r4,r16
 2002514:	980b883a 	mov	r5,r19
 2002518:	d8800315 	stw	r2,12(sp)
 200251c:	20034380 	call	2003438 <__mulsi3>
 2002520:	da000217 	ldw	r8,8(sp)
 2002524:	da400317 	ldw	r9,12(sp)
 2002528:	da800417 	ldw	r10,16(sp)
 200252c:	100b883a 	mov	r5,r2
 2002530:	4004d43a 	srli	r2,r8,16
 2002534:	4a89883a 	add	r4,r9,r10
 2002538:	d9c00517 	ldw	r7,20(sp)
 200253c:	2089883a 	add	r4,r4,r2
 2002540:	2240022e 	bgeu	r4,r9,200254c <__divdf3+0x4ac>
 2002544:	00800074 	movhi	r2,1
 2002548:	288b883a 	add	r5,r5,r2
 200254c:	2004d43a 	srli	r2,r4,16
 2002550:	2020943a 	slli	r16,r4,16
 2002554:	423fffcc 	andi	r8,r8,65535
 2002558:	288b883a 	add	r5,r5,r2
 200255c:	8221883a 	add	r16,r16,r8
 2002560:	3940ab36 	bltu	r7,r5,2002810 <__divdf3+0x770>
 2002564:	3940a926 	beq	r7,r5,200280c <__divdf3+0x76c>
 2002568:	394bc83a 	sub	r5,r7,r5
 200256c:	b421c83a 	sub	r16,r22,r16
 2002570:	b42d803a 	cmpltu	r22,r22,r16
 2002574:	2dadc83a 	sub	r22,r5,r22
 2002578:	b5c0da26 	beq	r22,r23,20028e4 <__divdf3+0x844>
 200257c:	b009883a 	mov	r4,r22
 2002580:	a00b883a 	mov	r5,r20
 2002584:	20020900 	call	2002090 <__udivsi3>
 2002588:	1009883a 	mov	r4,r2
 200258c:	900b883a 	mov	r5,r18
 2002590:	d8800215 	stw	r2,8(sp)
 2002594:	20034380 	call	2003438 <__mulsi3>
 2002598:	b009883a 	mov	r4,r22
 200259c:	a00b883a 	mov	r5,r20
 20025a0:	d8800515 	stw	r2,20(sp)
 20025a4:	20020980 	call	2002098 <__umodsi3>
 20025a8:	1004943a 	slli	r2,r2,16
 20025ac:	8008d43a 	srli	r4,r16,16
 20025b0:	d9c00517 	ldw	r7,20(sp)
 20025b4:	da000217 	ldw	r8,8(sp)
 20025b8:	110ab03a 	or	r5,r2,r4
 20025bc:	29c0062e 	bgeu	r5,r7,20025d8 <__divdf3+0x538>
 20025c0:	2dcb883a 	add	r5,r5,r23
 20025c4:	40bfffc4 	addi	r2,r8,-1
 20025c8:	2dc0ca36 	bltu	r5,r23,20028f4 <__divdf3+0x854>
 20025cc:	29c0c92e 	bgeu	r5,r7,20028f4 <__divdf3+0x854>
 20025d0:	423fff84 	addi	r8,r8,-2
 20025d4:	2dcb883a 	add	r5,r5,r23
 20025d8:	29cfc83a 	sub	r7,r5,r7
 20025dc:	3809883a 	mov	r4,r7
 20025e0:	a00b883a 	mov	r5,r20
 20025e4:	da000215 	stw	r8,8(sp)
 20025e8:	d9c00515 	stw	r7,20(sp)
 20025ec:	20020900 	call	2002090 <__udivsi3>
 20025f0:	900b883a 	mov	r5,r18
 20025f4:	1009883a 	mov	r4,r2
 20025f8:	102d883a 	mov	r22,r2
 20025fc:	20034380 	call	2003438 <__mulsi3>
 2002600:	d9c00517 	ldw	r7,20(sp)
 2002604:	a00b883a 	mov	r5,r20
 2002608:	1025883a 	mov	r18,r2
 200260c:	3809883a 	mov	r4,r7
 2002610:	20020980 	call	2002098 <__umodsi3>
 2002614:	1004943a 	slli	r2,r2,16
 2002618:	843fffcc 	andi	r16,r16,65535
 200261c:	da000217 	ldw	r8,8(sp)
 2002620:	140eb03a 	or	r7,r2,r16
 2002624:	3c80062e 	bgeu	r7,r18,2002640 <__divdf3+0x5a0>
 2002628:	3dcf883a 	add	r7,r7,r23
 200262c:	b0bfffc4 	addi	r2,r22,-1
 2002630:	3dc0ae36 	bltu	r7,r23,20028ec <__divdf3+0x84c>
 2002634:	3c80ad2e 	bgeu	r7,r18,20028ec <__divdf3+0x84c>
 2002638:	b5bfff84 	addi	r22,r22,-2
 200263c:	3dcf883a 	add	r7,r7,r23
 2002640:	4010943a 	slli	r8,r8,16
 2002644:	3ca9c83a 	sub	r20,r7,r18
 2002648:	e00b883a 	mov	r5,fp
 200264c:	b224b03a 	or	r18,r22,r8
 2002650:	91ffffcc 	andi	r7,r18,65535
 2002654:	3809883a 	mov	r4,r7
 2002658:	d9c00515 	stw	r7,20(sp)
 200265c:	20034380 	call	2003438 <__mulsi3>
 2002660:	d9c00517 	ldw	r7,20(sp)
 2002664:	9020d43a 	srli	r16,r18,16
 2002668:	980b883a 	mov	r5,r19
 200266c:	3809883a 	mov	r4,r7
 2002670:	102d883a 	mov	r22,r2
 2002674:	20034380 	call	2003438 <__mulsi3>
 2002678:	e00b883a 	mov	r5,fp
 200267c:	8009883a 	mov	r4,r16
 2002680:	d8800515 	stw	r2,20(sp)
 2002684:	20034380 	call	2003438 <__mulsi3>
 2002688:	8009883a 	mov	r4,r16
 200268c:	980b883a 	mov	r5,r19
 2002690:	1039883a 	mov	fp,r2
 2002694:	20034380 	call	2003438 <__mulsi3>
 2002698:	d9c00517 	ldw	r7,20(sp)
 200269c:	100b883a 	mov	r5,r2
 20026a0:	b004d43a 	srli	r2,r22,16
 20026a4:	e1c9883a 	add	r4,fp,r7
 20026a8:	2089883a 	add	r4,r4,r2
 20026ac:	2700022e 	bgeu	r4,fp,20026b8 <__divdf3+0x618>
 20026b0:	00800074 	movhi	r2,1
 20026b4:	288b883a 	add	r5,r5,r2
 20026b8:	2004d43a 	srli	r2,r4,16
 20026bc:	2008943a 	slli	r4,r4,16
 20026c0:	b5bfffcc 	andi	r22,r22,65535
 20026c4:	288b883a 	add	r5,r5,r2
 20026c8:	25ad883a 	add	r22,r4,r22
 20026cc:	a140632e 	bgeu	r20,r5,200285c <__divdf3+0x7bc>
 20026d0:	a5e9883a 	add	r20,r20,r23
 20026d4:	90bfffc4 	addi	r2,r18,-1
 20026d8:	a5c0702e 	bgeu	r20,r23,200289c <__divdf3+0x7fc>
 20026dc:	1025883a 	mov	r18,r2
 20026e0:	a1406126 	beq	r20,r5,2002868 <__divdf3+0x7c8>
 20026e4:	94800054 	ori	r18,r18,1
 20026e8:	d8c00117 	ldw	r3,4(sp)
 20026ec:	1880ffc4 	addi	r2,r3,1023
 20026f0:	0080720e 	bge	zero,r2,20028bc <__divdf3+0x81c>
 20026f4:	90c001cc 	andi	r3,r18,7
 20026f8:	18000726 	beq	r3,zero,2002718 <__divdf3+0x678>
 20026fc:	910003cc 	andi	r4,r18,15
 2002700:	00c00104 	movi	r3,4
 2002704:	20c00426 	beq	r4,r3,2002718 <__divdf3+0x678>
 2002708:	90c7883a 	add	r3,r18,r3
 200270c:	1ca5803a 	cmpltu	r18,r3,r18
 2002710:	8ca3883a 	add	r17,r17,r18
 2002714:	1825883a 	mov	r18,r3
 2002718:	88c0402c 	andhi	r3,r17,256
 200271c:	18000526 	beq	r3,zero,2002734 <__divdf3+0x694>
 2002720:	d8c00117 	ldw	r3,4(sp)
 2002724:	00bfc034 	movhi	r2,65280
 2002728:	10bfffc4 	addi	r2,r2,-1
 200272c:	88a2703a 	and	r17,r17,r2
 2002730:	18810004 	addi	r2,r3,1024
 2002734:	00c1ff84 	movi	r3,2046
 2002738:	18bebe16 	blt	r3,r2,2002234 <__reset+0xfdff9234>
 200273c:	8820977a 	slli	r16,r17,29
 2002740:	9024d0fa 	srli	r18,r18,3
 2002744:	8822927a 	slli	r17,r17,9
 2002748:	1081ffcc 	andi	r2,r2,2047
 200274c:	84a0b03a 	or	r16,r16,r18
 2002750:	8826d33a 	srli	r19,r17,12
 2002754:	aa00004c 	andi	r8,r21,1
 2002758:	003eba06 	br	2002244 <__reset+0xfdff9244>
 200275c:	9880022c 	andhi	r2,r19,8
 2002760:	10000a26 	beq	r2,zero,200278c <__divdf3+0x6ec>
 2002764:	8880022c 	andhi	r2,r17,8
 2002768:	1000081e 	bne	r2,zero,200278c <__divdf3+0x6ec>
 200276c:	00800434 	movhi	r2,16
 2002770:	10bfffc4 	addi	r2,r2,-1
 2002774:	8cc00234 	orhi	r19,r17,8
 2002778:	98a6703a 	and	r19,r19,r2
 200277c:	b811883a 	mov	r8,r23
 2002780:	9021883a 	mov	r16,r18
 2002784:	0081ffc4 	movi	r2,2047
 2002788:	003eae06 	br	2002244 <__reset+0xfdff9244>
 200278c:	00800434 	movhi	r2,16
 2002790:	10bfffc4 	addi	r2,r2,-1
 2002794:	9cc00234 	orhi	r19,r19,8
 2002798:	98a6703a 	and	r19,r19,r2
 200279c:	b011883a 	mov	r8,r22
 20027a0:	0081ffc4 	movi	r2,2047
 20027a4:	003ea706 	br	2002244 <__reset+0xfdff9244>
 20027a8:	147ff604 	addi	r17,r2,-40
 20027ac:	3462983a 	sll	r17,r6,r17
 20027b0:	0025883a 	mov	r18,zero
 20027b4:	003ee906 	br	200235c <__reset+0xfdff935c>
 20027b8:	3009883a 	mov	r4,r6
 20027bc:	d9800215 	stw	r6,8(sp)
 20027c0:	da400315 	stw	r9,12(sp)
 20027c4:	da800415 	stw	r10,16(sp)
 20027c8:	200338c0 	call	200338c <__clzsi2>
 20027cc:	10800804 	addi	r2,r2,32
 20027d0:	da800417 	ldw	r10,16(sp)
 20027d4:	da400317 	ldw	r9,12(sp)
 20027d8:	d9800217 	ldw	r6,8(sp)
 20027dc:	003ed606 	br	2002338 <__reset+0xfdff9338>
 20027e0:	14fff604 	addi	r19,r2,-40
 20027e4:	94e6983a 	sll	r19,r18,r19
 20027e8:	0021883a 	mov	r16,zero
 20027ec:	003ebc06 	br	20022e0 <__reset+0xfdff92e0>
 20027f0:	d9800215 	stw	r6,8(sp)
 20027f4:	d9c00515 	stw	r7,20(sp)
 20027f8:	200338c0 	call	200338c <__clzsi2>
 20027fc:	10800804 	addi	r2,r2,32
 2002800:	d9c00517 	ldw	r7,20(sp)
 2002804:	d9800217 	ldw	r6,8(sp)
 2002808:	003eac06 	br	20022bc <__reset+0xfdff92bc>
 200280c:	b400292e 	bgeu	r22,r16,20028b4 <__divdf3+0x814>
 2002810:	d8c00017 	ldw	r3,0(sp)
 2002814:	b0ed883a 	add	r22,r22,r3
 2002818:	b0c5803a 	cmpltu	r2,r22,r3
 200281c:	15c5883a 	add	r2,r2,r23
 2002820:	11cf883a 	add	r7,r2,r7
 2002824:	88bfffc4 	addi	r2,r17,-1
 2002828:	b9c0122e 	bgeu	r23,r7,2002874 <__divdf3+0x7d4>
 200282c:	39405036 	bltu	r7,r5,2002970 <__divdf3+0x8d0>
 2002830:	29c01e26 	beq	r5,r7,20028ac <__divdf3+0x80c>
 2002834:	394bc83a 	sub	r5,r7,r5
 2002838:	1023883a 	mov	r17,r2
 200283c:	003f4b06 	br	200256c <__reset+0xfdff956c>
 2002840:	943ee62e 	bgeu	r18,r16,20023dc <__reset+0xfdff93dc>
 2002844:	980497fa 	slli	r2,r19,31
 2002848:	8006d07a 	srli	r3,r16,1
 200284c:	802c97fa 	slli	r22,r16,31
 2002850:	9826d07a 	srli	r19,r19,1
 2002854:	18a0b03a 	or	r16,r3,r2
 2002858:	003ee406 	br	20023ec <__reset+0xfdff93ec>
 200285c:	a17fa11e 	bne	r20,r5,20026e4 <__reset+0xfdff96e4>
 2002860:	b03f9b1e 	bne	r22,zero,20026d0 <__reset+0xfdff96d0>
 2002864:	d8000015 	stw	zero,0(sp)
 2002868:	d8c00017 	ldw	r3,0(sp)
 200286c:	1dbf9d1e 	bne	r3,r22,20026e4 <__reset+0xfdff96e4>
 2002870:	003f9d06 	br	20026e8 <__reset+0xfdff96e8>
 2002874:	3dffef1e 	bne	r7,r23,2002834 <__reset+0xfdff9834>
 2002878:	d8c00017 	ldw	r3,0(sp)
 200287c:	b0ffeb2e 	bgeu	r22,r3,200282c <__reset+0xfdff982c>
 2002880:	b94bc83a 	sub	r5,r23,r5
 2002884:	1023883a 	mov	r17,r2
 2002888:	003f3806 	br	200256c <__reset+0xfdff956c>
 200288c:	1023883a 	mov	r17,r2
 2002890:	003f0906 	br	20024b8 <__reset+0xfdff94b8>
 2002894:	1039883a 	mov	fp,r2
 2002898:	003ef006 	br	200245c <__reset+0xfdff945c>
 200289c:	a1403b36 	bltu	r20,r5,200298c <__divdf3+0x8ec>
 20028a0:	2d005826 	beq	r5,r20,2002a04 <__divdf3+0x964>
 20028a4:	1025883a 	mov	r18,r2
 20028a8:	003f8e06 	br	20026e4 <__reset+0xfdff96e4>
 20028ac:	b4003036 	bltu	r22,r16,2002970 <__divdf3+0x8d0>
 20028b0:	1023883a 	mov	r17,r2
 20028b4:	000b883a 	mov	r5,zero
 20028b8:	003f2c06 	br	200256c <__reset+0xfdff956c>
 20028bc:	d8c00117 	ldw	r3,4(sp)
 20028c0:	00bf0084 	movi	r2,-1022
 20028c4:	10c5c83a 	sub	r2,r2,r3
 20028c8:	00c00e04 	movi	r3,56
 20028cc:	18800d0e 	bge	r3,r2,2002904 <__divdf3+0x864>
 20028d0:	aa00004c 	andi	r8,r21,1
 20028d4:	0005883a 	mov	r2,zero
 20028d8:	0027883a 	mov	r19,zero
 20028dc:	0021883a 	mov	r16,zero
 20028e0:	003e5806 	br	2002244 <__reset+0xfdff9244>
 20028e4:	04bfffc4 	movi	r18,-1
 20028e8:	003f7f06 	br	20026e8 <__reset+0xfdff96e8>
 20028ec:	102d883a 	mov	r22,r2
 20028f0:	003f5306 	br	2002640 <__reset+0xfdff9640>
 20028f4:	1011883a 	mov	r8,r2
 20028f8:	003f3706 	br	20025d8 <__reset+0xfdff95d8>
 20028fc:	502b883a 	mov	r21,r10
 2002900:	003f7906 	br	20026e8 <__reset+0xfdff96e8>
 2002904:	00c007c4 	movi	r3,31
 2002908:	18802816 	blt	r3,r2,20029ac <__divdf3+0x90c>
 200290c:	d9000117 	ldw	r4,4(sp)
 2002910:	908ad83a 	srl	r5,r18,r2
 2002914:	8884d83a 	srl	r2,r17,r2
 2002918:	20c10784 	addi	r3,r4,1054
 200291c:	88c8983a 	sll	r4,r17,r3
 2002920:	90c6983a 	sll	r3,r18,r3
 2002924:	2908b03a 	or	r4,r5,r4
 2002928:	1806c03a 	cmpne	r3,r3,zero
 200292c:	20c6b03a 	or	r3,r4,r3
 2002930:	190001cc 	andi	r4,r3,7
 2002934:	20000726 	beq	r4,zero,2002954 <__divdf3+0x8b4>
 2002938:	194003cc 	andi	r5,r3,15
 200293c:	01000104 	movi	r4,4
 2002940:	29000426 	beq	r5,r4,2002954 <__divdf3+0x8b4>
 2002944:	1909883a 	add	r4,r3,r4
 2002948:	20c7803a 	cmpltu	r3,r4,r3
 200294c:	10c5883a 	add	r2,r2,r3
 2002950:	2007883a 	mov	r3,r4
 2002954:	1100202c 	andhi	r4,r2,128
 2002958:	20002226 	beq	r4,zero,20029e4 <__divdf3+0x944>
 200295c:	aa00004c 	andi	r8,r21,1
 2002960:	00800044 	movi	r2,1
 2002964:	0027883a 	mov	r19,zero
 2002968:	0021883a 	mov	r16,zero
 200296c:	003e3506 	br	2002244 <__reset+0xfdff9244>
 2002970:	d8c00017 	ldw	r3,0(sp)
 2002974:	8c7fff84 	addi	r17,r17,-2
 2002978:	b0ed883a 	add	r22,r22,r3
 200297c:	b0c5803a 	cmpltu	r2,r22,r3
 2002980:	15c5883a 	add	r2,r2,r23
 2002984:	11cf883a 	add	r7,r2,r7
 2002988:	003ef706 	br	2002568 <__reset+0xfdff9568>
 200298c:	d8c00017 	ldw	r3,0(sp)
 2002990:	18c9883a 	add	r4,r3,r3
 2002994:	20c5803a 	cmpltu	r2,r4,r3
 2002998:	15c7883a 	add	r3,r2,r23
 200299c:	a0e9883a 	add	r20,r20,r3
 20029a0:	90bfff84 	addi	r2,r18,-2
 20029a4:	d9000015 	stw	r4,0(sp)
 20029a8:	003f4c06 	br	20026dc <__reset+0xfdff96dc>
 20029ac:	d9000117 	ldw	r4,4(sp)
 20029b0:	00fef884 	movi	r3,-1054
 20029b4:	1907c83a 	sub	r3,r3,r4
 20029b8:	01000804 	movi	r4,32
 20029bc:	88c6d83a 	srl	r3,r17,r3
 20029c0:	11001426 	beq	r2,r4,2002a14 <__divdf3+0x974>
 20029c4:	d9000117 	ldw	r4,4(sp)
 20029c8:	20810f84 	addi	r2,r4,1086
 20029cc:	8884983a 	sll	r2,r17,r2
 20029d0:	1484b03a 	or	r2,r2,r18
 20029d4:	1004c03a 	cmpne	r2,r2,zero
 20029d8:	10c6b03a 	or	r3,r2,r3
 20029dc:	0005883a 	mov	r2,zero
 20029e0:	003fd306 	br	2002930 <__reset+0xfdff9930>
 20029e4:	1020977a 	slli	r16,r2,29
 20029e8:	1806d0fa 	srli	r3,r3,3
 20029ec:	1004927a 	slli	r2,r2,9
 20029f0:	aa00004c 	andi	r8,r21,1
 20029f4:	80e0b03a 	or	r16,r16,r3
 20029f8:	1026d33a 	srli	r19,r2,12
 20029fc:	0005883a 	mov	r2,zero
 2002a00:	003e1006 	br	2002244 <__reset+0xfdff9244>
 2002a04:	d8c00017 	ldw	r3,0(sp)
 2002a08:	1dbfe036 	bltu	r3,r22,200298c <__reset+0xfdff998c>
 2002a0c:	1025883a 	mov	r18,r2
 2002a10:	003f9506 	br	2002868 <__reset+0xfdff9868>
 2002a14:	0005883a 	mov	r2,zero
 2002a18:	003fed06 	br	20029d0 <__reset+0xfdff99d0>
 2002a1c:	00800434 	movhi	r2,16
 2002a20:	10bfffc4 	addi	r2,r2,-1
 2002a24:	8cc00234 	orhi	r19,r17,8
 2002a28:	98a6703a 	and	r19,r19,r2
 2002a2c:	5011883a 	mov	r8,r10
 2002a30:	9021883a 	mov	r16,r18
 2002a34:	0081ffc4 	movi	r2,2047
 2002a38:	003e0206 	br	2002244 <__reset+0xfdff9244>

02002a3c <__muldf3>:
 2002a3c:	deffee04 	addi	sp,sp,-72
 2002a40:	dc400915 	stw	r17,36(sp)
 2002a44:	2822d53a 	srli	r17,r5,20
 2002a48:	dc000815 	stw	r16,32(sp)
 2002a4c:	2820d7fa 	srli	r16,r5,31
 2002a50:	df001015 	stw	fp,64(sp)
 2002a54:	dd000c15 	stw	r20,48(sp)
 2002a58:	dcc00b15 	stw	r19,44(sp)
 2002a5c:	dfc01115 	stw	ra,68(sp)
 2002a60:	04c00434 	movhi	r19,16
 2002a64:	9cffffc4 	addi	r19,r19,-1
 2002a68:	ddc00f15 	stw	r23,60(sp)
 2002a6c:	dd800e15 	stw	r22,56(sp)
 2002a70:	dd400d15 	stw	r21,52(sp)
 2002a74:	dc800a15 	stw	r18,40(sp)
 2002a78:	8c41ffcc 	andi	r17,r17,2047
 2002a7c:	2029883a 	mov	r20,r4
 2002a80:	2ce6703a 	and	r19,r5,r19
 2002a84:	8039883a 	mov	fp,r16
 2002a88:	82003fcc 	andi	r8,r16,255
 2002a8c:	88005d26 	beq	r17,zero,2002c04 <__muldf3+0x1c8>
 2002a90:	0081ffc4 	movi	r2,2047
 2002a94:	202f883a 	mov	r23,r4
 2002a98:	88803326 	beq	r17,r2,2002b68 <__muldf3+0x12c>
 2002a9c:	98800434 	orhi	r2,r19,16
 2002aa0:	100490fa 	slli	r2,r2,3
 2002aa4:	2026d77a 	srli	r19,r4,29
 2002aa8:	202e90fa 	slli	r23,r4,3
 2002aac:	8c7f0044 	addi	r17,r17,-1023
 2002ab0:	14e6b03a 	or	r19,r2,r19
 2002ab4:	002d883a 	mov	r22,zero
 2002ab8:	000b883a 	mov	r5,zero
 2002abc:	3804d53a 	srli	r2,r7,20
 2002ac0:	3828d7fa 	srli	r20,r7,31
 2002ac4:	04800434 	movhi	r18,16
 2002ac8:	94bfffc4 	addi	r18,r18,-1
 2002acc:	1081ffcc 	andi	r2,r2,2047
 2002ad0:	302b883a 	mov	r21,r6
 2002ad4:	3ca4703a 	and	r18,r7,r18
 2002ad8:	a2403fcc 	andi	r9,r20,255
 2002adc:	10006826 	beq	r2,zero,2002c80 <__muldf3+0x244>
 2002ae0:	00c1ffc4 	movi	r3,2047
 2002ae4:	10c06026 	beq	r2,r3,2002c68 <__muldf3+0x22c>
 2002ae8:	90c00434 	orhi	r3,r18,16
 2002aec:	180690fa 	slli	r3,r3,3
 2002af0:	3024d77a 	srli	r18,r6,29
 2002af4:	302a90fa 	slli	r21,r6,3
 2002af8:	10bf0044 	addi	r2,r2,-1023
 2002afc:	1ca4b03a 	or	r18,r3,r18
 2002b00:	0007883a 	mov	r3,zero
 2002b04:	1d88b03a 	or	r4,r3,r22
 2002b08:	2109883a 	add	r4,r4,r4
 2002b0c:	2109883a 	add	r4,r4,r4
 2002b10:	01808034 	movhi	r6,512
 2002b14:	318aca04 	addi	r6,r6,11048
 2002b18:	2189883a 	add	r4,r4,r6
 2002b1c:	21000017 	ldw	r4,0(r4)
 2002b20:	852cf03a 	xor	r22,r16,r20
 2002b24:	2000683a 	jmp	r4
 2002b28:	02002d70 	cmpltui	r8,zero,181
 2002b2c:	02002d60 	cmpeqi	r8,zero,181
 2002b30:	02002d60 	cmpeqi	r8,zero,181
 2002b34:	02002d4c 	andi	r8,zero,181
 2002b38:	02002b88 	cmpgei	r8,zero,174
 2002b3c:	02002b88 	cmpgei	r8,zero,174
 2002b40:	02002d34 	movhi	r8,180
 2002b44:	02002d4c 	andi	r8,zero,181
 2002b48:	02002b88 	cmpgei	r8,zero,174
 2002b4c:	02002d34 	movhi	r8,180
 2002b50:	02002b88 	cmpgei	r8,zero,174
 2002b54:	02002d4c 	andi	r8,zero,181
 2002b58:	02002b84 	movi	r8,174
 2002b5c:	02002b84 	movi	r8,174
 2002b60:	02002b84 	movi	r8,174
 2002b64:	02003088 	cmpgei	r8,zero,194
 2002b68:	9904b03a 	or	r2,r19,r4
 2002b6c:	10006e1e 	bne	r2,zero,2002d28 <__muldf3+0x2ec>
 2002b70:	05800204 	movi	r22,8
 2002b74:	0027883a 	mov	r19,zero
 2002b78:	002f883a 	mov	r23,zero
 2002b7c:	01400084 	movi	r5,2
 2002b80:	003fce06 	br	2002abc <__reset+0xfdff9abc>
 2002b84:	402d883a 	mov	r22,r8
 2002b88:	00800084 	movi	r2,2
 2002b8c:	28805626 	beq	r5,r2,2002ce8 <__muldf3+0x2ac>
 2002b90:	008000c4 	movi	r2,3
 2002b94:	2881a226 	beq	r5,r2,2003220 <__muldf3+0x7e4>
 2002b98:	00800044 	movi	r2,1
 2002b9c:	28811d1e 	bne	r5,r2,2003014 <__muldf3+0x5d8>
 2002ba0:	b039883a 	mov	fp,r22
 2002ba4:	0005883a 	mov	r2,zero
 2002ba8:	0027883a 	mov	r19,zero
 2002bac:	002f883a 	mov	r23,zero
 2002bb0:	1004953a 	slli	r2,r2,20
 2002bb4:	e7003fcc 	andi	fp,fp,255
 2002bb8:	e03897fa 	slli	fp,fp,31
 2002bbc:	00c00434 	movhi	r3,16
 2002bc0:	18ffffc4 	addi	r3,r3,-1
 2002bc4:	98e6703a 	and	r19,r19,r3
 2002bc8:	9886b03a 	or	r3,r19,r2
 2002bcc:	1f06b03a 	or	r3,r3,fp
 2002bd0:	b805883a 	mov	r2,r23
 2002bd4:	dfc01117 	ldw	ra,68(sp)
 2002bd8:	df001017 	ldw	fp,64(sp)
 2002bdc:	ddc00f17 	ldw	r23,60(sp)
 2002be0:	dd800e17 	ldw	r22,56(sp)
 2002be4:	dd400d17 	ldw	r21,52(sp)
 2002be8:	dd000c17 	ldw	r20,48(sp)
 2002bec:	dcc00b17 	ldw	r19,44(sp)
 2002bf0:	dc800a17 	ldw	r18,40(sp)
 2002bf4:	dc400917 	ldw	r17,36(sp)
 2002bf8:	dc000817 	ldw	r16,32(sp)
 2002bfc:	dec01204 	addi	sp,sp,72
 2002c00:	f800283a 	ret
 2002c04:	9904b03a 	or	r2,r19,r4
 2002c08:	10004226 	beq	r2,zero,2002d14 <__muldf3+0x2d8>
 2002c0c:	98013426 	beq	r19,zero,20030e0 <__muldf3+0x6a4>
 2002c10:	9809883a 	mov	r4,r19
 2002c14:	d9800515 	stw	r6,20(sp)
 2002c18:	d9c00415 	stw	r7,16(sp)
 2002c1c:	da000615 	stw	r8,24(sp)
 2002c20:	200338c0 	call	200338c <__clzsi2>
 2002c24:	d9800517 	ldw	r6,20(sp)
 2002c28:	d9c00417 	ldw	r7,16(sp)
 2002c2c:	da000617 	ldw	r8,24(sp)
 2002c30:	00c009c4 	movi	r3,39
 2002c34:	18812616 	blt	r3,r2,20030d0 <__muldf3+0x694>
 2002c38:	00c00a04 	movi	r3,40
 2002c3c:	15fffe04 	addi	r23,r2,-8
 2002c40:	1887c83a 	sub	r3,r3,r2
 2002c44:	9de6983a 	sll	r19,r19,r23
 2002c48:	a0c6d83a 	srl	r3,r20,r3
 2002c4c:	a5ee983a 	sll	r23,r20,r23
 2002c50:	1ce6b03a 	or	r19,r3,r19
 2002c54:	047f0344 	movi	r17,-1011
 2002c58:	88a3c83a 	sub	r17,r17,r2
 2002c5c:	002d883a 	mov	r22,zero
 2002c60:	000b883a 	mov	r5,zero
 2002c64:	003f9506 	br	2002abc <__reset+0xfdff9abc>
 2002c68:	9186b03a 	or	r3,r18,r6
 2002c6c:	1800271e 	bne	r3,zero,2002d0c <__muldf3+0x2d0>
 2002c70:	0025883a 	mov	r18,zero
 2002c74:	002b883a 	mov	r21,zero
 2002c78:	00c00084 	movi	r3,2
 2002c7c:	003fa106 	br	2002b04 <__reset+0xfdff9b04>
 2002c80:	9186b03a 	or	r3,r18,r6
 2002c84:	18001d26 	beq	r3,zero,2002cfc <__muldf3+0x2c0>
 2002c88:	90012226 	beq	r18,zero,2003114 <__muldf3+0x6d8>
 2002c8c:	9009883a 	mov	r4,r18
 2002c90:	d9400415 	stw	r5,16(sp)
 2002c94:	d9800515 	stw	r6,20(sp)
 2002c98:	da000615 	stw	r8,24(sp)
 2002c9c:	da400715 	stw	r9,28(sp)
 2002ca0:	200338c0 	call	200338c <__clzsi2>
 2002ca4:	d9400417 	ldw	r5,16(sp)
 2002ca8:	d9800517 	ldw	r6,20(sp)
 2002cac:	da000617 	ldw	r8,24(sp)
 2002cb0:	da400717 	ldw	r9,28(sp)
 2002cb4:	00c009c4 	movi	r3,39
 2002cb8:	18811216 	blt	r3,r2,2003104 <__muldf3+0x6c8>
 2002cbc:	01c00a04 	movi	r7,40
 2002cc0:	157ffe04 	addi	r21,r2,-8
 2002cc4:	388fc83a 	sub	r7,r7,r2
 2002cc8:	9564983a 	sll	r18,r18,r21
 2002ccc:	31ced83a 	srl	r7,r6,r7
 2002cd0:	356a983a 	sll	r21,r6,r21
 2002cd4:	3ca4b03a 	or	r18,r7,r18
 2002cd8:	00ff0344 	movi	r3,-1011
 2002cdc:	1885c83a 	sub	r2,r3,r2
 2002ce0:	0007883a 	mov	r3,zero
 2002ce4:	003f8706 	br	2002b04 <__reset+0xfdff9b04>
 2002ce8:	b039883a 	mov	fp,r22
 2002cec:	0081ffc4 	movi	r2,2047
 2002cf0:	0027883a 	mov	r19,zero
 2002cf4:	002f883a 	mov	r23,zero
 2002cf8:	003fad06 	br	2002bb0 <__reset+0xfdff9bb0>
 2002cfc:	0025883a 	mov	r18,zero
 2002d00:	002b883a 	mov	r21,zero
 2002d04:	00c00044 	movi	r3,1
 2002d08:	003f7e06 	br	2002b04 <__reset+0xfdff9b04>
 2002d0c:	00c000c4 	movi	r3,3
 2002d10:	003f7c06 	br	2002b04 <__reset+0xfdff9b04>
 2002d14:	05800104 	movi	r22,4
 2002d18:	0027883a 	mov	r19,zero
 2002d1c:	002f883a 	mov	r23,zero
 2002d20:	01400044 	movi	r5,1
 2002d24:	003f6506 	br	2002abc <__reset+0xfdff9abc>
 2002d28:	05800304 	movi	r22,12
 2002d2c:	014000c4 	movi	r5,3
 2002d30:	003f6206 	br	2002abc <__reset+0xfdff9abc>
 2002d34:	0039883a 	mov	fp,zero
 2002d38:	04c00434 	movhi	r19,16
 2002d3c:	9cffffc4 	addi	r19,r19,-1
 2002d40:	05ffffc4 	movi	r23,-1
 2002d44:	0081ffc4 	movi	r2,2047
 2002d48:	003f9906 	br	2002bb0 <__reset+0xfdff9bb0>
 2002d4c:	9027883a 	mov	r19,r18
 2002d50:	a82f883a 	mov	r23,r21
 2002d54:	482d883a 	mov	r22,r9
 2002d58:	180b883a 	mov	r5,r3
 2002d5c:	003f8a06 	br	2002b88 <__reset+0xfdff9b88>
 2002d60:	9027883a 	mov	r19,r18
 2002d64:	a82f883a 	mov	r23,r21
 2002d68:	180b883a 	mov	r5,r3
 2002d6c:	003f8606 	br	2002b88 <__reset+0xfdff9b88>
 2002d70:	a828d43a 	srli	r20,r21,16
 2002d74:	b820d43a 	srli	r16,r23,16
 2002d78:	ad7fffcc 	andi	r21,r21,65535
 2002d7c:	bdffffcc 	andi	r23,r23,65535
 2002d80:	8885883a 	add	r2,r17,r2
 2002d84:	a809883a 	mov	r4,r21
 2002d88:	b80b883a 	mov	r5,r23
 2002d8c:	d8800015 	stw	r2,0(sp)
 2002d90:	20034380 	call	2003438 <__mulsi3>
 2002d94:	a009883a 	mov	r4,r20
 2002d98:	b80b883a 	mov	r5,r23
 2002d9c:	d8800415 	stw	r2,16(sp)
 2002da0:	20034380 	call	2003438 <__mulsi3>
 2002da4:	a809883a 	mov	r4,r21
 2002da8:	800b883a 	mov	r5,r16
 2002dac:	d8800615 	stw	r2,24(sp)
 2002db0:	20034380 	call	2003438 <__mulsi3>
 2002db4:	a009883a 	mov	r4,r20
 2002db8:	800b883a 	mov	r5,r16
 2002dbc:	1023883a 	mov	r17,r2
 2002dc0:	20034380 	call	2003438 <__mulsi3>
 2002dc4:	d9c00417 	ldw	r7,16(sp)
 2002dc8:	da000617 	ldw	r8,24(sp)
 2002dcc:	1039883a 	mov	fp,r2
 2002dd0:	3804d43a 	srli	r2,r7,16
 2002dd4:	8a07883a 	add	r3,r17,r8
 2002dd8:	1887883a 	add	r3,r3,r2
 2002ddc:	1c40022e 	bgeu	r3,r17,2002de8 <__muldf3+0x3ac>
 2002de0:	00800074 	movhi	r2,1
 2002de4:	e0b9883a 	add	fp,fp,r2
 2002de8:	1804943a 	slli	r2,r3,16
 2002dec:	1806d43a 	srli	r3,r3,16
 2002df0:	9022d43a 	srli	r17,r18,16
 2002df4:	39ffffcc 	andi	r7,r7,65535
 2002df8:	94bfffcc 	andi	r18,r18,65535
 2002dfc:	11cf883a 	add	r7,r2,r7
 2002e00:	b80b883a 	mov	r5,r23
 2002e04:	9009883a 	mov	r4,r18
 2002e08:	d8c00215 	stw	r3,8(sp)
 2002e0c:	d9c00315 	stw	r7,12(sp)
 2002e10:	20034380 	call	2003438 <__mulsi3>
 2002e14:	b80b883a 	mov	r5,r23
 2002e18:	8809883a 	mov	r4,r17
 2002e1c:	d8800415 	stw	r2,16(sp)
 2002e20:	20034380 	call	2003438 <__mulsi3>
 2002e24:	9009883a 	mov	r4,r18
 2002e28:	800b883a 	mov	r5,r16
 2002e2c:	d8800715 	stw	r2,28(sp)
 2002e30:	20034380 	call	2003438 <__mulsi3>
 2002e34:	8809883a 	mov	r4,r17
 2002e38:	800b883a 	mov	r5,r16
 2002e3c:	102f883a 	mov	r23,r2
 2002e40:	20034380 	call	2003438 <__mulsi3>
 2002e44:	d9c00417 	ldw	r7,16(sp)
 2002e48:	da400717 	ldw	r9,28(sp)
 2002e4c:	1011883a 	mov	r8,r2
 2002e50:	3804d43a 	srli	r2,r7,16
 2002e54:	ba47883a 	add	r3,r23,r9
 2002e58:	1887883a 	add	r3,r3,r2
 2002e5c:	1dc0022e 	bgeu	r3,r23,2002e68 <__muldf3+0x42c>
 2002e60:	00800074 	movhi	r2,1
 2002e64:	4091883a 	add	r8,r8,r2
 2002e68:	1804d43a 	srli	r2,r3,16
 2002e6c:	182e943a 	slli	r23,r3,16
 2002e70:	9820d43a 	srli	r16,r19,16
 2002e74:	9cffffcc 	andi	r19,r19,65535
 2002e78:	39ffffcc 	andi	r7,r7,65535
 2002e7c:	4085883a 	add	r2,r8,r2
 2002e80:	a809883a 	mov	r4,r21
 2002e84:	980b883a 	mov	r5,r19
 2002e88:	b9ef883a 	add	r23,r23,r7
 2002e8c:	d8800115 	stw	r2,4(sp)
 2002e90:	20034380 	call	2003438 <__mulsi3>
 2002e94:	a009883a 	mov	r4,r20
 2002e98:	980b883a 	mov	r5,r19
 2002e9c:	d8800415 	stw	r2,16(sp)
 2002ea0:	20034380 	call	2003438 <__mulsi3>
 2002ea4:	a809883a 	mov	r4,r21
 2002ea8:	800b883a 	mov	r5,r16
 2002eac:	d8800715 	stw	r2,28(sp)
 2002eb0:	20034380 	call	2003438 <__mulsi3>
 2002eb4:	a009883a 	mov	r4,r20
 2002eb8:	800b883a 	mov	r5,r16
 2002ebc:	102b883a 	mov	r21,r2
 2002ec0:	20034380 	call	2003438 <__mulsi3>
 2002ec4:	d9c00417 	ldw	r7,16(sp)
 2002ec8:	da400717 	ldw	r9,28(sp)
 2002ecc:	1011883a 	mov	r8,r2
 2002ed0:	3804d43a 	srli	r2,r7,16
 2002ed4:	aa47883a 	add	r3,r21,r9
 2002ed8:	1887883a 	add	r3,r3,r2
 2002edc:	1d40022e 	bgeu	r3,r21,2002ee8 <__muldf3+0x4ac>
 2002ee0:	00800074 	movhi	r2,1
 2002ee4:	4091883a 	add	r8,r8,r2
 2002ee8:	1828d43a 	srli	r20,r3,16
 2002eec:	1806943a 	slli	r3,r3,16
 2002ef0:	39ffffcc 	andi	r7,r7,65535
 2002ef4:	9009883a 	mov	r4,r18
 2002ef8:	980b883a 	mov	r5,r19
 2002efc:	19eb883a 	add	r21,r3,r7
 2002f00:	4529883a 	add	r20,r8,r20
 2002f04:	20034380 	call	2003438 <__mulsi3>
 2002f08:	980b883a 	mov	r5,r19
 2002f0c:	8809883a 	mov	r4,r17
 2002f10:	d8800415 	stw	r2,16(sp)
 2002f14:	20034380 	call	2003438 <__mulsi3>
 2002f18:	9009883a 	mov	r4,r18
 2002f1c:	800b883a 	mov	r5,r16
 2002f20:	1027883a 	mov	r19,r2
 2002f24:	20034380 	call	2003438 <__mulsi3>
 2002f28:	8809883a 	mov	r4,r17
 2002f2c:	800b883a 	mov	r5,r16
 2002f30:	1025883a 	mov	r18,r2
 2002f34:	20034380 	call	2003438 <__mulsi3>
 2002f38:	d9c00417 	ldw	r7,16(sp)
 2002f3c:	1011883a 	mov	r8,r2
 2002f40:	94c7883a 	add	r3,r18,r19
 2002f44:	3804d43a 	srli	r2,r7,16
 2002f48:	1887883a 	add	r3,r3,r2
 2002f4c:	1c80022e 	bgeu	r3,r18,2002f58 <__muldf3+0x51c>
 2002f50:	00800074 	movhi	r2,1
 2002f54:	4091883a 	add	r8,r8,r2
 2002f58:	1804943a 	slli	r2,r3,16
 2002f5c:	d9400217 	ldw	r5,8(sp)
 2002f60:	39ffffcc 	andi	r7,r7,65535
 2002f64:	11cf883a 	add	r7,r2,r7
 2002f68:	d8800117 	ldw	r2,4(sp)
 2002f6c:	b949883a 	add	r4,r23,r5
 2002f70:	2739883a 	add	fp,r4,fp
 2002f74:	e5ef803a 	cmpltu	r23,fp,r23
 2002f78:	388f883a 	add	r7,r7,r2
 2002f7c:	3dcb883a 	add	r5,r7,r23
 2002f80:	a149883a 	add	r4,r20,r5
 2002f84:	2def803a 	cmpltu	r23,r5,r23
 2002f88:	d9400117 	ldw	r5,4(sp)
 2002f8c:	e579883a 	add	fp,fp,r21
 2002f90:	e56b803a 	cmpltu	r21,fp,r21
 2002f94:	1804d43a 	srli	r2,r3,16
 2002f98:	394f803a 	cmpltu	r7,r7,r5
 2002f9c:	2547883a 	add	r3,r4,r21
 2002fa0:	b9e6b03a 	or	r19,r23,r7
 2002fa4:	1d6b803a 	cmpltu	r21,r3,r21
 2002fa8:	2529803a 	cmpltu	r20,r4,r20
 2002fac:	98a7883a 	add	r19,r19,r2
 2002fb0:	ad2ab03a 	or	r21,r21,r20
 2002fb4:	9d67883a 	add	r19,r19,r21
 2002fb8:	e02e927a 	slli	r23,fp,9
 2002fbc:	9a27883a 	add	r19,r19,r8
 2002fc0:	d9000317 	ldw	r4,12(sp)
 2002fc4:	1804d5fa 	srli	r2,r3,23
 2002fc8:	9826927a 	slli	r19,r19,9
 2002fcc:	e038d5fa 	srli	fp,fp,23
 2002fd0:	b92eb03a 	or	r23,r23,r4
 2002fd4:	1806927a 	slli	r3,r3,9
 2002fd8:	98a6b03a 	or	r19,r19,r2
 2002fdc:	b82ec03a 	cmpne	r23,r23,zero
 2002fe0:	bf2eb03a 	or	r23,r23,fp
 2002fe4:	9880402c 	andhi	r2,r19,256
 2002fe8:	b8eeb03a 	or	r23,r23,r3
 2002fec:	10000926 	beq	r2,zero,2003014 <__muldf3+0x5d8>
 2002ff0:	b806d07a 	srli	r3,r23,1
 2002ff4:	bdc0004c 	andi	r23,r23,1
 2002ff8:	980497fa 	slli	r2,r19,31
 2002ffc:	b8eeb03a 	or	r23,r23,r3
 2003000:	d8c00017 	ldw	r3,0(sp)
 2003004:	9826d07a 	srli	r19,r19,1
 2003008:	b8aeb03a 	or	r23,r23,r2
 200300c:	18c00044 	addi	r3,r3,1
 2003010:	d8c00015 	stw	r3,0(sp)
 2003014:	d8c00017 	ldw	r3,0(sp)
 2003018:	1880ffc4 	addi	r2,r3,1023
 200301c:	0080490e 	bge	zero,r2,2003144 <__muldf3+0x708>
 2003020:	b8c001cc 	andi	r3,r23,7
 2003024:	18000726 	beq	r3,zero,2003044 <__muldf3+0x608>
 2003028:	b90003cc 	andi	r4,r23,15
 200302c:	00c00104 	movi	r3,4
 2003030:	20c00426 	beq	r4,r3,2003044 <__muldf3+0x608>
 2003034:	b8c7883a 	add	r3,r23,r3
 2003038:	1def803a 	cmpltu	r23,r3,r23
 200303c:	9de7883a 	add	r19,r19,r23
 2003040:	182f883a 	mov	r23,r3
 2003044:	98c0402c 	andhi	r3,r19,256
 2003048:	18000526 	beq	r3,zero,2003060 <__muldf3+0x624>
 200304c:	d8c00017 	ldw	r3,0(sp)
 2003050:	00bfc034 	movhi	r2,65280
 2003054:	10bfffc4 	addi	r2,r2,-1
 2003058:	98a6703a 	and	r19,r19,r2
 200305c:	18810004 	addi	r2,r3,1024
 2003060:	00c1ff84 	movi	r3,2046
 2003064:	18bf2016 	blt	r3,r2,2002ce8 <__reset+0xfdff9ce8>
 2003068:	9806977a 	slli	r3,r19,29
 200306c:	b82ed0fa 	srli	r23,r23,3
 2003070:	9826927a 	slli	r19,r19,9
 2003074:	1081ffcc 	andi	r2,r2,2047
 2003078:	1deeb03a 	or	r23,r3,r23
 200307c:	9826d33a 	srli	r19,r19,12
 2003080:	b039883a 	mov	fp,r22
 2003084:	003eca06 	br	2002bb0 <__reset+0xfdff9bb0>
 2003088:	9880022c 	andhi	r2,r19,8
 200308c:	10000a26 	beq	r2,zero,20030b8 <__muldf3+0x67c>
 2003090:	9080022c 	andhi	r2,r18,8
 2003094:	1000081e 	bne	r2,zero,20030b8 <__muldf3+0x67c>
 2003098:	00800434 	movhi	r2,16
 200309c:	10bfffc4 	addi	r2,r2,-1
 20030a0:	94c00234 	orhi	r19,r18,8
 20030a4:	98a6703a 	and	r19,r19,r2
 20030a8:	a039883a 	mov	fp,r20
 20030ac:	a82f883a 	mov	r23,r21
 20030b0:	0081ffc4 	movi	r2,2047
 20030b4:	003ebe06 	br	2002bb0 <__reset+0xfdff9bb0>
 20030b8:	00800434 	movhi	r2,16
 20030bc:	10bfffc4 	addi	r2,r2,-1
 20030c0:	9cc00234 	orhi	r19,r19,8
 20030c4:	98a6703a 	and	r19,r19,r2
 20030c8:	0081ffc4 	movi	r2,2047
 20030cc:	003eb806 	br	2002bb0 <__reset+0xfdff9bb0>
 20030d0:	14fff604 	addi	r19,r2,-40
 20030d4:	a4e6983a 	sll	r19,r20,r19
 20030d8:	002f883a 	mov	r23,zero
 20030dc:	003edd06 	br	2002c54 <__reset+0xfdff9c54>
 20030e0:	d9800515 	stw	r6,20(sp)
 20030e4:	d9c00415 	stw	r7,16(sp)
 20030e8:	da000615 	stw	r8,24(sp)
 20030ec:	200338c0 	call	200338c <__clzsi2>
 20030f0:	10800804 	addi	r2,r2,32
 20030f4:	da000617 	ldw	r8,24(sp)
 20030f8:	d9c00417 	ldw	r7,16(sp)
 20030fc:	d9800517 	ldw	r6,20(sp)
 2003100:	003ecb06 	br	2002c30 <__reset+0xfdff9c30>
 2003104:	14bff604 	addi	r18,r2,-40
 2003108:	34a4983a 	sll	r18,r6,r18
 200310c:	002b883a 	mov	r21,zero
 2003110:	003ef106 	br	2002cd8 <__reset+0xfdff9cd8>
 2003114:	3009883a 	mov	r4,r6
 2003118:	d9400415 	stw	r5,16(sp)
 200311c:	d9800515 	stw	r6,20(sp)
 2003120:	da000615 	stw	r8,24(sp)
 2003124:	da400715 	stw	r9,28(sp)
 2003128:	200338c0 	call	200338c <__clzsi2>
 200312c:	10800804 	addi	r2,r2,32
 2003130:	da400717 	ldw	r9,28(sp)
 2003134:	da000617 	ldw	r8,24(sp)
 2003138:	d9800517 	ldw	r6,20(sp)
 200313c:	d9400417 	ldw	r5,16(sp)
 2003140:	003edc06 	br	2002cb4 <__reset+0xfdff9cb4>
 2003144:	d8c00017 	ldw	r3,0(sp)
 2003148:	00bf0084 	movi	r2,-1022
 200314c:	10c5c83a 	sub	r2,r2,r3
 2003150:	00c00e04 	movi	r3,56
 2003154:	18be9216 	blt	r3,r2,2002ba0 <__reset+0xfdff9ba0>
 2003158:	00c007c4 	movi	r3,31
 200315c:	18801916 	blt	r3,r2,20031c4 <__muldf3+0x788>
 2003160:	d9000017 	ldw	r4,0(sp)
 2003164:	b88ad83a 	srl	r5,r23,r2
 2003168:	9884d83a 	srl	r2,r19,r2
 200316c:	20c10784 	addi	r3,r4,1054
 2003170:	98c8983a 	sll	r4,r19,r3
 2003174:	b8c6983a 	sll	r3,r23,r3
 2003178:	2908b03a 	or	r4,r5,r4
 200317c:	1806c03a 	cmpne	r3,r3,zero
 2003180:	20c6b03a 	or	r3,r4,r3
 2003184:	190001cc 	andi	r4,r3,7
 2003188:	20000726 	beq	r4,zero,20031a8 <__muldf3+0x76c>
 200318c:	194003cc 	andi	r5,r3,15
 2003190:	01000104 	movi	r4,4
 2003194:	29000426 	beq	r5,r4,20031a8 <__muldf3+0x76c>
 2003198:	1909883a 	add	r4,r3,r4
 200319c:	20c7803a 	cmpltu	r3,r4,r3
 20031a0:	10c5883a 	add	r2,r2,r3
 20031a4:	2007883a 	mov	r3,r4
 20031a8:	1100202c 	andhi	r4,r2,128
 20031ac:	20001226 	beq	r4,zero,20031f8 <__muldf3+0x7bc>
 20031b0:	b039883a 	mov	fp,r22
 20031b4:	00800044 	movi	r2,1
 20031b8:	0027883a 	mov	r19,zero
 20031bc:	002f883a 	mov	r23,zero
 20031c0:	003e7b06 	br	2002bb0 <__reset+0xfdff9bb0>
 20031c4:	d9400017 	ldw	r5,0(sp)
 20031c8:	00fef884 	movi	r3,-1054
 20031cc:	01000804 	movi	r4,32
 20031d0:	1947c83a 	sub	r3,r3,r5
 20031d4:	98c6d83a 	srl	r3,r19,r3
 20031d8:	11000f26 	beq	r2,r4,2003218 <__muldf3+0x7dc>
 20031dc:	28810f84 	addi	r2,r5,1086
 20031e0:	9884983a 	sll	r2,r19,r2
 20031e4:	15c4b03a 	or	r2,r2,r23
 20031e8:	1004c03a 	cmpne	r2,r2,zero
 20031ec:	10c6b03a 	or	r3,r2,r3
 20031f0:	0005883a 	mov	r2,zero
 20031f4:	003fe306 	br	2003184 <__reset+0xfdffa184>
 20031f8:	102e977a 	slli	r23,r2,29
 20031fc:	1806d0fa 	srli	r3,r3,3
 2003200:	1004927a 	slli	r2,r2,9
 2003204:	b039883a 	mov	fp,r22
 2003208:	b8eeb03a 	or	r23,r23,r3
 200320c:	1026d33a 	srli	r19,r2,12
 2003210:	0005883a 	mov	r2,zero
 2003214:	003e6606 	br	2002bb0 <__reset+0xfdff9bb0>
 2003218:	0005883a 	mov	r2,zero
 200321c:	003ff106 	br	20031e4 <__reset+0xfdffa1e4>
 2003220:	00800434 	movhi	r2,16
 2003224:	10bfffc4 	addi	r2,r2,-1
 2003228:	9cc00234 	orhi	r19,r19,8
 200322c:	98a6703a 	and	r19,r19,r2
 2003230:	b039883a 	mov	fp,r22
 2003234:	0081ffc4 	movi	r2,2047
 2003238:	003e5d06 	br	2002bb0 <__reset+0xfdff9bb0>

0200323c <__fixdfsi>:
 200323c:	2806d53a 	srli	r3,r5,20
 2003240:	00800434 	movhi	r2,16
 2003244:	10bfffc4 	addi	r2,r2,-1
 2003248:	0180ff84 	movi	r6,1022
 200324c:	18c1ffcc 	andi	r3,r3,2047
 2003250:	2884703a 	and	r2,r5,r2
 2003254:	280ad7fa 	srli	r5,r5,31
 2003258:	30c0120e 	bge	r6,r3,20032a4 <__fixdfsi+0x68>
 200325c:	01810744 	movi	r6,1053
 2003260:	30c00c16 	blt	r6,r3,2003294 <__fixdfsi+0x58>
 2003264:	01810cc4 	movi	r6,1075
 2003268:	30cdc83a 	sub	r6,r6,r3
 200326c:	01c007c4 	movi	r7,31
 2003270:	10800434 	orhi	r2,r2,16
 2003274:	39800d16 	blt	r7,r6,20032ac <__fixdfsi+0x70>
 2003278:	18fefb44 	addi	r3,r3,-1043
 200327c:	2188d83a 	srl	r4,r4,r6
 2003280:	10c4983a 	sll	r2,r2,r3
 2003284:	2084b03a 	or	r2,r4,r2
 2003288:	28000726 	beq	r5,zero,20032a8 <__fixdfsi+0x6c>
 200328c:	0085c83a 	sub	r2,zero,r2
 2003290:	f800283a 	ret
 2003294:	00a00034 	movhi	r2,32768
 2003298:	10bfffc4 	addi	r2,r2,-1
 200329c:	2885883a 	add	r2,r5,r2
 20032a0:	f800283a 	ret
 20032a4:	0005883a 	mov	r2,zero
 20032a8:	f800283a 	ret
 20032ac:	010104c4 	movi	r4,1043
 20032b0:	20c7c83a 	sub	r3,r4,r3
 20032b4:	10c4d83a 	srl	r2,r2,r3
 20032b8:	003ff306 	br	2003288 <__reset+0xfdffa288>

020032bc <__floatsidf>:
 20032bc:	defffd04 	addi	sp,sp,-12
 20032c0:	dc000015 	stw	r16,0(sp)
 20032c4:	dfc00215 	stw	ra,8(sp)
 20032c8:	dc400115 	stw	r17,4(sp)
 20032cc:	2021883a 	mov	r16,r4
 20032d0:	20002926 	beq	r4,zero,2003378 <__floatsidf+0xbc>
 20032d4:	2022d7fa 	srli	r17,r4,31
 20032d8:	88000126 	beq	r17,zero,20032e0 <__floatsidf+0x24>
 20032dc:	0121c83a 	sub	r16,zero,r4
 20032e0:	8009883a 	mov	r4,r16
 20032e4:	200338c0 	call	200338c <__clzsi2>
 20032e8:	01810784 	movi	r6,1054
 20032ec:	00c00284 	movi	r3,10
 20032f0:	308dc83a 	sub	r6,r6,r2
 20032f4:	1880150e 	bge	r3,r2,200334c <__floatsidf+0x90>
 20032f8:	113ffd44 	addi	r4,r2,-11
 20032fc:	8108983a 	sll	r4,r16,r4
 2003300:	00800434 	movhi	r2,16
 2003304:	10bfffc4 	addi	r2,r2,-1
 2003308:	3181ffcc 	andi	r6,r6,2047
 200330c:	2088703a 	and	r4,r4,r2
 2003310:	880b883a 	mov	r5,r17
 2003314:	0005883a 	mov	r2,zero
 2003318:	300c953a 	slli	r6,r6,20
 200331c:	29403fcc 	andi	r5,r5,255
 2003320:	280a97fa 	slli	r5,r5,31
 2003324:	00c00434 	movhi	r3,16
 2003328:	18ffffc4 	addi	r3,r3,-1
 200332c:	20c8703a 	and	r4,r4,r3
 2003330:	2186b03a 	or	r3,r4,r6
 2003334:	1946b03a 	or	r3,r3,r5
 2003338:	dfc00217 	ldw	ra,8(sp)
 200333c:	dc400117 	ldw	r17,4(sp)
 2003340:	dc000017 	ldw	r16,0(sp)
 2003344:	dec00304 	addi	sp,sp,12
 2003348:	f800283a 	ret
 200334c:	010002c4 	movi	r4,11
 2003350:	2089c83a 	sub	r4,r4,r2
 2003354:	8108d83a 	srl	r4,r16,r4
 2003358:	10800544 	addi	r2,r2,21
 200335c:	00c00434 	movhi	r3,16
 2003360:	18ffffc4 	addi	r3,r3,-1
 2003364:	8084983a 	sll	r2,r16,r2
 2003368:	20c8703a 	and	r4,r4,r3
 200336c:	3181ffcc 	andi	r6,r6,2047
 2003370:	880b883a 	mov	r5,r17
 2003374:	003fe806 	br	2003318 <__reset+0xfdffa318>
 2003378:	000b883a 	mov	r5,zero
 200337c:	000d883a 	mov	r6,zero
 2003380:	0009883a 	mov	r4,zero
 2003384:	0005883a 	mov	r2,zero
 2003388:	003fe306 	br	2003318 <__reset+0xfdffa318>

0200338c <__clzsi2>:
 200338c:	00bfffd4 	movui	r2,65535
 2003390:	11000b36 	bltu	r2,r4,20033c0 <__clzsi2+0x34>
 2003394:	00803fc4 	movi	r2,255
 2003398:	11001e2e 	bgeu	r2,r4,2003414 <__clzsi2+0x88>
 200339c:	00c00204 	movi	r3,8
 20033a0:	20c8d83a 	srl	r4,r4,r3
 20033a4:	00c08234 	movhi	r3,520
 20033a8:	18f5b404 	addi	r3,r3,-10544
 20033ac:	00800604 	movi	r2,24
 20033b0:	1909883a 	add	r4,r3,r4
 20033b4:	20c00003 	ldbu	r3,0(r4)
 20033b8:	10c5c83a 	sub	r2,r2,r3
 20033bc:	f800283a 	ret
 20033c0:	00804034 	movhi	r2,256
 20033c4:	10bfffc4 	addi	r2,r2,-1
 20033c8:	11000936 	bltu	r2,r4,20033f0 <__clzsi2+0x64>
 20033cc:	00800404 	movi	r2,16
 20033d0:	1007883a 	mov	r3,r2
 20033d4:	20c8d83a 	srl	r4,r4,r3
 20033d8:	00c08234 	movhi	r3,520
 20033dc:	18f5b404 	addi	r3,r3,-10544
 20033e0:	1909883a 	add	r4,r3,r4
 20033e4:	20c00003 	ldbu	r3,0(r4)
 20033e8:	10c5c83a 	sub	r2,r2,r3
 20033ec:	f800283a 	ret
 20033f0:	00c00604 	movi	r3,24
 20033f4:	20c8d83a 	srl	r4,r4,r3
 20033f8:	00c08234 	movhi	r3,520
 20033fc:	18f5b404 	addi	r3,r3,-10544
 2003400:	00800204 	movi	r2,8
 2003404:	1909883a 	add	r4,r3,r4
 2003408:	20c00003 	ldbu	r3,0(r4)
 200340c:	10c5c83a 	sub	r2,r2,r3
 2003410:	f800283a 	ret
 2003414:	0007883a 	mov	r3,zero
 2003418:	20c8d83a 	srl	r4,r4,r3
 200341c:	00c08234 	movhi	r3,520
 2003420:	18f5b404 	addi	r3,r3,-10544
 2003424:	00800804 	movi	r2,32
 2003428:	1909883a 	add	r4,r3,r4
 200342c:	20c00003 	ldbu	r3,0(r4)
 2003430:	10c5c83a 	sub	r2,r2,r3
 2003434:	f800283a 	ret

02003438 <__mulsi3>:
 2003438:	0005883a 	mov	r2,zero
 200343c:	20000726 	beq	r4,zero,200345c <__mulsi3+0x24>
 2003440:	20c0004c 	andi	r3,r4,1
 2003444:	2008d07a 	srli	r4,r4,1
 2003448:	18000126 	beq	r3,zero,2003450 <__mulsi3+0x18>
 200344c:	1145883a 	add	r2,r2,r5
 2003450:	294b883a 	add	r5,r5,r5
 2003454:	203ffa1e 	bne	r4,zero,2003440 <__reset+0xfdffa440>
 2003458:	f800283a 	ret
 200345c:	f800283a 	ret

02003460 <_getc_r>:
 2003460:	defffd04 	addi	sp,sp,-12
 2003464:	dc400115 	stw	r17,4(sp)
 2003468:	dc000015 	stw	r16,0(sp)
 200346c:	dfc00215 	stw	ra,8(sp)
 2003470:	2023883a 	mov	r17,r4
 2003474:	2821883a 	mov	r16,r5
 2003478:	20000226 	beq	r4,zero,2003484 <_getc_r+0x24>
 200347c:	20800e17 	ldw	r2,56(r4)
 2003480:	10001026 	beq	r2,zero,20034c4 <_getc_r+0x64>
 2003484:	2003ad40 	call	2003ad4 <__sfp_lock_acquire>
 2003488:	80800117 	ldw	r2,4(r16)
 200348c:	10bfffc4 	addi	r2,r2,-1
 2003490:	80800115 	stw	r2,4(r16)
 2003494:	10000d16 	blt	r2,zero,20034cc <_getc_r+0x6c>
 2003498:	80800017 	ldw	r2,0(r16)
 200349c:	10c00044 	addi	r3,r2,1
 20034a0:	80c00015 	stw	r3,0(r16)
 20034a4:	14000003 	ldbu	r16,0(r2)
 20034a8:	2003ad80 	call	2003ad8 <__sfp_lock_release>
 20034ac:	8005883a 	mov	r2,r16
 20034b0:	dfc00217 	ldw	ra,8(sp)
 20034b4:	dc400117 	ldw	r17,4(sp)
 20034b8:	dc000017 	ldw	r16,0(sp)
 20034bc:	dec00304 	addi	sp,sp,12
 20034c0:	f800283a 	ret
 20034c4:	200381c0 	call	200381c <__sinit>
 20034c8:	003fee06 	br	2003484 <__reset+0xfdffa484>
 20034cc:	800b883a 	mov	r5,r16
 20034d0:	8809883a 	mov	r4,r17
 20034d4:	200365c0 	call	200365c <__srget_r>
 20034d8:	1021883a 	mov	r16,r2
 20034dc:	003ff206 	br	20034a8 <__reset+0xfdffa4a8>

020034e0 <getc>:
 20034e0:	defffd04 	addi	sp,sp,-12
 20034e4:	dc400115 	stw	r17,4(sp)
 20034e8:	04408234 	movhi	r17,520
 20034ec:	8c7d1c04 	addi	r17,r17,-2960
 20034f0:	88800017 	ldw	r2,0(r17)
 20034f4:	dc000015 	stw	r16,0(sp)
 20034f8:	dfc00215 	stw	ra,8(sp)
 20034fc:	2021883a 	mov	r16,r4
 2003500:	10000226 	beq	r2,zero,200350c <getc+0x2c>
 2003504:	10c00e17 	ldw	r3,56(r2)
 2003508:	18001026 	beq	r3,zero,200354c <getc+0x6c>
 200350c:	2003ad40 	call	2003ad4 <__sfp_lock_acquire>
 2003510:	80800117 	ldw	r2,4(r16)
 2003514:	10bfffc4 	addi	r2,r2,-1
 2003518:	80800115 	stw	r2,4(r16)
 200351c:	10000e16 	blt	r2,zero,2003558 <getc+0x78>
 2003520:	80800017 	ldw	r2,0(r16)
 2003524:	10c00044 	addi	r3,r2,1
 2003528:	80c00015 	stw	r3,0(r16)
 200352c:	14000003 	ldbu	r16,0(r2)
 2003530:	2003ad80 	call	2003ad8 <__sfp_lock_release>
 2003534:	8005883a 	mov	r2,r16
 2003538:	dfc00217 	ldw	ra,8(sp)
 200353c:	dc400117 	ldw	r17,4(sp)
 2003540:	dc000017 	ldw	r16,0(sp)
 2003544:	dec00304 	addi	sp,sp,12
 2003548:	f800283a 	ret
 200354c:	1009883a 	mov	r4,r2
 2003550:	200381c0 	call	200381c <__sinit>
 2003554:	003fed06 	br	200350c <__reset+0xfdffa50c>
 2003558:	89000017 	ldw	r4,0(r17)
 200355c:	800b883a 	mov	r5,r16
 2003560:	200365c0 	call	200365c <__srget_r>
 2003564:	1021883a 	mov	r16,r2
 2003568:	003ff106 	br	2003530 <__reset+0xfdffa530>

0200356c <_putchar_r>:
 200356c:	21800217 	ldw	r6,8(r4)
 2003570:	2004d281 	jmpi	2004d28 <_putc_r>

02003574 <putchar>:
 2003574:	00808234 	movhi	r2,520
 2003578:	10bd1c04 	addi	r2,r2,-2960
 200357c:	10800017 	ldw	r2,0(r2)
 2003580:	200b883a 	mov	r5,r4
 2003584:	11800217 	ldw	r6,8(r2)
 2003588:	1009883a 	mov	r4,r2
 200358c:	2004d281 	jmpi	2004d28 <_putc_r>

02003590 <_puts_r>:
 2003590:	defff604 	addi	sp,sp,-40
 2003594:	dc400815 	stw	r17,32(sp)
 2003598:	2023883a 	mov	r17,r4
 200359c:	2809883a 	mov	r4,r5
 20035a0:	dc000715 	stw	r16,28(sp)
 20035a4:	dfc00915 	stw	ra,36(sp)
 20035a8:	2821883a 	mov	r16,r5
 20035ac:	20036e40 	call	20036e4 <strlen>
 20035b0:	00c08234 	movhi	r3,520
 20035b4:	18fd1c04 	addi	r3,r3,-2960
 20035b8:	18c00017 	ldw	r3,0(r3)
 20035bc:	11000044 	addi	r4,r2,1
 20035c0:	d8800115 	stw	r2,4(sp)
 20035c4:	18c00217 	ldw	r3,8(r3)
 20035c8:	00808234 	movhi	r2,520
 20035cc:	10b5f504 	addi	r2,r2,-10284
 20035d0:	d8800215 	stw	r2,8(sp)
 20035d4:	1940030b 	ldhu	r5,12(r3)
 20035d8:	00800044 	movi	r2,1
 20035dc:	d8800315 	stw	r2,12(sp)
 20035e0:	00800084 	movi	r2,2
 20035e4:	d8800515 	stw	r2,20(sp)
 20035e8:	dc000015 	stw	r16,0(sp)
 20035ec:	d9000615 	stw	r4,24(sp)
 20035f0:	dec00415 	stw	sp,16(sp)
 20035f4:	2888000c 	andi	r2,r5,8192
 20035f8:	1000061e 	bne	r2,zero,2003614 <_puts_r+0x84>
 20035fc:	19001917 	ldw	r4,100(r3)
 2003600:	00b7ffc4 	movi	r2,-8193
 2003604:	29480014 	ori	r5,r5,8192
 2003608:	2084703a 	and	r2,r4,r2
 200360c:	1940030d 	sth	r5,12(r3)
 2003610:	18801915 	stw	r2,100(r3)
 2003614:	89400217 	ldw	r5,8(r17)
 2003618:	8809883a 	mov	r4,r17
 200361c:	d9800404 	addi	r6,sp,16
 2003620:	2003b140 	call	2003b14 <__sfvwrite_r>
 2003624:	1000061e 	bne	r2,zero,2003640 <_puts_r+0xb0>
 2003628:	00800284 	movi	r2,10
 200362c:	dfc00917 	ldw	ra,36(sp)
 2003630:	dc400817 	ldw	r17,32(sp)
 2003634:	dc000717 	ldw	r16,28(sp)
 2003638:	dec00a04 	addi	sp,sp,40
 200363c:	f800283a 	ret
 2003640:	00bfffc4 	movi	r2,-1
 2003644:	003ff906 	br	200362c <__reset+0xfdffa62c>

02003648 <puts>:
 2003648:	00808234 	movhi	r2,520
 200364c:	10bd1c04 	addi	r2,r2,-2960
 2003650:	200b883a 	mov	r5,r4
 2003654:	11000017 	ldw	r4,0(r2)
 2003658:	20035901 	jmpi	2003590 <_puts_r>

0200365c <__srget_r>:
 200365c:	defffd04 	addi	sp,sp,-12
 2003660:	dc400115 	stw	r17,4(sp)
 2003664:	dc000015 	stw	r16,0(sp)
 2003668:	dfc00215 	stw	ra,8(sp)
 200366c:	2023883a 	mov	r17,r4
 2003670:	2821883a 	mov	r16,r5
 2003674:	20000226 	beq	r4,zero,2003680 <__srget_r+0x24>
 2003678:	20800e17 	ldw	r2,56(r4)
 200367c:	10001026 	beq	r2,zero,20036c0 <__srget_r+0x64>
 2003680:	8809883a 	mov	r4,r17
 2003684:	800b883a 	mov	r5,r16
 2003688:	20054140 	call	2005414 <__srefill_r>
 200368c:	10000e1e 	bne	r2,zero,20036c8 <__srget_r+0x6c>
 2003690:	80800017 	ldw	r2,0(r16)
 2003694:	81000117 	ldw	r4,4(r16)
 2003698:	10c00044 	addi	r3,r2,1
 200369c:	213fffc4 	addi	r4,r4,-1
 20036a0:	81000115 	stw	r4,4(r16)
 20036a4:	80c00015 	stw	r3,0(r16)
 20036a8:	10800003 	ldbu	r2,0(r2)
 20036ac:	dfc00217 	ldw	ra,8(sp)
 20036b0:	dc400117 	ldw	r17,4(sp)
 20036b4:	dc000017 	ldw	r16,0(sp)
 20036b8:	dec00304 	addi	sp,sp,12
 20036bc:	f800283a 	ret
 20036c0:	200381c0 	call	200381c <__sinit>
 20036c4:	003fee06 	br	2003680 <__reset+0xfdffa680>
 20036c8:	00bfffc4 	movi	r2,-1
 20036cc:	003ff706 	br	20036ac <__reset+0xfdffa6ac>

020036d0 <__srget>:
 20036d0:	00808234 	movhi	r2,520
 20036d4:	10bd1c04 	addi	r2,r2,-2960
 20036d8:	200b883a 	mov	r5,r4
 20036dc:	11000017 	ldw	r4,0(r2)
 20036e0:	200365c1 	jmpi	200365c <__srget_r>

020036e4 <strlen>:
 20036e4:	208000cc 	andi	r2,r4,3
 20036e8:	10001d26 	beq	r2,zero,2003760 <strlen+0x7c>
 20036ec:	20800007 	ldb	r2,0(r4)
 20036f0:	10001d26 	beq	r2,zero,2003768 <strlen+0x84>
 20036f4:	2005883a 	mov	r2,r4
 20036f8:	00000206 	br	2003704 <strlen+0x20>
 20036fc:	10c00007 	ldb	r3,0(r2)
 2003700:	18001526 	beq	r3,zero,2003758 <strlen+0x74>
 2003704:	10800044 	addi	r2,r2,1
 2003708:	10c000cc 	andi	r3,r2,3
 200370c:	183ffb1e 	bne	r3,zero,20036fc <__reset+0xfdffa6fc>
 2003710:	10c00017 	ldw	r3,0(r2)
 2003714:	01ffbff4 	movhi	r7,65279
 2003718:	39ffbfc4 	addi	r7,r7,-257
 200371c:	01a02074 	movhi	r6,32897
 2003720:	31a02004 	addi	r6,r6,-32640
 2003724:	00000206 	br	2003730 <strlen+0x4c>
 2003728:	10800104 	addi	r2,r2,4
 200372c:	10c00017 	ldw	r3,0(r2)
 2003730:	19cb883a 	add	r5,r3,r7
 2003734:	00c6303a 	nor	r3,zero,r3
 2003738:	28c6703a 	and	r3,r5,r3
 200373c:	1986703a 	and	r3,r3,r6
 2003740:	183ff926 	beq	r3,zero,2003728 <__reset+0xfdffa728>
 2003744:	10c00007 	ldb	r3,0(r2)
 2003748:	18000326 	beq	r3,zero,2003758 <strlen+0x74>
 200374c:	10800044 	addi	r2,r2,1
 2003750:	10c00007 	ldb	r3,0(r2)
 2003754:	183ffd1e 	bne	r3,zero,200374c <__reset+0xfdffa74c>
 2003758:	1105c83a 	sub	r2,r2,r4
 200375c:	f800283a 	ret
 2003760:	2005883a 	mov	r2,r4
 2003764:	003fea06 	br	2003710 <__reset+0xfdffa710>
 2003768:	0005883a 	mov	r2,zero
 200376c:	f800283a 	ret

02003770 <__fp_lock>:
 2003770:	0005883a 	mov	r2,zero
 2003774:	f800283a 	ret

02003778 <__fp_unlock>:
 2003778:	0005883a 	mov	r2,zero
 200377c:	f800283a 	ret

02003780 <_cleanup_r>:
 2003780:	01408034 	movhi	r5,512
 2003784:	29571604 	addi	r5,r5,23640
 2003788:	2003fc01 	jmpi	2003fc0 <_fwalk>

0200378c <__sfmoreglue>:
 200378c:	defffc04 	addi	sp,sp,-16
 2003790:	dc800215 	stw	r18,8(sp)
 2003794:	2825883a 	mov	r18,r5
 2003798:	dc000015 	stw	r16,0(sp)
 200379c:	01401a04 	movi	r5,104
 20037a0:	2021883a 	mov	r16,r4
 20037a4:	9009883a 	mov	r4,r18
 20037a8:	dfc00315 	stw	ra,12(sp)
 20037ac:	dc400115 	stw	r17,4(sp)
 20037b0:	20034380 	call	2003438 <__mulsi3>
 20037b4:	8009883a 	mov	r4,r16
 20037b8:	11400304 	addi	r5,r2,12
 20037bc:	1023883a 	mov	r17,r2
 20037c0:	20041200 	call	2004120 <_malloc_r>
 20037c4:	1021883a 	mov	r16,r2
 20037c8:	10000726 	beq	r2,zero,20037e8 <__sfmoreglue+0x5c>
 20037cc:	11000304 	addi	r4,r2,12
 20037d0:	10000015 	stw	zero,0(r2)
 20037d4:	14800115 	stw	r18,4(r2)
 20037d8:	11000215 	stw	r4,8(r2)
 20037dc:	000b883a 	mov	r5,zero
 20037e0:	880d883a 	mov	r6,r17
 20037e4:	2004c140 	call	2004c14 <memset>
 20037e8:	8005883a 	mov	r2,r16
 20037ec:	dfc00317 	ldw	ra,12(sp)
 20037f0:	dc800217 	ldw	r18,8(sp)
 20037f4:	dc400117 	ldw	r17,4(sp)
 20037f8:	dc000017 	ldw	r16,0(sp)
 20037fc:	dec00404 	addi	sp,sp,16
 2003800:	f800283a 	ret

02003804 <_cleanup>:
 2003804:	00808234 	movhi	r2,520
 2003808:	10bd1b04 	addi	r2,r2,-2964
 200380c:	11000017 	ldw	r4,0(r2)
 2003810:	01408034 	movhi	r5,512
 2003814:	29571604 	addi	r5,r5,23640
 2003818:	2003fc01 	jmpi	2003fc0 <_fwalk>

0200381c <__sinit>:
 200381c:	20800e17 	ldw	r2,56(r4)
 2003820:	defff704 	addi	sp,sp,-36
 2003824:	dc800215 	stw	r18,8(sp)
 2003828:	dfc00815 	stw	ra,32(sp)
 200382c:	ddc00715 	stw	r23,28(sp)
 2003830:	dd800615 	stw	r22,24(sp)
 2003834:	dd400515 	stw	r21,20(sp)
 2003838:	dd000415 	stw	r20,16(sp)
 200383c:	dcc00315 	stw	r19,12(sp)
 2003840:	dc400115 	stw	r17,4(sp)
 2003844:	dc000015 	stw	r16,0(sp)
 2003848:	2025883a 	mov	r18,r4
 200384c:	10004f1e 	bne	r2,zero,200398c <__sinit+0x170>
 2003850:	24000117 	ldw	r16,4(r4)
 2003854:	00c08034 	movhi	r3,512
 2003858:	18cde004 	addi	r3,r3,14208
 200385c:	20c00f15 	stw	r3,60(r4)
 2003860:	2080bb04 	addi	r2,r4,748
 2003864:	00c000c4 	movi	r3,3
 2003868:	05c00044 	movi	r23,1
 200386c:	20c0b915 	stw	r3,740(r4)
 2003870:	2080ba15 	stw	r2,744(r4)
 2003874:	25c00e15 	stw	r23,56(r4)
 2003878:	2000b815 	stw	zero,736(r4)
 200387c:	00800104 	movi	r2,4
 2003880:	81001704 	addi	r4,r16,92
 2003884:	000b883a 	mov	r5,zero
 2003888:	01800204 	movi	r6,8
 200388c:	80000015 	stw	zero,0(r16)
 2003890:	80000115 	stw	zero,4(r16)
 2003894:	80000215 	stw	zero,8(r16)
 2003898:	8080030d 	sth	r2,12(r16)
 200389c:	80001915 	stw	zero,100(r16)
 20038a0:	8000038d 	sth	zero,14(r16)
 20038a4:	80000415 	stw	zero,16(r16)
 20038a8:	80000515 	stw	zero,20(r16)
 20038ac:	80000615 	stw	zero,24(r16)
 20038b0:	2004c140 	call	2004c14 <memset>
 20038b4:	94400217 	ldw	r17,8(r18)
 20038b8:	05808034 	movhi	r22,512
 20038bc:	b5959404 	addi	r22,r22,22096
 20038c0:	05408034 	movhi	r21,512
 20038c4:	ad55ab04 	addi	r21,r21,22188
 20038c8:	05008034 	movhi	r20,512
 20038cc:	a515ca04 	addi	r20,r20,22312
 20038d0:	04c08034 	movhi	r19,512
 20038d4:	9cd5e104 	addi	r19,r19,22404
 20038d8:	84000715 	stw	r16,28(r16)
 20038dc:	85800815 	stw	r22,32(r16)
 20038e0:	85400915 	stw	r21,36(r16)
 20038e4:	85000a15 	stw	r20,40(r16)
 20038e8:	84c00b15 	stw	r19,44(r16)
 20038ec:	00800284 	movi	r2,10
 20038f0:	89001704 	addi	r4,r17,92
 20038f4:	000b883a 	mov	r5,zero
 20038f8:	01800204 	movi	r6,8
 20038fc:	88000015 	stw	zero,0(r17)
 2003900:	88000115 	stw	zero,4(r17)
 2003904:	88000215 	stw	zero,8(r17)
 2003908:	8880030d 	sth	r2,12(r17)
 200390c:	88001915 	stw	zero,100(r17)
 2003910:	8dc0038d 	sth	r23,14(r17)
 2003914:	88000415 	stw	zero,16(r17)
 2003918:	88000515 	stw	zero,20(r17)
 200391c:	88000615 	stw	zero,24(r17)
 2003920:	2004c140 	call	2004c14 <memset>
 2003924:	94000317 	ldw	r16,12(r18)
 2003928:	00800484 	movi	r2,18
 200392c:	8c400715 	stw	r17,28(r17)
 2003930:	8d800815 	stw	r22,32(r17)
 2003934:	8d400915 	stw	r21,36(r17)
 2003938:	8d000a15 	stw	r20,40(r17)
 200393c:	8cc00b15 	stw	r19,44(r17)
 2003940:	8080030d 	sth	r2,12(r16)
 2003944:	00800084 	movi	r2,2
 2003948:	80000015 	stw	zero,0(r16)
 200394c:	80000115 	stw	zero,4(r16)
 2003950:	80000215 	stw	zero,8(r16)
 2003954:	80001915 	stw	zero,100(r16)
 2003958:	8080038d 	sth	r2,14(r16)
 200395c:	80000415 	stw	zero,16(r16)
 2003960:	80000515 	stw	zero,20(r16)
 2003964:	80000615 	stw	zero,24(r16)
 2003968:	81001704 	addi	r4,r16,92
 200396c:	000b883a 	mov	r5,zero
 2003970:	01800204 	movi	r6,8
 2003974:	2004c140 	call	2004c14 <memset>
 2003978:	84000715 	stw	r16,28(r16)
 200397c:	85800815 	stw	r22,32(r16)
 2003980:	85400915 	stw	r21,36(r16)
 2003984:	85000a15 	stw	r20,40(r16)
 2003988:	84c00b15 	stw	r19,44(r16)
 200398c:	dfc00817 	ldw	ra,32(sp)
 2003990:	ddc00717 	ldw	r23,28(sp)
 2003994:	dd800617 	ldw	r22,24(sp)
 2003998:	dd400517 	ldw	r21,20(sp)
 200399c:	dd000417 	ldw	r20,16(sp)
 20039a0:	dcc00317 	ldw	r19,12(sp)
 20039a4:	dc800217 	ldw	r18,8(sp)
 20039a8:	dc400117 	ldw	r17,4(sp)
 20039ac:	dc000017 	ldw	r16,0(sp)
 20039b0:	dec00904 	addi	sp,sp,36
 20039b4:	f800283a 	ret

020039b8 <__sfp>:
 20039b8:	defffb04 	addi	sp,sp,-20
 20039bc:	00808234 	movhi	r2,520
 20039c0:	10bd1b04 	addi	r2,r2,-2964
 20039c4:	dc800215 	stw	r18,8(sp)
 20039c8:	14800017 	ldw	r18,0(r2)
 20039cc:	dcc00315 	stw	r19,12(sp)
 20039d0:	dfc00415 	stw	ra,16(sp)
 20039d4:	90800e17 	ldw	r2,56(r18)
 20039d8:	dc400115 	stw	r17,4(sp)
 20039dc:	dc000015 	stw	r16,0(sp)
 20039e0:	2027883a 	mov	r19,r4
 20039e4:	10002f26 	beq	r2,zero,2003aa4 <__sfp+0xec>
 20039e8:	9480b804 	addi	r18,r18,736
 20039ec:	047fffc4 	movi	r17,-1
 20039f0:	91400117 	ldw	r5,4(r18)
 20039f4:	94000217 	ldw	r16,8(r18)
 20039f8:	297fffc4 	addi	r5,r5,-1
 20039fc:	28000a16 	blt	r5,zero,2003a28 <__sfp+0x70>
 2003a00:	8080030f 	ldh	r2,12(r16)
 2003a04:	10000c26 	beq	r2,zero,2003a38 <__sfp+0x80>
 2003a08:	80c01d04 	addi	r3,r16,116
 2003a0c:	00000206 	br	2003a18 <__sfp+0x60>
 2003a10:	18bfe60f 	ldh	r2,-104(r3)
 2003a14:	10000826 	beq	r2,zero,2003a38 <__sfp+0x80>
 2003a18:	297fffc4 	addi	r5,r5,-1
 2003a1c:	1c3ffd04 	addi	r16,r3,-12
 2003a20:	18c01a04 	addi	r3,r3,104
 2003a24:	2c7ffa1e 	bne	r5,r17,2003a10 <__reset+0xfdffaa10>
 2003a28:	90800017 	ldw	r2,0(r18)
 2003a2c:	10002026 	beq	r2,zero,2003ab0 <__sfp+0xf8>
 2003a30:	1025883a 	mov	r18,r2
 2003a34:	003fee06 	br	20039f0 <__reset+0xfdffa9f0>
 2003a38:	00bfffc4 	movi	r2,-1
 2003a3c:	8080038d 	sth	r2,14(r16)
 2003a40:	00800044 	movi	r2,1
 2003a44:	8080030d 	sth	r2,12(r16)
 2003a48:	80001915 	stw	zero,100(r16)
 2003a4c:	80000015 	stw	zero,0(r16)
 2003a50:	80000215 	stw	zero,8(r16)
 2003a54:	80000115 	stw	zero,4(r16)
 2003a58:	80000415 	stw	zero,16(r16)
 2003a5c:	80000515 	stw	zero,20(r16)
 2003a60:	80000615 	stw	zero,24(r16)
 2003a64:	81001704 	addi	r4,r16,92
 2003a68:	000b883a 	mov	r5,zero
 2003a6c:	01800204 	movi	r6,8
 2003a70:	2004c140 	call	2004c14 <memset>
 2003a74:	8005883a 	mov	r2,r16
 2003a78:	80000c15 	stw	zero,48(r16)
 2003a7c:	80000d15 	stw	zero,52(r16)
 2003a80:	80001115 	stw	zero,68(r16)
 2003a84:	80001215 	stw	zero,72(r16)
 2003a88:	dfc00417 	ldw	ra,16(sp)
 2003a8c:	dcc00317 	ldw	r19,12(sp)
 2003a90:	dc800217 	ldw	r18,8(sp)
 2003a94:	dc400117 	ldw	r17,4(sp)
 2003a98:	dc000017 	ldw	r16,0(sp)
 2003a9c:	dec00504 	addi	sp,sp,20
 2003aa0:	f800283a 	ret
 2003aa4:	9009883a 	mov	r4,r18
 2003aa8:	200381c0 	call	200381c <__sinit>
 2003aac:	003fce06 	br	20039e8 <__reset+0xfdffa9e8>
 2003ab0:	9809883a 	mov	r4,r19
 2003ab4:	01400104 	movi	r5,4
 2003ab8:	200378c0 	call	200378c <__sfmoreglue>
 2003abc:	90800015 	stw	r2,0(r18)
 2003ac0:	103fdb1e 	bne	r2,zero,2003a30 <__reset+0xfdffaa30>
 2003ac4:	00800304 	movi	r2,12
 2003ac8:	98800015 	stw	r2,0(r19)
 2003acc:	0005883a 	mov	r2,zero
 2003ad0:	003fed06 	br	2003a88 <__reset+0xfdffaa88>

02003ad4 <__sfp_lock_acquire>:
 2003ad4:	f800283a 	ret

02003ad8 <__sfp_lock_release>:
 2003ad8:	f800283a 	ret

02003adc <__sinit_lock_acquire>:
 2003adc:	f800283a 	ret

02003ae0 <__sinit_lock_release>:
 2003ae0:	f800283a 	ret

02003ae4 <__fp_lock_all>:
 2003ae4:	00808234 	movhi	r2,520
 2003ae8:	10bd1c04 	addi	r2,r2,-2960
 2003aec:	11000017 	ldw	r4,0(r2)
 2003af0:	01408034 	movhi	r5,512
 2003af4:	294ddc04 	addi	r5,r5,14192
 2003af8:	2003fc01 	jmpi	2003fc0 <_fwalk>

02003afc <__fp_unlock_all>:
 2003afc:	00808234 	movhi	r2,520
 2003b00:	10bd1c04 	addi	r2,r2,-2960
 2003b04:	11000017 	ldw	r4,0(r2)
 2003b08:	01408034 	movhi	r5,512
 2003b0c:	294dde04 	addi	r5,r5,14200
 2003b10:	2003fc01 	jmpi	2003fc0 <_fwalk>

02003b14 <__sfvwrite_r>:
 2003b14:	30800217 	ldw	r2,8(r6)
 2003b18:	defff404 	addi	sp,sp,-48
 2003b1c:	dcc00515 	stw	r19,20(sp)
 2003b20:	dfc00b15 	stw	ra,44(sp)
 2003b24:	df000a15 	stw	fp,40(sp)
 2003b28:	ddc00915 	stw	r23,36(sp)
 2003b2c:	dd800815 	stw	r22,32(sp)
 2003b30:	dd400715 	stw	r21,28(sp)
 2003b34:	dd000615 	stw	r20,24(sp)
 2003b38:	dc800415 	stw	r18,16(sp)
 2003b3c:	dc400315 	stw	r17,12(sp)
 2003b40:	dc000215 	stw	r16,8(sp)
 2003b44:	3027883a 	mov	r19,r6
 2003b48:	10001d26 	beq	r2,zero,2003bc0 <__sfvwrite_r+0xac>
 2003b4c:	2880030b 	ldhu	r2,12(r5)
 2003b50:	202b883a 	mov	r21,r4
 2003b54:	2821883a 	mov	r16,r5
 2003b58:	10c0020c 	andi	r3,r2,8
 2003b5c:	18002526 	beq	r3,zero,2003bf4 <__sfvwrite_r+0xe0>
 2003b60:	28c00417 	ldw	r3,16(r5)
 2003b64:	18002326 	beq	r3,zero,2003bf4 <__sfvwrite_r+0xe0>
 2003b68:	10c0008c 	andi	r3,r2,2
 2003b6c:	9c400017 	ldw	r17,0(r19)
 2003b70:	18002826 	beq	r3,zero,2003c14 <__sfvwrite_r+0x100>
 2003b74:	0029883a 	mov	r20,zero
 2003b78:	0025883a 	mov	r18,zero
 2003b7c:	05810004 	movi	r22,1024
 2003b80:	a00d883a 	mov	r6,r20
 2003b84:	a809883a 	mov	r4,r21
 2003b88:	90004726 	beq	r18,zero,2003ca8 <__sfvwrite_r+0x194>
 2003b8c:	900f883a 	mov	r7,r18
 2003b90:	81400717 	ldw	r5,28(r16)
 2003b94:	b480012e 	bgeu	r22,r18,2003b9c <__sfvwrite_r+0x88>
 2003b98:	01c10004 	movi	r7,1024
 2003b9c:	80800917 	ldw	r2,36(r16)
 2003ba0:	103ee83a 	callr	r2
 2003ba4:	00804c0e 	bge	zero,r2,2003cd8 <__sfvwrite_r+0x1c4>
 2003ba8:	98c00217 	ldw	r3,8(r19)
 2003bac:	a0a9883a 	add	r20,r20,r2
 2003bb0:	90a5c83a 	sub	r18,r18,r2
 2003bb4:	1885c83a 	sub	r2,r3,r2
 2003bb8:	98800215 	stw	r2,8(r19)
 2003bbc:	103ff01e 	bne	r2,zero,2003b80 <__reset+0xfdffab80>
 2003bc0:	0005883a 	mov	r2,zero
 2003bc4:	dfc00b17 	ldw	ra,44(sp)
 2003bc8:	df000a17 	ldw	fp,40(sp)
 2003bcc:	ddc00917 	ldw	r23,36(sp)
 2003bd0:	dd800817 	ldw	r22,32(sp)
 2003bd4:	dd400717 	ldw	r21,28(sp)
 2003bd8:	dd000617 	ldw	r20,24(sp)
 2003bdc:	dcc00517 	ldw	r19,20(sp)
 2003be0:	dc800417 	ldw	r18,16(sp)
 2003be4:	dc400317 	ldw	r17,12(sp)
 2003be8:	dc000217 	ldw	r16,8(sp)
 2003bec:	dec00c04 	addi	sp,sp,48
 2003bf0:	f800283a 	ret
 2003bf4:	a809883a 	mov	r4,r21
 2003bf8:	800b883a 	mov	r5,r16
 2003bfc:	20059940 	call	2005994 <__swsetup_r>
 2003c00:	1000e81e 	bne	r2,zero,2003fa4 <__sfvwrite_r+0x490>
 2003c04:	8080030b 	ldhu	r2,12(r16)
 2003c08:	9c400017 	ldw	r17,0(r19)
 2003c0c:	10c0008c 	andi	r3,r2,2
 2003c10:	183fd81e 	bne	r3,zero,2003b74 <__reset+0xfdffab74>
 2003c14:	10c0004c 	andi	r3,r2,1
 2003c18:	002d883a 	mov	r22,zero
 2003c1c:	1800331e 	bne	r3,zero,2003cec <__sfvwrite_r+0x1d8>
 2003c20:	0025883a 	mov	r18,zero
 2003c24:	90001c26 	beq	r18,zero,2003c98 <__sfvwrite_r+0x184>
 2003c28:	10c0800c 	andi	r3,r2,512
 2003c2c:	85000217 	ldw	r20,8(r16)
 2003c30:	18006f26 	beq	r3,zero,2003df0 <__sfvwrite_r+0x2dc>
 2003c34:	95008936 	bltu	r18,r20,2003e5c <__sfvwrite_r+0x348>
 2003c38:	10c1200c 	andi	r3,r2,1152
 2003c3c:	1800a11e 	bne	r3,zero,2003ec4 <__sfvwrite_r+0x3b0>
 2003c40:	81000017 	ldw	r4,0(r16)
 2003c44:	a02f883a 	mov	r23,r20
 2003c48:	a039883a 	mov	fp,r20
 2003c4c:	9029883a 	mov	r20,r18
 2003c50:	b00b883a 	mov	r5,r22
 2003c54:	b80d883a 	mov	r6,r23
 2003c58:	2004ad80 	call	2004ad8 <memmove>
 2003c5c:	81400217 	ldw	r5,8(r16)
 2003c60:	81000017 	ldw	r4,0(r16)
 2003c64:	9005883a 	mov	r2,r18
 2003c68:	2f39c83a 	sub	fp,r5,fp
 2003c6c:	25c7883a 	add	r3,r4,r23
 2003c70:	87000215 	stw	fp,8(r16)
 2003c74:	80c00015 	stw	r3,0(r16)
 2003c78:	98c00217 	ldw	r3,8(r19)
 2003c7c:	b0ad883a 	add	r22,r22,r2
 2003c80:	90a5c83a 	sub	r18,r18,r2
 2003c84:	1d29c83a 	sub	r20,r3,r20
 2003c88:	9d000215 	stw	r20,8(r19)
 2003c8c:	a03fcc26 	beq	r20,zero,2003bc0 <__reset+0xfdffabc0>
 2003c90:	8080030b 	ldhu	r2,12(r16)
 2003c94:	903fe41e 	bne	r18,zero,2003c28 <__reset+0xfdffac28>
 2003c98:	8d800017 	ldw	r22,0(r17)
 2003c9c:	8c800117 	ldw	r18,4(r17)
 2003ca0:	8c400204 	addi	r17,r17,8
 2003ca4:	003fdf06 	br	2003c24 <__reset+0xfdffac24>
 2003ca8:	8d000017 	ldw	r20,0(r17)
 2003cac:	8c800117 	ldw	r18,4(r17)
 2003cb0:	8c400204 	addi	r17,r17,8
 2003cb4:	003fb206 	br	2003b80 <__reset+0xfdffab80>
 2003cb8:	2004e940 	call	2004e94 <_realloc_r>
 2003cbc:	1039883a 	mov	fp,r2
 2003cc0:	10009d1e 	bne	r2,zero,2003f38 <__sfvwrite_r+0x424>
 2003cc4:	81400417 	ldw	r5,16(r16)
 2003cc8:	a809883a 	mov	r4,r21
 2003ccc:	200601c0 	call	200601c <_free_r>
 2003cd0:	00800304 	movi	r2,12
 2003cd4:	a8800015 	stw	r2,0(r21)
 2003cd8:	80c0030b 	ldhu	r3,12(r16)
 2003cdc:	00bfffc4 	movi	r2,-1
 2003ce0:	18c01014 	ori	r3,r3,64
 2003ce4:	80c0030d 	sth	r3,12(r16)
 2003ce8:	003fb606 	br	2003bc4 <__reset+0xfdffabc4>
 2003cec:	0007883a 	mov	r3,zero
 2003cf0:	0039883a 	mov	fp,zero
 2003cf4:	0025883a 	mov	r18,zero
 2003cf8:	90001f26 	beq	r18,zero,2003d78 <__sfvwrite_r+0x264>
 2003cfc:	18006826 	beq	r3,zero,2003ea0 <__sfvwrite_r+0x38c>
 2003d00:	b02f883a 	mov	r23,r22
 2003d04:	9580012e 	bgeu	r18,r22,2003d0c <__sfvwrite_r+0x1f8>
 2003d08:	902f883a 	mov	r23,r18
 2003d0c:	81000017 	ldw	r4,0(r16)
 2003d10:	80800417 	ldw	r2,16(r16)
 2003d14:	b829883a 	mov	r20,r23
 2003d18:	81800217 	ldw	r6,8(r16)
 2003d1c:	81c00517 	ldw	r7,20(r16)
 2003d20:	1100022e 	bgeu	r2,r4,2003d2c <__sfvwrite_r+0x218>
 2003d24:	31d1883a 	add	r8,r6,r7
 2003d28:	45c01816 	blt	r8,r23,2003d8c <__sfvwrite_r+0x278>
 2003d2c:	b9c03f16 	blt	r23,r7,2003e2c <__sfvwrite_r+0x318>
 2003d30:	80800917 	ldw	r2,36(r16)
 2003d34:	81400717 	ldw	r5,28(r16)
 2003d38:	a809883a 	mov	r4,r21
 2003d3c:	d8c00115 	stw	r3,4(sp)
 2003d40:	e00d883a 	mov	r6,fp
 2003d44:	103ee83a 	callr	r2
 2003d48:	1029883a 	mov	r20,r2
 2003d4c:	d8c00117 	ldw	r3,4(sp)
 2003d50:	00bfe10e 	bge	zero,r2,2003cd8 <__reset+0xfdffacd8>
 2003d54:	b52dc83a 	sub	r22,r22,r20
 2003d58:	b0001f26 	beq	r22,zero,2003dd8 <__sfvwrite_r+0x2c4>
 2003d5c:	98800217 	ldw	r2,8(r19)
 2003d60:	e539883a 	add	fp,fp,r20
 2003d64:	9525c83a 	sub	r18,r18,r20
 2003d68:	1529c83a 	sub	r20,r2,r20
 2003d6c:	9d000215 	stw	r20,8(r19)
 2003d70:	a03f9326 	beq	r20,zero,2003bc0 <__reset+0xfdffabc0>
 2003d74:	903fe11e 	bne	r18,zero,2003cfc <__reset+0xfdffacfc>
 2003d78:	8f000017 	ldw	fp,0(r17)
 2003d7c:	8c800117 	ldw	r18,4(r17)
 2003d80:	0007883a 	mov	r3,zero
 2003d84:	8c400204 	addi	r17,r17,8
 2003d88:	003fdb06 	br	2003cf8 <__reset+0xfdffacf8>
 2003d8c:	400d883a 	mov	r6,r8
 2003d90:	e00b883a 	mov	r5,fp
 2003d94:	d8c00115 	stw	r3,4(sp)
 2003d98:	da000015 	stw	r8,0(sp)
 2003d9c:	2004ad80 	call	2004ad8 <memmove>
 2003da0:	da000017 	ldw	r8,0(sp)
 2003da4:	80800017 	ldw	r2,0(r16)
 2003da8:	a809883a 	mov	r4,r21
 2003dac:	800b883a 	mov	r5,r16
 2003db0:	1205883a 	add	r2,r2,r8
 2003db4:	80800015 	stw	r2,0(r16)
 2003db8:	da000015 	stw	r8,0(sp)
 2003dbc:	2005c6c0 	call	2005c6c <_fflush_r>
 2003dc0:	d8c00117 	ldw	r3,4(sp)
 2003dc4:	da000017 	ldw	r8,0(sp)
 2003dc8:	103fc31e 	bne	r2,zero,2003cd8 <__reset+0xfdffacd8>
 2003dcc:	4029883a 	mov	r20,r8
 2003dd0:	b52dc83a 	sub	r22,r22,r20
 2003dd4:	b03fe11e 	bne	r22,zero,2003d5c <__reset+0xfdffad5c>
 2003dd8:	a809883a 	mov	r4,r21
 2003ddc:	800b883a 	mov	r5,r16
 2003de0:	2005c6c0 	call	2005c6c <_fflush_r>
 2003de4:	103fbc1e 	bne	r2,zero,2003cd8 <__reset+0xfdffacd8>
 2003de8:	0007883a 	mov	r3,zero
 2003dec:	003fdb06 	br	2003d5c <__reset+0xfdffad5c>
 2003df0:	81000017 	ldw	r4,0(r16)
 2003df4:	80800417 	ldw	r2,16(r16)
 2003df8:	1100012e 	bgeu	r2,r4,2003e00 <__sfvwrite_r+0x2ec>
 2003dfc:	a4805836 	bltu	r20,r18,2003f60 <__sfvwrite_r+0x44c>
 2003e00:	81c00517 	ldw	r7,20(r16)
 2003e04:	91c01a36 	bltu	r18,r7,2003e70 <__sfvwrite_r+0x35c>
 2003e08:	80800917 	ldw	r2,36(r16)
 2003e0c:	81400717 	ldw	r5,28(r16)
 2003e10:	a809883a 	mov	r4,r21
 2003e14:	b00d883a 	mov	r6,r22
 2003e18:	103ee83a 	callr	r2
 2003e1c:	1029883a 	mov	r20,r2
 2003e20:	00bfad0e 	bge	zero,r2,2003cd8 <__reset+0xfdffacd8>
 2003e24:	a005883a 	mov	r2,r20
 2003e28:	003f9306 	br	2003c78 <__reset+0xfdffac78>
 2003e2c:	b80d883a 	mov	r6,r23
 2003e30:	e00b883a 	mov	r5,fp
 2003e34:	d8c00115 	stw	r3,4(sp)
 2003e38:	2004ad80 	call	2004ad8 <memmove>
 2003e3c:	80800217 	ldw	r2,8(r16)
 2003e40:	81000017 	ldw	r4,0(r16)
 2003e44:	d8c00117 	ldw	r3,4(sp)
 2003e48:	15c5c83a 	sub	r2,r2,r23
 2003e4c:	25ef883a 	add	r23,r4,r23
 2003e50:	80800215 	stw	r2,8(r16)
 2003e54:	85c00015 	stw	r23,0(r16)
 2003e58:	003fbe06 	br	2003d54 <__reset+0xfdffad54>
 2003e5c:	81000017 	ldw	r4,0(r16)
 2003e60:	9039883a 	mov	fp,r18
 2003e64:	9029883a 	mov	r20,r18
 2003e68:	902f883a 	mov	r23,r18
 2003e6c:	003f7806 	br	2003c50 <__reset+0xfdffac50>
 2003e70:	b00b883a 	mov	r5,r22
 2003e74:	900d883a 	mov	r6,r18
 2003e78:	2004ad80 	call	2004ad8 <memmove>
 2003e7c:	80c00217 	ldw	r3,8(r16)
 2003e80:	80800017 	ldw	r2,0(r16)
 2003e84:	9029883a 	mov	r20,r18
 2003e88:	1c87c83a 	sub	r3,r3,r18
 2003e8c:	1485883a 	add	r2,r2,r18
 2003e90:	80800015 	stw	r2,0(r16)
 2003e94:	80c00215 	stw	r3,8(r16)
 2003e98:	9005883a 	mov	r2,r18
 2003e9c:	003f7606 	br	2003c78 <__reset+0xfdffac78>
 2003ea0:	e009883a 	mov	r4,fp
 2003ea4:	01400284 	movi	r5,10
 2003ea8:	900d883a 	mov	r6,r18
 2003eac:	20048e40 	call	20048e4 <memchr>
 2003eb0:	10003926 	beq	r2,zero,2003f98 <__sfvwrite_r+0x484>
 2003eb4:	15800044 	addi	r22,r2,1
 2003eb8:	b72dc83a 	sub	r22,r22,fp
 2003ebc:	00c00044 	movi	r3,1
 2003ec0:	003f8f06 	br	2003d00 <__reset+0xfdffad00>
 2003ec4:	81000517 	ldw	r4,20(r16)
 2003ec8:	81400417 	ldw	r5,16(r16)
 2003ecc:	80c00017 	ldw	r3,0(r16)
 2003ed0:	210d883a 	add	r6,r4,r4
 2003ed4:	3109883a 	add	r4,r6,r4
 2003ed8:	2028d7fa 	srli	r20,r4,31
 2003edc:	196fc83a 	sub	r23,r3,r5
 2003ee0:	b9800044 	addi	r6,r23,1
 2003ee4:	a109883a 	add	r4,r20,r4
 2003ee8:	2029d07a 	srai	r20,r4,1
 2003eec:	348d883a 	add	r6,r6,r18
 2003ef0:	a180272e 	bgeu	r20,r6,2003f90 <__sfvwrite_r+0x47c>
 2003ef4:	3029883a 	mov	r20,r6
 2003ef8:	1081000c 	andi	r2,r2,1024
 2003efc:	a809883a 	mov	r4,r21
 2003f00:	103f6d26 	beq	r2,zero,2003cb8 <__reset+0xfdffacb8>
 2003f04:	300b883a 	mov	r5,r6
 2003f08:	20041200 	call	2004120 <_malloc_r>
 2003f0c:	1039883a 	mov	fp,r2
 2003f10:	103f6f26 	beq	r2,zero,2003cd0 <__reset+0xfdffacd0>
 2003f14:	81400417 	ldw	r5,16(r16)
 2003f18:	1009883a 	mov	r4,r2
 2003f1c:	b80d883a 	mov	r6,r23
 2003f20:	20049cc0 	call	20049cc <memcpy>
 2003f24:	8080030b 	ldhu	r2,12(r16)
 2003f28:	00fedfc4 	movi	r3,-1153
 2003f2c:	10c4703a 	and	r2,r2,r3
 2003f30:	10802014 	ori	r2,r2,128
 2003f34:	8080030d 	sth	r2,12(r16)
 2003f38:	e5c9883a 	add	r4,fp,r23
 2003f3c:	a5c7c83a 	sub	r3,r20,r23
 2003f40:	87000415 	stw	fp,16(r16)
 2003f44:	85000515 	stw	r20,20(r16)
 2003f48:	81000015 	stw	r4,0(r16)
 2003f4c:	9039883a 	mov	fp,r18
 2003f50:	80c00215 	stw	r3,8(r16)
 2003f54:	9029883a 	mov	r20,r18
 2003f58:	902f883a 	mov	r23,r18
 2003f5c:	003f3c06 	br	2003c50 <__reset+0xfdffac50>
 2003f60:	b00b883a 	mov	r5,r22
 2003f64:	a00d883a 	mov	r6,r20
 2003f68:	2004ad80 	call	2004ad8 <memmove>
 2003f6c:	80800017 	ldw	r2,0(r16)
 2003f70:	a809883a 	mov	r4,r21
 2003f74:	800b883a 	mov	r5,r16
 2003f78:	1505883a 	add	r2,r2,r20
 2003f7c:	80800015 	stw	r2,0(r16)
 2003f80:	2005c6c0 	call	2005c6c <_fflush_r>
 2003f84:	103f541e 	bne	r2,zero,2003cd8 <__reset+0xfdffacd8>
 2003f88:	a005883a 	mov	r2,r20
 2003f8c:	003f3a06 	br	2003c78 <__reset+0xfdffac78>
 2003f90:	a00d883a 	mov	r6,r20
 2003f94:	003fd806 	br	2003ef8 <__reset+0xfdffaef8>
 2003f98:	95800044 	addi	r22,r18,1
 2003f9c:	00c00044 	movi	r3,1
 2003fa0:	003f5706 	br	2003d00 <__reset+0xfdffad00>
 2003fa4:	80c0030b 	ldhu	r3,12(r16)
 2003fa8:	00bfffc4 	movi	r2,-1
 2003fac:	18c01014 	ori	r3,r3,64
 2003fb0:	80c0030d 	sth	r3,12(r16)
 2003fb4:	00c00244 	movi	r3,9
 2003fb8:	a8c00015 	stw	r3,0(r21)
 2003fbc:	003f0106 	br	2003bc4 <__reset+0xfdffabc4>

02003fc0 <_fwalk>:
 2003fc0:	defff904 	addi	sp,sp,-28
 2003fc4:	dcc00315 	stw	r19,12(sp)
 2003fc8:	24c0b804 	addi	r19,r4,736
 2003fcc:	dd400515 	stw	r21,20(sp)
 2003fd0:	dd000415 	stw	r20,16(sp)
 2003fd4:	dfc00615 	stw	ra,24(sp)
 2003fd8:	dc800215 	stw	r18,8(sp)
 2003fdc:	dc400115 	stw	r17,4(sp)
 2003fe0:	dc000015 	stw	r16,0(sp)
 2003fe4:	282b883a 	mov	r21,r5
 2003fe8:	0029883a 	mov	r20,zero
 2003fec:	2003ad40 	call	2003ad4 <__sfp_lock_acquire>
 2003ff0:	98001226 	beq	r19,zero,200403c <_fwalk+0x7c>
 2003ff4:	04bfffc4 	movi	r18,-1
 2003ff8:	9c400117 	ldw	r17,4(r19)
 2003ffc:	9c000217 	ldw	r16,8(r19)
 2004000:	8c7fffc4 	addi	r17,r17,-1
 2004004:	88000b16 	blt	r17,zero,2004034 <_fwalk+0x74>
 2004008:	84000304 	addi	r16,r16,12
 200400c:	80c0000f 	ldh	r3,0(r16)
 2004010:	8c7fffc4 	addi	r17,r17,-1
 2004014:	813ffd04 	addi	r4,r16,-12
 2004018:	18000426 	beq	r3,zero,200402c <_fwalk+0x6c>
 200401c:	80c0008f 	ldh	r3,2(r16)
 2004020:	1c800226 	beq	r3,r18,200402c <_fwalk+0x6c>
 2004024:	a83ee83a 	callr	r21
 2004028:	a0a8b03a 	or	r20,r20,r2
 200402c:	84001a04 	addi	r16,r16,104
 2004030:	8cbff61e 	bne	r17,r18,200400c <__reset+0xfdffb00c>
 2004034:	9cc00017 	ldw	r19,0(r19)
 2004038:	983fef1e 	bne	r19,zero,2003ff8 <__reset+0xfdffaff8>
 200403c:	2003ad80 	call	2003ad8 <__sfp_lock_release>
 2004040:	a005883a 	mov	r2,r20
 2004044:	dfc00617 	ldw	ra,24(sp)
 2004048:	dd400517 	ldw	r21,20(sp)
 200404c:	dd000417 	ldw	r20,16(sp)
 2004050:	dcc00317 	ldw	r19,12(sp)
 2004054:	dc800217 	ldw	r18,8(sp)
 2004058:	dc400117 	ldw	r17,4(sp)
 200405c:	dc000017 	ldw	r16,0(sp)
 2004060:	dec00704 	addi	sp,sp,28
 2004064:	f800283a 	ret

02004068 <_fwalk_reent>:
 2004068:	defff804 	addi	sp,sp,-32
 200406c:	dcc00315 	stw	r19,12(sp)
 2004070:	24c0b804 	addi	r19,r4,736
 2004074:	dd800615 	stw	r22,24(sp)
 2004078:	dd400515 	stw	r21,20(sp)
 200407c:	dd000415 	stw	r20,16(sp)
 2004080:	dfc00715 	stw	ra,28(sp)
 2004084:	dc800215 	stw	r18,8(sp)
 2004088:	dc400115 	stw	r17,4(sp)
 200408c:	dc000015 	stw	r16,0(sp)
 2004090:	2029883a 	mov	r20,r4
 2004094:	282b883a 	mov	r21,r5
 2004098:	002d883a 	mov	r22,zero
 200409c:	2003ad40 	call	2003ad4 <__sfp_lock_acquire>
 20040a0:	98001326 	beq	r19,zero,20040f0 <_fwalk_reent+0x88>
 20040a4:	04bfffc4 	movi	r18,-1
 20040a8:	9c400117 	ldw	r17,4(r19)
 20040ac:	9c000217 	ldw	r16,8(r19)
 20040b0:	8c7fffc4 	addi	r17,r17,-1
 20040b4:	88000c16 	blt	r17,zero,20040e8 <_fwalk_reent+0x80>
 20040b8:	84000304 	addi	r16,r16,12
 20040bc:	80c0000f 	ldh	r3,0(r16)
 20040c0:	8c7fffc4 	addi	r17,r17,-1
 20040c4:	817ffd04 	addi	r5,r16,-12
 20040c8:	18000526 	beq	r3,zero,20040e0 <_fwalk_reent+0x78>
 20040cc:	80c0008f 	ldh	r3,2(r16)
 20040d0:	a009883a 	mov	r4,r20
 20040d4:	1c800226 	beq	r3,r18,20040e0 <_fwalk_reent+0x78>
 20040d8:	a83ee83a 	callr	r21
 20040dc:	b0acb03a 	or	r22,r22,r2
 20040e0:	84001a04 	addi	r16,r16,104
 20040e4:	8cbff51e 	bne	r17,r18,20040bc <__reset+0xfdffb0bc>
 20040e8:	9cc00017 	ldw	r19,0(r19)
 20040ec:	983fee1e 	bne	r19,zero,20040a8 <__reset+0xfdffb0a8>
 20040f0:	2003ad80 	call	2003ad8 <__sfp_lock_release>
 20040f4:	b005883a 	mov	r2,r22
 20040f8:	dfc00717 	ldw	ra,28(sp)
 20040fc:	dd800617 	ldw	r22,24(sp)
 2004100:	dd400517 	ldw	r21,20(sp)
 2004104:	dd000417 	ldw	r20,16(sp)
 2004108:	dcc00317 	ldw	r19,12(sp)
 200410c:	dc800217 	ldw	r18,8(sp)
 2004110:	dc400117 	ldw	r17,4(sp)
 2004114:	dc000017 	ldw	r16,0(sp)
 2004118:	dec00804 	addi	sp,sp,32
 200411c:	f800283a 	ret

02004120 <_malloc_r>:
 2004120:	defff504 	addi	sp,sp,-44
 2004124:	dc800315 	stw	r18,12(sp)
 2004128:	dfc00a15 	stw	ra,40(sp)
 200412c:	df000915 	stw	fp,36(sp)
 2004130:	ddc00815 	stw	r23,32(sp)
 2004134:	dd800715 	stw	r22,28(sp)
 2004138:	dd400615 	stw	r21,24(sp)
 200413c:	dd000515 	stw	r20,20(sp)
 2004140:	dcc00415 	stw	r19,16(sp)
 2004144:	dc400215 	stw	r17,8(sp)
 2004148:	dc000115 	stw	r16,4(sp)
 200414c:	288002c4 	addi	r2,r5,11
 2004150:	00c00584 	movi	r3,22
 2004154:	2025883a 	mov	r18,r4
 2004158:	18802b2e 	bgeu	r3,r2,2004208 <_malloc_r+0xe8>
 200415c:	047ffe04 	movi	r17,-8
 2004160:	1462703a 	and	r17,r2,r17
 2004164:	88002a16 	blt	r17,zero,2004210 <_malloc_r+0xf0>
 2004168:	89402936 	bltu	r17,r5,2004210 <_malloc_r+0xf0>
 200416c:	9009883a 	mov	r4,r18
 2004170:	2006c6c0 	call	2006c6c <__malloc_lock>
 2004174:	00807dc4 	movi	r2,503
 2004178:	14402936 	bltu	r2,r17,2004220 <_malloc_r+0x100>
 200417c:	8808d0fa 	srli	r4,r17,3
 2004180:	04c08234 	movhi	r19,520
 2004184:	9cf73104 	addi	r19,r19,-9020
 2004188:	2105883a 	add	r2,r4,r4
 200418c:	1085883a 	add	r2,r2,r2
 2004190:	1085883a 	add	r2,r2,r2
 2004194:	9885883a 	add	r2,r19,r2
 2004198:	14000317 	ldw	r16,12(r2)
 200419c:	80815226 	beq	r16,r2,20046e8 <_malloc_r+0x5c8>
 20041a0:	81000117 	ldw	r4,4(r16)
 20041a4:	00bfff04 	movi	r2,-4
 20041a8:	80c00317 	ldw	r3,12(r16)
 20041ac:	2084703a 	and	r2,r4,r2
 20041b0:	8085883a 	add	r2,r16,r2
 20041b4:	81000217 	ldw	r4,8(r16)
 20041b8:	11400117 	ldw	r5,4(r2)
 20041bc:	20c00315 	stw	r3,12(r4)
 20041c0:	19000215 	stw	r4,8(r3)
 20041c4:	28c00054 	ori	r3,r5,1
 20041c8:	10c00115 	stw	r3,4(r2)
 20041cc:	9009883a 	mov	r4,r18
 20041d0:	2006c8c0 	call	2006c8c <__malloc_unlock>
 20041d4:	80800204 	addi	r2,r16,8
 20041d8:	dfc00a17 	ldw	ra,40(sp)
 20041dc:	df000917 	ldw	fp,36(sp)
 20041e0:	ddc00817 	ldw	r23,32(sp)
 20041e4:	dd800717 	ldw	r22,28(sp)
 20041e8:	dd400617 	ldw	r21,24(sp)
 20041ec:	dd000517 	ldw	r20,20(sp)
 20041f0:	dcc00417 	ldw	r19,16(sp)
 20041f4:	dc800317 	ldw	r18,12(sp)
 20041f8:	dc400217 	ldw	r17,8(sp)
 20041fc:	dc000117 	ldw	r16,4(sp)
 2004200:	dec00b04 	addi	sp,sp,44
 2004204:	f800283a 	ret
 2004208:	04400404 	movi	r17,16
 200420c:	897fd72e 	bgeu	r17,r5,200416c <__reset+0xfdffb16c>
 2004210:	00800304 	movi	r2,12
 2004214:	90800015 	stw	r2,0(r18)
 2004218:	0005883a 	mov	r2,zero
 200421c:	003fee06 	br	20041d8 <__reset+0xfdffb1d8>
 2004220:	8808d27a 	srli	r4,r17,9
 2004224:	20007126 	beq	r4,zero,20043ec <_malloc_r+0x2cc>
 2004228:	00800104 	movi	r2,4
 200422c:	1100f536 	bltu	r2,r4,2004604 <_malloc_r+0x4e4>
 2004230:	8808d1ba 	srli	r4,r17,6
 2004234:	21000e04 	addi	r4,r4,56
 2004238:	210b883a 	add	r5,r4,r4
 200423c:	294b883a 	add	r5,r5,r5
 2004240:	294b883a 	add	r5,r5,r5
 2004244:	04c08234 	movhi	r19,520
 2004248:	9cf73104 	addi	r19,r19,-9020
 200424c:	994b883a 	add	r5,r19,r5
 2004250:	2c000317 	ldw	r16,12(r5)
 2004254:	2c000e26 	beq	r5,r16,2004290 <_malloc_r+0x170>
 2004258:	80c00117 	ldw	r3,4(r16)
 200425c:	01ffff04 	movi	r7,-4
 2004260:	018003c4 	movi	r6,15
 2004264:	19c6703a 	and	r3,r3,r7
 2004268:	1c45c83a 	sub	r2,r3,r17
 200426c:	30800716 	blt	r6,r2,200428c <_malloc_r+0x16c>
 2004270:	1000610e 	bge	r2,zero,20043f8 <_malloc_r+0x2d8>
 2004274:	84000317 	ldw	r16,12(r16)
 2004278:	2c000526 	beq	r5,r16,2004290 <_malloc_r+0x170>
 200427c:	80c00117 	ldw	r3,4(r16)
 2004280:	19c6703a 	and	r3,r3,r7
 2004284:	1c45c83a 	sub	r2,r3,r17
 2004288:	30bff90e 	bge	r6,r2,2004270 <__reset+0xfdffb270>
 200428c:	213fffc4 	addi	r4,r4,-1
 2004290:	21000044 	addi	r4,r4,1
 2004294:	9c000417 	ldw	r16,16(r19)
 2004298:	00c08234 	movhi	r3,520
 200429c:	18f73104 	addi	r3,r3,-9020
 20042a0:	1a400204 	addi	r9,r3,8
 20042a4:	82410926 	beq	r16,r9,20046cc <_malloc_r+0x5ac>
 20042a8:	81400117 	ldw	r5,4(r16)
 20042ac:	00bfff04 	movi	r2,-4
 20042b0:	018003c4 	movi	r6,15
 20042b4:	2884703a 	and	r2,r5,r2
 20042b8:	144bc83a 	sub	r5,r2,r17
 20042bc:	3140f416 	blt	r6,r5,2004690 <_malloc_r+0x570>
 20042c0:	1a400515 	stw	r9,20(r3)
 20042c4:	1a400415 	stw	r9,16(r3)
 20042c8:	2800570e 	bge	r5,zero,2004428 <_malloc_r+0x308>
 20042cc:	01407fc4 	movi	r5,511
 20042d0:	2880d436 	bltu	r5,r2,2004624 <_malloc_r+0x504>
 20042d4:	1004d0fa 	srli	r2,r2,3
 20042d8:	02000044 	movi	r8,1
 20042dc:	19c00117 	ldw	r7,4(r3)
 20042e0:	108b883a 	add	r5,r2,r2
 20042e4:	294b883a 	add	r5,r5,r5
 20042e8:	1005d0ba 	srai	r2,r2,2
 20042ec:	294b883a 	add	r5,r5,r5
 20042f0:	28cb883a 	add	r5,r5,r3
 20042f4:	29800217 	ldw	r6,8(r5)
 20042f8:	4084983a 	sll	r2,r8,r2
 20042fc:	81400315 	stw	r5,12(r16)
 2004300:	81800215 	stw	r6,8(r16)
 2004304:	11c4b03a 	or	r2,r2,r7
 2004308:	2c000215 	stw	r16,8(r5)
 200430c:	18800115 	stw	r2,4(r3)
 2004310:	34000315 	stw	r16,12(r6)
 2004314:	2007d0ba 	srai	r3,r4,2
 2004318:	01400044 	movi	r5,1
 200431c:	28ca983a 	sll	r5,r5,r3
 2004320:	11404936 	bltu	r2,r5,2004448 <_malloc_r+0x328>
 2004324:	1146703a 	and	r3,r2,r5
 2004328:	18000a1e 	bne	r3,zero,2004354 <_malloc_r+0x234>
 200432c:	00ffff04 	movi	r3,-4
 2004330:	294b883a 	add	r5,r5,r5
 2004334:	20c8703a 	and	r4,r4,r3
 2004338:	1146703a 	and	r3,r2,r5
 200433c:	21000104 	addi	r4,r4,4
 2004340:	1800041e 	bne	r3,zero,2004354 <_malloc_r+0x234>
 2004344:	294b883a 	add	r5,r5,r5
 2004348:	1146703a 	and	r3,r2,r5
 200434c:	21000104 	addi	r4,r4,4
 2004350:	183ffc26 	beq	r3,zero,2004344 <__reset+0xfdffb344>
 2004354:	023fff04 	movi	r8,-4
 2004358:	01c003c4 	movi	r7,15
 200435c:	2105883a 	add	r2,r4,r4
 2004360:	1085883a 	add	r2,r2,r2
 2004364:	1085883a 	add	r2,r2,r2
 2004368:	9897883a 	add	r11,r19,r2
 200436c:	5a800304 	addi	r10,r11,12
 2004370:	2019883a 	mov	r12,r4
 2004374:	54000017 	ldw	r16,0(r10)
 2004378:	51bffd04 	addi	r6,r10,-12
 200437c:	8180041e 	bne	r16,r6,2004390 <_malloc_r+0x270>
 2004380:	0000d406 	br	20046d4 <_malloc_r+0x5b4>
 2004384:	1000dd0e 	bge	r2,zero,20046fc <_malloc_r+0x5dc>
 2004388:	84000317 	ldw	r16,12(r16)
 200438c:	8180d126 	beq	r16,r6,20046d4 <_malloc_r+0x5b4>
 2004390:	80c00117 	ldw	r3,4(r16)
 2004394:	1a06703a 	and	r3,r3,r8
 2004398:	1c45c83a 	sub	r2,r3,r17
 200439c:	38bff90e 	bge	r7,r2,2004384 <__reset+0xfdffb384>
 20043a0:	80c00317 	ldw	r3,12(r16)
 20043a4:	81000217 	ldw	r4,8(r16)
 20043a8:	89400054 	ori	r5,r17,1
 20043ac:	81400115 	stw	r5,4(r16)
 20043b0:	20c00315 	stw	r3,12(r4)
 20043b4:	19000215 	stw	r4,8(r3)
 20043b8:	8463883a 	add	r17,r16,r17
 20043bc:	9c400515 	stw	r17,20(r19)
 20043c0:	9c400415 	stw	r17,16(r19)
 20043c4:	10c00054 	ori	r3,r2,1
 20043c8:	8a400315 	stw	r9,12(r17)
 20043cc:	8a400215 	stw	r9,8(r17)
 20043d0:	88c00115 	stw	r3,4(r17)
 20043d4:	88a3883a 	add	r17,r17,r2
 20043d8:	88800015 	stw	r2,0(r17)
 20043dc:	9009883a 	mov	r4,r18
 20043e0:	2006c8c0 	call	2006c8c <__malloc_unlock>
 20043e4:	80800204 	addi	r2,r16,8
 20043e8:	003f7b06 	br	20041d8 <__reset+0xfdffb1d8>
 20043ec:	01401f84 	movi	r5,126
 20043f0:	01000fc4 	movi	r4,63
 20043f4:	003f9106 	br	200423c <__reset+0xfdffb23c>
 20043f8:	80800317 	ldw	r2,12(r16)
 20043fc:	81000217 	ldw	r4,8(r16)
 2004400:	80c7883a 	add	r3,r16,r3
 2004404:	19400117 	ldw	r5,4(r3)
 2004408:	20800315 	stw	r2,12(r4)
 200440c:	11000215 	stw	r4,8(r2)
 2004410:	28800054 	ori	r2,r5,1
 2004414:	18800115 	stw	r2,4(r3)
 2004418:	9009883a 	mov	r4,r18
 200441c:	2006c8c0 	call	2006c8c <__malloc_unlock>
 2004420:	80800204 	addi	r2,r16,8
 2004424:	003f6c06 	br	20041d8 <__reset+0xfdffb1d8>
 2004428:	8085883a 	add	r2,r16,r2
 200442c:	10c00117 	ldw	r3,4(r2)
 2004430:	9009883a 	mov	r4,r18
 2004434:	18c00054 	ori	r3,r3,1
 2004438:	10c00115 	stw	r3,4(r2)
 200443c:	2006c8c0 	call	2006c8c <__malloc_unlock>
 2004440:	80800204 	addi	r2,r16,8
 2004444:	003f6406 	br	20041d8 <__reset+0xfdffb1d8>
 2004448:	9c000217 	ldw	r16,8(r19)
 200444c:	00bfff04 	movi	r2,-4
 2004450:	85400117 	ldw	r21,4(r16)
 2004454:	a8aa703a 	and	r21,r21,r2
 2004458:	ac400336 	bltu	r21,r17,2004468 <_malloc_r+0x348>
 200445c:	ac45c83a 	sub	r2,r21,r17
 2004460:	00c003c4 	movi	r3,15
 2004464:	18805d16 	blt	r3,r2,20045dc <_malloc_r+0x4bc>
 2004468:	00808234 	movhi	r2,520
 200446c:	10bd3004 	addi	r2,r2,-2880
 2004470:	00c08234 	movhi	r3,520
 2004474:	18fd1d04 	addi	r3,r3,-2956
 2004478:	15c00017 	ldw	r23,0(r2)
 200447c:	19000017 	ldw	r4,0(r3)
 2004480:	00bfffc4 	movi	r2,-1
 2004484:	8579883a 	add	fp,r16,r21
 2004488:	8def883a 	add	r23,r17,r23
 200448c:	2080e426 	beq	r4,r2,2004820 <_malloc_r+0x700>
 2004490:	bdc403c4 	addi	r23,r23,4111
 2004494:	00bc0004 	movi	r2,-4096
 2004498:	b8ae703a 	and	r23,r23,r2
 200449c:	9009883a 	mov	r4,r18
 20044a0:	b80b883a 	mov	r5,r23
 20044a4:	d8c00015 	stw	r3,0(sp)
 20044a8:	20055ec0 	call	20055ec <_sbrk_r>
 20044ac:	1029883a 	mov	r20,r2
 20044b0:	00bfffc4 	movi	r2,-1
 20044b4:	d8c00017 	ldw	r3,0(sp)
 20044b8:	a080a426 	beq	r20,r2,200474c <_malloc_r+0x62c>
 20044bc:	a700a236 	bltu	r20,fp,2004748 <_malloc_r+0x628>
 20044c0:	05808234 	movhi	r22,520
 20044c4:	b5bd3f04 	addi	r22,r22,-2820
 20044c8:	b0800017 	ldw	r2,0(r22)
 20044cc:	b885883a 	add	r2,r23,r2
 20044d0:	b0800015 	stw	r2,0(r22)
 20044d4:	e500da26 	beq	fp,r20,2004840 <_malloc_r+0x720>
 20044d8:	19000017 	ldw	r4,0(r3)
 20044dc:	00ffffc4 	movi	r3,-1
 20044e0:	20c0e426 	beq	r4,r3,2004874 <_malloc_r+0x754>
 20044e4:	a739c83a 	sub	fp,r20,fp
 20044e8:	1705883a 	add	r2,r2,fp
 20044ec:	b0800015 	stw	r2,0(r22)
 20044f0:	a08001cc 	andi	r2,r20,7
 20044f4:	1000b526 	beq	r2,zero,20047cc <_malloc_r+0x6ac>
 20044f8:	a0a9c83a 	sub	r20,r20,r2
 20044fc:	00c40204 	movi	r3,4104
 2004500:	a5000204 	addi	r20,r20,8
 2004504:	1885c83a 	sub	r2,r3,r2
 2004508:	a5c7883a 	add	r3,r20,r23
 200450c:	18c3ffcc 	andi	r3,r3,4095
 2004510:	10efc83a 	sub	r23,r2,r3
 2004514:	9009883a 	mov	r4,r18
 2004518:	b80b883a 	mov	r5,r23
 200451c:	20055ec0 	call	20055ec <_sbrk_r>
 2004520:	00ffffc4 	movi	r3,-1
 2004524:	10c0d026 	beq	r2,r3,2004868 <_malloc_r+0x748>
 2004528:	1505c83a 	sub	r2,r2,r20
 200452c:	b887883a 	add	r3,r23,r2
 2004530:	18c00054 	ori	r3,r3,1
 2004534:	b0800017 	ldw	r2,0(r22)
 2004538:	9d000215 	stw	r20,8(r19)
 200453c:	a0c00115 	stw	r3,4(r20)
 2004540:	b885883a 	add	r2,r23,r2
 2004544:	b0800015 	stw	r2,0(r22)
 2004548:	84c00e26 	beq	r16,r19,2004584 <_malloc_r+0x464>
 200454c:	00c003c4 	movi	r3,15
 2004550:	1d40a02e 	bgeu	r3,r21,20047d4 <_malloc_r+0x6b4>
 2004554:	81400117 	ldw	r5,4(r16)
 2004558:	ad7ffd04 	addi	r21,r21,-12
 200455c:	013ffe04 	movi	r4,-8
 2004560:	a908703a 	and	r4,r21,r4
 2004564:	2940004c 	andi	r5,r5,1
 2004568:	214ab03a 	or	r5,r4,r5
 200456c:	81400115 	stw	r5,4(r16)
 2004570:	01800144 	movi	r6,5
 2004574:	810b883a 	add	r5,r16,r4
 2004578:	29800115 	stw	r6,4(r5)
 200457c:	29800215 	stw	r6,8(r5)
 2004580:	1900c036 	bltu	r3,r4,2004884 <_malloc_r+0x764>
 2004584:	00c08234 	movhi	r3,520
 2004588:	18fd2f04 	addi	r3,r3,-2884
 200458c:	19000017 	ldw	r4,0(r3)
 2004590:	2080012e 	bgeu	r4,r2,2004598 <_malloc_r+0x478>
 2004594:	18800015 	stw	r2,0(r3)
 2004598:	00c08234 	movhi	r3,520
 200459c:	18fd2e04 	addi	r3,r3,-2888
 20045a0:	19000017 	ldw	r4,0(r3)
 20045a4:	9c000217 	ldw	r16,8(r19)
 20045a8:	2080012e 	bgeu	r4,r2,20045b0 <_malloc_r+0x490>
 20045ac:	18800015 	stw	r2,0(r3)
 20045b0:	80c00117 	ldw	r3,4(r16)
 20045b4:	00bfff04 	movi	r2,-4
 20045b8:	1886703a 	and	r3,r3,r2
 20045bc:	1c45c83a 	sub	r2,r3,r17
 20045c0:	1c400236 	bltu	r3,r17,20045cc <_malloc_r+0x4ac>
 20045c4:	00c003c4 	movi	r3,15
 20045c8:	18800416 	blt	r3,r2,20045dc <_malloc_r+0x4bc>
 20045cc:	9009883a 	mov	r4,r18
 20045d0:	2006c8c0 	call	2006c8c <__malloc_unlock>
 20045d4:	0005883a 	mov	r2,zero
 20045d8:	003eff06 	br	20041d8 <__reset+0xfdffb1d8>
 20045dc:	88c00054 	ori	r3,r17,1
 20045e0:	80c00115 	stw	r3,4(r16)
 20045e4:	8463883a 	add	r17,r16,r17
 20045e8:	10800054 	ori	r2,r2,1
 20045ec:	9c400215 	stw	r17,8(r19)
 20045f0:	88800115 	stw	r2,4(r17)
 20045f4:	9009883a 	mov	r4,r18
 20045f8:	2006c8c0 	call	2006c8c <__malloc_unlock>
 20045fc:	80800204 	addi	r2,r16,8
 2004600:	003ef506 	br	20041d8 <__reset+0xfdffb1d8>
 2004604:	00800504 	movi	r2,20
 2004608:	1100482e 	bgeu	r2,r4,200472c <_malloc_r+0x60c>
 200460c:	00801504 	movi	r2,84
 2004610:	11006836 	bltu	r2,r4,20047b4 <_malloc_r+0x694>
 2004614:	8808d33a 	srli	r4,r17,12
 2004618:	21001b84 	addi	r4,r4,110
 200461c:	210b883a 	add	r5,r4,r4
 2004620:	003f0606 	br	200423c <__reset+0xfdffb23c>
 2004624:	1006d27a 	srli	r3,r2,9
 2004628:	01400104 	movi	r5,4
 200462c:	28c0422e 	bgeu	r5,r3,2004738 <_malloc_r+0x618>
 2004630:	01400504 	movi	r5,20
 2004634:	28c07c36 	bltu	r5,r3,2004828 <_malloc_r+0x708>
 2004638:	194016c4 	addi	r5,r3,91
 200463c:	294d883a 	add	r6,r5,r5
 2004640:	318d883a 	add	r6,r6,r6
 2004644:	318d883a 	add	r6,r6,r6
 2004648:	998d883a 	add	r6,r19,r6
 200464c:	30c00217 	ldw	r3,8(r6)
 2004650:	01c08234 	movhi	r7,520
 2004654:	39f73104 	addi	r7,r7,-9020
 2004658:	19806326 	beq	r3,r6,20047e8 <_malloc_r+0x6c8>
 200465c:	01ffff04 	movi	r7,-4
 2004660:	19400117 	ldw	r5,4(r3)
 2004664:	29ca703a 	and	r5,r5,r7
 2004668:	1140022e 	bgeu	r2,r5,2004674 <_malloc_r+0x554>
 200466c:	18c00217 	ldw	r3,8(r3)
 2004670:	30fffb1e 	bne	r6,r3,2004660 <__reset+0xfdffb660>
 2004674:	19400317 	ldw	r5,12(r3)
 2004678:	98800117 	ldw	r2,4(r19)
 200467c:	81400315 	stw	r5,12(r16)
 2004680:	80c00215 	stw	r3,8(r16)
 2004684:	2c000215 	stw	r16,8(r5)
 2004688:	1c000315 	stw	r16,12(r3)
 200468c:	003f2106 	br	2004314 <__reset+0xfdffb314>
 2004690:	88800054 	ori	r2,r17,1
 2004694:	80800115 	stw	r2,4(r16)
 2004698:	8463883a 	add	r17,r16,r17
 200469c:	1c400515 	stw	r17,20(r3)
 20046a0:	1c400415 	stw	r17,16(r3)
 20046a4:	28800054 	ori	r2,r5,1
 20046a8:	88800115 	stw	r2,4(r17)
 20046ac:	8a400315 	stw	r9,12(r17)
 20046b0:	8a400215 	stw	r9,8(r17)
 20046b4:	8963883a 	add	r17,r17,r5
 20046b8:	89400015 	stw	r5,0(r17)
 20046bc:	9009883a 	mov	r4,r18
 20046c0:	2006c8c0 	call	2006c8c <__malloc_unlock>
 20046c4:	80800204 	addi	r2,r16,8
 20046c8:	003ec306 	br	20041d8 <__reset+0xfdffb1d8>
 20046cc:	18800117 	ldw	r2,4(r3)
 20046d0:	003f1006 	br	2004314 <__reset+0xfdffb314>
 20046d4:	63000044 	addi	r12,r12,1
 20046d8:	608000cc 	andi	r2,r12,3
 20046dc:	52800204 	addi	r10,r10,8
 20046e0:	103f241e 	bne	r2,zero,2004374 <__reset+0xfdffb374>
 20046e4:	00002106 	br	200476c <_malloc_r+0x64c>
 20046e8:	80800204 	addi	r2,r16,8
 20046ec:	84000517 	ldw	r16,20(r16)
 20046f0:	143eab1e 	bne	r2,r16,20041a0 <__reset+0xfdffb1a0>
 20046f4:	21000084 	addi	r4,r4,2
 20046f8:	003ee606 	br	2004294 <__reset+0xfdffb294>
 20046fc:	80c7883a 	add	r3,r16,r3
 2004700:	19400117 	ldw	r5,4(r3)
 2004704:	80800317 	ldw	r2,12(r16)
 2004708:	81000217 	ldw	r4,8(r16)
 200470c:	29400054 	ori	r5,r5,1
 2004710:	19400115 	stw	r5,4(r3)
 2004714:	20800315 	stw	r2,12(r4)
 2004718:	11000215 	stw	r4,8(r2)
 200471c:	9009883a 	mov	r4,r18
 2004720:	2006c8c0 	call	2006c8c <__malloc_unlock>
 2004724:	80800204 	addi	r2,r16,8
 2004728:	003eab06 	br	20041d8 <__reset+0xfdffb1d8>
 200472c:	210016c4 	addi	r4,r4,91
 2004730:	210b883a 	add	r5,r4,r4
 2004734:	003ec106 	br	200423c <__reset+0xfdffb23c>
 2004738:	100ad1ba 	srli	r5,r2,6
 200473c:	29400e04 	addi	r5,r5,56
 2004740:	294d883a 	add	r6,r5,r5
 2004744:	003fbe06 	br	2004640 <__reset+0xfdffb640>
 2004748:	84ff5d26 	beq	r16,r19,20044c0 <__reset+0xfdffb4c0>
 200474c:	9c000217 	ldw	r16,8(r19)
 2004750:	00bfff04 	movi	r2,-4
 2004754:	80c00117 	ldw	r3,4(r16)
 2004758:	1886703a 	and	r3,r3,r2
 200475c:	003f9706 	br	20045bc <__reset+0xfdffb5bc>
 2004760:	5ac00017 	ldw	r11,0(r11)
 2004764:	213fffc4 	addi	r4,r4,-1
 2004768:	58805c1e 	bne	r11,r2,20048dc <_malloc_r+0x7bc>
 200476c:	20c000cc 	andi	r3,r4,3
 2004770:	58bffe04 	addi	r2,r11,-8
 2004774:	183ffa1e 	bne	r3,zero,2004760 <__reset+0xfdffb760>
 2004778:	98800117 	ldw	r2,4(r19)
 200477c:	0146303a 	nor	r3,zero,r5
 2004780:	1884703a 	and	r2,r3,r2
 2004784:	98800115 	stw	r2,4(r19)
 2004788:	294b883a 	add	r5,r5,r5
 200478c:	117f2e36 	bltu	r2,r5,2004448 <__reset+0xfdffb448>
 2004790:	283f2d26 	beq	r5,zero,2004448 <__reset+0xfdffb448>
 2004794:	1146703a 	and	r3,r2,r5
 2004798:	6009883a 	mov	r4,r12
 200479c:	183eef1e 	bne	r3,zero,200435c <__reset+0xfdffb35c>
 20047a0:	294b883a 	add	r5,r5,r5
 20047a4:	1146703a 	and	r3,r2,r5
 20047a8:	21000104 	addi	r4,r4,4
 20047ac:	183ffc26 	beq	r3,zero,20047a0 <__reset+0xfdffb7a0>
 20047b0:	003eea06 	br	200435c <__reset+0xfdffb35c>
 20047b4:	00805504 	movi	r2,340
 20047b8:	11001336 	bltu	r2,r4,2004808 <_malloc_r+0x6e8>
 20047bc:	8808d3fa 	srli	r4,r17,15
 20047c0:	21001dc4 	addi	r4,r4,119
 20047c4:	210b883a 	add	r5,r4,r4
 20047c8:	003e9c06 	br	200423c <__reset+0xfdffb23c>
 20047cc:	00840004 	movi	r2,4096
 20047d0:	003f4d06 	br	2004508 <__reset+0xfdffb508>
 20047d4:	00800044 	movi	r2,1
 20047d8:	a0800115 	stw	r2,4(r20)
 20047dc:	a021883a 	mov	r16,r20
 20047e0:	0007883a 	mov	r3,zero
 20047e4:	003f7506 	br	20045bc <__reset+0xfdffb5bc>
 20047e8:	280bd0ba 	srai	r5,r5,2
 20047ec:	01800044 	movi	r6,1
 20047f0:	38800117 	ldw	r2,4(r7)
 20047f4:	314c983a 	sll	r6,r6,r5
 20047f8:	180b883a 	mov	r5,r3
 20047fc:	3084b03a 	or	r2,r6,r2
 2004800:	38800115 	stw	r2,4(r7)
 2004804:	003f9d06 	br	200467c <__reset+0xfdffb67c>
 2004808:	00815504 	movi	r2,1364
 200480c:	11001336 	bltu	r2,r4,200485c <_malloc_r+0x73c>
 2004810:	8808d4ba 	srli	r4,r17,18
 2004814:	21001f04 	addi	r4,r4,124
 2004818:	210b883a 	add	r5,r4,r4
 200481c:	003e8706 	br	200423c <__reset+0xfdffb23c>
 2004820:	bdc00404 	addi	r23,r23,16
 2004824:	003f1d06 	br	200449c <__reset+0xfdffb49c>
 2004828:	01401504 	movi	r5,84
 200482c:	28c01c36 	bltu	r5,r3,20048a0 <_malloc_r+0x780>
 2004830:	100ad33a 	srli	r5,r2,12
 2004834:	29401b84 	addi	r5,r5,110
 2004838:	294d883a 	add	r6,r5,r5
 200483c:	003f8006 	br	2004640 <__reset+0xfdffb640>
 2004840:	e103ffcc 	andi	r4,fp,4095
 2004844:	203f241e 	bne	r4,zero,20044d8 <__reset+0xfdffb4d8>
 2004848:	98c00217 	ldw	r3,8(r19)
 200484c:	bd49883a 	add	r4,r23,r21
 2004850:	21000054 	ori	r4,r4,1
 2004854:	19000115 	stw	r4,4(r3)
 2004858:	003f4a06 	br	2004584 <__reset+0xfdffb584>
 200485c:	01403f04 	movi	r5,252
 2004860:	01001f84 	movi	r4,126
 2004864:	003e7506 	br	200423c <__reset+0xfdffb23c>
 2004868:	00c00044 	movi	r3,1
 200486c:	002f883a 	mov	r23,zero
 2004870:	003f3006 	br	2004534 <__reset+0xfdffb534>
 2004874:	00808234 	movhi	r2,520
 2004878:	10bd1d04 	addi	r2,r2,-2956
 200487c:	15000015 	stw	r20,0(r2)
 2004880:	003f1b06 	br	20044f0 <__reset+0xfdffb4f0>
 2004884:	9009883a 	mov	r4,r18
 2004888:	81400204 	addi	r5,r16,8
 200488c:	200601c0 	call	200601c <_free_r>
 2004890:	00808234 	movhi	r2,520
 2004894:	10bd3f04 	addi	r2,r2,-2820
 2004898:	10800017 	ldw	r2,0(r2)
 200489c:	003f3906 	br	2004584 <__reset+0xfdffb584>
 20048a0:	01405504 	movi	r5,340
 20048a4:	28c00436 	bltu	r5,r3,20048b8 <_malloc_r+0x798>
 20048a8:	100ad3fa 	srli	r5,r2,15
 20048ac:	29401dc4 	addi	r5,r5,119
 20048b0:	294d883a 	add	r6,r5,r5
 20048b4:	003f6206 	br	2004640 <__reset+0xfdffb640>
 20048b8:	01415504 	movi	r5,1364
 20048bc:	28c00436 	bltu	r5,r3,20048d0 <_malloc_r+0x7b0>
 20048c0:	100ad4ba 	srli	r5,r2,18
 20048c4:	29401f04 	addi	r5,r5,124
 20048c8:	294d883a 	add	r6,r5,r5
 20048cc:	003f5c06 	br	2004640 <__reset+0xfdffb640>
 20048d0:	01803f04 	movi	r6,252
 20048d4:	01401f84 	movi	r5,126
 20048d8:	003f5906 	br	2004640 <__reset+0xfdffb640>
 20048dc:	98800117 	ldw	r2,4(r19)
 20048e0:	003fa906 	br	2004788 <__reset+0xfdffb788>

020048e4 <memchr>:
 20048e4:	208000cc 	andi	r2,r4,3
 20048e8:	2811883a 	mov	r8,r5
 20048ec:	10003526 	beq	r2,zero,20049c4 <memchr+0xe0>
 20048f0:	30bfffc4 	addi	r2,r6,-1
 20048f4:	30001b26 	beq	r6,zero,2004964 <memchr+0x80>
 20048f8:	21800003 	ldbu	r6,0(r4)
 20048fc:	28c03fcc 	andi	r3,r5,255
 2004900:	30c01a26 	beq	r6,r3,200496c <memchr+0x88>
 2004904:	180d883a 	mov	r6,r3
 2004908:	00000406 	br	200491c <memchr+0x38>
 200490c:	10001526 	beq	r2,zero,2004964 <memchr+0x80>
 2004910:	20c00003 	ldbu	r3,0(r4)
 2004914:	10bfffc4 	addi	r2,r2,-1
 2004918:	19801426 	beq	r3,r6,200496c <memchr+0x88>
 200491c:	21000044 	addi	r4,r4,1
 2004920:	20c000cc 	andi	r3,r4,3
 2004924:	183ff91e 	bne	r3,zero,200490c <__reset+0xfdffb90c>
 2004928:	02c000c4 	movi	r11,3
 200492c:	58801136 	bltu	r11,r2,2004974 <memchr+0x90>
 2004930:	10000c26 	beq	r2,zero,2004964 <memchr+0x80>
 2004934:	20c00003 	ldbu	r3,0(r4)
 2004938:	29403fcc 	andi	r5,r5,255
 200493c:	19400b26 	beq	r3,r5,200496c <memchr+0x88>
 2004940:	20c00044 	addi	r3,r4,1
 2004944:	2085883a 	add	r2,r4,r2
 2004948:	41803fcc 	andi	r6,r8,255
 200494c:	00000306 	br	200495c <memchr+0x78>
 2004950:	18c00044 	addi	r3,r3,1
 2004954:	197fffc3 	ldbu	r5,-1(r3)
 2004958:	29800426 	beq	r5,r6,200496c <memchr+0x88>
 200495c:	1809883a 	mov	r4,r3
 2004960:	18bffb1e 	bne	r3,r2,2004950 <__reset+0xfdffb950>
 2004964:	0005883a 	mov	r2,zero
 2004968:	f800283a 	ret
 200496c:	2005883a 	mov	r2,r4
 2004970:	f800283a 	ret
 2004974:	28c03fcc 	andi	r3,r5,255
 2004978:	180c923a 	slli	r6,r3,8
 200497c:	02bfbff4 	movhi	r10,65279
 2004980:	52bfbfc4 	addi	r10,r10,-257
 2004984:	02602074 	movhi	r9,32897
 2004988:	4a602004 	addi	r9,r9,-32640
 200498c:	30c6b03a 	or	r3,r6,r3
 2004990:	180c943a 	slli	r6,r3,16
 2004994:	30ccb03a 	or	r6,r6,r3
 2004998:	20c00017 	ldw	r3,0(r4)
 200499c:	30c6f03a 	xor	r3,r6,r3
 20049a0:	1a8f883a 	add	r7,r3,r10
 20049a4:	00c6303a 	nor	r3,zero,r3
 20049a8:	38c6703a 	and	r3,r7,r3
 20049ac:	1a46703a 	and	r3,r3,r9
 20049b0:	183fdf1e 	bne	r3,zero,2004930 <__reset+0xfdffb930>
 20049b4:	10bfff04 	addi	r2,r2,-4
 20049b8:	21000104 	addi	r4,r4,4
 20049bc:	58bff636 	bltu	r11,r2,2004998 <__reset+0xfdffb998>
 20049c0:	003fdb06 	br	2004930 <__reset+0xfdffb930>
 20049c4:	3005883a 	mov	r2,r6
 20049c8:	003fd706 	br	2004928 <__reset+0xfdffb928>

020049cc <memcpy>:
 20049cc:	00c003c4 	movi	r3,15
 20049d0:	2005883a 	mov	r2,r4
 20049d4:	1980372e 	bgeu	r3,r6,2004ab4 <memcpy+0xe8>
 20049d8:	2146b03a 	or	r3,r4,r5
 20049dc:	18c000cc 	andi	r3,r3,3
 20049e0:	1800371e 	bne	r3,zero,2004ac0 <memcpy+0xf4>
 20049e4:	327ffc04 	addi	r9,r6,-16
 20049e8:	4812d13a 	srli	r9,r9,4
 20049ec:	2007883a 	mov	r3,r4
 20049f0:	280f883a 	mov	r7,r5
 20049f4:	4808913a 	slli	r4,r9,4
 20049f8:	1109883a 	add	r4,r2,r4
 20049fc:	21000404 	addi	r4,r4,16
 2004a00:	3a000017 	ldw	r8,0(r7)
 2004a04:	18c00404 	addi	r3,r3,16
 2004a08:	39c00404 	addi	r7,r7,16
 2004a0c:	1a3ffc15 	stw	r8,-16(r3)
 2004a10:	3a3ffd17 	ldw	r8,-12(r7)
 2004a14:	1a3ffd15 	stw	r8,-12(r3)
 2004a18:	3a3ffe17 	ldw	r8,-8(r7)
 2004a1c:	1a3ffe15 	stw	r8,-8(r3)
 2004a20:	3a3fff17 	ldw	r8,-4(r7)
 2004a24:	1a3fff15 	stw	r8,-4(r3)
 2004a28:	193ff51e 	bne	r3,r4,2004a00 <__reset+0xfdffba00>
 2004a2c:	49000044 	addi	r4,r9,1
 2004a30:	2008913a 	slli	r4,r4,4
 2004a34:	328003cc 	andi	r10,r6,15
 2004a38:	1107883a 	add	r3,r2,r4
 2004a3c:	290b883a 	add	r5,r5,r4
 2004a40:	010000c4 	movi	r4,3
 2004a44:	2280212e 	bgeu	r4,r10,2004acc <memcpy+0x100>
 2004a48:	52bfff04 	addi	r10,r10,-4
 2004a4c:	5014d0ba 	srli	r10,r10,2
 2004a50:	180f883a 	mov	r7,r3
 2004a54:	2811883a 	mov	r8,r5
 2004a58:	5289883a 	add	r4,r10,r10
 2004a5c:	2109883a 	add	r4,r4,r4
 2004a60:	21000104 	addi	r4,r4,4
 2004a64:	1909883a 	add	r4,r3,r4
 2004a68:	42400017 	ldw	r9,0(r8)
 2004a6c:	39c00104 	addi	r7,r7,4
 2004a70:	42000104 	addi	r8,r8,4
 2004a74:	3a7fff15 	stw	r9,-4(r7)
 2004a78:	393ffb1e 	bne	r7,r4,2004a68 <__reset+0xfdffba68>
 2004a7c:	51000044 	addi	r4,r10,1
 2004a80:	2109883a 	add	r4,r4,r4
 2004a84:	2109883a 	add	r4,r4,r4
 2004a88:	318000cc 	andi	r6,r6,3
 2004a8c:	1907883a 	add	r3,r3,r4
 2004a90:	290b883a 	add	r5,r5,r4
 2004a94:	30000c26 	beq	r6,zero,2004ac8 <memcpy+0xfc>
 2004a98:	298d883a 	add	r6,r5,r6
 2004a9c:	29c00003 	ldbu	r7,0(r5)
 2004aa0:	18c00044 	addi	r3,r3,1
 2004aa4:	29400044 	addi	r5,r5,1
 2004aa8:	19ffffc5 	stb	r7,-1(r3)
 2004aac:	29bffb1e 	bne	r5,r6,2004a9c <__reset+0xfdffba9c>
 2004ab0:	f800283a 	ret
 2004ab4:	2007883a 	mov	r3,r4
 2004ab8:	303ff71e 	bne	r6,zero,2004a98 <__reset+0xfdffba98>
 2004abc:	00000206 	br	2004ac8 <memcpy+0xfc>
 2004ac0:	2007883a 	mov	r3,r4
 2004ac4:	003ff406 	br	2004a98 <__reset+0xfdffba98>
 2004ac8:	f800283a 	ret
 2004acc:	500d883a 	mov	r6,r10
 2004ad0:	303ff11e 	bne	r6,zero,2004a98 <__reset+0xfdffba98>
 2004ad4:	003ffc06 	br	2004ac8 <__reset+0xfdffbac8>

02004ad8 <memmove>:
 2004ad8:	2005883a 	mov	r2,r4
 2004adc:	29000b2e 	bgeu	r5,r4,2004b0c <memmove+0x34>
 2004ae0:	298f883a 	add	r7,r5,r6
 2004ae4:	21c0092e 	bgeu	r4,r7,2004b0c <memmove+0x34>
 2004ae8:	2187883a 	add	r3,r4,r6
 2004aec:	198bc83a 	sub	r5,r3,r6
 2004af0:	30003e26 	beq	r6,zero,2004bec <memmove+0x114>
 2004af4:	39ffffc4 	addi	r7,r7,-1
 2004af8:	39000003 	ldbu	r4,0(r7)
 2004afc:	18ffffc4 	addi	r3,r3,-1
 2004b00:	19000005 	stb	r4,0(r3)
 2004b04:	197ffb1e 	bne	r3,r5,2004af4 <__reset+0xfdffbaf4>
 2004b08:	f800283a 	ret
 2004b0c:	00c003c4 	movi	r3,15
 2004b10:	1980372e 	bgeu	r3,r6,2004bf0 <memmove+0x118>
 2004b14:	1146b03a 	or	r3,r2,r5
 2004b18:	18c000cc 	andi	r3,r3,3
 2004b1c:	1800371e 	bne	r3,zero,2004bfc <memmove+0x124>
 2004b20:	327ffc04 	addi	r9,r6,-16
 2004b24:	4812d13a 	srli	r9,r9,4
 2004b28:	280f883a 	mov	r7,r5
 2004b2c:	1007883a 	mov	r3,r2
 2004b30:	4810913a 	slli	r8,r9,4
 2004b34:	1211883a 	add	r8,r2,r8
 2004b38:	42000404 	addi	r8,r8,16
 2004b3c:	39000017 	ldw	r4,0(r7)
 2004b40:	18c00404 	addi	r3,r3,16
 2004b44:	39c00404 	addi	r7,r7,16
 2004b48:	193ffc15 	stw	r4,-16(r3)
 2004b4c:	393ffd17 	ldw	r4,-12(r7)
 2004b50:	193ffd15 	stw	r4,-12(r3)
 2004b54:	393ffe17 	ldw	r4,-8(r7)
 2004b58:	193ffe15 	stw	r4,-8(r3)
 2004b5c:	393fff17 	ldw	r4,-4(r7)
 2004b60:	193fff15 	stw	r4,-4(r3)
 2004b64:	1a3ff51e 	bne	r3,r8,2004b3c <__reset+0xfdffbb3c>
 2004b68:	49000044 	addi	r4,r9,1
 2004b6c:	2008913a 	slli	r4,r4,4
 2004b70:	328003cc 	andi	r10,r6,15
 2004b74:	1107883a 	add	r3,r2,r4
 2004b78:	290b883a 	add	r5,r5,r4
 2004b7c:	010000c4 	movi	r4,3
 2004b80:	2280212e 	bgeu	r4,r10,2004c08 <memmove+0x130>
 2004b84:	52bfff04 	addi	r10,r10,-4
 2004b88:	5014d0ba 	srli	r10,r10,2
 2004b8c:	180f883a 	mov	r7,r3
 2004b90:	2809883a 	mov	r4,r5
 2004b94:	5291883a 	add	r8,r10,r10
 2004b98:	4211883a 	add	r8,r8,r8
 2004b9c:	42400104 	addi	r9,r8,4
 2004ba0:	1a53883a 	add	r9,r3,r9
 2004ba4:	22000017 	ldw	r8,0(r4)
 2004ba8:	39c00104 	addi	r7,r7,4
 2004bac:	21000104 	addi	r4,r4,4
 2004bb0:	3a3fff15 	stw	r8,-4(r7)
 2004bb4:	3a7ffb1e 	bne	r7,r9,2004ba4 <__reset+0xfdffbba4>
 2004bb8:	51000044 	addi	r4,r10,1
 2004bbc:	2109883a 	add	r4,r4,r4
 2004bc0:	2109883a 	add	r4,r4,r4
 2004bc4:	318000cc 	andi	r6,r6,3
 2004bc8:	1907883a 	add	r3,r3,r4
 2004bcc:	290b883a 	add	r5,r5,r4
 2004bd0:	30000c26 	beq	r6,zero,2004c04 <memmove+0x12c>
 2004bd4:	198d883a 	add	r6,r3,r6
 2004bd8:	29c00003 	ldbu	r7,0(r5)
 2004bdc:	18c00044 	addi	r3,r3,1
 2004be0:	29400044 	addi	r5,r5,1
 2004be4:	19ffffc5 	stb	r7,-1(r3)
 2004be8:	19bffb1e 	bne	r3,r6,2004bd8 <__reset+0xfdffbbd8>
 2004bec:	f800283a 	ret
 2004bf0:	1007883a 	mov	r3,r2
 2004bf4:	303ff71e 	bne	r6,zero,2004bd4 <__reset+0xfdffbbd4>
 2004bf8:	00000206 	br	2004c04 <memmove+0x12c>
 2004bfc:	1007883a 	mov	r3,r2
 2004c00:	003ff406 	br	2004bd4 <__reset+0xfdffbbd4>
 2004c04:	f800283a 	ret
 2004c08:	500d883a 	mov	r6,r10
 2004c0c:	303ff11e 	bne	r6,zero,2004bd4 <__reset+0xfdffbbd4>
 2004c10:	003ffc06 	br	2004c04 <__reset+0xfdffbc04>

02004c14 <memset>:
 2004c14:	20c000cc 	andi	r3,r4,3
 2004c18:	2005883a 	mov	r2,r4
 2004c1c:	18003f26 	beq	r3,zero,2004d1c <memset+0x108>
 2004c20:	31ffffc4 	addi	r7,r6,-1
 2004c24:	30003b26 	beq	r6,zero,2004d14 <memset+0x100>
 2004c28:	2813883a 	mov	r9,r5
 2004c2c:	200d883a 	mov	r6,r4
 2004c30:	2007883a 	mov	r3,r4
 2004c34:	00000406 	br	2004c48 <memset+0x34>
 2004c38:	3a3fffc4 	addi	r8,r7,-1
 2004c3c:	31800044 	addi	r6,r6,1
 2004c40:	38003426 	beq	r7,zero,2004d14 <memset+0x100>
 2004c44:	400f883a 	mov	r7,r8
 2004c48:	18c00044 	addi	r3,r3,1
 2004c4c:	32400005 	stb	r9,0(r6)
 2004c50:	1a0000cc 	andi	r8,r3,3
 2004c54:	403ff81e 	bne	r8,zero,2004c38 <__reset+0xfdffbc38>
 2004c58:	010000c4 	movi	r4,3
 2004c5c:	21c0282e 	bgeu	r4,r7,2004d00 <memset+0xec>
 2004c60:	29003fcc 	andi	r4,r5,255
 2004c64:	2010923a 	slli	r8,r4,8
 2004c68:	4108b03a 	or	r4,r8,r4
 2004c6c:	2010943a 	slli	r8,r4,16
 2004c70:	4110b03a 	or	r8,r8,r4
 2004c74:	010003c4 	movi	r4,15
 2004c78:	21c0122e 	bgeu	r4,r7,2004cc4 <memset+0xb0>
 2004c7c:	3a7ffc04 	addi	r9,r7,-16
 2004c80:	4812d13a 	srli	r9,r9,4
 2004c84:	19000404 	addi	r4,r3,16
 2004c88:	180d883a 	mov	r6,r3
 2004c8c:	4814913a 	slli	r10,r9,4
 2004c90:	2289883a 	add	r4,r4,r10
 2004c94:	32000015 	stw	r8,0(r6)
 2004c98:	32000115 	stw	r8,4(r6)
 2004c9c:	32000215 	stw	r8,8(r6)
 2004ca0:	32000315 	stw	r8,12(r6)
 2004ca4:	31800404 	addi	r6,r6,16
 2004ca8:	313ffa1e 	bne	r6,r4,2004c94 <__reset+0xfdffbc94>
 2004cac:	4a400044 	addi	r9,r9,1
 2004cb0:	4812913a 	slli	r9,r9,4
 2004cb4:	39c003cc 	andi	r7,r7,15
 2004cb8:	010000c4 	movi	r4,3
 2004cbc:	1a47883a 	add	r3,r3,r9
 2004cc0:	21c00f2e 	bgeu	r4,r7,2004d00 <memset+0xec>
 2004cc4:	3a7fff04 	addi	r9,r7,-4
 2004cc8:	4812d0ba 	srli	r9,r9,2
 2004ccc:	19000104 	addi	r4,r3,4
 2004cd0:	180d883a 	mov	r6,r3
 2004cd4:	4a55883a 	add	r10,r9,r9
 2004cd8:	5295883a 	add	r10,r10,r10
 2004cdc:	2289883a 	add	r4,r4,r10
 2004ce0:	32000015 	stw	r8,0(r6)
 2004ce4:	31800104 	addi	r6,r6,4
 2004ce8:	313ffd1e 	bne	r6,r4,2004ce0 <__reset+0xfdffbce0>
 2004cec:	4a400044 	addi	r9,r9,1
 2004cf0:	4a53883a 	add	r9,r9,r9
 2004cf4:	4a53883a 	add	r9,r9,r9
 2004cf8:	1a47883a 	add	r3,r3,r9
 2004cfc:	39c000cc 	andi	r7,r7,3
 2004d00:	38000526 	beq	r7,zero,2004d18 <memset+0x104>
 2004d04:	19cf883a 	add	r7,r3,r7
 2004d08:	19400005 	stb	r5,0(r3)
 2004d0c:	18c00044 	addi	r3,r3,1
 2004d10:	19fffd1e 	bne	r3,r7,2004d08 <__reset+0xfdffbd08>
 2004d14:	f800283a 	ret
 2004d18:	f800283a 	ret
 2004d1c:	2007883a 	mov	r3,r4
 2004d20:	300f883a 	mov	r7,r6
 2004d24:	003fcc06 	br	2004c58 <__reset+0xfdffbc58>

02004d28 <_putc_r>:
 2004d28:	defffc04 	addi	sp,sp,-16
 2004d2c:	dc000215 	stw	r16,8(sp)
 2004d30:	dfc00315 	stw	ra,12(sp)
 2004d34:	2021883a 	mov	r16,r4
 2004d38:	20000226 	beq	r4,zero,2004d44 <_putc_r+0x1c>
 2004d3c:	20800e17 	ldw	r2,56(r4)
 2004d40:	10001b26 	beq	r2,zero,2004db0 <_putc_r+0x88>
 2004d44:	30800217 	ldw	r2,8(r6)
 2004d48:	10bfffc4 	addi	r2,r2,-1
 2004d4c:	30800215 	stw	r2,8(r6)
 2004d50:	10000a16 	blt	r2,zero,2004d7c <_putc_r+0x54>
 2004d54:	30800017 	ldw	r2,0(r6)
 2004d58:	11400005 	stb	r5,0(r2)
 2004d5c:	30800017 	ldw	r2,0(r6)
 2004d60:	10c00044 	addi	r3,r2,1
 2004d64:	30c00015 	stw	r3,0(r6)
 2004d68:	10800003 	ldbu	r2,0(r2)
 2004d6c:	dfc00317 	ldw	ra,12(sp)
 2004d70:	dc000217 	ldw	r16,8(sp)
 2004d74:	dec00404 	addi	sp,sp,16
 2004d78:	f800283a 	ret
 2004d7c:	30c00617 	ldw	r3,24(r6)
 2004d80:	10c00616 	blt	r2,r3,2004d9c <_putc_r+0x74>
 2004d84:	30800017 	ldw	r2,0(r6)
 2004d88:	00c00284 	movi	r3,10
 2004d8c:	11400005 	stb	r5,0(r2)
 2004d90:	30800017 	ldw	r2,0(r6)
 2004d94:	11400003 	ldbu	r5,0(r2)
 2004d98:	28fff11e 	bne	r5,r3,2004d60 <__reset+0xfdffbd60>
 2004d9c:	8009883a 	mov	r4,r16
 2004da0:	dfc00317 	ldw	ra,12(sp)
 2004da4:	dc000217 	ldw	r16,8(sp)
 2004da8:	dec00404 	addi	sp,sp,16
 2004dac:	200578c1 	jmpi	200578c <__swbuf_r>
 2004db0:	d9400015 	stw	r5,0(sp)
 2004db4:	d9800115 	stw	r6,4(sp)
 2004db8:	200381c0 	call	200381c <__sinit>
 2004dbc:	d9800117 	ldw	r6,4(sp)
 2004dc0:	d9400017 	ldw	r5,0(sp)
 2004dc4:	003fdf06 	br	2004d44 <__reset+0xfdffbd44>

02004dc8 <putc>:
 2004dc8:	defffc04 	addi	sp,sp,-16
 2004dcc:	dc400115 	stw	r17,4(sp)
 2004dd0:	04408234 	movhi	r17,520
 2004dd4:	8c7d1c04 	addi	r17,r17,-2960
 2004dd8:	88800017 	ldw	r2,0(r17)
 2004ddc:	dc800215 	stw	r18,8(sp)
 2004de0:	dc000015 	stw	r16,0(sp)
 2004de4:	dfc00315 	stw	ra,12(sp)
 2004de8:	2025883a 	mov	r18,r4
 2004dec:	2821883a 	mov	r16,r5
 2004df0:	10000226 	beq	r2,zero,2004dfc <putc+0x34>
 2004df4:	10c00e17 	ldw	r3,56(r2)
 2004df8:	18001a26 	beq	r3,zero,2004e64 <putc+0x9c>
 2004dfc:	80800217 	ldw	r2,8(r16)
 2004e00:	10bfffc4 	addi	r2,r2,-1
 2004e04:	80800215 	stw	r2,8(r16)
 2004e08:	10000c16 	blt	r2,zero,2004e3c <putc+0x74>
 2004e0c:	80800017 	ldw	r2,0(r16)
 2004e10:	14800005 	stb	r18,0(r2)
 2004e14:	80800017 	ldw	r2,0(r16)
 2004e18:	10c00044 	addi	r3,r2,1
 2004e1c:	80c00015 	stw	r3,0(r16)
 2004e20:	10800003 	ldbu	r2,0(r2)
 2004e24:	dfc00317 	ldw	ra,12(sp)
 2004e28:	dc800217 	ldw	r18,8(sp)
 2004e2c:	dc400117 	ldw	r17,4(sp)
 2004e30:	dc000017 	ldw	r16,0(sp)
 2004e34:	dec00404 	addi	sp,sp,16
 2004e38:	f800283a 	ret
 2004e3c:	80c00617 	ldw	r3,24(r16)
 2004e40:	10c00b16 	blt	r2,r3,2004e70 <putc+0xa8>
 2004e44:	80800017 	ldw	r2,0(r16)
 2004e48:	00c00284 	movi	r3,10
 2004e4c:	14800005 	stb	r18,0(r2)
 2004e50:	80800017 	ldw	r2,0(r16)
 2004e54:	11400003 	ldbu	r5,0(r2)
 2004e58:	28ffef1e 	bne	r5,r3,2004e18 <__reset+0xfdffbe18>
 2004e5c:	89000017 	ldw	r4,0(r17)
 2004e60:	00000506 	br	2004e78 <putc+0xb0>
 2004e64:	1009883a 	mov	r4,r2
 2004e68:	200381c0 	call	200381c <__sinit>
 2004e6c:	003fe306 	br	2004dfc <__reset+0xfdffbdfc>
 2004e70:	89000017 	ldw	r4,0(r17)
 2004e74:	900b883a 	mov	r5,r18
 2004e78:	800d883a 	mov	r6,r16
 2004e7c:	dfc00317 	ldw	ra,12(sp)
 2004e80:	dc800217 	ldw	r18,8(sp)
 2004e84:	dc400117 	ldw	r17,4(sp)
 2004e88:	dc000017 	ldw	r16,0(sp)
 2004e8c:	dec00404 	addi	sp,sp,16
 2004e90:	200578c1 	jmpi	200578c <__swbuf_r>

02004e94 <_realloc_r>:
 2004e94:	defff604 	addi	sp,sp,-40
 2004e98:	dd000415 	stw	r20,16(sp)
 2004e9c:	dc000015 	stw	r16,0(sp)
 2004ea0:	dfc00915 	stw	ra,36(sp)
 2004ea4:	df000815 	stw	fp,32(sp)
 2004ea8:	ddc00715 	stw	r23,28(sp)
 2004eac:	dd800615 	stw	r22,24(sp)
 2004eb0:	dd400515 	stw	r21,20(sp)
 2004eb4:	dcc00315 	stw	r19,12(sp)
 2004eb8:	dc800215 	stw	r18,8(sp)
 2004ebc:	dc400115 	stw	r17,4(sp)
 2004ec0:	2821883a 	mov	r16,r5
 2004ec4:	3029883a 	mov	r20,r6
 2004ec8:	28009a26 	beq	r5,zero,2005134 <_realloc_r+0x2a0>
 2004ecc:	202b883a 	mov	r21,r4
 2004ed0:	2006c6c0 	call	2006c6c <__malloc_lock>
 2004ed4:	80ffff17 	ldw	r3,-4(r16)
 2004ed8:	047fff04 	movi	r17,-4
 2004edc:	a08002c4 	addi	r2,r20,11
 2004ee0:	01000584 	movi	r4,22
 2004ee4:	84fffe04 	addi	r19,r16,-8
 2004ee8:	1c62703a 	and	r17,r3,r17
 2004eec:	2080372e 	bgeu	r4,r2,2004fcc <_realloc_r+0x138>
 2004ef0:	04bffe04 	movi	r18,-8
 2004ef4:	14a4703a 	and	r18,r2,r18
 2004ef8:	9005883a 	mov	r2,r18
 2004efc:	90005b16 	blt	r18,zero,200506c <_realloc_r+0x1d8>
 2004f00:	95005a36 	bltu	r18,r20,200506c <_realloc_r+0x1d8>
 2004f04:	8880340e 	bge	r17,r2,2004fd8 <_realloc_r+0x144>
 2004f08:	05c08234 	movhi	r23,520
 2004f0c:	bdf73104 	addi	r23,r23,-9020
 2004f10:	b9000217 	ldw	r4,8(r23)
 2004f14:	9c4b883a 	add	r5,r19,r17
 2004f18:	21409626 	beq	r4,r5,2005174 <_realloc_r+0x2e0>
 2004f1c:	29800117 	ldw	r6,4(r5)
 2004f20:	01ffff84 	movi	r7,-2
 2004f24:	31ce703a 	and	r7,r6,r7
 2004f28:	29cf883a 	add	r7,r5,r7
 2004f2c:	39c00117 	ldw	r7,4(r7)
 2004f30:	39c0004c 	andi	r7,r7,1
 2004f34:	38004226 	beq	r7,zero,2005040 <_realloc_r+0x1ac>
 2004f38:	000d883a 	mov	r6,zero
 2004f3c:	000b883a 	mov	r5,zero
 2004f40:	18c0004c 	andi	r3,r3,1
 2004f44:	18005c1e 	bne	r3,zero,20050b8 <_realloc_r+0x224>
 2004f48:	85bffe17 	ldw	r22,-8(r16)
 2004f4c:	00ffff04 	movi	r3,-4
 2004f50:	9dadc83a 	sub	r22,r19,r22
 2004f54:	b1c00117 	ldw	r7,4(r22)
 2004f58:	38c6703a 	and	r3,r7,r3
 2004f5c:	28005426 	beq	r5,zero,20050b0 <_realloc_r+0x21c>
 2004f60:	1c47883a 	add	r3,r3,r17
 2004f64:	2900bf26 	beq	r5,r4,2005264 <_realloc_r+0x3d0>
 2004f68:	30ef883a 	add	r23,r6,r3
 2004f6c:	b8807e16 	blt	r23,r2,2005168 <_realloc_r+0x2d4>
 2004f70:	28800317 	ldw	r2,12(r5)
 2004f74:	28c00217 	ldw	r3,8(r5)
 2004f78:	89bfff04 	addi	r6,r17,-4
 2004f7c:	01000904 	movi	r4,36
 2004f80:	18800315 	stw	r2,12(r3)
 2004f84:	10c00215 	stw	r3,8(r2)
 2004f88:	b1400217 	ldw	r5,8(r22)
 2004f8c:	b0c00317 	ldw	r3,12(r22)
 2004f90:	b5000204 	addi	r20,r22,8
 2004f94:	28c00315 	stw	r3,12(r5)
 2004f98:	19400215 	stw	r5,8(r3)
 2004f9c:	21808536 	bltu	r4,r6,20051b4 <_realloc_r+0x320>
 2004fa0:	008004c4 	movi	r2,19
 2004fa4:	1180932e 	bgeu	r2,r6,20051f4 <_realloc_r+0x360>
 2004fa8:	80800017 	ldw	r2,0(r16)
 2004fac:	b0800215 	stw	r2,8(r22)
 2004fb0:	80800117 	ldw	r2,4(r16)
 2004fb4:	b0800315 	stw	r2,12(r22)
 2004fb8:	008006c4 	movi	r2,27
 2004fbc:	1180df36 	bltu	r2,r6,200533c <_realloc_r+0x4a8>
 2004fc0:	b0c00404 	addi	r3,r22,16
 2004fc4:	84000204 	addi	r16,r16,8
 2004fc8:	00008b06 	br	20051f8 <_realloc_r+0x364>
 2004fcc:	00800404 	movi	r2,16
 2004fd0:	1025883a 	mov	r18,r2
 2004fd4:	003fca06 	br	2004f00 <__reset+0xfdffbf00>
 2004fd8:	8029883a 	mov	r20,r16
 2004fdc:	8c8dc83a 	sub	r6,r17,r18
 2004fe0:	008003c4 	movi	r2,15
 2004fe4:	18c0004c 	andi	r3,r3,1
 2004fe8:	11802436 	bltu	r2,r6,200507c <_realloc_r+0x1e8>
 2004fec:	1c46b03a 	or	r3,r3,r17
 2004ff0:	98c00115 	stw	r3,4(r19)
 2004ff4:	9c63883a 	add	r17,r19,r17
 2004ff8:	88800117 	ldw	r2,4(r17)
 2004ffc:	10800054 	ori	r2,r2,1
 2005000:	88800115 	stw	r2,4(r17)
 2005004:	a809883a 	mov	r4,r21
 2005008:	2006c8c0 	call	2006c8c <__malloc_unlock>
 200500c:	a005883a 	mov	r2,r20
 2005010:	dfc00917 	ldw	ra,36(sp)
 2005014:	df000817 	ldw	fp,32(sp)
 2005018:	ddc00717 	ldw	r23,28(sp)
 200501c:	dd800617 	ldw	r22,24(sp)
 2005020:	dd400517 	ldw	r21,20(sp)
 2005024:	dd000417 	ldw	r20,16(sp)
 2005028:	dcc00317 	ldw	r19,12(sp)
 200502c:	dc800217 	ldw	r18,8(sp)
 2005030:	dc400117 	ldw	r17,4(sp)
 2005034:	dc000017 	ldw	r16,0(sp)
 2005038:	dec00a04 	addi	sp,sp,40
 200503c:	f800283a 	ret
 2005040:	01ffff04 	movi	r7,-4
 2005044:	31cc703a 	and	r6,r6,r7
 2005048:	344f883a 	add	r7,r6,r17
 200504c:	38bfbc16 	blt	r7,r2,2004f40 <__reset+0xfdffbf40>
 2005050:	28800317 	ldw	r2,12(r5)
 2005054:	29000217 	ldw	r4,8(r5)
 2005058:	8029883a 	mov	r20,r16
 200505c:	3823883a 	mov	r17,r7
 2005060:	20800315 	stw	r2,12(r4)
 2005064:	11000215 	stw	r4,8(r2)
 2005068:	003fdc06 	br	2004fdc <__reset+0xfdffbfdc>
 200506c:	00800304 	movi	r2,12
 2005070:	a8800015 	stw	r2,0(r21)
 2005074:	0005883a 	mov	r2,zero
 2005078:	003fe506 	br	2005010 <__reset+0xfdffc010>
 200507c:	1c86b03a 	or	r3,r3,r18
 2005080:	9c8b883a 	add	r5,r19,r18
 2005084:	98c00115 	stw	r3,4(r19)
 2005088:	30800054 	ori	r2,r6,1
 200508c:	28800115 	stw	r2,4(r5)
 2005090:	298d883a 	add	r6,r5,r6
 2005094:	30800117 	ldw	r2,4(r6)
 2005098:	a809883a 	mov	r4,r21
 200509c:	29400204 	addi	r5,r5,8
 20050a0:	10800054 	ori	r2,r2,1
 20050a4:	30800115 	stw	r2,4(r6)
 20050a8:	200601c0 	call	200601c <_free_r>
 20050ac:	003fd506 	br	2005004 <__reset+0xfdffc004>
 20050b0:	1c6f883a 	add	r23,r3,r17
 20050b4:	b880370e 	bge	r23,r2,2005194 <_realloc_r+0x300>
 20050b8:	a00b883a 	mov	r5,r20
 20050bc:	a809883a 	mov	r4,r21
 20050c0:	20041200 	call	2004120 <_malloc_r>
 20050c4:	1029883a 	mov	r20,r2
 20050c8:	1000c026 	beq	r2,zero,20053cc <_realloc_r+0x538>
 20050cc:	80ffff17 	ldw	r3,-4(r16)
 20050d0:	113ffe04 	addi	r4,r2,-8
 20050d4:	00bfff84 	movi	r2,-2
 20050d8:	1884703a 	and	r2,r3,r2
 20050dc:	9885883a 	add	r2,r19,r2
 20050e0:	20809026 	beq	r4,r2,2005324 <_realloc_r+0x490>
 20050e4:	89bfff04 	addi	r6,r17,-4
 20050e8:	00800904 	movi	r2,36
 20050ec:	11805936 	bltu	r2,r6,2005254 <_realloc_r+0x3c0>
 20050f0:	00c004c4 	movi	r3,19
 20050f4:	19803636 	bltu	r3,r6,20051d0 <_realloc_r+0x33c>
 20050f8:	a005883a 	mov	r2,r20
 20050fc:	8007883a 	mov	r3,r16
 2005100:	19000017 	ldw	r4,0(r3)
 2005104:	11000015 	stw	r4,0(r2)
 2005108:	19000117 	ldw	r4,4(r3)
 200510c:	11000115 	stw	r4,4(r2)
 2005110:	18c00217 	ldw	r3,8(r3)
 2005114:	10c00215 	stw	r3,8(r2)
 2005118:	800b883a 	mov	r5,r16
 200511c:	a809883a 	mov	r4,r21
 2005120:	200601c0 	call	200601c <_free_r>
 2005124:	a809883a 	mov	r4,r21
 2005128:	2006c8c0 	call	2006c8c <__malloc_unlock>
 200512c:	a005883a 	mov	r2,r20
 2005130:	003fb706 	br	2005010 <__reset+0xfdffc010>
 2005134:	300b883a 	mov	r5,r6
 2005138:	dfc00917 	ldw	ra,36(sp)
 200513c:	df000817 	ldw	fp,32(sp)
 2005140:	ddc00717 	ldw	r23,28(sp)
 2005144:	dd800617 	ldw	r22,24(sp)
 2005148:	dd400517 	ldw	r21,20(sp)
 200514c:	dd000417 	ldw	r20,16(sp)
 2005150:	dcc00317 	ldw	r19,12(sp)
 2005154:	dc800217 	ldw	r18,8(sp)
 2005158:	dc400117 	ldw	r17,4(sp)
 200515c:	dc000017 	ldw	r16,0(sp)
 2005160:	dec00a04 	addi	sp,sp,40
 2005164:	20041201 	jmpi	2004120 <_malloc_r>
 2005168:	182f883a 	mov	r23,r3
 200516c:	b8bfd216 	blt	r23,r2,20050b8 <__reset+0xfdffc0b8>
 2005170:	00000806 	br	2005194 <_realloc_r+0x300>
 2005174:	21800117 	ldw	r6,4(r4)
 2005178:	017fff04 	movi	r5,-4
 200517c:	91c00404 	addi	r7,r18,16
 2005180:	314c703a 	and	r6,r6,r5
 2005184:	344b883a 	add	r5,r6,r17
 2005188:	29c0250e 	bge	r5,r7,2005220 <_realloc_r+0x38c>
 200518c:	200b883a 	mov	r5,r4
 2005190:	003f6b06 	br	2004f40 <__reset+0xfdffbf40>
 2005194:	b0800317 	ldw	r2,12(r22)
 2005198:	b0c00217 	ldw	r3,8(r22)
 200519c:	89bfff04 	addi	r6,r17,-4
 20051a0:	01000904 	movi	r4,36
 20051a4:	18800315 	stw	r2,12(r3)
 20051a8:	10c00215 	stw	r3,8(r2)
 20051ac:	b5000204 	addi	r20,r22,8
 20051b0:	21bf7b2e 	bgeu	r4,r6,2004fa0 <__reset+0xfdffbfa0>
 20051b4:	a009883a 	mov	r4,r20
 20051b8:	800b883a 	mov	r5,r16
 20051bc:	2004ad80 	call	2004ad8 <memmove>
 20051c0:	b0c00117 	ldw	r3,4(r22)
 20051c4:	b823883a 	mov	r17,r23
 20051c8:	b027883a 	mov	r19,r22
 20051cc:	003f8306 	br	2004fdc <__reset+0xfdffbfdc>
 20051d0:	80c00017 	ldw	r3,0(r16)
 20051d4:	a0c00015 	stw	r3,0(r20)
 20051d8:	80c00117 	ldw	r3,4(r16)
 20051dc:	a0c00115 	stw	r3,4(r20)
 20051e0:	00c006c4 	movi	r3,27
 20051e4:	19804736 	bltu	r3,r6,2005304 <_realloc_r+0x470>
 20051e8:	a0800204 	addi	r2,r20,8
 20051ec:	80c00204 	addi	r3,r16,8
 20051f0:	003fc306 	br	2005100 <__reset+0xfdffc100>
 20051f4:	a007883a 	mov	r3,r20
 20051f8:	80800017 	ldw	r2,0(r16)
 20051fc:	b823883a 	mov	r17,r23
 2005200:	b027883a 	mov	r19,r22
 2005204:	18800015 	stw	r2,0(r3)
 2005208:	80800117 	ldw	r2,4(r16)
 200520c:	18800115 	stw	r2,4(r3)
 2005210:	80800217 	ldw	r2,8(r16)
 2005214:	18800215 	stw	r2,8(r3)
 2005218:	b0c00117 	ldw	r3,4(r22)
 200521c:	003f6f06 	br	2004fdc <__reset+0xfdffbfdc>
 2005220:	9ca7883a 	add	r19,r19,r18
 2005224:	2c85c83a 	sub	r2,r5,r18
 2005228:	bcc00215 	stw	r19,8(r23)
 200522c:	10800054 	ori	r2,r2,1
 2005230:	98800115 	stw	r2,4(r19)
 2005234:	80bfff17 	ldw	r2,-4(r16)
 2005238:	a809883a 	mov	r4,r21
 200523c:	1080004c 	andi	r2,r2,1
 2005240:	90a4b03a 	or	r18,r18,r2
 2005244:	84bfff15 	stw	r18,-4(r16)
 2005248:	2006c8c0 	call	2006c8c <__malloc_unlock>
 200524c:	8005883a 	mov	r2,r16
 2005250:	003f6f06 	br	2005010 <__reset+0xfdffc010>
 2005254:	a009883a 	mov	r4,r20
 2005258:	800b883a 	mov	r5,r16
 200525c:	2004ad80 	call	2004ad8 <memmove>
 2005260:	003fad06 	br	2005118 <__reset+0xfdffc118>
 2005264:	30f9883a 	add	fp,r6,r3
 2005268:	91000404 	addi	r4,r18,16
 200526c:	e13fbe16 	blt	fp,r4,2005168 <__reset+0xfdffc168>
 2005270:	b0800317 	ldw	r2,12(r22)
 2005274:	b0c00217 	ldw	r3,8(r22)
 2005278:	89bfff04 	addi	r6,r17,-4
 200527c:	01000904 	movi	r4,36
 2005280:	18800315 	stw	r2,12(r3)
 2005284:	10c00215 	stw	r3,8(r2)
 2005288:	b4400204 	addi	r17,r22,8
 200528c:	21804336 	bltu	r4,r6,200539c <_realloc_r+0x508>
 2005290:	008004c4 	movi	r2,19
 2005294:	11803f2e 	bgeu	r2,r6,2005394 <_realloc_r+0x500>
 2005298:	80800017 	ldw	r2,0(r16)
 200529c:	b0800215 	stw	r2,8(r22)
 20052a0:	80800117 	ldw	r2,4(r16)
 20052a4:	b0800315 	stw	r2,12(r22)
 20052a8:	008006c4 	movi	r2,27
 20052ac:	11803f36 	bltu	r2,r6,20053ac <_realloc_r+0x518>
 20052b0:	b0c00404 	addi	r3,r22,16
 20052b4:	84000204 	addi	r16,r16,8
 20052b8:	80800017 	ldw	r2,0(r16)
 20052bc:	18800015 	stw	r2,0(r3)
 20052c0:	80800117 	ldw	r2,4(r16)
 20052c4:	18800115 	stw	r2,4(r3)
 20052c8:	80800217 	ldw	r2,8(r16)
 20052cc:	18800215 	stw	r2,8(r3)
 20052d0:	b487883a 	add	r3,r22,r18
 20052d4:	e485c83a 	sub	r2,fp,r18
 20052d8:	b8c00215 	stw	r3,8(r23)
 20052dc:	10800054 	ori	r2,r2,1
 20052e0:	18800115 	stw	r2,4(r3)
 20052e4:	b0800117 	ldw	r2,4(r22)
 20052e8:	a809883a 	mov	r4,r21
 20052ec:	1080004c 	andi	r2,r2,1
 20052f0:	90a4b03a 	or	r18,r18,r2
 20052f4:	b4800115 	stw	r18,4(r22)
 20052f8:	2006c8c0 	call	2006c8c <__malloc_unlock>
 20052fc:	8805883a 	mov	r2,r17
 2005300:	003f4306 	br	2005010 <__reset+0xfdffc010>
 2005304:	80c00217 	ldw	r3,8(r16)
 2005308:	a0c00215 	stw	r3,8(r20)
 200530c:	80c00317 	ldw	r3,12(r16)
 2005310:	a0c00315 	stw	r3,12(r20)
 2005314:	30801126 	beq	r6,r2,200535c <_realloc_r+0x4c8>
 2005318:	a0800404 	addi	r2,r20,16
 200531c:	80c00404 	addi	r3,r16,16
 2005320:	003f7706 	br	2005100 <__reset+0xfdffc100>
 2005324:	a13fff17 	ldw	r4,-4(r20)
 2005328:	00bfff04 	movi	r2,-4
 200532c:	8029883a 	mov	r20,r16
 2005330:	2084703a 	and	r2,r4,r2
 2005334:	88a3883a 	add	r17,r17,r2
 2005338:	003f2806 	br	2004fdc <__reset+0xfdffbfdc>
 200533c:	80800217 	ldw	r2,8(r16)
 2005340:	b0800415 	stw	r2,16(r22)
 2005344:	80800317 	ldw	r2,12(r16)
 2005348:	b0800515 	stw	r2,20(r22)
 200534c:	31000a26 	beq	r6,r4,2005378 <_realloc_r+0x4e4>
 2005350:	b0c00604 	addi	r3,r22,24
 2005354:	84000404 	addi	r16,r16,16
 2005358:	003fa706 	br	20051f8 <__reset+0xfdffc1f8>
 200535c:	81000417 	ldw	r4,16(r16)
 2005360:	a0800604 	addi	r2,r20,24
 2005364:	80c00604 	addi	r3,r16,24
 2005368:	a1000415 	stw	r4,16(r20)
 200536c:	81000517 	ldw	r4,20(r16)
 2005370:	a1000515 	stw	r4,20(r20)
 2005374:	003f6206 	br	2005100 <__reset+0xfdffc100>
 2005378:	80800417 	ldw	r2,16(r16)
 200537c:	84000604 	addi	r16,r16,24
 2005380:	b0c00804 	addi	r3,r22,32
 2005384:	b0800615 	stw	r2,24(r22)
 2005388:	80bfff17 	ldw	r2,-4(r16)
 200538c:	b0800715 	stw	r2,28(r22)
 2005390:	003f9906 	br	20051f8 <__reset+0xfdffc1f8>
 2005394:	8807883a 	mov	r3,r17
 2005398:	003fc706 	br	20052b8 <__reset+0xfdffc2b8>
 200539c:	8809883a 	mov	r4,r17
 20053a0:	800b883a 	mov	r5,r16
 20053a4:	2004ad80 	call	2004ad8 <memmove>
 20053a8:	003fc906 	br	20052d0 <__reset+0xfdffc2d0>
 20053ac:	80800217 	ldw	r2,8(r16)
 20053b0:	b0800415 	stw	r2,16(r22)
 20053b4:	80800317 	ldw	r2,12(r16)
 20053b8:	b0800515 	stw	r2,20(r22)
 20053bc:	31000726 	beq	r6,r4,20053dc <_realloc_r+0x548>
 20053c0:	b0c00604 	addi	r3,r22,24
 20053c4:	84000404 	addi	r16,r16,16
 20053c8:	003fbb06 	br	20052b8 <__reset+0xfdffc2b8>
 20053cc:	a809883a 	mov	r4,r21
 20053d0:	2006c8c0 	call	2006c8c <__malloc_unlock>
 20053d4:	0005883a 	mov	r2,zero
 20053d8:	003f0d06 	br	2005010 <__reset+0xfdffc010>
 20053dc:	80800417 	ldw	r2,16(r16)
 20053e0:	84000604 	addi	r16,r16,24
 20053e4:	b0c00804 	addi	r3,r22,32
 20053e8:	b0800615 	stw	r2,24(r22)
 20053ec:	80bfff17 	ldw	r2,-4(r16)
 20053f0:	b0800715 	stw	r2,28(r22)
 20053f4:	003fb006 	br	20052b8 <__reset+0xfdffc2b8>

020053f8 <lflush>:
 20053f8:	20c0030b 	ldhu	r3,12(r4)
 20053fc:	00800244 	movi	r2,9
 2005400:	18c0024c 	andi	r3,r3,9
 2005404:	18800226 	beq	r3,r2,2005410 <lflush+0x18>
 2005408:	0005883a 	mov	r2,zero
 200540c:	f800283a 	ret
 2005410:	2005eb01 	jmpi	2005eb0 <fflush>

02005414 <__srefill_r>:
 2005414:	defffd04 	addi	sp,sp,-12
 2005418:	dc400115 	stw	r17,4(sp)
 200541c:	dc000015 	stw	r16,0(sp)
 2005420:	dfc00215 	stw	ra,8(sp)
 2005424:	2023883a 	mov	r17,r4
 2005428:	2821883a 	mov	r16,r5
 200542c:	20000226 	beq	r4,zero,2005438 <__srefill_r+0x24>
 2005430:	20800e17 	ldw	r2,56(r4)
 2005434:	10003f26 	beq	r2,zero,2005534 <__srefill_r+0x120>
 2005438:	8080030b 	ldhu	r2,12(r16)
 200543c:	1108000c 	andi	r4,r2,8192
 2005440:	1007883a 	mov	r3,r2
 2005444:	2000071e 	bne	r4,zero,2005464 <__srefill_r+0x50>
 2005448:	81001917 	ldw	r4,100(r16)
 200544c:	10c80014 	ori	r3,r2,8192
 2005450:	00b7ffc4 	movi	r2,-8193
 2005454:	2088703a 	and	r4,r4,r2
 2005458:	80c0030d 	sth	r3,12(r16)
 200545c:	1805883a 	mov	r2,r3
 2005460:	81001915 	stw	r4,100(r16)
 2005464:	80000115 	stw	zero,4(r16)
 2005468:	1900080c 	andi	r4,r3,32
 200546c:	2000591e 	bne	r4,zero,20055d4 <__srefill_r+0x1c0>
 2005470:	1900010c 	andi	r4,r3,4
 2005474:	20001e26 	beq	r4,zero,20054f0 <__srefill_r+0xdc>
 2005478:	81400c17 	ldw	r5,48(r16)
 200547c:	28000826 	beq	r5,zero,20054a0 <__srefill_r+0x8c>
 2005480:	80801004 	addi	r2,r16,64
 2005484:	28800226 	beq	r5,r2,2005490 <__srefill_r+0x7c>
 2005488:	8809883a 	mov	r4,r17
 200548c:	200601c0 	call	200601c <_free_r>
 2005490:	80800f17 	ldw	r2,60(r16)
 2005494:	80000c15 	stw	zero,48(r16)
 2005498:	80800115 	stw	r2,4(r16)
 200549c:	1000371e 	bne	r2,zero,200557c <__srefill_r+0x168>
 20054a0:	80800417 	ldw	r2,16(r16)
 20054a4:	10004d26 	beq	r2,zero,20055dc <__srefill_r+0x1c8>
 20054a8:	8080030b 	ldhu	r2,12(r16)
 20054ac:	108000cc 	andi	r2,r2,3
 20054b0:	1000221e 	bne	r2,zero,200553c <__srefill_r+0x128>
 20054b4:	81800417 	ldw	r6,16(r16)
 20054b8:	80800817 	ldw	r2,32(r16)
 20054bc:	81400717 	ldw	r5,28(r16)
 20054c0:	81c00517 	ldw	r7,20(r16)
 20054c4:	81800015 	stw	r6,0(r16)
 20054c8:	8809883a 	mov	r4,r17
 20054cc:	103ee83a 	callr	r2
 20054d0:	80800115 	stw	r2,4(r16)
 20054d4:	00800d0e 	bge	zero,r2,200550c <__srefill_r+0xf8>
 20054d8:	0005883a 	mov	r2,zero
 20054dc:	dfc00217 	ldw	ra,8(sp)
 20054e0:	dc400117 	ldw	r17,4(sp)
 20054e4:	dc000017 	ldw	r16,0(sp)
 20054e8:	dec00304 	addi	sp,sp,12
 20054ec:	f800283a 	ret
 20054f0:	1900040c 	andi	r4,r3,16
 20054f4:	20003326 	beq	r4,zero,20055c4 <__srefill_r+0x1b0>
 20054f8:	18c0020c 	andi	r3,r3,8
 20054fc:	1800271e 	bne	r3,zero,200559c <__srefill_r+0x188>
 2005500:	10800114 	ori	r2,r2,4
 2005504:	8080030d 	sth	r2,12(r16)
 2005508:	003fe506 	br	20054a0 <__reset+0xfdffc4a0>
 200550c:	80c0030b 	ldhu	r3,12(r16)
 2005510:	1000111e 	bne	r2,zero,2005558 <__srefill_r+0x144>
 2005514:	00bfffc4 	movi	r2,-1
 2005518:	18c00814 	ori	r3,r3,32
 200551c:	80c0030d 	sth	r3,12(r16)
 2005520:	dfc00217 	ldw	ra,8(sp)
 2005524:	dc400117 	ldw	r17,4(sp)
 2005528:	dc000017 	ldw	r16,0(sp)
 200552c:	dec00304 	addi	sp,sp,12
 2005530:	f800283a 	ret
 2005534:	200381c0 	call	200381c <__sinit>
 2005538:	003fbf06 	br	2005438 <__reset+0xfdffc438>
 200553c:	00808234 	movhi	r2,520
 2005540:	10bd1b04 	addi	r2,r2,-2964
 2005544:	11000017 	ldw	r4,0(r2)
 2005548:	01408034 	movhi	r5,512
 200554c:	2954fe04 	addi	r5,r5,21496
 2005550:	2003fc00 	call	2003fc0 <_fwalk>
 2005554:	003fd706 	br	20054b4 <__reset+0xfdffc4b4>
 2005558:	00bfffc4 	movi	r2,-1
 200555c:	18c01014 	ori	r3,r3,64
 2005560:	80000115 	stw	zero,4(r16)
 2005564:	80c0030d 	sth	r3,12(r16)
 2005568:	dfc00217 	ldw	ra,8(sp)
 200556c:	dc400117 	ldw	r17,4(sp)
 2005570:	dc000017 	ldw	r16,0(sp)
 2005574:	dec00304 	addi	sp,sp,12
 2005578:	f800283a 	ret
 200557c:	80c00e17 	ldw	r3,56(r16)
 2005580:	0005883a 	mov	r2,zero
 2005584:	80c00015 	stw	r3,0(r16)
 2005588:	dfc00217 	ldw	ra,8(sp)
 200558c:	dc400117 	ldw	r17,4(sp)
 2005590:	dc000017 	ldw	r16,0(sp)
 2005594:	dec00304 	addi	sp,sp,12
 2005598:	f800283a 	ret
 200559c:	8809883a 	mov	r4,r17
 20055a0:	800b883a 	mov	r5,r16
 20055a4:	2005c6c0 	call	2005c6c <_fflush_r>
 20055a8:	10000a1e 	bne	r2,zero,20055d4 <__srefill_r+0x1c0>
 20055ac:	8080030b 	ldhu	r2,12(r16)
 20055b0:	00fffdc4 	movi	r3,-9
 20055b4:	80000215 	stw	zero,8(r16)
 20055b8:	1884703a 	and	r2,r3,r2
 20055bc:	80000615 	stw	zero,24(r16)
 20055c0:	003fcf06 	br	2005500 <__reset+0xfdffc500>
 20055c4:	00c00244 	movi	r3,9
 20055c8:	88c00015 	stw	r3,0(r17)
 20055cc:	10801014 	ori	r2,r2,64
 20055d0:	8080030d 	sth	r2,12(r16)
 20055d4:	00bfffc4 	movi	r2,-1
 20055d8:	003fc006 	br	20054dc <__reset+0xfdffc4dc>
 20055dc:	8809883a 	mov	r4,r17
 20055e0:	800b883a 	mov	r5,r16
 20055e4:	20063580 	call	2006358 <__smakebuf_r>
 20055e8:	003faf06 	br	20054a8 <__reset+0xfdffc4a8>

020055ec <_sbrk_r>:
 20055ec:	defffd04 	addi	sp,sp,-12
 20055f0:	dc400115 	stw	r17,4(sp)
 20055f4:	dc000015 	stw	r16,0(sp)
 20055f8:	2023883a 	mov	r17,r4
 20055fc:	04008234 	movhi	r16,520
 2005600:	843d3104 	addi	r16,r16,-2876
 2005604:	2809883a 	mov	r4,r5
 2005608:	dfc00215 	stw	ra,8(sp)
 200560c:	80000015 	stw	zero,0(r16)
 2005610:	2006e740 	call	2006e74 <sbrk>
 2005614:	00ffffc4 	movi	r3,-1
 2005618:	10c00526 	beq	r2,r3,2005630 <_sbrk_r+0x44>
 200561c:	dfc00217 	ldw	ra,8(sp)
 2005620:	dc400117 	ldw	r17,4(sp)
 2005624:	dc000017 	ldw	r16,0(sp)
 2005628:	dec00304 	addi	sp,sp,12
 200562c:	f800283a 	ret
 2005630:	80c00017 	ldw	r3,0(r16)
 2005634:	183ff926 	beq	r3,zero,200561c <__reset+0xfdffc61c>
 2005638:	88c00015 	stw	r3,0(r17)
 200563c:	dfc00217 	ldw	ra,8(sp)
 2005640:	dc400117 	ldw	r17,4(sp)
 2005644:	dc000017 	ldw	r16,0(sp)
 2005648:	dec00304 	addi	sp,sp,12
 200564c:	f800283a 	ret

02005650 <__sread>:
 2005650:	defffe04 	addi	sp,sp,-8
 2005654:	dc000015 	stw	r16,0(sp)
 2005658:	2821883a 	mov	r16,r5
 200565c:	2940038f 	ldh	r5,14(r5)
 2005660:	dfc00115 	stw	ra,4(sp)
 2005664:	200650c0 	call	200650c <_read_r>
 2005668:	10000716 	blt	r2,zero,2005688 <__sread+0x38>
 200566c:	80c01417 	ldw	r3,80(r16)
 2005670:	1887883a 	add	r3,r3,r2
 2005674:	80c01415 	stw	r3,80(r16)
 2005678:	dfc00117 	ldw	ra,4(sp)
 200567c:	dc000017 	ldw	r16,0(sp)
 2005680:	dec00204 	addi	sp,sp,8
 2005684:	f800283a 	ret
 2005688:	80c0030b 	ldhu	r3,12(r16)
 200568c:	18fbffcc 	andi	r3,r3,61439
 2005690:	80c0030d 	sth	r3,12(r16)
 2005694:	dfc00117 	ldw	ra,4(sp)
 2005698:	dc000017 	ldw	r16,0(sp)
 200569c:	dec00204 	addi	sp,sp,8
 20056a0:	f800283a 	ret

020056a4 <__seofread>:
 20056a4:	0005883a 	mov	r2,zero
 20056a8:	f800283a 	ret

020056ac <__swrite>:
 20056ac:	2880030b 	ldhu	r2,12(r5)
 20056b0:	defffb04 	addi	sp,sp,-20
 20056b4:	dcc00315 	stw	r19,12(sp)
 20056b8:	dc800215 	stw	r18,8(sp)
 20056bc:	dc400115 	stw	r17,4(sp)
 20056c0:	dc000015 	stw	r16,0(sp)
 20056c4:	dfc00415 	stw	ra,16(sp)
 20056c8:	10c0400c 	andi	r3,r2,256
 20056cc:	2821883a 	mov	r16,r5
 20056d0:	2027883a 	mov	r19,r4
 20056d4:	3025883a 	mov	r18,r6
 20056d8:	3823883a 	mov	r17,r7
 20056dc:	18000526 	beq	r3,zero,20056f4 <__swrite+0x48>
 20056e0:	2940038f 	ldh	r5,14(r5)
 20056e4:	000d883a 	mov	r6,zero
 20056e8:	01c00084 	movi	r7,2
 20056ec:	20062ec0 	call	20062ec <_lseek_r>
 20056f0:	8080030b 	ldhu	r2,12(r16)
 20056f4:	8140038f 	ldh	r5,14(r16)
 20056f8:	10bbffcc 	andi	r2,r2,61439
 20056fc:	9809883a 	mov	r4,r19
 2005700:	900d883a 	mov	r6,r18
 2005704:	880f883a 	mov	r7,r17
 2005708:	8080030d 	sth	r2,12(r16)
 200570c:	dfc00417 	ldw	ra,16(sp)
 2005710:	dcc00317 	ldw	r19,12(sp)
 2005714:	dc800217 	ldw	r18,8(sp)
 2005718:	dc400117 	ldw	r17,4(sp)
 200571c:	dc000017 	ldw	r16,0(sp)
 2005720:	dec00504 	addi	sp,sp,20
 2005724:	20059281 	jmpi	2005928 <_write_r>

02005728 <__sseek>:
 2005728:	defffe04 	addi	sp,sp,-8
 200572c:	dc000015 	stw	r16,0(sp)
 2005730:	2821883a 	mov	r16,r5
 2005734:	2940038f 	ldh	r5,14(r5)
 2005738:	dfc00115 	stw	ra,4(sp)
 200573c:	20062ec0 	call	20062ec <_lseek_r>
 2005740:	00ffffc4 	movi	r3,-1
 2005744:	10c00826 	beq	r2,r3,2005768 <__sseek+0x40>
 2005748:	80c0030b 	ldhu	r3,12(r16)
 200574c:	80801415 	stw	r2,80(r16)
 2005750:	18c40014 	ori	r3,r3,4096
 2005754:	80c0030d 	sth	r3,12(r16)
 2005758:	dfc00117 	ldw	ra,4(sp)
 200575c:	dc000017 	ldw	r16,0(sp)
 2005760:	dec00204 	addi	sp,sp,8
 2005764:	f800283a 	ret
 2005768:	80c0030b 	ldhu	r3,12(r16)
 200576c:	18fbffcc 	andi	r3,r3,61439
 2005770:	80c0030d 	sth	r3,12(r16)
 2005774:	dfc00117 	ldw	ra,4(sp)
 2005778:	dc000017 	ldw	r16,0(sp)
 200577c:	dec00204 	addi	sp,sp,8
 2005780:	f800283a 	ret

02005784 <__sclose>:
 2005784:	2940038f 	ldh	r5,14(r5)
 2005788:	2005acc1 	jmpi	2005acc <_close_r>

0200578c <__swbuf_r>:
 200578c:	defffc04 	addi	sp,sp,-16
 2005790:	dc800215 	stw	r18,8(sp)
 2005794:	dc400115 	stw	r17,4(sp)
 2005798:	dc000015 	stw	r16,0(sp)
 200579c:	dfc00315 	stw	ra,12(sp)
 20057a0:	2023883a 	mov	r17,r4
 20057a4:	2825883a 	mov	r18,r5
 20057a8:	3021883a 	mov	r16,r6
 20057ac:	20000226 	beq	r4,zero,20057b8 <__swbuf_r+0x2c>
 20057b0:	20800e17 	ldw	r2,56(r4)
 20057b4:	10004d26 	beq	r2,zero,20058ec <__swbuf_r+0x160>
 20057b8:	80800617 	ldw	r2,24(r16)
 20057bc:	80c0030b 	ldhu	r3,12(r16)
 20057c0:	80800215 	stw	r2,8(r16)
 20057c4:	1880020c 	andi	r2,r3,8
 20057c8:	10004126 	beq	r2,zero,20058d0 <__swbuf_r+0x144>
 20057cc:	80800417 	ldw	r2,16(r16)
 20057d0:	10003f26 	beq	r2,zero,20058d0 <__swbuf_r+0x144>
 20057d4:	1908000c 	andi	r4,r3,8192
 20057d8:	94803fcc 	andi	r18,r18,255
 20057dc:	20001726 	beq	r4,zero,200583c <__swbuf_r+0xb0>
 20057e0:	80c00017 	ldw	r3,0(r16)
 20057e4:	81000517 	ldw	r4,20(r16)
 20057e8:	1885c83a 	sub	r2,r3,r2
 20057ec:	11001d0e 	bge	r2,r4,2005864 <__swbuf_r+0xd8>
 20057f0:	81000217 	ldw	r4,8(r16)
 20057f4:	19400044 	addi	r5,r3,1
 20057f8:	81400015 	stw	r5,0(r16)
 20057fc:	213fffc4 	addi	r4,r4,-1
 2005800:	81000215 	stw	r4,8(r16)
 2005804:	1c800005 	stb	r18,0(r3)
 2005808:	80c00517 	ldw	r3,20(r16)
 200580c:	10800044 	addi	r2,r2,1
 2005810:	18802226 	beq	r3,r2,200589c <__swbuf_r+0x110>
 2005814:	8080030b 	ldhu	r2,12(r16)
 2005818:	1080004c 	andi	r2,r2,1
 200581c:	1000251e 	bne	r2,zero,20058b4 <__swbuf_r+0x128>
 2005820:	9005883a 	mov	r2,r18
 2005824:	dfc00317 	ldw	ra,12(sp)
 2005828:	dc800217 	ldw	r18,8(sp)
 200582c:	dc400117 	ldw	r17,4(sp)
 2005830:	dc000017 	ldw	r16,0(sp)
 2005834:	dec00404 	addi	sp,sp,16
 2005838:	f800283a 	ret
 200583c:	81401917 	ldw	r5,100(r16)
 2005840:	18c80014 	ori	r3,r3,8192
 2005844:	0137ffc4 	movi	r4,-8193
 2005848:	2908703a 	and	r4,r5,r4
 200584c:	80c0030d 	sth	r3,12(r16)
 2005850:	80c00017 	ldw	r3,0(r16)
 2005854:	81001915 	stw	r4,100(r16)
 2005858:	81000517 	ldw	r4,20(r16)
 200585c:	1885c83a 	sub	r2,r3,r2
 2005860:	113fe316 	blt	r2,r4,20057f0 <__reset+0xfdffc7f0>
 2005864:	8809883a 	mov	r4,r17
 2005868:	800b883a 	mov	r5,r16
 200586c:	2005c6c0 	call	2005c6c <_fflush_r>
 2005870:	10000e1e 	bne	r2,zero,20058ac <__swbuf_r+0x120>
 2005874:	80c00017 	ldw	r3,0(r16)
 2005878:	81000217 	ldw	r4,8(r16)
 200587c:	00800044 	movi	r2,1
 2005880:	19400044 	addi	r5,r3,1
 2005884:	213fffc4 	addi	r4,r4,-1
 2005888:	81400015 	stw	r5,0(r16)
 200588c:	81000215 	stw	r4,8(r16)
 2005890:	1c800005 	stb	r18,0(r3)
 2005894:	80c00517 	ldw	r3,20(r16)
 2005898:	18bfde1e 	bne	r3,r2,2005814 <__reset+0xfdffc814>
 200589c:	8809883a 	mov	r4,r17
 20058a0:	800b883a 	mov	r5,r16
 20058a4:	2005c6c0 	call	2005c6c <_fflush_r>
 20058a8:	103fdd26 	beq	r2,zero,2005820 <__reset+0xfdffc820>
 20058ac:	00bfffc4 	movi	r2,-1
 20058b0:	003fdc06 	br	2005824 <__reset+0xfdffc824>
 20058b4:	00800284 	movi	r2,10
 20058b8:	90bfd91e 	bne	r18,r2,2005820 <__reset+0xfdffc820>
 20058bc:	8809883a 	mov	r4,r17
 20058c0:	800b883a 	mov	r5,r16
 20058c4:	2005c6c0 	call	2005c6c <_fflush_r>
 20058c8:	103fd526 	beq	r2,zero,2005820 <__reset+0xfdffc820>
 20058cc:	003ff706 	br	20058ac <__reset+0xfdffc8ac>
 20058d0:	8809883a 	mov	r4,r17
 20058d4:	800b883a 	mov	r5,r16
 20058d8:	20059940 	call	2005994 <__swsetup_r>
 20058dc:	80c0030b 	ldhu	r3,12(r16)
 20058e0:	1000041e 	bne	r2,zero,20058f4 <__swbuf_r+0x168>
 20058e4:	80800417 	ldw	r2,16(r16)
 20058e8:	003fba06 	br	20057d4 <__reset+0xfdffc7d4>
 20058ec:	200381c0 	call	200381c <__sinit>
 20058f0:	003fb106 	br	20057b8 <__reset+0xfdffc7b8>
 20058f4:	18c01014 	ori	r3,r3,64
 20058f8:	80c0030d 	sth	r3,12(r16)
 20058fc:	00c00244 	movi	r3,9
 2005900:	00bfffc4 	movi	r2,-1
 2005904:	88c00015 	stw	r3,0(r17)
 2005908:	003fc606 	br	2005824 <__reset+0xfdffc824>

0200590c <__swbuf>:
 200590c:	00c08234 	movhi	r3,520
 2005910:	18fd1c04 	addi	r3,r3,-2960
 2005914:	2005883a 	mov	r2,r4
 2005918:	19000017 	ldw	r4,0(r3)
 200591c:	280d883a 	mov	r6,r5
 2005920:	100b883a 	mov	r5,r2
 2005924:	200578c1 	jmpi	200578c <__swbuf_r>

02005928 <_write_r>:
 2005928:	defffd04 	addi	sp,sp,-12
 200592c:	dc400115 	stw	r17,4(sp)
 2005930:	dc000015 	stw	r16,0(sp)
 2005934:	2023883a 	mov	r17,r4
 2005938:	04008234 	movhi	r16,520
 200593c:	843d3104 	addi	r16,r16,-2876
 2005940:	2809883a 	mov	r4,r5
 2005944:	300b883a 	mov	r5,r6
 2005948:	380d883a 	mov	r6,r7
 200594c:	dfc00215 	stw	ra,8(sp)
 2005950:	80000015 	stw	zero,0(r16)
 2005954:	20071100 	call	2007110 <write>
 2005958:	00ffffc4 	movi	r3,-1
 200595c:	10c00526 	beq	r2,r3,2005974 <_write_r+0x4c>
 2005960:	dfc00217 	ldw	ra,8(sp)
 2005964:	dc400117 	ldw	r17,4(sp)
 2005968:	dc000017 	ldw	r16,0(sp)
 200596c:	dec00304 	addi	sp,sp,12
 2005970:	f800283a 	ret
 2005974:	80c00017 	ldw	r3,0(r16)
 2005978:	183ff926 	beq	r3,zero,2005960 <__reset+0xfdffc960>
 200597c:	88c00015 	stw	r3,0(r17)
 2005980:	dfc00217 	ldw	ra,8(sp)
 2005984:	dc400117 	ldw	r17,4(sp)
 2005988:	dc000017 	ldw	r16,0(sp)
 200598c:	dec00304 	addi	sp,sp,12
 2005990:	f800283a 	ret

02005994 <__swsetup_r>:
 2005994:	00808234 	movhi	r2,520
 2005998:	10bd1c04 	addi	r2,r2,-2960
 200599c:	10800017 	ldw	r2,0(r2)
 20059a0:	defffd04 	addi	sp,sp,-12
 20059a4:	dc400115 	stw	r17,4(sp)
 20059a8:	dc000015 	stw	r16,0(sp)
 20059ac:	dfc00215 	stw	ra,8(sp)
 20059b0:	2023883a 	mov	r17,r4
 20059b4:	2821883a 	mov	r16,r5
 20059b8:	10000226 	beq	r2,zero,20059c4 <__swsetup_r+0x30>
 20059bc:	10c00e17 	ldw	r3,56(r2)
 20059c0:	18002e26 	beq	r3,zero,2005a7c <__swsetup_r+0xe8>
 20059c4:	8080030b 	ldhu	r2,12(r16)
 20059c8:	10c0020c 	andi	r3,r2,8
 20059cc:	100d883a 	mov	r6,r2
 20059d0:	18000f26 	beq	r3,zero,2005a10 <__swsetup_r+0x7c>
 20059d4:	80c00417 	ldw	r3,16(r16)
 20059d8:	18001526 	beq	r3,zero,2005a30 <__swsetup_r+0x9c>
 20059dc:	1100004c 	andi	r4,r2,1
 20059e0:	20001c1e 	bne	r4,zero,2005a54 <__swsetup_r+0xc0>
 20059e4:	1080008c 	andi	r2,r2,2
 20059e8:	1000271e 	bne	r2,zero,2005a88 <__swsetup_r+0xf4>
 20059ec:	80800517 	ldw	r2,20(r16)
 20059f0:	80800215 	stw	r2,8(r16)
 20059f4:	18001c26 	beq	r3,zero,2005a68 <__swsetup_r+0xd4>
 20059f8:	0005883a 	mov	r2,zero
 20059fc:	dfc00217 	ldw	ra,8(sp)
 2005a00:	dc400117 	ldw	r17,4(sp)
 2005a04:	dc000017 	ldw	r16,0(sp)
 2005a08:	dec00304 	addi	sp,sp,12
 2005a0c:	f800283a 	ret
 2005a10:	3080040c 	andi	r2,r6,16
 2005a14:	10001726 	beq	r2,zero,2005a74 <__swsetup_r+0xe0>
 2005a18:	3080010c 	andi	r2,r6,4
 2005a1c:	10001d1e 	bne	r2,zero,2005a94 <__swsetup_r+0x100>
 2005a20:	80c00417 	ldw	r3,16(r16)
 2005a24:	30800214 	ori	r2,r6,8
 2005a28:	8080030d 	sth	r2,12(r16)
 2005a2c:	183feb1e 	bne	r3,zero,20059dc <__reset+0xfdffc9dc>
 2005a30:	1140a00c 	andi	r5,r2,640
 2005a34:	01008004 	movi	r4,512
 2005a38:	293fe826 	beq	r5,r4,20059dc <__reset+0xfdffc9dc>
 2005a3c:	8809883a 	mov	r4,r17
 2005a40:	800b883a 	mov	r5,r16
 2005a44:	20063580 	call	2006358 <__smakebuf_r>
 2005a48:	8080030b 	ldhu	r2,12(r16)
 2005a4c:	80c00417 	ldw	r3,16(r16)
 2005a50:	003fe206 	br	20059dc <__reset+0xfdffc9dc>
 2005a54:	80800517 	ldw	r2,20(r16)
 2005a58:	80000215 	stw	zero,8(r16)
 2005a5c:	0085c83a 	sub	r2,zero,r2
 2005a60:	80800615 	stw	r2,24(r16)
 2005a64:	183fe41e 	bne	r3,zero,20059f8 <__reset+0xfdffc9f8>
 2005a68:	8080030b 	ldhu	r2,12(r16)
 2005a6c:	1080200c 	andi	r2,r2,128
 2005a70:	103fe226 	beq	r2,zero,20059fc <__reset+0xfdffc9fc>
 2005a74:	00bfffc4 	movi	r2,-1
 2005a78:	003fe006 	br	20059fc <__reset+0xfdffc9fc>
 2005a7c:	1009883a 	mov	r4,r2
 2005a80:	200381c0 	call	200381c <__sinit>
 2005a84:	003fcf06 	br	20059c4 <__reset+0xfdffc9c4>
 2005a88:	0005883a 	mov	r2,zero
 2005a8c:	80800215 	stw	r2,8(r16)
 2005a90:	003fd806 	br	20059f4 <__reset+0xfdffc9f4>
 2005a94:	81400c17 	ldw	r5,48(r16)
 2005a98:	28000626 	beq	r5,zero,2005ab4 <__swsetup_r+0x120>
 2005a9c:	80801004 	addi	r2,r16,64
 2005aa0:	28800326 	beq	r5,r2,2005ab0 <__swsetup_r+0x11c>
 2005aa4:	8809883a 	mov	r4,r17
 2005aa8:	200601c0 	call	200601c <_free_r>
 2005aac:	8180030b 	ldhu	r6,12(r16)
 2005ab0:	80000c15 	stw	zero,48(r16)
 2005ab4:	80c00417 	ldw	r3,16(r16)
 2005ab8:	00bff6c4 	movi	r2,-37
 2005abc:	118c703a 	and	r6,r2,r6
 2005ac0:	80000115 	stw	zero,4(r16)
 2005ac4:	80c00015 	stw	r3,0(r16)
 2005ac8:	003fd606 	br	2005a24 <__reset+0xfdffca24>

02005acc <_close_r>:
 2005acc:	defffd04 	addi	sp,sp,-12
 2005ad0:	dc400115 	stw	r17,4(sp)
 2005ad4:	dc000015 	stw	r16,0(sp)
 2005ad8:	2023883a 	mov	r17,r4
 2005adc:	04008234 	movhi	r16,520
 2005ae0:	843d3104 	addi	r16,r16,-2876
 2005ae4:	2809883a 	mov	r4,r5
 2005ae8:	dfc00215 	stw	ra,8(sp)
 2005aec:	80000015 	stw	zero,0(r16)
 2005af0:	20067d40 	call	20067d4 <close>
 2005af4:	00ffffc4 	movi	r3,-1
 2005af8:	10c00526 	beq	r2,r3,2005b10 <_close_r+0x44>
 2005afc:	dfc00217 	ldw	ra,8(sp)
 2005b00:	dc400117 	ldw	r17,4(sp)
 2005b04:	dc000017 	ldw	r16,0(sp)
 2005b08:	dec00304 	addi	sp,sp,12
 2005b0c:	f800283a 	ret
 2005b10:	80c00017 	ldw	r3,0(r16)
 2005b14:	183ff926 	beq	r3,zero,2005afc <__reset+0xfdffcafc>
 2005b18:	88c00015 	stw	r3,0(r17)
 2005b1c:	dfc00217 	ldw	ra,8(sp)
 2005b20:	dc400117 	ldw	r17,4(sp)
 2005b24:	dc000017 	ldw	r16,0(sp)
 2005b28:	dec00304 	addi	sp,sp,12
 2005b2c:	f800283a 	ret

02005b30 <_fclose_r>:
 2005b30:	defffc04 	addi	sp,sp,-16
 2005b34:	dc000015 	stw	r16,0(sp)
 2005b38:	dfc00315 	stw	ra,12(sp)
 2005b3c:	dc800215 	stw	r18,8(sp)
 2005b40:	dc400115 	stw	r17,4(sp)
 2005b44:	2821883a 	mov	r16,r5
 2005b48:	28003126 	beq	r5,zero,2005c10 <_fclose_r+0xe0>
 2005b4c:	2023883a 	mov	r17,r4
 2005b50:	2003ad40 	call	2003ad4 <__sfp_lock_acquire>
 2005b54:	88000226 	beq	r17,zero,2005b60 <_fclose_r+0x30>
 2005b58:	88800e17 	ldw	r2,56(r17)
 2005b5c:	10003326 	beq	r2,zero,2005c2c <_fclose_r+0xfc>
 2005b60:	8080030f 	ldh	r2,12(r16)
 2005b64:	10002226 	beq	r2,zero,2005bf0 <_fclose_r+0xc0>
 2005b68:	8809883a 	mov	r4,r17
 2005b6c:	800b883a 	mov	r5,r16
 2005b70:	2005c6c0 	call	2005c6c <_fflush_r>
 2005b74:	80c00b17 	ldw	r3,44(r16)
 2005b78:	1025883a 	mov	r18,r2
 2005b7c:	18000426 	beq	r3,zero,2005b90 <_fclose_r+0x60>
 2005b80:	81400717 	ldw	r5,28(r16)
 2005b84:	8809883a 	mov	r4,r17
 2005b88:	183ee83a 	callr	r3
 2005b8c:	10003016 	blt	r2,zero,2005c50 <_fclose_r+0x120>
 2005b90:	8080030b 	ldhu	r2,12(r16)
 2005b94:	1080200c 	andi	r2,r2,128
 2005b98:	1000291e 	bne	r2,zero,2005c40 <_fclose_r+0x110>
 2005b9c:	81400c17 	ldw	r5,48(r16)
 2005ba0:	28000526 	beq	r5,zero,2005bb8 <_fclose_r+0x88>
 2005ba4:	80801004 	addi	r2,r16,64
 2005ba8:	28800226 	beq	r5,r2,2005bb4 <_fclose_r+0x84>
 2005bac:	8809883a 	mov	r4,r17
 2005bb0:	200601c0 	call	200601c <_free_r>
 2005bb4:	80000c15 	stw	zero,48(r16)
 2005bb8:	81401117 	ldw	r5,68(r16)
 2005bbc:	28000326 	beq	r5,zero,2005bcc <_fclose_r+0x9c>
 2005bc0:	8809883a 	mov	r4,r17
 2005bc4:	200601c0 	call	200601c <_free_r>
 2005bc8:	80001115 	stw	zero,68(r16)
 2005bcc:	8000030d 	sth	zero,12(r16)
 2005bd0:	2003ad80 	call	2003ad8 <__sfp_lock_release>
 2005bd4:	9005883a 	mov	r2,r18
 2005bd8:	dfc00317 	ldw	ra,12(sp)
 2005bdc:	dc800217 	ldw	r18,8(sp)
 2005be0:	dc400117 	ldw	r17,4(sp)
 2005be4:	dc000017 	ldw	r16,0(sp)
 2005be8:	dec00404 	addi	sp,sp,16
 2005bec:	f800283a 	ret
 2005bf0:	2003ad80 	call	2003ad8 <__sfp_lock_release>
 2005bf4:	0005883a 	mov	r2,zero
 2005bf8:	dfc00317 	ldw	ra,12(sp)
 2005bfc:	dc800217 	ldw	r18,8(sp)
 2005c00:	dc400117 	ldw	r17,4(sp)
 2005c04:	dc000017 	ldw	r16,0(sp)
 2005c08:	dec00404 	addi	sp,sp,16
 2005c0c:	f800283a 	ret
 2005c10:	0005883a 	mov	r2,zero
 2005c14:	dfc00317 	ldw	ra,12(sp)
 2005c18:	dc800217 	ldw	r18,8(sp)
 2005c1c:	dc400117 	ldw	r17,4(sp)
 2005c20:	dc000017 	ldw	r16,0(sp)
 2005c24:	dec00404 	addi	sp,sp,16
 2005c28:	f800283a 	ret
 2005c2c:	8809883a 	mov	r4,r17
 2005c30:	200381c0 	call	200381c <__sinit>
 2005c34:	8080030f 	ldh	r2,12(r16)
 2005c38:	103fcb1e 	bne	r2,zero,2005b68 <__reset+0xfdffcb68>
 2005c3c:	003fec06 	br	2005bf0 <__reset+0xfdffcbf0>
 2005c40:	81400417 	ldw	r5,16(r16)
 2005c44:	8809883a 	mov	r4,r17
 2005c48:	200601c0 	call	200601c <_free_r>
 2005c4c:	003fd306 	br	2005b9c <__reset+0xfdffcb9c>
 2005c50:	04bfffc4 	movi	r18,-1
 2005c54:	003fce06 	br	2005b90 <__reset+0xfdffcb90>

02005c58 <fclose>:
 2005c58:	00808234 	movhi	r2,520
 2005c5c:	10bd1c04 	addi	r2,r2,-2960
 2005c60:	200b883a 	mov	r5,r4
 2005c64:	11000017 	ldw	r4,0(r2)
 2005c68:	2005b301 	jmpi	2005b30 <_fclose_r>

02005c6c <_fflush_r>:
 2005c6c:	defffb04 	addi	sp,sp,-20
 2005c70:	dcc00315 	stw	r19,12(sp)
 2005c74:	dc400115 	stw	r17,4(sp)
 2005c78:	dfc00415 	stw	ra,16(sp)
 2005c7c:	dc800215 	stw	r18,8(sp)
 2005c80:	dc000015 	stw	r16,0(sp)
 2005c84:	2027883a 	mov	r19,r4
 2005c88:	2823883a 	mov	r17,r5
 2005c8c:	20000226 	beq	r4,zero,2005c98 <_fflush_r+0x2c>
 2005c90:	20800e17 	ldw	r2,56(r4)
 2005c94:	10005826 	beq	r2,zero,2005df8 <_fflush_r+0x18c>
 2005c98:	8880030b 	ldhu	r2,12(r17)
 2005c9c:	10ffffcc 	andi	r3,r2,65535
 2005ca0:	18e0001c 	xori	r3,r3,32768
 2005ca4:	18e00004 	addi	r3,r3,-32768
 2005ca8:	18002b26 	beq	r3,zero,2005d58 <_fflush_r+0xec>
 2005cac:	10c0020c 	andi	r3,r2,8
 2005cb0:	1800311e 	bne	r3,zero,2005d78 <_fflush_r+0x10c>
 2005cb4:	88c00117 	ldw	r3,4(r17)
 2005cb8:	10820014 	ori	r2,r2,2048
 2005cbc:	8880030d 	sth	r2,12(r17)
 2005cc0:	00c05c0e 	bge	zero,r3,2005e34 <_fflush_r+0x1c8>
 2005cc4:	88c00a17 	ldw	r3,40(r17)
 2005cc8:	18002326 	beq	r3,zero,2005d58 <_fflush_r+0xec>
 2005ccc:	9c000017 	ldw	r16,0(r19)
 2005cd0:	1104000c 	andi	r4,r2,4096
 2005cd4:	98000015 	stw	zero,0(r19)
 2005cd8:	20004b26 	beq	r4,zero,2005e08 <_fflush_r+0x19c>
 2005cdc:	89801417 	ldw	r6,80(r17)
 2005ce0:	1080010c 	andi	r2,r2,4
 2005ce4:	10000626 	beq	r2,zero,2005d00 <_fflush_r+0x94>
 2005ce8:	89000117 	ldw	r4,4(r17)
 2005cec:	88800c17 	ldw	r2,48(r17)
 2005cf0:	310dc83a 	sub	r6,r6,r4
 2005cf4:	10000226 	beq	r2,zero,2005d00 <_fflush_r+0x94>
 2005cf8:	88800f17 	ldw	r2,60(r17)
 2005cfc:	308dc83a 	sub	r6,r6,r2
 2005d00:	89400717 	ldw	r5,28(r17)
 2005d04:	9809883a 	mov	r4,r19
 2005d08:	000f883a 	mov	r7,zero
 2005d0c:	183ee83a 	callr	r3
 2005d10:	00ffffc4 	movi	r3,-1
 2005d14:	10c04a26 	beq	r2,r3,2005e40 <_fflush_r+0x1d4>
 2005d18:	88c0030b 	ldhu	r3,12(r17)
 2005d1c:	89000417 	ldw	r4,16(r17)
 2005d20:	88000115 	stw	zero,4(r17)
 2005d24:	197dffcc 	andi	r5,r3,63487
 2005d28:	8940030d 	sth	r5,12(r17)
 2005d2c:	89000015 	stw	r4,0(r17)
 2005d30:	18c4000c 	andi	r3,r3,4096
 2005d34:	1800581e 	bne	r3,zero,2005e98 <_fflush_r+0x22c>
 2005d38:	89400c17 	ldw	r5,48(r17)
 2005d3c:	9c000015 	stw	r16,0(r19)
 2005d40:	28000526 	beq	r5,zero,2005d58 <_fflush_r+0xec>
 2005d44:	88801004 	addi	r2,r17,64
 2005d48:	28800226 	beq	r5,r2,2005d54 <_fflush_r+0xe8>
 2005d4c:	9809883a 	mov	r4,r19
 2005d50:	200601c0 	call	200601c <_free_r>
 2005d54:	88000c15 	stw	zero,48(r17)
 2005d58:	0005883a 	mov	r2,zero
 2005d5c:	dfc00417 	ldw	ra,16(sp)
 2005d60:	dcc00317 	ldw	r19,12(sp)
 2005d64:	dc800217 	ldw	r18,8(sp)
 2005d68:	dc400117 	ldw	r17,4(sp)
 2005d6c:	dc000017 	ldw	r16,0(sp)
 2005d70:	dec00504 	addi	sp,sp,20
 2005d74:	f800283a 	ret
 2005d78:	8c800417 	ldw	r18,16(r17)
 2005d7c:	903ff626 	beq	r18,zero,2005d58 <__reset+0xfdffcd58>
 2005d80:	8c000017 	ldw	r16,0(r17)
 2005d84:	108000cc 	andi	r2,r2,3
 2005d88:	8c800015 	stw	r18,0(r17)
 2005d8c:	84a1c83a 	sub	r16,r16,r18
