Archive member included to satisfy reference by file (symbol)

../LEDTileLib/obj/default\libLEDTileLib.a(LEDTileLib.o)
                              obj/default/main.o (delay)
c:/altera/14.1/nios2eds/bin/gnu/h-x86_64-mingw32/bin/../lib/gcc/nios2-elf/4.8.3/mno-hw-mul\libgcc.a(lib2-divmod.o)
                              obj/default/main.o (__modsi3)
c:/altera/14.1/nios2eds/bin/gnu/h-x86_64-mingw32/bin/../lib/gcc/nios2-elf/4.8.3/mno-hw-mul\libgcc.a(divdf3.o)
                              ../LEDTileLib/obj/default\libLEDTileLib.a(LEDTileLib.o) (__divdf3)
c:/altera/14.1/nios2eds/bin/gnu/h-x86_64-mingw32/bin/../lib/gcc/nios2-elf/4.8.3/mno-hw-mul\libgcc.a(muldf3.o)
                              ../LEDTileLib/obj/default\libLEDTileLib.a(LEDTileLib.o) (__muldf3)
c:/altera/14.1/nios2eds/bin/gnu/h-x86_64-mingw32/bin/../lib/gcc/nios2-elf/4.8.3/mno-hw-mul\libgcc.a(fixdfsi.o)
                              ../LEDTileLib/obj/default\libLEDTileLib.a(LEDTileLib.o) (__fixdfsi)
c:/altera/14.1/nios2eds/bin/gnu/h-x86_64-mingw32/bin/../lib/gcc/nios2-elf/4.8.3/mno-hw-mul\libgcc.a(floatsidf.o)
                              ../LEDTileLib/obj/default\libLEDTileLib.a(LEDTileLib.o) (__floatsidf)
c:/altera/14.1/nios2eds/bin/gnu/h-x86_64-mingw32/bin/../lib/gcc/nios2-elf/4.8.3/mno-hw-mul\libgcc.a(_clzsi2.o)
                              c:/altera/14.1/nios2eds/bin/gnu/h-x86_64-mingw32/bin/../lib/gcc/nios2-elf/4.8.3/mno-hw-mul\libgcc.a(divdf3.o) (__clzsi2)
c:/altera/14.1/nios2eds/bin/gnu/h-x86_64-mingw32/bin/../lib/gcc/nios2-elf/4.8.3/mno-hw-mul\libgcc.a(lib2-mul.o)
                              c:/altera/14.1/nios2eds/bin/gnu/h-x86_64-mingw32/bin/../lib/gcc/nios2-elf/4.8.3/mno-hw-mul\libgcc.a(divdf3.o) (__mulsi3)
c:/altera/14.1/nios2eds/bin/gnu/h-x86_64-mingw32/bin/../lib/gcc/nios2-elf/4.8.3/mno-hw-mul\libgcc.a(_clz.o)
                              c:/altera/14.1/nios2eds/bin/gnu/h-x86_64-mingw32/bin/../lib/gcc/nios2-elf/4.8.3/mno-hw-mul\libgcc.a(_clzsi2.o) (__clz_tab)
c:/altera/14.1/nios2eds/bin/gnu/h-x86_64-mingw32/bin/../lib/gcc/nios2-elf/4.8.3/../../../../../H-x86_64-mingw32/nios2-elf/lib/mno-hw-mul\libc.a(lib_a-getc.o)
                              obj/default/main.o (getc)
c:/altera/14.1/nios2eds/bin/gnu/h-x86_64-mingw32/bin/../lib/gcc/nios2-elf/4.8.3/../../../../../H-x86_64-mingw32/nios2-elf/lib/mno-hw-mul\libc.a(lib_a-impure.o)
                              obj/default/main.o (_impure_ptr)
c:/altera/14.1/nios2eds/bin/gnu/h-x86_64-mingw32/bin/../lib/gcc/nios2-elf/4.8.3/../../../../../H-x86_64-mingw32/nios2-elf/lib/mno-hw-mul\libc.a(lib_a-putchar.o)
                              obj/default/main.o (putchar)
c:/altera/14.1/nios2eds/bin/gnu/h-x86_64-mingw32/bin/../lib/gcc/nios2-elf/4.8.3/../../../../../H-x86_64-mingw32/nios2-elf/lib/mno-hw-mul\libc.a(lib_a-puts.o)
                              obj/default/main.o (puts)
c:/altera/14.1/nios2eds/bin/gnu/h-x86_64-mingw32/bin/../lib/gcc/nios2-elf/4.8.3/../../../../../H-x86_64-mingw32/nios2-elf/lib/mno-hw-mul\libc.a(lib_a-rget.o)
                              c:/altera/14.1/nios2eds/bin/gnu/h-x86_64-mingw32/bin/../lib/gcc/nios2-elf/4.8.3/../../../../../H-x86_64-mingw32/nios2-elf/lib/mno-hw-mul\libc.a(lib_a-getc.o) (__srget_r)
c:/altera/14.1/nios2eds/bin/gnu/h-x86_64-mingw32/bin/../lib/gcc/nios2-elf/4.8.3/../../../../../H-x86_64-mingw32/nios2-elf/lib/mno-hw-mul\libc.a(lib_a-strlen.o)
                              c:/altera/14.1/nios2eds/bin/gnu/h-x86_64-mingw32/bin/../lib/gcc/nios2-elf/4.8.3/../../../../../H-x86_64-mingw32/nios2-elf/lib/mno-hw-mul\libc.a(lib_a-puts.o) (strlen)
c:/altera/14.1/nios2eds/bin/gnu/h-x86_64-mingw32/bin/../lib/gcc/nios2-elf/4.8.3/../../../../../H-x86_64-mingw32/nios2-elf/lib/mno-hw-mul\libc.a(lib_a-findfp.o)
                              c:/altera/14.1/nios2eds/bin/gnu/h-x86_64-mingw32/bin/../lib/gcc/nios2-elf/4.8.3/../../../../../H-x86_64-mingw32/nios2-elf/lib/mno-hw-mul\libc.a(lib_a-getc.o) (__sinit)
c:/altera/14.1/nios2eds/bin/gnu/h-x86_64-mingw32/bin/../lib/gcc/nios2-elf/4.8.3/../../../../../H-x86_64-mingw32/nios2-elf/lib/mno-hw-mul\libc.a(lib_a-fvwrite.o)
                              c:/altera/14.1/nios2eds/bin/gnu/h-x86_64-mingw32/bin/../lib/gcc/nios2-elf/4.8.3/../../../../../H-x86_64-mingw32/nios2-elf/lib/mno-hw-mul\libc.a(lib_a-puts.o) (__sfvwrite_r)
c:/altera/14.1/nios2eds/bin/gnu/h-x86_64-mingw32/bin/../lib/gcc/nios2-elf/4.8.3/../../../../../H-x86_64-mingw32/nios2-elf/lib/mno-hw-mul\libc.a(lib_a-fwalk.o)
                              c:/altera/14.1/nios2eds/bin/gnu/h-x86_64-mingw32/bin/../lib/gcc/nios2-elf/4.8.3/../../../../../H-x86_64-mingw32/nios2-elf/lib/mno-hw-mul\libc.a(lib_a-findfp.o) (_fwalk)
c:/altera/14.1/nios2eds/bin/gnu/h-x86_64-mingw32/bin/../lib/gcc/nios2-elf/4.8.3/../../../../../H-x86_64-mingw32/nios2-elf/lib/mno-hw-mul\libc.a(lib_a-mallocr.o)
                              c:/altera/14.1/nios2eds/bin/gnu/h-x86_64-mingw32/bin/../lib/gcc/nios2-elf/4.8.3/../../../../../H-x86_64-mingw32/nios2-elf/lib/mno-hw-mul\libc.a(lib_a-findfp.o) (_malloc_r)
c:/altera/14.1/nios2eds/bin/gnu/h-x86_64-mingw32/bin/../lib/gcc/nios2-elf/4.8.3/../../../../../H-x86_64-mingw32/nios2-elf/lib/mno-hw-mul\libc.a(lib_a-memchr.o)
                              c:/altera/14.1/nios2eds/bin/gnu/h-x86_64-mingw32/bin/../lib/gcc/nios2-elf/4.8.3/../../../../../H-x86_64-mingw32/nios2-elf/lib/mno-hw-mul\libc.a(lib_a-fvwrite.o) (memchr)
c:/altera/14.1/nios2eds/bin/gnu/h-x86_64-mingw32/bin/../lib/gcc/nios2-elf/4.8.3/../../../../../H-x86_64-mingw32/nios2-elf/lib/mno-hw-mul\libc.a(lib_a-memcpy.o)
                              c:/altera/14.1/nios2eds/bin/gnu/h-x86_64-mingw32/bin/../lib/gcc/nios2-elf/4.8.3/../../../../../H-x86_64-mingw32/nios2-elf/lib/mno-hw-mul\libc.a(lib_a-fvwrite.o) (memcpy)
c:/altera/14.1/nios2eds/bin/gnu/h-x86_64-mingw32/bin/../lib/gcc/nios2-elf/4.8.3/../../../../../H-x86_64-mingw32/nios2-elf/lib/mno-hw-mul\libc.a(lib_a-memmove.o)
                              c:/altera/14.1/nios2eds/bin/gnu/h-x86_64-mingw32/bin/../lib/gcc/nios2-elf/4.8.3/../../../../../H-x86_64-mingw32/nios2-elf/lib/mno-hw-mul\libc.a(lib_a-fvwrite.o) (memmove)
c:/altera/14.1/nios2eds/bin/gnu/h-x86_64-mingw32/bin/../lib/gcc/nios2-elf/4.8.3/../../../../../H-x86_64-mingw32/nios2-elf/lib/mno-hw-mul\libc.a(lib_a-memset.o)
                              c:/altera/14.1/nios2eds/bin/gnu/h-x86_64-mingw32/bin/../lib/gcc/nios2-elf/4.8.3/../../../../../H-x86_64-mingw32/nios2-elf/lib/mno-hw-mul\libc.a(lib_a-findfp.o) (memset)
c:/altera/14.1/nios2eds/bin/gnu/h-x86_64-mingw32/bin/../lib/gcc/nios2-elf/4.8.3/../../../../../H-x86_64-mingw32/nios2-elf/lib/mno-hw-mul\libc.a(lib_a-putc.o)
                              c:/altera/14.1/nios2eds/bin/gnu/h-x86_64-mingw32/bin/../lib/gcc/nios2-elf/4.8.3/../../../../../H-x86_64-mingw32/nios2-elf/lib/mno-hw-mul\libc.a(lib_a-putchar.o) (_putc_r)
c:/altera/14.1/nios2eds/bin/gnu/h-x86_64-mingw32/bin/../lib/gcc/nios2-elf/4.8.3/../../../../../H-x86_64-mingw32/nios2-elf/lib/mno-hw-mul\libc.a(lib_a-reallocr.o)
                              c:/altera/14.1/nios2eds/bin/gnu/h-x86_64-mingw32/bin/../lib/gcc/nios2-elf/4.8.3/../../../../../H-x86_64-mingw32/nios2-elf/lib/mno-hw-mul\libc.a(lib_a-fvwrite.o) (_realloc_r)
c:/altera/14.1/nios2eds/bin/gnu/h-x86_64-mingw32/bin/../lib/gcc/nios2-elf/4.8.3/../../../../../H-x86_64-mingw32/nios2-elf/lib/mno-hw-mul\libc.a(lib_a-refill.o)
                              c:/altera/14.1/nios2eds/bin/gnu/h-x86_64-mingw32/bin/../lib/gcc/nios2-elf/4.8.3/../../../../../H-x86_64-mingw32/nios2-elf/lib/mno-hw-mul\libc.a(lib_a-rget.o) (__srefill_r)
c:/altera/14.1/nios2eds/bin/gnu/h-x86_64-mingw32/bin/../lib/gcc/nios2-elf/4.8.3/../../../../../H-x86_64-mingw32/nios2-elf/lib/mno-hw-mul\libc.a(lib_a-sbrkr.o)
                              c:/altera/14.1/nios2eds/bin/gnu/h-x86_64-mingw32/bin/../lib/gcc/nios2-elf/4.8.3/../../../../../H-x86_64-mingw32/nios2-elf/lib/mno-hw-mul\libc.a(lib_a-mallocr.o) (_sbrk_r)
c:/altera/14.1/nios2eds/bin/gnu/h-x86_64-mingw32/bin/../lib/gcc/nios2-elf/4.8.3/../../../../../H-x86_64-mingw32/nios2-elf/lib/mno-hw-mul\libc.a(lib_a-stdio.o)
                              c:/altera/14.1/nios2eds/bin/gnu/h-x86_64-mingw32/bin/../lib/gcc/nios2-elf/4.8.3/../../../../../H-x86_64-mingw32/nios2-elf/lib/mno-hw-mul\libc.a(lib_a-findfp.o) (__sread)
c:/altera/14.1/nios2eds/bin/gnu/h-x86_64-mingw32/bin/../lib/gcc/nios2-elf/4.8.3/../../../../../H-x86_64-mingw32/nios2-elf/lib/mno-hw-mul\libc.a(lib_a-wbuf.o)
                              c:/altera/14.1/nios2eds/bin/gnu/h-x86_64-mingw32/bin/../lib/gcc/nios2-elf/4.8.3/../../../../../H-x86_64-mingw32/nios2-elf/lib/mno-hw-mul\libc.a(lib_a-putc.o) (__swbuf_r)
c:/altera/14.1/nios2eds/bin/gnu/h-x86_64-mingw32/bin/../lib/gcc/nios2-elf/4.8.3/../../../../../H-x86_64-mingw32/nios2-elf/lib/mno-hw-mul\libc.a(lib_a-writer.o)
                              c:/altera/14.1/nios2eds/bin/gnu/h-x86_64-mingw32/bin/../lib/gcc/nios2-elf/4.8.3/../../../../../H-x86_64-mingw32/nios2-elf/lib/mno-hw-mul\libc.a(lib_a-stdio.o) (_write_r)
c:/altera/14.1/nios2eds/bin/gnu/h-x86_64-mingw32/bin/../lib/gcc/nios2-elf/4.8.3/../../../../../H-x86_64-mingw32/nios2-elf/lib/mno-hw-mul\libc.a(lib_a-wsetup.o)
                              c:/altera/14.1/nios2eds/bin/gnu/h-x86_64-mingw32/bin/../lib/gcc/nios2-elf/4.8.3/../../../../../H-x86_64-mingw32/nios2-elf/lib/mno-hw-mul\libc.a(lib_a-fvwrite.o) (__swsetup_r)
c:/altera/14.1/nios2eds/bin/gnu/h-x86_64-mingw32/bin/../lib/gcc/nios2-elf/4.8.3/../../../../../H-x86_64-mingw32/nios2-elf/lib/mno-hw-mul\libc.a(closer.o)
                              c:/altera/14.1/nios2eds/bin/gnu/h-x86_64-mingw32/bin/../lib/gcc/nios2-elf/4.8.3/../../../../../H-x86_64-mingw32/nios2-elf/lib/mno-hw-mul\libc.a(lib_a-stdio.o) (_close_r)
c:/altera/14.1/nios2eds/bin/gnu/h-x86_64-mingw32/bin/../lib/gcc/nios2-elf/4.8.3/../../../../../H-x86_64-mingw32/nios2-elf/lib/mno-hw-mul\libc.a(lib_a-fclose.o)
                              c:/altera/14.1/nios2eds/bin/gnu/h-x86_64-mingw32/bin/../lib/gcc/nios2-elf/4.8.3/../../../../../H-x86_64-mingw32/nios2-elf/lib/mno-hw-mul\libc.a(lib_a-findfp.o) (fclose)
c:/altera/14.1/nios2eds/bin/gnu/h-x86_64-mingw32/bin/../lib/gcc/nios2-elf/4.8.3/../../../../../H-x86_64-mingw32/nios2-elf/lib/mno-hw-mul\libc.a(lib_a-fflush.o)
                              c:/altera/14.1/nios2eds/bin/gnu/h-x86_64-mingw32/bin/../lib/gcc/nios2-elf/4.8.3/../../../../../H-x86_64-mingw32/nios2-elf/lib/mno-hw-mul\libc.a(lib_a-fvwrite.o) (_fflush_r)
c:/altera/14.1/nios2eds/bin/gnu/h-x86_64-mingw32/bin/../lib/gcc/nios2-elf/4.8.3/../../../../../H-x86_64-mingw32/nios2-elf/lib/mno-hw-mul\libc.a(lib_a-freer.o)
                              c:/altera/14.1/nios2eds/bin/gnu/h-x86_64-mingw32/bin/../lib/gcc/nios2-elf/4.8.3/../../../../../H-x86_64-mingw32/nios2-elf/lib/mno-hw-mul\libc.a(lib_a-fvwrite.o) (_free_r)
c:/altera/14.1/nios2eds/bin/gnu/h-x86_64-mingw32/bin/../lib/gcc/nios2-elf/4.8.3/../../../../../H-x86_64-mingw32/nios2-elf/lib/mno-hw-mul\libc.a(lib_a-int_errno.o)
                              c:/altera/14.1/nios2eds/bin/gnu/h-x86_64-mingw32/bin/../lib/gcc/nios2-elf/4.8.3/../../../../../H-x86_64-mingw32/nios2-elf/lib/mno-hw-mul\libc.a(lib_a-sbrkr.o) (errno)
c:/altera/14.1/nios2eds/bin/gnu/h-x86_64-mingw32/bin/../lib/gcc/nios2-elf/4.8.3/../../../../../H-x86_64-mingw32/nios2-elf/lib/mno-hw-mul\libc.a(lib_a-lseekr.o)
                              c:/altera/14.1/nios2eds/bin/gnu/h-x86_64-mingw32/bin/../lib/gcc/nios2-elf/4.8.3/../../../../../H-x86_64-mingw32/nios2-elf/lib/mno-hw-mul\libc.a(lib_a-stdio.o) (_lseek_r)
c:/altera/14.1/nios2eds/bin/gnu/h-x86_64-mingw32/bin/../lib/gcc/nios2-elf/4.8.3/../../../../../H-x86_64-mingw32/nios2-elf/lib/mno-hw-mul\libc.a(lib_a-makebuf.o)
                              c:/altera/14.1/nios2eds/bin/gnu/h-x86_64-mingw32/bin/../lib/gcc/nios2-elf/4.8.3/../../../../../H-x86_64-mingw32/nios2-elf/lib/mno-hw-mul\libc.a(lib_a-refill.o) (__smakebuf_r)
c:/altera/14.1/nios2eds/bin/gnu/h-x86_64-mingw32/bin/../lib/gcc/nios2-elf/4.8.3/../../../../../H-x86_64-mingw32/nios2-elf/lib/mno-hw-mul\libc.a(lib_a-readr.o)
                              c:/altera/14.1/nios2eds/bin/gnu/h-x86_64-mingw32/bin/../lib/gcc/nios2-elf/4.8.3/../../../../../H-x86_64-mingw32/nios2-elf/lib/mno-hw-mul\libc.a(lib_a-stdio.o) (_read_r)
c:/altera/14.1/nios2eds/bin/gnu/h-x86_64-mingw32/bin/../lib/gcc/nios2-elf/4.8.3/../../../../../H-x86_64-mingw32/nios2-elf/lib/mno-hw-mul\libc.a(lib_a-fstatr.o)
                              c:/altera/14.1/nios2eds/bin/gnu/h-x86_64-mingw32/bin/../lib/gcc/nios2-elf/4.8.3/../../../../../H-x86_64-mingw32/nios2-elf/lib/mno-hw-mul\libc.a(lib_a-makebuf.o) (_fstat_r)
c:/altera/14.1/nios2eds/bin/gnu/h-x86_64-mingw32/bin/../lib/gcc/nios2-elf/4.8.3/../../../../../H-x86_64-mingw32/nios2-elf/lib/mno-hw-mul\libc.a(lib_a-isattyr.o)
                              c:/altera/14.1/nios2eds/bin/gnu/h-x86_64-mingw32/bin/../lib/gcc/nios2-elf/4.8.3/../../../../../H-x86_64-mingw32/nios2-elf/lib/mno-hw-mul\libc.a(lib_a-makebuf.o) (_isatty_r)
../LEDTile_BSP2\libhal_bsp.a(alt_alarm_start.o)
                              obj/default/main.o (alt_alarm_start)
../LEDTile_BSP2\libhal_bsp.a(alt_close.o)
                              c:/altera/14.1/nios2eds/bin/gnu/h-x86_64-mingw32/bin/../lib/gcc/nios2-elf/4.8.3/../../../../../H-x86_64-mingw32/nios2-elf/lib/mno-hw-mul\libc.a(closer.o) (close)
../LEDTile_BSP2\libhal_bsp.a(alt_dev.o)
                              ../LEDTile_BSP2\libhal_bsp.a(alt_close.o) (alt_fd_list)
../LEDTile_BSP2\libhal_bsp.a(alt_errno.o)
                              ../LEDTile_BSP2\libhal_bsp.a(alt_close.o) (alt_errno)
../LEDTile_BSP2\libhal_bsp.a(alt_fstat.o)
                              c:/altera/14.1/nios2eds/bin/gnu/h-x86_64-mingw32/bin/../lib/gcc/nios2-elf/4.8.3/../../../../../H-x86_64-mingw32/nios2-elf/lib/mno-hw-mul\libc.a(lib_a-fstatr.o) (fstat)
../LEDTile_BSP2\libhal_bsp.a(alt_isatty.o)
                              c:/altera/14.1/nios2eds/bin/gnu/h-x86_64-mingw32/bin/../lib/gcc/nios2-elf/4.8.3/../../../../../H-x86_64-mingw32/nios2-elf/lib/mno-hw-mul\libc.a(lib_a-isattyr.o) (isatty)
../LEDTile_BSP2\libhal_bsp.a(alt_lseek.o)
                              c:/altera/14.1/nios2eds/bin/gnu/h-x86_64-mingw32/bin/../lib/gcc/nios2-elf/4.8.3/../../../../../H-x86_64-mingw32/nios2-elf/lib/mno-hw-mul\libc.a(lib_a-lseekr.o) (lseek)
../LEDTile_BSP2\libhal_bsp.a(alt_main.o)
                              ../LEDTile_BSP2/obj/HAL/src/crt0.o (alt_main)
../LEDTile_BSP2\libhal_bsp.a(alt_malloc_lock.o)
                              c:/altera/14.1/nios2eds/bin/gnu/h-x86_64-mingw32/bin/../lib/gcc/nios2-elf/4.8.3/../../../../../H-x86_64-mingw32/nios2-elf/lib/mno-hw-mul\libc.a(lib_a-mallocr.o) (__malloc_lock)
../LEDTile_BSP2\libhal_bsp.a(alt_read.o)
                              c:/altera/14.1/nios2eds/bin/gnu/h-x86_64-mingw32/bin/../lib/gcc/nios2-elf/4.8.3/../../../../../H-x86_64-mingw32/nios2-elf/lib/mno-hw-mul\libc.a(lib_a-readr.o) (read)
../LEDTile_BSP2\libhal_bsp.a(alt_release_fd.o)
                              ../LEDTile_BSP2\libhal_bsp.a(alt_close.o) (alt_release_fd)
../LEDTile_BSP2\libhal_bsp.a(alt_sbrk.o)
                              c:/altera/14.1/nios2eds/bin/gnu/h-x86_64-mingw32/bin/../lib/gcc/nios2-elf/4.8.3/../../../../../H-x86_64-mingw32/nios2-elf/lib/mno-hw-mul\libc.a(lib_a-sbrkr.o) (sbrk)
../LEDTile_BSP2\libhal_bsp.a(alt_tick.o)
                              ../LEDTile_BSP2\libhal_bsp.a(alt_alarm_start.o) (_alt_tick_rate)
../LEDTile_BSP2\libhal_bsp.a(alt_write.o)
                              c:/altera/14.1/nios2eds/bin/gnu/h-x86_64-mingw32/bin/../lib/gcc/nios2-elf/4.8.3/../../../../../H-x86_64-mingw32/nios2-elf/lib/mno-hw-mul\libc.a(lib_a-writer.o) (write)
../LEDTile_BSP2\libhal_bsp.a(alt_sys_init.o)
                              ../LEDTile_BSP2\libhal_bsp.a(alt_main.o) (alt_irq_init)
../LEDTile_BSP2\libhal_bsp.a(altera_avalon_epcs_flash_controller.o)
                              ../LEDTile_BSP2\libhal_bsp.a(alt_sys_init.o) (alt_epcs_flash_init)
../LEDTile_BSP2\libhal_bsp.a(altera_avalon_jtag_uart_fd.o)
                              ../LEDTile_BSP2\libhal_bsp.a(alt_sys_init.o) (altera_avalon_jtag_uart_read_fd)
../LEDTile_BSP2\libhal_bsp.a(altera_avalon_jtag_uart_init.o)
                              ../LEDTile_BSP2\libhal_bsp.a(alt_sys_init.o) (altera_avalon_jtag_uart_init)
../LEDTile_BSP2\libhal_bsp.a(altera_avalon_jtag_uart_ioctl.o)
                              ../LEDTile_BSP2\libhal_bsp.a(altera_avalon_jtag_uart_fd.o) (altera_avalon_jtag_uart_ioctl)
../LEDTile_BSP2\libhal_bsp.a(altera_avalon_jtag_uart_read.o)
                              ../LEDTile_BSP2\libhal_bsp.a(altera_avalon_jtag_uart_fd.o) (altera_avalon_jtag_uart_read)
../LEDTile_BSP2\libhal_bsp.a(altera_avalon_jtag_uart_write.o)
                              ../LEDTile_BSP2\libhal_bsp.a(altera_avalon_jtag_uart_fd.o) (altera_avalon_jtag_uart_write)
../LEDTile_BSP2\libhal_bsp.a(altera_avalon_timer_sc.o)
                              ../LEDTile_BSP2\libhal_bsp.a(alt_sys_init.o) (alt_avalon_timer_sc_init)
../LEDTile_BSP2\libhal_bsp.a(altera_avalon_uart_fd.o)
                              ../LEDTile_BSP2\libhal_bsp.a(alt_sys_init.o) (altera_avalon_uart_read_fd)
../LEDTile_BSP2\libhal_bsp.a(altera_avalon_uart_init.o)
                              ../LEDTile_BSP2\libhal_bsp.a(alt_sys_init.o) (altera_avalon_uart_init)
../LEDTile_BSP2\libhal_bsp.a(altera_avalon_uart_read.o)
                              ../LEDTile_BSP2\libhal_bsp.a(altera_avalon_uart_fd.o) (altera_avalon_uart_read)
../LEDTile_BSP2\libhal_bsp.a(altera_avalon_uart_write.o)
                              ../LEDTile_BSP2\libhal_bsp.a(altera_avalon_uart_fd.o) (altera_avalon_uart_write)
../LEDTile_BSP2\libhal_bsp.a(epcs_commands.o)
                              ../LEDTile_BSP2\libhal_bsp.a(altera_avalon_epcs_flash_controller.o) (epcs_sector_erase)
../LEDTile_BSP2\libhal_bsp.a(alt_dev_llist_insert.o)
                              ../LEDTile_BSP2\libhal_bsp.a(alt_sys_init.o) (alt_dev_llist_insert)
../LEDTile_BSP2\libhal_bsp.a(alt_do_ctors.o)
                              ../LEDTile_BSP2\libhal_bsp.a(alt_main.o) (_do_ctors)
../LEDTile_BSP2\libhal_bsp.a(alt_do_dtors.o)
                              ../LEDTile_BSP2\libhal_bsp.a(alt_main.o) (_do_dtors)
../LEDTile_BSP2\libhal_bsp.a(alt_flash_dev.o)
                              ../LEDTile_BSP2\libhal_bsp.a(altera_avalon_epcs_flash_controller.o) (alt_flash_dev_list)
../LEDTile_BSP2\libhal_bsp.a(alt_iic.o)
                              ../LEDTile_BSP2\libhal_bsp.a(altera_avalon_jtag_uart_init.o) (alt_ic_isr_register)
../LEDTile_BSP2\libhal_bsp.a(alt_iic_isr_register.o)
                              ../LEDTile_BSP2\libhal_bsp.a(alt_iic.o) (alt_iic_isr_register)
../LEDTile_BSP2\libhal_bsp.a(alt_io_redirect.o)
                              ../LEDTile_BSP2\libhal_bsp.a(alt_main.o) (alt_io_redirect)
../LEDTile_BSP2\libhal_bsp.a(alt_irq_entry.o)
                              ../LEDTile_BSP2\libhal_bsp.a(alt_iic_isr_register.o) (alt_irq_entry)
../LEDTile_BSP2\libhal_bsp.a(alt_irq_handler.o)
                              ../LEDTile_BSP2\libhal_bsp.a(alt_iic_isr_register.o) (alt_irq)
../LEDTile_BSP2\libhal_bsp.a(alt_irq_vars.o)
                              ../LEDTile_BSP2\libhal_bsp.a(alt_iic.o) (alt_irq_active)
../LEDTile_BSP2\libhal_bsp.a(alt_open.o)
                              ../LEDTile_BSP2\libhal_bsp.a(alt_io_redirect.o) (open)
../LEDTile_BSP2\libhal_bsp.a(altera_nios2_gen2_irq.o)
                              ../LEDTile_BSP2\libhal_bsp.a(alt_sys_init.o) (altera_nios2_gen2_irq_init)
../LEDTile_BSP2\libhal_bsp.a(altera_avalon_spi.o)
                              ../LEDTile_BSP2\libhal_bsp.a(epcs_commands.o) (alt_avalon_spi_command)
../LEDTile_BSP2\libhal_bsp.a(alt_exception_entry.o)
                              ../LEDTile_BSP2\libhal_bsp.a(alt_irq_entry.o) (alt_exception)
../LEDTile_BSP2\libhal_bsp.a(alt_find_dev.o)
                              ../LEDTile_BSP2\libhal_bsp.a(alt_flash_dev.o) (alt_find_dev)
../LEDTile_BSP2\libhal_bsp.a(alt_find_file.o)
                              ../LEDTile_BSP2\libhal_bsp.a(alt_open.o) (alt_find_file)
../LEDTile_BSP2\libhal_bsp.a(alt_get_fd.o)
                              ../LEDTile_BSP2\libhal_bsp.a(alt_open.o) (alt_get_fd)
../LEDTile_BSP2\libhal_bsp.a(alt_instruction_exception_entry.o)
                              ../LEDTile_BSP2\libhal_bsp.a(alt_exception_entry.o) (alt_instruction_exception_entry)
c:/altera/14.1/nios2eds/bin/gnu/h-x86_64-mingw32/bin/../lib/gcc/nios2-elf/4.8.3/../../../../../H-x86_64-mingw32/nios2-elf/lib/mno-hw-mul\libc.a(lib_a-atexit.o)
                              ../LEDTile_BSP2\libhal_bsp.a(alt_main.o) (atexit)
c:/altera/14.1/nios2eds/bin/gnu/h-x86_64-mingw32/bin/../lib/gcc/nios2-elf/4.8.3/../../../../../H-x86_64-mingw32/nios2-elf/lib/mno-hw-mul\libc.a(lib_a-exit.o)
                              ../LEDTile_BSP2\libhal_bsp.a(alt_main.o) (exit)
c:/altera/14.1/nios2eds/bin/gnu/h-x86_64-mingw32/bin/../lib/gcc/nios2-elf/4.8.3/../../../../../H-x86_64-mingw32/nios2-elf/lib/mno-hw-mul\libc.a(lib_a-memcmp.o)
                              ../LEDTile_BSP2\libhal_bsp.a(altera_avalon_epcs_flash_controller.o) (memcmp)
c:/altera/14.1/nios2eds/bin/gnu/h-x86_64-mingw32/bin/../lib/gcc/nios2-elf/4.8.3/../../../../../H-x86_64-mingw32/nios2-elf/lib/mno-hw-mul\libc.a(lib_a-__atexit.o)
                              c:/altera/14.1/nios2eds/bin/gnu/h-x86_64-mingw32/bin/../lib/gcc/nios2-elf/4.8.3/../../../../../H-x86_64-mingw32/nios2-elf/lib/mno-hw-mul\libc.a(lib_a-atexit.o) (__register_exitproc)
c:/altera/14.1/nios2eds/bin/gnu/h-x86_64-mingw32/bin/../lib/gcc/nios2-elf/4.8.3/../../../../../H-x86_64-mingw32/nios2-elf/lib/mno-hw-mul\libc.a(lib_a-__call_atexit.o)
                              c:/altera/14.1/nios2eds/bin/gnu/h-x86_64-mingw32/bin/../lib/gcc/nios2-elf/4.8.3/../../../../../H-x86_64-mingw32/nios2-elf/lib/mno-hw-mul\libc.a(lib_a-exit.o) (__call_exitprocs)
../LEDTile_BSP2\libhal_bsp.a(alt_exit.o)
                              c:/altera/14.1/nios2eds/bin/gnu/h-x86_64-mingw32/bin/../lib/gcc/nios2-elf/4.8.3/../../../../../H-x86_64-mingw32/nios2-elf/lib/mno-hw-mul\libc.a(lib_a-exit.o) (_exit)

Allocating common symbols
Common symbol       size              file

alt_irq             0x100             ../LEDTile_BSP2\libhal_bsp.a(alt_irq_handler.o)
errno               0x4               c:/altera/14.1/nios2eds/bin/gnu/h-x86_64-mingw32/bin/../lib/gcc/nios2-elf/4.8.3/../../../../../H-x86_64-mingw32/nios2-elf/lib/mno-hw-mul\libc.a(lib_a-int_errno.o)
currentAnimation    0x4               obj/default/main.o

Memory Configuration

Name             Origin             Length             Attributes
sdram_controller_BEFORE_EXCEPTION 0x0000000002000000 0x0000000000000020
sdram_controller 0x0000000002000020 0x0000000001ffffe0
onchip_memory2   0x0000000004000000 0x0000000000006590
reset            0x0000000004009000 0x0000000000000020
epcs_flash_controller 0x0000000004009020 0x00000000000007e0
*default*        0x0000000000000000 0xffffffffffffffff

Linker script and memory map

LOAD ../LEDTile_BSP2/obj/HAL/src/crt0.o
LOAD obj/default/main.o
LOAD ../LEDTileLib/obj/default\libLEDTileLib.a
LOAD c:/altera/14.1/nios2eds/bin/gnu/h-x86_64-mingw32/bin/../lib/gcc/nios2-elf/4.8.3/../../../../../H-x86_64-mingw32/nios2-elf/lib/mno-hw-mul\libstdc++.a
LOAD c:/altera/14.1/nios2eds/bin/gnu/h-x86_64-mingw32/bin/../lib/gcc/nios2-elf/4.8.3/../../../../../H-x86_64-mingw32/nios2-elf/lib/mno-hw-mul\libm.a
LOAD c:/altera/14.1/nios2eds/bin/gnu/h-x86_64-mingw32/bin/../lib/gcc/nios2-elf/4.8.3/mno-hw-mul\libgcc.a
START GROUP
LOAD c:/altera/14.1/nios2eds/bin/gnu/h-x86_64-mingw32/bin/../lib/gcc/nios2-elf/4.8.3/../../../../../H-x86_64-mingw32/nios2-elf/lib/mno-hw-mul\libc.a
LOAD c:/altera/14.1/nios2eds/bin/gnu/h-x86_64-mingw32/bin/../lib/gcc/nios2-elf/4.8.3/mno-hw-mul\libgcc.a
LOAD ../LEDTile_BSP2\libhal_bsp.a
END GROUP
LOAD c:/altera/14.1/nios2eds/bin/gnu/h-x86_64-mingw32/bin/../lib/gcc/nios2-elf/4.8.3/mno-hw-mul\libgcc.a
                0x0000000002000000                __alt_mem_sdram_controller = 0x2000000
                0x0000000004000000                __alt_mem_onchip_memory2 = 0x4000000
                0x0000000004009000                __alt_mem_epcs_flash_controller = 0x4009000

.entry          0x0000000004009000        0x0
 *(.entry)
 .entry         0x0000000004009000        0x0 ../LEDTile_BSP2/obj/HAL/src/crt0.o
                0x0000000004009000                __reset

.exceptions     0x0000000002000020      0x20c
                0x0000000002000020                PROVIDE (__ram_exceptions_start, ABSOLUTE (.))
                0x0000000002000020                . = ALIGN (0x20)
 *(.irq)
 *(.exceptions.entry.label)
 .exceptions.entry.label
                0x0000000002000020        0x0 ../LEDTile_BSP2\libhal_bsp.a(alt_irq_entry.o)
                0x0000000002000020                alt_irq_entry
 .exceptions.entry.label
                0x0000000002000020        0x0 ../LEDTile_BSP2\libhal_bsp.a(alt_exception_entry.o)
                0x0000000002000020                alt_exception
 *(.exceptions.entry.user)
 *(.exceptions.entry.ecc_fatal)
 *(.exceptions.entry)
 .exceptions.entry
                0x0000000002000020       0x54 ../LEDTile_BSP2\libhal_bsp.a(alt_exception_entry.o)
 *(.exceptions.irqtest.user)
 *(.exceptions.irqtest)
 .exceptions.irqtest
                0x0000000002000074       0x10 ../LEDTile_BSP2\libhal_bsp.a(alt_irq_entry.o)
 *(.exceptions.irqhandler.user)
 *(.exceptions.irqhandler)
 .exceptions.irqhandler
                0x0000000002000084        0x4 ../LEDTile_BSP2\libhal_bsp.a(alt_irq_entry.o)
 *(.exceptions.irqreturn.user)
 *(.exceptions.irqreturn)
 .exceptions.irqreturn
                0x0000000002000088        0x4 ../LEDTile_BSP2\libhal_bsp.a(alt_irq_entry.o)
 *(.exceptions.notirq.label)
 .exceptions.notirq.label
                0x000000000200008c        0x0 ../LEDTile_BSP2\libhal_bsp.a(alt_irq_entry.o)
 *(.exceptions.notirq.user)
 *(.exceptions.notirq)
 .exceptions.notirq
                0x000000000200008c        0x8 ../LEDTile_BSP2\libhal_bsp.a(alt_exception_entry.o)
 *(.exceptions.soft.user)
 *(.exceptions.soft)
 *(.exceptions.unknown.user)
 *(.exceptions.unknown)
 .exceptions.unknown
                0x0000000002000094       0x14 ../LEDTile_BSP2\libhal_bsp.a(alt_exception_entry.o)
 *(.exceptions.exit.label)
 .exceptions.exit.label
                0x00000000020000a8        0x0 ../LEDTile_BSP2\libhal_bsp.a(alt_irq_entry.o)
 .exceptions.exit.label
                0x00000000020000a8        0x0 ../LEDTile_BSP2\libhal_bsp.a(alt_exception_entry.o)
 *(.exceptions.exit.user)
 *(.exceptions.exit)
 .exceptions.exit
                0x00000000020000a8       0x54 ../LEDTile_BSP2\libhal_bsp.a(alt_exception_entry.o)
 *(.exceptions)
 .exceptions    0x00000000020000fc       0xd0 ../LEDTile_BSP2\libhal_bsp.a(alt_irq_handler.o)
                0x00000000020000fc                alt_irq_handler
 .exceptions    0x00000000020001cc       0x60 ../LEDTile_BSP2\libhal_bsp.a(alt_instruction_exception_entry.o)
                0x00000000020001cc                alt_instruction_exception_entry
                0x000000000200022c                PROVIDE (__ram_exceptions_end, ABSOLUTE (.))
                0x0000000002000020                PROVIDE (__flash_exceptions_start, LOADADDR (.exceptions))

.text           0x000000000200022c     0xa824
                0x000000000200022c                PROVIDE (stext, ABSOLUTE (.))
 *(.interp)
 *(.hash)
 *(.dynsym)
 *(.dynstr)
 *(.gnu.version)
 *(.gnu.version_d)
 *(.gnu.version_r)
 *(.rel.init)
 *(.rela.init)
 *(.rel.text .rel.text.* .rel.gnu.linkonce.t.*)
 *(.rela.text .rela.text.* .rela.gnu.linkonce.t.*)
 *(.rel.fini)
 *(.rela.fini)
 *(.rel.rodata .rel.rodata.* .rel.gnu.linkonce.r.*)
 *(.rela.rodata .rela.rodata.* .rela.gnu.linkonce.r.*)
 *(.rel.data .rel.data.* .rel.gnu.linkonce.d.*)
 *(.rela.data .rela.data.* .rela.gnu.linkonce.d.*)
 *(.rel.tdata .rel.tdata.* .rel.gnu.linkonce.td.*)
 *(.rela.tdata .rela.tdata.* .rela.gnu.linkonce.td.*)
 *(.rel.tbss .rel.tbss.* .rel.gnu.linkonce.tb.*)
 *(.rela.tbss .rela.tbss.* .rela.gnu.linkonce.tb.*)
 *(.rel.ctors)
 *(.rela.ctors)
 *(.rel.dtors)
 *(.rela.dtors)
 *(.rel.got)
 *(.rela.got)
 *(.rel.sdata .rel.sdata.* .rel.gnu.linkonce.s.*)
 *(.rela.sdata .rela.sdata.* .rela.gnu.linkonce.s.*)
 *(.rel.sbss .rel.sbss.* .rel.gnu.linkonce.sb.*)
 *(.rela.sbss .rela.sbss.* .rela.gnu.linkonce.sb.*)
 *(.rel.sdata2 .rel.sdata2.* .rel.gnu.linkonce.s2.*)
 *(.rela.sdata2 .rela.sdata2.* .rela.gnu.linkonce.s2.*)
 *(.rel.sbss2 .rel.sbss2.* .rel.gnu.linkonce.sb2.*)
 *(.rela.sbss2 .rela.sbss2.* .rela.gnu.linkonce.sb2.*)
 *(.rel.bss .rel.bss.* .rel.gnu.linkonce.b.*)
 *(.rela.bss .rela.bss.* .rela.gnu.linkonce.b.*)
 *(.rel.plt)
 *(.rela.plt)
 *(.rel.dyn)
 *(.init)
 *(.plt)
 *(.text .stub .text.* .gnu.linkonce.t.*)
 .text          0x000000000200022c       0x38 ../LEDTile_BSP2/obj/HAL/src/crt0.o
                0x000000000200022c                _start
 .text          0x0000000002000264      0x180 obj/default/main.o
                0x0000000002000264                longDelay
                0x00000000020002a0                frame_callback
                0x0000000002000314                main
 .text          0x00000000020003e4     0x1ba8 ../LEDTileLib/obj/default\libLEDTileLib.a(LEDTileLib.o)
                0x00000000020003e4                delay
                0x000000000200041c                blank
                0x00000000020004f4                displayBitmap
                0x0000000002000638                displayColourBars
                0x0000000002000dfc                displayCIEColourBars
                0x0000000002001260                displayGamma149ColourBars
                0x00000000020016c4                displayGamma98ColourBars
                0x0000000002001b28                displayGamma46ColourBars
 .text          0x0000000002001f8c      0x114 c:/altera/14.1/nios2eds/bin/gnu/h-x86_64-mingw32/bin/../lib/gcc/nios2-elf/4.8.3/mno-hw-mul\libgcc.a(lib2-divmod.o)
                0x0000000002001ffc                __divsi3
                0x0000000002002044                __modsi3
                0x0000000002002090                __udivsi3
                0x0000000002002098                __umodsi3
 .text          0x00000000020020a0      0x99c c:/altera/14.1/nios2eds/bin/gnu/h-x86_64-mingw32/bin/../lib/gcc/nios2-elf/4.8.3/mno-hw-mul\libgcc.a(divdf3.o)
                0x00000000020020a0                __divdf3
 .text          0x0000000002002a3c      0x800 c:/altera/14.1/nios2eds/bin/gnu/h-x86_64-mingw32/bin/../lib/gcc/nios2-elf/4.8.3/mno-hw-mul\libgcc.a(muldf3.o)
                0x0000000002002a3c                __muldf3
 .text          0x000000000200323c       0x80 c:/altera/14.1/nios2eds/bin/gnu/h-x86_64-mingw32/bin/../lib/gcc/nios2-elf/4.8.3/mno-hw-mul\libgcc.a(fixdfsi.o)
                0x000000000200323c                __fixdfsi
 .text          0x00000000020032bc       0xd0 c:/altera/14.1/nios2eds/bin/gnu/h-x86_64-mingw32/bin/../lib/gcc/nios2-elf/4.8.3/mno-hw-mul\libgcc.a(floatsidf.o)
                0x00000000020032bc                __floatsidf
 .text          0x000000000200338c       0xac c:/altera/14.1/nios2eds/bin/gnu/h-x86_64-mingw32/bin/../lib/gcc/nios2-elf/4.8.3/mno-hw-mul\libgcc.a(_clzsi2.o)
                0x000000000200338c                __clzsi2
 .text          0x0000000002003438       0x28 c:/altera/14.1/nios2eds/bin/gnu/h-x86_64-mingw32/bin/../lib/gcc/nios2-elf/4.8.3/mno-hw-mul\libgcc.a(lib2-mul.o)
                0x0000000002003438                __mulsi3
 .text          0x0000000002003460        0x0 c:/altera/14.1/nios2eds/bin/gnu/h-x86_64-mingw32/bin/../lib/gcc/nios2-elf/4.8.3/mno-hw-mul\libgcc.a(_clz.o)
 .text          0x0000000002003460      0x10c c:/altera/14.1/nios2eds/bin/gnu/h-x86_64-mingw32/bin/../lib/gcc/nios2-elf/4.8.3/../../../../../H-x86_64-mingw32/nios2-elf/lib/mno-hw-mul\libc.a(lib_a-getc.o)
                0x0000000002003460                _getc_r
                0x00000000020034e0                getc
 .text          0x000000000200356c        0x0 c:/altera/14.1/nios2eds/bin/gnu/h-x86_64-mingw32/bin/../lib/gcc/nios2-elf/4.8.3/../../../../../H-x86_64-mingw32/nios2-elf/lib/mno-hw-mul\libc.a(lib_a-impure.o)
 .text          0x000000000200356c       0x24 c:/altera/14.1/nios2eds/bin/gnu/h-x86_64-mingw32/bin/../lib/gcc/nios2-elf/4.8.3/../../../../../H-x86_64-mingw32/nios2-elf/lib/mno-hw-mul\libc.a(lib_a-putchar.o)
                0x000000000200356c                _putchar_r
                0x0000000002003574                putchar
 .text          0x0000000002003590       0xcc c:/altera/14.1/nios2eds/bin/gnu/h-x86_64-mingw32/bin/../lib/gcc/nios2-elf/4.8.3/../../../../../H-x86_64-mingw32/nios2-elf/lib/mno-hw-mul\libc.a(lib_a-puts.o)
                0x0000000002003590                _puts_r
                0x0000000002003648                puts
 .text          0x000000000200365c       0x88 c:/altera/14.1/nios2eds/bin/gnu/h-x86_64-mingw32/bin/../lib/gcc/nios2-elf/4.8.3/../../../../../H-x86_64-mingw32/nios2-elf/lib/mno-hw-mul\libc.a(lib_a-rget.o)
                0x000000000200365c                __srget_r
                0x00000000020036d0                __srget
 .text          0x00000000020036e4       0x8c c:/altera/14.1/nios2eds/bin/gnu/h-x86_64-mingw32/bin/../lib/gcc/nios2-elf/4.8.3/../../../../../H-x86_64-mingw32/nios2-elf/lib/mno-hw-mul\libc.a(lib_a-strlen.o)
                0x00000000020036e4                strlen
 .text          0x0000000002003770      0x3a4 c:/altera/14.1/nios2eds/bin/gnu/h-x86_64-mingw32/bin/../lib/gcc/nios2-elf/4.8.3/../../../../../H-x86_64-mingw32/nios2-elf/lib/mno-hw-mul\libc.a(lib_a-findfp.o)
                0x0000000002003780                _cleanup_r
                0x000000000200378c                __sfmoreglue
                0x0000000002003804                _cleanup
                0x000000000200381c                __sinit
                0x00000000020039b8                __sfp
                0x0000000002003ad4                __sfp_lock_acquire
                0x0000000002003ad8                __sfp_lock_release
                0x0000000002003adc                __sinit_lock_acquire
                0x0000000002003ae0                __sinit_lock_release
                0x0000000002003ae4                __fp_lock_all
                0x0000000002003afc                __fp_unlock_all
 .text          0x0000000002003b14      0x4ac c:/altera/14.1/nios2eds/bin/gnu/h-x86_64-mingw32/bin/../lib/gcc/nios2-elf/4.8.3/../../../../../H-x86_64-mingw32/nios2-elf/lib/mno-hw-mul\libc.a(lib_a-fvwrite.o)
                0x0000000002003b14                __sfvwrite_r
 .text          0x0000000002003fc0      0x160 c:/altera/14.1/nios2eds/bin/gnu/h-x86_64-mingw32/bin/../lib/gcc/nios2-elf/4.8.3/../../../../../H-x86_64-mingw32/nios2-elf/lib/mno-hw-mul\libc.a(lib_a-fwalk.o)
                0x0000000002003fc0                _fwalk
                0x0000000002004068                _fwalk_reent
 .text          0x0000000002004120      0x7c4 c:/altera/14.1/nios2eds/bin/gnu/h-x86_64-mingw32/bin/../lib/gcc/nios2-elf/4.8.3/../../../../../H-x86_64-mingw32/nios2-elf/lib/mno-hw-mul\libc.a(lib_a-mallocr.o)
                0x0000000002004120                _malloc_r
 .text          0x00000000020048e4       0xe8 c:/altera/14.1/nios2eds/bin/gnu/h-x86_64-mingw32/bin/../lib/gcc/nios2-elf/4.8.3/../../../../../H-x86_64-mingw32/nios2-elf/lib/mno-hw-mul\libc.a(lib_a-memchr.o)
                0x00000000020048e4                memchr
 .text          0x00000000020049cc      0x10c c:/altera/14.1/nios2eds/bin/gnu/h-x86_64-mingw32/bin/../lib/gcc/nios2-elf/4.8.3/../../../../../H-x86_64-mingw32/nios2-elf/lib/mno-hw-mul\libc.a(lib_a-memcpy.o)
                0x00000000020049cc                memcpy
 .text          0x0000000002004ad8      0x13c c:/altera/14.1/nios2eds/bin/gnu/h-x86_64-mingw32/bin/../lib/gcc/nios2-elf/4.8.3/../../../../../H-x86_64-mingw32/nios2-elf/lib/mno-hw-mul\libc.a(lib_a-memmove.o)
                0x0000000002004ad8                memmove
 .text          0x0000000002004c14      0x114 c:/altera/14.1/nios2eds/bin/gnu/h-x86_64-mingw32/bin/../lib/gcc/nios2-elf/4.8.3/../../../../../H-x86_64-mingw32/nios2-elf/lib/mno-hw-mul\libc.a(lib_a-memset.o)
                0x0000000002004c14                memset
 .text          0x0000000002004d28      0x16c c:/altera/14.1/nios2eds/bin/gnu/h-x86_64-mingw32/bin/../lib/gcc/nios2-elf/4.8.3/../../../../../H-x86_64-mingw32/nios2-elf/lib/mno-hw-mul\libc.a(lib_a-putc.o)
                0x0000000002004d28                _putc_r
                0x0000000002004dc8                putc
 .text          0x0000000002004e94      0x564 c:/altera/14.1/nios2eds/bin/gnu/h-x86_64-mingw32/bin/../lib/gcc/nios2-elf/4.8.3/../../../../../H-x86_64-mingw32/nios2-elf/lib/mno-hw-mul\libc.a(lib_a-reallocr.o)
                0x0000000002004e94                _realloc_r
 .text          0x00000000020053f8      0x1f4 c:/altera/14.1/nios2eds/bin/gnu/h-x86_64-mingw32/bin/../lib/gcc/nios2-elf/4.8.3/../../../../../H-x86_64-mingw32/nios2-elf/lib/mno-hw-mul\libc.a(lib_a-refill.o)
                0x0000000002005414                __srefill_r
 .text          0x00000000020055ec       0x64 c:/altera/14.1/nios2eds/bin/gnu/h-x86_64-mingw32/bin/../lib/gcc/nios2-elf/4.8.3/../../../../../H-x86_64-mingw32/nios2-elf/lib/mno-hw-mul\libc.a(lib_a-sbrkr.o)
                0x00000000020055ec                _sbrk_r
 .text          0x0000000002005650      0x13c c:/altera/14.1/nios2eds/bin/gnu/h-x86_64-mingw32/bin/../lib/gcc/nios2-elf/4.8.3/../../../../../H-x86_64-mingw32/nios2-elf/lib/mno-hw-mul\libc.a(lib_a-stdio.o)
                0x0000000002005650                __sread
                0x00000000020056a4                __seofread
                0x00000000020056ac                __swrite
                0x0000000002005728                __sseek
                0x0000000002005784                __sclose
 .text          0x000000000200578c      0x19c c:/altera/14.1/nios2eds/bin/gnu/h-x86_64-mingw32/bin/../lib/gcc/nios2-elf/4.8.3/../../../../../H-x86_64-mingw32/nios2-elf/lib/mno-hw-mul\libc.a(lib_a-wbuf.o)
                0x000000000200578c                __swbuf_r
                0x000000000200590c                __swbuf
 .text          0x0000000002005928       0x6c c:/altera/14.1/nios2eds/bin/gnu/h-x86_64-mingw32/bin/../lib/gcc/nios2-elf/4.8.3/../../../../../H-x86_64-mingw32/nios2-elf/lib/mno-hw-mul\libc.a(lib_a-writer.o)
                0x0000000002005928                _write_r
 .text          0x0000000002005994      0x138 c:/altera/14.1/nios2eds/bin/gnu/h-x86_64-mingw32/bin/../lib/gcc/nios2-elf/4.8.3/../../../../../H-x86_64-mingw32/nios2-elf/lib/mno-hw-mul\libc.a(lib_a-wsetup.o)
                0x0000000002005994                __swsetup_r
 .text          0x0000000002005acc       0x64 c:/altera/14.1/nios2eds/bin/gnu/h-x86_64-mingw32/bin/../lib/gcc/nios2-elf/4.8.3/../../../../../H-x86_64-mingw32/nios2-elf/lib/mno-hw-mul\libc.a(closer.o)
                0x0000000002005acc                _close_r
 .text          0x0000000002005b30      0x13c c:/altera/14.1/nios2eds/bin/gnu/h-x86_64-mingw32/bin/../lib/gcc/nios2-elf/4.8.3/../../../../../H-x86_64-mingw32/nios2-elf/lib/mno-hw-mul\libc.a(lib_a-fclose.o)
                0x0000000002005b30                _fclose_r
                0x0000000002005c58                fclose
 .text          0x0000000002005c6c      0x274 c:/altera/14.1/nios2eds/bin/gnu/h-x86_64-mingw32/bin/../lib/gcc/nios2-elf/4.8.3/../../../../../H-x86_64-mingw32/nios2-elf/lib/mno-hw-mul\libc.a(lib_a-fflush.o)
                0x0000000002005c6c                _fflush_r
                0x0000000002005eb0                fflush
 .text          0x0000000002005ee0      0x40c c:/altera/14.1/nios2eds/bin/gnu/h-x86_64-mingw32/bin/../lib/gcc/nios2-elf/4.8.3/../../../../../H-x86_64-mingw32/nios2-elf/lib/mno-hw-mul\libc.a(lib_a-freer.o)
                0x0000000002005ee0                _malloc_trim_r
                0x000000000200601c                _free_r
 .text          0x00000000020062ec        0x0 c:/altera/14.1/nios2eds/bin/gnu/h-x86_64-mingw32/bin/../lib/gcc/nios2-elf/4.8.3/../../../../../H-x86_64-mingw32/nios2-elf/lib/mno-hw-mul\libc.a(lib_a-int_errno.o)
 .text          0x00000000020062ec       0x6c c:/altera/14.1/nios2eds/bin/gnu/h-x86_64-mingw32/bin/../lib/gcc/nios2-elf/4.8.3/../../../../../H-x86_64-mingw32/nios2-elf/lib/mno-hw-mul\libc.a(lib_a-lseekr.o)
                0x00000000020062ec                _lseek_r
 .text          0x0000000002006358      0x1b4 c:/altera/14.1/nios2eds/bin/gnu/h-x86_64-mingw32/bin/../lib/gcc/nios2-elf/4.8.3/../../../../../H-x86_64-mingw32/nios2-elf/lib/mno-hw-mul\libc.a(lib_a-makebuf.o)
                0x0000000002006358                __smakebuf_r
 .text          0x000000000200650c       0x6c c:/altera/14.1/nios2eds/bin/gnu/h-x86_64-mingw32/bin/../lib/gcc/nios2-elf/4.8.3/../../../../../H-x86_64-mingw32/nios2-elf/lib/mno-hw-mul\libc.a(lib_a-readr.o)
                0x000000000200650c                _read_r
 .text          0x0000000002006578       0x68 c:/altera/14.1/nios2eds/bin/gnu/h-x86_64-mingw32/bin/../lib/gcc/nios2-elf/4.8.3/../../../../../H-x86_64-mingw32/nios2-elf/lib/mno-hw-mul\libc.a(lib_a-fstatr.o)
                0x0000000002006578                _fstat_r
 .text          0x00000000020065e0       0x64 c:/altera/14.1/nios2eds/bin/gnu/h-x86_64-mingw32/bin/../lib/gcc/nios2-elf/4.8.3/../../../../../H-x86_64-mingw32/nios2-elf/lib/mno-hw-mul\libc.a(lib_a-isattyr.o)
                0x00000000020065e0                _isatty_r
 .text          0x0000000002006644      0x140 ../LEDTile_BSP2\libhal_bsp.a(alt_alarm_start.o)
                0x0000000002006644                alt_alarm_start
 .text          0x0000000002006784      0x120 ../LEDTile_BSP2\libhal_bsp.a(alt_close.o)
                0x00000000020067d4                close
 .text          0x00000000020068a4       0x2c ../LEDTile_BSP2\libhal_bsp.a(alt_dev.o)
 .text          0x00000000020068d0        0x0 ../LEDTile_BSP2\libhal_bsp.a(alt_errno.o)
 .text          0x00000000020068d0      0x104 ../LEDTile_BSP2\libhal_bsp.a(alt_fstat.o)
                0x0000000002006920                fstat
 .text          0x00000000020069d4       0xf8 ../LEDTile_BSP2\libhal_bsp.a(alt_isatty.o)
                0x0000000002006a24                isatty
 .text          0x0000000002006acc      0x128 ../LEDTile_BSP2\libhal_bsp.a(alt_lseek.o)
                0x0000000002006b1c                lseek
 .text          0x0000000002006bf4       0x78 ../LEDTile_BSP2\libhal_bsp.a(alt_main.o)
                0x0000000002006bf4                alt_main
 .text          0x0000000002006c6c       0x40 ../LEDTile_BSP2\libhal_bsp.a(alt_malloc_lock.o)
                0x0000000002006c6c                __malloc_lock
                0x0000000002006c8c                __malloc_unlock
 .text          0x0000000002006cac      0x148 ../LEDTile_BSP2\libhal_bsp.a(alt_read.o)
                0x0000000002006cfc                read
 .text          0x0000000002006df4       0x80 ../LEDTile_BSP2\libhal_bsp.a(alt_release_fd.o)
                0x0000000002006df4                alt_release_fd
 .text          0x0000000002006e74       0xb0 ../LEDTile_BSP2\libhal_bsp.a(alt_sbrk.o)
                0x0000000002006e74                sbrk
 .text          0x0000000002006f24      0x19c ../LEDTile_BSP2\libhal_bsp.a(alt_tick.o)
                0x0000000002006f24                alt_alarm_stop
                0x0000000002006fbc                alt_tick
 .text          0x00000000020070c0      0x144 ../LEDTile_BSP2\libhal_bsp.a(alt_write.o)
                0x0000000002007110                write
 .text          0x0000000002007204       0xf8 ../LEDTile_BSP2\libhal_bsp.a(alt_sys_init.o)
                0x000000000200723c                alt_irq_init
                0x0000000002007270                alt_sys_init
 .text          0x00000000020072fc      0xafc ../LEDTile_BSP2\libhal_bsp.a(altera_avalon_epcs_flash_controller.o)
                0x0000000002007334                alt_epcs_flash_init
                0x0000000002007868                alt_epcs_flash_write
                0x0000000002007ac8                alt_epcs_flash_get_info
                0x0000000002007be8                alt_epcs_flash_erase_block
                0x0000000002007c5c                alt_epcs_flash_write_block
                0x0000000002007d60                alt_epcs_flash_read
 .text          0x0000000002007df8      0x164 ../LEDTile_BSP2\libhal_bsp.a(altera_avalon_jtag_uart_fd.o)
                0x0000000002007df8                altera_avalon_jtag_uart_read_fd
                0x0000000002007e58                altera_avalon_jtag_uart_write_fd
                0x0000000002007eb8                altera_avalon_jtag_uart_close_fd
                0x0000000002007f08                altera_avalon_jtag_uart_ioctl_fd
 .text          0x0000000002007f5c      0x3c8 ../LEDTile_BSP2\libhal_bsp.a(altera_avalon_jtag_uart_init.o)
                0x0000000002007f5c                altera_avalon_jtag_uart_init
                0x00000000020082bc                altera_avalon_jtag_uart_close
 .text          0x0000000002008324       0xec ../LEDTile_BSP2\libhal_bsp.a(altera_avalon_jtag_uart_ioctl.o)
                0x0000000002008324                altera_avalon_jtag_uart_ioctl
 .text          0x0000000002008410      0x208 ../LEDTile_BSP2\libhal_bsp.a(altera_avalon_jtag_uart_read.o)
                0x0000000002008410                altera_avalon_jtag_uart_read
 .text          0x0000000002008618      0x218 ../LEDTile_BSP2\libhal_bsp.a(altera_avalon_jtag_uart_write.o)
                0x0000000002008618                altera_avalon_jtag_uart_write
 .text          0x0000000002008830       0xfc ../LEDTile_BSP2\libhal_bsp.a(altera_avalon_timer_sc.o)
                0x00000000020088a4                alt_avalon_timer_sc_init
 .text          0x000000000200892c      0x110 ../LEDTile_BSP2\libhal_bsp.a(altera_avalon_uart_fd.o)
                0x000000000200892c                altera_avalon_uart_read_fd
                0x000000000200898c                altera_avalon_uart_write_fd
                0x00000000020089ec                altera_avalon_uart_close_fd
 .text          0x0000000002008a3c      0x3b4 ../LEDTile_BSP2\libhal_bsp.a(altera_avalon_uart_init.o)
                0x0000000002008a3c                altera_avalon_uart_init
                0x0000000002008d9c                altera_avalon_uart_close
 .text          0x0000000002008df0      0x22c ../LEDTile_BSP2\libhal_bsp.a(altera_avalon_uart_read.o)
                0x0000000002008e40                altera_avalon_uart_read
 .text          0x000000000200901c      0x1f8 ../LEDTile_BSP2\libhal_bsp.a(altera_avalon_uart_write.o)
                0x000000000200906c                altera_avalon_uart_write
 .text          0x0000000002009214      0x62c ../LEDTile_BSP2\libhal_bsp.a(epcs_commands.o)
                0x0000000002009214                epcs_read_status_register
                0x00000000020092e0                epcs_sector_erase
                0x00000000020093d8                epcs_read_buffer
                0x00000000020094cc                epcs_write_enable
                0x000000000200951c                epcs_write_status_register
                0x0000000002009584                epcs_write_buffer
                0x00000000020096a0                epcs_read_electronic_signature
                0x0000000002009708                epcs_read_device_id
                0x0000000002009788                epcs_enter_4_bytes_mode
                0x00000000020097e4                epcs_exit_4_bytes_mode
 .text          0x0000000002009840       0xf0 ../LEDTile_BSP2\libhal_bsp.a(alt_dev_llist_insert.o)
                0x0000000002009890                alt_dev_llist_insert
 .text          0x0000000002009930       0x5c ../LEDTile_BSP2\libhal_bsp.a(alt_do_ctors.o)
                0x0000000002009930                _do_ctors
 .text          0x000000000200998c       0x5c ../LEDTile_BSP2\libhal_bsp.a(alt_do_dtors.o)
                0x000000000200998c                _do_dtors
 .text          0x00000000020099e8       0xb8 ../LEDTile_BSP2\libhal_bsp.a(alt_flash_dev.o)
                0x00000000020099e8                alt_flash_open_dev
                0x0000000002009a50                alt_flash_close_dev
 .text          0x0000000002009aa0      0x1d8 ../LEDTile_BSP2\libhal_bsp.a(alt_iic.o)
                0x0000000002009aa0                alt_ic_isr_register
                0x0000000002009af0                alt_ic_irq_enable
                0x0000000002009b8c                alt_ic_irq_disable
                0x0000000002009c2c                alt_ic_irq_enabled
 .text          0x0000000002009c78       0xf0 ../LEDTile_BSP2\libhal_bsp.a(alt_iic_isr_register.o)
                0x0000000002009c78                alt_iic_isr_register
 .text          0x0000000002009d68      0x158 ../LEDTile_BSP2\libhal_bsp.a(alt_io_redirect.o)
                0x0000000002009e48                alt_io_redirect
 .text          0x0000000002009ec0        0x0 ../LEDTile_BSP2\libhal_bsp.a(alt_irq_entry.o)
 .text          0x0000000002009ec0        0x0 ../LEDTile_BSP2\libhal_bsp.a(alt_irq_handler.o)
 .text          0x0000000002009ec0        0x0 ../LEDTile_BSP2\libhal_bsp.a(alt_irq_vars.o)
 .text          0x0000000002009ec0      0x2a0 ../LEDTile_BSP2\libhal_bsp.a(alt_open.o)
                0x000000000200a004                open
 .text          0x000000000200a160       0x20 ../LEDTile_BSP2\libhal_bsp.a(altera_nios2_gen2_irq.o)
                0x000000000200a160                altera_nios2_gen2_irq_init
 .text          0x000000000200a180      0x1fc ../LEDTile_BSP2\libhal_bsp.a(altera_avalon_spi.o)
                0x000000000200a180                alt_avalon_spi_command
 .text          0x000000000200a37c        0x0 ../LEDTile_BSP2\libhal_bsp.a(alt_exception_entry.o)
 .text          0x000000000200a37c       0x90 ../LEDTile_BSP2\libhal_bsp.a(alt_find_dev.o)
                0x000000000200a37c                alt_find_dev
 .text          0x000000000200a40c      0x114 ../LEDTile_BSP2\libhal_bsp.a(alt_find_file.o)
                0x000000000200a40c                alt_find_file
 .text          0x000000000200a520       0xd4 ../LEDTile_BSP2\libhal_bsp.a(alt_get_fd.o)
                0x000000000200a520                alt_get_fd
 .text          0x000000000200a5f4       0xa0 ../LEDTile_BSP2\libhal_bsp.a(alt_instruction_exception_entry.o)
                0x000000000200a5f4                alt_exception_cause_generated_bad_addr
 .text          0x000000000200a694       0x14 c:/altera/14.1/nios2eds/bin/gnu/h-x86_64-mingw32/bin/../lib/gcc/nios2-elf/4.8.3/../../../../../H-x86_64-mingw32/nios2-elf/lib/mno-hw-mul\libc.a(lib_a-atexit.o)
                0x000000000200a694                atexit
 .text          0x000000000200a6a8       0x38 c:/altera/14.1/nios2eds/bin/gnu/h-x86_64-mingw32/bin/../lib/gcc/nios2-elf/4.8.3/../../../../../H-x86_64-mingw32/nios2-elf/lib/mno-hw-mul\libc.a(lib_a-exit.o)
                0x000000000200a6a8                exit
 .text          0x000000000200a6e0       0x7c c:/altera/14.1/nios2eds/bin/gnu/h-x86_64-mingw32/bin/../lib/gcc/nios2-elf/4.8.3/../../../../../H-x86_64-mingw32/nios2-elf/lib/mno-hw-mul\libc.a(lib_a-memcmp.o)
                0x000000000200a6e0                memcmp
 .text          0x000000000200a75c      0x11c c:/altera/14.1/nios2eds/bin/gnu/h-x86_64-mingw32/bin/../lib/gcc/nios2-elf/4.8.3/../../../../../H-x86_64-mingw32/nios2-elf/lib/mno-hw-mul\libc.a(lib_a-__atexit.o)
                0x000000000200a75c                __register_exitproc
 .text          0x000000000200a878      0x1a4 c:/altera/14.1/nios2eds/bin/gnu/h-x86_64-mingw32/bin/../lib/gcc/nios2-elf/4.8.3/../../../../../H-x86_64-mingw32/nios2-elf/lib/mno-hw-mul\libc.a(lib_a-__call_atexit.o)
                0x000000000200a878                __call_exitprocs
 .text          0x000000000200aa1c       0x34 ../LEDTile_BSP2\libhal_bsp.a(alt_exit.o)
                0x000000000200aa1c                _exit
 *(.gnu.warning.*)
 *(.fini)
                0x000000000200aa50                PROVIDE (__etext, ABSOLUTE (.))
                0x000000000200aa50                PROVIDE (_etext, ABSOLUTE (.))
                0x000000000200aa50                PROVIDE (etext, ABSOLUTE (.))
 *(.eh_frame_hdr)
                0x000000000200aa50                . = ALIGN (0x4)
                0x000000000200aa50                PROVIDE (__preinit_array_start, ABSOLUTE (.))
 *(.preinit_array)
                0x000000000200aa50                PROVIDE (__preinit_array_end, ABSOLUTE (.))
                0x000000000200aa50                PROVIDE (__init_array_start, ABSOLUTE (.))
 *(.init_array)
                0x000000000200aa50                PROVIDE (__init_array_end, ABSOLUTE (.))
                0x000000000200aa50                PROVIDE (__fini_array_start, ABSOLUTE (.))
 *(.fini_array)
                0x000000000200aa50                PROVIDE (__fini_array_end, ABSOLUTE (.))
 *(.eh_frame)
 *(.gcc_except_table .gcc_except_table.*)
 *(.dynamic)
                0x000000000200aa50                PROVIDE (__CTOR_LIST__, ABSOLUTE (.))
 *(.ctors)
 *(SORT(.ctors.*))
                0x000000000200aa50                PROVIDE (__CTOR_END__, ABSOLUTE (.))
                0x000000000200aa50                PROVIDE (__DTOR_LIST__, ABSOLUTE (.))
 *(.dtors)
 *(SORT(.dtors.*))
                0x000000000200aa50                PROVIDE (__DTOR_END__, ABSOLUTE (.))
 *(.jcr)
                0x000000000200aa50                . = ALIGN (0x4)

.rodata         0x000000000200aa50    0x72ddc
                0x000000000200aa50                PROVIDE (__ram_rodata_start, ABSOLUTE (.))
                0x000000000200aa50                . = ALIGN (0x4)
 *(.rodata .rodata.* .gnu.linkonce.r.*)
 .rodata        0x000000000200aa50    0x72280 obj/default/main.o
                0x000000000200aa60                question
                0x000000000200ea70                Cid_Walk_Front
                0x0000000002010a84                Rupee
                0x0000000002012a9c                RedPotionZelda1
                0x0000000002013ab0                BombZelda1
                0x0000000002014ac8                FF4Chest
                0x0000000002016ae0                Mushroom
                0x0000000002017b00                Kain_Walk_Left
                0x0000000002019b14                Goomba
                0x000000000201ab2c                CheepCheep
                0x000000000201bb48                KoopaTroopa
                0x000000000201cb5c                Bowser
                0x000000000201db70                Coin
                0x000000000201eb88                MegaMan
                0x000000000201fb9c                Link
                0x0000000002020bb4                Kain
                0x0000000002021bcc                BlueVirus
                0x0000000002022be4                RedSlime
                0x0000000002023bfc                BlueGhost
                0x0000000002024c14                CecilHead
                0x0000000002025c28                Edgar
                0x0000000002026c3c                MacTCP
                0x0000000002027c54                ns6icon
                0x0000000002028c6c                mosaic
                0x0000000002040c8c                Netscapethrobber
                0x0000000002068cac                ie
 .rodata        0x000000000207ccd0      0xa00 ../LEDTileLib/obj/default\libLEDTileLib.a(LEDTileLib.o)
                0x000000000207ccd0                linearRGB
                0x000000000207ced0                cie1931
                0x000000000207d0d0                gamma149half
                0x000000000207d2d0                gamma98half
                0x000000000207d4d0                gamma46half
 .rodata        0x000000000207d6d0      0x100 c:/altera/14.1/nios2eds/bin/gnu/h-x86_64-mingw32/bin/../lib/gcc/nios2-elf/4.8.3/mno-hw-mul\libgcc.a(_clz.o)
                0x000000000207d6d0                __clz_tab
 .rodata.str1.4
                0x000000000207d7d0        0x2 c:/altera/14.1/nios2eds/bin/gnu/h-x86_64-mingw32/bin/../lib/gcc/nios2-elf/4.8.3/../../../../../H-x86_64-mingw32/nios2-elf/lib/mno-hw-mul\libc.a(lib_a-impure.o)
                                          0x4 (size before relaxing)
 *fill*         0x000000000207d7d2        0x2 
 .rodata.str1.4
                0x000000000207d7d4        0x4 c:/altera/14.1/nios2eds/bin/gnu/h-x86_64-mingw32/bin/../lib/gcc/nios2-elf/4.8.3/../../../../../H-x86_64-mingw32/nios2-elf/lib/mno-hw-mul\libc.a(lib_a-puts.o)
 .rodata        0x000000000207d7d8        0xc ../LEDTile_BSP2\libhal_bsp.a(alt_dev.o)
 .rodata        0x000000000207d7e4       0x10 ../LEDTile_BSP2\libhal_bsp.a(alt_main.o)
 .rodata        0x000000000207d7f4       0x38 ../LEDTile_BSP2\libhal_bsp.a(alt_sys_init.o)
 *(.rodata1)
                0x000000000207d82c                . = ALIGN (0x4)
                0x000000000207d82c                PROVIDE (__ram_rodata_end, ABSOLUTE (.))
                0x000000000200aa50                PROVIDE (__flash_rodata_start, LOADADDR (.rodata))

.rwdata         0x000000000207d82c     0x1c80
                0x000000000207d82c                PROVIDE (__ram_rwdata_start, ABSOLUTE (.))
                0x000000000207d82c                . = ALIGN (0x4)
 *(.got.plt)
 *(.got)
 *(.data1)
 *(.data .data.* .gnu.linkonce.d.*)
 .data          0x000000000207d82c        0x0 ../LEDTile_BSP2/obj/HAL/src/crt0.o
 .data          0x000000000207d82c       0x74 obj/default/main.o
                0x000000000207d82c                animations
                0x000000000207d894                halloweenAnimations
 .data          0x000000000207d8a0        0x0 ../LEDTileLib/obj/default\libLEDTileLib.a(LEDTileLib.o)
 .data          0x000000000207d8a0        0x0 c:/altera/14.1/nios2eds/bin/gnu/h-x86_64-mingw32/bin/../lib/gcc/nios2-elf/4.8.3/mno-hw-mul\libgcc.a(lib2-divmod.o)
 .data          0x000000000207d8a0        0x0 c:/altera/14.1/nios2eds/bin/gnu/h-x86_64-mingw32/bin/../lib/gcc/nios2-elf/4.8.3/mno-hw-mul\libgcc.a(divdf3.o)
 .data          0x000000000207d8a0        0x0 c:/altera/14.1/nios2eds/bin/gnu/h-x86_64-mingw32/bin/../lib/gcc/nios2-elf/4.8.3/mno-hw-mul\libgcc.a(muldf3.o)
 .data          0x000000000207d8a0        0x0 c:/altera/14.1/nios2eds/bin/gnu/h-x86_64-mingw32/bin/../lib/gcc/nios2-elf/4.8.3/mno-hw-mul\libgcc.a(fixdfsi.o)
 .data          0x000000000207d8a0        0x0 c:/altera/14.1/nios2eds/bin/gnu/h-x86_64-mingw32/bin/../lib/gcc/nios2-elf/4.8.3/mno-hw-mul\libgcc.a(floatsidf.o)
 .data          0x000000000207d8a0        0x0 c:/altera/14.1/nios2eds/bin/gnu/h-x86_64-mingw32/bin/../lib/gcc/nios2-elf/4.8.3/mno-hw-mul\libgcc.a(_clzsi2.o)
 .data          0x000000000207d8a0        0x0 c:/altera/14.1/nios2eds/bin/gnu/h-x86_64-mingw32/bin/../lib/gcc/nios2-elf/4.8.3/mno-hw-mul\libgcc.a(lib2-mul.o)
 .data          0x000000000207d8a0        0x0 c:/altera/14.1/nios2eds/bin/gnu/h-x86_64-mingw32/bin/../lib/gcc/nios2-elf/4.8.3/mno-hw-mul\libgcc.a(_clz.o)
 .data          0x000000000207d8a0        0x0 c:/altera/14.1/nios2eds/bin/gnu/h-x86_64-mingw32/bin/../lib/gcc/nios2-elf/4.8.3/../../../../../H-x86_64-mingw32/nios2-elf/lib/mno-hw-mul\libc.a(lib_a-getc.o)
 .data          0x000000000207d8a0      0x424 c:/altera/14.1/nios2eds/bin/gnu/h-x86_64-mingw32/bin/../lib/gcc/nios2-elf/4.8.3/../../../../../H-x86_64-mingw32/nios2-elf/lib/mno-hw-mul\libc.a(lib_a-impure.o)
 .data          0x000000000207dcc4        0x0 c:/altera/14.1/nios2eds/bin/gnu/h-x86_64-mingw32/bin/../lib/gcc/nios2-elf/4.8.3/../../../../../H-x86_64-mingw32/nios2-elf/lib/mno-hw-mul\libc.a(lib_a-putchar.o)
 .data          0x000000000207dcc4        0x0 c:/altera/14.1/nios2eds/bin/gnu/h-x86_64-mingw32/bin/../lib/gcc/nios2-elf/4.8.3/../../../../../H-x86_64-mingw32/nios2-elf/lib/mno-hw-mul\libc.a(lib_a-puts.o)
 .data          0x000000000207dcc4        0x0 c:/altera/14.1/nios2eds/bin/gnu/h-x86_64-mingw32/bin/../lib/gcc/nios2-elf/4.8.3/../../../../../H-x86_64-mingw32/nios2-elf/lib/mno-hw-mul\libc.a(lib_a-rget.o)
 .data          0x000000000207dcc4        0x0 c:/altera/14.1/nios2eds/bin/gnu/h-x86_64-mingw32/bin/../lib/gcc/nios2-elf/4.8.3/../../../../../H-x86_64-mingw32/nios2-elf/lib/mno-hw-mul\libc.a(lib_a-strlen.o)
 .data          0x000000000207dcc4        0x0 c:/altera/14.1/nios2eds/bin/gnu/h-x86_64-mingw32/bin/../lib/gcc/nios2-elf/4.8.3/../../../../../H-x86_64-mingw32/nios2-elf/lib/mno-hw-mul\libc.a(lib_a-findfp.o)
 .data          0x000000000207dcc4        0x0 c:/altera/14.1/nios2eds/bin/gnu/h-x86_64-mingw32/bin/../lib/gcc/nios2-elf/4.8.3/../../../../../H-x86_64-mingw32/nios2-elf/lib/mno-hw-mul\libc.a(lib_a-fvwrite.o)
 .data          0x000000000207dcc4        0x0 c:/altera/14.1/nios2eds/bin/gnu/h-x86_64-mingw32/bin/../lib/gcc/nios2-elf/4.8.3/../../../../../H-x86_64-mingw32/nios2-elf/lib/mno-hw-mul\libc.a(lib_a-fwalk.o)
 .data          0x000000000207dcc4      0x408 c:/altera/14.1/nios2eds/bin/gnu/h-x86_64-mingw32/bin/../lib/gcc/nios2-elf/4.8.3/../../../../../H-x86_64-mingw32/nios2-elf/lib/mno-hw-mul\libc.a(lib_a-mallocr.o)
                0x000000000207dcc4                __malloc_av_
 .data          0x000000000207e0cc        0x0 c:/altera/14.1/nios2eds/bin/gnu/h-x86_64-mingw32/bin/../lib/gcc/nios2-elf/4.8.3/../../../../../H-x86_64-mingw32/nios2-elf/lib/mno-hw-mul\libc.a(lib_a-memchr.o)
 .data          0x000000000207e0cc        0x0 c:/altera/14.1/nios2eds/bin/gnu/h-x86_64-mingw32/bin/../lib/gcc/nios2-elf/4.8.3/../../../../../H-x86_64-mingw32/nios2-elf/lib/mno-hw-mul\libc.a(lib_a-memcpy.o)
 .data          0x000000000207e0cc        0x0 c:/altera/14.1/nios2eds/bin/gnu/h-x86_64-mingw32/bin/../lib/gcc/nios2-elf/4.8.3/../../../../../H-x86_64-mingw32/nios2-elf/lib/mno-hw-mul\libc.a(lib_a-memmove.o)
 .data          0x000000000207e0cc        0x0 c:/altera/14.1/nios2eds/bin/gnu/h-x86_64-mingw32/bin/../lib/gcc/nios2-elf/4.8.3/../../../../../H-x86_64-mingw32/nios2-elf/lib/mno-hw-mul\libc.a(lib_a-memset.o)
 .data          0x000000000207e0cc        0x0 c:/altera/14.1/nios2eds/bin/gnu/h-x86_64-mingw32/bin/../lib/gcc/nios2-elf/4.8.3/../../../../../H-x86_64-mingw32/nios2-elf/lib/mno-hw-mul\libc.a(lib_a-putc.o)
 .data          0x000000000207e0cc        0x0 c:/altera/14.1/nios2eds/bin/gnu/h-x86_64-mingw32/bin/../lib/gcc/nios2-elf/4.8.3/../../../../../H-x86_64-mingw32/nios2-elf/lib/mno-hw-mul\libc.a(lib_a-reallocr.o)
 .data          0x000000000207e0cc        0x0 c:/altera/14.1/nios2eds/bin/gnu/h-x86_64-mingw32/bin/../lib/gcc/nios2-elf/4.8.3/../../../../../H-x86_64-mingw32/nios2-elf/lib/mno-hw-mul\libc.a(lib_a-refill.o)
 .data          0x000000000207e0cc        0x0 c:/altera/14.1/nios2eds/bin/gnu/h-x86_64-mingw32/bin/../lib/gcc/nios2-elf/4.8.3/../../../../../H-x86_64-mingw32/nios2-elf/lib/mno-hw-mul\libc.a(lib_a-sbrkr.o)
 .data          0x000000000207e0cc        0x0 c:/altera/14.1/nios2eds/bin/gnu/h-x86_64-mingw32/bin/../lib/gcc/nios2-elf/4.8.3/../../../../../H-x86_64-mingw32/nios2-elf/lib/mno-hw-mul\libc.a(lib_a-stdio.o)
 .data          0x000000000207e0cc        0x0 c:/altera/14.1/nios2eds/bin/gnu/h-x86_64-mingw32/bin/../lib/gcc/nios2-elf/4.8.3/../../../../../H-x86_64-mingw32/nios2-elf/lib/mno-hw-mul\libc.a(lib_a-wbuf.o)
 .data          0x000000000207e0cc        0x0 c:/altera/14.1/nios2eds/bin/gnu/h-x86_64-mingw32/bin/../lib/gcc/nios2-elf/4.8.3/../../../../../H-x86_64-mingw32/nios2-elf/lib/mno-hw-mul\libc.a(lib_a-writer.o)
 .data          0x000000000207e0cc        0x0 c:/altera/14.1/nios2eds/bin/gnu/h-x86_64-mingw32/bin/../lib/gcc/nios2-elf/4.8.3/../../../../../H-x86_64-mingw32/nios2-elf/lib/mno-hw-mul\libc.a(lib_a-wsetup.o)
 .data          0x000000000207e0cc        0x0 c:/altera/14.1/nios2eds/bin/gnu/h-x86_64-mingw32/bin/../lib/gcc/nios2-elf/4.8.3/../../../../../H-x86_64-mingw32/nios2-elf/lib/mno-hw-mul\libc.a(closer.o)
 .data          0x000000000207e0cc        0x0 c:/altera/14.1/nios2eds/bin/gnu/h-x86_64-mingw32/bin/../lib/gcc/nios2-elf/4.8.3/../../../../../H-x86_64-mingw32/nios2-elf/lib/mno-hw-mul\libc.a(lib_a-fclose.o)
 .data          0x000000000207e0cc        0x0 c:/altera/14.1/nios2eds/bin/gnu/h-x86_64-mingw32/bin/../lib/gcc/nios2-elf/4.8.3/../../../../../H-x86_64-mingw32/nios2-elf/lib/mno-hw-mul\libc.a(lib_a-fflush.o)
 .data          0x000000000207e0cc        0x0 c:/altera/14.1/nios2eds/bin/gnu/h-x86_64-mingw32/bin/../lib/gcc/nios2-elf/4.8.3/../../../../../H-x86_64-mingw32/nios2-elf/lib/mno-hw-mul\libc.a(lib_a-freer.o)
 .data          0x000000000207e0cc        0x0 c:/altera/14.1/nios2eds/bin/gnu/h-x86_64-mingw32/bin/../lib/gcc/nios2-elf/4.8.3/../../../../../H-x86_64-mingw32/nios2-elf/lib/mno-hw-mul\libc.a(lib_a-int_errno.o)
 .data          0x000000000207e0cc        0x0 c:/altera/14.1/nios2eds/bin/gnu/h-x86_64-mingw32/bin/../lib/gcc/nios2-elf/4.8.3/../../../../../H-x86_64-mingw32/nios2-elf/lib/mno-hw-mul\libc.a(lib_a-lseekr.o)
 .data          0x000000000207e0cc        0x0 c:/altera/14.1/nios2eds/bin/gnu/h-x86_64-mingw32/bin/../lib/gcc/nios2-elf/4.8.3/../../../../../H-x86_64-mingw32/nios2-elf/lib/mno-hw-mul\libc.a(lib_a-makebuf.o)
 .data          0x000000000207e0cc        0x0 c:/altera/14.1/nios2eds/bin/gnu/h-x86_64-mingw32/bin/../lib/gcc/nios2-elf/4.8.3/../../../../../H-x86_64-mingw32/nios2-elf/lib/mno-hw-mul\libc.a(lib_a-readr.o)
 .data          0x000000000207e0cc        0x0 c:/altera/14.1/nios2eds/bin/gnu/h-x86_64-mingw32/bin/../lib/gcc/nios2-elf/4.8.3/../../../../../H-x86_64-mingw32/nios2-elf/lib/mno-hw-mul\libc.a(lib_a-fstatr.o)
 .data          0x000000000207e0cc        0x0 c:/altera/14.1/nios2eds/bin/gnu/h-x86_64-mingw32/bin/../lib/gcc/nios2-elf/4.8.3/../../../../../H-x86_64-mingw32/nios2-elf/lib/mno-hw-mul\libc.a(lib_a-isattyr.o)
 .data          0x000000000207e0cc        0x0 ../LEDTile_BSP2\libhal_bsp.a(alt_alarm_start.o)
 .data          0x000000000207e0cc        0x0 ../LEDTile_BSP2\libhal_bsp.a(alt_close.o)
 .data          0x000000000207e0cc      0x1a8 ../LEDTile_BSP2\libhal_bsp.a(alt_dev.o)
                0x000000000207e0cc                alt_dev_null
                0x000000000207e0f4                alt_fd_list
 .data          0x000000000207e274        0x0 ../LEDTile_BSP2\libhal_bsp.a(alt_errno.o)
 .data          0x000000000207e274        0x0 ../LEDTile_BSP2\libhal_bsp.a(alt_fstat.o)
 .data          0x000000000207e274        0x0 ../LEDTile_BSP2\libhal_bsp.a(alt_isatty.o)
 .data          0x000000000207e274        0x0 ../LEDTile_BSP2\libhal_bsp.a(alt_lseek.o)
 .data          0x000000000207e274        0x0 ../LEDTile_BSP2\libhal_bsp.a(alt_main.o)
 .data          0x000000000207e274        0x0 ../LEDTile_BSP2\libhal_bsp.a(alt_malloc_lock.o)
 .data          0x000000000207e274        0x0 ../LEDTile_BSP2\libhal_bsp.a(alt_read.o)
 .data          0x000000000207e274        0x0 ../LEDTile_BSP2\libhal_bsp.a(alt_release_fd.o)
 .data          0x000000000207e274        0x0 ../LEDTile_BSP2\libhal_bsp.a(alt_sbrk.o)
 .data          0x000000000207e274        0x0 ../LEDTile_BSP2\libhal_bsp.a(alt_tick.o)
 .data          0x000000000207e274        0x0 ../LEDTile_BSP2\libhal_bsp.a(alt_write.o)
 .data          0x000000000207e274     0x11ec ../LEDTile_BSP2\libhal_bsp.a(alt_sys_init.o)
 .data          0x000000000207f460        0x0 ../LEDTile_BSP2\libhal_bsp.a(altera_avalon_epcs_flash_controller.o)
 .data          0x000000000207f460        0x0 ../LEDTile_BSP2\libhal_bsp.a(altera_avalon_jtag_uart_fd.o)
 .data          0x000000000207f460        0x0 ../LEDTile_BSP2\libhal_bsp.a(altera_avalon_jtag_uart_init.o)
 .data          0x000000000207f460        0x0 ../LEDTile_BSP2\libhal_bsp.a(altera_avalon_jtag_uart_ioctl.o)
 .data          0x000000000207f460        0x0 ../LEDTile_BSP2\libhal_bsp.a(altera_avalon_jtag_uart_read.o)
 .data          0x000000000207f460        0x0 ../LEDTile_BSP2\libhal_bsp.a(altera_avalon_jtag_uart_write.o)
 .data          0x000000000207f460        0x0 ../LEDTile_BSP2\libhal_bsp.a(altera_avalon_timer_sc.o)
 .data          0x000000000207f460        0x0 ../LEDTile_BSP2\libhal_bsp.a(altera_avalon_uart_fd.o)
 .data          0x000000000207f460        0x0 ../LEDTile_BSP2\libhal_bsp.a(altera_avalon_uart_init.o)
 .data          0x000000000207f460        0x0 ../LEDTile_BSP2\libhal_bsp.a(altera_avalon_uart_read.o)
 .data          0x000000000207f460        0x0 ../LEDTile_BSP2\libhal_bsp.a(altera_avalon_uart_write.o)
 .data          0x000000000207f460        0x0 ../LEDTile_BSP2\libhal_bsp.a(epcs_commands.o)
 .data          0x000000000207f460        0x0 ../LEDTile_BSP2\libhal_bsp.a(alt_dev_llist_insert.o)
 .data          0x000000000207f460        0x0 ../LEDTile_BSP2\libhal_bsp.a(alt_do_ctors.o)
 .data          0x000000000207f460        0x0 ../LEDTile_BSP2\libhal_bsp.a(alt_do_dtors.o)
 .data          0x000000000207f460        0x0 ../LEDTile_BSP2\libhal_bsp.a(alt_flash_dev.o)
 .data          0x000000000207f460        0x0 ../LEDTile_BSP2\libhal_bsp.a(alt_iic.o)
 .data          0x000000000207f460        0x0 ../LEDTile_BSP2\libhal_bsp.a(alt_iic_isr_register.o)
 .data          0x000000000207f460        0x0 ../LEDTile_BSP2\libhal_bsp.a(alt_io_redirect.o)
 .data          0x000000000207f460        0x0 ../LEDTile_BSP2\libhal_bsp.a(alt_irq_entry.o)
 .data          0x000000000207f460        0x0 ../LEDTile_BSP2\libhal_bsp.a(alt_irq_handler.o)
 .data          0x000000000207f460        0x0 ../LEDTile_BSP2\libhal_bsp.a(alt_irq_vars.o)
 .data          0x000000000207f460        0x0 ../LEDTile_BSP2\libhal_bsp.a(alt_open.o)
 .data          0x000000000207f460        0x0 ../LEDTile_BSP2\libhal_bsp.a(altera_nios2_gen2_irq.o)
 .data          0x000000000207f460        0x0 ../LEDTile_BSP2\libhal_bsp.a(altera_avalon_spi.o)
 .data          0x000000000207f460        0x0 ../LEDTile_BSP2\libhal_bsp.a(alt_exception_entry.o)
 .data          0x000000000207f460        0x0 ../LEDTile_BSP2\libhal_bsp.a(alt_find_dev.o)
 .data          0x000000000207f460        0x0 ../LEDTile_BSP2\libhal_bsp.a(alt_find_file.o)
 .data          0x000000000207f460        0x0 ../LEDTile_BSP2\libhal_bsp.a(alt_get_fd.o)
 .data          0x000000000207f460        0x0 ../LEDTile_BSP2\libhal_bsp.a(alt_instruction_exception_entry.o)
 .data          0x000000000207f460        0x0 c:/altera/14.1/nios2eds/bin/gnu/h-x86_64-mingw32/bin/../lib/gcc/nios2-elf/4.8.3/../../../../../H-x86_64-mingw32/nios2-elf/lib/mno-hw-mul\libc.a(lib_a-atexit.o)
 .data          0x000000000207f460        0x0 c:/altera/14.1/nios2eds/bin/gnu/h-x86_64-mingw32/bin/../lib/gcc/nios2-elf/4.8.3/../../../../../H-x86_64-mingw32/nios2-elf/lib/mno-hw-mul\libc.a(lib_a-exit.o)
 .data          0x000000000207f460        0x0 c:/altera/14.1/nios2eds/bin/gnu/h-x86_64-mingw32/bin/../lib/gcc/nios2-elf/4.8.3/../../../../../H-x86_64-mingw32/nios2-elf/lib/mno-hw-mul\libc.a(lib_a-memcmp.o)
 .data          0x000000000207f460        0x0 c:/altera/14.1/nios2eds/bin/gnu/h-x86_64-mingw32/bin/../lib/gcc/nios2-elf/4.8.3/../../../../../H-x86_64-mingw32/nios2-elf/lib/mno-hw-mul\libc.a(lib_a-__atexit.o)
 .data          0x000000000207f460        0x0 c:/altera/14.1/nios2eds/bin/gnu/h-x86_64-mingw32/bin/../lib/gcc/nios2-elf/4.8.3/../../../../../H-x86_64-mingw32/nios2-elf/lib/mno-hw-mul\libc.a(lib_a-__call_atexit.o)
 .data          0x000000000207f460        0x0 ../LEDTile_BSP2\libhal_bsp.a(alt_exit.o)
                0x0000000002087460                _gp = ABSOLUTE ((. + 0x8000))
                0x0000000002087460                PROVIDE (gp, _gp)
 *(.rwdata .rwdata.*)
 *(.sdata .sdata.* .gnu.linkonce.s.*)
 .sdata         0x000000000207f460        0xc obj/default/main.o
                0x000000000207f460                numAnimations
                0x000000000207f464                numHalloweenAnimations
                0x000000000207f468                numBitmaps
 .sdata         0x000000000207f46c        0x8 c:/altera/14.1/nios2eds/bin/gnu/h-x86_64-mingw32/bin/../lib/gcc/nios2-elf/4.8.3/../../../../../H-x86_64-mingw32/nios2-elf/lib/mno-hw-mul\libc.a(lib_a-impure.o)
                0x000000000207f46c                _global_impure_ptr
                0x000000000207f470                _impure_ptr
 .sdata         0x000000000207f474        0x8 c:/altera/14.1/nios2eds/bin/gnu/h-x86_64-mingw32/bin/../lib/gcc/nios2-elf/4.8.3/../../../../../H-x86_64-mingw32/nios2-elf/lib/mno-hw-mul\libc.a(lib_a-mallocr.o)
                0x000000000207f474                __malloc_sbrk_base
                0x000000000207f478                __malloc_trim_threshold
 .sdata         0x000000000207f47c       0x14 ../LEDTile_BSP2\libhal_bsp.a(alt_dev.o)
                0x000000000207f47c                alt_fs_list
                0x000000000207f484                alt_dev_list
                0x000000000207f48c                alt_max_fd
 .sdata         0x000000000207f490        0x4 ../LEDTile_BSP2\libhal_bsp.a(alt_errno.o)
                0x000000000207f490                alt_errno
 .sdata         0x000000000207f494        0x4 ../LEDTile_BSP2\libhal_bsp.a(alt_sbrk.o)
 .sdata         0x000000000207f498        0x8 ../LEDTile_BSP2\libhal_bsp.a(alt_tick.o)
                0x000000000207f498                alt_alarm_list
 .sdata         0x000000000207f4a0        0x8 ../LEDTile_BSP2\libhal_bsp.a(alt_flash_dev.o)
                0x000000000207f4a0                alt_flash_dev_list
 .sdata         0x000000000207f4a8        0x4 ../LEDTile_BSP2\libhal_bsp.a(alt_irq_vars.o)
                0x000000000207f4a8                alt_priority_mask
 *(.sdata2 .sdata2.* .gnu.linkonce.s2.*)
                0x000000000207f4ac                . = ALIGN (0x4)
                0x000000000207f4ac                _edata = ABSOLUTE (.)
                0x000000000207f4ac                PROVIDE (edata, ABSOLUTE (.))
                0x000000000207f4ac                PROVIDE (__ram_rwdata_end, ABSOLUTE (.))
                0x000000000207d82c                PROVIDE (__flash_rwdata_start, LOADADDR (.rwdata))

.bss            0x000000000207f4ac      0x178
                0x000000000207f4ac                __bss_start = ABSOLUTE (.)
                0x000000000207f4ac                PROVIDE (__sbss_start, ABSOLUTE (.))
                0x000000000207f4ac                PROVIDE (___sbss_start, ABSOLUTE (.))
 *(.dynsbss)
 *(.sbss .sbss.* .gnu.linkonce.sb.*)
 .sbss          0x000000000207f4ac        0x8 obj/default/main.o
                0x000000000207f4ac                state
 .sbss          0x000000000207f4b4        0x4 obj/default/main.o
                0x000000000207f4b4                currentAnimation
 .sbss          0x000000000207f4b8        0xc c:/altera/14.1/nios2eds/bin/gnu/h-x86_64-mingw32/bin/../lib/gcc/nios2-elf/4.8.3/../../../../../H-x86_64-mingw32/nios2-elf/lib/mno-hw-mul\libc.a(lib_a-mallocr.o)
                0x000000000207f4b8                __malloc_max_total_mem
                0x000000000207f4bc                __malloc_max_sbrked_mem
                0x000000000207f4c0                __malloc_top_pad
 .sbss          0x000000000207f4c4        0x4 c:/altera/14.1/nios2eds/bin/gnu/h-x86_64-mingw32/bin/../lib/gcc/nios2-elf/4.8.3/../../../../../H-x86_64-mingw32/nios2-elf/lib/mno-hw-mul\libc.a(lib_a-int_errno.o)
                0x000000000207f4c4                errno
 .sbss          0x000000000207f4c8        0xc ../LEDTile_BSP2\libhal_bsp.a(alt_main.o)
                0x000000000207f4c8                alt_argc
                0x000000000207f4cc                alt_argv
                0x000000000207f4d0                alt_envp
 .sbss          0x000000000207f4d4        0x8 ../LEDTile_BSP2\libhal_bsp.a(alt_tick.o)
                0x000000000207f4d4                _alt_tick_rate
                0x000000000207f4d8                _alt_nticks
 .sbss          0x000000000207f4dc        0x4 ../LEDTile_BSP2\libhal_bsp.a(alt_irq_vars.o)
                0x000000000207f4dc                alt_irq_active
 .sbss          0x000000000207f4e0        0x4 ../LEDTile_BSP2\libhal_bsp.a(alt_instruction_exception_entry.o)
                0x000000000207f4e0                alt_instruction_exception_handler
 *(.sbss2 .sbss2.* .gnu.linkonce.sb2.*)
 *(.scommon)
                0x000000000207f4e4                PROVIDE (__sbss_end, ABSOLUTE (.))
                0x000000000207f4e4                PROVIDE (___sbss_end, ABSOLUTE (.))
 *(.dynbss)
 *(.bss .bss.* .gnu.linkonce.b.*)
 .bss           0x000000000207f4e4        0x0 ../LEDTile_BSP2/obj/HAL/src/crt0.o
 .bss           0x000000000207f4e4       0x18 obj/default/main.o
 .bss           0x000000000207f4fc        0x0 ../LEDTileLib/obj/default\libLEDTileLib.a(LEDTileLib.o)
 .bss           0x000000000207f4fc        0x0 c:/altera/14.1/nios2eds/bin/gnu/h-x86_64-mingw32/bin/../lib/gcc/nios2-elf/4.8.3/mno-hw-mul\libgcc.a(lib2-divmod.o)
 .bss           0x000000000207f4fc        0x0 c:/altera/14.1/nios2eds/bin/gnu/h-x86_64-mingw32/bin/../lib/gcc/nios2-elf/4.8.3/mno-hw-mul\libgcc.a(divdf3.o)
 .bss           0x000000000207f4fc        0x0 c:/altera/14.1/nios2eds/bin/gnu/h-x86_64-mingw32/bin/../lib/gcc/nios2-elf/4.8.3/mno-hw-mul\libgcc.a(muldf3.o)
 .bss           0x000000000207f4fc        0x0 c:/altera/14.1/nios2eds/bin/gnu/h-x86_64-mingw32/bin/../lib/gcc/nios2-elf/4.8.3/mno-hw-mul\libgcc.a(fixdfsi.o)
 .bss           0x000000000207f4fc        0x0 c:/altera/14.1/nios2eds/bin/gnu/h-x86_64-mingw32/bin/../lib/gcc/nios2-elf/4.8.3/mno-hw-mul\libgcc.a(floatsidf.o)
 .bss           0x000000000207f4fc        0x0 c:/altera/14.1/nios2eds/bin/gnu/h-x86_64-mingw32/bin/../lib/gcc/nios2-elf/4.8.3/mno-hw-mul\libgcc.a(_clzsi2.o)
 .bss           0x000000000207f4fc        0x0 c:/altera/14.1/nios2eds/bin/gnu/h-x86_64-mingw32/bin/../lib/gcc/nios2-elf/4.8.3/mno-hw-mul\libgcc.a(lib2-mul.o)
 .bss           0x000000000207f4fc        0x0 c:/altera/14.1/nios2eds/bin/gnu/h-x86_64-mingw32/bin/../lib/gcc/nios2-elf/4.8.3/mno-hw-mul\libgcc.a(_clz.o)
 .bss           0x000000000207f4fc        0x0 c:/altera/14.1/nios2eds/bin/gnu/h-x86_64-mingw32/bin/../lib/gcc/nios2-elf/4.8.3/../../../../../H-x86_64-mingw32/nios2-elf/lib/mno-hw-mul\libc.a(lib_a-getc.o)
 .bss           0x000000000207f4fc        0x0 c:/altera/14.1/nios2eds/bin/gnu/h-x86_64-mingw32/bin/../lib/gcc/nios2-elf/4.8.3/../../../../../H-x86_64-mingw32/nios2-elf/lib/mno-hw-mul\libc.a(lib_a-impure.o)
 .bss           0x000000000207f4fc        0x0 c:/altera/14.1/nios2eds/bin/gnu/h-x86_64-mingw32/bin/../lib/gcc/nios2-elf/4.8.3/../../../../../H-x86_64-mingw32/nios2-elf/lib/mno-hw-mul\libc.a(lib_a-putchar.o)
 .bss           0x000000000207f4fc        0x0 c:/altera/14.1/nios2eds/bin/gnu/h-x86_64-mingw32/bin/../lib/gcc/nios2-elf/4.8.3/../../../../../H-x86_64-mingw32/nios2-elf/lib/mno-hw-mul\libc.a(lib_a-puts.o)
 .bss           0x000000000207f4fc        0x0 c:/altera/14.1/nios2eds/bin/gnu/h-x86_64-mingw32/bin/../lib/gcc/nios2-elf/4.8.3/../../../../../H-x86_64-mingw32/nios2-elf/lib/mno-hw-mul\libc.a(lib_a-rget.o)
 .bss           0x000000000207f4fc        0x0 c:/altera/14.1/nios2eds/bin/gnu/h-x86_64-mingw32/bin/../lib/gcc/nios2-elf/4.8.3/../../../../../H-x86_64-mingw32/nios2-elf/lib/mno-hw-mul\libc.a(lib_a-strlen.o)
 .bss           0x000000000207f4fc        0x0 c:/altera/14.1/nios2eds/bin/gnu/h-x86_64-mingw32/bin/../lib/gcc/nios2-elf/4.8.3/../../../../../H-x86_64-mingw32/nios2-elf/lib/mno-hw-mul\libc.a(lib_a-findfp.o)
 .bss           0x000000000207f4fc        0x0 c:/altera/14.1/nios2eds/bin/gnu/h-x86_64-mingw32/bin/../lib/gcc/nios2-elf/4.8.3/../../../../../H-x86_64-mingw32/nios2-elf/lib/mno-hw-mul\libc.a(lib_a-fvwrite.o)
 .bss           0x000000000207f4fc        0x0 c:/altera/14.1/nios2eds/bin/gnu/h-x86_64-mingw32/bin/../lib/gcc/nios2-elf/4.8.3/../../../../../H-x86_64-mingw32/nios2-elf/lib/mno-hw-mul\libc.a(lib_a-fwalk.o)
 .bss           0x000000000207f4fc       0x28 c:/altera/14.1/nios2eds/bin/gnu/h-x86_64-mingw32/bin/../lib/gcc/nios2-elf/4.8.3/../../../../../H-x86_64-mingw32/nios2-elf/lib/mno-hw-mul\libc.a(lib_a-mallocr.o)
                0x000000000207f4fc                __malloc_current_mallinfo
 .bss           0x000000000207f524        0x0 c:/altera/14.1/nios2eds/bin/gnu/h-x86_64-mingw32/bin/../lib/gcc/nios2-elf/4.8.3/../../../../../H-x86_64-mingw32/nios2-elf/lib/mno-hw-mul\libc.a(lib_a-memchr.o)
 .bss           0x000000000207f524        0x0 c:/altera/14.1/nios2eds/bin/gnu/h-x86_64-mingw32/bin/../lib/gcc/nios2-elf/4.8.3/../../../../../H-x86_64-mingw32/nios2-elf/lib/mno-hw-mul\libc.a(lib_a-memcpy.o)
 .bss           0x000000000207f524        0x0 c:/altera/14.1/nios2eds/bin/gnu/h-x86_64-mingw32/bin/../lib/gcc/nios2-elf/4.8.3/../../../../../H-x86_64-mingw32/nios2-elf/lib/mno-hw-mul\libc.a(lib_a-memmove.o)
 .bss           0x000000000207f524        0x0 c:/altera/14.1/nios2eds/bin/gnu/h-x86_64-mingw32/bin/../lib/gcc/nios2-elf/4.8.3/../../../../../H-x86_64-mingw32/nios2-elf/lib/mno-hw-mul\libc.a(lib_a-memset.o)
 .bss           0x000000000207f524        0x0 c:/altera/14.1/nios2eds/bin/gnu/h-x86_64-mingw32/bin/../lib/gcc/nios2-elf/4.8.3/../../../../../H-x86_64-mingw32/nios2-elf/lib/mno-hw-mul\libc.a(lib_a-putc.o)
 .bss           0x000000000207f524        0x0 c:/altera/14.1/nios2eds/bin/gnu/h-x86_64-mingw32/bin/../lib/gcc/nios2-elf/4.8.3/../../../../../H-x86_64-mingw32/nios2-elf/lib/mno-hw-mul\libc.a(lib_a-reallocr.o)
 .bss           0x000000000207f524        0x0 c:/altera/14.1/nios2eds/bin/gnu/h-x86_64-mingw32/bin/../lib/gcc/nios2-elf/4.8.3/../../../../../H-x86_64-mingw32/nios2-elf/lib/mno-hw-mul\libc.a(lib_a-refill.o)
 .bss           0x000000000207f524        0x0 c:/altera/14.1/nios2eds/bin/gnu/h-x86_64-mingw32/bin/../lib/gcc/nios2-elf/4.8.3/../../../../../H-x86_64-mingw32/nios2-elf/lib/mno-hw-mul\libc.a(lib_a-sbrkr.o)
 .bss           0x000000000207f524        0x0 c:/altera/14.1/nios2eds/bin/gnu/h-x86_64-mingw32/bin/../lib/gcc/nios2-elf/4.8.3/../../../../../H-x86_64-mingw32/nios2-elf/lib/mno-hw-mul\libc.a(lib_a-stdio.o)
 .bss           0x000000000207f524        0x0 c:/altera/14.1/nios2eds/bin/gnu/h-x86_64-mingw32/bin/../lib/gcc/nios2-elf/4.8.3/../../../../../H-x86_64-mingw32/nios2-elf/lib/mno-hw-mul\libc.a(lib_a-wbuf.o)
 .bss           0x000000000207f524        0x0 c:/altera/14.1/nios2eds/bin/gnu/h-x86_64-mingw32/bin/../lib/gcc/nios2-elf/4.8.3/../../../../../H-x86_64-mingw32/nios2-elf/lib/mno-hw-mul\libc.a(lib_a-writer.o)
 .bss           0x000000000207f524        0x0 c:/altera/14.1/nios2eds/bin/gnu/h-x86_64-mingw32/bin/../lib/gcc/nios2-elf/4.8.3/../../../../../H-x86_64-mingw32/nios2-elf/lib/mno-hw-mul\libc.a(lib_a-wsetup.o)
 .bss           0x000000000207f524        0x0 c:/altera/14.1/nios2eds/bin/gnu/h-x86_64-mingw32/bin/../lib/gcc/nios2-elf/4.8.3/../../../../../H-x86_64-mingw32/nios2-elf/lib/mno-hw-mul\libc.a(closer.o)
 .bss           0x000000000207f524        0x0 c:/altera/14.1/nios2eds/bin/gnu/h-x86_64-mingw32/bin/../lib/gcc/nios2-elf/4.8.3/../../../../../H-x86_64-mingw32/nios2-elf/lib/mno-hw-mul\libc.a(lib_a-fclose.o)
 .bss           0x000000000207f524        0x0 c:/altera/14.1/nios2eds/bin/gnu/h-x86_64-mingw32/bin/../lib/gcc/nios2-elf/4.8.3/../../../../../H-x86_64-mingw32/nios2-elf/lib/mno-hw-mul\libc.a(lib_a-fflush.o)
 .bss           0x000000000207f524        0x0 c:/altera/14.1/nios2eds/bin/gnu/h-x86_64-mingw32/bin/../lib/gcc/nios2-elf/4.8.3/../../../../../H-x86_64-mingw32/nios2-elf/lib/mno-hw-mul\libc.a(lib_a-freer.o)
 .bss           0x000000000207f524        0x0 c:/altera/14.1/nios2eds/bin/gnu/h-x86_64-mingw32/bin/../lib/gcc/nios2-elf/4.8.3/../../../../../H-x86_64-mingw32/nios2-elf/lib/mno-hw-mul\libc.a(lib_a-int_errno.o)
 .bss           0x000000000207f524        0x0 c:/altera/14.1/nios2eds/bin/gnu/h-x86_64-mingw32/bin/../lib/gcc/nios2-elf/4.8.3/../../../../../H-x86_64-mingw32/nios2-elf/lib/mno-hw-mul\libc.a(lib_a-lseekr.o)
 .bss           0x000000000207f524        0x0 c:/altera/14.1/nios2eds/bin/gnu/h-x86_64-mingw32/bin/../lib/gcc/nios2-elf/4.8.3/../../../../../H-x86_64-mingw32/nios2-elf/lib/mno-hw-mul\libc.a(lib_a-makebuf.o)
 .bss           0x000000000207f524        0x0 c:/altera/14.1/nios2eds/bin/gnu/h-x86_64-mingw32/bin/../lib/gcc/nios2-elf/4.8.3/../../../../../H-x86_64-mingw32/nios2-elf/lib/mno-hw-mul\libc.a(lib_a-readr.o)
 .bss           0x000000000207f524        0x0 c:/altera/14.1/nios2eds/bin/gnu/h-x86_64-mingw32/bin/../lib/gcc/nios2-elf/4.8.3/../../../../../H-x86_64-mingw32/nios2-elf/lib/mno-hw-mul\libc.a(lib_a-fstatr.o)
 .bss           0x000000000207f524        0x0 c:/altera/14.1/nios2eds/bin/gnu/h-x86_64-mingw32/bin/../lib/gcc/nios2-elf/4.8.3/../../../../../H-x86_64-mingw32/nios2-elf/lib/mno-hw-mul\libc.a(lib_a-isattyr.o)
 .bss           0x000000000207f524        0x0 ../LEDTile_BSP2\libhal_bsp.a(alt_alarm_start.o)
 .bss           0x000000000207f524        0x0 ../LEDTile_BSP2\libhal_bsp.a(alt_close.o)
 .bss           0x000000000207f524        0x0 ../LEDTile_BSP2\libhal_bsp.a(alt_dev.o)
 .bss           0x000000000207f524        0x0 ../LEDTile_BSP2\libhal_bsp.a(alt_errno.o)
 .bss           0x000000000207f524        0x0 ../LEDTile_BSP2\libhal_bsp.a(alt_fstat.o)
 .bss           0x000000000207f524        0x0 ../LEDTile_BSP2\libhal_bsp.a(alt_isatty.o)
 .bss           0x000000000207f524        0x0 ../LEDTile_BSP2\libhal_bsp.a(alt_lseek.o)
 .bss           0x000000000207f524        0x0 ../LEDTile_BSP2\libhal_bsp.a(alt_main.o)
 .bss           0x000000000207f524        0x0 ../LEDTile_BSP2\libhal_bsp.a(alt_malloc_lock.o)
 .bss           0x000000000207f524        0x0 ../LEDTile_BSP2\libhal_bsp.a(alt_read.o)
 .bss           0x000000000207f524        0x0 ../LEDTile_BSP2\libhal_bsp.a(alt_release_fd.o)
 .bss           0x000000000207f524        0x0 ../LEDTile_BSP2\libhal_bsp.a(alt_sbrk.o)
 .bss           0x000000000207f524        0x0 ../LEDTile_BSP2\libhal_bsp.a(alt_tick.o)
 .bss           0x000000000207f524        0x0 ../LEDTile_BSP2\libhal_bsp.a(alt_write.o)
 .bss           0x000000000207f524        0x0 ../LEDTile_BSP2\libhal_bsp.a(alt_sys_init.o)
 .bss           0x000000000207f524        0x0 ../LEDTile_BSP2\libhal_bsp.a(altera_avalon_epcs_flash_controller.o)
 .bss           0x000000000207f524        0x0 ../LEDTile_BSP2\libhal_bsp.a(altera_avalon_jtag_uart_fd.o)
 .bss           0x000000000207f524        0x0 ../LEDTile_BSP2\libhal_bsp.a(altera_avalon_jtag_uart_init.o)
 .bss           0x000000000207f524        0x0 ../LEDTile_BSP2\libhal_bsp.a(altera_avalon_jtag_uart_ioctl.o)
 .bss           0x000000000207f524        0x0 ../LEDTile_BSP2\libhal_bsp.a(altera_avalon_jtag_uart_read.o)
 .bss           0x000000000207f524        0x0 ../LEDTile_BSP2\libhal_bsp.a(altera_avalon_jtag_uart_write.o)
 .bss           0x000000000207f524        0x0 ../LEDTile_BSP2\libhal_bsp.a(altera_avalon_timer_sc.o)
 .bss           0x000000000207f524        0x0 ../LEDTile_BSP2\libhal_bsp.a(altera_avalon_uart_fd.o)
 .bss           0x000000000207f524        0x0 ../LEDTile_BSP2\libhal_bsp.a(altera_avalon_uart_init.o)
 .bss           0x000000000207f524        0x0 ../LEDTile_BSP2\libhal_bsp.a(altera_avalon_uart_read.o)
 .bss           0x000000000207f524        0x0 ../LEDTile_BSP2\libhal_bsp.a(altera_avalon_uart_write.o)
 .bss           0x000000000207f524        0x0 ../LEDTile_BSP2\libhal_bsp.a(epcs_commands.o)
 .bss           0x000000000207f524        0x0 ../LEDTile_BSP2\libhal_bsp.a(alt_dev_llist_insert.o)
 .bss           0x000000000207f524        0x0 ../LEDTile_BSP2\libhal_bsp.a(alt_do_ctors.o)
 .bss           0x000000000207f524        0x0 ../LEDTile_BSP2\libhal_bsp.a(alt_do_dtors.o)
 .bss           0x000000000207f524        0x0 ../LEDTile_BSP2\libhal_bsp.a(alt_flash_dev.o)
 .bss           0x000000000207f524        0x0 ../LEDTile_BSP2\libhal_bsp.a(alt_iic.o)
 .bss           0x000000000207f524        0x0 ../LEDTile_BSP2\libhal_bsp.a(alt_iic_isr_register.o)
 .bss           0x000000000207f524        0x0 ../LEDTile_BSP2\libhal_bsp.a(alt_io_redirect.o)
 .bss           0x000000000207f524        0x0 ../LEDTile_BSP2\libhal_bsp.a(alt_irq_entry.o)
 .bss           0x000000000207f524        0x0 ../LEDTile_BSP2\libhal_bsp.a(alt_irq_handler.o)
 .bss           0x000000000207f524        0x0 ../LEDTile_BSP2\libhal_bsp.a(alt_irq_vars.o)
 .bss           0x000000000207f524        0x0 ../LEDTile_BSP2\libhal_bsp.a(alt_open.o)
 .bss           0x000000000207f524        0x0 ../LEDTile_BSP2\libhal_bsp.a(altera_nios2_gen2_irq.o)
 .bss           0x000000000207f524        0x0 ../LEDTile_BSP2\libhal_bsp.a(altera_avalon_spi.o)
 .bss           0x000000000207f524        0x0 ../LEDTile_BSP2\libhal_bsp.a(alt_exception_entry.o)
 .bss           0x000000000207f524        0x0 ../LEDTile_BSP2\libhal_bsp.a(alt_find_dev.o)
 .bss           0x000000000207f524        0x0 ../LEDTile_BSP2\libhal_bsp.a(alt_find_file.o)
 .bss           0x000000000207f524        0x0 ../LEDTile_BSP2\libhal_bsp.a(alt_get_fd.o)
 .bss           0x000000000207f524        0x0 ../LEDTile_BSP2\libhal_bsp.a(alt_instruction_exception_entry.o)
 .bss           0x000000000207f524        0x0 c:/altera/14.1/nios2eds/bin/gnu/h-x86_64-mingw32/bin/../lib/gcc/nios2-elf/4.8.3/../../../../../H-x86_64-mingw32/nios2-elf/lib/mno-hw-mul\libc.a(lib_a-atexit.o)
 .bss           0x000000000207f524        0x0 c:/altera/14.1/nios2eds/bin/gnu/h-x86_64-mingw32/bin/../lib/gcc/nios2-elf/4.8.3/../../../../../H-x86_64-mingw32/nios2-elf/lib/mno-hw-mul\libc.a(lib_a-exit.o)
 .bss           0x000000000207f524        0x0 c:/altera/14.1/nios2eds/bin/gnu/h-x86_64-mingw32/bin/../lib/gcc/nios2-elf/4.8.3/../../../../../H-x86_64-mingw32/nios2-elf/lib/mno-hw-mul\libc.a(lib_a-memcmp.o)
 .bss           0x000000000207f524        0x0 c:/altera/14.1/nios2eds/bin/gnu/h-x86_64-mingw32/bin/../lib/gcc/nios2-elf/4.8.3/../../../../../H-x86_64-mingw32/nios2-elf/lib/mno-hw-mul\libc.a(lib_a-__atexit.o)
 .bss           0x000000000207f524        0x0 c:/altera/14.1/nios2eds/bin/gnu/h-x86_64-mingw32/bin/../lib/gcc/nios2-elf/4.8.3/../../../../../H-x86_64-mingw32/nios2-elf/lib/mno-hw-mul\libc.a(lib_a-__call_atexit.o)
 .bss           0x000000000207f524        0x0 ../LEDTile_BSP2\libhal_bsp.a(alt_exit.o)
 *(COMMON)
 COMMON         0x000000000207f524      0x100 ../LEDTile_BSP2\libhal_bsp.a(alt_irq_handler.o)
                0x000000000207f524                alt_irq
                0x000000000207f624                . = ALIGN (0x4)
                0x000000000207f624                __bss_end = ABSOLUTE (.)

.sdram_controller
                0x000000000207f624        0x0
                0x000000000207f624                PROVIDE (_alt_partition_sdram_controller_start, ABSOLUTE (.))
 *(.sdram_controller .sdram_controller. sdram_controller.*)
                0x000000000207f624                . = ALIGN (0x4)
                0x000000000207f624                PROVIDE (_alt_partition_sdram_controller_end, ABSOLUTE (.))
                0x000000000207f624                _end = ABSOLUTE (.)
                0x000000000207f624                end = ABSOLUTE (.)
                0x000000000207f624                __alt_stack_base = ABSOLUTE (.)
                0x000000000207f624                PROVIDE (_alt_partition_sdram_controller_load_addr, LOADADDR (.sdram_controller))

.onchip_memory2
                0x0000000004000000        0x0
                0x0000000004000000                PROVIDE (_alt_partition_onchip_memory2_start, ABSOLUTE (.))
 *(.onchip_memory2 .onchip_memory2. onchip_memory2.*)
                0x0000000004000000                . = ALIGN (0x4)
                0x0000000004000000                PROVIDE (_alt_partition_onchip_memory2_end, ABSOLUTE (.))
                0x0000000004000000                PROVIDE (_alt_partition_onchip_memory2_load_addr, LOADADDR (.onchip_memory2))

.epcs_flash_controller
                0x0000000004009020        0x0
                0x0000000004009020                PROVIDE (_alt_partition_epcs_flash_controller_start, ABSOLUTE (.))
 *(.epcs_flash_controller .epcs_flash_controller. epcs_flash_controller.*)
                0x0000000004009020                . = ALIGN (0x4)
                0x0000000004009020                PROVIDE (_alt_partition_epcs_flash_controller_end, ABSOLUTE (.))
                0x0000000004009020                PROVIDE (_alt_partition_epcs_flash_controller_load_addr, LOADADDR (.epcs_flash_controller))

.stab
 *(.stab)

.stabstr
 *(.stabstr)

.stab.excl
 *(.stab.excl)

.stab.exclstr
 *(.stab.exclstr)

.stab.index
 *(.stab.index)

.stab.indexstr
 *(.stab.indexstr)

.comment        0x0000000000000000       0x39
 *(.comment)
 .comment       0x0000000000000000       0x39 obj/default/main.o
                                         0x3a (size before relaxing)
 .comment       0x0000000000000000       0x3a ../LEDTileLib/obj/default\libLEDTileLib.a(LEDTileLib.o)
 .comment       0x0000000000000000       0x3a c:/altera/14.1/nios2eds/bin/gnu/h-x86_64-mingw32/bin/../lib/gcc/nios2-elf/4.8.3/mno-hw-mul\libgcc.a(lib2-divmod.o)
 .comment       0x0000000000000000       0x3a c:/altera/14.1/nios2eds/bin/gnu/h-x86_64-mingw32/bin/../lib/gcc/nios2-elf/4.8.3/mno-hw-mul\libgcc.a(divdf3.o)
 .comment       0x0000000000000000       0x3a c:/altera/14.1/nios2eds/bin/gnu/h-x86_64-mingw32/bin/../lib/gcc/nios2-elf/4.8.3/mno-hw-mul\libgcc.a(muldf3.o)
 .comment       0x0000000000000000       0x3a c:/altera/14.1/nios2eds/bin/gnu/h-x86_64-mingw32/bin/../lib/gcc/nios2-elf/4.8.3/mno-hw-mul\libgcc.a(fixdfsi.o)
 .comment       0x0000000000000000       0x3a c:/altera/14.1/nios2eds/bin/gnu/h-x86_64-mingw32/bin/../lib/gcc/nios2-elf/4.8.3/mno-hw-mul\libgcc.a(floatsidf.o)
 .comment       0x0000000000000000       0x3a c:/altera/14.1/nios2eds/bin/gnu/h-x86_64-mingw32/bin/../lib/gcc/nios2-elf/4.8.3/mno-hw-mul\libgcc.a(_clzsi2.o)
 .comment       0x0000000000000000       0x3a c:/altera/14.1/nios2eds/bin/gnu/h-x86_64-mingw32/bin/../lib/gcc/nios2-elf/4.8.3/mno-hw-mul\libgcc.a(lib2-mul.o)
 .comment       0x0000000000000000       0x3a c:/altera/14.1/nios2eds/bin/gnu/h-x86_64-mingw32/bin/../lib/gcc/nios2-elf/4.8.3/mno-hw-mul\libgcc.a(_clz.o)
 .comment       0x0000000000000000       0x3a c:/altera/14.1/nios2eds/bin/gnu/h-x86_64-mingw32/bin/../lib/gcc/nios2-elf/4.8.3/../../../../../H-x86_64-mingw32/nios2-elf/lib/mno-hw-mul\libc.a(lib_a-getc.o)
 .comment       0x0000000000000000       0x3a c:/altera/14.1/nios2eds/bin/gnu/h-x86_64-mingw32/bin/../lib/gcc/nios2-elf/4.8.3/../../../../../H-x86_64-mingw32/nios2-elf/lib/mno-hw-mul\libc.a(lib_a-impure.o)
 .comment       0x0000000000000000       0x3a c:/altera/14.1/nios2eds/bin/gnu/h-x86_64-mingw32/bin/../lib/gcc/nios2-elf/4.8.3/../../../../../H-x86_64-mingw32/nios2-elf/lib/mno-hw-mul\libc.a(lib_a-putchar.o)
 .comment       0x0000000000000000       0x3a c:/altera/14.1/nios2eds/bin/gnu/h-x86_64-mingw32/bin/../lib/gcc/nios2-elf/4.8.3/../../../../../H-x86_64-mingw32/nios2-elf/lib/mno-hw-mul\libc.a(lib_a-puts.o)
 .comment       0x0000000000000000       0x3a c:/altera/14.1/nios2eds/bin/gnu/h-x86_64-mingw32/bin/../lib/gcc/nios2-elf/4.8.3/../../../../../H-x86_64-mingw32/nios2-elf/lib/mno-hw-mul\libc.a(lib_a-rget.o)
 .comment       0x0000000000000000       0x3a c:/altera/14.1/nios2eds/bin/gnu/h-x86_64-mingw32/bin/../lib/gcc/nios2-elf/4.8.3/../../../../../H-x86_64-mingw32/nios2-elf/lib/mno-hw-mul\libc.a(lib_a-strlen.o)
 .comment       0x0000000000000000       0x3a c:/altera/14.1/nios2eds/bin/gnu/h-x86_64-mingw32/bin/../lib/gcc/nios2-elf/4.8.3/../../../../../H-x86_64-mingw32/nios2-elf/lib/mno-hw-mul\libc.a(lib_a-findfp.o)
 .comment       0x0000000000000000       0x3a c:/altera/14.1/nios2eds/bin/gnu/h-x86_64-mingw32/bin/../lib/gcc/nios2-elf/4.8.3/../../../../../H-x86_64-mingw32/nios2-elf/lib/mno-hw-mul\libc.a(lib_a-fvwrite.o)
 .comment       0x0000000000000000       0x3a c:/altera/14.1/nios2eds/bin/gnu/h-x86_64-mingw32/bin/../lib/gcc/nios2-elf/4.8.3/../../../../../H-x86_64-mingw32/nios2-elf/lib/mno-hw-mul\libc.a(lib_a-fwalk.o)
 .comment       0x0000000000000000       0x3a c:/altera/14.1/nios2eds/bin/gnu/h-x86_64-mingw32/bin/../lib/gcc/nios2-elf/4.8.3/../../../../../H-x86_64-mingw32/nios2-elf/lib/mno-hw-mul\libc.a(lib_a-mallocr.o)
 .comment       0x0000000000000000       0x3a c:/altera/14.1/nios2eds/bin/gnu/h-x86_64-mingw32/bin/../lib/gcc/nios2-elf/4.8.3/../../../../../H-x86_64-mingw32/nios2-elf/lib/mno-hw-mul\libc.a(lib_a-memchr.o)
 .comment       0x0000000000000000       0x3a c:/altera/14.1/nios2eds/bin/gnu/h-x86_64-mingw32/bin/../lib/gcc/nios2-elf/4.8.3/../../../../../H-x86_64-mingw32/nios2-elf/lib/mno-hw-mul\libc.a(lib_a-memcpy.o)
 .comment       0x0000000000000000       0x3a c:/altera/14.1/nios2eds/bin/gnu/h-x86_64-mingw32/bin/../lib/gcc/nios2-elf/4.8.3/../../../../../H-x86_64-mingw32/nios2-elf/lib/mno-hw-mul\libc.a(lib_a-memmove.o)
 .comment       0x0000000000000000       0x3a c:/altera/14.1/nios2eds/bin/gnu/h-x86_64-mingw32/bin/../lib/gcc/nios2-elf/4.8.3/../../../../../H-x86_64-mingw32/nios2-elf/lib/mno-hw-mul\libc.a(lib_a-memset.o)
 .comment       0x0000000000000000       0x3a c:/altera/14.1/nios2eds/bin/gnu/h-x86_64-mingw32/bin/../lib/gcc/nios2-elf/4.8.3/../../../../../H-x86_64-mingw32/nios2-elf/lib/mno-hw-mul\libc.a(lib_a-putc.o)
 .comment       0x0000000000000000       0x3a c:/altera/14.1/nios2eds/bin/gnu/h-x86_64-mingw32/bin/../lib/gcc/nios2-elf/4.8.3/../../../../../H-x86_64-mingw32/nios2-elf/lib/mno-hw-mul\libc.a(lib_a-reallocr.o)
 .comment       0x0000000000000000       0x3a c:/altera/14.1/nios2eds/bin/gnu/h-x86_64-mingw32/bin/../lib/gcc/nios2-elf/4.8.3/../../../../../H-x86_64-mingw32/nios2-elf/lib/mno-hw-mul\libc.a(lib_a-refill.o)
 .comment       0x0000000000000000       0x3a c:/altera/14.1/nios2eds/bin/gnu/h-x86_64-mingw32/bin/../lib/gcc/nios2-elf/4.8.3/../../../../../H-x86_64-mingw32/nios2-elf/lib/mno-hw-mul\libc.a(lib_a-sbrkr.o)
 .comment       0x0000000000000000       0x3a c:/altera/14.1/nios2eds/bin/gnu/h-x86_64-mingw32/bin/../lib/gcc/nios2-elf/4.8.3/../../../../../H-x86_64-mingw32/nios2-elf/lib/mno-hw-mul\libc.a(lib_a-stdio.o)
 .comment       0x0000000000000000       0x3a c:/altera/14.1/nios2eds/bin/gnu/h-x86_64-mingw32/bin/../lib/gcc/nios2-elf/4.8.3/../../../../../H-x86_64-mingw32/nios2-elf/lib/mno-hw-mul\libc.a(lib_a-wbuf.o)
 .comment       0x0000000000000000       0x3a c:/altera/14.1/nios2eds/bin/gnu/h-x86_64-mingw32/bin/../lib/gcc/nios2-elf/4.8.3/../../../../../H-x86_64-mingw32/nios2-elf/lib/mno-hw-mul\libc.a(lib_a-writer.o)
 .comment       0x0000000000000000       0x3a c:/altera/14.1/nios2eds/bin/gnu/h-x86_64-mingw32/bin/../lib/gcc/nios2-elf/4.8.3/../../../../../H-x86_64-mingw32/nios2-elf/lib/mno-hw-mul\libc.a(lib_a-wsetup.o)
 .comment       0x0000000000000000       0x3a c:/altera/14.1/nios2eds/bin/gnu/h-x86_64-mingw32/bin/../lib/gcc/nios2-elf/4.8.3/../../../../../H-x86_64-mingw32/nios2-elf/lib/mno-hw-mul\libc.a(closer.o)
 .comment       0x0000000000000000       0x3a c:/altera/14.1/nios2eds/bin/gnu/h-x86_64-mingw32/bin/../lib/gcc/nios2-elf/4.8.3/../../../../../H-x86_64-mingw32/nios2-elf/lib/mno-hw-mul\libc.a(lib_a-fclose.o)
 .comment       0x0000000000000000       0x3a c:/altera/14.1/nios2eds/bin/gnu/h-x86_64-mingw32/bin/../lib/gcc/nios2-elf/4.8.3/../../../../../H-x86_64-mingw32/nios2-elf/lib/mno-hw-mul\libc.a(lib_a-fflush.o)
 .comment       0x0000000000000000       0x3a c:/altera/14.1/nios2eds/bin/gnu/h-x86_64-mingw32/bin/../lib/gcc/nios2-elf/4.8.3/../../../../../H-x86_64-mingw32/nios2-elf/lib/mno-hw-mul\libc.a(lib_a-freer.o)
 .comment       0x0000000000000000       0x3a c:/altera/14.1/nios2eds/bin/gnu/h-x86_64-mingw32/bin/../lib/gcc/nios2-elf/4.8.3/../../../../../H-x86_64-mingw32/nios2-elf/lib/mno-hw-mul\libc.a(lib_a-int_errno.o)
 .comment       0x0000000000000000       0x3a c:/altera/14.1/nios2eds/bin/gnu/h-x86_64-mingw32/bin/../lib/gcc/nios2-elf/4.8.3/../../../../../H-x86_64-mingw32/nios2-elf/lib/mno-hw-mul\libc.a(lib_a-lseekr.o)
 .comment       0x0000000000000000       0x3a c:/altera/14.1/nios2eds/bin/gnu/h-x86_64-mingw32/bin/../lib/gcc/nios2-elf/4.8.3/../../../../../H-x86_64-mingw32/nios2-elf/lib/mno-hw-mul\libc.a(lib_a-makebuf.o)
 .comment       0x0000000000000000       0x3a c:/altera/14.1/nios2eds/bin/gnu/h-x86_64-mingw32/bin/../lib/gcc/nios2-elf/4.8.3/../../../../../H-x86_64-mingw32/nios2-elf/lib/mno-hw-mul\libc.a(lib_a-readr.o)
 .comment       0x0000000000000000       0x3a c:/altera/14.1/nios2eds/bin/gnu/h-x86_64-mingw32/bin/../lib/gcc/nios2-elf/4.8.3/../../../../../H-x86_64-mingw32/nios2-elf/lib/mno-hw-mul\libc.a(lib_a-fstatr.o)
 .comment       0x0000000000000000       0x3a c:/altera/14.1/nios2eds/bin/gnu/h-x86_64-mingw32/bin/../lib/gcc/nios2-elf/4.8.3/../../../../../H-x86_64-mingw32/nios2-elf/lib/mno-hw-mul\libc.a(lib_a-isattyr.o)
 .comment       0x0000000000000000       0x3a ../LEDTile_BSP2\libhal_bsp.a(alt_alarm_start.o)
 .comment       0x0000000000000000       0x3a ../LEDTile_BSP2\libhal_bsp.a(alt_close.o)
 .comment       0x0000000000000000       0x3a ../LEDTile_BSP2\libhal_bsp.a(alt_dev.o)
 .comment       0x0000000000000000       0x3a ../LEDTile_BSP2\libhal_bsp.a(alt_errno.o)
 .comment       0x0000000000000000       0x3a ../LEDTile_BSP2\libhal_bsp.a(alt_fstat.o)
 .comment       0x0000000000000000       0x3a ../LEDTile_BSP2\libhal_bsp.a(alt_isatty.o)
 .comment       0x0000000000000000       0x3a ../LEDTile_BSP2\libhal_bsp.a(alt_lseek.o)
 .comment       0x0000000000000000       0x3a ../LEDTile_BSP2\libhal_bsp.a(alt_main.o)
 .comment       0x0000000000000000       0x3a ../LEDTile_BSP2\libhal_bsp.a(alt_malloc_lock.o)
 .comment       0x0000000000000000       0x3a ../LEDTile_BSP2\libhal_bsp.a(alt_read.o)
 .comment       0x0000000000000000       0x3a ../LEDTile_BSP2\libhal_bsp.a(alt_release_fd.o)
 .comment       0x0000000000000000       0x3a ../LEDTile_BSP2\libhal_bsp.a(alt_sbrk.o)
 .comment       0x0000000000000000       0x3a ../LEDTile_BSP2\libhal_bsp.a(alt_tick.o)
 .comment       0x0000000000000000       0x3a ../LEDTile_BSP2\libhal_bsp.a(alt_write.o)
 .comment       0x0000000000000000       0x3a ../LEDTile_BSP2\libhal_bsp.a(alt_sys_init.o)
 .comment       0x0000000000000000       0x3a ../LEDTile_BSP2\libhal_bsp.a(altera_avalon_epcs_flash_controller.o)
 .comment       0x0000000000000000       0x3a ../LEDTile_BSP2\libhal_bsp.a(altera_avalon_jtag_uart_fd.o)
 .comment       0x0000000000000000       0x3a ../LEDTile_BSP2\libhal_bsp.a(altera_avalon_jtag_uart_init.o)
 .comment       0x0000000000000000       0x3a ../LEDTile_BSP2\libhal_bsp.a(altera_avalon_jtag_uart_ioctl.o)
 .comment       0x0000000000000000       0x3a ../LEDTile_BSP2\libhal_bsp.a(altera_avalon_jtag_uart_read.o)
 .comment       0x0000000000000000       0x3a ../LEDTile_BSP2\libhal_bsp.a(altera_avalon_jtag_uart_write.o)
 .comment       0x0000000000000000       0x3a ../LEDTile_BSP2\libhal_bsp.a(altera_avalon_timer_sc.o)
 .comment       0x0000000000000000       0x3a ../LEDTile_BSP2\libhal_bsp.a(altera_avalon_uart_fd.o)
 .comment       0x0000000000000000       0x3a ../LEDTile_BSP2\libhal_bsp.a(altera_avalon_uart_init.o)
 .comment       0x0000000000000000       0x3a ../LEDTile_BSP2\libhal_bsp.a(altera_avalon_uart_read.o)
 .comment       0x0000000000000000       0x3a ../LEDTile_BSP2\libhal_bsp.a(altera_avalon_uart_write.o)
 .comment       0x0000000000000000       0x3a ../LEDTile_BSP2\libhal_bsp.a(epcs_commands.o)
 .comment       0x0000000000000000       0x3a ../LEDTile_BSP2\libhal_bsp.a(alt_dev_llist_insert.o)
 .comment       0x0000000000000000       0x3a ../LEDTile_BSP2\libhal_bsp.a(alt_do_ctors.o)
 .comment       0x0000000000000000       0x3a ../LEDTile_BSP2\libhal_bsp.a(alt_do_dtors.o)
 .comment       0x0000000000000000       0x3a ../LEDTile_BSP2\libhal_bsp.a(alt_flash_dev.o)
 .comment       0x0000000000000000       0x3a ../LEDTile_BSP2\libhal_bsp.a(alt_iic.o)
 .comment       0x0000000000000000       0x3a ../LEDTile_BSP2\libhal_bsp.a(alt_iic_isr_register.o)
 .comment       0x0000000000000000       0x3a ../LEDTile_BSP2\libhal_bsp.a(alt_io_redirect.o)
 .comment       0x0000000000000000       0x3a ../LEDTile_BSP2\libhal_bsp.a(alt_irq_handler.o)
 .comment       0x0000000000000000       0x3a ../LEDTile_BSP2\libhal_bsp.a(alt_irq_vars.o)
 .comment       0x0000000000000000       0x3a ../LEDTile_BSP2\libhal_bsp.a(alt_open.o)
 .comment       0x0000000000000000       0x3a ../LEDTile_BSP2\libhal_bsp.a(altera_nios2_gen2_irq.o)
 .comment       0x0000000000000000       0x3a ../LEDTile_BSP2\libhal_bsp.a(altera_avalon_spi.o)
 .comment       0x0000000000000000       0x3a ../LEDTile_BSP2\libhal_bsp.a(alt_find_dev.o)
 .comment       0x0000000000000000       0x3a ../LEDTile_BSP2\libhal_bsp.a(alt_find_file.o)
 .comment       0x0000000000000000       0x3a ../LEDTile_BSP2\libhal_bsp.a(alt_get_fd.o)
 .comment       0x0000000000000000       0x3a ../LEDTile_BSP2\libhal_bsp.a(alt_instruction_exception_entry.o)
 .comment       0x0000000000000000       0x3a c:/altera/14.1/nios2eds/bin/gnu/h-x86_64-mingw32/bin/../lib/gcc/nios2-elf/4.8.3/../../../../../H-x86_64-mingw32/nios2-elf/lib/mno-hw-mul\libc.a(lib_a-atexit.o)
 .comment       0x0000000000000000       0x3a c:/altera/14.1/nios2eds/bin/gnu/h-x86_64-mingw32/bin/../lib/gcc/nios2-elf/4.8.3/../../../../../H-x86_64-mingw32/nios2-elf/lib/mno-hw-mul\libc.a(lib_a-exit.o)
 .comment       0x0000000000000000       0x3a c:/altera/14.1/nios2eds/bin/gnu/h-x86_64-mingw32/bin/../lib/gcc/nios2-elf/4.8.3/../../../../../H-x86_64-mingw32/nios2-elf/lib/mno-hw-mul\libc.a(lib_a-memcmp.o)
 .comment       0x0000000000000000       0x3a c:/altera/14.1/nios2eds/bin/gnu/h-x86_64-mingw32/bin/../lib/gcc/nios2-elf/4.8.3/../../../../../H-x86_64-mingw32/nios2-elf/lib/mno-hw-mul\libc.a(lib_a-__atexit.o)
 .comment       0x0000000000000000       0x3a c:/altera/14.1/nios2eds/bin/gnu/h-x86_64-mingw32/bin/../lib/gcc/nios2-elf/4.8.3/../../../../../H-x86_64-mingw32/nios2-elf/lib/mno-hw-mul\libc.a(lib_a-__call_atexit.o)
 .comment       0x0000000000000000       0x3a ../LEDTile_BSP2\libhal_bsp.a(alt_exit.o)

.debug
 *(.debug)

.line
 *(.line)

.debug_srcinfo
 *(.debug_srcinfo)

.debug_sfnames
 *(.debug_sfnames)

.debug_aranges  0x0000000000000000      0xbc8
 *(.debug_aranges)
 .debug_aranges
                0x0000000000000000       0x20 ../LEDTile_BSP2/obj/HAL/src/crt0.o
 .debug_aranges
                0x0000000000000020       0x20 obj/default/main.o
 .debug_aranges
                0x0000000000000040       0x20 ../LEDTileLib/obj/default\libLEDTileLib.a(LEDTileLib.o)
 .debug_aranges
                0x0000000000000060       0x20 c:/altera/14.1/nios2eds/bin/gnu/h-x86_64-mingw32/bin/../lib/gcc/nios2-elf/4.8.3/mno-hw-mul\libgcc.a(lib2-divmod.o)
 .debug_aranges
                0x0000000000000080       0x20 c:/altera/14.1/nios2eds/bin/gnu/h-x86_64-mingw32/bin/../lib/gcc/nios2-elf/4.8.3/mno-hw-mul\libgcc.a(divdf3.o)
 .debug_aranges
                0x00000000000000a0       0x20 c:/altera/14.1/nios2eds/bin/gnu/h-x86_64-mingw32/bin/../lib/gcc/nios2-elf/4.8.3/mno-hw-mul\libgcc.a(muldf3.o)
 .debug_aranges
                0x00000000000000c0       0x20 c:/altera/14.1/nios2eds/bin/gnu/h-x86_64-mingw32/bin/../lib/gcc/nios2-elf/4.8.3/mno-hw-mul\libgcc.a(fixdfsi.o)
 .debug_aranges
                0x00000000000000e0       0x20 c:/altera/14.1/nios2eds/bin/gnu/h-x86_64-mingw32/bin/../lib/gcc/nios2-elf/4.8.3/mno-hw-mul\libgcc.a(floatsidf.o)
 .debug_aranges
                0x0000000000000100       0x20 c:/altera/14.1/nios2eds/bin/gnu/h-x86_64-mingw32/bin/../lib/gcc/nios2-elf/4.8.3/mno-hw-mul\libgcc.a(_clzsi2.o)
 .debug_aranges
                0x0000000000000120       0x20 c:/altera/14.1/nios2eds/bin/gnu/h-x86_64-mingw32/bin/../lib/gcc/nios2-elf/4.8.3/mno-hw-mul\libgcc.a(lib2-mul.o)
 .debug_aranges
                0x0000000000000140       0x18 c:/altera/14.1/nios2eds/bin/gnu/h-x86_64-mingw32/bin/../lib/gcc/nios2-elf/4.8.3/mno-hw-mul\libgcc.a(_clz.o)
 .debug_aranges
                0x0000000000000158       0x20 c:/altera/14.1/nios2eds/bin/gnu/h-x86_64-mingw32/bin/../lib/gcc/nios2-elf/4.8.3/../../../../../H-x86_64-mingw32/nios2-elf/lib/mno-hw-mul\libc.a(lib_a-getc.o)
 .debug_aranges
                0x0000000000000178       0x18 c:/altera/14.1/nios2eds/bin/gnu/h-x86_64-mingw32/bin/../lib/gcc/nios2-elf/4.8.3/../../../../../H-x86_64-mingw32/nios2-elf/lib/mno-hw-mul\libc.a(lib_a-impure.o)
 .debug_aranges
                0x0000000000000190       0x20 c:/altera/14.1/nios2eds/bin/gnu/h-x86_64-mingw32/bin/../lib/gcc/nios2-elf/4.8.3/../../../../../H-x86_64-mingw32/nios2-elf/lib/mno-hw-mul\libc.a(lib_a-putchar.o)
 .debug_aranges
                0x00000000000001b0       0x20 c:/altera/14.1/nios2eds/bin/gnu/h-x86_64-mingw32/bin/../lib/gcc/nios2-elf/4.8.3/../../../../../H-x86_64-mingw32/nios2-elf/lib/mno-hw-mul\libc.a(lib_a-puts.o)
 .debug_aranges
                0x00000000000001d0       0x20 c:/altera/14.1/nios2eds/bin/gnu/h-x86_64-mingw32/bin/../lib/gcc/nios2-elf/4.8.3/../../../../../H-x86_64-mingw32/nios2-elf/lib/mno-hw-mul\libc.a(lib_a-rget.o)
 .debug_aranges
                0x00000000000001f0       0x20 c:/altera/14.1/nios2eds/bin/gnu/h-x86_64-mingw32/bin/../lib/gcc/nios2-elf/4.8.3/../../../../../H-x86_64-mingw32/nios2-elf/lib/mno-hw-mul\libc.a(lib_a-strlen.o)
 .debug_aranges
                0x0000000000000210       0x20 c:/altera/14.1/nios2eds/bin/gnu/h-x86_64-mingw32/bin/../lib/gcc/nios2-elf/4.8.3/../../../../../H-x86_64-mingw32/nios2-elf/lib/mno-hw-mul\libc.a(lib_a-findfp.o)
 .debug_aranges
                0x0000000000000230       0x20 c:/altera/14.1/nios2eds/bin/gnu/h-x86_64-mingw32/bin/../lib/gcc/nios2-elf/4.8.3/../../../../../H-x86_64-mingw32/nios2-elf/lib/mno-hw-mul\libc.a(lib_a-fvwrite.o)
 .debug_aranges
                0x0000000000000250       0x20 c:/altera/14.1/nios2eds/bin/gnu/h-x86_64-mingw32/bin/../lib/gcc/nios2-elf/4.8.3/../../../../../H-x86_64-mingw32/nios2-elf/lib/mno-hw-mul\libc.a(lib_a-fwalk.o)
 .debug_aranges
                0x0000000000000270       0x20 c:/altera/14.1/nios2eds/bin/gnu/h-x86_64-mingw32/bin/../lib/gcc/nios2-elf/4.8.3/../../../../../H-x86_64-mingw32/nios2-elf/lib/mno-hw-mul\libc.a(lib_a-mallocr.o)
 .debug_aranges
                0x0000000000000290       0x20 c:/altera/14.1/nios2eds/bin/gnu/h-x86_64-mingw32/bin/../lib/gcc/nios2-elf/4.8.3/../../../../../H-x86_64-mingw32/nios2-elf/lib/mno-hw-mul\libc.a(lib_a-memchr.o)
 .debug_aranges
                0x00000000000002b0       0x20 c:/altera/14.1/nios2eds/bin/gnu/h-x86_64-mingw32/bin/../lib/gcc/nios2-elf/4.8.3/../../../../../H-x86_64-mingw32/nios2-elf/lib/mno-hw-mul\libc.a(lib_a-memcpy.o)
 .debug_aranges
                0x00000000000002d0       0x20 c:/altera/14.1/nios2eds/bin/gnu/h-x86_64-mingw32/bin/../lib/gcc/nios2-elf/4.8.3/../../../../../H-x86_64-mingw32/nios2-elf/lib/mno-hw-mul\libc.a(lib_a-memmove.o)
 .debug_aranges
                0x00000000000002f0       0x20 c:/altera/14.1/nios2eds/bin/gnu/h-x86_64-mingw32/bin/../lib/gcc/nios2-elf/4.8.3/../../../../../H-x86_64-mingw32/nios2-elf/lib/mno-hw-mul\libc.a(lib_a-memset.o)
 .debug_aranges
                0x0000000000000310       0x20 c:/altera/14.1/nios2eds/bin/gnu/h-x86_64-mingw32/bin/../lib/gcc/nios2-elf/4.8.3/../../../../../H-x86_64-mingw32/nios2-elf/lib/mno-hw-mul\libc.a(lib_a-putc.o)
 .debug_aranges
                0x0000000000000330       0x20 c:/altera/14.1/nios2eds/bin/gnu/h-x86_64-mingw32/bin/../lib/gcc/nios2-elf/4.8.3/../../../../../H-x86_64-mingw32/nios2-elf/lib/mno-hw-mul\libc.a(lib_a-reallocr.o)
 .debug_aranges
                0x0000000000000350       0x20 c:/altera/14.1/nios2eds/bin/gnu/h-x86_64-mingw32/bin/../lib/gcc/nios2-elf/4.8.3/../../../../../H-x86_64-mingw32/nios2-elf/lib/mno-hw-mul\libc.a(lib_a-refill.o)
 .debug_aranges
                0x0000000000000370       0x20 c:/altera/14.1/nios2eds/bin/gnu/h-x86_64-mingw32/bin/../lib/gcc/nios2-elf/4.8.3/../../../../../H-x86_64-mingw32/nios2-elf/lib/mno-hw-mul\libc.a(lib_a-sbrkr.o)
 .debug_aranges
                0x0000000000000390       0x20 c:/altera/14.1/nios2eds/bin/gnu/h-x86_64-mingw32/bin/../lib/gcc/nios2-elf/4.8.3/../../../../../H-x86_64-mingw32/nios2-elf/lib/mno-hw-mul\libc.a(lib_a-stdio.o)
 .debug_aranges
                0x00000000000003b0       0x20 c:/altera/14.1/nios2eds/bin/gnu/h-x86_64-mingw32/bin/../lib/gcc/nios2-elf/4.8.3/../../../../../H-x86_64-mingw32/nios2-elf/lib/mno-hw-mul\libc.a(lib_a-wbuf.o)
 .debug_aranges
                0x00000000000003d0       0x20 c:/altera/14.1/nios2eds/bin/gnu/h-x86_64-mingw32/bin/../lib/gcc/nios2-elf/4.8.3/../../../../../H-x86_64-mingw32/nios2-elf/lib/mno-hw-mul\libc.a(lib_a-writer.o)
 .debug_aranges
                0x00000000000003f0       0x20 c:/altera/14.1/nios2eds/bin/gnu/h-x86_64-mingw32/bin/../lib/gcc/nios2-elf/4.8.3/../../../../../H-x86_64-mingw32/nios2-elf/lib/mno-hw-mul\libc.a(lib_a-wsetup.o)
 .debug_aranges
                0x0000000000000410       0x20 c:/altera/14.1/nios2eds/bin/gnu/h-x86_64-mingw32/bin/../lib/gcc/nios2-elf/4.8.3/../../../../../H-x86_64-mingw32/nios2-elf/lib/mno-hw-mul\libc.a(closer.o)
 .debug_aranges
                0x0000000000000430       0x20 c:/altera/14.1/nios2eds/bin/gnu/h-x86_64-mingw32/bin/../lib/gcc/nios2-elf/4.8.3/../../../../../H-x86_64-mingw32/nios2-elf/lib/mno-hw-mul\libc.a(lib_a-fclose.o)
 .debug_aranges
                0x0000000000000450       0x20 c:/altera/14.1/nios2eds/bin/gnu/h-x86_64-mingw32/bin/../lib/gcc/nios2-elf/4.8.3/../../../../../H-x86_64-mingw32/nios2-elf/lib/mno-hw-mul\libc.a(lib_a-fflush.o)
 .debug_aranges
                0x0000000000000470       0x20 c:/altera/14.1/nios2eds/bin/gnu/h-x86_64-mingw32/bin/../lib/gcc/nios2-elf/4.8.3/../../../../../H-x86_64-mingw32/nios2-elf/lib/mno-hw-mul\libc.a(lib_a-freer.o)
 .debug_aranges
                0x0000000000000490       0x18 c:/altera/14.1/nios2eds/bin/gnu/h-x86_64-mingw32/bin/../lib/gcc/nios2-elf/4.8.3/../../../../../H-x86_64-mingw32/nios2-elf/lib/mno-hw-mul\libc.a(lib_a-int_errno.o)
 .debug_aranges
                0x00000000000004a8       0x20 c:/altera/14.1/nios2eds/bin/gnu/h-x86_64-mingw32/bin/../lib/gcc/nios2-elf/4.8.3/../../../../../H-x86_64-mingw32/nios2-elf/lib/mno-hw-mul\libc.a(lib_a-lseekr.o)
 .debug_aranges
                0x00000000000004c8       0x20 c:/altera/14.1/nios2eds/bin/gnu/h-x86_64-mingw32/bin/../lib/gcc/nios2-elf/4.8.3/../../../../../H-x86_64-mingw32/nios2-elf/lib/mno-hw-mul\libc.a(lib_a-makebuf.o)
 .debug_aranges
                0x00000000000004e8       0x20 c:/altera/14.1/nios2eds/bin/gnu/h-x86_64-mingw32/bin/../lib/gcc/nios2-elf/4.8.3/../../../../../H-x86_64-mingw32/nios2-elf/lib/mno-hw-mul\libc.a(lib_a-readr.o)
 .debug_aranges
                0x0000000000000508       0x20 c:/altera/14.1/nios2eds/bin/gnu/h-x86_64-mingw32/bin/../lib/gcc/nios2-elf/4.8.3/../../../../../H-x86_64-mingw32/nios2-elf/lib/mno-hw-mul\libc.a(lib_a-fstatr.o)
 .debug_aranges
                0x0000000000000528       0x20 c:/altera/14.1/nios2eds/bin/gnu/h-x86_64-mingw32/bin/../lib/gcc/nios2-elf/4.8.3/../../../../../H-x86_64-mingw32/nios2-elf/lib/mno-hw-mul\libc.a(lib_a-isattyr.o)
 .debug_aranges
                0x0000000000000548       0x20 ../LEDTile_BSP2\libhal_bsp.a(alt_alarm_start.o)
 .debug_aranges
                0x0000000000000568       0x20 ../LEDTile_BSP2\libhal_bsp.a(alt_close.o)
 .debug_aranges
                0x0000000000000588       0x20 ../LEDTile_BSP2\libhal_bsp.a(alt_dev.o)
 .debug_aranges
                0x00000000000005a8       0x18 ../LEDTile_BSP2\libhal_bsp.a(alt_errno.o)
 .debug_aranges
                0x00000000000005c0       0x20 ../LEDTile_BSP2\libhal_bsp.a(alt_fstat.o)
 .debug_aranges
                0x00000000000005e0       0x20 ../LEDTile_BSP2\libhal_bsp.a(alt_isatty.o)
 .debug_aranges
                0x0000000000000600       0x20 ../LEDTile_BSP2\libhal_bsp.a(alt_lseek.o)
 .debug_aranges
                0x0000000000000620       0x20 ../LEDTile_BSP2\libhal_bsp.a(alt_main.o)
 .debug_aranges
                0x0000000000000640       0x20 ../LEDTile_BSP2\libhal_bsp.a(alt_malloc_lock.o)
 .debug_aranges
                0x0000000000000660       0x20 ../LEDTile_BSP2\libhal_bsp.a(alt_read.o)
 .debug_aranges
                0x0000000000000680       0x20 ../LEDTile_BSP2\libhal_bsp.a(alt_release_fd.o)
 .debug_aranges
                0x00000000000006a0       0x20 ../LEDTile_BSP2\libhal_bsp.a(alt_sbrk.o)
 .debug_aranges
                0x00000000000006c0       0x20 ../LEDTile_BSP2\libhal_bsp.a(alt_tick.o)
 .debug_aranges
                0x00000000000006e0       0x20 ../LEDTile_BSP2\libhal_bsp.a(alt_write.o)
 .debug_aranges
                0x0000000000000700       0x20 ../LEDTile_BSP2\libhal_bsp.a(alt_sys_init.o)
 .debug_aranges
                0x0000000000000720       0x20 ../LEDTile_BSP2\libhal_bsp.a(altera_avalon_epcs_flash_controller.o)
 .debug_aranges
                0x0000000000000740       0x20 ../LEDTile_BSP2\libhal_bsp.a(altera_avalon_jtag_uart_fd.o)
 .debug_aranges
                0x0000000000000760       0x20 ../LEDTile_BSP2\libhal_bsp.a(altera_avalon_jtag_uart_init.o)
 .debug_aranges
                0x0000000000000780       0x20 ../LEDTile_BSP2\libhal_bsp.a(altera_avalon_jtag_uart_ioctl.o)
 .debug_aranges
                0x00000000000007a0       0x20 ../LEDTile_BSP2\libhal_bsp.a(altera_avalon_jtag_uart_read.o)
 .debug_aranges
                0x00000000000007c0       0x20 ../LEDTile_BSP2\libhal_bsp.a(altera_avalon_jtag_uart_write.o)
 .debug_aranges
                0x00000000000007e0       0x20 ../LEDTile_BSP2\libhal_bsp.a(altera_avalon_timer_sc.o)
 .debug_aranges
                0x0000000000000800       0x20 ../LEDTile_BSP2\libhal_bsp.a(altera_avalon_uart_fd.o)
 .debug_aranges
                0x0000000000000820       0x20 ../LEDTile_BSP2\libhal_bsp.a(altera_avalon_uart_init.o)
 .debug_aranges
                0x0000000000000840       0x20 ../LEDTile_BSP2\libhal_bsp.a(altera_avalon_uart_read.o)
 .debug_aranges
                0x0000000000000860       0x20 ../LEDTile_BSP2\libhal_bsp.a(altera_avalon_uart_write.o)
 .debug_aranges
                0x0000000000000880       0x20 ../LEDTile_BSP2\libhal_bsp.a(epcs_commands.o)
 .debug_aranges
                0x00000000000008a0       0x20 ../LEDTile_BSP2\libhal_bsp.a(alt_dev_llist_insert.o)
 .debug_aranges
                0x00000000000008c0       0x20 ../LEDTile_BSP2\libhal_bsp.a(alt_do_ctors.o)
 .debug_aranges
                0x00000000000008e0       0x20 ../LEDTile_BSP2\libhal_bsp.a(alt_do_dtors.o)
 .debug_aranges
                0x0000000000000900       0x20 ../LEDTile_BSP2\libhal_bsp.a(alt_flash_dev.o)
 .debug_aranges
                0x0000000000000920       0x20 ../LEDTile_BSP2\libhal_bsp.a(alt_iic.o)
 .debug_aranges
                0x0000000000000940       0x20 ../LEDTile_BSP2\libhal_bsp.a(alt_iic_isr_register.o)
 .debug_aranges
                0x0000000000000960       0x20 ../LEDTile_BSP2\libhal_bsp.a(alt_io_redirect.o)
 .debug_aranges
                0x0000000000000980       0x30 ../LEDTile_BSP2\libhal_bsp.a(alt_irq_entry.o)
 .debug_aranges
                0x00000000000009b0       0x20 ../LEDTile_BSP2\libhal_bsp.a(alt_irq_handler.o)
 .debug_aranges
                0x00000000000009d0       0x18 ../LEDTile_BSP2\libhal_bsp.a(alt_irq_vars.o)
 .debug_aranges
                0x00000000000009e8       0x20 ../LEDTile_BSP2\libhal_bsp.a(alt_open.o)
 .debug_aranges
                0x0000000000000a08       0x20 ../LEDTile_BSP2\libhal_bsp.a(altera_nios2_gen2_irq.o)
 .debug_aranges
                0x0000000000000a28       0x20 ../LEDTile_BSP2\libhal_bsp.a(altera_avalon_spi.o)
 .debug_aranges
                0x0000000000000a48       0x38 ../LEDTile_BSP2\libhal_bsp.a(alt_exception_entry.o)
 .debug_aranges
                0x0000000000000a80       0x20 ../LEDTile_BSP2\libhal_bsp.a(alt_find_dev.o)
 .debug_aranges
                0x0000000000000aa0       0x20 ../LEDTile_BSP2\libhal_bsp.a(alt_find_file.o)
 .debug_aranges
                0x0000000000000ac0       0x20 ../LEDTile_BSP2\libhal_bsp.a(alt_get_fd.o)
 .debug_aranges
                0x0000000000000ae0       0x28 ../LEDTile_BSP2\libhal_bsp.a(alt_instruction_exception_entry.o)
 .debug_aranges
                0x0000000000000b08       0x20 c:/altera/14.1/nios2eds/bin/gnu/h-x86_64-mingw32/bin/../lib/gcc/nios2-elf/4.8.3/../../../../../H-x86_64-mingw32/nios2-elf/lib/mno-hw-mul\libc.a(lib_a-atexit.o)
 .debug_aranges
                0x0000000000000b28       0x20 c:/altera/14.1/nios2eds/bin/gnu/h-x86_64-mingw32/bin/../lib/gcc/nios2-elf/4.8.3/../../../../../H-x86_64-mingw32/nios2-elf/lib/mno-hw-mul\libc.a(lib_a-exit.o)
 .debug_aranges
                0x0000000000000b48       0x20 c:/altera/14.1/nios2eds/bin/gnu/h-x86_64-mingw32/bin/../lib/gcc/nios2-elf/4.8.3/../../../../../H-x86_64-mingw32/nios2-elf/lib/mno-hw-mul\libc.a(lib_a-memcmp.o)
 .debug_aranges
                0x0000000000000b68       0x20 c:/altera/14.1/nios2eds/bin/gnu/h-x86_64-mingw32/bin/../lib/gcc/nios2-elf/4.8.3/../../../../../H-x86_64-mingw32/nios2-elf/lib/mno-hw-mul\libc.a(lib_a-__atexit.o)
 .debug_aranges
                0x0000000000000b88       0x20 c:/altera/14.1/nios2eds/bin/gnu/h-x86_64-mingw32/bin/../lib/gcc/nios2-elf/4.8.3/../../../../../H-x86_64-mingw32/nios2-elf/lib/mno-hw-mul\libc.a(lib_a-__call_atexit.o)
 .debug_aranges
                0x0000000000000ba8       0x20 ../LEDTile_BSP2\libhal_bsp.a(alt_exit.o)

.debug_pubnames
 *(.debug_pubnames)

.debug_info     0x0000000000000000    0x1df1b
 *(.debug_info .gnu.linkonce.wi.*)
 .debug_info    0x0000000000000000       0x7b ../LEDTile_BSP2/obj/HAL/src/crt0.o
 .debug_info    0x000000000000007b      0xcaf obj/default/main.o
 .debug_info    0x0000000000000d2a      0x48c ../LEDTileLib/obj/default\libLEDTileLib.a(LEDTileLib.o)
 .debug_info    0x00000000000011b6      0x270 c:/altera/14.1/nios2eds/bin/gnu/h-x86_64-mingw32/bin/../lib/gcc/nios2-elf/4.8.3/mno-hw-mul\libgcc.a(lib2-divmod.o)
 .debug_info    0x0000000000001426      0x5be c:/altera/14.1/nios2eds/bin/gnu/h-x86_64-mingw32/bin/../lib/gcc/nios2-elf/4.8.3/mno-hw-mul\libgcc.a(divdf3.o)
 .debug_info    0x00000000000019e4      0x5ec c:/altera/14.1/nios2eds/bin/gnu/h-x86_64-mingw32/bin/../lib/gcc/nios2-elf/4.8.3/mno-hw-mul\libgcc.a(muldf3.o)
 .debug_info    0x0000000000001fd0      0x1a9 c:/altera/14.1/nios2eds/bin/gnu/h-x86_64-mingw32/bin/../lib/gcc/nios2-elf/4.8.3/mno-hw-mul\libgcc.a(fixdfsi.o)
 .debug_info    0x0000000000002179      0x1c2 c:/altera/14.1/nios2eds/bin/gnu/h-x86_64-mingw32/bin/../lib/gcc/nios2-elf/4.8.3/mno-hw-mul\libgcc.a(floatsidf.o)
 .debug_info    0x000000000000233b      0x11d c:/altera/14.1/nios2eds/bin/gnu/h-x86_64-mingw32/bin/../lib/gcc/nios2-elf/4.8.3/mno-hw-mul\libgcc.a(_clzsi2.o)
 .debug_info    0x0000000000002458       0xb4 c:/altera/14.1/nios2eds/bin/gnu/h-x86_64-mingw32/bin/../lib/gcc/nios2-elf/4.8.3/mno-hw-mul\libgcc.a(lib2-mul.o)
 .debug_info    0x000000000000250c       0xab c:/altera/14.1/nios2eds/bin/gnu/h-x86_64-mingw32/bin/../lib/gcc/nios2-elf/4.8.3/mno-hw-mul\libgcc.a(_clz.o)
 .debug_info    0x00000000000025b7      0x98a c:/altera/14.1/nios2eds/bin/gnu/h-x86_64-mingw32/bin/../lib/gcc/nios2-elf/4.8.3/../../../../../H-x86_64-mingw32/nios2-elf/lib/mno-hw-mul\libc.a(lib_a-getc.o)
 .debug_info    0x0000000000002f41      0x88f c:/altera/14.1/nios2eds/bin/gnu/h-x86_64-mingw32/bin/../lib/gcc/nios2-elf/4.8.3/../../../../../H-x86_64-mingw32/nios2-elf/lib/mno-hw-mul\libc.a(lib_a-impure.o)
 .debug_info    0x00000000000037d0      0x921 c:/altera/14.1/nios2eds/bin/gnu/h-x86_64-mingw32/bin/../lib/gcc/nios2-elf/4.8.3/../../../../../H-x86_64-mingw32/nios2-elf/lib/mno-hw-mul\libc.a(lib_a-putchar.o)
 .debug_info    0x00000000000040f1      0x9f4 c:/altera/14.1/nios2eds/bin/gnu/h-x86_64-mingw32/bin/../lib/gcc/nios2-elf/4.8.3/../../../../../H-x86_64-mingw32/nios2-elf/lib/mno-hw-mul\libc.a(lib_a-puts.o)
 .debug_info    0x0000000000004ae5      0x935 c:/altera/14.1/nios2eds/bin/gnu/h-x86_64-mingw32/bin/../lib/gcc/nios2-elf/4.8.3/../../../../../H-x86_64-mingw32/nios2-elf/lib/mno-hw-mul\libc.a(lib_a-rget.o)
 .debug_info    0x000000000000541a       0xdb c:/altera/14.1/nios2eds/bin/gnu/h-x86_64-mingw32/bin/../lib/gcc/nios2-elf/4.8.3/../../../../../H-x86_64-mingw32/nios2-elf/lib/mno-hw-mul\libc.a(lib_a-strlen.o)
 .debug_info    0x00000000000054f5      0xd07 c:/altera/14.1/nios2eds/bin/gnu/h-x86_64-mingw32/bin/../lib/gcc/nios2-elf/4.8.3/../../../../../H-x86_64-mingw32/nios2-elf/lib/mno-hw-mul\libc.a(lib_a-findfp.o)
 .debug_info    0x00000000000061fc      0xc31 c:/altera/14.1/nios2eds/bin/gnu/h-x86_64-mingw32/bin/../lib/gcc/nios2-elf/4.8.3/../../../../../H-x86_64-mingw32/nios2-elf/lib/mno-hw-mul\libc.a(lib_a-fvwrite.o)
 .debug_info    0x0000000000006e2d      0xab7 c:/altera/14.1/nios2eds/bin/gnu/h-x86_64-mingw32/bin/../lib/gcc/nios2-elf/4.8.3/../../../../../H-x86_64-mingw32/nios2-elf/lib/mno-hw-mul\libc.a(lib_a-fwalk.o)
 .debug_info    0x00000000000078e4      0xd7c c:/altera/14.1/nios2eds/bin/gnu/h-x86_64-mingw32/bin/../lib/gcc/nios2-elf/4.8.3/../../../../../H-x86_64-mingw32/nios2-elf/lib/mno-hw-mul\libc.a(lib_a-mallocr.o)
 .debug_info    0x0000000000008660      0x12b c:/altera/14.1/nios2eds/bin/gnu/h-x86_64-mingw32/bin/../lib/gcc/nios2-elf/4.8.3/../../../../../H-x86_64-mingw32/nios2-elf/lib/mno-hw-mul\libc.a(lib_a-memchr.o)
 .debug_info    0x000000000000878b      0x133 c:/altera/14.1/nios2eds/bin/gnu/h-x86_64-mingw32/bin/../lib/gcc/nios2-elf/4.8.3/../../../../../H-x86_64-mingw32/nios2-elf/lib/mno-hw-mul\libc.a(lib_a-memcpy.o)
 .debug_info    0x00000000000088be      0x133 c:/altera/14.1/nios2eds/bin/gnu/h-x86_64-mingw32/bin/../lib/gcc/nios2-elf/4.8.3/../../../../../H-x86_64-mingw32/nios2-elf/lib/mno-hw-mul\libc.a(lib_a-memmove.o)
 .debug_info    0x00000000000089f1      0x11a c:/altera/14.1/nios2eds/bin/gnu/h-x86_64-mingw32/bin/../lib/gcc/nios2-elf/4.8.3/../../../../../H-x86_64-mingw32/nios2-elf/lib/mno-hw-mul\libc.a(lib_a-memset.o)
 .debug_info    0x0000000000008b0b      0x977 c:/altera/14.1/nios2eds/bin/gnu/h-x86_64-mingw32/bin/../lib/gcc/nios2-elf/4.8.3/../../../../../H-x86_64-mingw32/nios2-elf/lib/mno-hw-mul\libc.a(lib_a-putc.o)
 .debug_info    0x0000000000009482      0xc9c c:/altera/14.1/nios2eds/bin/gnu/h-x86_64-mingw32/bin/../lib/gcc/nios2-elf/4.8.3/../../../../../H-x86_64-mingw32/nios2-elf/lib/mno-hw-mul\libc.a(lib_a-reallocr.o)
 .debug_info    0x000000000000a11e      0x9f3 c:/altera/14.1/nios2eds/bin/gnu/h-x86_64-mingw32/bin/../lib/gcc/nios2-elf/4.8.3/../../../../../H-x86_64-mingw32/nios2-elf/lib/mno-hw-mul\libc.a(lib_a-refill.o)
 .debug_info    0x000000000000ab11      0x8ef c:/altera/14.1/nios2eds/bin/gnu/h-x86_64-mingw32/bin/../lib/gcc/nios2-elf/4.8.3/../../../../../H-x86_64-mingw32/nios2-elf/lib/mno-hw-mul\libc.a(lib_a-sbrkr.o)
 .debug_info    0x000000000000b400      0xb83 c:/altera/14.1/nios2eds/bin/gnu/h-x86_64-mingw32/bin/../lib/gcc/nios2-elf/4.8.3/../../../../../H-x86_64-mingw32/nios2-elf/lib/mno-hw-mul\libc.a(lib_a-stdio.o)
 .debug_info    0x000000000000bf83      0x9cc c:/altera/14.1/nios2eds/bin/gnu/h-x86_64-mingw32/bin/../lib/gcc/nios2-elf/4.8.3/../../../../../H-x86_64-mingw32/nios2-elf/lib/mno-hw-mul\libc.a(lib_a-wbuf.o)
 .debug_info    0x000000000000c94f      0x921 c:/altera/14.1/nios2eds/bin/gnu/h-x86_64-mingw32/bin/../lib/gcc/nios2-elf/4.8.3/../../../../../H-x86_64-mingw32/nios2-elf/lib/mno-hw-mul\libc.a(lib_a-writer.o)
 .debug_info    0x000000000000d270      0x91d c:/altera/14.1/nios2eds/bin/gnu/h-x86_64-mingw32/bin/../lib/gcc/nios2-elf/4.8.3/../../../../../H-x86_64-mingw32/nios2-elf/lib/mno-hw-mul\libc.a(lib_a-wsetup.o)
 .debug_info    0x000000000000db8d      0x8ce c:/altera/14.1/nios2eds/bin/gnu/h-x86_64-mingw32/bin/../lib/gcc/nios2-elf/4.8.3/../../../../../H-x86_64-mingw32/nios2-elf/lib/mno-hw-mul\libc.a(closer.o)
 .debug_info    0x000000000000e45b      0x9d5 c:/altera/14.1/nios2eds/bin/gnu/h-x86_64-mingw32/bin/../lib/gcc/nios2-elf/4.8.3/../../../../../H-x86_64-mingw32/nios2-elf/lib/mno-hw-mul\libc.a(lib_a-fclose.o)
 .debug_info    0x000000000000ee30      0xa3a c:/altera/14.1/nios2eds/bin/gnu/h-x86_64-mingw32/bin/../lib/gcc/nios2-elf/4.8.3/../../../../../H-x86_64-mingw32/nios2-elf/lib/mno-hw-mul\libc.a(lib_a-fflush.o)
 .debug_info    0x000000000000f86a      0xc17 c:/altera/14.1/nios2eds/bin/gnu/h-x86_64-mingw32/bin/../lib/gcc/nios2-elf/4.8.3/../../../../../H-x86_64-mingw32/nios2-elf/lib/mno-hw-mul\libc.a(lib_a-freer.o)
 .debug_info    0x0000000000010481       0x83 c:/altera/14.1/nios2eds/bin/gnu/h-x86_64-mingw32/bin/../lib/gcc/nios2-elf/4.8.3/../../../../../H-x86_64-mingw32/nios2-elf/lib/mno-hw-mul\libc.a(lib_a-int_errno.o)
 .debug_info    0x0000000000010504      0x91a c:/altera/14.1/nios2eds/bin/gnu/h-x86_64-mingw32/bin/../lib/gcc/nios2-elf/4.8.3/../../../../../H-x86_64-mingw32/nios2-elf/lib/mno-hw-mul\libc.a(lib_a-lseekr.o)
 .debug_info    0x0000000000010e1e      0xaff c:/altera/14.1/nios2eds/bin/gnu/h-x86_64-mingw32/bin/../lib/gcc/nios2-elf/4.8.3/../../../../../H-x86_64-mingw32/nios2-elf/lib/mno-hw-mul\libc.a(lib_a-makebuf.o)
 .debug_info    0x000000000001191d      0x91a c:/altera/14.1/nios2eds/bin/gnu/h-x86_64-mingw32/bin/../lib/gcc/nios2-elf/4.8.3/../../../../../H-x86_64-mingw32/nios2-elf/lib/mno-hw-mul\libc.a(lib_a-readr.o)
 .debug_info    0x0000000000012237      0xa5c c:/altera/14.1/nios2eds/bin/gnu/h-x86_64-mingw32/bin/../lib/gcc/nios2-elf/4.8.3/../../../../../H-x86_64-mingw32/nios2-elf/lib/mno-hw-mul\libc.a(lib_a-fstatr.o)
 .debug_info    0x0000000000012c93      0x8ce c:/altera/14.1/nios2eds/bin/gnu/h-x86_64-mingw32/bin/../lib/gcc/nios2-elf/4.8.3/../../../../../H-x86_64-mingw32/nios2-elf/lib/mno-hw-mul\libc.a(lib_a-isattyr.o)
 .debug_info    0x0000000000013561      0x2c5 ../LEDTile_BSP2\libhal_bsp.a(alt_alarm_start.o)
 .debug_info    0x0000000000013826      0x31a ../LEDTile_BSP2\libhal_bsp.a(alt_close.o)
 .debug_info    0x0000000000013b40      0x495 ../LEDTile_BSP2\libhal_bsp.a(alt_dev.o)
 .debug_info    0x0000000000013fd5       0x9f ../LEDTile_BSP2\libhal_bsp.a(alt_errno.o)
 .debug_info    0x0000000000014074      0x481 ../LEDTile_BSP2\libhal_bsp.a(alt_fstat.o)
 .debug_info    0x00000000000144f5      0x484 ../LEDTile_BSP2\libhal_bsp.a(alt_isatty.o)
 .debug_info    0x0000000000014979      0x34b ../LEDTile_BSP2\libhal_bsp.a(alt_lseek.o)
 .debug_info    0x0000000000014cc4      0x12a ../LEDTile_BSP2\libhal_bsp.a(alt_main.o)
 .debug_info    0x0000000000014dee      0x89f ../LEDTile_BSP2\libhal_bsp.a(alt_malloc_lock.o)
 .debug_info    0x000000000001568d      0x4a9 ../LEDTile_BSP2\libhal_bsp.a(alt_read.o)
 .debug_info    0x0000000000015b36      0x2b0 ../LEDTile_BSP2\libhal_bsp.a(alt_release_fd.o)
 .debug_info    0x0000000000015de6      0x1a5 ../LEDTile_BSP2\libhal_bsp.a(alt_sbrk.o)
 .debug_info    0x0000000000015f8b      0x292 ../LEDTile_BSP2\libhal_bsp.a(alt_tick.o)
 .debug_info    0x000000000001621d      0x4b0 ../LEDTile_BSP2\libhal_bsp.a(alt_write.o)
 .debug_info    0x00000000000166cd      0x877 ../LEDTile_BSP2\libhal_bsp.a(alt_sys_init.o)
 .debug_info    0x0000000000016f44      0x83a ../LEDTile_BSP2\libhal_bsp.a(altera_avalon_epcs_flash_controller.o)
 .debug_info    0x000000000001777e      0x527 ../LEDTile_BSP2\libhal_bsp.a(altera_avalon_jtag_uart_fd.o)
 .debug_info    0x0000000000017ca5      0x3a1 ../LEDTile_BSP2\libhal_bsp.a(altera_avalon_jtag_uart_init.o)
 .debug_info    0x0000000000018046      0x279 ../LEDTile_BSP2\libhal_bsp.a(altera_avalon_jtag_uart_ioctl.o)
 .debug_info    0x00000000000182bf      0x342 ../LEDTile_BSP2\libhal_bsp.a(altera_avalon_jtag_uart_read.o)
 .debug_info    0x0000000000018601      0x339 ../LEDTile_BSP2\libhal_bsp.a(altera_avalon_jtag_uart_write.o)
 .debug_info    0x000000000001893a      0x21f ../LEDTile_BSP2\libhal_bsp.a(altera_avalon_timer_sc.o)
 .debug_info    0x0000000000018b59      0x440 ../LEDTile_BSP2\libhal_bsp.a(altera_avalon_uart_fd.o)
 .debug_info    0x0000000000018f99      0x32c ../LEDTile_BSP2\libhal_bsp.a(altera_avalon_uart_init.o)
 .debug_info    0x00000000000192c5      0x312 ../LEDTile_BSP2\libhal_bsp.a(altera_avalon_uart_read.o)
 .debug_info    0x00000000000195d7      0x317 ../LEDTile_BSP2\libhal_bsp.a(altera_avalon_uart_write.o)
 .debug_info    0x00000000000198ee      0x448 ../LEDTile_BSP2\libhal_bsp.a(epcs_commands.o)
 .debug_info    0x0000000000019d36      0x1a2 ../LEDTile_BSP2\libhal_bsp.a(alt_dev_llist_insert.o)
 .debug_info    0x0000000000019ed8       0x83 ../LEDTile_BSP2\libhal_bsp.a(alt_do_ctors.o)
 .debug_info    0x0000000000019f5b       0x83 ../LEDTile_BSP2\libhal_bsp.a(alt_do_dtors.o)
 .debug_info    0x0000000000019fde      0x394 ../LEDTile_BSP2\libhal_bsp.a(alt_flash_dev.o)
 .debug_info    0x000000000001a372      0x349 ../LEDTile_BSP2\libhal_bsp.a(alt_iic.o)
 .debug_info    0x000000000001a6bb      0x1e8 ../LEDTile_BSP2\libhal_bsp.a(alt_iic_isr_register.o)
 .debug_info    0x000000000001a8a3      0x49e ../LEDTile_BSP2\libhal_bsp.a(alt_io_redirect.o)
 .debug_info    0x000000000001ad41       0x80 ../LEDTile_BSP2\libhal_bsp.a(alt_irq_entry.o)
 .debug_info    0x000000000001adc1      0x180 ../LEDTile_BSP2\libhal_bsp.a(alt_irq_handler.o)
 .debug_info    0x000000000001af41       0x88 ../LEDTile_BSP2\libhal_bsp.a(alt_irq_vars.o)
 .debug_info    0x000000000001afc9      0x3b4 ../LEDTile_BSP2\libhal_bsp.a(alt_open.o)
 .debug_info    0x000000000001b37d       0x8b ../LEDTile_BSP2\libhal_bsp.a(altera_nios2_gen2_irq.o)
 .debug_info    0x000000000001b408      0x186 ../LEDTile_BSP2\libhal_bsp.a(altera_avalon_spi.o)
 .debug_info    0x000000000001b58e       0x86 ../LEDTile_BSP2\libhal_bsp.a(alt_exception_entry.o)
 .debug_info    0x000000000001b614      0x2e2 ../LEDTile_BSP2\libhal_bsp.a(alt_find_dev.o)
 .debug_info    0x000000000001b8f6      0x2df ../LEDTile_BSP2\libhal_bsp.a(alt_find_file.o)
 .debug_info    0x000000000001bbd5      0x309 ../LEDTile_BSP2\libhal_bsp.a(alt_get_fd.o)
 .debug_info    0x000000000001bede      0x1d8 ../LEDTile_BSP2\libhal_bsp.a(alt_instruction_exception_entry.o)
 .debug_info    0x000000000001c0b6      0x10a c:/altera/14.1/nios2eds/bin/gnu/h-x86_64-mingw32/bin/../lib/gcc/nios2-elf/4.8.3/../../../../../H-x86_64-mingw32/nios2-elf/lib/mno-hw-mul\libc.a(lib_a-atexit.o)
 .debug_info    0x000000000001c1c0      0x8df c:/altera/14.1/nios2eds/bin/gnu/h-x86_64-mingw32/bin/../lib/gcc/nios2-elf/4.8.3/../../../../../H-x86_64-mingw32/nios2-elf/lib/mno-hw-mul\libc.a(lib_a-exit.o)
 .debug_info    0x000000000001ca9f      0x113 c:/altera/14.1/nios2eds/bin/gnu/h-x86_64-mingw32/bin/../lib/gcc/nios2-elf/4.8.3/../../../../../H-x86_64-mingw32/nios2-elf/lib/mno-hw-mul\libc.a(lib_a-memcmp.o)
 .debug_info    0x000000000001cbb2      0x93b c:/altera/14.1/nios2eds/bin/gnu/h-x86_64-mingw32/bin/../lib/gcc/nios2-elf/4.8.3/../../../../../H-x86_64-mingw32/nios2-elf/lib/mno-hw-mul\libc.a(lib_a-__atexit.o)
 .debug_info    0x000000000001d4ed      0x949 c:/altera/14.1/nios2eds/bin/gnu/h-x86_64-mingw32/bin/../lib/gcc/nios2-elf/4.8.3/../../../../../H-x86_64-mingw32/nios2-elf/lib/mno-hw-mul\libc.a(lib_a-__call_atexit.o)
 .debug_info    0x000000000001de36       0xe5 ../LEDTile_BSP2\libhal_bsp.a(alt_exit.o)

.debug_abbrev   0x0000000000000000     0x7e75
 *(.debug_abbrev)
 .debug_abbrev  0x0000000000000000       0x14 ../LEDTile_BSP2/obj/HAL/src/crt0.o
 .debug_abbrev  0x0000000000000014      0x254 obj/default/main.o
 .debug_abbrev  0x0000000000000268      0x120 ../LEDTileLib/obj/default\libLEDTileLib.a(LEDTileLib.o)
 .debug_abbrev  0x0000000000000388       0xf6 c:/altera/14.1/nios2eds/bin/gnu/h-x86_64-mingw32/bin/../lib/gcc/nios2-elf/4.8.3/mno-hw-mul\libgcc.a(lib2-divmod.o)
 .debug_abbrev  0x000000000000047e      0x120 c:/altera/14.1/nios2eds/bin/gnu/h-x86_64-mingw32/bin/../lib/gcc/nios2-elf/4.8.3/mno-hw-mul\libgcc.a(divdf3.o)
 .debug_abbrev  0x000000000000059e      0x132 c:/altera/14.1/nios2eds/bin/gnu/h-x86_64-mingw32/bin/../lib/gcc/nios2-elf/4.8.3/mno-hw-mul\libgcc.a(muldf3.o)
 .debug_abbrev  0x00000000000006d0      0x128 c:/altera/14.1/nios2eds/bin/gnu/h-x86_64-mingw32/bin/../lib/gcc/nios2-elf/4.8.3/mno-hw-mul\libgcc.a(fixdfsi.o)
 .debug_abbrev  0x00000000000007f8      0x12d c:/altera/14.1/nios2eds/bin/gnu/h-x86_64-mingw32/bin/../lib/gcc/nios2-elf/4.8.3/mno-hw-mul\libgcc.a(floatsidf.o)
 .debug_abbrev  0x0000000000000925       0xbe c:/altera/14.1/nios2eds/bin/gnu/h-x86_64-mingw32/bin/../lib/gcc/nios2-elf/4.8.3/mno-hw-mul\libgcc.a(_clzsi2.o)
 .debug_abbrev  0x00000000000009e3       0x6f c:/altera/14.1/nios2eds/bin/gnu/h-x86_64-mingw32/bin/../lib/gcc/nios2-elf/4.8.3/mno-hw-mul\libgcc.a(lib2-mul.o)
 .debug_abbrev  0x0000000000000a52       0x5d c:/altera/14.1/nios2eds/bin/gnu/h-x86_64-mingw32/bin/../lib/gcc/nios2-elf/4.8.3/mno-hw-mul\libgcc.a(_clz.o)
 .debug_abbrev  0x0000000000000aaf      0x224 c:/altera/14.1/nios2eds/bin/gnu/h-x86_64-mingw32/bin/../lib/gcc/nios2-elf/4.8.3/../../../../../H-x86_64-mingw32/nios2-elf/lib/mno-hw-mul\libc.a(lib_a-getc.o)
 .debug_abbrev  0x0000000000000cd3      0x180 c:/altera/14.1/nios2eds/bin/gnu/h-x86_64-mingw32/bin/../lib/gcc/nios2-elf/4.8.3/../../../../../H-x86_64-mingw32/nios2-elf/lib/mno-hw-mul\libc.a(lib_a-impure.o)
 .debug_abbrev  0x0000000000000e53      0x1eb c:/altera/14.1/nios2eds/bin/gnu/h-x86_64-mingw32/bin/../lib/gcc/nios2-elf/4.8.3/../../../../../H-x86_64-mingw32/nios2-elf/lib/mno-hw-mul\libc.a(lib_a-putchar.o)
 .debug_abbrev  0x000000000000103e      0x226 c:/altera/14.1/nios2eds/bin/gnu/h-x86_64-mingw32/bin/../lib/gcc/nios2-elf/4.8.3/../../../../../H-x86_64-mingw32/nios2-elf/lib/mno-hw-mul\libc.a(lib_a-puts.o)
 .debug_abbrev  0x0000000000001264      0x214 c:/altera/14.1/nios2eds/bin/gnu/h-x86_64-mingw32/bin/../lib/gcc/nios2-elf/4.8.3/../../../../../H-x86_64-mingw32/nios2-elf/lib/mno-hw-mul\libc.a(lib_a-rget.o)
 .debug_abbrev  0x0000000000001478       0x90 c:/altera/14.1/nios2eds/bin/gnu/h-x86_64-mingw32/bin/../lib/gcc/nios2-elf/4.8.3/../../../../../H-x86_64-mingw32/nios2-elf/lib/mno-hw-mul\libc.a(lib_a-strlen.o)
 .debug_abbrev  0x0000000000001508      0x366 c:/altera/14.1/nios2eds/bin/gnu/h-x86_64-mingw32/bin/../lib/gcc/nios2-elf/4.8.3/../../../../../H-x86_64-mingw32/nios2-elf/lib/mno-hw-mul\libc.a(lib_a-findfp.o)
 .debug_abbrev  0x000000000000186e      0x252 c:/altera/14.1/nios2eds/bin/gnu/h-x86_64-mingw32/bin/../lib/gcc/nios2-elf/4.8.3/../../../../../H-x86_64-mingw32/nios2-elf/lib/mno-hw-mul\libc.a(lib_a-fvwrite.o)
 .debug_abbrev  0x0000000000001ac0      0x242 c:/altera/14.1/nios2eds/bin/gnu/h-x86_64-mingw32/bin/../lib/gcc/nios2-elf/4.8.3/../../../../../H-x86_64-mingw32/nios2-elf/lib/mno-hw-mul\libc.a(lib_a-fwalk.o)
 .debug_abbrev  0x0000000000001d02      0x2a2 c:/altera/14.1/nios2eds/bin/gnu/h-x86_64-mingw32/bin/../lib/gcc/nios2-elf/4.8.3/../../../../../H-x86_64-mingw32/nios2-elf/lib/mno-hw-mul\libc.a(lib_a-mallocr.o)
 .debug_abbrev  0x0000000000001fa4       0xab c:/altera/14.1/nios2eds/bin/gnu/h-x86_64-mingw32/bin/../lib/gcc/nios2-elf/4.8.3/../../../../../H-x86_64-mingw32/nios2-elf/lib/mno-hw-mul\libc.a(lib_a-memchr.o)
 .debug_abbrev  0x000000000000204f       0x9c c:/altera/14.1/nios2eds/bin/gnu/h-x86_64-mingw32/bin/../lib/gcc/nios2-elf/4.8.3/../../../../../H-x86_64-mingw32/nios2-elf/lib/mno-hw-mul\libc.a(lib_a-memcpy.o)
 .debug_abbrev  0x00000000000020eb       0x9c c:/altera/14.1/nios2eds/bin/gnu/h-x86_64-mingw32/bin/../lib/gcc/nios2-elf/4.8.3/../../../../../H-x86_64-mingw32/nios2-elf/lib/mno-hw-mul\libc.a(lib_a-memmove.o)
 .debug_abbrev  0x0000000000002187       0xae c:/altera/14.1/nios2eds/bin/gnu/h-x86_64-mingw32/bin/../lib/gcc/nios2-elf/4.8.3/../../../../../H-x86_64-mingw32/nios2-elf/lib/mno-hw-mul\libc.a(lib_a-memset.o)
 .debug_abbrev  0x0000000000002235      0x226 c:/altera/14.1/nios2eds/bin/gnu/h-x86_64-mingw32/bin/../lib/gcc/nios2-elf/4.8.3/../../../../../H-x86_64-mingw32/nios2-elf/lib/mno-hw-mul\libc.a(lib_a-putc.o)
 .debug_abbrev  0x000000000000245b      0x260 c:/altera/14.1/nios2eds/bin/gnu/h-x86_64-mingw32/bin/../lib/gcc/nios2-elf/4.8.3/../../../../../H-x86_64-mingw32/nios2-elf/lib/mno-hw-mul\libc.a(lib_a-reallocr.o)
 .debug_abbrev  0x00000000000026bb      0x250 c:/altera/14.1/nios2eds/bin/gnu/h-x86_64-mingw32/bin/../lib/gcc/nios2-elf/4.8.3/../../../../../H-x86_64-mingw32/nios2-elf/lib/mno-hw-mul\libc.a(lib_a-refill.o)
 .debug_abbrev  0x000000000000290b      0x1fd c:/altera/14.1/nios2eds/bin/gnu/h-x86_64-mingw32/bin/../lib/gcc/nios2-elf/4.8.3/../../../../../H-x86_64-mingw32/nios2-elf/lib/mno-hw-mul\libc.a(lib_a-sbrkr.o)
 .debug_abbrev  0x0000000000002b08      0x246 c:/altera/14.1/nios2eds/bin/gnu/h-x86_64-mingw32/bin/../lib/gcc/nios2-elf/4.8.3/../../../../../H-x86_64-mingw32/nios2-elf/lib/mno-hw-mul\libc.a(lib_a-stdio.o)
 .debug_abbrev  0x0000000000002d4e      0x238 c:/altera/14.1/nios2eds/bin/gnu/h-x86_64-mingw32/bin/../lib/gcc/nios2-elf/4.8.3/../../../../../H-x86_64-mingw32/nios2-elf/lib/mno-hw-mul\libc.a(lib_a-wbuf.o)
 .debug_abbrev  0x0000000000002f86      0x1de c:/altera/14.1/nios2eds/bin/gnu/h-x86_64-mingw32/bin/../lib/gcc/nios2-elf/4.8.3/../../../../../H-x86_64-mingw32/nios2-elf/lib/mno-hw-mul\libc.a(lib_a-writer.o)
 .debug_abbrev  0x0000000000003164      0x1f3 c:/altera/14.1/nios2eds/bin/gnu/h-x86_64-mingw32/bin/../lib/gcc/nios2-elf/4.8.3/../../../../../H-x86_64-mingw32/nios2-elf/lib/mno-hw-mul\libc.a(lib_a-wsetup.o)
 .debug_abbrev  0x0000000000003357      0x1d9 c:/altera/14.1/nios2eds/bin/gnu/h-x86_64-mingw32/bin/../lib/gcc/nios2-elf/4.8.3/../../../../../H-x86_64-mingw32/nios2-elf/lib/mno-hw-mul\libc.a(closer.o)
 .debug_abbrev  0x0000000000003530      0x26c c:/altera/14.1/nios2eds/bin/gnu/h-x86_64-mingw32/bin/../lib/gcc/nios2-elf/4.8.3/../../../../../H-x86_64-mingw32/nios2-elf/lib/mno-hw-mul\libc.a(lib_a-fclose.o)
 .debug_abbrev  0x000000000000379c      0x275 c:/altera/14.1/nios2eds/bin/gnu/h-x86_64-mingw32/bin/../lib/gcc/nios2-elf/4.8.3/../../../../../H-x86_64-mingw32/nios2-elf/lib/mno-hw-mul\libc.a(lib_a-fflush.o)
 .debug_abbrev  0x0000000000003a11      0x27b c:/altera/14.1/nios2eds/bin/gnu/h-x86_64-mingw32/bin/../lib/gcc/nios2-elf/4.8.3/../../../../../H-x86_64-mingw32/nios2-elf/lib/mno-hw-mul\libc.a(lib_a-freer.o)
 .debug_abbrev  0x0000000000003c8c       0x37 c:/altera/14.1/nios2eds/bin/gnu/h-x86_64-mingw32/bin/../lib/gcc/nios2-elf/4.8.3/../../../../../H-x86_64-mingw32/nios2-elf/lib/mno-hw-mul\libc.a(lib_a-int_errno.o)
 .debug_abbrev  0x0000000000003cc3      0x1e8 c:/altera/14.1/nios2eds/bin/gnu/h-x86_64-mingw32/bin/../lib/gcc/nios2-elf/4.8.3/../../../../../H-x86_64-mingw32/nios2-elf/lib/mno-hw-mul\libc.a(lib_a-lseekr.o)
 .debug_abbrev  0x0000000000003eab      0x206 c:/altera/14.1/nios2eds/bin/gnu/h-x86_64-mingw32/bin/../lib/gcc/nios2-elf/4.8.3/../../../../../H-x86_64-mingw32/nios2-elf/lib/mno-hw-mul\libc.a(lib_a-makebuf.o)
 .debug_abbrev  0x00000000000040b1      0x1d9 c:/altera/14.1/nios2eds/bin/gnu/h-x86_64-mingw32/bin/../lib/gcc/nios2-elf/4.8.3/../../../../../H-x86_64-mingw32/nios2-elf/lib/mno-hw-mul\libc.a(lib_a-readr.o)
 .debug_abbrev  0x000000000000428a      0x1e8 c:/altera/14.1/nios2eds/bin/gnu/h-x86_64-mingw32/bin/../lib/gcc/nios2-elf/4.8.3/../../../../../H-x86_64-mingw32/nios2-elf/lib/mno-hw-mul\libc.a(lib_a-fstatr.o)
 .debug_abbrev  0x0000000000004472      0x1d9 c:/altera/14.1/nios2eds/bin/gnu/h-x86_64-mingw32/bin/../lib/gcc/nios2-elf/4.8.3/../../../../../H-x86_64-mingw32/nios2-elf/lib/mno-hw-mul\libc.a(lib_a-isattyr.o)
 .debug_abbrev  0x000000000000464b      0x162 ../LEDTile_BSP2\libhal_bsp.a(alt_alarm_start.o)
 .debug_abbrev  0x00000000000047ad      0x11f ../LEDTile_BSP2\libhal_bsp.a(alt_close.o)
 .debug_abbrev  0x00000000000048cc       0xd9 ../LEDTile_BSP2\libhal_bsp.a(alt_dev.o)
 .debug_abbrev  0x00000000000049a5       0x5a ../LEDTile_BSP2\libhal_bsp.a(alt_errno.o)
 .debug_abbrev  0x00000000000049ff      0x11f ../LEDTile_BSP2\libhal_bsp.a(alt_fstat.o)
 .debug_abbrev  0x0000000000004b1e      0x11f ../LEDTile_BSP2\libhal_bsp.a(alt_isatty.o)
 .debug_abbrev  0x0000000000004c3d      0x11f ../LEDTile_BSP2\libhal_bsp.a(alt_lseek.o)
 .debug_abbrev  0x0000000000004d5c       0xba ../LEDTile_BSP2\libhal_bsp.a(alt_main.o)
 .debug_abbrev  0x0000000000004e16      0x1a5 ../LEDTile_BSP2\libhal_bsp.a(alt_malloc_lock.o)
 .debug_abbrev  0x0000000000004fbb      0x12e ../LEDTile_BSP2\libhal_bsp.a(alt_read.o)
 .debug_abbrev  0x00000000000050e9       0xde ../LEDTile_BSP2\libhal_bsp.a(alt_release_fd.o)
 .debug_abbrev  0x00000000000051c7      0x112 ../LEDTile_BSP2\libhal_bsp.a(alt_sbrk.o)
 .debug_abbrev  0x00000000000052d9      0x15a ../LEDTile_BSP2\libhal_bsp.a(alt_tick.o)
 .debug_abbrev  0x0000000000005433      0x133 ../LEDTile_BSP2\libhal_bsp.a(alt_write.o)
 .debug_abbrev  0x0000000000005566      0x18e ../LEDTile_BSP2\libhal_bsp.a(alt_sys_init.o)
 .debug_abbrev  0x00000000000056f4      0x1c9 ../LEDTile_BSP2\libhal_bsp.a(altera_avalon_epcs_flash_controller.o)
 .debug_abbrev  0x00000000000058bd      0x127 ../LEDTile_BSP2\libhal_bsp.a(altera_avalon_jtag_uart_fd.o)
 .debug_abbrev  0x00000000000059e4      0x197 ../LEDTile_BSP2\libhal_bsp.a(altera_avalon_jtag_uart_init.o)
 .debug_abbrev  0x0000000000005b7b      0x111 ../LEDTile_BSP2\libhal_bsp.a(altera_avalon_jtag_uart_ioctl.o)
 .debug_abbrev  0x0000000000005c8c      0x1ac ../LEDTile_BSP2\libhal_bsp.a(altera_avalon_jtag_uart_read.o)
 .debug_abbrev  0x0000000000005e38      0x1a8 ../LEDTile_BSP2\libhal_bsp.a(altera_avalon_jtag_uart_write.o)
 .debug_abbrev  0x0000000000005fe0      0x155 ../LEDTile_BSP2\libhal_bsp.a(altera_avalon_timer_sc.o)
 .debug_abbrev  0x0000000000006135      0x109 ../LEDTile_BSP2\libhal_bsp.a(altera_avalon_uart_fd.o)
 .debug_abbrev  0x000000000000623e      0x178 ../LEDTile_BSP2\libhal_bsp.a(altera_avalon_uart_init.o)
 .debug_abbrev  0x00000000000063b6      0x183 ../LEDTile_BSP2\libhal_bsp.a(altera_avalon_uart_read.o)
 .debug_abbrev  0x0000000000006539      0x18a ../LEDTile_BSP2\libhal_bsp.a(altera_avalon_uart_write.o)
 .debug_abbrev  0x00000000000066c3      0x169 ../LEDTile_BSP2\libhal_bsp.a(epcs_commands.o)
 .debug_abbrev  0x000000000000682c      0x114 ../LEDTile_BSP2\libhal_bsp.a(alt_dev_llist_insert.o)
 .debug_abbrev  0x0000000000006940       0x79 ../LEDTile_BSP2\libhal_bsp.a(alt_do_ctors.o)
 .debug_abbrev  0x00000000000069b9       0x79 ../LEDTile_BSP2\libhal_bsp.a(alt_do_dtors.o)
 .debug_abbrev  0x0000000000006a32      0x11a ../LEDTile_BSP2\libhal_bsp.a(alt_flash_dev.o)
 .debug_abbrev  0x0000000000006b4c      0x163 ../LEDTile_BSP2\libhal_bsp.a(alt_iic.o)
 .debug_abbrev  0x0000000000006caf      0x169 ../LEDTile_BSP2\libhal_bsp.a(alt_iic_isr_register.o)
 .debug_abbrev  0x0000000000006e18      0x114 ../LEDTile_BSP2\libhal_bsp.a(alt_io_redirect.o)
 .debug_abbrev  0x0000000000006f2c       0x12 ../LEDTile_BSP2\libhal_bsp.a(alt_irq_entry.o)
 .debug_abbrev  0x0000000000006f3e      0x122 ../LEDTile_BSP2\libhal_bsp.a(alt_irq_handler.o)
 .debug_abbrev  0x0000000000007060       0x40 ../LEDTile_BSP2\libhal_bsp.a(alt_irq_vars.o)
 .debug_abbrev  0x00000000000070a0      0x148 ../LEDTile_BSP2\libhal_bsp.a(alt_open.o)
 .debug_abbrev  0x00000000000071e8       0x42 ../LEDTile_BSP2\libhal_bsp.a(altera_nios2_gen2_irq.o)
 .debug_abbrev  0x000000000000722a       0x8a ../LEDTile_BSP2\libhal_bsp.a(altera_avalon_spi.o)
 .debug_abbrev  0x00000000000072b4       0x12 ../LEDTile_BSP2\libhal_bsp.a(alt_exception_entry.o)
 .debug_abbrev  0x00000000000072c6       0xf0 ../LEDTile_BSP2\libhal_bsp.a(alt_find_dev.o)
 .debug_abbrev  0x00000000000073b6       0xf0 ../LEDTile_BSP2\libhal_bsp.a(alt_find_file.o)
 .debug_abbrev  0x00000000000074a6      0x10d ../LEDTile_BSP2\libhal_bsp.a(alt_get_fd.o)
 .debug_abbrev  0x00000000000075b3       0xd1 ../LEDTile_BSP2\libhal_bsp.a(alt_instruction_exception_entry.o)
 .debug_abbrev  0x0000000000007684       0xb8 c:/altera/14.1/nios2eds/bin/gnu/h-x86_64-mingw32/bin/../lib/gcc/nios2-elf/4.8.3/../../../../../H-x86_64-mingw32/nios2-elf/lib/mno-hw-mul\libc.a(lib_a-atexit.o)
 .debug_abbrev  0x000000000000773c      0x1e6 c:/altera/14.1/nios2eds/bin/gnu/h-x86_64-mingw32/bin/../lib/gcc/nios2-elf/4.8.3/../../../../../H-x86_64-mingw32/nios2-elf/lib/mno-hw-mul\libc.a(lib_a-exit.o)
 .debug_abbrev  0x0000000000007922       0x7f c:/altera/14.1/nios2eds/bin/gnu/h-x86_64-mingw32/bin/../lib/gcc/nios2-elf/4.8.3/../../../../../H-x86_64-mingw32/nios2-elf/lib/mno-hw-mul\libc.a(lib_a-memcmp.o)
 .debug_abbrev  0x00000000000079a1      0x21e c:/altera/14.1/nios2eds/bin/gnu/h-x86_64-mingw32/bin/../lib/gcc/nios2-elf/4.8.3/../../../../../H-x86_64-mingw32/nios2-elf/lib/mno-hw-mul\libc.a(lib_a-__atexit.o)
 .debug_abbrev  0x0000000000007bbf      0x210 c:/altera/14.1/nios2eds/bin/gnu/h-x86_64-mingw32/bin/../lib/gcc/nios2-elf/4.8.3/../../../../../H-x86_64-mingw32/nios2-elf/lib/mno-hw-mul\libc.a(lib_a-__call_atexit.o)
 .debug_abbrev  0x0000000000007dcf       0xa6 ../LEDTile_BSP2\libhal_bsp.a(alt_exit.o)

.debug_line     0x0000000000000000     0x8cdb
 *(.debug_line)
 .debug_line    0x0000000000000000       0x51 ../LEDTile_BSP2/obj/HAL/src/crt0.o
 .debug_line    0x0000000000000051      0x1c2 obj/default/main.o
 .debug_line    0x0000000000000213      0x2d7 ../LEDTileLib/obj/default\libLEDTileLib.a(LEDTileLib.o)
 .debug_line    0x00000000000004ea       0xce c:/altera/14.1/nios2eds/bin/gnu/h-x86_64-mingw32/bin/../lib/gcc/nios2-elf/4.8.3/mno-hw-mul\libgcc.a(lib2-divmod.o)
 .debug_line    0x00000000000005b8      0x21c c:/altera/14.1/nios2eds/bin/gnu/h-x86_64-mingw32/bin/../lib/gcc/nios2-elf/4.8.3/mno-hw-mul\libgcc.a(divdf3.o)
 .debug_line    0x00000000000007d4      0x1a7 c:/altera/14.1/nios2eds/bin/gnu/h-x86_64-mingw32/bin/../lib/gcc/nios2-elf/4.8.3/mno-hw-mul\libgcc.a(muldf3.o)
 .debug_line    0x000000000000097b       0x96 c:/altera/14.1/nios2eds/bin/gnu/h-x86_64-mingw32/bin/../lib/gcc/nios2-elf/4.8.3/mno-hw-mul\libgcc.a(fixdfsi.o)
 .debug_line    0x0000000000000a11       0x98 c:/altera/14.1/nios2eds/bin/gnu/h-x86_64-mingw32/bin/../lib/gcc/nios2-elf/4.8.3/mno-hw-mul\libgcc.a(floatsidf.o)
 .debug_line    0x0000000000000aa9       0x8f c:/altera/14.1/nios2eds/bin/gnu/h-x86_64-mingw32/bin/../lib/gcc/nios2-elf/4.8.3/mno-hw-mul\libgcc.a(_clzsi2.o)
 .debug_line    0x0000000000000b38       0x81 c:/altera/14.1/nios2eds/bin/gnu/h-x86_64-mingw32/bin/../lib/gcc/nios2-elf/4.8.3/mno-hw-mul\libgcc.a(lib2-mul.o)
 .debug_line    0x0000000000000bb9       0x56 c:/altera/14.1/nios2eds/bin/gnu/h-x86_64-mingw32/bin/../lib/gcc/nios2-elf/4.8.3/mno-hw-mul\libgcc.a(_clz.o)
 .debug_line    0x0000000000000c0f      0x25a c:/altera/14.1/nios2eds/bin/gnu/h-x86_64-mingw32/bin/../lib/gcc/nios2-elf/4.8.3/../../../../../H-x86_64-mingw32/nios2-elf/lib/mno-hw-mul\libc.a(lib_a-getc.o)
 .debug_line    0x0000000000000e69      0x174 c:/altera/14.1/nios2eds/bin/gnu/h-x86_64-mingw32/bin/../lib/gcc/nios2-elf/4.8.3/../../../../../H-x86_64-mingw32/nios2-elf/lib/mno-hw-mul\libc.a(lib_a-impure.o)
 .debug_line    0x0000000000000fdd      0x202 c:/altera/14.1/nios2eds/bin/gnu/h-x86_64-mingw32/bin/../lib/gcc/nios2-elf/4.8.3/../../../../../H-x86_64-mingw32/nios2-elf/lib/mno-hw-mul\libc.a(lib_a-putchar.o)
 .debug_line    0x00000000000011df      0x23f c:/altera/14.1/nios2eds/bin/gnu/h-x86_64-mingw32/bin/../lib/gcc/nios2-elf/4.8.3/../../../../../H-x86_64-mingw32/nios2-elf/lib/mno-hw-mul\libc.a(lib_a-puts.o)
 .debug_line    0x000000000000141e      0x222 c:/altera/14.1/nios2eds/bin/gnu/h-x86_64-mingw32/bin/../lib/gcc/nios2-elf/4.8.3/../../../../../H-x86_64-mingw32/nios2-elf/lib/mno-hw-mul\libc.a(lib_a-rget.o)
 .debug_line    0x0000000000001640      0x18e c:/altera/14.1/nios2eds/bin/gnu/h-x86_64-mingw32/bin/../lib/gcc/nios2-elf/4.8.3/../../../../../H-x86_64-mingw32/nios2-elf/lib/mno-hw-mul\libc.a(lib_a-strlen.o)
 .debug_line    0x00000000000017ce      0x301 c:/altera/14.1/nios2eds/bin/gnu/h-x86_64-mingw32/bin/../lib/gcc/nios2-elf/4.8.3/../../../../../H-x86_64-mingw32/nios2-elf/lib/mno-hw-mul\libc.a(lib_a-findfp.o)
 .debug_line    0x0000000000001acf      0x360 c:/altera/14.1/nios2eds/bin/gnu/h-x86_64-mingw32/bin/../lib/gcc/nios2-elf/4.8.3/../../../../../H-x86_64-mingw32/nios2-elf/lib/mno-hw-mul\libc.a(lib_a-fvwrite.o)
 .debug_line    0x0000000000001e2f      0x246 c:/altera/14.1/nios2eds/bin/gnu/h-x86_64-mingw32/bin/../lib/gcc/nios2-elf/4.8.3/../../../../../H-x86_64-mingw32/nios2-elf/lib/mno-hw-mul\libc.a(lib_a-fwalk.o)
 .debug_line    0x0000000000002075      0x41c c:/altera/14.1/nios2eds/bin/gnu/h-x86_64-mingw32/bin/../lib/gcc/nios2-elf/4.8.3/../../../../../H-x86_64-mingw32/nios2-elf/lib/mno-hw-mul\libc.a(lib_a-mallocr.o)
 .debug_line    0x0000000000002491      0x1a2 c:/altera/14.1/nios2eds/bin/gnu/h-x86_64-mingw32/bin/../lib/gcc/nios2-elf/4.8.3/../../../../../H-x86_64-mingw32/nios2-elf/lib/mno-hw-mul\libc.a(lib_a-memchr.o)
 .debug_line    0x0000000000002633      0x1a5 c:/altera/14.1/nios2eds/bin/gnu/h-x86_64-mingw32/bin/../lib/gcc/nios2-elf/4.8.3/../../../../../H-x86_64-mingw32/nios2-elf/lib/mno-hw-mul\libc.a(lib_a-memcpy.o)
 .debug_line    0x00000000000027d8      0x1aa c:/altera/14.1/nios2eds/bin/gnu/h-x86_64-mingw32/bin/../lib/gcc/nios2-elf/4.8.3/../../../../../H-x86_64-mingw32/nios2-elf/lib/mno-hw-mul\libc.a(lib_a-memmove.o)
 .debug_line    0x0000000000002982      0x1a8 c:/altera/14.1/nios2eds/bin/gnu/h-x86_64-mingw32/bin/../lib/gcc/nios2-elf/4.8.3/../../../../../H-x86_64-mingw32/nios2-elf/lib/mno-hw-mul\libc.a(lib_a-memset.o)
 .debug_line    0x0000000000002b2a      0x279 c:/altera/14.1/nios2eds/bin/gnu/h-x86_64-mingw32/bin/../lib/gcc/nios2-elf/4.8.3/../../../../../H-x86_64-mingw32/nios2-elf/lib/mno-hw-mul\libc.a(lib_a-putc.o)
 .debug_line    0x0000000000002da3      0x2f7 c:/altera/14.1/nios2eds/bin/gnu/h-x86_64-mingw32/bin/../lib/gcc/nios2-elf/4.8.3/../../../../../H-x86_64-mingw32/nios2-elf/lib/mno-hw-mul\libc.a(lib_a-reallocr.o)
 .debug_line    0x000000000000309a      0x290 c:/altera/14.1/nios2eds/bin/gnu/h-x86_64-mingw32/bin/../lib/gcc/nios2-elf/4.8.3/../../../../../H-x86_64-mingw32/nios2-elf/lib/mno-hw-mul\libc.a(lib_a-refill.o)
 .debug_line    0x000000000000332a      0x205 c:/altera/14.1/nios2eds/bin/gnu/h-x86_64-mingw32/bin/../lib/gcc/nios2-elf/4.8.3/../../../../../H-x86_64-mingw32/nios2-elf/lib/mno-hw-mul\libc.a(lib_a-sbrkr.o)
 .debug_line    0x000000000000352f      0x245 c:/altera/14.1/nios2eds/bin/gnu/h-x86_64-mingw32/bin/../lib/gcc/nios2-elf/4.8.3/../../../../../H-x86_64-mingw32/nios2-elf/lib/mno-hw-mul\libc.a(lib_a-stdio.o)
 .debug_line    0x0000000000003774      0x29f c:/altera/14.1/nios2eds/bin/gnu/h-x86_64-mingw32/bin/../lib/gcc/nios2-elf/4.8.3/../../../../../H-x86_64-mingw32/nios2-elf/lib/mno-hw-mul\libc.a(lib_a-wbuf.o)
 .debug_line    0x0000000000003a13      0x212 c:/altera/14.1/nios2eds/bin/gnu/h-x86_64-mingw32/bin/../lib/gcc/nios2-elf/4.8.3/../../../../../H-x86_64-mingw32/nios2-elf/lib/mno-hw-mul\libc.a(lib_a-writer.o)
 .debug_line    0x0000000000003c25      0x266 c:/altera/14.1/nios2eds/bin/gnu/h-x86_64-mingw32/bin/../lib/gcc/nios2-elf/4.8.3/../../../../../H-x86_64-mingw32/nios2-elf/lib/mno-hw-mul\libc.a(lib_a-wsetup.o)
 .debug_line    0x0000000000003e8b      0x212 c:/altera/14.1/nios2eds/bin/gnu/h-x86_64-mingw32/bin/../lib/gcc/nios2-elf/4.8.3/../../../../../H-x86_64-mingw32/nios2-elf/lib/mno-hw-mul\libc.a(closer.o)
 .debug_line    0x000000000000409d      0x267 c:/altera/14.1/nios2eds/bin/gnu/h-x86_64-mingw32/bin/../lib/gcc/nios2-elf/4.8.3/../../../../../H-x86_64-mingw32/nios2-elf/lib/mno-hw-mul\libc.a(lib_a-fclose.o)
 .debug_line    0x0000000000004304      0x2df c:/altera/14.1/nios2eds/bin/gnu/h-x86_64-mingw32/bin/../lib/gcc/nios2-elf/4.8.3/../../../../../H-x86_64-mingw32/nios2-elf/lib/mno-hw-mul\libc.a(lib_a-fflush.o)
 .debug_line    0x00000000000045e3      0x311 c:/altera/14.1/nios2eds/bin/gnu/h-x86_64-mingw32/bin/../lib/gcc/nios2-elf/4.8.3/../../../../../H-x86_64-mingw32/nios2-elf/lib/mno-hw-mul\libc.a(lib_a-freer.o)
 .debug_line    0x00000000000048f4       0x60 c:/altera/14.1/nios2eds/bin/gnu/h-x86_64-mingw32/bin/../lib/gcc/nios2-elf/4.8.3/../../../../../H-x86_64-mingw32/nios2-elf/lib/mno-hw-mul\libc.a(lib_a-int_errno.o)
 .debug_line    0x0000000000004954      0x21d c:/altera/14.1/nios2eds/bin/gnu/h-x86_64-mingw32/bin/../lib/gcc/nios2-elf/4.8.3/../../../../../H-x86_64-mingw32/nios2-elf/lib/mno-hw-mul\libc.a(lib_a-lseekr.o)
 .debug_line    0x0000000000004b71      0x298 c:/altera/14.1/nios2eds/bin/gnu/h-x86_64-mingw32/bin/../lib/gcc/nios2-elf/4.8.3/../../../../../H-x86_64-mingw32/nios2-elf/lib/mno-hw-mul\libc.a(lib_a-makebuf.o)
 .debug_line    0x0000000000004e09      0x211 c:/altera/14.1/nios2eds/bin/gnu/h-x86_64-mingw32/bin/../lib/gcc/nios2-elf/4.8.3/../../../../../H-x86_64-mingw32/nios2-elf/lib/mno-hw-mul\libc.a(lib_a-readr.o)
 .debug_line    0x000000000000501a      0x21b c:/altera/14.1/nios2eds/bin/gnu/h-x86_64-mingw32/bin/../lib/gcc/nios2-elf/4.8.3/../../../../../H-x86_64-mingw32/nios2-elf/lib/mno-hw-mul\libc.a(lib_a-fstatr.o)
 .debug_line    0x0000000000005235      0x213 c:/altera/14.1/nios2eds/bin/gnu/h-x86_64-mingw32/bin/../lib/gcc/nios2-elf/4.8.3/../../../../../H-x86_64-mingw32/nios2-elf/lib/mno-hw-mul\libc.a(lib_a-isattyr.o)
 .debug_line    0x0000000000005448       0xfa ../LEDTile_BSP2\libhal_bsp.a(alt_alarm_start.o)
 .debug_line    0x0000000000005542      0x15d ../LEDTile_BSP2\libhal_bsp.a(alt_close.o)
 .debug_line    0x000000000000569f       0xf0 ../LEDTile_BSP2\libhal_bsp.a(alt_dev.o)
 .debug_line    0x000000000000578f       0x51 ../LEDTile_BSP2\libhal_bsp.a(alt_errno.o)
 .debug_line    0x00000000000057e0      0x157 ../LEDTile_BSP2\libhal_bsp.a(alt_fstat.o)
 .debug_line    0x0000000000005937      0x157 ../LEDTile_BSP2\libhal_bsp.a(alt_isatty.o)
 .debug_line    0x0000000000005a8e      0x15b ../LEDTile_BSP2\libhal_bsp.a(alt_lseek.o)
 .debug_line    0x0000000000005be9       0xa4 ../LEDTile_BSP2\libhal_bsp.a(alt_main.o)
 .debug_line    0x0000000000005c8d      0x111 ../LEDTile_BSP2\libhal_bsp.a(alt_malloc_lock.o)
 .debug_line    0x0000000000005d9e      0x1cb ../LEDTile_BSP2\libhal_bsp.a(alt_read.o)
 .debug_line    0x0000000000005f69       0xb0 ../LEDTile_BSP2\libhal_bsp.a(alt_release_fd.o)
 .debug_line    0x0000000000006019       0xeb ../LEDTile_BSP2\libhal_bsp.a(alt_sbrk.o)
 .debug_line    0x0000000000006104      0x102 ../LEDTile_BSP2\libhal_bsp.a(alt_tick.o)
 .debug_line    0x0000000000006206      0x1ca ../LEDTile_BSP2\libhal_bsp.a(alt_write.o)
 .debug_line    0x00000000000063d0      0x1d9 ../LEDTile_BSP2\libhal_bsp.a(alt_sys_init.o)
 .debug_line    0x00000000000065a9      0x2c2 ../LEDTile_BSP2\libhal_bsp.a(altera_avalon_epcs_flash_controller.o)
 .debug_line    0x000000000000686b      0x12f ../LEDTile_BSP2\libhal_bsp.a(altera_avalon_jtag_uart_fd.o)
 .debug_line    0x000000000000699a      0x188 ../LEDTile_BSP2\libhal_bsp.a(altera_avalon_jtag_uart_init.o)
 .debug_line    0x0000000000006b22      0x12a ../LEDTile_BSP2\libhal_bsp.a(altera_avalon_jtag_uart_ioctl.o)
 .debug_line    0x0000000000006c4c      0x16d ../LEDTile_BSP2\libhal_bsp.a(altera_avalon_jtag_uart_read.o)
 .debug_line    0x0000000000006db9      0x16d ../LEDTile_BSP2\libhal_bsp.a(altera_avalon_jtag_uart_write.o)
 .debug_line    0x0000000000006f26       0xfd ../LEDTile_BSP2\libhal_bsp.a(altera_avalon_timer_sc.o)
 .debug_line    0x0000000000007023       0xee ../LEDTile_BSP2\libhal_bsp.a(altera_avalon_uart_fd.o)
 .debug_line    0x0000000000007111      0x186 ../LEDTile_BSP2\libhal_bsp.a(altera_avalon_uart_init.o)
 .debug_line    0x0000000000007297      0x183 ../LEDTile_BSP2\libhal_bsp.a(altera_avalon_uart_read.o)
 .debug_line    0x000000000000741a      0x16a ../LEDTile_BSP2\libhal_bsp.a(altera_avalon_uart_write.o)
 .debug_line    0x0000000000007584      0x113 ../LEDTile_BSP2\libhal_bsp.a(epcs_commands.o)
 .debug_line    0x0000000000007697       0xd0 ../LEDTile_BSP2\libhal_bsp.a(alt_dev_llist_insert.o)
 .debug_line    0x0000000000007767       0x59 ../LEDTile_BSP2\libhal_bsp.a(alt_do_ctors.o)
 .debug_line    0x00000000000077c0       0x59 ../LEDTile_BSP2\libhal_bsp.a(alt_do_dtors.o)
 .debug_line    0x0000000000007819       0xc5 ../LEDTile_BSP2\libhal_bsp.a(alt_flash_dev.o)
 .debug_line    0x00000000000078de       0xed ../LEDTile_BSP2\libhal_bsp.a(alt_iic.o)
 .debug_line    0x00000000000079cb       0xdb ../LEDTile_BSP2\libhal_bsp.a(alt_iic_isr_register.o)
 .debug_line    0x0000000000007aa6      0x12d ../LEDTile_BSP2\libhal_bsp.a(alt_io_redirect.o)
 .debug_line    0x0000000000007bd3       0x6b ../LEDTile_BSP2\libhal_bsp.a(alt_irq_entry.o)
 .debug_line    0x0000000000007c3e       0xae ../LEDTile_BSP2\libhal_bsp.a(alt_irq_handler.o)
 .debug_line    0x0000000000007cec       0x50 ../LEDTile_BSP2\libhal_bsp.a(alt_irq_vars.o)
 .debug_line    0x0000000000007d3c      0x128 ../LEDTile_BSP2\libhal_bsp.a(alt_open.o)
 .debug_line    0x0000000000007e64       0x51 ../LEDTile_BSP2\libhal_bsp.a(altera_nios2_gen2_irq.o)
 .debug_line    0x0000000000007eb5       0xb2 ../LEDTile_BSP2\libhal_bsp.a(altera_avalon_spi.o)
 .debug_line    0x0000000000007f67       0xb3 ../LEDTile_BSP2\libhal_bsp.a(alt_exception_entry.o)
 .debug_line    0x000000000000801a       0xb9 ../LEDTile_BSP2\libhal_bsp.a(alt_find_dev.o)
 .debug_line    0x00000000000080d3       0xd5 ../LEDTile_BSP2\libhal_bsp.a(alt_find_file.o)
 .debug_line    0x00000000000081a8       0xd4 ../LEDTile_BSP2\libhal_bsp.a(alt_get_fd.o)
 .debug_line    0x000000000000827c       0xb9 ../LEDTile_BSP2\libhal_bsp.a(alt_instruction_exception_entry.o)
 .debug_line    0x0000000000008335       0xf2 c:/altera/14.1/nios2eds/bin/gnu/h-x86_64-mingw32/bin/../lib/gcc/nios2-elf/4.8.3/../../../../../H-x86_64-mingw32/nios2-elf/lib/mno-hw-mul\libc.a(lib_a-atexit.o)
 .debug_line    0x0000000000008427      0x218 c:/altera/14.1/nios2eds/bin/gnu/h-x86_64-mingw32/bin/../lib/gcc/nios2-elf/4.8.3/../../../../../H-x86_64-mingw32/nios2-elf/lib/mno-hw-mul\libc.a(lib_a-exit.o)
 .debug_line    0x000000000000863f      0x18e c:/altera/14.1/nios2eds/bin/gnu/h-x86_64-mingw32/bin/../lib/gcc/nios2-elf/4.8.3/../../../../../H-x86_64-mingw32/nios2-elf/lib/mno-hw-mul\libc.a(lib_a-memcmp.o)
 .debug_line    0x00000000000087cd      0x23d c:/altera/14.1/nios2eds/bin/gnu/h-x86_64-mingw32/bin/../lib/gcc/nios2-elf/4.8.3/../../../../../H-x86_64-mingw32/nios2-elf/lib/mno-hw-mul\libc.a(lib_a-__atexit.o)
 .debug_line    0x0000000000008a0a      0x260 c:/altera/14.1/nios2eds/bin/gnu/h-x86_64-mingw32/bin/../lib/gcc/nios2-elf/4.8.3/../../../../../H-x86_64-mingw32/nios2-elf/lib/mno-hw-mul\libc.a(lib_a-__call_atexit.o)
 .debug_line    0x0000000000008c6a       0x71 ../LEDTile_BSP2\libhal_bsp.a(alt_exit.o)

.debug_frame    0x0000000000000000     0x1fe8
 *(.debug_frame)
 .debug_frame   0x0000000000000000       0x78 obj/default/main.o
 .debug_frame   0x0000000000000078      0x148 ../LEDTileLib/obj/default\libLEDTileLib.a(LEDTileLib.o)
 .debug_frame   0x00000000000001c0       0x80 c:/altera/14.1/nios2eds/bin/gnu/h-x86_64-mingw32/bin/../lib/gcc/nios2-elf/4.8.3/mno-hw-mul\libgcc.a(lib2-divmod.o)
 .debug_frame   0x0000000000000240       0x58 c:/altera/14.1/nios2eds/bin/gnu/h-x86_64-mingw32/bin/../lib/gcc/nios2-elf/4.8.3/mno-hw-mul\libgcc.a(divdf3.o)
 .debug_frame   0x0000000000000298       0x58 c:/altera/14.1/nios2eds/bin/gnu/h-x86_64-mingw32/bin/../lib/gcc/nios2-elf/4.8.3/mno-hw-mul\libgcc.a(muldf3.o)
 .debug_frame   0x00000000000002f0       0x20 c:/altera/14.1/nios2eds/bin/gnu/h-x86_64-mingw32/bin/../lib/gcc/nios2-elf/4.8.3/mno-hw-mul\libgcc.a(fixdfsi.o)
 .debug_frame   0x0000000000000310       0x38 c:/altera/14.1/nios2eds/bin/gnu/h-x86_64-mingw32/bin/../lib/gcc/nios2-elf/4.8.3/mno-hw-mul\libgcc.a(floatsidf.o)
 .debug_frame   0x0000000000000348       0x20 c:/altera/14.1/nios2eds/bin/gnu/h-x86_64-mingw32/bin/../lib/gcc/nios2-elf/4.8.3/mno-hw-mul\libgcc.a(_clzsi2.o)
 .debug_frame   0x0000000000000368       0x20 c:/altera/14.1/nios2eds/bin/gnu/h-x86_64-mingw32/bin/../lib/gcc/nios2-elf/4.8.3/mno-hw-mul\libgcc.a(lib2-mul.o)
 .debug_frame   0x0000000000000388       0x60 c:/altera/14.1/nios2eds/bin/gnu/h-x86_64-mingw32/bin/../lib/gcc/nios2-elf/4.8.3/../../../../../H-x86_64-mingw32/nios2-elf/lib/mno-hw-mul\libc.a(lib_a-getc.o)
 .debug_frame   0x00000000000003e8       0x30 c:/altera/14.1/nios2eds/bin/gnu/h-x86_64-mingw32/bin/../lib/gcc/nios2-elf/4.8.3/../../../../../H-x86_64-mingw32/nios2-elf/lib/mno-hw-mul\libc.a(lib_a-putchar.o)
 .debug_frame   0x0000000000000418       0x48 c:/altera/14.1/nios2eds/bin/gnu/h-x86_64-mingw32/bin/../lib/gcc/nios2-elf/4.8.3/../../../../../H-x86_64-mingw32/nios2-elf/lib/mno-hw-mul\libc.a(lib_a-puts.o)
 .debug_frame   0x0000000000000460       0x48 c:/altera/14.1/nios2eds/bin/gnu/h-x86_64-mingw32/bin/../lib/gcc/nios2-elf/4.8.3/../../../../../H-x86_64-mingw32/nios2-elf/lib/mno-hw-mul\libc.a(lib_a-rget.o)
 .debug_frame   0x00000000000004a8       0x20 c:/altera/14.1/nios2eds/bin/gnu/h-x86_64-mingw32/bin/../lib/gcc/nios2-elf/4.8.3/../../../../../H-x86_64-mingw32/nios2-elf/lib/mno-hw-mul\libc.a(lib_a-strlen.o)
 .debug_frame   0x00000000000004c8      0x14c c:/altera/14.1/nios2eds/bin/gnu/h-x86_64-mingw32/bin/../lib/gcc/nios2-elf/4.8.3/../../../../../H-x86_64-mingw32/nios2-elf/lib/mno-hw-mul\libc.a(lib_a-findfp.o)
 .debug_frame   0x0000000000000614       0x54 c:/altera/14.1/nios2eds/bin/gnu/h-x86_64-mingw32/bin/../lib/gcc/nios2-elf/4.8.3/../../../../../H-x86_64-mingw32/nios2-elf/lib/mno-hw-mul\libc.a(lib_a-fvwrite.o)
 .debug_frame   0x0000000000000668       0x84 c:/altera/14.1/nios2eds/bin/gnu/h-x86_64-mingw32/bin/../lib/gcc/nios2-elf/4.8.3/../../../../../H-x86_64-mingw32/nios2-elf/lib/mno-hw-mul\libc.a(lib_a-fwalk.o)
 .debug_frame   0x00000000000006ec       0x54 c:/altera/14.1/nios2eds/bin/gnu/h-x86_64-mingw32/bin/../lib/gcc/nios2-elf/4.8.3/../../../../../H-x86_64-mingw32/nios2-elf/lib/mno-hw-mul\libc.a(lib_a-mallocr.o)
 .debug_frame   0x0000000000000740       0x20 c:/altera/14.1/nios2eds/bin/gnu/h-x86_64-mingw32/bin/../lib/gcc/nios2-elf/4.8.3/../../../../../H-x86_64-mingw32/nios2-elf/lib/mno-hw-mul\libc.a(lib_a-memchr.o)
 .debug_frame   0x0000000000000760       0x20 c:/altera/14.1/nios2eds/bin/gnu/h-x86_64-mingw32/bin/../lib/gcc/nios2-elf/4.8.3/../../../../../H-x86_64-mingw32/nios2-elf/lib/mno-hw-mul\libc.a(lib_a-memcpy.o)
 .debug_frame   0x0000000000000780       0x20 c:/altera/14.1/nios2eds/bin/gnu/h-x86_64-mingw32/bin/../lib/gcc/nios2-elf/4.8.3/../../../../../H-x86_64-mingw32/nios2-elf/lib/mno-hw-mul\libc.a(lib_a-memmove.o)
 .debug_frame   0x00000000000007a0       0x20 c:/altera/14.1/nios2eds/bin/gnu/h-x86_64-mingw32/bin/../lib/gcc/nios2-elf/4.8.3/../../../../../H-x86_64-mingw32/nios2-elf/lib/mno-hw-mul\libc.a(lib_a-memset.o)
 .debug_frame   0x00000000000007c0       0x74 c:/altera/14.1/nios2eds/bin/gnu/h-x86_64-mingw32/bin/../lib/gcc/nios2-elf/4.8.3/../../../../../H-x86_64-mingw32/nios2-elf/lib/mno-hw-mul\libc.a(lib_a-putc.o)
 .debug_frame   0x0000000000000834       0x70 c:/altera/14.1/nios2eds/bin/gnu/h-x86_64-mingw32/bin/../lib/gcc/nios2-elf/4.8.3/../../../../../H-x86_64-mingw32/nios2-elf/lib/mno-hw-mul\libc.a(lib_a-reallocr.o)
 .debug_frame   0x00000000000008a4       0x6c c:/altera/14.1/nios2eds/bin/gnu/h-x86_64-mingw32/bin/../lib/gcc/nios2-elf/4.8.3/../../../../../H-x86_64-mingw32/nios2-elf/lib/mno-hw-mul\libc.a(lib_a-refill.o)
 .debug_frame   0x0000000000000910       0x40 c:/altera/14.1/nios2eds/bin/gnu/h-x86_64-mingw32/bin/../lib/gcc/nios2-elf/4.8.3/../../../../../H-x86_64-mingw32/nios2-elf/lib/mno-hw-mul\libc.a(lib_a-sbrkr.o)
 .debug_frame   0x0000000000000950       0xb4 c:/altera/14.1/nios2eds/bin/gnu/h-x86_64-mingw32/bin/../lib/gcc/nios2-elf/4.8.3/../../../../../H-x86_64-mingw32/nios2-elf/lib/mno-hw-mul\libc.a(lib_a-stdio.o)
 .debug_frame   0x0000000000000a04       0x4c c:/altera/14.1/nios2eds/bin/gnu/h-x86_64-mingw32/bin/../lib/gcc/nios2-elf/4.8.3/../../../../../H-x86_64-mingw32/nios2-elf/lib/mno-hw-mul\libc.a(lib_a-wbuf.o)
 .debug_frame   0x0000000000000a50       0x40 c:/altera/14.1/nios2eds/bin/gnu/h-x86_64-mingw32/bin/../lib/gcc/nios2-elf/4.8.3/../../../../../H-x86_64-mingw32/nios2-elf/lib/mno-hw-mul\libc.a(lib_a-writer.o)
 .debug_frame   0x0000000000000a90       0x38 c:/altera/14.1/nios2eds/bin/gnu/h-x86_64-mingw32/bin/../lib/gcc/nios2-elf/4.8.3/../../../../../H-x86_64-mingw32/nios2-elf/lib/mno-hw-mul\libc.a(lib_a-wsetup.o)
 .debug_frame   0x0000000000000ac8       0x40 c:/altera/14.1/nios2eds/bin/gnu/h-x86_64-mingw32/bin/../lib/gcc/nios2-elf/4.8.3/../../../../../H-x86_64-mingw32/nios2-elf/lib/mno-hw-mul\libc.a(closer.o)
 .debug_frame   0x0000000000000b08       0x68 c:/altera/14.1/nios2eds/bin/gnu/h-x86_64-mingw32/bin/../lib/gcc/nios2-elf/4.8.3/../../../../../H-x86_64-mingw32/nios2-elf/lib/mno-hw-mul\libc.a(lib_a-fclose.o)
 .debug_frame   0x0000000000000b70       0x60 c:/altera/14.1/nios2eds/bin/gnu/h-x86_64-mingw32/bin/../lib/gcc/nios2-elf/4.8.3/../../../../../H-x86_64-mingw32/nios2-elf/lib/mno-hw-mul\libc.a(lib_a-fflush.o)
 .debug_frame   0x0000000000000bd0       0x94 c:/altera/14.1/nios2eds/bin/gnu/h-x86_64-mingw32/bin/../lib/gcc/nios2-elf/4.8.3/../../../../../H-x86_64-mingw32/nios2-elf/lib/mno-hw-mul\libc.a(lib_a-freer.o)
 .debug_frame   0x0000000000000c64       0x40 c:/altera/14.1/nios2eds/bin/gnu/h-x86_64-mingw32/bin/../lib/gcc/nios2-elf/4.8.3/../../../../../H-x86_64-mingw32/nios2-elf/lib/mno-hw-mul\libc.a(lib_a-lseekr.o)
 .debug_frame   0x0000000000000ca4       0x40 c:/altera/14.1/nios2eds/bin/gnu/h-x86_64-mingw32/bin/../lib/gcc/nios2-elf/4.8.3/../../../../../H-x86_64-mingw32/nios2-elf/lib/mno-hw-mul\libc.a(lib_a-makebuf.o)
 .debug_frame   0x0000000000000ce4       0x40 c:/altera/14.1/nios2eds/bin/gnu/h-x86_64-mingw32/bin/../lib/gcc/nios2-elf/4.8.3/../../../../../H-x86_64-mingw32/nios2-elf/lib/mno-hw-mul\libc.a(lib_a-readr.o)
 .debug_frame   0x0000000000000d24       0x40 c:/altera/14.1/nios2eds/bin/gnu/h-x86_64-mingw32/bin/../lib/gcc/nios2-elf/4.8.3/../../../../../H-x86_64-mingw32/nios2-elf/lib/mno-hw-mul\libc.a(lib_a-fstatr.o)
 .debug_frame   0x0000000000000d64       0x40 c:/altera/14.1/nios2eds/bin/gnu/h-x86_64-mingw32/bin/../lib/gcc/nios2-elf/4.8.3/../../../../../H-x86_64-mingw32/nios2-elf/lib/mno-hw-mul\libc.a(lib_a-isattyr.o)
 .debug_frame   0x0000000000000da4       0x34 ../LEDTile_BSP2\libhal_bsp.a(alt_alarm_start.o)
 .debug_frame   0x0000000000000dd8       0x60 ../LEDTile_BSP2\libhal_bsp.a(alt_close.o)
 .debug_frame   0x0000000000000e38       0x34 ../LEDTile_BSP2\libhal_bsp.a(alt_dev.o)
 .debug_frame   0x0000000000000e6c       0x60 ../LEDTile_BSP2\libhal_bsp.a(alt_fstat.o)
 .debug_frame   0x0000000000000ecc       0x60 ../LEDTile_BSP2\libhal_bsp.a(alt_isatty.o)
 .debug_frame   0x0000000000000f2c       0x60 ../LEDTile_BSP2\libhal_bsp.a(alt_lseek.o)
 .debug_frame   0x0000000000000f8c       0x2c ../LEDTile_BSP2\libhal_bsp.a(alt_main.o)
 .debug_frame   0x0000000000000fb8       0x58 ../LEDTile_BSP2\libhal_bsp.a(alt_malloc_lock.o)
 .debug_frame   0x0000000000001010       0x60 ../LEDTile_BSP2\libhal_bsp.a(alt_read.o)
 .debug_frame   0x0000000000001070       0x3c ../LEDTile_BSP2\libhal_bsp.a(alt_release_fd.o)
 .debug_frame   0x00000000000010ac       0x34 ../LEDTile_BSP2\libhal_bsp.a(alt_sbrk.o)
 .debug_frame   0x00000000000010e0       0x5c ../LEDTile_BSP2\libhal_bsp.a(alt_tick.o)
 .debug_frame   0x000000000000113c       0x60 ../LEDTile_BSP2\libhal_bsp.a(alt_write.o)
 .debug_frame   0x000000000000119c       0x88 ../LEDTile_BSP2\libhal_bsp.a(alt_sys_init.o)
 .debug_frame   0x0000000000001224      0x198 ../LEDTile_BSP2\libhal_bsp.a(altera_avalon_epcs_flash_controller.o)
 .debug_frame   0x00000000000013bc       0xb0 ../LEDTile_BSP2\libhal_bsp.a(altera_avalon_jtag_uart_fd.o)
 .debug_frame   0x000000000000146c       0xa4 ../LEDTile_BSP2\libhal_bsp.a(altera_avalon_jtag_uart_init.o)
 .debug_frame   0x0000000000001510       0x34 ../LEDTile_BSP2\libhal_bsp.a(altera_avalon_jtag_uart_ioctl.o)
 .debug_frame   0x0000000000001544       0x38 ../LEDTile_BSP2\libhal_bsp.a(altera_avalon_jtag_uart_read.o)
 .debug_frame   0x000000000000157c       0x38 ../LEDTile_BSP2\libhal_bsp.a(altera_avalon_jtag_uart_write.o)
 .debug_frame   0x00000000000015b4       0x60 ../LEDTile_BSP2\libhal_bsp.a(altera_avalon_timer_sc.o)
 .debug_frame   0x0000000000001614       0x88 ../LEDTile_BSP2\libhal_bsp.a(altera_avalon_uart_fd.o)
 .debug_frame   0x000000000000169c       0xcc ../LEDTile_BSP2\libhal_bsp.a(altera_avalon_uart_init.o)
 .debug_frame   0x0000000000001768       0x60 ../LEDTile_BSP2\libhal_bsp.a(altera_avalon_uart_read.o)
 .debug_frame   0x00000000000017c8       0x60 ../LEDTile_BSP2\libhal_bsp.a(altera_avalon_uart_write.o)
 .debug_frame   0x0000000000001828      0x1f0 ../LEDTile_BSP2\libhal_bsp.a(epcs_commands.o)
 .debug_frame   0x0000000000001a18       0x60 ../LEDTile_BSP2\libhal_bsp.a(alt_dev_llist_insert.o)
 .debug_frame   0x0000000000001a78       0x38 ../LEDTile_BSP2\libhal_bsp.a(alt_do_ctors.o)
 .debug_frame   0x0000000000001ab0       0x38 ../LEDTile_BSP2\libhal_bsp.a(alt_do_dtors.o)
 .debug_frame   0x0000000000001ae8       0x60 ../LEDTile_BSP2\libhal_bsp.a(alt_flash_dev.o)
 .debug_frame   0x0000000000001b48       0xa4 ../LEDTile_BSP2\libhal_bsp.a(alt_iic.o)
 .debug_frame   0x0000000000001bec       0x38 ../LEDTile_BSP2\libhal_bsp.a(alt_iic_isr_register.o)
 .debug_frame   0x0000000000001c24       0x64 ../LEDTile_BSP2\libhal_bsp.a(alt_io_redirect.o)
 .debug_frame   0x0000000000001c88       0x38 ../LEDTile_BSP2\libhal_bsp.a(alt_irq_handler.o)
 .debug_frame   0x0000000000001cc0       0x8c ../LEDTile_BSP2\libhal_bsp.a(alt_open.o)
 .debug_frame   0x0000000000001d4c       0x34 ../LEDTile_BSP2\libhal_bsp.a(altera_nios2_gen2_irq.o)
 .debug_frame   0x0000000000001d80       0x34 ../LEDTile_BSP2\libhal_bsp.a(altera_avalon_spi.o)
 .debug_frame   0x0000000000001db4       0x38 ../LEDTile_BSP2\libhal_bsp.a(alt_find_dev.o)
 .debug_frame   0x0000000000001dec       0x38 ../LEDTile_BSP2\libhal_bsp.a(alt_find_file.o)
 .debug_frame   0x0000000000001e24       0x3c ../LEDTile_BSP2\libhal_bsp.a(alt_get_fd.o)
 .debug_frame   0x0000000000001e60       0x5c ../LEDTile_BSP2\libhal_bsp.a(alt_instruction_exception_entry.o)
 .debug_frame   0x0000000000001ebc       0x20 c:/altera/14.1/nios2eds/bin/gnu/h-x86_64-mingw32/bin/../lib/gcc/nios2-elf/4.8.3/../../../../../H-x86_64-mingw32/nios2-elf/lib/mno-hw-mul\libc.a(lib_a-atexit.o)
 .debug_frame   0x0000000000001edc       0x28 c:/altera/14.1/nios2eds/bin/gnu/h-x86_64-mingw32/bin/../lib/gcc/nios2-elf/4.8.3/../../../../../H-x86_64-mingw32/nios2-elf/lib/mno-hw-mul\libc.a(lib_a-exit.o)
 .debug_frame   0x0000000000001f04       0x20 c:/altera/14.1/nios2eds/bin/gnu/h-x86_64-mingw32/bin/../lib/gcc/nios2-elf/4.8.3/../../../../../H-x86_64-mingw32/nios2-elf/lib/mno-hw-mul\libc.a(lib_a-memcmp.o)
 .debug_frame   0x0000000000001f24       0x44 c:/altera/14.1/nios2eds/bin/gnu/h-x86_64-mingw32/bin/../lib/gcc/nios2-elf/4.8.3/../../../../../H-x86_64-mingw32/nios2-elf/lib/mno-hw-mul\libc.a(lib_a-__atexit.o)
 .debug_frame   0x0000000000001f68       0x54 c:/altera/14.1/nios2eds/bin/gnu/h-x86_64-mingw32/bin/../lib/gcc/nios2-elf/4.8.3/../../../../../H-x86_64-mingw32/nios2-elf/lib/mno-hw-mul\libc.a(lib_a-__call_atexit.o)
 .debug_frame   0x0000000000001fbc       0x2c ../LEDTile_BSP2\libhal_bsp.a(alt_exit.o)

.debug_str      0x0000000000000000     0x35dd
 *(.debug_str)
 .debug_str     0x0000000000000000      0x65a obj/default/main.o
                                        0x746 (size before relaxing)
 .debug_str     0x000000000000065a      0x125 ../LEDTileLib/obj/default\libLEDTileLib.a(LEDTileLib.o)
                                        0x212 (size before relaxing)
 .debug_str     0x000000000000077f      0x199 c:/altera/14.1/nios2eds/bin/gnu/h-x86_64-mingw32/bin/../lib/gcc/nios2-elf/4.8.3/mno-hw-mul\libgcc.a(lib2-divmod.o)
                                        0x1e4 (size before relaxing)
 .debug_str     0x0000000000000918      0x11f c:/altera/14.1/nios2eds/bin/gnu/h-x86_64-mingw32/bin/../lib/gcc/nios2-elf/4.8.3/mno-hw-mul\libgcc.a(divdf3.o)
                                        0x2b7 (size before relaxing)
 .debug_str     0x0000000000000a37       0x6a c:/altera/14.1/nios2eds/bin/gnu/h-x86_64-mingw32/bin/../lib/gcc/nios2-elf/4.8.3/mno-hw-mul\libgcc.a(muldf3.o)
                                        0x2a9 (size before relaxing)
 .debug_str     0x0000000000000aa1       0x43 c:/altera/14.1/nios2eds/bin/gnu/h-x86_64-mingw32/bin/../lib/gcc/nios2-elf/4.8.3/mno-hw-mul\libgcc.a(fixdfsi.o)
                                        0x222 (size before relaxing)
 .debug_str     0x0000000000000ae4       0x4c c:/altera/14.1/nios2eds/bin/gnu/h-x86_64-mingw32/bin/../lib/gcc/nios2-elf/4.8.3/mno-hw-mul\libgcc.a(floatsidf.o)
                                        0x22b (size before relaxing)
 .debug_str     0x0000000000000b30       0x66 c:/altera/14.1/nios2eds/bin/gnu/h-x86_64-mingw32/bin/../lib/gcc/nios2-elf/4.8.3/mno-hw-mul\libgcc.a(_clzsi2.o)
                                        0x206 (size before relaxing)
 .debug_str     0x0000000000000b96       0x40 c:/altera/14.1/nios2eds/bin/gnu/h-x86_64-mingw32/bin/../lib/gcc/nios2-elf/4.8.3/mno-hw-mul\libgcc.a(lib2-mul.o)
                                        0x1a5 (size before relaxing)
 .debug_str     0x0000000000000000      0x1e9 c:/altera/14.1/nios2eds/bin/gnu/h-x86_64-mingw32/bin/../lib/gcc/nios2-elf/4.8.3/mno-hw-mul\libgcc.a(_clz.o)
 .debug_str     0x0000000000000bd6      0x168 c:/altera/14.1/nios2eds/bin/gnu/h-x86_64-mingw32/bin/../lib/gcc/nios2-elf/4.8.3/../../../../../H-x86_64-mingw32/nios2-elf/lib/mno-hw-mul\libc.a(lib_a-getc.o)
                                        0x5c1 (size before relaxing)
 .debug_str     0x0000000000000d3e       0xf3 c:/altera/14.1/nios2eds/bin/gnu/h-x86_64-mingw32/bin/../lib/gcc/nios2-elf/4.8.3/../../../../../H-x86_64-mingw32/nios2-elf/lib/mno-hw-mul\libc.a(lib_a-impure.o)
                                        0x591 (size before relaxing)
 .debug_str     0x0000000000000e31       0x59 c:/altera/14.1/nios2eds/bin/gnu/h-x86_64-mingw32/bin/../lib/gcc/nios2-elf/4.8.3/../../../../../H-x86_64-mingw32/nios2-elf/lib/mno-hw-mul\libc.a(lib_a-putchar.o)
                                        0x593 (size before relaxing)
 .debug_str     0x0000000000000e8a       0x98 c:/altera/14.1/nios2eds/bin/gnu/h-x86_64-mingw32/bin/../lib/gcc/nios2-elf/4.8.3/../../../../../H-x86_64-mingw32/nios2-elf/lib/mno-hw-mul\libc.a(lib_a-puts.o)
                                        0x5d9 (size before relaxing)
 .debug_str     0x0000000000000f22       0x4f c:/altera/14.1/nios2eds/bin/gnu/h-x86_64-mingw32/bin/../lib/gcc/nios2-elf/4.8.3/../../../../../H-x86_64-mingw32/nios2-elf/lib/mno-hw-mul\libc.a(lib_a-rget.o)
                                        0x59b (size before relaxing)
 .debug_str     0x0000000000000f71       0xe3 c:/altera/14.1/nios2eds/bin/gnu/h-x86_64-mingw32/bin/../lib/gcc/nios2-elf/4.8.3/../../../../../H-x86_64-mingw32/nios2-elf/lib/mno-hw-mul\libc.a(lib_a-strlen.o)
                                        0x1da (size before relaxing)
 .debug_str     0x0000000000001054       0xe8 c:/altera/14.1/nios2eds/bin/gnu/h-x86_64-mingw32/bin/../lib/gcc/nios2-elf/4.8.3/../../../../../H-x86_64-mingw32/nios2-elf/lib/mno-hw-mul\libc.a(lib_a-findfp.o)
                                        0x68a (size before relaxing)
 .debug_str     0x000000000000113c       0x9b c:/altera/14.1/nios2eds/bin/gnu/h-x86_64-mingw32/bin/../lib/gcc/nios2-elf/4.8.3/../../../../../H-x86_64-mingw32/nios2-elf/lib/mno-hw-mul\libc.a(lib_a-fvwrite.o)
                                        0x623 (size before relaxing)
 .debug_str     0x00000000000011d7       0x61 c:/altera/14.1/nios2eds/bin/gnu/h-x86_64-mingw32/bin/../lib/gcc/nios2-elf/4.8.3/../../../../../H-x86_64-mingw32/nios2-elf/lib/mno-hw-mul\libc.a(lib_a-fwalk.o)
                                        0x5d2 (size before relaxing)
 .debug_str     0x0000000000001238      0x2c3 c:/altera/14.1/nios2eds/bin/gnu/h-x86_64-mingw32/bin/../lib/gcc/nios2-elf/4.8.3/../../../../../H-x86_64-mingw32/nios2-elf/lib/mno-hw-mul\libc.a(lib_a-mallocr.o)
                                        0x7a0 (size before relaxing)
 .debug_str     0x00000000000014fb       0x4c c:/altera/14.1/nios2eds/bin/gnu/h-x86_64-mingw32/bin/../lib/gcc/nios2-elf/4.8.3/../../../../../H-x86_64-mingw32/nios2-elf/lib/mno-hw-mul\libc.a(lib_a-memchr.o)
                                        0x1e1 (size before relaxing)
 .debug_str     0x0000000000001547       0x65 c:/altera/14.1/nios2eds/bin/gnu/h-x86_64-mingw32/bin/../lib/gcc/nios2-elf/4.8.3/../../../../../H-x86_64-mingw32/nios2-elf/lib/mno-hw-mul\libc.a(lib_a-memcpy.o)
                                        0x1ee (size before relaxing)
 .debug_str     0x00000000000015ac       0x48 c:/altera/14.1/nios2eds/bin/gnu/h-x86_64-mingw32/bin/../lib/gcc/nios2-elf/4.8.3/../../../../../H-x86_64-mingw32/nios2-elf/lib/mno-hw-mul\libc.a(lib_a-memmove.o)
                                        0x1fa (size before relaxing)
 .debug_str     0x00000000000015f4       0x3e c:/altera/14.1/nios2eds/bin/gnu/h-x86_64-mingw32/bin/../lib/gcc/nios2-elf/4.8.3/../../../../../H-x86_64-mingw32/nios2-elf/lib/mno-hw-mul\libc.a(lib_a-memset.o)
                                        0x1db (size before relaxing)
 .debug_str     0x0000000000001632       0x4a c:/altera/14.1/nios2eds/bin/gnu/h-x86_64-mingw32/bin/../lib/gcc/nios2-elf/4.8.3/../../../../../H-x86_64-mingw32/nios2-elf/lib/mno-hw-mul\libc.a(lib_a-putc.o)
                                        0x59b (size before relaxing)
 .debug_str     0x000000000000167c       0x4e c:/altera/14.1/nios2eds/bin/gnu/h-x86_64-mingw32/bin/../lib/gcc/nios2-elf/4.8.3/../../../../../H-x86_64-mingw32/nios2-elf/lib/mno-hw-mul\libc.a(lib_a-reallocr.o)
                                        0x672 (size before relaxing)
 .debug_str     0x00000000000016ca       0x58 c:/altera/14.1/nios2eds/bin/gnu/h-x86_64-mingw32/bin/../lib/gcc/nios2-elf/4.8.3/../../../../../H-x86_64-mingw32/nios2-elf/lib/mno-hw-mul\libc.a(lib_a-refill.o)
                                        0x5c6 (size before relaxing)
 .debug_str     0x0000000000001722       0x46 c:/altera/14.1/nios2eds/bin/gnu/h-x86_64-mingw32/bin/../lib/gcc/nios2-elf/4.8.3/../../../../../H-x86_64-mingw32/nios2-elf/lib/mno-hw-mul\libc.a(lib_a-sbrkr.o)
                                        0x587 (size before relaxing)
 .debug_str     0x0000000000001768       0xa3 c:/altera/14.1/nios2eds/bin/gnu/h-x86_64-mingw32/bin/../lib/gcc/nios2-elf/4.8.3/../../../../../H-x86_64-mingw32/nios2-elf/lib/mno-hw-mul\libc.a(lib_a-stdio.o)
                                        0x5eb (size before relaxing)
 .debug_str     0x000000000000180b       0x43 c:/altera/14.1/nios2eds/bin/gnu/h-x86_64-mingw32/bin/../lib/gcc/nios2-elf/4.8.3/../../../../../H-x86_64-mingw32/nios2-elf/lib/mno-hw-mul\libc.a(lib_a-wbuf.o)
                                        0x5a5 (size before relaxing)
 .debug_str     0x000000000000184e       0x3d c:/altera/14.1/nios2eds/bin/gnu/h-x86_64-mingw32/bin/../lib/gcc/nios2-elf/4.8.3/../../../../../H-x86_64-mingw32/nios2-elf/lib/mno-hw-mul\libc.a(lib_a-writer.o)
                                        0x58b (size before relaxing)
 .debug_str     0x000000000000188b       0x3d c:/altera/14.1/nios2eds/bin/gnu/h-x86_64-mingw32/bin/../lib/gcc/nios2-elf/4.8.3/../../../../../H-x86_64-mingw32/nios2-elf/lib/mno-hw-mul\libc.a(lib_a-wsetup.o)
                                        0x5a0 (size before relaxing)
 .debug_str     0x00000000000018c8       0x3d c:/altera/14.1/nios2eds/bin/gnu/h-x86_64-mingw32/bin/../lib/gcc/nios2-elf/4.8.3/../../../../../H-x86_64-mingw32/nios2-elf/lib/mno-hw-mul\libc.a(closer.o)
                                        0x57b (size before relaxing)
 .debug_str     0x0000000000001905       0x53 c:/altera/14.1/nios2eds/bin/gnu/h-x86_64-mingw32/bin/../lib/gcc/nios2-elf/4.8.3/../../../../../H-x86_64-mingw32/nios2-elf/lib/mno-hw-mul\libc.a(lib_a-fclose.o)
                                        0x5cd (size before relaxing)
 .debug_str     0x0000000000001958       0x4e c:/altera/14.1/nios2eds/bin/gnu/h-x86_64-mingw32/bin/../lib/gcc/nios2-elf/4.8.3/../../../../../H-x86_64-mingw32/nios2-elf/lib/mno-hw-mul\libc.a(lib_a-fflush.o)
                                        0x5d0 (size before relaxing)
 .debug_str     0x00000000000019a6       0x34 c:/altera/14.1/nios2eds/bin/gnu/h-x86_64-mingw32/bin/../lib/gcc/nios2-elf/4.8.3/../../../../../H-x86_64-mingw32/nios2-elf/lib/mno-hw-mul\libc.a(lib_a-freer.o)
                                        0x6ea (size before relaxing)
 .debug_str     0x00000000000019da       0x40 c:/altera/14.1/nios2eds/bin/gnu/h-x86_64-mingw32/bin/../lib/gcc/nios2-elf/4.8.3/../../../../../H-x86_64-mingw32/nios2-elf/lib/mno-hw-mul\libc.a(lib_a-int_errno.o)
                                        0x1c0 (size before relaxing)
 .debug_str     0x0000000000001a1a       0x43 c:/altera/14.1/nios2eds/bin/gnu/h-x86_64-mingw32/bin/../lib/gcc/nios2-elf/4.8.3/../../../../../H-x86_64-mingw32/nios2-elf/lib/mno-hw-mul\libc.a(lib_a-lseekr.o)
                                        0x58f (size before relaxing)
 .debug_str     0x0000000000001a5d      0x125 c:/altera/14.1/nios2eds/bin/gnu/h-x86_64-mingw32/bin/../lib/gcc/nios2-elf/4.8.3/../../../../../H-x86_64-mingw32/nios2-elf/lib/mno-hw-mul\libc.a(lib_a-makebuf.o)
                                        0x69a (size before relaxing)
 .debug_str     0x0000000000001b82       0x3c c:/altera/14.1/nios2eds/bin/gnu/h-x86_64-mingw32/bin/../lib/gcc/nios2-elf/4.8.3/../../../../../H-x86_64-mingw32/nios2-elf/lib/mno-hw-mul\libc.a(lib_a-readr.o)
                                        0x588 (size before relaxing)
 .debug_str     0x0000000000001bbe       0x49 c:/altera/14.1/nios2eds/bin/gnu/h-x86_64-mingw32/bin/../lib/gcc/nios2-elf/4.8.3/../../../../../H-x86_64-mingw32/nios2-elf/lib/mno-hw-mul\libc.a(lib_a-fstatr.o)
                                        0x66e (size before relaxing)
 .debug_str     0x0000000000001c07       0x45 c:/altera/14.1/nios2eds/bin/gnu/h-x86_64-mingw32/bin/../lib/gcc/nios2-elf/4.8.3/../../../../../H-x86_64-mingw32/nios2-elf/lib/mno-hw-mul\libc.a(lib_a-isattyr.o)
                                        0x57e (size before relaxing)
 .debug_str     0x0000000000001c4c       0xe8 ../LEDTile_BSP2\libhal_bsp.a(alt_alarm_start.o)
                                        0x280 (size before relaxing)
 .debug_str     0x0000000000001d34       0x81 ../LEDTile_BSP2\libhal_bsp.a(alt_close.o)
                                        0x20d (size before relaxing)
 .debug_str     0x0000000000001db5       0x50 ../LEDTile_BSP2\libhal_bsp.a(alt_dev.o)
                                        0x307 (size before relaxing)
 .debug_str     0x0000000000001e05       0x65 ../LEDTile_BSP2\libhal_bsp.a(alt_errno.o)
                                        0x155 (size before relaxing)
 .debug_str     0x0000000000001e6a       0x14 ../LEDTile_BSP2\libhal_bsp.a(alt_fstat.o)
                                        0x2ee (size before relaxing)
 .debug_str     0x0000000000001e7e       0x15 ../LEDTile_BSP2\libhal_bsp.a(alt_isatty.o)
                                        0x2f6 (size before relaxing)
 .debug_str     0x0000000000001e93       0x14 ../LEDTile_BSP2\libhal_bsp.a(alt_lseek.o)
                                        0x213 (size before relaxing)
 .debug_str     0x0000000000001ea7       0x44 ../LEDTile_BSP2\libhal_bsp.a(alt_main.o)
                                        0x19f (size before relaxing)
 .debug_str     0x0000000000001eeb       0x1a ../LEDTile_BSP2\libhal_bsp.a(alt_malloc_lock.o)
                                        0x518 (size before relaxing)
 .debug_str     0x0000000000001f05       0x13 ../LEDTile_BSP2\libhal_bsp.a(alt_read.o)
                                        0x2f9 (size before relaxing)
 .debug_str     0x0000000000001f18       0x28 ../LEDTile_BSP2\libhal_bsp.a(alt_release_fd.o)
                                        0x1e1 (size before relaxing)
 .debug_str     0x0000000000001f40       0x61 ../LEDTile_BSP2\libhal_bsp.a(alt_sbrk.o)
                                        0x1d6 (size before relaxing)
 .debug_str     0x0000000000001fa1       0x4a ../LEDTile_BSP2\libhal_bsp.a(alt_tick.o)
                                        0x254 (size before relaxing)
 .debug_str     0x0000000000001feb       0x14 ../LEDTile_BSP2\libhal_bsp.a(alt_write.o)
                                        0x2fa (size before relaxing)
 .debug_str     0x0000000000001fff      0x34c ../LEDTile_BSP2\libhal_bsp.a(alt_sys_init.o)
                                        0x5c0 (size before relaxing)
 .debug_str     0x000000000000234b      0x219 ../LEDTile_BSP2\libhal_bsp.a(altera_avalon_epcs_flash_controller.o)
                                        0x557 (size before relaxing)
 .debug_str     0x0000000000002564       0xb2 ../LEDTile_BSP2\libhal_bsp.a(altera_avalon_jtag_uart_fd.o)
                                        0x3a6 (size before relaxing)
 .debug_str     0x0000000000002616       0xbc ../LEDTile_BSP2\libhal_bsp.a(altera_avalon_jtag_uart_init.o)
                                        0x33a (size before relaxing)
 .debug_str     0x00000000000026d2       0x4a ../LEDTile_BSP2\libhal_bsp.a(altera_avalon_jtag_uart_ioctl.o)
                                        0x295 (size before relaxing)
 .debug_str     0x000000000000271c       0x48 ../LEDTile_BSP2\libhal_bsp.a(altera_avalon_jtag_uart_read.o)
                                        0x2ea (size before relaxing)
 .debug_str     0x0000000000002764       0x4a ../LEDTile_BSP2\libhal_bsp.a(altera_avalon_jtag_uart_write.o)
                                        0x2eb (size before relaxing)
 .debug_str     0x00000000000027ae       0x6d ../LEDTile_BSP2\libhal_bsp.a(altera_avalon_timer_sc.o)
                                        0x24d (size before relaxing)
 .debug_str     0x000000000000281b       0x77 ../LEDTile_BSP2\libhal_bsp.a(altera_avalon_uart_fd.o)
                                        0x2f7 (size before relaxing)
 .debug_str     0x0000000000002892       0xa7 ../LEDTile_BSP2\libhal_bsp.a(altera_avalon_uart_init.o)
                                        0x2b9 (size before relaxing)
 .debug_str     0x0000000000002939       0x4f ../LEDTile_BSP2\libhal_bsp.a(altera_avalon_uart_read.o)
                                        0x29a (size before relaxing)
 .debug_str     0x0000000000002988       0x49 ../LEDTile_BSP2\libhal_bsp.a(altera_avalon_uart_write.o)
                                        0x28e (size before relaxing)
 .debug_str     0x00000000000029d1      0x16a ../LEDTile_BSP2\libhal_bsp.a(epcs_commands.o)
                                        0x2ef (size before relaxing)
 .debug_str     0x0000000000002b3b       0x34 ../LEDTile_BSP2\libhal_bsp.a(alt_dev_llist_insert.o)
                                        0x1dc (size before relaxing)
 .debug_str     0x0000000000002b6f       0x48 ../LEDTile_BSP2\libhal_bsp.a(alt_do_ctors.o)
                                         0xec (size before relaxing)
 .debug_str     0x0000000000002bb7       0x4c ../LEDTile_BSP2\libhal_bsp.a(alt_do_dtors.o)
                                         0xeb (size before relaxing)
 .debug_str     0x0000000000002c03       0x3f ../LEDTile_BSP2\libhal_bsp.a(alt_flash_dev.o)
                                        0x2f1 (size before relaxing)
 .debug_str     0x0000000000002c42       0xbd ../LEDTile_BSP2\libhal_bsp.a(alt_iic.o)
                                        0x240 (size before relaxing)
 .debug_str     0x0000000000002cff       0x4c ../LEDTile_BSP2\libhal_bsp.a(alt_iic_isr_register.o)
                                        0x1ea (size before relaxing)
 .debug_str     0x0000000000002d4b       0x56 ../LEDTile_BSP2\libhal_bsp.a(alt_io_redirect.o)
                                        0x318 (size before relaxing)
 .debug_str     0x0000000000002da1       0x3a ../LEDTile_BSP2\libhal_bsp.a(alt_irq_handler.o)
                                        0x199 (size before relaxing)
 .debug_str     0x0000000000002ddb       0x17 ../LEDTile_BSP2\libhal_bsp.a(alt_irq_vars.o)
                                        0x148 (size before relaxing)
 .debug_str     0x0000000000002df2       0x29 ../LEDTile_BSP2\libhal_bsp.a(alt_open.o)
                                        0x24d (size before relaxing)
 .debug_str     0x0000000000002e1b       0x3b ../LEDTile_BSP2\libhal_bsp.a(altera_nios2_gen2_irq.o)
                                        0x15e (size before relaxing)
 .debug_str     0x0000000000002e56       0xa5 ../LEDTile_BSP2\libhal_bsp.a(altera_avalon_spi.o)
                                        0x1f0 (size before relaxing)
 .debug_str     0x0000000000002efb       0x24 ../LEDTile_BSP2\libhal_bsp.a(alt_find_dev.o)
                                        0x1ee (size before relaxing)
 .debug_str     0x0000000000002f1f       0x26 ../LEDTile_BSP2\libhal_bsp.a(alt_find_file.o)
                                        0x1fc (size before relaxing)
 .debug_str     0x0000000000002f45       0x30 ../LEDTile_BSP2\libhal_bsp.a(alt_get_fd.o)
                                        0x21e (size before relaxing)
 .debug_str     0x0000000000002f75      0x48b ../LEDTile_BSP2\libhal_bsp.a(alt_instruction_exception_entry.o)
                                        0x5a1 (size before relaxing)
 .debug_str     0x0000000000003400       0x82 c:/altera/14.1/nios2eds/bin/gnu/h-x86_64-mingw32/bin/../lib/gcc/nios2-elf/4.8.3/../../../../../H-x86_64-mingw32/nios2-elf/lib/mno-hw-mul\libc.a(lib_a-atexit.o)
                                        0x204 (size before relaxing)
 .debug_str     0x0000000000003482       0x4d c:/altera/14.1/nios2eds/bin/gnu/h-x86_64-mingw32/bin/../lib/gcc/nios2-elf/4.8.3/../../../../../H-x86_64-mingw32/nios2-elf/lib/mno-hw-mul\libc.a(lib_a-exit.o)
                                        0x59a (size before relaxing)
 .debug_str     0x00000000000034cf       0x3e c:/altera/14.1/nios2eds/bin/gnu/h-x86_64-mingw32/bin/../lib/gcc/nios2-elf/4.8.3/../../../../../H-x86_64-mingw32/nios2-elf/lib/mno-hw-mul\libc.a(lib_a-memcmp.o)
                                        0x1c7 (size before relaxing)
 .debug_str     0x000000000000350d       0x4e c:/altera/14.1/nios2eds/bin/gnu/h-x86_64-mingw32/bin/../lib/gcc/nios2-elf/4.8.3/../../../../../H-x86_64-mingw32/nios2-elf/lib/mno-hw-mul\libc.a(lib_a-__atexit.o)
                                        0x5e7 (size before relaxing)
 .debug_str     0x000000000000355b       0x58 c:/altera/14.1/nios2eds/bin/gnu/h-x86_64-mingw32/bin/../lib/gcc/nios2-elf/4.8.3/../../../../../H-x86_64-mingw32/nios2-elf/lib/mno-hw-mul\libc.a(lib_a-__call_atexit.o)
                                        0x5b0 (size before relaxing)
 .debug_str     0x00000000000035b3       0x2a ../LEDTile_BSP2\libhal_bsp.a(alt_exit.o)
                                        0x153 (size before relaxing)

.debug_loc      0x0000000000000000     0x811e
 *(.debug_loc)
 .debug_loc     0x0000000000000000      0x2d7 c:/altera/14.1/nios2eds/bin/gnu/h-x86_64-mingw32/bin/../lib/gcc/nios2-elf/4.8.3/mno-hw-mul\libgcc.a(lib2-divmod.o)
 .debug_loc     0x00000000000002d7     0x1bbe c:/altera/14.1/nios2eds/bin/gnu/h-x86_64-mingw32/bin/../lib/gcc/nios2-elf/4.8.3/mno-hw-mul\libgcc.a(divdf3.o)
 .debug_loc     0x0000000000001e95     0x104b c:/altera/14.1/nios2eds/bin/gnu/h-x86_64-mingw32/bin/../lib/gcc/nios2-elf/4.8.3/mno-hw-mul\libgcc.a(muldf3.o)
 .debug_loc     0x0000000000002ee0      0x170 c:/altera/14.1/nios2eds/bin/gnu/h-x86_64-mingw32/bin/../lib/gcc/nios2-elf/4.8.3/mno-hw-mul\libgcc.a(fixdfsi.o)
 .debug_loc     0x0000000000003050      0x15a c:/altera/14.1/nios2eds/bin/gnu/h-x86_64-mingw32/bin/../lib/gcc/nios2-elf/4.8.3/mno-hw-mul\libgcc.a(floatsidf.o)
 .debug_loc     0x00000000000031aa      0x19a c:/altera/14.1/nios2eds/bin/gnu/h-x86_64-mingw32/bin/../lib/gcc/nios2-elf/4.8.3/mno-hw-mul\libgcc.a(_clzsi2.o)
 .debug_loc     0x0000000000003344       0x93 c:/altera/14.1/nios2eds/bin/gnu/h-x86_64-mingw32/bin/../lib/gcc/nios2-elf/4.8.3/mno-hw-mul\libgcc.a(lib2-mul.o)
 .debug_loc     0x00000000000033d7      0x11e c:/altera/14.1/nios2eds/bin/gnu/h-x86_64-mingw32/bin/../lib/gcc/nios2-elf/4.8.3/../../../../../H-x86_64-mingw32/nios2-elf/lib/mno-hw-mul\libc.a(lib_a-getc.o)
 .debug_loc     0x00000000000034f5       0x6e c:/altera/14.1/nios2eds/bin/gnu/h-x86_64-mingw32/bin/../lib/gcc/nios2-elf/4.8.3/../../../../../H-x86_64-mingw32/nios2-elf/lib/mno-hw-mul\libc.a(lib_a-putchar.o)
 .debug_loc     0x0000000000003563       0xb9 c:/altera/14.1/nios2eds/bin/gnu/h-x86_64-mingw32/bin/../lib/gcc/nios2-elf/4.8.3/../../../../../H-x86_64-mingw32/nios2-elf/lib/mno-hw-mul\libc.a(lib_a-puts.o)
 .debug_loc     0x000000000000361c       0xb0 c:/altera/14.1/nios2eds/bin/gnu/h-x86_64-mingw32/bin/../lib/gcc/nios2-elf/4.8.3/../../../../../H-x86_64-mingw32/nios2-elf/lib/mno-hw-mul\libc.a(lib_a-rget.o)
 .debug_loc     0x00000000000036cc       0x47 c:/altera/14.1/nios2eds/bin/gnu/h-x86_64-mingw32/bin/../lib/gcc/nios2-elf/4.8.3/../../../../../H-x86_64-mingw32/nios2-elf/lib/mno-hw-mul\libc.a(lib_a-strlen.o)
 .debug_loc     0x0000000000003713      0x2ba c:/altera/14.1/nios2eds/bin/gnu/h-x86_64-mingw32/bin/../lib/gcc/nios2-elf/4.8.3/../../../../../H-x86_64-mingw32/nios2-elf/lib/mno-hw-mul\libc.a(lib_a-findfp.o)
 .debug_loc     0x00000000000039cd      0x547 c:/altera/14.1/nios2eds/bin/gnu/h-x86_64-mingw32/bin/../lib/gcc/nios2-elf/4.8.3/../../../../../H-x86_64-mingw32/nios2-elf/lib/mno-hw-mul\libc.a(lib_a-fvwrite.o)
 .debug_loc     0x0000000000003f14      0x2d4 c:/altera/14.1/nios2eds/bin/gnu/h-x86_64-mingw32/bin/../lib/gcc/nios2-elf/4.8.3/../../../../../H-x86_64-mingw32/nios2-elf/lib/mno-hw-mul\libc.a(lib_a-fwalk.o)
 .debug_loc     0x00000000000041e8      0xc16 c:/altera/14.1/nios2eds/bin/gnu/h-x86_64-mingw32/bin/../lib/gcc/nios2-elf/4.8.3/../../../../../H-x86_64-mingw32/nios2-elf/lib/mno-hw-mul\libc.a(lib_a-mallocr.o)
 .debug_loc     0x0000000000004dfe      0x19f c:/altera/14.1/nios2eds/bin/gnu/h-x86_64-mingw32/bin/../lib/gcc/nios2-elf/4.8.3/../../../../../H-x86_64-mingw32/nios2-elf/lib/mno-hw-mul\libc.a(lib_a-memchr.o)
 .debug_loc     0x0000000000004f9d      0x33d c:/altera/14.1/nios2eds/bin/gnu/h-x86_64-mingw32/bin/../lib/gcc/nios2-elf/4.8.3/../../../../../H-x86_64-mingw32/nios2-elf/lib/mno-hw-mul\libc.a(lib_a-memcpy.o)
 .debug_loc     0x00000000000052da      0x373 c:/altera/14.1/nios2eds/bin/gnu/h-x86_64-mingw32/bin/../lib/gcc/nios2-elf/4.8.3/../../../../../H-x86_64-mingw32/nios2-elf/lib/mno-hw-mul\libc.a(lib_a-memmove.o)
 .debug_loc     0x000000000000564d      0x1e5 c:/altera/14.1/nios2eds/bin/gnu/h-x86_64-mingw32/bin/../lib/gcc/nios2-elf/4.8.3/../../../../../H-x86_64-mingw32/nios2-elf/lib/mno-hw-mul\libc.a(lib_a-memset.o)
 .debug_loc     0x0000000000005832      0x1c1 c:/altera/14.1/nios2eds/bin/gnu/h-x86_64-mingw32/bin/../lib/gcc/nios2-elf/4.8.3/../../../../../H-x86_64-mingw32/nios2-elf/lib/mno-hw-mul\libc.a(lib_a-putc.o)
 .debug_loc     0x00000000000059f3      0xe7f c:/altera/14.1/nios2eds/bin/gnu/h-x86_64-mingw32/bin/../lib/gcc/nios2-elf/4.8.3/../../../../../H-x86_64-mingw32/nios2-elf/lib/mno-hw-mul\libc.a(lib_a-reallocr.o)
 .debug_loc     0x0000000000006872      0x13b c:/altera/14.1/nios2eds/bin/gnu/h-x86_64-mingw32/bin/../lib/gcc/nios2-elf/4.8.3/../../../../../H-x86_64-mingw32/nios2-elf/lib/mno-hw-mul\libc.a(lib_a-refill.o)
 .debug_loc     0x00000000000069ad       0x66 c:/altera/14.1/nios2eds/bin/gnu/h-x86_64-mingw32/bin/../lib/gcc/nios2-elf/4.8.3/../../../../../H-x86_64-mingw32/nios2-elf/lib/mno-hw-mul\libc.a(lib_a-sbrkr.o)
 .debug_loc     0x0000000000006a13      0x319 c:/altera/14.1/nios2eds/bin/gnu/h-x86_64-mingw32/bin/../lib/gcc/nios2-elf/4.8.3/../../../../../H-x86_64-mingw32/nios2-elf/lib/mno-hw-mul\libc.a(lib_a-stdio.o)
 .debug_loc     0x0000000000006d2c      0x15a c:/altera/14.1/nios2eds/bin/gnu/h-x86_64-mingw32/bin/../lib/gcc/nios2-elf/4.8.3/../../../../../H-x86_64-mingw32/nios2-elf/lib/mno-hw-mul\libc.a(lib_a-wbuf.o)
 .debug_loc     0x0000000000006e86       0xbe c:/altera/14.1/nios2eds/bin/gnu/h-x86_64-mingw32/bin/../lib/gcc/nios2-elf/4.8.3/../../../../../H-x86_64-mingw32/nios2-elf/lib/mno-hw-mul\libc.a(lib_a-writer.o)
 .debug_loc     0x0000000000006f44       0x9a c:/altera/14.1/nios2eds/bin/gnu/h-x86_64-mingw32/bin/../lib/gcc/nios2-elf/4.8.3/../../../../../H-x86_64-mingw32/nios2-elf/lib/mno-hw-mul\libc.a(lib_a-wsetup.o)
 .debug_loc     0x0000000000006fde       0x66 c:/altera/14.1/nios2eds/bin/gnu/h-x86_64-mingw32/bin/../lib/gcc/nios2-elf/4.8.3/../../../../../H-x86_64-mingw32/nios2-elf/lib/mno-hw-mul\libc.a(closer.o)
 .debug_loc     0x0000000000007044      0x116 c:/altera/14.1/nios2eds/bin/gnu/h-x86_64-mingw32/bin/../lib/gcc/nios2-elf/4.8.3/../../../../../H-x86_64-mingw32/nios2-elf/lib/mno-hw-mul\libc.a(lib_a-fclose.o)
 .debug_loc     0x000000000000715a      0x265 c:/altera/14.1/nios2eds/bin/gnu/h-x86_64-mingw32/bin/../lib/gcc/nios2-elf/4.8.3/../../../../../H-x86_64-mingw32/nios2-elf/lib/mno-hw-mul\libc.a(lib_a-fflush.o)
 .debug_loc     0x00000000000073bf      0x4fd c:/altera/14.1/nios2eds/bin/gnu/h-x86_64-mingw32/bin/../lib/gcc/nios2-elf/4.8.3/../../../../../H-x86_64-mingw32/nios2-elf/lib/mno-hw-mul\libc.a(lib_a-freer.o)
 .debug_loc     0x00000000000078bc       0xbe c:/altera/14.1/nios2eds/bin/gnu/h-x86_64-mingw32/bin/../lib/gcc/nios2-elf/4.8.3/../../../../../H-x86_64-mingw32/nios2-elf/lib/mno-hw-mul\libc.a(lib_a-lseekr.o)
 .debug_loc     0x000000000000797a      0x132 c:/altera/14.1/nios2eds/bin/gnu/h-x86_64-mingw32/bin/../lib/gcc/nios2-elf/4.8.3/../../../../../H-x86_64-mingw32/nios2-elf/lib/mno-hw-mul\libc.a(lib_a-makebuf.o)
 .debug_loc     0x0000000000007aac       0xbe c:/altera/14.1/nios2eds/bin/gnu/h-x86_64-mingw32/bin/../lib/gcc/nios2-elf/4.8.3/../../../../../H-x86_64-mingw32/nios2-elf/lib/mno-hw-mul\libc.a(lib_a-readr.o)
 .debug_loc     0x0000000000007b6a       0x92 c:/altera/14.1/nios2eds/bin/gnu/h-x86_64-mingw32/bin/../lib/gcc/nios2-elf/4.8.3/../../../../../H-x86_64-mingw32/nios2-elf/lib/mno-hw-mul\libc.a(lib_a-fstatr.o)
 .debug_loc     0x0000000000007bfc       0x66 c:/altera/14.1/nios2eds/bin/gnu/h-x86_64-mingw32/bin/../lib/gcc/nios2-elf/4.8.3/../../../../../H-x86_64-mingw32/nios2-elf/lib/mno-hw-mul\libc.a(lib_a-isattyr.o)
 .debug_loc     0x0000000000007c62       0x2c c:/altera/14.1/nios2eds/bin/gnu/h-x86_64-mingw32/bin/../lib/gcc/nios2-elf/4.8.3/../../../../../H-x86_64-mingw32/nios2-elf/lib/mno-hw-mul\libc.a(lib_a-atexit.o)
 .debug_loc     0x0000000000007c8e       0x1e c:/altera/14.1/nios2eds/bin/gnu/h-x86_64-mingw32/bin/../lib/gcc/nios2-elf/4.8.3/../../../../../H-x86_64-mingw32/nios2-elf/lib/mno-hw-mul\libc.a(lib_a-exit.o)
 .debug_loc     0x0000000000007cac      0x126 c:/altera/14.1/nios2eds/bin/gnu/h-x86_64-mingw32/bin/../lib/gcc/nios2-elf/4.8.3/../../../../../H-x86_64-mingw32/nios2-elf/lib/mno-hw-mul\libc.a(lib_a-memcmp.o)
 .debug_loc     0x0000000000007dd2      0x174 c:/altera/14.1/nios2eds/bin/gnu/h-x86_64-mingw32/bin/../lib/gcc/nios2-elf/4.8.3/../../../../../H-x86_64-mingw32/nios2-elf/lib/mno-hw-mul\libc.a(lib_a-__atexit.o)
 .debug_loc     0x0000000000007f46      0x1d8 c:/altera/14.1/nios2eds/bin/gnu/h-x86_64-mingw32/bin/../lib/gcc/nios2-elf/4.8.3/../../../../../H-x86_64-mingw32/nios2-elf/lib/mno-hw-mul\libc.a(lib_a-__call_atexit.o)

.debug_macinfo
 *(.debug_macinfo)

.debug_weaknames
 *(.debug_weaknames)

.debug_funcnames
 *(.debug_funcnames)

.debug_typenames
 *(.debug_typenames)

.debug_varnames
 *(.debug_varnames)

.debug_alt_sim_info
                0x0000000000000000       0x10
 *(.debug_alt_sim_info)
 .debug_alt_sim_info
                0x0000000000000000       0x10 ../LEDTile_BSP2/obj/HAL/src/crt0.o
                0x0000000004000000                __alt_data_end = 0x4000000
                0x0000000004000000                PROVIDE (__alt_stack_pointer, __alt_data_end)
                0x000000000207f624                PROVIDE (__alt_stack_limit, __alt_stack_base)
                0x000000000207f624                PROVIDE (__alt_heap_start, end)
                0x0000000004000000                PROVIDE (__alt_heap_limit, 0x4000000)
OUTPUT(LEDTileHalloween.elf elf32-littlenios2)

.debug_ranges   0x0000000000000000      0x700
 .debug_ranges  0x0000000000000000      0x168 c:/altera/14.1/nios2eds/bin/gnu/h-x86_64-mingw32/bin/../lib/gcc/nios2-elf/4.8.3/mno-hw-mul\libgcc.a(divdf3.o)
 .debug_ranges  0x0000000000000168      0x220 c:/altera/14.1/nios2eds/bin/gnu/h-x86_64-mingw32/bin/../lib/gcc/nios2-elf/4.8.3/mno-hw-mul\libgcc.a(muldf3.o)
 .debug_ranges  0x0000000000000388       0x38 c:/altera/14.1/nios2eds/bin/gnu/h-x86_64-mingw32/bin/../lib/gcc/nios2-elf/4.8.3/mno-hw-mul\libgcc.a(fixdfsi.o)
 .debug_ranges  0x00000000000003c0       0x30 c:/altera/14.1/nios2eds/bin/gnu/h-x86_64-mingw32/bin/../lib/gcc/nios2-elf/4.8.3/mno-hw-mul\libgcc.a(floatsidf.o)
 .debug_ranges  0x00000000000003f0       0x28 c:/altera/14.1/nios2eds/bin/gnu/h-x86_64-mingw32/bin/../lib/gcc/nios2-elf/4.8.3/mno-hw-mul\libgcc.a(_clzsi2.o)
 .debug_ranges  0x0000000000000418       0x60 c:/altera/14.1/nios2eds/bin/gnu/h-x86_64-mingw32/bin/../lib/gcc/nios2-elf/4.8.3/../../../../../H-x86_64-mingw32/nios2-elf/lib/mno-hw-mul\libc.a(lib_a-findfp.o)
 .debug_ranges  0x0000000000000478       0x20 c:/altera/14.1/nios2eds/bin/gnu/h-x86_64-mingw32/bin/../lib/gcc/nios2-elf/4.8.3/../../../../../H-x86_64-mingw32/nios2-elf/lib/mno-hw-mul\libc.a(lib_a-fvwrite.o)
 .debug_ranges  0x0000000000000498       0x40 c:/altera/14.1/nios2eds/bin/gnu/h-x86_64-mingw32/bin/../lib/gcc/nios2-elf/4.8.3/../../../../../H-x86_64-mingw32/nios2-elf/lib/mno-hw-mul\libc.a(lib_a-fwalk.o)
 .debug_ranges  0x00000000000004d8       0x38 c:/altera/14.1/nios2eds/bin/gnu/h-x86_64-mingw32/bin/../lib/gcc/nios2-elf/4.8.3/../../../../../H-x86_64-mingw32/nios2-elf/lib/mno-hw-mul\libc.a(lib_a-mallocr.o)
 .debug_ranges  0x0000000000000510      0x138 c:/altera/14.1/nios2eds/bin/gnu/h-x86_64-mingw32/bin/../lib/gcc/nios2-elf/4.8.3/../../../../../H-x86_64-mingw32/nios2-elf/lib/mno-hw-mul\libc.a(lib_a-reallocr.o)
 .debug_ranges  0x0000000000000648       0x20 c:/altera/14.1/nios2eds/bin/gnu/h-x86_64-mingw32/bin/../lib/gcc/nios2-elf/4.8.3/../../../../../H-x86_64-mingw32/nios2-elf/lib/mno-hw-mul\libc.a(lib_a-fflush.o)
 .debug_ranges  0x0000000000000668       0x28 ../LEDTile_BSP2\libhal_bsp.a(alt_irq_entry.o)
 .debug_ranges  0x0000000000000690       0x10 ../LEDTile_BSP2\libhal_bsp.a(alt_irq_handler.o)
 .debug_ranges  0x00000000000006a0       0x30 ../LEDTile_BSP2\libhal_bsp.a(alt_exception_entry.o)
 .debug_ranges  0x00000000000006d0       0x18 ../LEDTile_BSP2\libhal_bsp.a(alt_instruction_exception_entry.o)
 .debug_ranges  0x00000000000006e8       0x18 c:/altera/14.1/nios2eds/bin/gnu/h-x86_64-mingw32/bin/../lib/gcc/nios2-elf/4.8.3/../../../../../H-x86_64-mingw32/nios2-elf/lib/mno-hw-mul\libc.a(lib_a-__call_atexit.o)
