
LEDTileApplication.elf:     file format elf32-littlenios2
LEDTileApplication.elf
architecture: nios2:r1, flags 0x00000112:
EXEC_P, HAS_SYMS, D_PAGED
start address 0x02000230

Program Header:
    LOAD off    0x00001020 vaddr 0x02000020 paddr 0x02000020 align 2**12
         filesz 0x000a6a04 memsz 0x000a6b88 flags rwx
    LOAD off    0x000a8000 vaddr 0x04009000 paddr 0x04009000 align 2**12
         filesz 0x00000000 memsz 0x00000000 flags r-x

Sections:
Idx Name          Size      VMA       LMA       File off  Algn
  0 .entry        00000000  04009000  04009000  000a8000  2**5
                  CONTENTS, ALLOC, LOAD, READONLY, CODE
  1 .exceptions   00000210  02000020  02000020  00001020  2**2
                  CONTENTS, ALLOC, LOAD, READONLY, CODE
  2 .text         0001c4d4  02000230  02000230  00001230  2**2
                  CONTENTS, ALLOC, LOAD, READONLY, CODE
  3 .rodata       000885f8  0201c704  0201c704  0001d704  2**2
                  CONTENTS, ALLOC, LOAD, READONLY, DATA
  4 .rwdata       00001d28  020a4cfc  020a4cfc  000a5cfc  2**2
                  CONTENTS, ALLOC, LOAD, DATA, SMALL_DATA
  5 .bss          00000184  020a6a24  020a6a24  000a7a24  2**2
                  ALLOC, SMALL_DATA
  6 .sdram_controller 00000000  020a6ba8  020a6ba8  000a8000  2**0
                  CONTENTS
  7 .onchip_memory2 00000000  04000000  04000000  000a8000  2**0
                  CONTENTS
  8 .epcs_flash_controller 00000000  04009020  04009020  000a8000  2**0
                  CONTENTS
  9 .comment      00000023  00000000  00000000  000a8000  2**0
                  CONTENTS, READONLY
 10 .debug_aranges 00001378  00000000  00000000  000a8028  2**3
                  CONTENTS, READONLY, DEBUGGING
 11 .debug_info   00034392  00000000  00000000  000a93a0  2**0
                  CONTENTS, READONLY, DEBUGGING
 12 .debug_abbrev 0000ce27  00000000  00000000  000dd732  2**0
                  CONTENTS, READONLY, DEBUGGING
 13 .debug_line   0001130a  00000000  00000000  000ea559  2**0
                  CONTENTS, READONLY, DEBUGGING
 14 .debug_frame  00003098  00000000  00000000  000fb864  2**2
                  CONTENTS, READONLY, DEBUGGING
 15 .debug_str    00004e1b  00000000  00000000  000fe8fc  2**0
                  CONTENTS, READONLY, DEBUGGING
 16 .debug_loc    00024d9b  00000000  00000000  00103717  2**0
                  CONTENTS, READONLY, DEBUGGING
 17 .debug_alt_sim_info 00000010  00000000  00000000  001284b4  2**2
                  CONTENTS, READONLY, DEBUGGING
 18 .debug_ranges 000020c0  00000000  00000000  001284c8  2**3
                  CONTENTS, READONLY, DEBUGGING
 19 .thread_model 00000003  00000000  00000000  0012eac4  2**0
                  CONTENTS, READONLY
 20 .cpu          00000003  00000000  00000000  0012eac7  2**0
                  CONTENTS, READONLY
 21 .qsys         00000001  00000000  00000000  0012eaca  2**0
                  CONTENTS, READONLY
 22 .simulation_enabled 00000001  00000000  00000000  0012eacb  2**0
                  CONTENTS, READONLY
 23 .sysid_hash   00000004  00000000  00000000  0012eacc  2**0
                  CONTENTS, READONLY
 24 .sysid_base   00000004  00000000  00000000  0012ead0  2**0
                  CONTENTS, READONLY
 25 .sysid_time   00000004  00000000  00000000  0012ead4  2**0
                  CONTENTS, READONLY
 26 .stderr_dev   00000009  00000000  00000000  0012ead8  2**0
                  CONTENTS, READONLY
 27 .stdin_dev    00000006  00000000  00000000  0012eae1  2**0
                  CONTENTS, READONLY
 28 .stdout_dev   00000009  00000000  00000000  0012eae7  2**0
                  CONTENTS, READONLY
 29 .sopc_system_name 00000004  00000000  00000000  0012eaf0  2**0
                  CONTENTS, READONLY
 30 .sopcinfo     0007c1af  00000000  00000000  0012eaf4  2**0
                  CONTENTS, READONLY
SYMBOL TABLE:
04009000 l    d  .entry	00000000 .entry
02000020 l    d  .exceptions	00000000 .exceptions
02000230 l    d  .text	00000000 .text
0201c704 l    d  .rodata	00000000 .rodata
020a4cfc l    d  .rwdata	00000000 .rwdata
020a6a24 l    d  .bss	00000000 .bss
020a6ba8 l    d  .sdram_controller	00000000 .sdram_controller
04000000 l    d  .onchip_memory2	00000000 .onchip_memory2
04009020 l    d  .epcs_flash_controller	00000000 .epcs_flash_controller
00000000 l    d  .comment	00000000 .comment
00000000 l    d  .debug_aranges	00000000 .debug_aranges
00000000 l    d  .debug_info	00000000 .debug_info
00000000 l    d  .debug_abbrev	00000000 .debug_abbrev
00000000 l    d  .debug_line	00000000 .debug_line
00000000 l    d  .debug_frame	00000000 .debug_frame
00000000 l    d  .debug_str	00000000 .debug_str
00000000 l    d  .debug_loc	00000000 .debug_loc
00000000 l    d  .debug_alt_sim_info	00000000 .debug_alt_sim_info
00000000 l    d  .debug_ranges	00000000 .debug_ranges
00000000 l    df *ABS*	00000000 ../LEDTile_BSP2//obj/HAL/src/crt0.o
02000264 l       .text	00000000 alt_after_alt_main
00000000 l    df *ABS*	00000000 alt_irq_handler.c
00000000 l    df *ABS*	00000000 alt_instruction_exception_entry.c
00000000 l    df *ABS*	00000000 main.c
020a6a68 l     O .bss	00000018 alarm
020a6a28 l     O .bss	00000004 i.3240
00000000 l    df *ABS*	00000000 LEDTileLib.c
00000000 l    df *ABS*	00000000 lib2-divmod.c
00000000 l    df *ABS*	00000000 divdf3.c
00000000 l    df *ABS*	00000000 muldf3.c
00000000 l    df *ABS*	00000000 fixdfsi.c
00000000 l    df *ABS*	00000000 floatsidf.c
00000000 l    df *ABS*	00000000 libgcc2.c
00000000 l    df *ABS*	00000000 lib2-mul.c
00000000 l    df *ABS*	00000000 libgcc2.c
00000000 l    df *ABS*	00000000 fflush.c
00000000 l    df *ABS*	00000000 findfp.c
02003ae8 l     F .text	00000008 __fp_unlock
02003afc l     F .text	0000019c __sinit.part.1
02003c98 l     F .text	00000008 __fp_lock
00000000 l    df *ABS*	00000000 mallocr.c
00000000 l    df *ABS*	00000000 fwalk.c
00000000 l    df *ABS*	00000000 impure.c
020a4d8c l     O .rwdata	00000424 impure_data
00000000 l    df *ABS*	00000000 mallocr.c
00000000 l    df *ABS*	00000000 memset.c
00000000 l    df *ABS*	00000000 printf.c
00000000 l    df *ABS*	00000000 puts.c
00000000 l    df *ABS*	00000000 sbrkr.c
00000000 l    df *ABS*	00000000 scanf.c
00000000 l    df *ABS*	00000000 stdio.c
00000000 l    df *ABS*	00000000 strlen.c
00000000 l    df *ABS*	00000000 vfprintf.c
020a46ce l     O .rodata	00000010 zeroes.4404
02007454 l     F .text	000000bc __sbprintf
020a46de l     O .rodata	00000010 blanks.4403
00000000 l    df *ABS*	00000000 vfscanf.c
020a46f6 l     O .rodata	00000022 basefix.4359
00000000 l    df *ABS*	00000000 writer.c
00000000 l    df *ABS*	00000000 wsetup.c
00000000 l    df *ABS*	00000000 closer.c
00000000 l    df *ABS*	00000000 ctype_.c
020a4819 l     O .rodata	00000180 _ctype_b
00000000 l    df *ABS*	00000000 dtoa.c
02009174 l     F .text	00000228 quorem
00000000 l    df *ABS*	00000000 fclose.c
00000000 l    df *ABS*	00000000 fread.c
00000000 l    df *ABS*	00000000 fvwrite.c
00000000 l    df *ABS*	00000000 int_errno.c
00000000 l    df *ABS*	00000000 iswspace.c
00000000 l    df *ABS*	00000000 locale.c
020a55d8 l     O .rwdata	00000020 lc_ctype_charset
020a55b8 l     O .rwdata	00000020 lc_message_charset
020a55f8 l     O .rwdata	00000038 lconv
00000000 l    df *ABS*	00000000 lseekr.c
00000000 l    df *ABS*	00000000 makebuf.c
00000000 l    df *ABS*	00000000 mbrtowc.c
00000000 l    df *ABS*	00000000 mbtowc_r.c
00000000 l    df *ABS*	00000000 memchr.c
00000000 l    df *ABS*	00000000 memcpy.c
00000000 l    df *ABS*	00000000 memmove.c
00000000 l    df *ABS*	00000000 mprec.c
020a49b8 l     O .rodata	0000000c p05.2768
00000000 l    df *ABS*	00000000 readr.c
00000000 l    df *ABS*	00000000 mallocr.c
00000000 l    df *ABS*	00000000 refill.c
0200d1b0 l     F .text	0000001c lflush
00000000 l    df *ABS*	00000000 s_fpclassify.c
00000000 l    df *ABS*	00000000 sccl.c
00000000 l    df *ABS*	00000000 sf_nan.c
00000000 l    df *ABS*	00000000 sprintf.c
00000000 l    df *ABS*	00000000 strcmp.c
00000000 l    df *ABS*	00000000 strtod.c
0200d68c l     F .text	00000064 sulp
020a4aec l     O .rodata	00000014 fpinan.2773
020a4b00 l     O .rodata	00000014 fpi.2737
020a4b14 l     O .rodata	00000028 tinytens
00000000 l    df *ABS*	00000000 strtol.c
00000000 l    df *ABS*	00000000 strtoll_r.c
00000000 l    df *ABS*	00000000 strtoul.c
00000000 l    df *ABS*	00000000 strtoull_r.c
00000000 l    df *ABS*	00000000 vfprintf.c
020a4b3c l     O .rodata	00000010 zeroes.4389
020a4b4c l     O .rodata	00000010 blanks.4388
00000000 l    df *ABS*	00000000 ungetc.c
00000000 l    df *ABS*	00000000 vfprintf.c
02011e54 l     F .text	000000fc __sprint_r.part.0
020a4b5c l     O .rodata	00000010 zeroes.4349
02013490 l     F .text	000000bc __sbprintf
020a4b6c l     O .rodata	00000010 blanks.4348
00000000 l    df *ABS*	00000000 mallocr.c
00000000 l    df *ABS*	00000000 fputwc.c
00000000 l    df *ABS*	00000000 fstatr.c
00000000 l    df *ABS*	00000000 gdtoa-gethex.c
0201388c l     F .text	00000100 rshift
00000000 l    df *ABS*	00000000 gdtoa-hexnan.c
00000000 l    df *ABS*	00000000 isattyr.c
00000000 l    df *ABS*	00000000 strncmp.c
00000000 l    df *ABS*	00000000 vfprintf.c
020a4c7c l     O .rodata	00000010 zeroes.4333
020a4c8c l     O .rodata	00000010 blanks.4332
00000000 l    df *ABS*	00000000 wbuf.c
00000000 l    df *ABS*	00000000 wcrtomb.c
00000000 l    df *ABS*	00000000 wctomb_r.c
00000000 l    df *ABS*	00000000 libgcc2.c
00000000 l    df *ABS*	00000000 libgcc2.c
00000000 l    df *ABS*	00000000 libgcc2.c
00000000 l    df *ABS*	00000000 libgcc2.c
00000000 l    df *ABS*	00000000 eqsf2.c
00000000 l    df *ABS*	00000000 gesf2.c
00000000 l    df *ABS*	00000000 lesf2.c
00000000 l    df *ABS*	00000000 adddf3.c
00000000 l    df *ABS*	00000000 eqdf2.c
00000000 l    df *ABS*	00000000 gedf2.c
00000000 l    df *ABS*	00000000 ledf2.c
00000000 l    df *ABS*	00000000 subdf3.c
00000000 l    df *ABS*	00000000 floatunsidf.c
00000000 l    df *ABS*	00000000 truncdfsf2.c
00000000 l    df *ABS*	00000000 alt_alarm_start.c
00000000 l    df *ABS*	00000000 alt_close.c
020184c4 l     F .text	0000003c alt_get_errno
00000000 l    df *ABS*	00000000 alt_dev.c
020185d8 l     F .text	0000002c alt_dev_null_write
00000000 l    df *ABS*	00000000 alt_errno.c
00000000 l    df *ABS*	00000000 alt_fstat.c
02018604 l     F .text	0000003c alt_get_errno
00000000 l    df *ABS*	00000000 alt_isatty.c
020186f8 l     F .text	0000003c alt_get_errno
00000000 l    df *ABS*	00000000 alt_lseek.c
020187e0 l     F .text	0000003c alt_get_errno
00000000 l    df *ABS*	00000000 alt_main.c
00000000 l    df *ABS*	00000000 alt_malloc_lock.c
00000000 l    df *ABS*	00000000 alt_read.c
020189bc l     F .text	0000003c alt_get_errno
00000000 l    df *ABS*	00000000 alt_release_fd.c
00000000 l    df *ABS*	00000000 alt_sbrk.c
020a6a0c l     O .rwdata	00000004 heap_end
00000000 l    df *ABS*	00000000 alt_tick.c
00000000 l    df *ABS*	00000000 alt_write.c
02018dd4 l     F .text	0000003c alt_get_errno
00000000 l    df *ABS*	00000000 alt_sys_init.c
02018f10 l     F .text	00000034 alt_dev_reg
020a57d8 l     O .rwdata	000000cc epcs_flash_controller
020a58a4 l     O .rwdata	00001060 jtag_uart
020a6904 l     O .rwdata	000000c4 uart_0
00000000 l    df *ABS*	00000000 altera_avalon_epcs_flash_controller.c
0201900c l     F .text	00000034 alt_flash_device_register
02019094 l     F .text	000003f8 alt_epcs_flash_query
0201948c l     F .text	000000ec alt_epcs_flash_memcmp
02019864 l     F .text	00000094 alt_epcs_test_address
00000000 l    df *ABS*	00000000 altera_avalon_jtag_uart_fd.c
00000000 l    df *ABS*	00000000 altera_avalon_jtag_uart_init.c
02019d2c l     F .text	0000020c altera_avalon_jtag_uart_irq
02019f38 l     F .text	000000a0 altera_avalon_jtag_uart_timeout
00000000 l    df *ABS*	00000000 altera_avalon_jtag_uart_ioctl.c
00000000 l    df *ABS*	00000000 altera_avalon_jtag_uart_read.c
00000000 l    df *ABS*	00000000 altera_avalon_jtag_uart_write.c
00000000 l    df *ABS*	00000000 altera_avalon_timer_sc.c
0201a570 l     F .text	00000078 alt_avalon_timer_sc_irq
00000000 l    df *ABS*	00000000 altera_avalon_uart_fd.c
00000000 l    df *ABS*	00000000 altera_avalon_uart_init.c
0201a820 l     F .text	0000009c altera_avalon_uart_irq
0201a8bc l     F .text	000000e4 altera_avalon_uart_rxirq
0201a9a0 l     F .text	00000148 altera_avalon_uart_txirq
00000000 l    df *ABS*	00000000 altera_avalon_uart_read.c
0201ab3c l     F .text	0000003c alt_get_errno
00000000 l    df *ABS*	00000000 altera_avalon_uart_write.c
0201ad54 l     F .text	0000003c alt_get_errno
00000000 l    df *ABS*	00000000 epcs_commands.c
0201af98 l     F .text	00000038 epcs_test_wip
0201afd0 l     F .text	0000003c epcs_await_wip_released
00000000 l    df *ABS*	00000000 alt_dev_llist_insert.c
0201b578 l     F .text	0000003c alt_get_errno
00000000 l    df *ABS*	00000000 alt_do_ctors.c
00000000 l    df *ABS*	00000000 alt_do_dtors.c
00000000 l    df *ABS*	00000000 alt_flash_dev.c
00000000 l    df *ABS*	00000000 alt_iic.c
00000000 l    df *ABS*	00000000 alt_iic_isr_register.c
00000000 l    df *ABS*	00000000 alt_io_redirect.c
0201ba74 l     F .text	000000e4 alt_open_fd
00000000 l    df *ABS*	00000000 alt_irq_vars.c
00000000 l    df *ABS*	00000000 alt_open.c
0201bbd4 l     F .text	0000003c alt_get_errno
0201bc10 l     F .text	000000ec alt_file_locked
00000000 l    df *ABS*	00000000 altera_nios2_gen2_irq.c
00000000 l    df *ABS*	00000000 altera_avalon_spi.c
00000000 l    df *ABS*	00000000 alt_find_dev.c
00000000 l    df *ABS*	00000000 alt_find_file.c
00000000 l    df *ABS*	00000000 alt_get_fd.c
00000000 l    df *ABS*	00000000 atexit.c
00000000 l    df *ABS*	00000000 exit.c
00000000 l    df *ABS*	00000000 memcmp.c
00000000 l    df *ABS*	00000000 __atexit.c
00000000 l    df *ABS*	00000000 __call_atexit.c
00000000 l    df *ABS*	00000000 alt_exit.c
020a6a64 g     O .bss	00000004 alt_instruction_exception_handler
0200ca74 g     F .text	00000074 _mprec_log10
0204593c g     O .rodata	0000100c Edgar
020197d8 g     F .text	0000008c alt_epcs_flash_get_info
0200cb60 g     F .text	0000008c __any_on
02014438 g     F .text	00000054 _isatty_r
020a49c4 g     O .rodata	00000028 __mprec_tinytens
020188f8 g     F .text	0000007c alt_main
02004df4 g     F .text	000000c0 _puts_r
020a6aa8 g     O .bss	00000100 alt_irq
0200b36c g     F .text	00000060 _lseek_r
0203d884 g     O .rodata	0000100c Coin
020175f4 g     F .text	00000088 .hidden __eqdf2
020a6ba8 g       *ABS*	00000000 __alt_heap_start
02000648 g     F .text	000000dc blank
02004db8 g     F .text	0000003c printf
02015c24 g     F .text	0000009c _wcrtomb_r
02005060 g     F .text	0000005c __sseek
02003e48 g     F .text	00000010 __sinit
02015acc g     F .text	00000140 __swbuf_r
0200b290 g     F .text	0000007c _setlocale_r
02003ca0 g     F .text	00000078 __sfmoreglue
02011e3c g     F .text	00000018 ungetc
02018998 g     F .text	00000024 __malloc_unlock
020002a8 g     F .text	0000007c frame_callback
0200d6f0 g     F .text	000015e4 _strtod_r
020a4384 g     O .rodata	00000200 gamma46half
0200b9d8 g     F .text	0000015c memmove
02003e30 g     F .text	00000018 _cleanup
0203c870 g     O .rodata	0000100c Bowser
0200bb34 g     F .text	000000a8 _Balloc
020428f8 g     O .rodata	0000100c RedSlime
0201c714 g     O .rodata	0000200c smb2_holdshyguy
0201767c g     F .text	000000dc .hidden __gtdf2
0201be58 g     F .text	00000024 altera_nios2_gen2_irq_init
0201b00c g     F .text	000000fc epcs_sector_erase
04009000 g     F .entry	00000000 __reset
02013830 g     F .text	0000005c _fstat_r
020a6a3c g     O .bss	00000004 errno
02008f04 g     F .text	0000001c __svfscanf
02004fdc g     F .text	00000008 __seofread
02000000 g       *ABS*	00000000 __alt_mem_sdram_controller
0201472c g     F .text	000013a0 ___svfiprintf_internal_r
020a6a2c g     O .bss	00000004 currentAnimation
020a6a50 g     O .bss	00000004 alt_argv
020ae9c8 g       *ABS*	00000000 _gp
020889c0 g     O .rodata	0001400c ie
020a5658 g     O .rwdata	00000180 alt_fd_list
02028758 g     O .rodata	0000200c pwingmario
0201b250 g     F .text	0000006c epcs_write_status_register
0201c078 g     F .text	00000090 alt_find_dev
0200b890 g     F .text	00000148 memcpy
020141dc g     F .text	0000025c __hexnan
02003af0 g     F .text	0000000c _cleanup_r
020036d8 g     F .text	000000dc .hidden __floatsidf
020a4cfc g     O .rwdata	00000084 animations
020a3d84 g     O .rodata	00000200 cie1931
0201bb58 g     F .text	0000007c alt_io_redirect
02017758 g     F .text	000000f4 .hidden __ltdf2
0201c704 g       *ABS*	00000000 __DTOR_END__
02004eb4 g     F .text	00000014 puts
0201c2d4 g     F .text	0000009c alt_exception_cause_generated_bad_addr
0200b634 g     F .text	000000d8 mbrtowc
020327b0 g     O .rodata	0000100c RedPotionZelda1
02019970 g     F .text	00000100 alt_epcs_flash_write_block
0200d3a0 g     F .text	00000074 __fpclassifyd
02008f20 g     F .text	0000004c _vfscanf_r
0200c9d0 g     F .text	000000a4 __ratio
02013474 g     F .text	0000001c __vfiprintf_internal
0201a130 g     F .text	0000021c altera_avalon_jtag_uart_read
02004d88 g     F .text	00000030 _printf_r
02002360 g     F .text	00000064 .hidden __udivsi3
02018734 g     F .text	000000ac isatty
0200b260 g     F .text	00000030 iswspace
020a4a14 g     O .rodata	000000c8 __mprec_tens
0203f8b0 g     O .rodata	0000100c Link
0200b30c g     F .text	0000000c __locale_charset
02016c80 g     F .text	000000c8 .hidden __lesf2
02015f18 g     F .text	00000074 .hidden __fixunsdfsi
020a6a38 g     O .bss	00000004 __malloc_top_pad
0200f5dc g     F .text	0000001c strtoul
020a69e8 g     O .rwdata	00000004 __mb_cur_max
0200b33c g     F .text	0000000c _localeconv_r
0200f5f8 g     F .text	00000320 _strtoull_r
0203e89c g     O .rodata	0000100c MegaMan
0200bf68 g     F .text	0000003c __i2b
0200ad98 g     F .text	000004c8 __sfvwrite_r
02004ec8 g     F .text	00000054 _sbrk_r
02030798 g     O .rodata	0000200c Rupee
0200cbec g     F .text	00000060 _read_r
020a6a04 g     O .rwdata	00000004 alt_max_fd
02039828 g     O .rodata	0000100c Goomba
0200aa24 g     F .text	000000f0 _fclose_r
0202a774 g     O .rodata	0000400c question
02003ab8 g     F .text	00000030 fflush
020a6a34 g     O .bss	00000004 __malloc_max_sbrked_mem
02016d48 g     F .text	000008ac .hidden __adddf3
02016b4c g     F .text	00000078 .hidden __nesf2
020198f8 g     F .text	00000078 alt_epcs_flash_erase_block
0200c778 g     F .text	0000010c __b2d
020347dc g     O .rodata	0000200c FF4Chest
02016588 g     F .text	000005c4 .hidden __umoddi3
0201881c g     F .text	000000dc lseek
020a69d4 g     O .rwdata	00000004 _global_impure_ptr
0201b51c g     F .text	0000005c epcs_exit_4_bytes_mode
0200cc4c g     F .text	00000564 _realloc_r
020a6ba8 g       *ABS*	00000000 __bss_end
0201b984 g     F .text	000000f0 alt_iic_isr_register
02043910 g     O .rodata	0000100c BlueGhost
02018ccc g     F .text	00000108 alt_tick
020a69d0 g     O .rwdata	00000004 numBitmaps
020a4b7c g     O .rodata	00000100 __hexdig
02015f8c g     F .text	000005fc .hidden __udivdi3
0201378c g     F .text	00000024 _fputwc_r
020a49ec g     O .rodata	00000028 __mprec_bigtens
0200bd4c g     F .text	00000104 __s2b
02018148 g     F .text	000000a8 .hidden __floatunsidf
0200c4b8 g     F .text	00000060 __mcmp
0201a774 g     F .text	000000ac altera_avalon_uart_init
020a3f84 g     O .rodata	00000200 gamma149half
02003e68 g     F .text	00000018 __fp_lock_all
0201b938 g     F .text	0000004c alt_ic_irq_enabled
020a6a24 g     O .bss	00000004 state
02018c30 g     F .text	0000009c alt_alarm_stop
0200f044 g     F .text	0000001c strtol
0202e784 g     O .rodata	0000200c Cid_Walk_Front
020a6a60 g     O .bss	00000004 alt_irq_active
020000fc g     F .exceptions	000000d4 alt_irq_handler
020a5630 g     O .rwdata	00000028 alt_dev_null
02025740 g     O .rodata	0000300c raccoon
02048980 g     O .rodata	0001800c mosaic
0200be50 g     F .text	00000068 __hi0bits
02003658 g     F .text	00000080 .hidden __fixdfsi
020337c4 g     O .rodata	0000100c BombZelda1
0200ecd4 g     F .text	00000018 strtod
020a69fc g     O .rwdata	00000008 alt_dev_list
02047968 g     O .rodata	0000100c ns6icon
02018e10 g     F .text	00000100 write
02016bc4 g     F .text	000000bc .hidden __gtsf2
0209e9f4 g     O .rodata	0000200c Edge_Walk_Left
02018640 g     F .text	000000b8 fstat
02001de8 g     F .text	00000480 displayGamma46ColourBars
02017758 g     F .text	000000f4 .hidden __ledf2
0200c230 g     F .text	00000140 __pow5mult
02011f68 g     F .text	0000150c ___vfiprintf_internal_r
020a6a48 g     O .bss	00000004 __nlocale_changed
020023c4 g     F .text	00000058 .hidden __umodsi3
02004f58 g     F .text	00000030 _scanf_r
0201b3d8 g     F .text	00000068 epcs_read_electronic_signature
0203a840 g     O .rodata	0000100c CheepCheep
020a6ba8 g       *ABS*	00000000 end
0201ad90 g     F .text	000001ac altera_avalon_uart_write
02019c6c g     F .text	000000c0 altera_avalon_jtag_uart_init
020001d0 g     F .exceptions	00000060 alt_instruction_exception_entry
020408c8 g     O .rodata	0000100c Kain
0201c704 g       *ABS*	00000000 __CTOR_LIST__
04000000 g       *ABS*	00000000 __alt_stack_pointer
0201a5e8 g     F .text	0000007c alt_avalon_timer_sc_init
0201a6c4 g     F .text	00000060 altera_avalon_uart_write_fd
020037b4 g     F .text	00000064 .hidden __clzsi2
0201a724 g     F .text	00000050 altera_avalon_uart_close_fd
0201a34c g     F .text	00000224 altera_avalon_jtag_uart_write
02003e58 g     F .text	00000004 __sfp_lock_acquire
0200b7ac g     F .text	000000e4 memchr
0200515c g     F .text	000022dc ___vfprintf_internal_r
0200d4ec g     F .text	00000058 _sprintf_r
02003fbc g     F .text	00000310 _free_r
0200b318 g     F .text	00000010 __locale_mb_cur_max
0201c550 g     F .text	00000180 __call_exitprocs
020a6a44 g     O .bss	00000004 __mlocale_changed
020a69dc g     O .rwdata	00000004 __malloc_sbrk_base
02000230 g     F .text	00000038 _start
020a6a58 g     O .bss	00000004 _alt_tick_rate
0200f060 g     F .text	00000304 _strtoll_r
0200c370 g     F .text	00000148 __lshift
0201be7c g     F .text	000001fc alt_avalon_spi_command
020a6a5c g     O .bss	00000004 _alt_nticks
020189f8 g     F .text	00000104 read
02018f7c g     F .text	00000090 alt_sys_init
0201455c g     F .text	000001d0 __ssprint_r
0201c438 g     F .text	00000118 __register_exitproc
0201448c g     F .text	000000d0 strncmp
0200bfa4 g     F .text	0000028c __multiply
02019fd8 g     F .text	00000068 altera_avalon_jtag_uart_close
02003818 g     F .text	00000028 .hidden __mulsi3
020a6a80 g     O .bss	00000028 __malloc_current_mallinfo
02016b4c g     F .text	00000078 .hidden __eqsf2
0200c884 g     F .text	0000014c __d2b
020014e8 g     F .text	00000480 displayGamma149ColourBars
0201af3c g     F .text	0000005c epcs_read_status_register
02019b08 g     F .text	00000060 altera_avalon_jtag_uart_read_fd
0200f364 g     F .text	00000278 _strtoul_r
0201c210 g     F .text	000000c4 alt_get_fd
02009120 g     F .text	00000054 _close_r
020a4d80 g     O .rwdata	0000000c halloweenAnimations
0201b440 g     F .text	00000080 epcs_read_device_id
0201c3bc g     F .text	0000007c memcmp
02019bc8 g     F .text	00000050 altera_avalon_jtag_uart_close_fd
020a6ba8 g       *ABS*	00000000 __alt_stack_base
02019c18 g     F .text	00000054 altera_avalon_jtag_uart_ioctl_fd
0209c9d8 g     O .rodata	0000200c Cecil1_Wave
02044928 g     O .rodata	0000100c CecilHead
02008fcc g     F .text	00000154 __swsetup_r
0200241c g     F .text	000009d0 .hidden __divdf3
02003d18 g     F .text	00000118 __sfp
0200cae8 g     F .text	00000078 __copybits
020a51b0 g     O .rwdata	00000408 __malloc_av_
02003e64 g     F .text	00000004 __sinit_lock_release
02002dec g     F .text	0000086c .hidden __muldf3
04009000 g       *ABS*	00000000 __alt_mem_epcs_flash_controller
02004f88 g     F .text	00000054 __sread
0200ad64 g     F .text	00000034 fread
0201c108 g     F .text	00000108 alt_find_file
0201b5b4 g     F .text	000000a4 alt_dev_llist_insert
02018974 g     F .text	00000024 __malloc_lock
02018b80 g     F .text	000000b0 sbrk
0200f918 g     F .text	000022bc ___svfprintf_internal_r
02000724 g     F .text	0000014c displayBitmap
02003a5c g     F .text	0000005c _fflush_r
0201354c g     F .text	000000dc _calloc_r
020a6a18 g     O .rwdata	00000008 alt_flash_dev_list
02001968 g     F .text	00000480 displayGamma98ColourBars
0203b85c g     O .rodata	0000100c KoopaTroopa
020418e0 g     O .rodata	0000100c BlueVirus
020a6a24 g       *ABS*	00000000 __bss_start
02000870 g     F .text	000007f8 displayColourBars
02004c60 g     F .text	00000128 memset
02000324 g     F .text	00000188 main
020a6a54 g     O .bss	00000004 alt_envp
020a6a30 g     O .bss	00000004 __malloc_max_total_mem
020367f4 g     O .rodata	0000100c Mushroom
02019b68 g     F .text	00000060 altera_avalon_jtag_uart_write_fd
02015c0c g     F .text	00000018 __swbuf
02016c80 g     F .text	000000c8 .hidden __ltsf2
0200ab28 g     F .text	0000023c _fread_r
020050bc g     F .text	00000008 __sclose
04000000 g       *ABS*	00000000 __alt_heap_limit
0200ab14 g     F .text	00000014 fclose
0200edec g     F .text	00000258 _strtol_r
020181f0 g     F .text	000001a8 .hidden __truncdfsf2
02037814 g     O .rodata	0000200c Kain_Walk_Left
0200939c g     F .text	00001688 _dtoa_r
02004454 g     F .text	0000080c _malloc_r
02015d80 g     F .text	00000030 __ascii_wctomb
020a6a08 g     O .rwdata	00000004 alt_errno
02011bd4 g     F .text	000000d4 __submore
020042cc g     F .text	000000c4 _fwalk
0200b750 g     F .text	0000005c _mbtowc_r
02002268 g     F .text	00000084 .hidden __divsi3
02003e98 g     F .text	00000124 _malloc_trim_r
0201c704 g       *ABS*	00000000 __CTOR_END__
02019578 g     F .text	00000260 alt_epcs_flash_write
0200d5b0 g     F .text	000000dc strcmp
0201c704 g       *ABS*	00000000 __DTOR_LIST__
0200054c g     F .text	000000c0 animationsMenu
0200060c g     F .text	0000003c delay
020175f4 g     F .text	00000088 .hidden __nedf2
02018f44 g     F .text	00000038 alt_irq_init
02018afc g     F .text	00000084 alt_release_fd
0200d544 g     F .text	0000006c sprintf
020a4584 g     O .rodata	00000100 .hidden __clz_tab
020a6a40 g     O .bss	00000004 _PathLocale
0200ecec g     F .text	00000100 strtof
0201c370 g     F .text	00000014 atexit
02016bc4 g     F .text	000000bc .hidden __gesf2
02008f6c g     F .text	00000060 _write_r
0200b348 g     F .text	00000018 setlocale
02004f1c g     F .text	0000003c scanf
020a69cc g     O .rwdata	00000004 numHalloweenAnimations
0200d4e4 g     F .text	00000008 nanf
020a69d8 g     O .rwdata	00000004 _impure_ptr
020a6a4c g     O .bss	00000004 alt_argc
020609a0 g     O .rodata	0002800c Netscapethrobber
02003840 g     F .text	0000021c __sflush_r
0200b588 g     F .text	000000ac _mbrtowc_r
0201b6b8 g     F .text	00000060 _do_dtors
0200b334 g     F .text	00000008 __locale_cjk_lang
0200d1cc g     F .text	000001d4 __srefill_r
02000020 g       .exceptions	00000000 alt_irq_entry
0200b70c g     F .text	00000044 __ascii_mbtowc
0200c714 g     F .text	00000064 __ulp
02003e80 g     F .text	00000018 __fp_unlock_all
020a69f4 g     O .rwdata	00000008 alt_fs_list
0200b360 g     F .text	0000000c localeconv
0201b108 g     F .text	000000f4 epcs_read_buffer
04000000 g       *ABS*	00000000 __alt_mem_onchip_memory2
02019040 g     F .text	00000054 alt_epcs_flash_init
0201b7d4 g     F .text	00000050 alt_ic_isr_register
020004ac g     F .text	000000a0 printMenu
020a6a24 g       *ABS*	00000000 _edata
0201a664 g     F .text	00000060 altera_avalon_uart_read_fd
020a6ba8 g       *ABS*	00000000 _end
0201b718 g     F .text	00000068 alt_flash_open_dev
02013628 g     F .text	00000164 __fputwc
02008e9c g     F .text	00000068 vfscanf
0201a040 g     F .text	000000f0 altera_avalon_jtag_uart_ioctl
0201b8ac g     F .text	0000008c alt_ic_irq_disable
0201b4c0 g     F .text	0000005c epcs_enter_4_bytes_mode
02004fe4 g     F .text	0000007c __swrite
020a69e0 g     O .rwdata	00000004 __malloc_trim_threshold
0200b328 g     F .text	0000000c __locale_msgcharset
0201c384 g     F .text	00000038 exit
02004390 g     F .text	000000c4 _fwalk_reent
0200c518 g     F .text	000001fc __mdiff
0201b780 g     F .text	00000054 alt_flash_close_dev
020022ec g     F .text	00000074 .hidden __modsi3
020a69e4 g     O .rwdata	00000004 __ctype_ptr__
04000000 g       *ABS*	00000000 __alt_data_end
02000020 g     F .exceptions	00000000 alt_exception
02003e5c g     F .text	00000004 __sfp_lock_release
0200d414 g     F .text	000000d0 __sccl
020a4718 g     O .rodata	00000101 _ctype_
020a69ec g     O .rwdata	00000004 __mbtowc
0201aae8 g     F .text	00000054 altera_avalon_uart_close
0201e72c g     O .rodata	0000700c powblock
0201c6d0 g     F .text	00000034 _exit
02018398 g     F .text	0000012c alt_alarm_start
020a69c8 g     O .rwdata	00000004 numAnimations
02015e0c g     F .text	0000010c .hidden __muldi3
0200b3cc g     F .text	000001bc __smakebuf_r
020050c4 g     F .text	00000098 strlen
0201b1fc g     F .text	00000054 epcs_write_enable
0201bcfc g     F .text	0000015c open
02046950 g     O .rodata	0000100c MacTCP
0201767c g     F .text	000000dc .hidden __gedf2
0201398c g     F .text	00000850 __gethex
02001068 g     F .text	00000480 displayCIEColourBars
020a69f0 g     O .rwdata	00000004 __wctomb
02011f50 g     F .text	00000018 __sprint_r
020a6a20 g     O .rwdata	00000004 alt_priority_mask
0201b824 g     F .text	00000088 alt_ic_irq_enable
02007438 g     F .text	0000001c __vfprintf_internal
0201ab78 g     F .text	000001dc altera_avalon_uart_read
02015db0 g     F .text	0000005c _wctomb_r
0201784c g     F .text	000008fc .hidden __subdf3
020a4184 g     O .rodata	00000200 gamma98half
02019a70 g     F .text	00000098 alt_epcs_flash_read
0200beb8 g     F .text	000000b0 __lo0bits
020a0a08 g     O .rodata	0000300c cutman
02007510 g     F .text	0000198c __svfscanf_r
020a6a10 g     O .rwdata	00000008 alt_alarm_list
02011ca8 g     F .text	00000194 _ungetc_r
0201b658 g     F .text	00000060 _do_ctors
02015cc0 g     F .text	000000c0 wcrtomb
020a3b84 g     O .rodata	00000200 linearRGB
02018500 g     F .text	000000d8 close
02000268 g     F .text	00000040 longDelay
020137b0 g     F .text	00000080 fputwc
02003e60 g     F .text	00000004 __sinit_lock_acquire
0201b2bc g     F .text	0000011c epcs_write_buffer
0200bc04 g     F .text	00000148 __multadd
0200bbdc g     F .text	00000028 _Bfree



Disassembly of section .exceptions:

02000020 <alt_exception>:
 2000020:	deffed04 	addi	sp,sp,-76
 2000024:	dfc00015 	stw	ra,0(sp)
 2000028:	d8400215 	stw	at,8(sp)
 200002c:	d8800315 	stw	r2,12(sp)
 2000030:	d8c00415 	stw	r3,16(sp)
 2000034:	d9000515 	stw	r4,20(sp)
 2000038:	d9400615 	stw	r5,24(sp)
 200003c:	d9800715 	stw	r6,28(sp)
 2000040:	d9c00815 	stw	r7,32(sp)
 2000044:	000b307a 	rdctl	r5,estatus
 2000048:	da000915 	stw	r8,36(sp)
 200004c:	da400a15 	stw	r9,40(sp)
 2000050:	da800b15 	stw	r10,44(sp)
 2000054:	dac00c15 	stw	r11,48(sp)
 2000058:	db000d15 	stw	r12,52(sp)
 200005c:	db400e15 	stw	r13,56(sp)
 2000060:	db800f15 	stw	r14,60(sp)
 2000064:	dbc01015 	stw	r15,64(sp)
 2000068:	d9401115 	stw	r5,68(sp)
 200006c:	ebffff04 	addi	r15,ea,-4
 2000070:	dbc01215 	stw	r15,72(sp)
 2000074:	0009313a 	rdctl	r4,ipending
 2000078:	2880004c 	andi	r2,r5,1
 200007c:	10000326 	beq	r2,zero,200008c <alt_exception+0x6c>
 2000080:	20000226 	beq	r4,zero,200008c <alt_exception+0x6c>
 2000084:	20000fc0 	call	20000fc <alt_irq_handler>
 2000088:	00000706 	br	20000a8 <alt_exception+0x88>
 200008c:	df401215 	stw	ea,72(sp)
 2000090:	e8bfff17 	ldw	r2,-4(ea)
 2000094:	e93fff04 	addi	r4,ea,-4
 2000098:	20001d00 	call	20001d0 <alt_instruction_exception_entry>
 200009c:	1000021e 	bne	r2,zero,20000a8 <alt_exception+0x88>
 20000a0:	ebffff04 	addi	r15,ea,-4
 20000a4:	dbc01215 	stw	r15,72(sp)
 20000a8:	d9401117 	ldw	r5,68(sp)
 20000ac:	df401217 	ldw	ea,72(sp)
 20000b0:	dfc00017 	ldw	ra,0(sp)
 20000b4:	2801707a 	wrctl	estatus,r5
 20000b8:	d8400217 	ldw	at,8(sp)
 20000bc:	d8800317 	ldw	r2,12(sp)
 20000c0:	d8c00417 	ldw	r3,16(sp)
 20000c4:	d9000517 	ldw	r4,20(sp)
 20000c8:	d9400617 	ldw	r5,24(sp)
 20000cc:	d9800717 	ldw	r6,28(sp)
 20000d0:	d9c00817 	ldw	r7,32(sp)
 20000d4:	da000917 	ldw	r8,36(sp)
 20000d8:	da400a17 	ldw	r9,40(sp)
 20000dc:	da800b17 	ldw	r10,44(sp)
 20000e0:	dac00c17 	ldw	r11,48(sp)
 20000e4:	db000d17 	ldw	r12,52(sp)
 20000e8:	db400e17 	ldw	r13,56(sp)
 20000ec:	db800f17 	ldw	r14,60(sp)
 20000f0:	dbc01017 	ldw	r15,64(sp)
 20000f4:	dec01304 	addi	sp,sp,76
 20000f8:	ef80083a 	eret

020000fc <alt_irq_handler>:
 20000fc:	defff904 	addi	sp,sp,-28
 2000100:	dfc00615 	stw	ra,24(sp)
 2000104:	df000515 	stw	fp,20(sp)
 2000108:	df000504 	addi	fp,sp,20
 200010c:	0001883a 	nop
 2000110:	0005313a 	rdctl	r2,ipending
 2000114:	e0bffe15 	stw	r2,-8(fp)
 2000118:	e0bffe17 	ldw	r2,-8(fp)
 200011c:	e0bffb15 	stw	r2,-20(fp)
 2000120:	e03ffd15 	stw	zero,-12(fp)
 2000124:	00800044 	movi	r2,1
 2000128:	e0bffc15 	stw	r2,-16(fp)
 200012c:	e0fffb17 	ldw	r3,-20(fp)
 2000130:	e0bffc17 	ldw	r2,-16(fp)
 2000134:	1884703a 	and	r2,r3,r2
 2000138:	10001426 	beq	r2,zero,200018c <alt_irq_handler+0x90>
 200013c:	008082b4 	movhi	r2,522
 2000140:	109aaa04 	addi	r2,r2,27304
 2000144:	e0fffd17 	ldw	r3,-12(fp)
 2000148:	180690fa 	slli	r3,r3,3
 200014c:	10c5883a 	add	r2,r2,r3
 2000150:	10c00017 	ldw	r3,0(r2)
 2000154:	008082b4 	movhi	r2,522
 2000158:	109aaa04 	addi	r2,r2,27304
 200015c:	e13ffd17 	ldw	r4,-12(fp)
 2000160:	200890fa 	slli	r4,r4,3
 2000164:	1105883a 	add	r2,r2,r4
 2000168:	10800104 	addi	r2,r2,4
 200016c:	10800017 	ldw	r2,0(r2)
 2000170:	1009883a 	mov	r4,r2
 2000174:	183ee83a 	callr	r3
 2000178:	0001883a 	nop
 200017c:	0005313a 	rdctl	r2,ipending
 2000180:	e0bfff15 	stw	r2,-4(fp)
 2000184:	e0bfff17 	ldw	r2,-4(fp)
 2000188:	00000706 	br	20001a8 <alt_irq_handler+0xac>
 200018c:	e0bffc17 	ldw	r2,-16(fp)
 2000190:	1085883a 	add	r2,r2,r2
 2000194:	e0bffc15 	stw	r2,-16(fp)
 2000198:	e0bffd17 	ldw	r2,-12(fp)
 200019c:	10800044 	addi	r2,r2,1
 20001a0:	e0bffd15 	stw	r2,-12(fp)
 20001a4:	003fe106 	br	200012c <__reset+0xfdff712c>
 20001a8:	e0bffb15 	stw	r2,-20(fp)
 20001ac:	e0bffb17 	ldw	r2,-20(fp)
 20001b0:	103fdb1e 	bne	r2,zero,2000120 <__reset+0xfdff7120>
 20001b4:	0001883a 	nop
 20001b8:	0001883a 	nop
 20001bc:	e037883a 	mov	sp,fp
 20001c0:	dfc00117 	ldw	ra,4(sp)
 20001c4:	df000017 	ldw	fp,0(sp)
 20001c8:	dec00204 	addi	sp,sp,8
 20001cc:	f800283a 	ret

020001d0 <alt_instruction_exception_entry>:
 20001d0:	defffb04 	addi	sp,sp,-20
 20001d4:	dfc00415 	stw	ra,16(sp)
 20001d8:	df000315 	stw	fp,12(sp)
 20001dc:	df000304 	addi	fp,sp,12
 20001e0:	e13fff15 	stw	r4,-4(fp)
 20001e4:	00bfffc4 	movi	r2,-1
 20001e8:	e0bffd15 	stw	r2,-12(fp)
 20001ec:	e03ffe15 	stw	zero,-8(fp)
 20001f0:	d0a02717 	ldw	r2,-32612(gp)
 20001f4:	10000726 	beq	r2,zero,2000214 <alt_instruction_exception_entry+0x44>
 20001f8:	d0a02717 	ldw	r2,-32612(gp)
 20001fc:	e0fffd17 	ldw	r3,-12(fp)
 2000200:	e1bffe17 	ldw	r6,-8(fp)
 2000204:	e17fff17 	ldw	r5,-4(fp)
 2000208:	1809883a 	mov	r4,r3
 200020c:	103ee83a 	callr	r2
 2000210:	00000206 	br	200021c <alt_instruction_exception_entry+0x4c>
 2000214:	003da03a 	break	0
 2000218:	0005883a 	mov	r2,zero
 200021c:	e037883a 	mov	sp,fp
 2000220:	dfc00117 	ldw	ra,4(sp)
 2000224:	df000017 	ldw	fp,0(sp)
 2000228:	dec00204 	addi	sp,sp,8
 200022c:	f800283a 	ret

Disassembly of section .text:

02000230 <_start>:
 2000230:	06c10034 	movhi	sp,1024
 2000234:	dec00014 	ori	sp,sp,0
 2000238:	068082b4 	movhi	gp,522
 200023c:	d6ba7214 	ori	gp,gp,59848
 2000240:	008082b4 	movhi	r2,522
 2000244:	109a8914 	ori	r2,r2,27172
 2000248:	00c082b4 	movhi	r3,522
 200024c:	18daea14 	ori	r3,r3,27560
 2000250:	10c00326 	beq	r2,r3,2000260 <_start+0x30>
 2000254:	10000015 	stw	zero,0(r2)
 2000258:	10800104 	addi	r2,r2,4
 200025c:	10fffd36 	bltu	r2,r3,2000254 <__reset+0xfdff7254>
 2000260:	20188f80 	call	20188f8 <alt_main>

02000264 <alt_after_alt_main>:
 2000264:	003fff06 	br	2000264 <__reset+0xfdff7264>

02000268 <longDelay>:
 2000268:	defffe04 	addi	sp,sp,-8
 200026c:	df000115 	stw	fp,4(sp)
 2000270:	df000104 	addi	fp,sp,4
 2000274:	e03fff15 	stw	zero,-4(fp)
 2000278:	00000306 	br	2000288 <longDelay+0x20>
 200027c:	e0bfff17 	ldw	r2,-4(fp)
 2000280:	10800044 	addi	r2,r2,1
 2000284:	e0bfff15 	stw	r2,-4(fp)
 2000288:	e0bfff17 	ldw	r2,-4(fp)
 200028c:	1082ee10 	cmplti	r2,r2,3000
 2000290:	103ffa1e 	bne	r2,zero,200027c <__reset+0xfdff727c>
 2000294:	0001883a 	nop
 2000298:	e037883a 	mov	sp,fp
 200029c:	df000017 	ldw	fp,0(sp)
 20002a0:	dec00104 	addi	sp,sp,4
 20002a4:	f800283a 	ret

020002a8 <frame_callback>:
 20002a8:	defffc04 	addi	sp,sp,-16
 20002ac:	dfc00315 	stw	ra,12(sp)
 20002b0:	df000215 	stw	fp,8(sp)
 20002b4:	df000204 	addi	fp,sp,8
 20002b8:	e13fff15 	stw	r4,-4(fp)
 20002bc:	d0a01917 	ldw	r2,-32668(gp)
 20002c0:	e0bffe15 	stw	r2,-8(fp)
 20002c4:	d0a01717 	ldw	r2,-32676(gp)
 20002c8:	1000071e 	bne	r2,zero,20002e8 <frame_callback+0x40>
 20002cc:	d0a01817 	ldw	r2,-32672(gp)
 20002d0:	1004933a 	slli	r2,r2,12
 20002d4:	10800304 	addi	r2,r2,12
 20002d8:	e0fffe17 	ldw	r3,-8(fp)
 20002dc:	1885883a 	add	r2,r3,r2
 20002e0:	1009883a 	mov	r4,r2
 20002e4:	20007240 	call	2000724 <displayBitmap>
 20002e8:	d0a01817 	ldw	r2,-32672(gp)
 20002ec:	10c00044 	addi	r3,r2,1
 20002f0:	e0bffe17 	ldw	r2,-8(fp)
 20002f4:	10800217 	ldw	r2,8(r2)
 20002f8:	100b883a 	mov	r5,r2
 20002fc:	1809883a 	mov	r4,r3
 2000300:	20022ec0 	call	20022ec <__modsi3>
 2000304:	d0a01815 	stw	r2,-32672(gp)
 2000308:	e0bffe17 	ldw	r2,-8(fp)
 200030c:	10800117 	ldw	r2,4(r2)
 2000310:	e037883a 	mov	sp,fp
 2000314:	dfc00117 	ldw	ra,4(sp)
 2000318:	df000017 	ldw	fp,0(sp)
 200031c:	dec00204 	addi	sp,sp,8
 2000320:	f800283a 	ret

02000324 <main>:
 2000324:	defffd04 	addi	sp,sp,-12
 2000328:	dfc00215 	stw	ra,8(sp)
 200032c:	df000115 	stw	fp,4(sp)
 2000330:	df000104 	addi	fp,sp,4
 2000334:	010082b4 	movhi	r4,522
 2000338:	210e8504 	addi	r4,r4,14868
 200033c:	2004eb40 	call	2004eb4 <puts>
 2000340:	200060c0 	call	200060c <delay>
 2000344:	008082b4 	movhi	r2,522
 2000348:	10933f04 	addi	r2,r2,19708
 200034c:	10800117 	ldw	r2,4(r2)
 2000350:	d0a01915 	stw	r2,-32668(gp)
 2000354:	0007883a 	mov	r3,zero
 2000358:	00810074 	movhi	r2,1025
 200035c:	10a81804 	addi	r2,r2,-24480
 2000360:	10c00035 	stwio	r3,0(r2)
 2000364:	000f883a 	mov	r7,zero
 2000368:	01808034 	movhi	r6,512
 200036c:	3180aa04 	addi	r6,r6,680
 2000370:	0140fa04 	movi	r5,1000
 2000374:	010082b4 	movhi	r4,522
 2000378:	211a9a04 	addi	r4,r4,27240
 200037c:	20183980 	call	2018398 <alt_alarm_start>
 2000380:	008082b4 	movhi	r2,522
 2000384:	10936004 	addi	r2,r2,19840
 2000388:	10800017 	ldw	r2,0(r2)
 200038c:	d0a01915 	stw	r2,-32668(gp)
 2000390:	20004ac0 	call	20004ac <printMenu>
 2000394:	e17fff04 	addi	r5,fp,-4
 2000398:	010082b4 	movhi	r4,522
 200039c:	210e8b04 	addi	r4,r4,14892
 20003a0:	2004f1c0 	call	2004f1c <scanf>
 20003a4:	e0bfff17 	ldw	r2,-4(fp)
 20003a8:	100b883a 	mov	r5,r2
 20003ac:	010082b4 	movhi	r4,522
 20003b0:	210e8b04 	addi	r4,r4,14892
 20003b4:	2004db80 	call	2004db8 <printf>
 20003b8:	d0a00417 	ldw	r2,-32752(gp)
 20003bc:	10800117 	ldw	r2,4(r2)
 20003c0:	1009883a 	mov	r4,r2
 20003c4:	2003ab80 	call	2003ab8 <fflush>
 20003c8:	e0bfff17 	ldw	r2,-4(fp)
 20003cc:	10800058 	cmpnei	r2,r2,1
 20003d0:	1000041e 	bne	r2,zero,20003e4 <main+0xc0>
 20003d4:	200054c0 	call	200054c <animationsMenu>
 20003d8:	d0201715 	stw	zero,-32676(gp)
 20003dc:	20004ac0 	call	20004ac <printMenu>
 20003e0:	003fec06 	br	2000394 <__reset+0xfdff7394>
 20003e4:	e0bfff17 	ldw	r2,-4(fp)
 20003e8:	10800098 	cmpnei	r2,r2,2
 20003ec:	1000051e 	bne	r2,zero,2000404 <main+0xe0>
 20003f0:	00800044 	movi	r2,1
 20003f4:	d0a01715 	stw	r2,-32676(gp)
 20003f8:	20006480 	call	2000648 <blank>
 20003fc:	20004ac0 	call	20004ac <printMenu>
 2000400:	003fe406 	br	2000394 <__reset+0xfdff7394>
 2000404:	e0bfff17 	ldw	r2,-4(fp)
 2000408:	108000d8 	cmpnei	r2,r2,3
 200040c:	1000051e 	bne	r2,zero,2000424 <main+0x100>
 2000410:	00800044 	movi	r2,1
 2000414:	d0a01715 	stw	r2,-32676(gp)
 2000418:	20008700 	call	2000870 <displayColourBars>
 200041c:	20004ac0 	call	20004ac <printMenu>
 2000420:	003fdc06 	br	2000394 <__reset+0xfdff7394>
 2000424:	e0bfff17 	ldw	r2,-4(fp)
 2000428:	10800118 	cmpnei	r2,r2,4
 200042c:	1000051e 	bne	r2,zero,2000444 <main+0x120>
 2000430:	00800044 	movi	r2,1
 2000434:	d0a01715 	stw	r2,-32676(gp)
 2000438:	20010680 	call	2001068 <displayCIEColourBars>
 200043c:	20004ac0 	call	20004ac <printMenu>
 2000440:	003fd406 	br	2000394 <__reset+0xfdff7394>
 2000444:	e0bfff17 	ldw	r2,-4(fp)
 2000448:	10800158 	cmpnei	r2,r2,5
 200044c:	1000051e 	bne	r2,zero,2000464 <main+0x140>
 2000450:	00800044 	movi	r2,1
 2000454:	d0a01715 	stw	r2,-32676(gp)
 2000458:	20014e80 	call	20014e8 <displayGamma149ColourBars>
 200045c:	20004ac0 	call	20004ac <printMenu>
 2000460:	003fcc06 	br	2000394 <__reset+0xfdff7394>
 2000464:	e0bfff17 	ldw	r2,-4(fp)
 2000468:	10800198 	cmpnei	r2,r2,6
 200046c:	1000051e 	bne	r2,zero,2000484 <main+0x160>
 2000470:	00800044 	movi	r2,1
 2000474:	d0a01715 	stw	r2,-32676(gp)
 2000478:	20019680 	call	2001968 <displayGamma98ColourBars>
 200047c:	20004ac0 	call	20004ac <printMenu>
 2000480:	003fc406 	br	2000394 <__reset+0xfdff7394>
 2000484:	e0bfff17 	ldw	r2,-4(fp)
 2000488:	108001d8 	cmpnei	r2,r2,7
 200048c:	1000051e 	bne	r2,zero,20004a4 <main+0x180>
 2000490:	00800044 	movi	r2,1
 2000494:	d0a01715 	stw	r2,-32676(gp)
 2000498:	2001de80 	call	2001de8 <displayGamma46ColourBars>
 200049c:	20004ac0 	call	20004ac <printMenu>
 20004a0:	003fbc06 	br	2000394 <__reset+0xfdff7394>
 20004a4:	20004ac0 	call	20004ac <printMenu>
 20004a8:	003fba06 	br	2000394 <__reset+0xfdff7394>

020004ac <printMenu>:
 20004ac:	defffe04 	addi	sp,sp,-8
 20004b0:	dfc00115 	stw	ra,4(sp)
 20004b4:	df000015 	stw	fp,0(sp)
 20004b8:	d839883a 	mov	fp,sp
 20004bc:	010082b4 	movhi	r4,522
 20004c0:	210e8c04 	addi	r4,r4,14896
 20004c4:	2004eb40 	call	2004eb4 <puts>
 20004c8:	010082b4 	movhi	r4,522
 20004cc:	210e9004 	addi	r4,r4,14912
 20004d0:	2004eb40 	call	2004eb4 <puts>
 20004d4:	010082b4 	movhi	r4,522
 20004d8:	210e9404 	addi	r4,r4,14928
 20004dc:	2004eb40 	call	2004eb4 <puts>
 20004e0:	010082b4 	movhi	r4,522
 20004e4:	210e9904 	addi	r4,r4,14948
 20004e8:	2004eb40 	call	2004eb4 <puts>
 20004ec:	010082b4 	movhi	r4,522
 20004f0:	210e9e04 	addi	r4,r4,14968
 20004f4:	2004eb40 	call	2004eb4 <puts>
 20004f8:	010082b4 	movhi	r4,522
 20004fc:	210ea704 	addi	r4,r4,15004
 2000500:	2004eb40 	call	2004eb4 <puts>
 2000504:	010082b4 	movhi	r4,522
 2000508:	210eb304 	addi	r4,r4,15052
 200050c:	2004eb40 	call	2004eb4 <puts>
 2000510:	010082b4 	movhi	r4,522
 2000514:	210ec004 	addi	r4,r4,15104
 2000518:	2004eb40 	call	2004eb4 <puts>
 200051c:	010082b4 	movhi	r4,522
 2000520:	210ecd04 	addi	r4,r4,15156
 2000524:	2004eb40 	call	2004eb4 <puts>
 2000528:	010082b4 	movhi	r4,522
 200052c:	210eda04 	addi	r4,r4,15208
 2000530:	2004db80 	call	2004db8 <printf>
 2000534:	0001883a 	nop
 2000538:	e037883a 	mov	sp,fp
 200053c:	dfc00117 	ldw	ra,4(sp)
 2000540:	df000017 	ldw	fp,0(sp)
 2000544:	dec00204 	addi	sp,sp,8
 2000548:	f800283a 	ret

0200054c <animationsMenu>:
 200054c:	defffd04 	addi	sp,sp,-12
 2000550:	dfc00215 	stw	ra,8(sp)
 2000554:	df000115 	stw	fp,4(sp)
 2000558:	df000104 	addi	fp,sp,4
 200055c:	e03fff15 	stw	zero,-4(fp)
 2000560:	00001106 	br	20005a8 <animationsMenu+0x5c>
 2000564:	e13fff17 	ldw	r4,-4(fp)
 2000568:	e0ffff17 	ldw	r3,-4(fp)
 200056c:	008082b4 	movhi	r2,522
 2000570:	10933f04 	addi	r2,r2,19708
 2000574:	18c7883a 	add	r3,r3,r3
 2000578:	18c7883a 	add	r3,r3,r3
 200057c:	10c5883a 	add	r2,r2,r3
 2000580:	10800017 	ldw	r2,0(r2)
 2000584:	10800017 	ldw	r2,0(r2)
 2000588:	100d883a 	mov	r6,r2
 200058c:	200b883a 	mov	r5,r4
 2000590:	010082b4 	movhi	r4,522
 2000594:	210edf04 	addi	r4,r4,15228
 2000598:	2004db80 	call	2004db8 <printf>
 200059c:	e0bfff17 	ldw	r2,-4(fp)
 20005a0:	10800044 	addi	r2,r2,1
 20005a4:	e0bfff15 	stw	r2,-4(fp)
 20005a8:	e0ffff17 	ldw	r3,-4(fp)
 20005ac:	00800844 	movi	r2,33
 20005b0:	18bfec16 	blt	r3,r2,2000564 <__reset+0xfdff7564>
 20005b4:	e17fff04 	addi	r5,fp,-4
 20005b8:	010082b4 	movhi	r4,522
 20005bc:	210e8b04 	addi	r4,r4,14892
 20005c0:	2004f1c0 	call	2004f1c <scanf>
 20005c4:	d0a00417 	ldw	r2,-32752(gp)
 20005c8:	10800117 	ldw	r2,4(r2)
 20005cc:	1009883a 	mov	r4,r2
 20005d0:	2003ab80 	call	2003ab8 <fflush>
 20005d4:	e0ffff17 	ldw	r3,-4(fp)
 20005d8:	008082b4 	movhi	r2,522
 20005dc:	10933f04 	addi	r2,r2,19708
 20005e0:	18c7883a 	add	r3,r3,r3
 20005e4:	18c7883a 	add	r3,r3,r3
 20005e8:	10c5883a 	add	r2,r2,r3
 20005ec:	10800017 	ldw	r2,0(r2)
 20005f0:	d0a01915 	stw	r2,-32668(gp)
 20005f4:	0001883a 	nop
 20005f8:	e037883a 	mov	sp,fp
 20005fc:	dfc00117 	ldw	ra,4(sp)
 2000600:	df000017 	ldw	fp,0(sp)
 2000604:	dec00204 	addi	sp,sp,8
 2000608:	f800283a 	ret

0200060c <delay>:
 200060c:	defffe04 	addi	sp,sp,-8
 2000610:	df000115 	stw	fp,4(sp)
 2000614:	df000104 	addi	fp,sp,4
 2000618:	e03fff15 	stw	zero,-4(fp)
 200061c:	00000306 	br	200062c <delay+0x20>
 2000620:	e0bfff17 	ldw	r2,-4(fp)
 2000624:	10800044 	addi	r2,r2,1
 2000628:	e0bfff15 	stw	r2,-4(fp)
 200062c:	e0bfff17 	ldw	r2,-4(fp)
 2000630:	00bffb0e 	bge	zero,r2,2000620 <__reset+0xfdff7620>
 2000634:	0001883a 	nop
 2000638:	e037883a 	mov	sp,fp
 200063c:	df000017 	ldw	fp,0(sp)
 2000640:	dec00104 	addi	sp,sp,4
 2000644:	f800283a 	ret

02000648 <blank>:
 2000648:	defffb04 	addi	sp,sp,-20
 200064c:	dfc00415 	stw	ra,16(sp)
 2000650:	df000315 	stw	fp,12(sp)
 2000654:	df000304 	addi	fp,sp,12
 2000658:	e03ffd15 	stw	zero,-12(fp)
 200065c:	00002806 	br	2000700 <blank+0xb8>
 2000660:	e03ffe15 	stw	zero,-8(fp)
 2000664:	00002006 	br	20006e8 <blank+0xa0>
 2000668:	00810004 	movi	r2,1024
 200066c:	e0bfff15 	stw	r2,-4(fp)
 2000670:	e0bffd17 	ldw	r2,-12(fp)
 2000674:	1004917a 	slli	r2,r2,5
 2000678:	e0ffff17 	ldw	r3,-4(fp)
 200067c:	1885883a 	add	r2,r3,r2
 2000680:	e0bfff15 	stw	r2,-4(fp)
 2000684:	e0ffff17 	ldw	r3,-4(fp)
 2000688:	e0bffe17 	ldw	r2,-8(fp)
 200068c:	1885883a 	add	r2,r3,r2
 2000690:	e0bfff15 	stw	r2,-4(fp)
 2000694:	00810074 	movhi	r2,1025
 2000698:	10a82004 	addi	r2,r2,-24448
 200069c:	e0ffff17 	ldw	r3,-4(fp)
 20006a0:	10c00035 	stwio	r3,0(r2)
 20006a4:	0007883a 	mov	r3,zero
 20006a8:	00810074 	movhi	r2,1025
 20006ac:	10a81c04 	addi	r2,r2,-24464
 20006b0:	10c00035 	stwio	r3,0(r2)
 20006b4:	200060c0 	call	200060c <delay>
 20006b8:	00c00044 	movi	r3,1
 20006bc:	00810074 	movhi	r2,1025
 20006c0:	10a81804 	addi	r2,r2,-24480
 20006c4:	10c00035 	stwio	r3,0(r2)
 20006c8:	200060c0 	call	200060c <delay>
 20006cc:	0007883a 	mov	r3,zero
 20006d0:	00810074 	movhi	r2,1025
 20006d4:	10a81804 	addi	r2,r2,-24480
 20006d8:	10c00035 	stwio	r3,0(r2)
 20006dc:	e0bffe17 	ldw	r2,-8(fp)
 20006e0:	10800044 	addi	r2,r2,1
 20006e4:	e0bffe15 	stw	r2,-8(fp)
 20006e8:	e0bffe17 	ldw	r2,-8(fp)
 20006ec:	10800810 	cmplti	r2,r2,32
 20006f0:	103fdd1e 	bne	r2,zero,2000668 <__reset+0xfdff7668>
 20006f4:	e0bffd17 	ldw	r2,-12(fp)
 20006f8:	10800044 	addi	r2,r2,1
 20006fc:	e0bffd15 	stw	r2,-12(fp)
 2000700:	e0bffd17 	ldw	r2,-12(fp)
 2000704:	10800810 	cmplti	r2,r2,32
 2000708:	103fd51e 	bne	r2,zero,2000660 <__reset+0xfdff7660>
 200070c:	0001883a 	nop
 2000710:	e037883a 	mov	sp,fp
 2000714:	dfc00117 	ldw	ra,4(sp)
 2000718:	df000017 	ldw	fp,0(sp)
 200071c:	dec00204 	addi	sp,sp,8
 2000720:	f800283a 	ret

02000724 <displayBitmap>:
 2000724:	defff804 	addi	sp,sp,-32
 2000728:	df000715 	stw	fp,28(sp)
 200072c:	df000704 	addi	fp,sp,28
 2000730:	e13fff15 	stw	r4,-4(fp)
 2000734:	e03ff915 	stw	zero,-28(fp)
 2000738:	00004506 	br	2000850 <displayBitmap+0x12c>
 200073c:	e0bff917 	ldw	r2,-28(fp)
 2000740:	10810004 	addi	r2,r2,1024
 2000744:	e0bffa15 	stw	r2,-24(fp)
 2000748:	e0bff917 	ldw	r2,-28(fp)
 200074c:	1085883a 	add	r2,r2,r2
 2000750:	1085883a 	add	r2,r2,r2
 2000754:	1007883a 	mov	r3,r2
 2000758:	e0bfff17 	ldw	r2,-4(fp)
 200075c:	10c5883a 	add	r2,r2,r3
 2000760:	10800017 	ldw	r2,0(r2)
 2000764:	e0bffb15 	stw	r2,-20(fp)
 2000768:	e0bffb17 	ldw	r2,-20(fp)
 200076c:	1004d43a 	srli	r2,r2,16
 2000770:	10c03fcc 	andi	r3,r2,255
 2000774:	008082b4 	movhi	r2,522
 2000778:	1090e104 	addi	r2,r2,17284
 200077c:	18c7883a 	add	r3,r3,r3
 2000780:	10c5883a 	add	r2,r2,r3
 2000784:	1080000b 	ldhu	r2,0(r2)
 2000788:	e0bffc0d 	sth	r2,-16(fp)
 200078c:	e0bffb17 	ldw	r2,-20(fp)
 2000790:	1004d23a 	srli	r2,r2,8
 2000794:	10c03fcc 	andi	r3,r2,255
 2000798:	008082b4 	movhi	r2,522
 200079c:	1090e104 	addi	r2,r2,17284
 20007a0:	18c7883a 	add	r3,r3,r3
 20007a4:	10c5883a 	add	r2,r2,r3
 20007a8:	1080000b 	ldhu	r2,0(r2)
 20007ac:	e0bffc8d 	sth	r2,-14(fp)
 20007b0:	e0bffb17 	ldw	r2,-20(fp)
 20007b4:	10c03fcc 	andi	r3,r2,255
 20007b8:	008082b4 	movhi	r2,522
 20007bc:	1090e104 	addi	r2,r2,17284
 20007c0:	18c7883a 	add	r3,r3,r3
 20007c4:	10c5883a 	add	r2,r2,r3
 20007c8:	1080000b 	ldhu	r2,0(r2)
 20007cc:	e0bffd0d 	sth	r2,-12(fp)
 20007d0:	e0bffd0b 	ldhu	r2,-12(fp)
 20007d4:	1004953a 	slli	r2,r2,20
 20007d8:	10cffc2c 	andhi	r3,r2,16368
 20007dc:	e0bffc8b 	ldhu	r2,-14(fp)
 20007e0:	100892ba 	slli	r4,r2,10
 20007e4:	00800434 	movhi	r2,16
 20007e8:	10bf0004 	addi	r2,r2,-1024
 20007ec:	2084703a 	and	r2,r4,r2
 20007f0:	1886b03a 	or	r3,r3,r2
 20007f4:	e0bffc0b 	ldhu	r2,-16(fp)
 20007f8:	1080ffcc 	andi	r2,r2,1023
 20007fc:	1884b03a 	or	r2,r3,r2
 2000800:	e0bffe15 	stw	r2,-8(fp)
 2000804:	00810074 	movhi	r2,1025
 2000808:	10a82004 	addi	r2,r2,-24448
 200080c:	e0fffa17 	ldw	r3,-24(fp)
 2000810:	10c00035 	stwio	r3,0(r2)
 2000814:	e0fffe17 	ldw	r3,-8(fp)
 2000818:	00810074 	movhi	r2,1025
 200081c:	10a81c04 	addi	r2,r2,-24464
 2000820:	10c00035 	stwio	r3,0(r2)
 2000824:	00c00044 	movi	r3,1
 2000828:	00810074 	movhi	r2,1025
 200082c:	10a81804 	addi	r2,r2,-24480
 2000830:	10c00035 	stwio	r3,0(r2)
 2000834:	0007883a 	mov	r3,zero
 2000838:	00810074 	movhi	r2,1025
 200083c:	10a81804 	addi	r2,r2,-24480
 2000840:	10c00035 	stwio	r3,0(r2)
 2000844:	e0bff917 	ldw	r2,-28(fp)
 2000848:	10800044 	addi	r2,r2,1
 200084c:	e0bff915 	stw	r2,-28(fp)
 2000850:	e0bff917 	ldw	r2,-28(fp)
 2000854:	10810010 	cmplti	r2,r2,1024
 2000858:	103fb81e 	bne	r2,zero,200073c <__reset+0xfdff773c>
 200085c:	0001883a 	nop
 2000860:	e037883a 	mov	sp,fp
 2000864:	df000017 	ldw	fp,0(sp)
 2000868:	dec00104 	addi	sp,sp,4
 200086c:	f800283a 	ret

02000870 <displayColourBars>:
 2000870:	defff804 	addi	sp,sp,-32
 2000874:	dfc00715 	stw	ra,28(sp)
 2000878:	df000615 	stw	fp,24(sp)
 200087c:	df000604 	addi	fp,sp,24
 2000880:	e03ffa15 	stw	zero,-24(fp)
 2000884:	0001ef06 	br	2001044 <displayColourBars+0x7d4>
 2000888:	e03ffb15 	stw	zero,-20(fp)
 200088c:	0001e706 	br	200102c <displayColourBars+0x7bc>
 2000890:	00810004 	movi	r2,1024
 2000894:	e0bffe15 	stw	r2,-8(fp)
 2000898:	e0bffa17 	ldw	r2,-24(fp)
 200089c:	1004917a 	slli	r2,r2,5
 20008a0:	e0fffe17 	ldw	r3,-8(fp)
 20008a4:	1885883a 	add	r2,r3,r2
 20008a8:	e0bffe15 	stw	r2,-8(fp)
 20008ac:	e0fffe17 	ldw	r3,-8(fp)
 20008b0:	e0bffb17 	ldw	r2,-20(fp)
 20008b4:	1885883a 	add	r2,r3,r2
 20008b8:	e0bffe15 	stw	r2,-8(fp)
 20008bc:	e0bffa17 	ldw	r2,-24(fp)
 20008c0:	10800108 	cmpgei	r2,r2,4
 20008c4:	1000241e 	bne	r2,zero,2000958 <displayColourBars+0xe8>
 20008c8:	e13ffb17 	ldw	r4,-20(fp)
 20008cc:	20036d80 	call	20036d8 <__floatsidf>
 20008d0:	1011883a 	mov	r8,r2
 20008d4:	1813883a 	mov	r9,r3
 20008d8:	000d883a 	mov	r6,zero
 20008dc:	01d00ff4 	movhi	r7,16447
 20008e0:	4009883a 	mov	r4,r8
 20008e4:	480b883a 	mov	r5,r9
 20008e8:	200241c0 	call	200241c <__divdf3>
 20008ec:	1009883a 	mov	r4,r2
 20008f0:	180b883a 	mov	r5,r3
 20008f4:	2005883a 	mov	r2,r4
 20008f8:	2807883a 	mov	r3,r5
 20008fc:	000d883a 	mov	r6,zero
 2000900:	01d01c34 	movhi	r7,16496
 2000904:	39f80004 	addi	r7,r7,-8192
 2000908:	1009883a 	mov	r4,r2
 200090c:	180b883a 	mov	r5,r3
 2000910:	2002dec0 	call	2002dec <__muldf3>
 2000914:	1009883a 	mov	r4,r2
 2000918:	180b883a 	mov	r5,r3
 200091c:	2005883a 	mov	r2,r4
 2000920:	2807883a 	mov	r3,r5
 2000924:	1009883a 	mov	r4,r2
 2000928:	180b883a 	mov	r5,r3
 200092c:	20036580 	call	2003658 <__fixdfsi>
 2000930:	1007883a 	mov	r3,r2
 2000934:	008082b4 	movhi	r2,522
 2000938:	108ee104 	addi	r2,r2,15236
 200093c:	18c7883a 	add	r3,r3,r3
 2000940:	10c5883a 	add	r2,r2,r3
 2000944:	1080000b 	ldhu	r2,0(r2)
 2000948:	e0bffc0d 	sth	r2,-16(fp)
 200094c:	e03ffc8d 	sth	zero,-14(fp)
 2000950:	e03ffd0d 	sth	zero,-12(fp)
 2000954:	00019506 	br	2000fac <displayColourBars+0x73c>
 2000958:	e0bffa17 	ldw	r2,-24(fp)
 200095c:	10800110 	cmplti	r2,r2,4
 2000960:	1000471e 	bne	r2,zero,2000a80 <displayColourBars+0x210>
 2000964:	e0bffa17 	ldw	r2,-24(fp)
 2000968:	10800208 	cmpgei	r2,r2,8
 200096c:	1000441e 	bne	r2,zero,2000a80 <displayColourBars+0x210>
 2000970:	e13ffb17 	ldw	r4,-20(fp)
 2000974:	20036d80 	call	20036d8 <__floatsidf>
 2000978:	1011883a 	mov	r8,r2
 200097c:	1813883a 	mov	r9,r3
 2000980:	000d883a 	mov	r6,zero
 2000984:	01d00ff4 	movhi	r7,16447
 2000988:	4009883a 	mov	r4,r8
 200098c:	480b883a 	mov	r5,r9
 2000990:	200241c0 	call	200241c <__divdf3>
 2000994:	1009883a 	mov	r4,r2
 2000998:	180b883a 	mov	r5,r3
 200099c:	2005883a 	mov	r2,r4
 20009a0:	2807883a 	mov	r3,r5
 20009a4:	000d883a 	mov	r6,zero
 20009a8:	01d01c34 	movhi	r7,16496
 20009ac:	39f80004 	addi	r7,r7,-8192
 20009b0:	1009883a 	mov	r4,r2
 20009b4:	180b883a 	mov	r5,r3
 20009b8:	2002dec0 	call	2002dec <__muldf3>
 20009bc:	1009883a 	mov	r4,r2
 20009c0:	180b883a 	mov	r5,r3
 20009c4:	2005883a 	mov	r2,r4
 20009c8:	2807883a 	mov	r3,r5
 20009cc:	1009883a 	mov	r4,r2
 20009d0:	180b883a 	mov	r5,r3
 20009d4:	20036580 	call	2003658 <__fixdfsi>
 20009d8:	1007883a 	mov	r3,r2
 20009dc:	008082b4 	movhi	r2,522
 20009e0:	108ee104 	addi	r2,r2,15236
 20009e4:	18c7883a 	add	r3,r3,r3
 20009e8:	10c5883a 	add	r2,r2,r3
 20009ec:	1080000b 	ldhu	r2,0(r2)
 20009f0:	e0bffc0d 	sth	r2,-16(fp)
 20009f4:	e13ffb17 	ldw	r4,-20(fp)
 20009f8:	20036d80 	call	20036d8 <__floatsidf>
 20009fc:	1011883a 	mov	r8,r2
 2000a00:	1813883a 	mov	r9,r3
 2000a04:	000d883a 	mov	r6,zero
 2000a08:	01d00ff4 	movhi	r7,16447
 2000a0c:	4009883a 	mov	r4,r8
 2000a10:	480b883a 	mov	r5,r9
 2000a14:	200241c0 	call	200241c <__divdf3>
 2000a18:	1009883a 	mov	r4,r2
 2000a1c:	180b883a 	mov	r5,r3
 2000a20:	2005883a 	mov	r2,r4
 2000a24:	2807883a 	mov	r3,r5
 2000a28:	000d883a 	mov	r6,zero
 2000a2c:	01d01c34 	movhi	r7,16496
 2000a30:	39f80004 	addi	r7,r7,-8192
 2000a34:	1009883a 	mov	r4,r2
 2000a38:	180b883a 	mov	r5,r3
 2000a3c:	2002dec0 	call	2002dec <__muldf3>
 2000a40:	1009883a 	mov	r4,r2
 2000a44:	180b883a 	mov	r5,r3
 2000a48:	2005883a 	mov	r2,r4
 2000a4c:	2807883a 	mov	r3,r5
 2000a50:	1009883a 	mov	r4,r2
 2000a54:	180b883a 	mov	r5,r3
 2000a58:	20036580 	call	2003658 <__fixdfsi>
 2000a5c:	1007883a 	mov	r3,r2
 2000a60:	008082b4 	movhi	r2,522
 2000a64:	108ee104 	addi	r2,r2,15236
 2000a68:	18c7883a 	add	r3,r3,r3
 2000a6c:	10c5883a 	add	r2,r2,r3
 2000a70:	1080000b 	ldhu	r2,0(r2)
 2000a74:	e0bffc8d 	sth	r2,-14(fp)
 2000a78:	e03ffd0d 	sth	zero,-12(fp)
 2000a7c:	00014b06 	br	2000fac <displayColourBars+0x73c>
 2000a80:	e0bffa17 	ldw	r2,-24(fp)
 2000a84:	10800210 	cmplti	r2,r2,8
 2000a88:	1000271e 	bne	r2,zero,2000b28 <displayColourBars+0x2b8>
 2000a8c:	e0bffa17 	ldw	r2,-24(fp)
 2000a90:	10800308 	cmpgei	r2,r2,12
 2000a94:	1000241e 	bne	r2,zero,2000b28 <displayColourBars+0x2b8>
 2000a98:	e03ffc0d 	sth	zero,-16(fp)
 2000a9c:	e13ffb17 	ldw	r4,-20(fp)
 2000aa0:	20036d80 	call	20036d8 <__floatsidf>
 2000aa4:	1011883a 	mov	r8,r2
 2000aa8:	1813883a 	mov	r9,r3
 2000aac:	000d883a 	mov	r6,zero
 2000ab0:	01d00ff4 	movhi	r7,16447
 2000ab4:	4009883a 	mov	r4,r8
 2000ab8:	480b883a 	mov	r5,r9
 2000abc:	200241c0 	call	200241c <__divdf3>
 2000ac0:	1009883a 	mov	r4,r2
 2000ac4:	180b883a 	mov	r5,r3
 2000ac8:	2005883a 	mov	r2,r4
 2000acc:	2807883a 	mov	r3,r5
 2000ad0:	000d883a 	mov	r6,zero
 2000ad4:	01d01c34 	movhi	r7,16496
 2000ad8:	39f80004 	addi	r7,r7,-8192
 2000adc:	1009883a 	mov	r4,r2
 2000ae0:	180b883a 	mov	r5,r3
 2000ae4:	2002dec0 	call	2002dec <__muldf3>
 2000ae8:	1009883a 	mov	r4,r2
 2000aec:	180b883a 	mov	r5,r3
 2000af0:	2005883a 	mov	r2,r4
 2000af4:	2807883a 	mov	r3,r5
 2000af8:	1009883a 	mov	r4,r2
 2000afc:	180b883a 	mov	r5,r3
 2000b00:	20036580 	call	2003658 <__fixdfsi>
 2000b04:	1007883a 	mov	r3,r2
 2000b08:	008082b4 	movhi	r2,522
 2000b0c:	108ee104 	addi	r2,r2,15236
 2000b10:	18c7883a 	add	r3,r3,r3
 2000b14:	10c5883a 	add	r2,r2,r3
 2000b18:	1080000b 	ldhu	r2,0(r2)
 2000b1c:	e0bffc8d 	sth	r2,-14(fp)
 2000b20:	e03ffd0d 	sth	zero,-12(fp)
 2000b24:	00012106 	br	2000fac <displayColourBars+0x73c>
 2000b28:	e0bffa17 	ldw	r2,-24(fp)
 2000b2c:	10800310 	cmplti	r2,r2,12
 2000b30:	1000471e 	bne	r2,zero,2000c50 <displayColourBars+0x3e0>
 2000b34:	e0bffa17 	ldw	r2,-24(fp)
 2000b38:	10800408 	cmpgei	r2,r2,16
 2000b3c:	1000441e 	bne	r2,zero,2000c50 <displayColourBars+0x3e0>
 2000b40:	e03ffc0d 	sth	zero,-16(fp)
 2000b44:	e13ffb17 	ldw	r4,-20(fp)
 2000b48:	20036d80 	call	20036d8 <__floatsidf>
 2000b4c:	1011883a 	mov	r8,r2
 2000b50:	1813883a 	mov	r9,r3
 2000b54:	000d883a 	mov	r6,zero
 2000b58:	01d00ff4 	movhi	r7,16447
 2000b5c:	4009883a 	mov	r4,r8
 2000b60:	480b883a 	mov	r5,r9
 2000b64:	200241c0 	call	200241c <__divdf3>
 2000b68:	1009883a 	mov	r4,r2
 2000b6c:	180b883a 	mov	r5,r3
 2000b70:	2005883a 	mov	r2,r4
 2000b74:	2807883a 	mov	r3,r5
 2000b78:	000d883a 	mov	r6,zero
 2000b7c:	01d01c34 	movhi	r7,16496
 2000b80:	39f80004 	addi	r7,r7,-8192
 2000b84:	1009883a 	mov	r4,r2
 2000b88:	180b883a 	mov	r5,r3
 2000b8c:	2002dec0 	call	2002dec <__muldf3>
 2000b90:	1009883a 	mov	r4,r2
 2000b94:	180b883a 	mov	r5,r3
 2000b98:	2005883a 	mov	r2,r4
 2000b9c:	2807883a 	mov	r3,r5
 2000ba0:	1009883a 	mov	r4,r2
 2000ba4:	180b883a 	mov	r5,r3
 2000ba8:	20036580 	call	2003658 <__fixdfsi>
 2000bac:	1007883a 	mov	r3,r2
 2000bb0:	008082b4 	movhi	r2,522
 2000bb4:	108ee104 	addi	r2,r2,15236
 2000bb8:	18c7883a 	add	r3,r3,r3
 2000bbc:	10c5883a 	add	r2,r2,r3
 2000bc0:	1080000b 	ldhu	r2,0(r2)
 2000bc4:	e0bffc8d 	sth	r2,-14(fp)
 2000bc8:	e13ffb17 	ldw	r4,-20(fp)
 2000bcc:	20036d80 	call	20036d8 <__floatsidf>
 2000bd0:	1011883a 	mov	r8,r2
 2000bd4:	1813883a 	mov	r9,r3
 2000bd8:	000d883a 	mov	r6,zero
 2000bdc:	01d00ff4 	movhi	r7,16447
 2000be0:	4009883a 	mov	r4,r8
 2000be4:	480b883a 	mov	r5,r9
 2000be8:	200241c0 	call	200241c <__divdf3>
 2000bec:	1009883a 	mov	r4,r2
 2000bf0:	180b883a 	mov	r5,r3
 2000bf4:	2005883a 	mov	r2,r4
 2000bf8:	2807883a 	mov	r3,r5
 2000bfc:	000d883a 	mov	r6,zero
 2000c00:	01d01c34 	movhi	r7,16496
 2000c04:	39f80004 	addi	r7,r7,-8192
 2000c08:	1009883a 	mov	r4,r2
 2000c0c:	180b883a 	mov	r5,r3
 2000c10:	2002dec0 	call	2002dec <__muldf3>
 2000c14:	1009883a 	mov	r4,r2
 2000c18:	180b883a 	mov	r5,r3
 2000c1c:	2005883a 	mov	r2,r4
 2000c20:	2807883a 	mov	r3,r5
 2000c24:	1009883a 	mov	r4,r2
 2000c28:	180b883a 	mov	r5,r3
 2000c2c:	20036580 	call	2003658 <__fixdfsi>
 2000c30:	1007883a 	mov	r3,r2
 2000c34:	008082b4 	movhi	r2,522
 2000c38:	108ee104 	addi	r2,r2,15236
 2000c3c:	18c7883a 	add	r3,r3,r3
 2000c40:	10c5883a 	add	r2,r2,r3
 2000c44:	1080000b 	ldhu	r2,0(r2)
 2000c48:	e0bffd0d 	sth	r2,-12(fp)
 2000c4c:	0000d706 	br	2000fac <displayColourBars+0x73c>
 2000c50:	e0bffa17 	ldw	r2,-24(fp)
 2000c54:	10800410 	cmplti	r2,r2,16
 2000c58:	1000271e 	bne	r2,zero,2000cf8 <displayColourBars+0x488>
 2000c5c:	e0bffa17 	ldw	r2,-24(fp)
 2000c60:	10800508 	cmpgei	r2,r2,20
 2000c64:	1000241e 	bne	r2,zero,2000cf8 <displayColourBars+0x488>
 2000c68:	e03ffc0d 	sth	zero,-16(fp)
 2000c6c:	e03ffc8d 	sth	zero,-14(fp)
 2000c70:	e13ffb17 	ldw	r4,-20(fp)
 2000c74:	20036d80 	call	20036d8 <__floatsidf>
 2000c78:	1011883a 	mov	r8,r2
 2000c7c:	1813883a 	mov	r9,r3
 2000c80:	000d883a 	mov	r6,zero
 2000c84:	01d00ff4 	movhi	r7,16447
 2000c88:	4009883a 	mov	r4,r8
 2000c8c:	480b883a 	mov	r5,r9
 2000c90:	200241c0 	call	200241c <__divdf3>
 2000c94:	1009883a 	mov	r4,r2
 2000c98:	180b883a 	mov	r5,r3
 2000c9c:	2005883a 	mov	r2,r4
 2000ca0:	2807883a 	mov	r3,r5
 2000ca4:	000d883a 	mov	r6,zero
 2000ca8:	01d01c34 	movhi	r7,16496
 2000cac:	39f80004 	addi	r7,r7,-8192
 2000cb0:	1009883a 	mov	r4,r2
 2000cb4:	180b883a 	mov	r5,r3
 2000cb8:	2002dec0 	call	2002dec <__muldf3>
 2000cbc:	1009883a 	mov	r4,r2
 2000cc0:	180b883a 	mov	r5,r3
 2000cc4:	2005883a 	mov	r2,r4
 2000cc8:	2807883a 	mov	r3,r5
 2000ccc:	1009883a 	mov	r4,r2
 2000cd0:	180b883a 	mov	r5,r3
 2000cd4:	20036580 	call	2003658 <__fixdfsi>
 2000cd8:	1007883a 	mov	r3,r2
 2000cdc:	008082b4 	movhi	r2,522
 2000ce0:	108ee104 	addi	r2,r2,15236
 2000ce4:	18c7883a 	add	r3,r3,r3
 2000ce8:	10c5883a 	add	r2,r2,r3
 2000cec:	1080000b 	ldhu	r2,0(r2)
 2000cf0:	e0bffd0d 	sth	r2,-12(fp)
 2000cf4:	0000ad06 	br	2000fac <displayColourBars+0x73c>
 2000cf8:	e0bffa17 	ldw	r2,-24(fp)
 2000cfc:	10800510 	cmplti	r2,r2,20
 2000d00:	1000471e 	bne	r2,zero,2000e20 <displayColourBars+0x5b0>
 2000d04:	e0bffa17 	ldw	r2,-24(fp)
 2000d08:	10800608 	cmpgei	r2,r2,24
 2000d0c:	1000441e 	bne	r2,zero,2000e20 <displayColourBars+0x5b0>
 2000d10:	e13ffb17 	ldw	r4,-20(fp)
 2000d14:	20036d80 	call	20036d8 <__floatsidf>
 2000d18:	1011883a 	mov	r8,r2
 2000d1c:	1813883a 	mov	r9,r3
 2000d20:	000d883a 	mov	r6,zero
 2000d24:	01d00ff4 	movhi	r7,16447
 2000d28:	4009883a 	mov	r4,r8
 2000d2c:	480b883a 	mov	r5,r9
 2000d30:	200241c0 	call	200241c <__divdf3>
 2000d34:	1009883a 	mov	r4,r2
 2000d38:	180b883a 	mov	r5,r3
 2000d3c:	2005883a 	mov	r2,r4
 2000d40:	2807883a 	mov	r3,r5
 2000d44:	000d883a 	mov	r6,zero
 2000d48:	01d01c34 	movhi	r7,16496
 2000d4c:	39f80004 	addi	r7,r7,-8192
 2000d50:	1009883a 	mov	r4,r2
 2000d54:	180b883a 	mov	r5,r3
 2000d58:	2002dec0 	call	2002dec <__muldf3>
 2000d5c:	1009883a 	mov	r4,r2
 2000d60:	180b883a 	mov	r5,r3
 2000d64:	2005883a 	mov	r2,r4
 2000d68:	2807883a 	mov	r3,r5
 2000d6c:	1009883a 	mov	r4,r2
 2000d70:	180b883a 	mov	r5,r3
 2000d74:	20036580 	call	2003658 <__fixdfsi>
 2000d78:	1007883a 	mov	r3,r2
 2000d7c:	008082b4 	movhi	r2,522
 2000d80:	108ee104 	addi	r2,r2,15236
 2000d84:	18c7883a 	add	r3,r3,r3
 2000d88:	10c5883a 	add	r2,r2,r3
 2000d8c:	1080000b 	ldhu	r2,0(r2)
 2000d90:	e0bffc0d 	sth	r2,-16(fp)
 2000d94:	e03ffc8d 	sth	zero,-14(fp)
 2000d98:	e13ffb17 	ldw	r4,-20(fp)
 2000d9c:	20036d80 	call	20036d8 <__floatsidf>
 2000da0:	1011883a 	mov	r8,r2
 2000da4:	1813883a 	mov	r9,r3
 2000da8:	000d883a 	mov	r6,zero
 2000dac:	01d00ff4 	movhi	r7,16447
 2000db0:	4009883a 	mov	r4,r8
 2000db4:	480b883a 	mov	r5,r9
 2000db8:	200241c0 	call	200241c <__divdf3>
 2000dbc:	1009883a 	mov	r4,r2
 2000dc0:	180b883a 	mov	r5,r3
 2000dc4:	2005883a 	mov	r2,r4
 2000dc8:	2807883a 	mov	r3,r5
 2000dcc:	000d883a 	mov	r6,zero
 2000dd0:	01d01c34 	movhi	r7,16496
 2000dd4:	39f80004 	addi	r7,r7,-8192
 2000dd8:	1009883a 	mov	r4,r2
 2000ddc:	180b883a 	mov	r5,r3
 2000de0:	2002dec0 	call	2002dec <__muldf3>
 2000de4:	1009883a 	mov	r4,r2
 2000de8:	180b883a 	mov	r5,r3
 2000dec:	2005883a 	mov	r2,r4
 2000df0:	2807883a 	mov	r3,r5
 2000df4:	1009883a 	mov	r4,r2
 2000df8:	180b883a 	mov	r5,r3
 2000dfc:	20036580 	call	2003658 <__fixdfsi>
 2000e00:	1007883a 	mov	r3,r2
 2000e04:	008082b4 	movhi	r2,522
 2000e08:	108ee104 	addi	r2,r2,15236
 2000e0c:	18c7883a 	add	r3,r3,r3
 2000e10:	10c5883a 	add	r2,r2,r3
 2000e14:	1080000b 	ldhu	r2,0(r2)
 2000e18:	e0bffd0d 	sth	r2,-12(fp)
 2000e1c:	00006306 	br	2000fac <displayColourBars+0x73c>
 2000e20:	e13ffb17 	ldw	r4,-20(fp)
 2000e24:	20036d80 	call	20036d8 <__floatsidf>
 2000e28:	1011883a 	mov	r8,r2
 2000e2c:	1813883a 	mov	r9,r3
 2000e30:	000d883a 	mov	r6,zero
 2000e34:	01d00ff4 	movhi	r7,16447
 2000e38:	4009883a 	mov	r4,r8
 2000e3c:	480b883a 	mov	r5,r9
 2000e40:	200241c0 	call	200241c <__divdf3>
 2000e44:	1009883a 	mov	r4,r2
 2000e48:	180b883a 	mov	r5,r3
 2000e4c:	2005883a 	mov	r2,r4
 2000e50:	2807883a 	mov	r3,r5
 2000e54:	000d883a 	mov	r6,zero
 2000e58:	01d01c34 	movhi	r7,16496
 2000e5c:	39f80004 	addi	r7,r7,-8192
 2000e60:	1009883a 	mov	r4,r2
 2000e64:	180b883a 	mov	r5,r3
 2000e68:	2002dec0 	call	2002dec <__muldf3>
 2000e6c:	1009883a 	mov	r4,r2
 2000e70:	180b883a 	mov	r5,r3
 2000e74:	2005883a 	mov	r2,r4
 2000e78:	2807883a 	mov	r3,r5
 2000e7c:	1009883a 	mov	r4,r2
 2000e80:	180b883a 	mov	r5,r3
 2000e84:	20036580 	call	2003658 <__fixdfsi>
 2000e88:	1007883a 	mov	r3,r2
 2000e8c:	008082b4 	movhi	r2,522
 2000e90:	108ee104 	addi	r2,r2,15236
 2000e94:	18c7883a 	add	r3,r3,r3
 2000e98:	10c5883a 	add	r2,r2,r3
 2000e9c:	1080000b 	ldhu	r2,0(r2)
 2000ea0:	e0bffc0d 	sth	r2,-16(fp)
 2000ea4:	e13ffb17 	ldw	r4,-20(fp)
 2000ea8:	20036d80 	call	20036d8 <__floatsidf>
 2000eac:	1011883a 	mov	r8,r2
 2000eb0:	1813883a 	mov	r9,r3
 2000eb4:	000d883a 	mov	r6,zero
 2000eb8:	01d00ff4 	movhi	r7,16447
 2000ebc:	4009883a 	mov	r4,r8
 2000ec0:	480b883a 	mov	r5,r9
 2000ec4:	200241c0 	call	200241c <__divdf3>
 2000ec8:	1009883a 	mov	r4,r2
 2000ecc:	180b883a 	mov	r5,r3
 2000ed0:	2005883a 	mov	r2,r4
 2000ed4:	2807883a 	mov	r3,r5
 2000ed8:	000d883a 	mov	r6,zero
 2000edc:	01d01c34 	movhi	r7,16496
 2000ee0:	39f80004 	addi	r7,r7,-8192
 2000ee4:	1009883a 	mov	r4,r2
 2000ee8:	180b883a 	mov	r5,r3
 2000eec:	2002dec0 	call	2002dec <__muldf3>
 2000ef0:	1009883a 	mov	r4,r2
 2000ef4:	180b883a 	mov	r5,r3
 2000ef8:	2005883a 	mov	r2,r4
 2000efc:	2807883a 	mov	r3,r5
 2000f00:	1009883a 	mov	r4,r2
 2000f04:	180b883a 	mov	r5,r3
 2000f08:	20036580 	call	2003658 <__fixdfsi>
 2000f0c:	1007883a 	mov	r3,r2
 2000f10:	008082b4 	movhi	r2,522
 2000f14:	108ee104 	addi	r2,r2,15236
 2000f18:	18c7883a 	add	r3,r3,r3
 2000f1c:	10c5883a 	add	r2,r2,r3
 2000f20:	1080000b 	ldhu	r2,0(r2)
 2000f24:	e0bffc8d 	sth	r2,-14(fp)
 2000f28:	e13ffb17 	ldw	r4,-20(fp)
 2000f2c:	20036d80 	call	20036d8 <__floatsidf>
 2000f30:	1011883a 	mov	r8,r2
 2000f34:	1813883a 	mov	r9,r3
 2000f38:	000d883a 	mov	r6,zero
 2000f3c:	01d00ff4 	movhi	r7,16447
 2000f40:	4009883a 	mov	r4,r8
 2000f44:	480b883a 	mov	r5,r9
 2000f48:	200241c0 	call	200241c <__divdf3>
 2000f4c:	1009883a 	mov	r4,r2
 2000f50:	180b883a 	mov	r5,r3
 2000f54:	2005883a 	mov	r2,r4
 2000f58:	2807883a 	mov	r3,r5
 2000f5c:	000d883a 	mov	r6,zero
 2000f60:	01d01c34 	movhi	r7,16496
 2000f64:	39f80004 	addi	r7,r7,-8192
 2000f68:	1009883a 	mov	r4,r2
 2000f6c:	180b883a 	mov	r5,r3
 2000f70:	2002dec0 	call	2002dec <__muldf3>
 2000f74:	1009883a 	mov	r4,r2
 2000f78:	180b883a 	mov	r5,r3
 2000f7c:	2005883a 	mov	r2,r4
 2000f80:	2807883a 	mov	r3,r5
 2000f84:	1009883a 	mov	r4,r2
 2000f88:	180b883a 	mov	r5,r3
 2000f8c:	20036580 	call	2003658 <__fixdfsi>
 2000f90:	1007883a 	mov	r3,r2
 2000f94:	008082b4 	movhi	r2,522
 2000f98:	108ee104 	addi	r2,r2,15236
 2000f9c:	18c7883a 	add	r3,r3,r3
 2000fa0:	10c5883a 	add	r2,r2,r3
 2000fa4:	1080000b 	ldhu	r2,0(r2)
 2000fa8:	e0bffd0d 	sth	r2,-12(fp)
 2000fac:	e0bffc0b 	ldhu	r2,-16(fp)
 2000fb0:	1004953a 	slli	r2,r2,20
 2000fb4:	10cffc2c 	andhi	r3,r2,16368
 2000fb8:	e0bffc8b 	ldhu	r2,-14(fp)
 2000fbc:	100892ba 	slli	r4,r2,10
 2000fc0:	00800434 	movhi	r2,16
 2000fc4:	10bf0004 	addi	r2,r2,-1024
 2000fc8:	2084703a 	and	r2,r4,r2
 2000fcc:	1886b03a 	or	r3,r3,r2
 2000fd0:	e0bffd0b 	ldhu	r2,-12(fp)
 2000fd4:	1080ffcc 	andi	r2,r2,1023
 2000fd8:	1884b03a 	or	r2,r3,r2
 2000fdc:	e0bfff15 	stw	r2,-4(fp)
 2000fe0:	00810074 	movhi	r2,1025
 2000fe4:	10a82004 	addi	r2,r2,-24448
 2000fe8:	e0fffe17 	ldw	r3,-8(fp)
 2000fec:	10c00035 	stwio	r3,0(r2)
 2000ff0:	e0ffff17 	ldw	r3,-4(fp)
 2000ff4:	00810074 	movhi	r2,1025
 2000ff8:	10a81c04 	addi	r2,r2,-24464
 2000ffc:	10c00035 	stwio	r3,0(r2)
 2001000:	00c00044 	movi	r3,1
 2001004:	00810074 	movhi	r2,1025
 2001008:	10a81804 	addi	r2,r2,-24480
 200100c:	10c00035 	stwio	r3,0(r2)
 2001010:	0007883a 	mov	r3,zero
 2001014:	00810074 	movhi	r2,1025
 2001018:	10a81804 	addi	r2,r2,-24480
 200101c:	10c00035 	stwio	r3,0(r2)
 2001020:	e0bffb17 	ldw	r2,-20(fp)
 2001024:	10800044 	addi	r2,r2,1
 2001028:	e0bffb15 	stw	r2,-20(fp)
 200102c:	e0bffb17 	ldw	r2,-20(fp)
 2001030:	10800810 	cmplti	r2,r2,32
 2001034:	103e161e 	bne	r2,zero,2000890 <__reset+0xfdff7890>
 2001038:	e0bffa17 	ldw	r2,-24(fp)
 200103c:	10800044 	addi	r2,r2,1
 2001040:	e0bffa15 	stw	r2,-24(fp)
 2001044:	e0bffa17 	ldw	r2,-24(fp)
 2001048:	10800810 	cmplti	r2,r2,32
 200104c:	103e0e1e 	bne	r2,zero,2000888 <__reset+0xfdff7888>
 2001050:	0001883a 	nop
 2001054:	e037883a 	mov	sp,fp
 2001058:	dfc00117 	ldw	ra,4(sp)
 200105c:	df000017 	ldw	fp,0(sp)
 2001060:	dec00204 	addi	sp,sp,8
 2001064:	f800283a 	ret

02001068 <displayCIEColourBars>:
 2001068:	defff804 	addi	sp,sp,-32
 200106c:	dfc00715 	stw	ra,28(sp)
 2001070:	df000615 	stw	fp,24(sp)
 2001074:	df000604 	addi	fp,sp,24
 2001078:	e03ffa15 	stw	zero,-24(fp)
 200107c:	00011106 	br	20014c4 <displayCIEColourBars+0x45c>
 2001080:	e03ffb15 	stw	zero,-20(fp)
 2001084:	00010906 	br	20014ac <displayCIEColourBars+0x444>
 2001088:	00810004 	movi	r2,1024
 200108c:	e0bffe15 	stw	r2,-8(fp)
 2001090:	e0bffa17 	ldw	r2,-24(fp)
 2001094:	1004917a 	slli	r2,r2,5
 2001098:	e0fffe17 	ldw	r3,-8(fp)
 200109c:	1885883a 	add	r2,r3,r2
 20010a0:	e0bffe15 	stw	r2,-8(fp)
 20010a4:	e0fffe17 	ldw	r3,-8(fp)
 20010a8:	e0bffb17 	ldw	r2,-20(fp)
 20010ac:	1885883a 	add	r2,r3,r2
 20010b0:	e0bffe15 	stw	r2,-8(fp)
 20010b4:	e0bffa17 	ldw	r2,-24(fp)
 20010b8:	10800208 	cmpgei	r2,r2,8
 20010bc:	1000241e 	bne	r2,zero,2001150 <displayCIEColourBars+0xe8>
 20010c0:	e13ffb17 	ldw	r4,-20(fp)
 20010c4:	20036d80 	call	20036d8 <__floatsidf>
 20010c8:	1011883a 	mov	r8,r2
 20010cc:	1813883a 	mov	r9,r3
 20010d0:	000d883a 	mov	r6,zero
 20010d4:	01d00ff4 	movhi	r7,16447
 20010d8:	4009883a 	mov	r4,r8
 20010dc:	480b883a 	mov	r5,r9
 20010e0:	200241c0 	call	200241c <__divdf3>
 20010e4:	1009883a 	mov	r4,r2
 20010e8:	180b883a 	mov	r5,r3
 20010ec:	2005883a 	mov	r2,r4
 20010f0:	2807883a 	mov	r3,r5
 20010f4:	000d883a 	mov	r6,zero
 20010f8:	01d01c34 	movhi	r7,16496
 20010fc:	39f80004 	addi	r7,r7,-8192
 2001100:	1009883a 	mov	r4,r2
 2001104:	180b883a 	mov	r5,r3
 2001108:	2002dec0 	call	2002dec <__muldf3>
 200110c:	1009883a 	mov	r4,r2
 2001110:	180b883a 	mov	r5,r3
 2001114:	2005883a 	mov	r2,r4
 2001118:	2807883a 	mov	r3,r5
 200111c:	1009883a 	mov	r4,r2
 2001120:	180b883a 	mov	r5,r3
 2001124:	20036580 	call	2003658 <__fixdfsi>
 2001128:	1007883a 	mov	r3,r2
 200112c:	008082b4 	movhi	r2,522
 2001130:	108f6104 	addi	r2,r2,15748
 2001134:	18c7883a 	add	r3,r3,r3
 2001138:	10c5883a 	add	r2,r2,r3
 200113c:	1080000b 	ldhu	r2,0(r2)
 2001140:	e0bffc0d 	sth	r2,-16(fp)
 2001144:	e03ffc8d 	sth	zero,-14(fp)
 2001148:	e03ffd0d 	sth	zero,-12(fp)
 200114c:	0000b706 	br	200142c <displayCIEColourBars+0x3c4>
 2001150:	e0bffa17 	ldw	r2,-24(fp)
 2001154:	10800210 	cmplti	r2,r2,8
 2001158:	1000271e 	bne	r2,zero,20011f8 <displayCIEColourBars+0x190>
 200115c:	e0bffa17 	ldw	r2,-24(fp)
 2001160:	10800408 	cmpgei	r2,r2,16
 2001164:	1000241e 	bne	r2,zero,20011f8 <displayCIEColourBars+0x190>
 2001168:	e03ffc0d 	sth	zero,-16(fp)
 200116c:	e13ffb17 	ldw	r4,-20(fp)
 2001170:	20036d80 	call	20036d8 <__floatsidf>
 2001174:	1011883a 	mov	r8,r2
 2001178:	1813883a 	mov	r9,r3
 200117c:	000d883a 	mov	r6,zero
 2001180:	01d00ff4 	movhi	r7,16447
 2001184:	4009883a 	mov	r4,r8
 2001188:	480b883a 	mov	r5,r9
 200118c:	200241c0 	call	200241c <__divdf3>
 2001190:	1009883a 	mov	r4,r2
 2001194:	180b883a 	mov	r5,r3
 2001198:	2005883a 	mov	r2,r4
 200119c:	2807883a 	mov	r3,r5
 20011a0:	000d883a 	mov	r6,zero
 20011a4:	01d01c34 	movhi	r7,16496
 20011a8:	39f80004 	addi	r7,r7,-8192
 20011ac:	1009883a 	mov	r4,r2
 20011b0:	180b883a 	mov	r5,r3
 20011b4:	2002dec0 	call	2002dec <__muldf3>
 20011b8:	1009883a 	mov	r4,r2
 20011bc:	180b883a 	mov	r5,r3
 20011c0:	2005883a 	mov	r2,r4
 20011c4:	2807883a 	mov	r3,r5
 20011c8:	1009883a 	mov	r4,r2
 20011cc:	180b883a 	mov	r5,r3
 20011d0:	20036580 	call	2003658 <__fixdfsi>
 20011d4:	1007883a 	mov	r3,r2
 20011d8:	008082b4 	movhi	r2,522
 20011dc:	108f6104 	addi	r2,r2,15748
 20011e0:	18c7883a 	add	r3,r3,r3
 20011e4:	10c5883a 	add	r2,r2,r3
 20011e8:	1080000b 	ldhu	r2,0(r2)
 20011ec:	e0bffc8d 	sth	r2,-14(fp)
 20011f0:	e03ffd0d 	sth	zero,-12(fp)
 20011f4:	00008d06 	br	200142c <displayCIEColourBars+0x3c4>
 20011f8:	e0bffa17 	ldw	r2,-24(fp)
 20011fc:	10800410 	cmplti	r2,r2,16
 2001200:	1000271e 	bne	r2,zero,20012a0 <displayCIEColourBars+0x238>
 2001204:	e0bffa17 	ldw	r2,-24(fp)
 2001208:	10800608 	cmpgei	r2,r2,24
 200120c:	1000241e 	bne	r2,zero,20012a0 <displayCIEColourBars+0x238>
 2001210:	e03ffc0d 	sth	zero,-16(fp)
 2001214:	e03ffc8d 	sth	zero,-14(fp)
 2001218:	e13ffb17 	ldw	r4,-20(fp)
 200121c:	20036d80 	call	20036d8 <__floatsidf>
 2001220:	1011883a 	mov	r8,r2
 2001224:	1813883a 	mov	r9,r3
 2001228:	000d883a 	mov	r6,zero
 200122c:	01d00ff4 	movhi	r7,16447
 2001230:	4009883a 	mov	r4,r8
 2001234:	480b883a 	mov	r5,r9
 2001238:	200241c0 	call	200241c <__divdf3>
 200123c:	1009883a 	mov	r4,r2
 2001240:	180b883a 	mov	r5,r3
 2001244:	2005883a 	mov	r2,r4
 2001248:	2807883a 	mov	r3,r5
 200124c:	000d883a 	mov	r6,zero
 2001250:	01d01c34 	movhi	r7,16496
 2001254:	39f80004 	addi	r7,r7,-8192
 2001258:	1009883a 	mov	r4,r2
 200125c:	180b883a 	mov	r5,r3
 2001260:	2002dec0 	call	2002dec <__muldf3>
 2001264:	1009883a 	mov	r4,r2
 2001268:	180b883a 	mov	r5,r3
 200126c:	2005883a 	mov	r2,r4
 2001270:	2807883a 	mov	r3,r5
 2001274:	1009883a 	mov	r4,r2
 2001278:	180b883a 	mov	r5,r3
 200127c:	20036580 	call	2003658 <__fixdfsi>
 2001280:	1007883a 	mov	r3,r2
 2001284:	008082b4 	movhi	r2,522
 2001288:	108f6104 	addi	r2,r2,15748
 200128c:	18c7883a 	add	r3,r3,r3
 2001290:	10c5883a 	add	r2,r2,r3
 2001294:	1080000b 	ldhu	r2,0(r2)
 2001298:	e0bffd0d 	sth	r2,-12(fp)
 200129c:	00006306 	br	200142c <displayCIEColourBars+0x3c4>
 20012a0:	e13ffb17 	ldw	r4,-20(fp)
 20012a4:	20036d80 	call	20036d8 <__floatsidf>
 20012a8:	1011883a 	mov	r8,r2
 20012ac:	1813883a 	mov	r9,r3
 20012b0:	000d883a 	mov	r6,zero
 20012b4:	01d00ff4 	movhi	r7,16447
 20012b8:	4009883a 	mov	r4,r8
 20012bc:	480b883a 	mov	r5,r9
 20012c0:	200241c0 	call	200241c <__divdf3>
 20012c4:	1009883a 	mov	r4,r2
 20012c8:	180b883a 	mov	r5,r3
 20012cc:	2005883a 	mov	r2,r4
 20012d0:	2807883a 	mov	r3,r5
 20012d4:	000d883a 	mov	r6,zero
 20012d8:	01d01c34 	movhi	r7,16496
 20012dc:	39f80004 	addi	r7,r7,-8192
 20012e0:	1009883a 	mov	r4,r2
 20012e4:	180b883a 	mov	r5,r3
 20012e8:	2002dec0 	call	2002dec <__muldf3>
 20012ec:	1009883a 	mov	r4,r2
 20012f0:	180b883a 	mov	r5,r3
 20012f4:	2005883a 	mov	r2,r4
 20012f8:	2807883a 	mov	r3,r5
 20012fc:	1009883a 	mov	r4,r2
 2001300:	180b883a 	mov	r5,r3
 2001304:	20036580 	call	2003658 <__fixdfsi>
 2001308:	1007883a 	mov	r3,r2
 200130c:	008082b4 	movhi	r2,522
 2001310:	108f6104 	addi	r2,r2,15748
 2001314:	18c7883a 	add	r3,r3,r3
 2001318:	10c5883a 	add	r2,r2,r3
 200131c:	1080000b 	ldhu	r2,0(r2)
 2001320:	e0bffc0d 	sth	r2,-16(fp)
 2001324:	e13ffb17 	ldw	r4,-20(fp)
 2001328:	20036d80 	call	20036d8 <__floatsidf>
 200132c:	1011883a 	mov	r8,r2
 2001330:	1813883a 	mov	r9,r3
 2001334:	000d883a 	mov	r6,zero
 2001338:	01d00ff4 	movhi	r7,16447
 200133c:	4009883a 	mov	r4,r8
 2001340:	480b883a 	mov	r5,r9
 2001344:	200241c0 	call	200241c <__divdf3>
 2001348:	1009883a 	mov	r4,r2
 200134c:	180b883a 	mov	r5,r3
 2001350:	2005883a 	mov	r2,r4
 2001354:	2807883a 	mov	r3,r5
 2001358:	000d883a 	mov	r6,zero
 200135c:	01d01c34 	movhi	r7,16496
 2001360:	39f80004 	addi	r7,r7,-8192
 2001364:	1009883a 	mov	r4,r2
 2001368:	180b883a 	mov	r5,r3
 200136c:	2002dec0 	call	2002dec <__muldf3>
 2001370:	1009883a 	mov	r4,r2
 2001374:	180b883a 	mov	r5,r3
 2001378:	2005883a 	mov	r2,r4
 200137c:	2807883a 	mov	r3,r5
 2001380:	1009883a 	mov	r4,r2
 2001384:	180b883a 	mov	r5,r3
 2001388:	20036580 	call	2003658 <__fixdfsi>
 200138c:	1007883a 	mov	r3,r2
 2001390:	008082b4 	movhi	r2,522
 2001394:	108f6104 	addi	r2,r2,15748
 2001398:	18c7883a 	add	r3,r3,r3
 200139c:	10c5883a 	add	r2,r2,r3
 20013a0:	1080000b 	ldhu	r2,0(r2)
 20013a4:	e0bffc8d 	sth	r2,-14(fp)
 20013a8:	e13ffb17 	ldw	r4,-20(fp)
 20013ac:	20036d80 	call	20036d8 <__floatsidf>
 20013b0:	1011883a 	mov	r8,r2
 20013b4:	1813883a 	mov	r9,r3
 20013b8:	000d883a 	mov	r6,zero
 20013bc:	01d00ff4 	movhi	r7,16447
 20013c0:	4009883a 	mov	r4,r8
 20013c4:	480b883a 	mov	r5,r9
 20013c8:	200241c0 	call	200241c <__divdf3>
 20013cc:	1009883a 	mov	r4,r2
 20013d0:	180b883a 	mov	r5,r3
 20013d4:	2005883a 	mov	r2,r4
 20013d8:	2807883a 	mov	r3,r5
 20013dc:	000d883a 	mov	r6,zero
 20013e0:	01d01c34 	movhi	r7,16496
 20013e4:	39f80004 	addi	r7,r7,-8192
 20013e8:	1009883a 	mov	r4,r2
 20013ec:	180b883a 	mov	r5,r3
 20013f0:	2002dec0 	call	2002dec <__muldf3>
 20013f4:	1009883a 	mov	r4,r2
 20013f8:	180b883a 	mov	r5,r3
 20013fc:	2005883a 	mov	r2,r4
 2001400:	2807883a 	mov	r3,r5
 2001404:	1009883a 	mov	r4,r2
 2001408:	180b883a 	mov	r5,r3
 200140c:	20036580 	call	2003658 <__fixdfsi>
 2001410:	1007883a 	mov	r3,r2
 2001414:	008082b4 	movhi	r2,522
 2001418:	108f6104 	addi	r2,r2,15748
 200141c:	18c7883a 	add	r3,r3,r3
 2001420:	10c5883a 	add	r2,r2,r3
 2001424:	1080000b 	ldhu	r2,0(r2)
 2001428:	e0bffd0d 	sth	r2,-12(fp)
 200142c:	e0bffc0b 	ldhu	r2,-16(fp)
 2001430:	1004953a 	slli	r2,r2,20
 2001434:	10cffc2c 	andhi	r3,r2,16368
 2001438:	e0bffc8b 	ldhu	r2,-14(fp)
 200143c:	100892ba 	slli	r4,r2,10
 2001440:	00800434 	movhi	r2,16
 2001444:	10bf0004 	addi	r2,r2,-1024
 2001448:	2084703a 	and	r2,r4,r2
 200144c:	1886b03a 	or	r3,r3,r2
 2001450:	e0bffd0b 	ldhu	r2,-12(fp)
 2001454:	1080ffcc 	andi	r2,r2,1023
 2001458:	1884b03a 	or	r2,r3,r2
 200145c:	e0bfff15 	stw	r2,-4(fp)
 2001460:	00810074 	movhi	r2,1025
 2001464:	10a82004 	addi	r2,r2,-24448
 2001468:	e0fffe17 	ldw	r3,-8(fp)
 200146c:	10c00035 	stwio	r3,0(r2)
 2001470:	e0ffff17 	ldw	r3,-4(fp)
 2001474:	00810074 	movhi	r2,1025
 2001478:	10a81c04 	addi	r2,r2,-24464
 200147c:	10c00035 	stwio	r3,0(r2)
 2001480:	00c00044 	movi	r3,1
 2001484:	00810074 	movhi	r2,1025
 2001488:	10a81804 	addi	r2,r2,-24480
 200148c:	10c00035 	stwio	r3,0(r2)
 2001490:	0007883a 	mov	r3,zero
 2001494:	00810074 	movhi	r2,1025
 2001498:	10a81804 	addi	r2,r2,-24480
 200149c:	10c00035 	stwio	r3,0(r2)
 20014a0:	e0bffb17 	ldw	r2,-20(fp)
 20014a4:	10800044 	addi	r2,r2,1
 20014a8:	e0bffb15 	stw	r2,-20(fp)
 20014ac:	e0bffb17 	ldw	r2,-20(fp)
 20014b0:	10800810 	cmplti	r2,r2,32
 20014b4:	103ef41e 	bne	r2,zero,2001088 <__reset+0xfdff8088>
 20014b8:	e0bffa17 	ldw	r2,-24(fp)
 20014bc:	10800044 	addi	r2,r2,1
 20014c0:	e0bffa15 	stw	r2,-24(fp)
 20014c4:	e0bffa17 	ldw	r2,-24(fp)
 20014c8:	10800810 	cmplti	r2,r2,32
 20014cc:	103eec1e 	bne	r2,zero,2001080 <__reset+0xfdff8080>
 20014d0:	0001883a 	nop
 20014d4:	e037883a 	mov	sp,fp
 20014d8:	dfc00117 	ldw	ra,4(sp)
 20014dc:	df000017 	ldw	fp,0(sp)
 20014e0:	dec00204 	addi	sp,sp,8
 20014e4:	f800283a 	ret

020014e8 <displayGamma149ColourBars>:
 20014e8:	defff804 	addi	sp,sp,-32
 20014ec:	dfc00715 	stw	ra,28(sp)
 20014f0:	df000615 	stw	fp,24(sp)
 20014f4:	df000604 	addi	fp,sp,24
 20014f8:	e03ffa15 	stw	zero,-24(fp)
 20014fc:	00011106 	br	2001944 <displayGamma149ColourBars+0x45c>
 2001500:	e03ffb15 	stw	zero,-20(fp)
 2001504:	00010906 	br	200192c <displayGamma149ColourBars+0x444>
 2001508:	00810004 	movi	r2,1024
 200150c:	e0bffe15 	stw	r2,-8(fp)
 2001510:	e0bffa17 	ldw	r2,-24(fp)
 2001514:	1004917a 	slli	r2,r2,5
 2001518:	e0fffe17 	ldw	r3,-8(fp)
 200151c:	1885883a 	add	r2,r3,r2
 2001520:	e0bffe15 	stw	r2,-8(fp)
 2001524:	e0fffe17 	ldw	r3,-8(fp)
 2001528:	e0bffb17 	ldw	r2,-20(fp)
 200152c:	1885883a 	add	r2,r3,r2
 2001530:	e0bffe15 	stw	r2,-8(fp)
 2001534:	e0bffa17 	ldw	r2,-24(fp)
 2001538:	10800208 	cmpgei	r2,r2,8
 200153c:	1000241e 	bne	r2,zero,20015d0 <displayGamma149ColourBars+0xe8>
 2001540:	e13ffb17 	ldw	r4,-20(fp)
 2001544:	20036d80 	call	20036d8 <__floatsidf>
 2001548:	1011883a 	mov	r8,r2
 200154c:	1813883a 	mov	r9,r3
 2001550:	000d883a 	mov	r6,zero
 2001554:	01d00ff4 	movhi	r7,16447
 2001558:	4009883a 	mov	r4,r8
 200155c:	480b883a 	mov	r5,r9
 2001560:	200241c0 	call	200241c <__divdf3>
 2001564:	1009883a 	mov	r4,r2
 2001568:	180b883a 	mov	r5,r3
 200156c:	2005883a 	mov	r2,r4
 2001570:	2807883a 	mov	r3,r5
 2001574:	000d883a 	mov	r6,zero
 2001578:	01d01c34 	movhi	r7,16496
 200157c:	39f80004 	addi	r7,r7,-8192
 2001580:	1009883a 	mov	r4,r2
 2001584:	180b883a 	mov	r5,r3
 2001588:	2002dec0 	call	2002dec <__muldf3>
 200158c:	1009883a 	mov	r4,r2
 2001590:	180b883a 	mov	r5,r3
 2001594:	2005883a 	mov	r2,r4
 2001598:	2807883a 	mov	r3,r5
 200159c:	1009883a 	mov	r4,r2
 20015a0:	180b883a 	mov	r5,r3
 20015a4:	20036580 	call	2003658 <__fixdfsi>
 20015a8:	1007883a 	mov	r3,r2
 20015ac:	008082b4 	movhi	r2,522
 20015b0:	108fe104 	addi	r2,r2,16260
 20015b4:	18c7883a 	add	r3,r3,r3
 20015b8:	10c5883a 	add	r2,r2,r3
 20015bc:	1080000b 	ldhu	r2,0(r2)
 20015c0:	e0bffc0d 	sth	r2,-16(fp)
 20015c4:	e03ffc8d 	sth	zero,-14(fp)
 20015c8:	e03ffd0d 	sth	zero,-12(fp)
 20015cc:	0000b706 	br	20018ac <displayGamma149ColourBars+0x3c4>
 20015d0:	e0bffa17 	ldw	r2,-24(fp)
 20015d4:	10800210 	cmplti	r2,r2,8
 20015d8:	1000271e 	bne	r2,zero,2001678 <displayGamma149ColourBars+0x190>
 20015dc:	e0bffa17 	ldw	r2,-24(fp)
 20015e0:	10800408 	cmpgei	r2,r2,16
 20015e4:	1000241e 	bne	r2,zero,2001678 <displayGamma149ColourBars+0x190>
 20015e8:	e03ffc0d 	sth	zero,-16(fp)
 20015ec:	e13ffb17 	ldw	r4,-20(fp)
 20015f0:	20036d80 	call	20036d8 <__floatsidf>
 20015f4:	1011883a 	mov	r8,r2
 20015f8:	1813883a 	mov	r9,r3
 20015fc:	000d883a 	mov	r6,zero
 2001600:	01d00ff4 	movhi	r7,16447
 2001604:	4009883a 	mov	r4,r8
 2001608:	480b883a 	mov	r5,r9
 200160c:	200241c0 	call	200241c <__divdf3>
 2001610:	1009883a 	mov	r4,r2
 2001614:	180b883a 	mov	r5,r3
 2001618:	2005883a 	mov	r2,r4
 200161c:	2807883a 	mov	r3,r5
 2001620:	000d883a 	mov	r6,zero
 2001624:	01d01c34 	movhi	r7,16496
 2001628:	39f80004 	addi	r7,r7,-8192
 200162c:	1009883a 	mov	r4,r2
 2001630:	180b883a 	mov	r5,r3
 2001634:	2002dec0 	call	2002dec <__muldf3>
 2001638:	1009883a 	mov	r4,r2
 200163c:	180b883a 	mov	r5,r3
 2001640:	2005883a 	mov	r2,r4
 2001644:	2807883a 	mov	r3,r5
 2001648:	1009883a 	mov	r4,r2
 200164c:	180b883a 	mov	r5,r3
 2001650:	20036580 	call	2003658 <__fixdfsi>
 2001654:	1007883a 	mov	r3,r2
 2001658:	008082b4 	movhi	r2,522
 200165c:	108fe104 	addi	r2,r2,16260
 2001660:	18c7883a 	add	r3,r3,r3
 2001664:	10c5883a 	add	r2,r2,r3
 2001668:	1080000b 	ldhu	r2,0(r2)
 200166c:	e0bffc8d 	sth	r2,-14(fp)
 2001670:	e03ffd0d 	sth	zero,-12(fp)
 2001674:	00008d06 	br	20018ac <displayGamma149ColourBars+0x3c4>
 2001678:	e0bffa17 	ldw	r2,-24(fp)
 200167c:	10800410 	cmplti	r2,r2,16
 2001680:	1000271e 	bne	r2,zero,2001720 <displayGamma149ColourBars+0x238>
 2001684:	e0bffa17 	ldw	r2,-24(fp)
 2001688:	10800608 	cmpgei	r2,r2,24
 200168c:	1000241e 	bne	r2,zero,2001720 <displayGamma149ColourBars+0x238>
 2001690:	e03ffc0d 	sth	zero,-16(fp)
 2001694:	e03ffc8d 	sth	zero,-14(fp)
 2001698:	e13ffb17 	ldw	r4,-20(fp)
 200169c:	20036d80 	call	20036d8 <__floatsidf>
 20016a0:	1011883a 	mov	r8,r2
 20016a4:	1813883a 	mov	r9,r3
 20016a8:	000d883a 	mov	r6,zero
 20016ac:	01d00ff4 	movhi	r7,16447
 20016b0:	4009883a 	mov	r4,r8
 20016b4:	480b883a 	mov	r5,r9
 20016b8:	200241c0 	call	200241c <__divdf3>
 20016bc:	1009883a 	mov	r4,r2
 20016c0:	180b883a 	mov	r5,r3
 20016c4:	2005883a 	mov	r2,r4
 20016c8:	2807883a 	mov	r3,r5
 20016cc:	000d883a 	mov	r6,zero
 20016d0:	01d01c34 	movhi	r7,16496
 20016d4:	39f80004 	addi	r7,r7,-8192
 20016d8:	1009883a 	mov	r4,r2
 20016dc:	180b883a 	mov	r5,r3
 20016e0:	2002dec0 	call	2002dec <__muldf3>
 20016e4:	1009883a 	mov	r4,r2
 20016e8:	180b883a 	mov	r5,r3
 20016ec:	2005883a 	mov	r2,r4
 20016f0:	2807883a 	mov	r3,r5
 20016f4:	1009883a 	mov	r4,r2
 20016f8:	180b883a 	mov	r5,r3
 20016fc:	20036580 	call	2003658 <__fixdfsi>
 2001700:	1007883a 	mov	r3,r2
 2001704:	008082b4 	movhi	r2,522
 2001708:	108fe104 	addi	r2,r2,16260
 200170c:	18c7883a 	add	r3,r3,r3
 2001710:	10c5883a 	add	r2,r2,r3
 2001714:	1080000b 	ldhu	r2,0(r2)
 2001718:	e0bffd0d 	sth	r2,-12(fp)
 200171c:	00006306 	br	20018ac <displayGamma149ColourBars+0x3c4>
 2001720:	e13ffb17 	ldw	r4,-20(fp)
 2001724:	20036d80 	call	20036d8 <__floatsidf>
 2001728:	1011883a 	mov	r8,r2
 200172c:	1813883a 	mov	r9,r3
 2001730:	000d883a 	mov	r6,zero
 2001734:	01d00ff4 	movhi	r7,16447
 2001738:	4009883a 	mov	r4,r8
 200173c:	480b883a 	mov	r5,r9
 2001740:	200241c0 	call	200241c <__divdf3>
 2001744:	1009883a 	mov	r4,r2
 2001748:	180b883a 	mov	r5,r3
 200174c:	2005883a 	mov	r2,r4
 2001750:	2807883a 	mov	r3,r5
 2001754:	000d883a 	mov	r6,zero
 2001758:	01d01c34 	movhi	r7,16496
 200175c:	39f80004 	addi	r7,r7,-8192
 2001760:	1009883a 	mov	r4,r2
 2001764:	180b883a 	mov	r5,r3
 2001768:	2002dec0 	call	2002dec <__muldf3>
 200176c:	1009883a 	mov	r4,r2
 2001770:	180b883a 	mov	r5,r3
 2001774:	2005883a 	mov	r2,r4
 2001778:	2807883a 	mov	r3,r5
 200177c:	1009883a 	mov	r4,r2
 2001780:	180b883a 	mov	r5,r3
 2001784:	20036580 	call	2003658 <__fixdfsi>
 2001788:	1007883a 	mov	r3,r2
 200178c:	008082b4 	movhi	r2,522
 2001790:	108fe104 	addi	r2,r2,16260
 2001794:	18c7883a 	add	r3,r3,r3
 2001798:	10c5883a 	add	r2,r2,r3
 200179c:	1080000b 	ldhu	r2,0(r2)
 20017a0:	e0bffc0d 	sth	r2,-16(fp)
 20017a4:	e13ffb17 	ldw	r4,-20(fp)
 20017a8:	20036d80 	call	20036d8 <__floatsidf>
 20017ac:	1011883a 	mov	r8,r2
 20017b0:	1813883a 	mov	r9,r3
 20017b4:	000d883a 	mov	r6,zero
 20017b8:	01d00ff4 	movhi	r7,16447
 20017bc:	4009883a 	mov	r4,r8
 20017c0:	480b883a 	mov	r5,r9
 20017c4:	200241c0 	call	200241c <__divdf3>
 20017c8:	1009883a 	mov	r4,r2
 20017cc:	180b883a 	mov	r5,r3
 20017d0:	2005883a 	mov	r2,r4
 20017d4:	2807883a 	mov	r3,r5
 20017d8:	000d883a 	mov	r6,zero
 20017dc:	01d01c34 	movhi	r7,16496
 20017e0:	39f80004 	addi	r7,r7,-8192
 20017e4:	1009883a 	mov	r4,r2
 20017e8:	180b883a 	mov	r5,r3
 20017ec:	2002dec0 	call	2002dec <__muldf3>
 20017f0:	1009883a 	mov	r4,r2
 20017f4:	180b883a 	mov	r5,r3
 20017f8:	2005883a 	mov	r2,r4
 20017fc:	2807883a 	mov	r3,r5
 2001800:	1009883a 	mov	r4,r2
 2001804:	180b883a 	mov	r5,r3
 2001808:	20036580 	call	2003658 <__fixdfsi>
 200180c:	1007883a 	mov	r3,r2
 2001810:	008082b4 	movhi	r2,522
 2001814:	108fe104 	addi	r2,r2,16260
 2001818:	18c7883a 	add	r3,r3,r3
 200181c:	10c5883a 	add	r2,r2,r3
 2001820:	1080000b 	ldhu	r2,0(r2)
 2001824:	e0bffc8d 	sth	r2,-14(fp)
 2001828:	e13ffb17 	ldw	r4,-20(fp)
 200182c:	20036d80 	call	20036d8 <__floatsidf>
 2001830:	1011883a 	mov	r8,r2
 2001834:	1813883a 	mov	r9,r3
 2001838:	000d883a 	mov	r6,zero
 200183c:	01d00ff4 	movhi	r7,16447
 2001840:	4009883a 	mov	r4,r8
 2001844:	480b883a 	mov	r5,r9
 2001848:	200241c0 	call	200241c <__divdf3>
 200184c:	1009883a 	mov	r4,r2
 2001850:	180b883a 	mov	r5,r3
 2001854:	2005883a 	mov	r2,r4
 2001858:	2807883a 	mov	r3,r5
 200185c:	000d883a 	mov	r6,zero
 2001860:	01d01c34 	movhi	r7,16496
 2001864:	39f80004 	addi	r7,r7,-8192
 2001868:	1009883a 	mov	r4,r2
 200186c:	180b883a 	mov	r5,r3
 2001870:	2002dec0 	call	2002dec <__muldf3>
 2001874:	1009883a 	mov	r4,r2
 2001878:	180b883a 	mov	r5,r3
 200187c:	2005883a 	mov	r2,r4
 2001880:	2807883a 	mov	r3,r5
 2001884:	1009883a 	mov	r4,r2
 2001888:	180b883a 	mov	r5,r3
 200188c:	20036580 	call	2003658 <__fixdfsi>
 2001890:	1007883a 	mov	r3,r2
 2001894:	008082b4 	movhi	r2,522
 2001898:	108fe104 	addi	r2,r2,16260
 200189c:	18c7883a 	add	r3,r3,r3
 20018a0:	10c5883a 	add	r2,r2,r3
 20018a4:	1080000b 	ldhu	r2,0(r2)
 20018a8:	e0bffd0d 	sth	r2,-12(fp)
 20018ac:	e0bffc0b 	ldhu	r2,-16(fp)
 20018b0:	1004953a 	slli	r2,r2,20
 20018b4:	10cffc2c 	andhi	r3,r2,16368
 20018b8:	e0bffc8b 	ldhu	r2,-14(fp)
 20018bc:	100892ba 	slli	r4,r2,10
 20018c0:	00800434 	movhi	r2,16
 20018c4:	10bf0004 	addi	r2,r2,-1024
 20018c8:	2084703a 	and	r2,r4,r2
 20018cc:	1886b03a 	or	r3,r3,r2
 20018d0:	e0bffd0b 	ldhu	r2,-12(fp)
 20018d4:	1080ffcc 	andi	r2,r2,1023
 20018d8:	1884b03a 	or	r2,r3,r2
 20018dc:	e0bfff15 	stw	r2,-4(fp)
 20018e0:	00810074 	movhi	r2,1025
 20018e4:	10a82004 	addi	r2,r2,-24448
 20018e8:	e0fffe17 	ldw	r3,-8(fp)
 20018ec:	10c00035 	stwio	r3,0(r2)
 20018f0:	e0ffff17 	ldw	r3,-4(fp)
 20018f4:	00810074 	movhi	r2,1025
 20018f8:	10a81c04 	addi	r2,r2,-24464
 20018fc:	10c00035 	stwio	r3,0(r2)
 2001900:	00c00044 	movi	r3,1
 2001904:	00810074 	movhi	r2,1025
 2001908:	10a81804 	addi	r2,r2,-24480
 200190c:	10c00035 	stwio	r3,0(r2)
 2001910:	0007883a 	mov	r3,zero
 2001914:	00810074 	movhi	r2,1025
 2001918:	10a81804 	addi	r2,r2,-24480
 200191c:	10c00035 	stwio	r3,0(r2)
 2001920:	e0bffb17 	ldw	r2,-20(fp)
 2001924:	10800044 	addi	r2,r2,1
 2001928:	e0bffb15 	stw	r2,-20(fp)
 200192c:	e0bffb17 	ldw	r2,-20(fp)
 2001930:	10800810 	cmplti	r2,r2,32
 2001934:	103ef41e 	bne	r2,zero,2001508 <__reset+0xfdff8508>
 2001938:	e0bffa17 	ldw	r2,-24(fp)
 200193c:	10800044 	addi	r2,r2,1
 2001940:	e0bffa15 	stw	r2,-24(fp)
 2001944:	e0bffa17 	ldw	r2,-24(fp)
 2001948:	10800810 	cmplti	r2,r2,32
 200194c:	103eec1e 	bne	r2,zero,2001500 <__reset+0xfdff8500>
 2001950:	0001883a 	nop
 2001954:	e037883a 	mov	sp,fp
 2001958:	dfc00117 	ldw	ra,4(sp)
 200195c:	df000017 	ldw	fp,0(sp)
 2001960:	dec00204 	addi	sp,sp,8
 2001964:	f800283a 	ret

02001968 <displayGamma98ColourBars>:
 2001968:	defff804 	addi	sp,sp,-32
 200196c:	dfc00715 	stw	ra,28(sp)
 2001970:	df000615 	stw	fp,24(sp)
 2001974:	df000604 	addi	fp,sp,24
 2001978:	e03ffa15 	stw	zero,-24(fp)
 200197c:	00011106 	br	2001dc4 <displayGamma98ColourBars+0x45c>
 2001980:	e03ffb15 	stw	zero,-20(fp)
 2001984:	00010906 	br	2001dac <displayGamma98ColourBars+0x444>
 2001988:	00810004 	movi	r2,1024
 200198c:	e0bffe15 	stw	r2,-8(fp)
 2001990:	e0bffa17 	ldw	r2,-24(fp)
 2001994:	1004917a 	slli	r2,r2,5
 2001998:	e0fffe17 	ldw	r3,-8(fp)
 200199c:	1885883a 	add	r2,r3,r2
 20019a0:	e0bffe15 	stw	r2,-8(fp)
 20019a4:	e0fffe17 	ldw	r3,-8(fp)
 20019a8:	e0bffb17 	ldw	r2,-20(fp)
 20019ac:	1885883a 	add	r2,r3,r2
 20019b0:	e0bffe15 	stw	r2,-8(fp)
 20019b4:	e0bffa17 	ldw	r2,-24(fp)
 20019b8:	10800208 	cmpgei	r2,r2,8
 20019bc:	1000241e 	bne	r2,zero,2001a50 <displayGamma98ColourBars+0xe8>
 20019c0:	e13ffb17 	ldw	r4,-20(fp)
 20019c4:	20036d80 	call	20036d8 <__floatsidf>
 20019c8:	1011883a 	mov	r8,r2
 20019cc:	1813883a 	mov	r9,r3
 20019d0:	000d883a 	mov	r6,zero
 20019d4:	01d00ff4 	movhi	r7,16447
 20019d8:	4009883a 	mov	r4,r8
 20019dc:	480b883a 	mov	r5,r9
 20019e0:	200241c0 	call	200241c <__divdf3>
 20019e4:	1009883a 	mov	r4,r2
 20019e8:	180b883a 	mov	r5,r3
 20019ec:	2005883a 	mov	r2,r4
 20019f0:	2807883a 	mov	r3,r5
 20019f4:	000d883a 	mov	r6,zero
 20019f8:	01d01c34 	movhi	r7,16496
 20019fc:	39f80004 	addi	r7,r7,-8192
 2001a00:	1009883a 	mov	r4,r2
 2001a04:	180b883a 	mov	r5,r3
 2001a08:	2002dec0 	call	2002dec <__muldf3>
 2001a0c:	1009883a 	mov	r4,r2
 2001a10:	180b883a 	mov	r5,r3
 2001a14:	2005883a 	mov	r2,r4
 2001a18:	2807883a 	mov	r3,r5
 2001a1c:	1009883a 	mov	r4,r2
 2001a20:	180b883a 	mov	r5,r3
 2001a24:	20036580 	call	2003658 <__fixdfsi>
 2001a28:	1007883a 	mov	r3,r2
 2001a2c:	008082b4 	movhi	r2,522
 2001a30:	10906104 	addi	r2,r2,16772
 2001a34:	18c7883a 	add	r3,r3,r3
 2001a38:	10c5883a 	add	r2,r2,r3
 2001a3c:	1080000b 	ldhu	r2,0(r2)
 2001a40:	e0bffc0d 	sth	r2,-16(fp)
 2001a44:	e03ffc8d 	sth	zero,-14(fp)
 2001a48:	e03ffd0d 	sth	zero,-12(fp)
 2001a4c:	0000b706 	br	2001d2c <displayGamma98ColourBars+0x3c4>
 2001a50:	e0bffa17 	ldw	r2,-24(fp)
 2001a54:	10800210 	cmplti	r2,r2,8
 2001a58:	1000271e 	bne	r2,zero,2001af8 <displayGamma98ColourBars+0x190>
 2001a5c:	e0bffa17 	ldw	r2,-24(fp)
 2001a60:	10800408 	cmpgei	r2,r2,16
 2001a64:	1000241e 	bne	r2,zero,2001af8 <displayGamma98ColourBars+0x190>
 2001a68:	e03ffc0d 	sth	zero,-16(fp)
 2001a6c:	e13ffb17 	ldw	r4,-20(fp)
 2001a70:	20036d80 	call	20036d8 <__floatsidf>
 2001a74:	1011883a 	mov	r8,r2
 2001a78:	1813883a 	mov	r9,r3
 2001a7c:	000d883a 	mov	r6,zero
 2001a80:	01d00ff4 	movhi	r7,16447
 2001a84:	4009883a 	mov	r4,r8
 2001a88:	480b883a 	mov	r5,r9
 2001a8c:	200241c0 	call	200241c <__divdf3>
 2001a90:	1009883a 	mov	r4,r2
 2001a94:	180b883a 	mov	r5,r3
 2001a98:	2005883a 	mov	r2,r4
 2001a9c:	2807883a 	mov	r3,r5
 2001aa0:	000d883a 	mov	r6,zero
 2001aa4:	01d01c34 	movhi	r7,16496
 2001aa8:	39f80004 	addi	r7,r7,-8192
 2001aac:	1009883a 	mov	r4,r2
 2001ab0:	180b883a 	mov	r5,r3
 2001ab4:	2002dec0 	call	2002dec <__muldf3>
 2001ab8:	1009883a 	mov	r4,r2
 2001abc:	180b883a 	mov	r5,r3
 2001ac0:	2005883a 	mov	r2,r4
 2001ac4:	2807883a 	mov	r3,r5
 2001ac8:	1009883a 	mov	r4,r2
 2001acc:	180b883a 	mov	r5,r3
 2001ad0:	20036580 	call	2003658 <__fixdfsi>
 2001ad4:	1007883a 	mov	r3,r2
 2001ad8:	008082b4 	movhi	r2,522
 2001adc:	10906104 	addi	r2,r2,16772
 2001ae0:	18c7883a 	add	r3,r3,r3
 2001ae4:	10c5883a 	add	r2,r2,r3
 2001ae8:	1080000b 	ldhu	r2,0(r2)
 2001aec:	e0bffc8d 	sth	r2,-14(fp)
 2001af0:	e03ffd0d 	sth	zero,-12(fp)
 2001af4:	00008d06 	br	2001d2c <displayGamma98ColourBars+0x3c4>
 2001af8:	e0bffa17 	ldw	r2,-24(fp)
 2001afc:	10800410 	cmplti	r2,r2,16
 2001b00:	1000271e 	bne	r2,zero,2001ba0 <displayGamma98ColourBars+0x238>
 2001b04:	e0bffa17 	ldw	r2,-24(fp)
 2001b08:	10800608 	cmpgei	r2,r2,24
 2001b0c:	1000241e 	bne	r2,zero,2001ba0 <displayGamma98ColourBars+0x238>
 2001b10:	e03ffc0d 	sth	zero,-16(fp)
 2001b14:	e03ffc8d 	sth	zero,-14(fp)
 2001b18:	e13ffb17 	ldw	r4,-20(fp)
 2001b1c:	20036d80 	call	20036d8 <__floatsidf>
 2001b20:	1011883a 	mov	r8,r2
 2001b24:	1813883a 	mov	r9,r3
 2001b28:	000d883a 	mov	r6,zero
 2001b2c:	01d00ff4 	movhi	r7,16447
 2001b30:	4009883a 	mov	r4,r8
 2001b34:	480b883a 	mov	r5,r9
 2001b38:	200241c0 	call	200241c <__divdf3>
 2001b3c:	1009883a 	mov	r4,r2
 2001b40:	180b883a 	mov	r5,r3
 2001b44:	2005883a 	mov	r2,r4
 2001b48:	2807883a 	mov	r3,r5
 2001b4c:	000d883a 	mov	r6,zero
 2001b50:	01d01c34 	movhi	r7,16496
 2001b54:	39f80004 	addi	r7,r7,-8192
 2001b58:	1009883a 	mov	r4,r2
 2001b5c:	180b883a 	mov	r5,r3
 2001b60:	2002dec0 	call	2002dec <__muldf3>
 2001b64:	1009883a 	mov	r4,r2
 2001b68:	180b883a 	mov	r5,r3
 2001b6c:	2005883a 	mov	r2,r4
 2001b70:	2807883a 	mov	r3,r5
 2001b74:	1009883a 	mov	r4,r2
 2001b78:	180b883a 	mov	r5,r3
 2001b7c:	20036580 	call	2003658 <__fixdfsi>
 2001b80:	1007883a 	mov	r3,r2
 2001b84:	008082b4 	movhi	r2,522
 2001b88:	10906104 	addi	r2,r2,16772
 2001b8c:	18c7883a 	add	r3,r3,r3
 2001b90:	10c5883a 	add	r2,r2,r3
 2001b94:	1080000b 	ldhu	r2,0(r2)
 2001b98:	e0bffd0d 	sth	r2,-12(fp)
 2001b9c:	00006306 	br	2001d2c <displayGamma98ColourBars+0x3c4>
 2001ba0:	e13ffb17 	ldw	r4,-20(fp)
 2001ba4:	20036d80 	call	20036d8 <__floatsidf>
 2001ba8:	1011883a 	mov	r8,r2
 2001bac:	1813883a 	mov	r9,r3
 2001bb0:	000d883a 	mov	r6,zero
 2001bb4:	01d00ff4 	movhi	r7,16447
 2001bb8:	4009883a 	mov	r4,r8
 2001bbc:	480b883a 	mov	r5,r9
 2001bc0:	200241c0 	call	200241c <__divdf3>
 2001bc4:	1009883a 	mov	r4,r2
 2001bc8:	180b883a 	mov	r5,r3
 2001bcc:	2005883a 	mov	r2,r4
 2001bd0:	2807883a 	mov	r3,r5
 2001bd4:	000d883a 	mov	r6,zero
 2001bd8:	01d01c34 	movhi	r7,16496
 2001bdc:	39f80004 	addi	r7,r7,-8192
 2001be0:	1009883a 	mov	r4,r2
 2001be4:	180b883a 	mov	r5,r3
 2001be8:	2002dec0 	call	2002dec <__muldf3>
 2001bec:	1009883a 	mov	r4,r2
 2001bf0:	180b883a 	mov	r5,r3
 2001bf4:	2005883a 	mov	r2,r4
 2001bf8:	2807883a 	mov	r3,r5
 2001bfc:	1009883a 	mov	r4,r2
 2001c00:	180b883a 	mov	r5,r3
 2001c04:	20036580 	call	2003658 <__fixdfsi>
 2001c08:	1007883a 	mov	r3,r2
 2001c0c:	008082b4 	movhi	r2,522
 2001c10:	10906104 	addi	r2,r2,16772
 2001c14:	18c7883a 	add	r3,r3,r3
 2001c18:	10c5883a 	add	r2,r2,r3
 2001c1c:	1080000b 	ldhu	r2,0(r2)
 2001c20:	e0bffc0d 	sth	r2,-16(fp)
 2001c24:	e13ffb17 	ldw	r4,-20(fp)
 2001c28:	20036d80 	call	20036d8 <__floatsidf>
 2001c2c:	1011883a 	mov	r8,r2
 2001c30:	1813883a 	mov	r9,r3
 2001c34:	000d883a 	mov	r6,zero
 2001c38:	01d00ff4 	movhi	r7,16447
 2001c3c:	4009883a 	mov	r4,r8
 2001c40:	480b883a 	mov	r5,r9
 2001c44:	200241c0 	call	200241c <__divdf3>
 2001c48:	1009883a 	mov	r4,r2
 2001c4c:	180b883a 	mov	r5,r3
 2001c50:	2005883a 	mov	r2,r4
 2001c54:	2807883a 	mov	r3,r5
 2001c58:	000d883a 	mov	r6,zero
 2001c5c:	01d01c34 	movhi	r7,16496
 2001c60:	39f80004 	addi	r7,r7,-8192
 2001c64:	1009883a 	mov	r4,r2
 2001c68:	180b883a 	mov	r5,r3
 2001c6c:	2002dec0 	call	2002dec <__muldf3>
 2001c70:	1009883a 	mov	r4,r2
 2001c74:	180b883a 	mov	r5,r3
 2001c78:	2005883a 	mov	r2,r4
 2001c7c:	2807883a 	mov	r3,r5
 2001c80:	1009883a 	mov	r4,r2
 2001c84:	180b883a 	mov	r5,r3
 2001c88:	20036580 	call	2003658 <__fixdfsi>
 2001c8c:	1007883a 	mov	r3,r2
 2001c90:	008082b4 	movhi	r2,522
 2001c94:	10906104 	addi	r2,r2,16772
 2001c98:	18c7883a 	add	r3,r3,r3
 2001c9c:	10c5883a 	add	r2,r2,r3
 2001ca0:	1080000b 	ldhu	r2,0(r2)
 2001ca4:	e0bffc8d 	sth	r2,-14(fp)
 2001ca8:	e13ffb17 	ldw	r4,-20(fp)
 2001cac:	20036d80 	call	20036d8 <__floatsidf>
 2001cb0:	1011883a 	mov	r8,r2
 2001cb4:	1813883a 	mov	r9,r3
 2001cb8:	000d883a 	mov	r6,zero
 2001cbc:	01d00ff4 	movhi	r7,16447
 2001cc0:	4009883a 	mov	r4,r8
 2001cc4:	480b883a 	mov	r5,r9
 2001cc8:	200241c0 	call	200241c <__divdf3>
 2001ccc:	1009883a 	mov	r4,r2
 2001cd0:	180b883a 	mov	r5,r3
 2001cd4:	2005883a 	mov	r2,r4
 2001cd8:	2807883a 	mov	r3,r5
 2001cdc:	000d883a 	mov	r6,zero
 2001ce0:	01d01c34 	movhi	r7,16496
 2001ce4:	39f80004 	addi	r7,r7,-8192
 2001ce8:	1009883a 	mov	r4,r2
 2001cec:	180b883a 	mov	r5,r3
 2001cf0:	2002dec0 	call	2002dec <__muldf3>
 2001cf4:	1009883a 	mov	r4,r2
 2001cf8:	180b883a 	mov	r5,r3
 2001cfc:	2005883a 	mov	r2,r4
 2001d00:	2807883a 	mov	r3,r5
 2001d04:	1009883a 	mov	r4,r2
 2001d08:	180b883a 	mov	r5,r3
 2001d0c:	20036580 	call	2003658 <__fixdfsi>
 2001d10:	1007883a 	mov	r3,r2
 2001d14:	008082b4 	movhi	r2,522
 2001d18:	10906104 	addi	r2,r2,16772
 2001d1c:	18c7883a 	add	r3,r3,r3
 2001d20:	10c5883a 	add	r2,r2,r3
 2001d24:	1080000b 	ldhu	r2,0(r2)
 2001d28:	e0bffd0d 	sth	r2,-12(fp)
 2001d2c:	e0bffc0b 	ldhu	r2,-16(fp)
 2001d30:	1004953a 	slli	r2,r2,20
 2001d34:	10cffc2c 	andhi	r3,r2,16368
 2001d38:	e0bffc8b 	ldhu	r2,-14(fp)
 2001d3c:	100892ba 	slli	r4,r2,10
 2001d40:	00800434 	movhi	r2,16
 2001d44:	10bf0004 	addi	r2,r2,-1024
 2001d48:	2084703a 	and	r2,r4,r2
 2001d4c:	1886b03a 	or	r3,r3,r2
 2001d50:	e0bffd0b 	ldhu	r2,-12(fp)
 2001d54:	1080ffcc 	andi	r2,r2,1023
 2001d58:	1884b03a 	or	r2,r3,r2
 2001d5c:	e0bfff15 	stw	r2,-4(fp)
 2001d60:	00810074 	movhi	r2,1025
 2001d64:	10a82004 	addi	r2,r2,-24448
 2001d68:	e0fffe17 	ldw	r3,-8(fp)
 2001d6c:	10c00035 	stwio	r3,0(r2)
 2001d70:	e0ffff17 	ldw	r3,-4(fp)
 2001d74:	00810074 	movhi	r2,1025
 2001d78:	10a81c04 	addi	r2,r2,-24464
 2001d7c:	10c00035 	stwio	r3,0(r2)
 2001d80:	00c00044 	movi	r3,1
 2001d84:	00810074 	movhi	r2,1025
 2001d88:	10a81804 	addi	r2,r2,-24480
 2001d8c:	10c00035 	stwio	r3,0(r2)
 2001d90:	0007883a 	mov	r3,zero
 2001d94:	00810074 	movhi	r2,1025
 2001d98:	10a81804 	addi	r2,r2,-24480
 2001d9c:	10c00035 	stwio	r3,0(r2)
 2001da0:	e0bffb17 	ldw	r2,-20(fp)
 2001da4:	10800044 	addi	r2,r2,1
 2001da8:	e0bffb15 	stw	r2,-20(fp)
 2001dac:	e0bffb17 	ldw	r2,-20(fp)
 2001db0:	10800810 	cmplti	r2,r2,32
 2001db4:	103ef41e 	bne	r2,zero,2001988 <__reset+0xfdff8988>
 2001db8:	e0bffa17 	ldw	r2,-24(fp)
 2001dbc:	10800044 	addi	r2,r2,1
 2001dc0:	e0bffa15 	stw	r2,-24(fp)
 2001dc4:	e0bffa17 	ldw	r2,-24(fp)
 2001dc8:	10800810 	cmplti	r2,r2,32
 2001dcc:	103eec1e 	bne	r2,zero,2001980 <__reset+0xfdff8980>
 2001dd0:	0001883a 	nop
 2001dd4:	e037883a 	mov	sp,fp
 2001dd8:	dfc00117 	ldw	ra,4(sp)
 2001ddc:	df000017 	ldw	fp,0(sp)
 2001de0:	dec00204 	addi	sp,sp,8
 2001de4:	f800283a 	ret

02001de8 <displayGamma46ColourBars>:
 2001de8:	defff804 	addi	sp,sp,-32
 2001dec:	dfc00715 	stw	ra,28(sp)
 2001df0:	df000615 	stw	fp,24(sp)
 2001df4:	df000604 	addi	fp,sp,24
 2001df8:	e03ffa15 	stw	zero,-24(fp)
 2001dfc:	00011106 	br	2002244 <displayGamma46ColourBars+0x45c>
 2001e00:	e03ffb15 	stw	zero,-20(fp)
 2001e04:	00010906 	br	200222c <displayGamma46ColourBars+0x444>
 2001e08:	00810004 	movi	r2,1024
 2001e0c:	e0bffe15 	stw	r2,-8(fp)
 2001e10:	e0bffa17 	ldw	r2,-24(fp)
 2001e14:	1004917a 	slli	r2,r2,5
 2001e18:	e0fffe17 	ldw	r3,-8(fp)
 2001e1c:	1885883a 	add	r2,r3,r2
 2001e20:	e0bffe15 	stw	r2,-8(fp)
 2001e24:	e0fffe17 	ldw	r3,-8(fp)
 2001e28:	e0bffb17 	ldw	r2,-20(fp)
 2001e2c:	1885883a 	add	r2,r3,r2
 2001e30:	e0bffe15 	stw	r2,-8(fp)
 2001e34:	e0bffa17 	ldw	r2,-24(fp)
 2001e38:	10800208 	cmpgei	r2,r2,8
 2001e3c:	1000241e 	bne	r2,zero,2001ed0 <displayGamma46ColourBars+0xe8>
 2001e40:	e13ffb17 	ldw	r4,-20(fp)
 2001e44:	20036d80 	call	20036d8 <__floatsidf>
 2001e48:	1011883a 	mov	r8,r2
 2001e4c:	1813883a 	mov	r9,r3
 2001e50:	000d883a 	mov	r6,zero
 2001e54:	01d00ff4 	movhi	r7,16447
 2001e58:	4009883a 	mov	r4,r8
 2001e5c:	480b883a 	mov	r5,r9
 2001e60:	200241c0 	call	200241c <__divdf3>
 2001e64:	1009883a 	mov	r4,r2
 2001e68:	180b883a 	mov	r5,r3
 2001e6c:	2005883a 	mov	r2,r4
 2001e70:	2807883a 	mov	r3,r5
 2001e74:	000d883a 	mov	r6,zero
 2001e78:	01d01c34 	movhi	r7,16496
 2001e7c:	39f80004 	addi	r7,r7,-8192
 2001e80:	1009883a 	mov	r4,r2
 2001e84:	180b883a 	mov	r5,r3
 2001e88:	2002dec0 	call	2002dec <__muldf3>
 2001e8c:	1009883a 	mov	r4,r2
 2001e90:	180b883a 	mov	r5,r3
 2001e94:	2005883a 	mov	r2,r4
 2001e98:	2807883a 	mov	r3,r5
 2001e9c:	1009883a 	mov	r4,r2
 2001ea0:	180b883a 	mov	r5,r3
 2001ea4:	20036580 	call	2003658 <__fixdfsi>
 2001ea8:	1007883a 	mov	r3,r2
 2001eac:	008082b4 	movhi	r2,522
 2001eb0:	1090e104 	addi	r2,r2,17284
 2001eb4:	18c7883a 	add	r3,r3,r3
 2001eb8:	10c5883a 	add	r2,r2,r3
 2001ebc:	1080000b 	ldhu	r2,0(r2)
 2001ec0:	e0bffc0d 	sth	r2,-16(fp)
 2001ec4:	e03ffc8d 	sth	zero,-14(fp)
 2001ec8:	e03ffd0d 	sth	zero,-12(fp)
 2001ecc:	0000b706 	br	20021ac <displayGamma46ColourBars+0x3c4>
 2001ed0:	e0bffa17 	ldw	r2,-24(fp)
 2001ed4:	10800210 	cmplti	r2,r2,8
 2001ed8:	1000271e 	bne	r2,zero,2001f78 <displayGamma46ColourBars+0x190>
 2001edc:	e0bffa17 	ldw	r2,-24(fp)
 2001ee0:	10800408 	cmpgei	r2,r2,16
 2001ee4:	1000241e 	bne	r2,zero,2001f78 <displayGamma46ColourBars+0x190>
 2001ee8:	e03ffc0d 	sth	zero,-16(fp)
 2001eec:	e13ffb17 	ldw	r4,-20(fp)
 2001ef0:	20036d80 	call	20036d8 <__floatsidf>
 2001ef4:	1011883a 	mov	r8,r2
 2001ef8:	1813883a 	mov	r9,r3
 2001efc:	000d883a 	mov	r6,zero
 2001f00:	01d00ff4 	movhi	r7,16447
 2001f04:	4009883a 	mov	r4,r8
 2001f08:	480b883a 	mov	r5,r9
 2001f0c:	200241c0 	call	200241c <__divdf3>
 2001f10:	1009883a 	mov	r4,r2
 2001f14:	180b883a 	mov	r5,r3
 2001f18:	2005883a 	mov	r2,r4
 2001f1c:	2807883a 	mov	r3,r5
 2001f20:	000d883a 	mov	r6,zero
 2001f24:	01d01c34 	movhi	r7,16496
 2001f28:	39f80004 	addi	r7,r7,-8192
 2001f2c:	1009883a 	mov	r4,r2
 2001f30:	180b883a 	mov	r5,r3
 2001f34:	2002dec0 	call	2002dec <__muldf3>
 2001f38:	1009883a 	mov	r4,r2
 2001f3c:	180b883a 	mov	r5,r3
 2001f40:	2005883a 	mov	r2,r4
 2001f44:	2807883a 	mov	r3,r5
 2001f48:	1009883a 	mov	r4,r2
 2001f4c:	180b883a 	mov	r5,r3
 2001f50:	20036580 	call	2003658 <__fixdfsi>
 2001f54:	1007883a 	mov	r3,r2
 2001f58:	008082b4 	movhi	r2,522
 2001f5c:	1090e104 	addi	r2,r2,17284
 2001f60:	18c7883a 	add	r3,r3,r3
 2001f64:	10c5883a 	add	r2,r2,r3
 2001f68:	1080000b 	ldhu	r2,0(r2)
 2001f6c:	e0bffc8d 	sth	r2,-14(fp)
 2001f70:	e03ffd0d 	sth	zero,-12(fp)
 2001f74:	00008d06 	br	20021ac <displayGamma46ColourBars+0x3c4>
 2001f78:	e0bffa17 	ldw	r2,-24(fp)
 2001f7c:	10800410 	cmplti	r2,r2,16
 2001f80:	1000271e 	bne	r2,zero,2002020 <displayGamma46ColourBars+0x238>
 2001f84:	e0bffa17 	ldw	r2,-24(fp)
 2001f88:	10800608 	cmpgei	r2,r2,24
 2001f8c:	1000241e 	bne	r2,zero,2002020 <displayGamma46ColourBars+0x238>
 2001f90:	e03ffc0d 	sth	zero,-16(fp)
 2001f94:	e03ffc8d 	sth	zero,-14(fp)
 2001f98:	e13ffb17 	ldw	r4,-20(fp)
 2001f9c:	20036d80 	call	20036d8 <__floatsidf>
 2001fa0:	1011883a 	mov	r8,r2
 2001fa4:	1813883a 	mov	r9,r3
 2001fa8:	000d883a 	mov	r6,zero
 2001fac:	01d00ff4 	movhi	r7,16447
 2001fb0:	4009883a 	mov	r4,r8
 2001fb4:	480b883a 	mov	r5,r9
 2001fb8:	200241c0 	call	200241c <__divdf3>
 2001fbc:	1009883a 	mov	r4,r2
 2001fc0:	180b883a 	mov	r5,r3
 2001fc4:	2005883a 	mov	r2,r4
 2001fc8:	2807883a 	mov	r3,r5
 2001fcc:	000d883a 	mov	r6,zero
 2001fd0:	01d01c34 	movhi	r7,16496
 2001fd4:	39f80004 	addi	r7,r7,-8192
 2001fd8:	1009883a 	mov	r4,r2
 2001fdc:	180b883a 	mov	r5,r3
 2001fe0:	2002dec0 	call	2002dec <__muldf3>
 2001fe4:	1009883a 	mov	r4,r2
 2001fe8:	180b883a 	mov	r5,r3
 2001fec:	2005883a 	mov	r2,r4
 2001ff0:	2807883a 	mov	r3,r5
 2001ff4:	1009883a 	mov	r4,r2
 2001ff8:	180b883a 	mov	r5,r3
 2001ffc:	20036580 	call	2003658 <__fixdfsi>
 2002000:	1007883a 	mov	r3,r2
 2002004:	008082b4 	movhi	r2,522
 2002008:	1090e104 	addi	r2,r2,17284
 200200c:	18c7883a 	add	r3,r3,r3
 2002010:	10c5883a 	add	r2,r2,r3
 2002014:	1080000b 	ldhu	r2,0(r2)
 2002018:	e0bffd0d 	sth	r2,-12(fp)
 200201c:	00006306 	br	20021ac <displayGamma46ColourBars+0x3c4>
 2002020:	e13ffb17 	ldw	r4,-20(fp)
 2002024:	20036d80 	call	20036d8 <__floatsidf>
 2002028:	1011883a 	mov	r8,r2
 200202c:	1813883a 	mov	r9,r3
 2002030:	000d883a 	mov	r6,zero
 2002034:	01d00ff4 	movhi	r7,16447
 2002038:	4009883a 	mov	r4,r8
 200203c:	480b883a 	mov	r5,r9
 2002040:	200241c0 	call	200241c <__divdf3>
 2002044:	1009883a 	mov	r4,r2
 2002048:	180b883a 	mov	r5,r3
 200204c:	2005883a 	mov	r2,r4
 2002050:	2807883a 	mov	r3,r5
 2002054:	000d883a 	mov	r6,zero
 2002058:	01d01c34 	movhi	r7,16496
 200205c:	39f80004 	addi	r7,r7,-8192
 2002060:	1009883a 	mov	r4,r2
 2002064:	180b883a 	mov	r5,r3
 2002068:	2002dec0 	call	2002dec <__muldf3>
 200206c:	1009883a 	mov	r4,r2
 2002070:	180b883a 	mov	r5,r3
 2002074:	2005883a 	mov	r2,r4
 2002078:	2807883a 	mov	r3,r5
 200207c:	1009883a 	mov	r4,r2
 2002080:	180b883a 	mov	r5,r3
 2002084:	20036580 	call	2003658 <__fixdfsi>
 2002088:	1007883a 	mov	r3,r2
 200208c:	008082b4 	movhi	r2,522
 2002090:	1090e104 	addi	r2,r2,17284
 2002094:	18c7883a 	add	r3,r3,r3
 2002098:	10c5883a 	add	r2,r2,r3
 200209c:	1080000b 	ldhu	r2,0(r2)
 20020a0:	e0bffc0d 	sth	r2,-16(fp)
 20020a4:	e13ffb17 	ldw	r4,-20(fp)
 20020a8:	20036d80 	call	20036d8 <__floatsidf>
 20020ac:	1011883a 	mov	r8,r2
 20020b0:	1813883a 	mov	r9,r3
 20020b4:	000d883a 	mov	r6,zero
 20020b8:	01d00ff4 	movhi	r7,16447
 20020bc:	4009883a 	mov	r4,r8
 20020c0:	480b883a 	mov	r5,r9
 20020c4:	200241c0 	call	200241c <__divdf3>
 20020c8:	1009883a 	mov	r4,r2
 20020cc:	180b883a 	mov	r5,r3
 20020d0:	2005883a 	mov	r2,r4
 20020d4:	2807883a 	mov	r3,r5
 20020d8:	000d883a 	mov	r6,zero
 20020dc:	01d01c34 	movhi	r7,16496
 20020e0:	39f80004 	addi	r7,r7,-8192
 20020e4:	1009883a 	mov	r4,r2
 20020e8:	180b883a 	mov	r5,r3
 20020ec:	2002dec0 	call	2002dec <__muldf3>
 20020f0:	1009883a 	mov	r4,r2
 20020f4:	180b883a 	mov	r5,r3
 20020f8:	2005883a 	mov	r2,r4
 20020fc:	2807883a 	mov	r3,r5
 2002100:	1009883a 	mov	r4,r2
 2002104:	180b883a 	mov	r5,r3
 2002108:	20036580 	call	2003658 <__fixdfsi>
 200210c:	1007883a 	mov	r3,r2
 2002110:	008082b4 	movhi	r2,522
 2002114:	1090e104 	addi	r2,r2,17284
 2002118:	18c7883a 	add	r3,r3,r3
 200211c:	10c5883a 	add	r2,r2,r3
 2002120:	1080000b 	ldhu	r2,0(r2)
 2002124:	e0bffc8d 	sth	r2,-14(fp)
 2002128:	e13ffb17 	ldw	r4,-20(fp)
 200212c:	20036d80 	call	20036d8 <__floatsidf>
 2002130:	1011883a 	mov	r8,r2
 2002134:	1813883a 	mov	r9,r3
 2002138:	000d883a 	mov	r6,zero
 200213c:	01d00ff4 	movhi	r7,16447
 2002140:	4009883a 	mov	r4,r8
 2002144:	480b883a 	mov	r5,r9
 2002148:	200241c0 	call	200241c <__divdf3>
 200214c:	1009883a 	mov	r4,r2
 2002150:	180b883a 	mov	r5,r3
 2002154:	2005883a 	mov	r2,r4
 2002158:	2807883a 	mov	r3,r5
 200215c:	000d883a 	mov	r6,zero
 2002160:	01d01c34 	movhi	r7,16496
 2002164:	39f80004 	addi	r7,r7,-8192
 2002168:	1009883a 	mov	r4,r2
 200216c:	180b883a 	mov	r5,r3
 2002170:	2002dec0 	call	2002dec <__muldf3>
 2002174:	1009883a 	mov	r4,r2
 2002178:	180b883a 	mov	r5,r3
 200217c:	2005883a 	mov	r2,r4
 2002180:	2807883a 	mov	r3,r5
 2002184:	1009883a 	mov	r4,r2
 2002188:	180b883a 	mov	r5,r3
 200218c:	20036580 	call	2003658 <__fixdfsi>
 2002190:	1007883a 	mov	r3,r2
 2002194:	008082b4 	movhi	r2,522
 2002198:	1090e104 	addi	r2,r2,17284
 200219c:	18c7883a 	add	r3,r3,r3
 20021a0:	10c5883a 	add	r2,r2,r3
 20021a4:	1080000b 	ldhu	r2,0(r2)
 20021a8:	e0bffd0d 	sth	r2,-12(fp)
 20021ac:	e0bffc0b 	ldhu	r2,-16(fp)
 20021b0:	1004953a 	slli	r2,r2,20
 20021b4:	10cffc2c 	andhi	r3,r2,16368
 20021b8:	e0bffc8b 	ldhu	r2,-14(fp)
 20021bc:	100892ba 	slli	r4,r2,10
 20021c0:	00800434 	movhi	r2,16
 20021c4:	10bf0004 	addi	r2,r2,-1024
 20021c8:	2084703a 	and	r2,r4,r2
 20021cc:	1886b03a 	or	r3,r3,r2
 20021d0:	e0bffd0b 	ldhu	r2,-12(fp)
 20021d4:	1080ffcc 	andi	r2,r2,1023
 20021d8:	1884b03a 	or	r2,r3,r2
 20021dc:	e0bfff15 	stw	r2,-4(fp)
 20021e0:	00810074 	movhi	r2,1025
 20021e4:	10a82004 	addi	r2,r2,-24448
 20021e8:	e0fffe17 	ldw	r3,-8(fp)
 20021ec:	10c00035 	stwio	r3,0(r2)
 20021f0:	e0ffff17 	ldw	r3,-4(fp)
 20021f4:	00810074 	movhi	r2,1025
 20021f8:	10a81c04 	addi	r2,r2,-24464
 20021fc:	10c00035 	stwio	r3,0(r2)
 2002200:	00c00044 	movi	r3,1
 2002204:	00810074 	movhi	r2,1025
 2002208:	10a81804 	addi	r2,r2,-24480
 200220c:	10c00035 	stwio	r3,0(r2)
 2002210:	0007883a 	mov	r3,zero
 2002214:	00810074 	movhi	r2,1025
 2002218:	10a81804 	addi	r2,r2,-24480
 200221c:	10c00035 	stwio	r3,0(r2)
 2002220:	e0bffb17 	ldw	r2,-20(fp)
 2002224:	10800044 	addi	r2,r2,1
 2002228:	e0bffb15 	stw	r2,-20(fp)
 200222c:	e0bffb17 	ldw	r2,-20(fp)
 2002230:	10800810 	cmplti	r2,r2,32
 2002234:	103ef41e 	bne	r2,zero,2001e08 <__reset+0xfdff8e08>
 2002238:	e0bffa17 	ldw	r2,-24(fp)
 200223c:	10800044 	addi	r2,r2,1
 2002240:	e0bffa15 	stw	r2,-24(fp)
 2002244:	e0bffa17 	ldw	r2,-24(fp)
 2002248:	10800810 	cmplti	r2,r2,32
 200224c:	103eec1e 	bne	r2,zero,2001e00 <__reset+0xfdff8e00>
 2002250:	0001883a 	nop
 2002254:	e037883a 	mov	sp,fp
 2002258:	dfc00117 	ldw	ra,4(sp)
 200225c:	df000017 	ldw	fp,0(sp)
 2002260:	dec00204 	addi	sp,sp,8
 2002264:	f800283a 	ret

02002268 <__divsi3>:
 2002268:	20001b16 	blt	r4,zero,20022d8 <__divsi3+0x70>
 200226c:	000f883a 	mov	r7,zero
 2002270:	28001616 	blt	r5,zero,20022cc <__divsi3+0x64>
 2002274:	200d883a 	mov	r6,r4
 2002278:	29001a2e 	bgeu	r5,r4,20022e4 <__divsi3+0x7c>
 200227c:	00800804 	movi	r2,32
 2002280:	00c00044 	movi	r3,1
 2002284:	00000106 	br	200228c <__divsi3+0x24>
 2002288:	10000d26 	beq	r2,zero,20022c0 <__divsi3+0x58>
 200228c:	294b883a 	add	r5,r5,r5
 2002290:	10bfffc4 	addi	r2,r2,-1
 2002294:	18c7883a 	add	r3,r3,r3
 2002298:	293ffb36 	bltu	r5,r4,2002288 <__reset+0xfdff9288>
 200229c:	0005883a 	mov	r2,zero
 20022a0:	18000726 	beq	r3,zero,20022c0 <__divsi3+0x58>
 20022a4:	0005883a 	mov	r2,zero
 20022a8:	31400236 	bltu	r6,r5,20022b4 <__divsi3+0x4c>
 20022ac:	314dc83a 	sub	r6,r6,r5
 20022b0:	10c4b03a 	or	r2,r2,r3
 20022b4:	1806d07a 	srli	r3,r3,1
 20022b8:	280ad07a 	srli	r5,r5,1
 20022bc:	183ffa1e 	bne	r3,zero,20022a8 <__reset+0xfdff92a8>
 20022c0:	38000126 	beq	r7,zero,20022c8 <__divsi3+0x60>
 20022c4:	0085c83a 	sub	r2,zero,r2
 20022c8:	f800283a 	ret
 20022cc:	014bc83a 	sub	r5,zero,r5
 20022d0:	39c0005c 	xori	r7,r7,1
 20022d4:	003fe706 	br	2002274 <__reset+0xfdff9274>
 20022d8:	0109c83a 	sub	r4,zero,r4
 20022dc:	01c00044 	movi	r7,1
 20022e0:	003fe306 	br	2002270 <__reset+0xfdff9270>
 20022e4:	00c00044 	movi	r3,1
 20022e8:	003fee06 	br	20022a4 <__reset+0xfdff92a4>

020022ec <__modsi3>:
 20022ec:	20001716 	blt	r4,zero,200234c <__modsi3+0x60>
 20022f0:	000f883a 	mov	r7,zero
 20022f4:	2005883a 	mov	r2,r4
 20022f8:	28001216 	blt	r5,zero,2002344 <__modsi3+0x58>
 20022fc:	2900162e 	bgeu	r5,r4,2002358 <__modsi3+0x6c>
 2002300:	01800804 	movi	r6,32
 2002304:	00c00044 	movi	r3,1
 2002308:	00000106 	br	2002310 <__modsi3+0x24>
 200230c:	30000a26 	beq	r6,zero,2002338 <__modsi3+0x4c>
 2002310:	294b883a 	add	r5,r5,r5
 2002314:	31bfffc4 	addi	r6,r6,-1
 2002318:	18c7883a 	add	r3,r3,r3
 200231c:	293ffb36 	bltu	r5,r4,200230c <__reset+0xfdff930c>
 2002320:	18000526 	beq	r3,zero,2002338 <__modsi3+0x4c>
 2002324:	1806d07a 	srli	r3,r3,1
 2002328:	11400136 	bltu	r2,r5,2002330 <__modsi3+0x44>
 200232c:	1145c83a 	sub	r2,r2,r5
 2002330:	280ad07a 	srli	r5,r5,1
 2002334:	183ffb1e 	bne	r3,zero,2002324 <__reset+0xfdff9324>
 2002338:	38000126 	beq	r7,zero,2002340 <__modsi3+0x54>
 200233c:	0085c83a 	sub	r2,zero,r2
 2002340:	f800283a 	ret
 2002344:	014bc83a 	sub	r5,zero,r5
 2002348:	003fec06 	br	20022fc <__reset+0xfdff92fc>
 200234c:	0109c83a 	sub	r4,zero,r4
 2002350:	01c00044 	movi	r7,1
 2002354:	003fe706 	br	20022f4 <__reset+0xfdff92f4>
 2002358:	00c00044 	movi	r3,1
 200235c:	003ff106 	br	2002324 <__reset+0xfdff9324>

02002360 <__udivsi3>:
 2002360:	200d883a 	mov	r6,r4
 2002364:	2900152e 	bgeu	r5,r4,20023bc <__udivsi3+0x5c>
 2002368:	28001416 	blt	r5,zero,20023bc <__udivsi3+0x5c>
 200236c:	00800804 	movi	r2,32
 2002370:	00c00044 	movi	r3,1
 2002374:	00000206 	br	2002380 <__udivsi3+0x20>
 2002378:	10000e26 	beq	r2,zero,20023b4 <__udivsi3+0x54>
 200237c:	28000516 	blt	r5,zero,2002394 <__udivsi3+0x34>
 2002380:	294b883a 	add	r5,r5,r5
 2002384:	10bfffc4 	addi	r2,r2,-1
 2002388:	18c7883a 	add	r3,r3,r3
 200238c:	293ffa36 	bltu	r5,r4,2002378 <__reset+0xfdff9378>
 2002390:	18000826 	beq	r3,zero,20023b4 <__udivsi3+0x54>
 2002394:	0005883a 	mov	r2,zero
 2002398:	31400236 	bltu	r6,r5,20023a4 <__udivsi3+0x44>
 200239c:	314dc83a 	sub	r6,r6,r5
 20023a0:	10c4b03a 	or	r2,r2,r3
 20023a4:	1806d07a 	srli	r3,r3,1
 20023a8:	280ad07a 	srli	r5,r5,1
 20023ac:	183ffa1e 	bne	r3,zero,2002398 <__reset+0xfdff9398>
 20023b0:	f800283a 	ret
 20023b4:	0005883a 	mov	r2,zero
 20023b8:	f800283a 	ret
 20023bc:	00c00044 	movi	r3,1
 20023c0:	003ff406 	br	2002394 <__reset+0xfdff9394>

020023c4 <__umodsi3>:
 20023c4:	2005883a 	mov	r2,r4
 20023c8:	2900122e 	bgeu	r5,r4,2002414 <__umodsi3+0x50>
 20023cc:	28001116 	blt	r5,zero,2002414 <__umodsi3+0x50>
 20023d0:	01800804 	movi	r6,32
 20023d4:	00c00044 	movi	r3,1
 20023d8:	00000206 	br	20023e4 <__umodsi3+0x20>
 20023dc:	30000c26 	beq	r6,zero,2002410 <__umodsi3+0x4c>
 20023e0:	28000516 	blt	r5,zero,20023f8 <__umodsi3+0x34>
 20023e4:	294b883a 	add	r5,r5,r5
 20023e8:	31bfffc4 	addi	r6,r6,-1
 20023ec:	18c7883a 	add	r3,r3,r3
 20023f0:	293ffa36 	bltu	r5,r4,20023dc <__reset+0xfdff93dc>
 20023f4:	18000626 	beq	r3,zero,2002410 <__umodsi3+0x4c>
 20023f8:	1806d07a 	srli	r3,r3,1
 20023fc:	11400136 	bltu	r2,r5,2002404 <__umodsi3+0x40>
 2002400:	1145c83a 	sub	r2,r2,r5
 2002404:	280ad07a 	srli	r5,r5,1
 2002408:	183ffb1e 	bne	r3,zero,20023f8 <__reset+0xfdff93f8>
 200240c:	f800283a 	ret
 2002410:	f800283a 	ret
 2002414:	00c00044 	movi	r3,1
 2002418:	003ff706 	br	20023f8 <__reset+0xfdff93f8>

0200241c <__divdf3>:
 200241c:	defff004 	addi	sp,sp,-64
 2002420:	dc800815 	stw	r18,32(sp)
 2002424:	2824d53a 	srli	r18,r5,20
 2002428:	dd800c15 	stw	r22,48(sp)
 200242c:	282cd7fa 	srli	r22,r5,31
 2002430:	dc000615 	stw	r16,24(sp)
 2002434:	04000434 	movhi	r16,16
 2002438:	843fffc4 	addi	r16,r16,-1
 200243c:	dfc00f15 	stw	ra,60(sp)
 2002440:	df000e15 	stw	fp,56(sp)
 2002444:	ddc00d15 	stw	r23,52(sp)
 2002448:	dd400b15 	stw	r21,44(sp)
 200244c:	dd000a15 	stw	r20,40(sp)
 2002450:	dcc00915 	stw	r19,36(sp)
 2002454:	dc400715 	stw	r17,28(sp)
 2002458:	9481ffcc 	andi	r18,r18,2047
 200245c:	2c20703a 	and	r16,r5,r16
 2002460:	b2003fcc 	andi	r8,r22,255
 2002464:	90006126 	beq	r18,zero,20025ec <__divdf3+0x1d0>
 2002468:	0081ffc4 	movi	r2,2047
 200246c:	202b883a 	mov	r21,r4
 2002470:	90803726 	beq	r18,r2,2002550 <__divdf3+0x134>
 2002474:	80800434 	orhi	r2,r16,16
 2002478:	100490fa 	slli	r2,r2,3
 200247c:	2020d77a 	srli	r16,r4,29
 2002480:	202a90fa 	slli	r21,r4,3
 2002484:	94bf0044 	addi	r18,r18,-1023
 2002488:	80a0b03a 	or	r16,r16,r2
 200248c:	0013883a 	mov	r9,zero
 2002490:	000b883a 	mov	r5,zero
 2002494:	3806d53a 	srli	r3,r7,20
 2002498:	382ed7fa 	srli	r23,r7,31
 200249c:	04400434 	movhi	r17,16
 20024a0:	8c7fffc4 	addi	r17,r17,-1
 20024a4:	18c1ffcc 	andi	r3,r3,2047
 20024a8:	3029883a 	mov	r20,r6
 20024ac:	3c62703a 	and	r17,r7,r17
 20024b0:	bf003fcc 	andi	fp,r23,255
 20024b4:	18006e26 	beq	r3,zero,2002670 <__divdf3+0x254>
 20024b8:	0081ffc4 	movi	r2,2047
 20024bc:	18806626 	beq	r3,r2,2002658 <__divdf3+0x23c>
 20024c0:	88800434 	orhi	r2,r17,16
 20024c4:	100490fa 	slli	r2,r2,3
 20024c8:	3022d77a 	srli	r17,r6,29
 20024cc:	302890fa 	slli	r20,r6,3
 20024d0:	18ff0044 	addi	r3,r3,-1023
 20024d4:	88a2b03a 	or	r17,r17,r2
 20024d8:	000f883a 	mov	r7,zero
 20024dc:	b5e6f03a 	xor	r19,r22,r23
 20024e0:	3a4cb03a 	or	r6,r7,r9
 20024e4:	008003c4 	movi	r2,15
 20024e8:	9809883a 	mov	r4,r19
 20024ec:	90c7c83a 	sub	r3,r18,r3
 20024f0:	9cc03fcc 	andi	r19,r19,255
 20024f4:	11809636 	bltu	r2,r6,2002750 <__divdf3+0x334>
 20024f8:	300c90ba 	slli	r6,r6,2
 20024fc:	00808034 	movhi	r2,512
 2002500:	10894404 	addi	r2,r2,9488
 2002504:	308d883a 	add	r6,r6,r2
 2002508:	30800017 	ldw	r2,0(r6)
 200250c:	1000683a 	jmp	r2
 2002510:	02002750 	cmplti	r8,zero,157
 2002514:	02002588 	cmpgei	r8,zero,150
 2002518:	02002740 	call	200274 <__alt_mem_sdram_controller-0x1dffd8c>
 200251c:	0200257c 	xorhi	r8,zero,149
 2002520:	02002740 	call	200274 <__alt_mem_sdram_controller-0x1dffd8c>
 2002524:	02002714 	movui	r8,156
 2002528:	02002740 	call	200274 <__alt_mem_sdram_controller-0x1dffd8c>
 200252c:	0200257c 	xorhi	r8,zero,149
 2002530:	02002588 	cmpgei	r8,zero,150
 2002534:	02002588 	cmpgei	r8,zero,150
 2002538:	02002714 	movui	r8,156
 200253c:	0200257c 	xorhi	r8,zero,149
 2002540:	0200256c 	andhi	r8,zero,149
 2002544:	0200256c 	andhi	r8,zero,149
 2002548:	0200256c 	andhi	r8,zero,149
 200254c:	02002ad8 	cmpnei	r8,zero,171
 2002550:	2404b03a 	or	r2,r4,r16
 2002554:	10006c1e 	bne	r2,zero,2002708 <__divdf3+0x2ec>
 2002558:	02400204 	movi	r9,8
 200255c:	0021883a 	mov	r16,zero
 2002560:	002b883a 	mov	r21,zero
 2002564:	01400084 	movi	r5,2
 2002568:	003fca06 	br	2002494 <__reset+0xfdff9494>
 200256c:	8023883a 	mov	r17,r16
 2002570:	a829883a 	mov	r20,r21
 2002574:	4039883a 	mov	fp,r8
 2002578:	280f883a 	mov	r7,r5
 200257c:	00800084 	movi	r2,2
 2002580:	3881601e 	bne	r7,r2,2002b04 <__divdf3+0x6e8>
 2002584:	e027883a 	mov	r19,fp
 2002588:	9900004c 	andi	r4,r19,1
 200258c:	0081ffc4 	movi	r2,2047
 2002590:	0021883a 	mov	r16,zero
 2002594:	002b883a 	mov	r21,zero
 2002598:	1004953a 	slli	r2,r2,20
 200259c:	20c03fcc 	andi	r3,r4,255
 20025a0:	01400434 	movhi	r5,16
 20025a4:	297fffc4 	addi	r5,r5,-1
 20025a8:	180697fa 	slli	r3,r3,31
 20025ac:	8160703a 	and	r16,r16,r5
 20025b0:	80a0b03a 	or	r16,r16,r2
 20025b4:	80c6b03a 	or	r3,r16,r3
 20025b8:	a805883a 	mov	r2,r21
 20025bc:	dfc00f17 	ldw	ra,60(sp)
 20025c0:	df000e17 	ldw	fp,56(sp)
 20025c4:	ddc00d17 	ldw	r23,52(sp)
 20025c8:	dd800c17 	ldw	r22,48(sp)
 20025cc:	dd400b17 	ldw	r21,44(sp)
 20025d0:	dd000a17 	ldw	r20,40(sp)
 20025d4:	dcc00917 	ldw	r19,36(sp)
 20025d8:	dc800817 	ldw	r18,32(sp)
 20025dc:	dc400717 	ldw	r17,28(sp)
 20025e0:	dc000617 	ldw	r16,24(sp)
 20025e4:	dec01004 	addi	sp,sp,64
 20025e8:	f800283a 	ret
 20025ec:	2404b03a 	or	r2,r4,r16
 20025f0:	2023883a 	mov	r17,r4
 20025f4:	10003f26 	beq	r2,zero,20026f4 <__divdf3+0x2d8>
 20025f8:	80015e26 	beq	r16,zero,2002b74 <__divdf3+0x758>
 20025fc:	8009883a 	mov	r4,r16
 2002600:	d9800215 	stw	r6,8(sp)
 2002604:	d9c00515 	stw	r7,20(sp)
 2002608:	da000415 	stw	r8,16(sp)
 200260c:	20037b40 	call	20037b4 <__clzsi2>
 2002610:	d9800217 	ldw	r6,8(sp)
 2002614:	d9c00517 	ldw	r7,20(sp)
 2002618:	da000417 	ldw	r8,16(sp)
 200261c:	113ffd44 	addi	r4,r2,-11
 2002620:	00c00704 	movi	r3,28
 2002624:	19014f16 	blt	r3,r4,2002b64 <__divdf3+0x748>
 2002628:	00c00744 	movi	r3,29
 200262c:	157ffe04 	addi	r21,r2,-8
 2002630:	1907c83a 	sub	r3,r3,r4
 2002634:	8560983a 	sll	r16,r16,r21
 2002638:	88c6d83a 	srl	r3,r17,r3
 200263c:	8d6a983a 	sll	r21,r17,r21
 2002640:	1c20b03a 	or	r16,r3,r16
 2002644:	1080fcc4 	addi	r2,r2,1011
 2002648:	00a5c83a 	sub	r18,zero,r2
 200264c:	0013883a 	mov	r9,zero
 2002650:	000b883a 	mov	r5,zero
 2002654:	003f8f06 	br	2002494 <__reset+0xfdff9494>
 2002658:	3444b03a 	or	r2,r6,r17
 200265c:	1000231e 	bne	r2,zero,20026ec <__divdf3+0x2d0>
 2002660:	0023883a 	mov	r17,zero
 2002664:	0029883a 	mov	r20,zero
 2002668:	01c00084 	movi	r7,2
 200266c:	003f9b06 	br	20024dc <__reset+0xfdff94dc>
 2002670:	3444b03a 	or	r2,r6,r17
 2002674:	10001926 	beq	r2,zero,20026dc <__divdf3+0x2c0>
 2002678:	88014b26 	beq	r17,zero,2002ba8 <__divdf3+0x78c>
 200267c:	8809883a 	mov	r4,r17
 2002680:	d9400115 	stw	r5,4(sp)
 2002684:	d9800215 	stw	r6,8(sp)
 2002688:	da000415 	stw	r8,16(sp)
 200268c:	da400315 	stw	r9,12(sp)
 2002690:	20037b40 	call	20037b4 <__clzsi2>
 2002694:	d9400117 	ldw	r5,4(sp)
 2002698:	d9800217 	ldw	r6,8(sp)
 200269c:	da000417 	ldw	r8,16(sp)
 20026a0:	da400317 	ldw	r9,12(sp)
 20026a4:	113ffd44 	addi	r4,r2,-11
 20026a8:	00c00704 	movi	r3,28
 20026ac:	19013a16 	blt	r3,r4,2002b98 <__divdf3+0x77c>
 20026b0:	00c00744 	movi	r3,29
 20026b4:	153ffe04 	addi	r20,r2,-8
 20026b8:	1907c83a 	sub	r3,r3,r4
 20026bc:	8d22983a 	sll	r17,r17,r20
 20026c0:	30c6d83a 	srl	r3,r6,r3
 20026c4:	3528983a 	sll	r20,r6,r20
 20026c8:	1c62b03a 	or	r17,r3,r17
 20026cc:	1080fcc4 	addi	r2,r2,1011
 20026d0:	0087c83a 	sub	r3,zero,r2
 20026d4:	000f883a 	mov	r7,zero
 20026d8:	003f8006 	br	20024dc <__reset+0xfdff94dc>
 20026dc:	0023883a 	mov	r17,zero
 20026e0:	0029883a 	mov	r20,zero
 20026e4:	01c00044 	movi	r7,1
 20026e8:	003f7c06 	br	20024dc <__reset+0xfdff94dc>
 20026ec:	01c000c4 	movi	r7,3
 20026f0:	003f7a06 	br	20024dc <__reset+0xfdff94dc>
 20026f4:	02400104 	movi	r9,4
 20026f8:	0021883a 	mov	r16,zero
 20026fc:	002b883a 	mov	r21,zero
 2002700:	01400044 	movi	r5,1
 2002704:	003f6306 	br	2002494 <__reset+0xfdff9494>
 2002708:	02400304 	movi	r9,12
 200270c:	014000c4 	movi	r5,3
 2002710:	003f6006 	br	2002494 <__reset+0xfdff9494>
 2002714:	04000434 	movhi	r16,16
 2002718:	0009883a 	mov	r4,zero
 200271c:	843fffc4 	addi	r16,r16,-1
 2002720:	057fffc4 	movi	r21,-1
 2002724:	0081ffc4 	movi	r2,2047
 2002728:	003f9b06 	br	2002598 <__reset+0xfdff9598>
 200272c:	00c00044 	movi	r3,1
 2002730:	1887c83a 	sub	r3,r3,r2
 2002734:	01000e04 	movi	r4,56
 2002738:	20c1530e 	bge	r4,r3,2002c88 <__divdf3+0x86c>
 200273c:	9900004c 	andi	r4,r19,1
 2002740:	0005883a 	mov	r2,zero
 2002744:	0021883a 	mov	r16,zero
 2002748:	002b883a 	mov	r21,zero
 200274c:	003f9206 	br	2002598 <__reset+0xfdff9598>
 2002750:	8c012e36 	bltu	r17,r16,2002c0c <__divdf3+0x7f0>
 2002754:	84412c26 	beq	r16,r17,2002c08 <__divdf3+0x7ec>
 2002758:	a82f883a 	mov	r23,r21
 200275c:	18ffffc4 	addi	r3,r3,-1
 2002760:	002b883a 	mov	r21,zero
 2002764:	a004d63a 	srli	r2,r20,24
 2002768:	8822923a 	slli	r17,r17,8
 200276c:	a028923a 	slli	r20,r20,8
 2002770:	8009883a 	mov	r4,r16
 2002774:	88acb03a 	or	r22,r17,r2
 2002778:	dd000015 	stw	r20,0(sp)
 200277c:	b028d43a 	srli	r20,r22,16
 2002780:	d8c00215 	stw	r3,8(sp)
 2002784:	b4bfffcc 	andi	r18,r22,65535
 2002788:	a00b883a 	mov	r5,r20
 200278c:	20023600 	call	2002360 <__udivsi3>
 2002790:	100b883a 	mov	r5,r2
 2002794:	9009883a 	mov	r4,r18
 2002798:	1023883a 	mov	r17,r2
 200279c:	20038180 	call	2003818 <__mulsi3>
 20027a0:	8009883a 	mov	r4,r16
 20027a4:	a00b883a 	mov	r5,r20
 20027a8:	1039883a 	mov	fp,r2
 20027ac:	20023c40 	call	20023c4 <__umodsi3>
 20027b0:	1004943a 	slli	r2,r2,16
 20027b4:	b808d43a 	srli	r4,r23,16
 20027b8:	d8c00217 	ldw	r3,8(sp)
 20027bc:	2084b03a 	or	r2,r4,r2
 20027c0:	1700062e 	bgeu	r2,fp,20027dc <__divdf3+0x3c0>
 20027c4:	1585883a 	add	r2,r2,r22
 20027c8:	893fffc4 	addi	r4,r17,-1
 20027cc:	15811d36 	bltu	r2,r22,2002c44 <__divdf3+0x828>
 20027d0:	17011c2e 	bgeu	r2,fp,2002c44 <__divdf3+0x828>
 20027d4:	8c7fff84 	addi	r17,r17,-2
 20027d8:	1585883a 	add	r2,r2,r22
 20027dc:	1739c83a 	sub	fp,r2,fp
 20027e0:	a00b883a 	mov	r5,r20
 20027e4:	e009883a 	mov	r4,fp
 20027e8:	d8c00215 	stw	r3,8(sp)
 20027ec:	20023600 	call	2002360 <__udivsi3>
 20027f0:	100b883a 	mov	r5,r2
 20027f4:	9009883a 	mov	r4,r18
 20027f8:	1021883a 	mov	r16,r2
 20027fc:	20038180 	call	2003818 <__mulsi3>
 2002800:	a00b883a 	mov	r5,r20
 2002804:	e009883a 	mov	r4,fp
 2002808:	d8800415 	stw	r2,16(sp)
 200280c:	20023c40 	call	20023c4 <__umodsi3>
 2002810:	1004943a 	slli	r2,r2,16
 2002814:	da000417 	ldw	r8,16(sp)
 2002818:	bdffffcc 	andi	r23,r23,65535
 200281c:	b884b03a 	or	r2,r23,r2
 2002820:	d8c00217 	ldw	r3,8(sp)
 2002824:	1200062e 	bgeu	r2,r8,2002840 <__divdf3+0x424>
 2002828:	1585883a 	add	r2,r2,r22
 200282c:	813fffc4 	addi	r4,r16,-1
 2002830:	15810236 	bltu	r2,r22,2002c3c <__divdf3+0x820>
 2002834:	1201012e 	bgeu	r2,r8,2002c3c <__divdf3+0x820>
 2002838:	843fff84 	addi	r16,r16,-2
 200283c:	1585883a 	add	r2,r2,r22
 2002840:	8822943a 	slli	r17,r17,16
 2002844:	d9800017 	ldw	r6,0(sp)
 2002848:	1211c83a 	sub	r8,r2,r8
 200284c:	8c22b03a 	or	r17,r17,r16
 2002850:	373fffcc 	andi	fp,r6,65535
 2002854:	8abfffcc 	andi	r10,r17,65535
 2002858:	8820d43a 	srli	r16,r17,16
 200285c:	5009883a 	mov	r4,r10
 2002860:	e00b883a 	mov	r5,fp
 2002864:	302ed43a 	srli	r23,r6,16
 2002868:	d8c00215 	stw	r3,8(sp)
 200286c:	da000415 	stw	r8,16(sp)
 2002870:	da800115 	stw	r10,4(sp)
 2002874:	20038180 	call	2003818 <__mulsi3>
 2002878:	800b883a 	mov	r5,r16
 200287c:	e009883a 	mov	r4,fp
 2002880:	d8800515 	stw	r2,20(sp)
 2002884:	20038180 	call	2003818 <__mulsi3>
 2002888:	8009883a 	mov	r4,r16
 200288c:	b80b883a 	mov	r5,r23
 2002890:	d8800315 	stw	r2,12(sp)
 2002894:	20038180 	call	2003818 <__mulsi3>
 2002898:	da800117 	ldw	r10,4(sp)
 200289c:	b80b883a 	mov	r5,r23
 20028a0:	1021883a 	mov	r16,r2
 20028a4:	5009883a 	mov	r4,r10
 20028a8:	20038180 	call	2003818 <__mulsi3>
 20028ac:	d9c00517 	ldw	r7,20(sp)
 20028b0:	da400317 	ldw	r9,12(sp)
 20028b4:	d8c00217 	ldw	r3,8(sp)
 20028b8:	3808d43a 	srli	r4,r7,16
 20028bc:	1245883a 	add	r2,r2,r9
 20028c0:	da000417 	ldw	r8,16(sp)
 20028c4:	2085883a 	add	r2,r4,r2
 20028c8:	1240022e 	bgeu	r2,r9,20028d4 <__divdf3+0x4b8>
 20028cc:	01000074 	movhi	r4,1
 20028d0:	8121883a 	add	r16,r16,r4
 20028d4:	1008d43a 	srli	r4,r2,16
 20028d8:	1004943a 	slli	r2,r2,16
 20028dc:	39ffffcc 	andi	r7,r7,65535
 20028e0:	2409883a 	add	r4,r4,r16
 20028e4:	11c5883a 	add	r2,r2,r7
 20028e8:	4100bb36 	bltu	r8,r4,2002bd8 <__divdf3+0x7bc>
 20028ec:	4100d726 	beq	r8,r4,2002c4c <__divdf3+0x830>
 20028f0:	4109c83a 	sub	r4,r8,r4
 20028f4:	a8a1c83a 	sub	r16,r21,r2
 20028f8:	ac2b803a 	cmpltu	r21,r21,r16
 20028fc:	256bc83a 	sub	r21,r4,r21
 2002900:	b540d926 	beq	r22,r21,2002c68 <__divdf3+0x84c>
 2002904:	a00b883a 	mov	r5,r20
 2002908:	a809883a 	mov	r4,r21
 200290c:	d8c00215 	stw	r3,8(sp)
 2002910:	20023600 	call	2002360 <__udivsi3>
 2002914:	100b883a 	mov	r5,r2
 2002918:	9009883a 	mov	r4,r18
 200291c:	d8800515 	stw	r2,20(sp)
 2002920:	20038180 	call	2003818 <__mulsi3>
 2002924:	a809883a 	mov	r4,r21
 2002928:	a00b883a 	mov	r5,r20
 200292c:	d8800415 	stw	r2,16(sp)
 2002930:	20023c40 	call	20023c4 <__umodsi3>
 2002934:	1004943a 	slli	r2,r2,16
 2002938:	8008d43a 	srli	r4,r16,16
 200293c:	da000417 	ldw	r8,16(sp)
 2002940:	d8c00217 	ldw	r3,8(sp)
 2002944:	2084b03a 	or	r2,r4,r2
 2002948:	d9c00517 	ldw	r7,20(sp)
 200294c:	1200062e 	bgeu	r2,r8,2002968 <__divdf3+0x54c>
 2002950:	1585883a 	add	r2,r2,r22
 2002954:	393fffc4 	addi	r4,r7,-1
 2002958:	1580c536 	bltu	r2,r22,2002c70 <__divdf3+0x854>
 200295c:	1200c42e 	bgeu	r2,r8,2002c70 <__divdf3+0x854>
 2002960:	39ffff84 	addi	r7,r7,-2
 2002964:	1585883a 	add	r2,r2,r22
 2002968:	122bc83a 	sub	r21,r2,r8
 200296c:	a00b883a 	mov	r5,r20
 2002970:	a809883a 	mov	r4,r21
 2002974:	d8c00215 	stw	r3,8(sp)
 2002978:	d9c00515 	stw	r7,20(sp)
 200297c:	20023600 	call	2002360 <__udivsi3>
 2002980:	9009883a 	mov	r4,r18
 2002984:	100b883a 	mov	r5,r2
 2002988:	d8800415 	stw	r2,16(sp)
 200298c:	20038180 	call	2003818 <__mulsi3>
 2002990:	a809883a 	mov	r4,r21
 2002994:	a00b883a 	mov	r5,r20
 2002998:	1025883a 	mov	r18,r2
 200299c:	20023c40 	call	20023c4 <__umodsi3>
 20029a0:	1004943a 	slli	r2,r2,16
 20029a4:	813fffcc 	andi	r4,r16,65535
 20029a8:	d8c00217 	ldw	r3,8(sp)
 20029ac:	20a0b03a 	or	r16,r4,r2
 20029b0:	d9c00517 	ldw	r7,20(sp)
 20029b4:	da000417 	ldw	r8,16(sp)
 20029b8:	8480062e 	bgeu	r16,r18,20029d4 <__divdf3+0x5b8>
 20029bc:	85a1883a 	add	r16,r16,r22
 20029c0:	40bfffc4 	addi	r2,r8,-1
 20029c4:	8580ac36 	bltu	r16,r22,2002c78 <__divdf3+0x85c>
 20029c8:	8480ab2e 	bgeu	r16,r18,2002c78 <__divdf3+0x85c>
 20029cc:	423fff84 	addi	r8,r8,-2
 20029d0:	85a1883a 	add	r16,r16,r22
 20029d4:	3804943a 	slli	r2,r7,16
 20029d8:	84a1c83a 	sub	r16,r16,r18
 20029dc:	e009883a 	mov	r4,fp
 20029e0:	1228b03a 	or	r20,r2,r8
 20029e4:	a1ffffcc 	andi	r7,r20,65535
 20029e8:	a024d43a 	srli	r18,r20,16
 20029ec:	380b883a 	mov	r5,r7
 20029f0:	d8c00215 	stw	r3,8(sp)
 20029f4:	d9c00515 	stw	r7,20(sp)
 20029f8:	20038180 	call	2003818 <__mulsi3>
 20029fc:	900b883a 	mov	r5,r18
 2002a00:	e009883a 	mov	r4,fp
 2002a04:	102b883a 	mov	r21,r2
 2002a08:	20038180 	call	2003818 <__mulsi3>
 2002a0c:	900b883a 	mov	r5,r18
 2002a10:	b809883a 	mov	r4,r23
 2002a14:	1039883a 	mov	fp,r2
 2002a18:	20038180 	call	2003818 <__mulsi3>
 2002a1c:	d9c00517 	ldw	r7,20(sp)
 2002a20:	b80b883a 	mov	r5,r23
 2002a24:	1025883a 	mov	r18,r2
 2002a28:	3809883a 	mov	r4,r7
 2002a2c:	20038180 	call	2003818 <__mulsi3>
 2002a30:	a808d43a 	srli	r4,r21,16
 2002a34:	1705883a 	add	r2,r2,fp
 2002a38:	d8c00217 	ldw	r3,8(sp)
 2002a3c:	2085883a 	add	r2,r4,r2
 2002a40:	1700022e 	bgeu	r2,fp,2002a4c <__divdf3+0x630>
 2002a44:	01000074 	movhi	r4,1
 2002a48:	9125883a 	add	r18,r18,r4
 2002a4c:	1008d43a 	srli	r4,r2,16
 2002a50:	1004943a 	slli	r2,r2,16
 2002a54:	ad7fffcc 	andi	r21,r21,65535
 2002a58:	2489883a 	add	r4,r4,r18
 2002a5c:	1545883a 	add	r2,r2,r21
 2002a60:	81003836 	bltu	r16,r4,2002b44 <__divdf3+0x728>
 2002a64:	81003626 	beq	r16,r4,2002b40 <__divdf3+0x724>
 2002a68:	a5000054 	ori	r20,r20,1
 2002a6c:	1880ffc4 	addi	r2,r3,1023
 2002a70:	00bf2e0e 	bge	zero,r2,200272c <__reset+0xfdff972c>
 2002a74:	a10001cc 	andi	r4,r20,7
 2002a78:	20000726 	beq	r4,zero,2002a98 <__divdf3+0x67c>
 2002a7c:	a10003cc 	andi	r4,r20,15
 2002a80:	01400104 	movi	r5,4
 2002a84:	21400426 	beq	r4,r5,2002a98 <__divdf3+0x67c>
 2002a88:	a149883a 	add	r4,r20,r5
 2002a8c:	2529803a 	cmpltu	r20,r4,r20
 2002a90:	8d23883a 	add	r17,r17,r20
 2002a94:	2029883a 	mov	r20,r4
 2002a98:	8900402c 	andhi	r4,r17,256
 2002a9c:	20000426 	beq	r4,zero,2002ab0 <__divdf3+0x694>
 2002aa0:	18810004 	addi	r2,r3,1024
 2002aa4:	00ffc034 	movhi	r3,65280
 2002aa8:	18ffffc4 	addi	r3,r3,-1
 2002aac:	88e2703a 	and	r17,r17,r3
 2002ab0:	00c1ff84 	movi	r3,2046
 2002ab4:	18beb416 	blt	r3,r2,2002588 <__reset+0xfdff9588>
 2002ab8:	a028d0fa 	srli	r20,r20,3
 2002abc:	882a977a 	slli	r21,r17,29
 2002ac0:	8820927a 	slli	r16,r17,9
 2002ac4:	1081ffcc 	andi	r2,r2,2047
 2002ac8:	ad2ab03a 	or	r21,r21,r20
 2002acc:	8020d33a 	srli	r16,r16,12
 2002ad0:	9900004c 	andi	r4,r19,1
 2002ad4:	003eb006 	br	2002598 <__reset+0xfdff9598>
 2002ad8:	8080022c 	andhi	r2,r16,8
 2002adc:	10001226 	beq	r2,zero,2002b28 <__divdf3+0x70c>
 2002ae0:	8880022c 	andhi	r2,r17,8
 2002ae4:	1000101e 	bne	r2,zero,2002b28 <__divdf3+0x70c>
 2002ae8:	00800434 	movhi	r2,16
 2002aec:	8c000234 	orhi	r16,r17,8
 2002af0:	10bfffc4 	addi	r2,r2,-1
 2002af4:	b809883a 	mov	r4,r23
 2002af8:	80a0703a 	and	r16,r16,r2
 2002afc:	a02b883a 	mov	r21,r20
 2002b00:	003f0806 	br	2002724 <__reset+0xfdff9724>
 2002b04:	008000c4 	movi	r2,3
 2002b08:	3880b126 	beq	r7,r2,2002dd0 <__divdf3+0x9b4>
 2002b0c:	00800044 	movi	r2,1
 2002b10:	38805b1e 	bne	r7,r2,2002c80 <__divdf3+0x864>
 2002b14:	e009883a 	mov	r4,fp
 2002b18:	0005883a 	mov	r2,zero
 2002b1c:	0021883a 	mov	r16,zero
 2002b20:	002b883a 	mov	r21,zero
 2002b24:	003e9c06 	br	2002598 <__reset+0xfdff9598>
 2002b28:	00800434 	movhi	r2,16
 2002b2c:	84000234 	orhi	r16,r16,8
 2002b30:	10bfffc4 	addi	r2,r2,-1
 2002b34:	b009883a 	mov	r4,r22
 2002b38:	80a0703a 	and	r16,r16,r2
 2002b3c:	003ef906 	br	2002724 <__reset+0xfdff9724>
 2002b40:	103fca26 	beq	r2,zero,2002a6c <__reset+0xfdff9a6c>
 2002b44:	b421883a 	add	r16,r22,r16
 2002b48:	a17fffc4 	addi	r5,r20,-1
 2002b4c:	8580422e 	bgeu	r16,r22,2002c58 <__divdf3+0x83c>
 2002b50:	2829883a 	mov	r20,r5
 2002b54:	813fc41e 	bne	r16,r4,2002a68 <__reset+0xfdff9a68>
 2002b58:	d9800017 	ldw	r6,0(sp)
 2002b5c:	30bfc21e 	bne	r6,r2,2002a68 <__reset+0xfdff9a68>
 2002b60:	003fc206 	br	2002a6c <__reset+0xfdff9a6c>
 2002b64:	143ff604 	addi	r16,r2,-40
 2002b68:	8c20983a 	sll	r16,r17,r16
 2002b6c:	002b883a 	mov	r21,zero
 2002b70:	003eb406 	br	2002644 <__reset+0xfdff9644>
 2002b74:	d9800215 	stw	r6,8(sp)
 2002b78:	d9c00515 	stw	r7,20(sp)
 2002b7c:	da000415 	stw	r8,16(sp)
 2002b80:	20037b40 	call	20037b4 <__clzsi2>
 2002b84:	10800804 	addi	r2,r2,32
 2002b88:	da000417 	ldw	r8,16(sp)
 2002b8c:	d9c00517 	ldw	r7,20(sp)
 2002b90:	d9800217 	ldw	r6,8(sp)
 2002b94:	003ea106 	br	200261c <__reset+0xfdff961c>
 2002b98:	147ff604 	addi	r17,r2,-40
 2002b9c:	3462983a 	sll	r17,r6,r17
 2002ba0:	0029883a 	mov	r20,zero
 2002ba4:	003ec906 	br	20026cc <__reset+0xfdff96cc>
 2002ba8:	3009883a 	mov	r4,r6
 2002bac:	d9400115 	stw	r5,4(sp)
 2002bb0:	d9800215 	stw	r6,8(sp)
 2002bb4:	da000415 	stw	r8,16(sp)
 2002bb8:	da400315 	stw	r9,12(sp)
 2002bbc:	20037b40 	call	20037b4 <__clzsi2>
 2002bc0:	10800804 	addi	r2,r2,32
 2002bc4:	da400317 	ldw	r9,12(sp)
 2002bc8:	da000417 	ldw	r8,16(sp)
 2002bcc:	d9800217 	ldw	r6,8(sp)
 2002bd0:	d9400117 	ldw	r5,4(sp)
 2002bd4:	003eb306 	br	20026a4 <__reset+0xfdff96a4>
 2002bd8:	d9800017 	ldw	r6,0(sp)
 2002bdc:	a9ab883a 	add	r21,r21,r6
 2002be0:	a98b803a 	cmpltu	r5,r21,r6
 2002be4:	2d8b883a 	add	r5,r5,r22
 2002be8:	2a11883a 	add	r8,r5,r8
 2002bec:	897fffc4 	addi	r5,r17,-1
 2002bf0:	b2000c2e 	bgeu	r22,r8,2002c24 <__divdf3+0x808>
 2002bf4:	41003f36 	bltu	r8,r4,2002cf4 <__divdf3+0x8d8>
 2002bf8:	22006c26 	beq	r4,r8,2002dac <__divdf3+0x990>
 2002bfc:	4109c83a 	sub	r4,r8,r4
 2002c00:	2823883a 	mov	r17,r5
 2002c04:	003f3b06 	br	20028f4 <__reset+0xfdff98f4>
 2002c08:	ad3ed336 	bltu	r21,r20,2002758 <__reset+0xfdff9758>
 2002c0c:	a804d07a 	srli	r2,r21,1
 2002c10:	802e97fa 	slli	r23,r16,31
 2002c14:	a82a97fa 	slli	r21,r21,31
 2002c18:	8020d07a 	srli	r16,r16,1
 2002c1c:	b8aeb03a 	or	r23,r23,r2
 2002c20:	003ed006 	br	2002764 <__reset+0xfdff9764>
 2002c24:	b23ff51e 	bne	r22,r8,2002bfc <__reset+0xfdff9bfc>
 2002c28:	d9800017 	ldw	r6,0(sp)
 2002c2c:	a9bff12e 	bgeu	r21,r6,2002bf4 <__reset+0xfdff9bf4>
 2002c30:	b109c83a 	sub	r4,r22,r4
 2002c34:	2823883a 	mov	r17,r5
 2002c38:	003f2e06 	br	20028f4 <__reset+0xfdff98f4>
 2002c3c:	2021883a 	mov	r16,r4
 2002c40:	003eff06 	br	2002840 <__reset+0xfdff9840>
 2002c44:	2023883a 	mov	r17,r4
 2002c48:	003ee406 	br	20027dc <__reset+0xfdff97dc>
 2002c4c:	a8bfe236 	bltu	r21,r2,2002bd8 <__reset+0xfdff9bd8>
 2002c50:	0009883a 	mov	r4,zero
 2002c54:	003f2706 	br	20028f4 <__reset+0xfdff98f4>
 2002c58:	81002d36 	bltu	r16,r4,2002d10 <__divdf3+0x8f4>
 2002c5c:	24005626 	beq	r4,r16,2002db8 <__divdf3+0x99c>
 2002c60:	2829883a 	mov	r20,r5
 2002c64:	003f8006 	br	2002a68 <__reset+0xfdff9a68>
 2002c68:	053fffc4 	movi	r20,-1
 2002c6c:	003f7f06 	br	2002a6c <__reset+0xfdff9a6c>
 2002c70:	200f883a 	mov	r7,r4
 2002c74:	003f3c06 	br	2002968 <__reset+0xfdff9968>
 2002c78:	1011883a 	mov	r8,r2
 2002c7c:	003f5506 	br	20029d4 <__reset+0xfdff99d4>
 2002c80:	e027883a 	mov	r19,fp
 2002c84:	003f7906 	br	2002a6c <__reset+0xfdff9a6c>
 2002c88:	010007c4 	movi	r4,31
 2002c8c:	20c02816 	blt	r4,r3,2002d30 <__divdf3+0x914>
 2002c90:	00800804 	movi	r2,32
 2002c94:	10c5c83a 	sub	r2,r2,r3
 2002c98:	888a983a 	sll	r5,r17,r2
 2002c9c:	a0c8d83a 	srl	r4,r20,r3
 2002ca0:	a084983a 	sll	r2,r20,r2
 2002ca4:	88e2d83a 	srl	r17,r17,r3
 2002ca8:	2906b03a 	or	r3,r5,r4
 2002cac:	1004c03a 	cmpne	r2,r2,zero
 2002cb0:	1886b03a 	or	r3,r3,r2
 2002cb4:	188001cc 	andi	r2,r3,7
 2002cb8:	10000726 	beq	r2,zero,2002cd8 <__divdf3+0x8bc>
 2002cbc:	188003cc 	andi	r2,r3,15
 2002cc0:	01000104 	movi	r4,4
 2002cc4:	11000426 	beq	r2,r4,2002cd8 <__divdf3+0x8bc>
 2002cc8:	1805883a 	mov	r2,r3
 2002ccc:	10c00104 	addi	r3,r2,4
 2002cd0:	1885803a 	cmpltu	r2,r3,r2
 2002cd4:	88a3883a 	add	r17,r17,r2
 2002cd8:	8880202c 	andhi	r2,r17,128
 2002cdc:	10002926 	beq	r2,zero,2002d84 <__divdf3+0x968>
 2002ce0:	9900004c 	andi	r4,r19,1
 2002ce4:	00800044 	movi	r2,1
 2002ce8:	0021883a 	mov	r16,zero
 2002cec:	002b883a 	mov	r21,zero
 2002cf0:	003e2906 	br	2002598 <__reset+0xfdff9598>
 2002cf4:	d9800017 	ldw	r6,0(sp)
 2002cf8:	8c7fff84 	addi	r17,r17,-2
 2002cfc:	a9ab883a 	add	r21,r21,r6
 2002d00:	a98b803a 	cmpltu	r5,r21,r6
 2002d04:	2d8b883a 	add	r5,r5,r22
 2002d08:	2a11883a 	add	r8,r5,r8
 2002d0c:	003ef806 	br	20028f0 <__reset+0xfdff98f0>
 2002d10:	d9800017 	ldw	r6,0(sp)
 2002d14:	318f883a 	add	r7,r6,r6
 2002d18:	398b803a 	cmpltu	r5,r7,r6
 2002d1c:	2d8d883a 	add	r6,r5,r22
 2002d20:	81a1883a 	add	r16,r16,r6
 2002d24:	a17fff84 	addi	r5,r20,-2
 2002d28:	d9c00015 	stw	r7,0(sp)
 2002d2c:	003f8806 	br	2002b50 <__reset+0xfdff9b50>
 2002d30:	013ff844 	movi	r4,-31
 2002d34:	2085c83a 	sub	r2,r4,r2
 2002d38:	8888d83a 	srl	r4,r17,r2
 2002d3c:	00800804 	movi	r2,32
 2002d40:	18802126 	beq	r3,r2,2002dc8 <__divdf3+0x9ac>
 2002d44:	04001004 	movi	r16,64
 2002d48:	80c7c83a 	sub	r3,r16,r3
 2002d4c:	88e0983a 	sll	r16,r17,r3
 2002d50:	8504b03a 	or	r2,r16,r20
 2002d54:	1004c03a 	cmpne	r2,r2,zero
 2002d58:	2084b03a 	or	r2,r4,r2
 2002d5c:	144001cc 	andi	r17,r2,7
 2002d60:	88000d1e 	bne	r17,zero,2002d98 <__divdf3+0x97c>
 2002d64:	0021883a 	mov	r16,zero
 2002d68:	102ad0fa 	srli	r21,r2,3
 2002d6c:	9900004c 	andi	r4,r19,1
 2002d70:	0005883a 	mov	r2,zero
 2002d74:	ac6ab03a 	or	r21,r21,r17
 2002d78:	003e0706 	br	2002598 <__reset+0xfdff9598>
 2002d7c:	1007883a 	mov	r3,r2
 2002d80:	0023883a 	mov	r17,zero
 2002d84:	8820927a 	slli	r16,r17,9
 2002d88:	1805883a 	mov	r2,r3
 2002d8c:	8822977a 	slli	r17,r17,29
 2002d90:	8020d33a 	srli	r16,r16,12
 2002d94:	003ff406 	br	2002d68 <__reset+0xfdff9d68>
 2002d98:	10c003cc 	andi	r3,r2,15
 2002d9c:	01000104 	movi	r4,4
 2002da0:	193ff626 	beq	r3,r4,2002d7c <__reset+0xfdff9d7c>
 2002da4:	0023883a 	mov	r17,zero
 2002da8:	003fc806 	br	2002ccc <__reset+0xfdff9ccc>
 2002dac:	a8bfd136 	bltu	r21,r2,2002cf4 <__reset+0xfdff9cf4>
 2002db0:	2823883a 	mov	r17,r5
 2002db4:	003fa606 	br	2002c50 <__reset+0xfdff9c50>
 2002db8:	d9800017 	ldw	r6,0(sp)
 2002dbc:	30bfd436 	bltu	r6,r2,2002d10 <__reset+0xfdff9d10>
 2002dc0:	2829883a 	mov	r20,r5
 2002dc4:	003f6406 	br	2002b58 <__reset+0xfdff9b58>
 2002dc8:	0021883a 	mov	r16,zero
 2002dcc:	003fe006 	br	2002d50 <__reset+0xfdff9d50>
 2002dd0:	00800434 	movhi	r2,16
 2002dd4:	8c000234 	orhi	r16,r17,8
 2002dd8:	10bfffc4 	addi	r2,r2,-1
 2002ddc:	e009883a 	mov	r4,fp
 2002de0:	80a0703a 	and	r16,r16,r2
 2002de4:	a02b883a 	mov	r21,r20
 2002de8:	003e4e06 	br	2002724 <__reset+0xfdff9724>

02002dec <__muldf3>:
 2002dec:	deffee04 	addi	sp,sp,-72
 2002df0:	dd000c15 	stw	r20,48(sp)
 2002df4:	2828d53a 	srli	r20,r5,20
 2002df8:	ddc00f15 	stw	r23,60(sp)
 2002dfc:	282ed7fa 	srli	r23,r5,31
 2002e00:	dc000815 	stw	r16,32(sp)
 2002e04:	04000434 	movhi	r16,16
 2002e08:	dcc00b15 	stw	r19,44(sp)
 2002e0c:	843fffc4 	addi	r16,r16,-1
 2002e10:	dfc01115 	stw	ra,68(sp)
 2002e14:	df001015 	stw	fp,64(sp)
 2002e18:	dd800e15 	stw	r22,56(sp)
 2002e1c:	dd400d15 	stw	r21,52(sp)
 2002e20:	dc800a15 	stw	r18,40(sp)
 2002e24:	dc400915 	stw	r17,36(sp)
 2002e28:	a501ffcc 	andi	r20,r20,2047
 2002e2c:	2c20703a 	and	r16,r5,r16
 2002e30:	b827883a 	mov	r19,r23
 2002e34:	ba403fcc 	andi	r9,r23,255
 2002e38:	a0006026 	beq	r20,zero,2002fbc <__muldf3+0x1d0>
 2002e3c:	0081ffc4 	movi	r2,2047
 2002e40:	202d883a 	mov	r22,r4
 2002e44:	a0803626 	beq	r20,r2,2002f20 <__muldf3+0x134>
 2002e48:	84000434 	orhi	r16,r16,16
 2002e4c:	200ad77a 	srli	r5,r4,29
 2002e50:	800490fa 	slli	r2,r16,3
 2002e54:	202c90fa 	slli	r22,r4,3
 2002e58:	a53f0044 	addi	r20,r20,-1023
 2002e5c:	28a0b03a 	or	r16,r5,r2
 2002e60:	002b883a 	mov	r21,zero
 2002e64:	000b883a 	mov	r5,zero
 2002e68:	3804d53a 	srli	r2,r7,20
 2002e6c:	3838d7fa 	srli	fp,r7,31
 2002e70:	04400434 	movhi	r17,16
 2002e74:	8c7fffc4 	addi	r17,r17,-1
 2002e78:	1081ffcc 	andi	r2,r2,2047
 2002e7c:	3025883a 	mov	r18,r6
 2002e80:	3c62703a 	and	r17,r7,r17
 2002e84:	e2803fcc 	andi	r10,fp,255
 2002e88:	10006d26 	beq	r2,zero,2003040 <__muldf3+0x254>
 2002e8c:	00c1ffc4 	movi	r3,2047
 2002e90:	10c06526 	beq	r2,r3,2003028 <__muldf3+0x23c>
 2002e94:	8c400434 	orhi	r17,r17,16
 2002e98:	300ed77a 	srli	r7,r6,29
 2002e9c:	880690fa 	slli	r3,r17,3
 2002ea0:	302490fa 	slli	r18,r6,3
 2002ea4:	10bf0044 	addi	r2,r2,-1023
 2002ea8:	38e2b03a 	or	r17,r7,r3
 2002eac:	000f883a 	mov	r7,zero
 2002eb0:	a087883a 	add	r3,r20,r2
 2002eb4:	010003c4 	movi	r4,15
 2002eb8:	3d44b03a 	or	r2,r7,r21
 2002ebc:	e5ccf03a 	xor	r6,fp,r23
 2002ec0:	1a000044 	addi	r8,r3,1
 2002ec4:	20809b36 	bltu	r4,r2,2003134 <__muldf3+0x348>
 2002ec8:	100490ba 	slli	r2,r2,2
 2002ecc:	01008034 	movhi	r4,512
 2002ed0:	210bb804 	addi	r4,r4,12000
 2002ed4:	1105883a 	add	r2,r2,r4
 2002ed8:	10800017 	ldw	r2,0(r2)
 2002edc:	1000683a 	jmp	r2
 2002ee0:	02003134 	movhi	r8,196
 2002ee4:	02002f40 	call	2002f4 <__alt_mem_sdram_controller-0x1dffd0c>
 2002ee8:	02002f40 	call	2002f4 <__alt_mem_sdram_controller-0x1dffd0c>
 2002eec:	02002f3c 	xorhi	r8,zero,188
 2002ef0:	02003110 	cmplti	r8,zero,196
 2002ef4:	02003110 	cmplti	r8,zero,196
 2002ef8:	020030f8 	rdprs	r8,zero,195
 2002efc:	02002f3c 	xorhi	r8,zero,188
 2002f00:	02003110 	cmplti	r8,zero,196
 2002f04:	020030f8 	rdprs	r8,zero,195
 2002f08:	02003110 	cmplti	r8,zero,196
 2002f0c:	02002f3c 	xorhi	r8,zero,188
 2002f10:	02003120 	cmpeqi	r8,zero,196
 2002f14:	02003120 	cmpeqi	r8,zero,196
 2002f18:	02003120 	cmpeqi	r8,zero,196
 2002f1c:	02003480 	call	200348 <__alt_mem_sdram_controller-0x1dffcb8>
 2002f20:	2404b03a 	or	r2,r4,r16
 2002f24:	1000711e 	bne	r2,zero,20030ec <__muldf3+0x300>
 2002f28:	05400204 	movi	r21,8
 2002f2c:	0021883a 	mov	r16,zero
 2002f30:	002d883a 	mov	r22,zero
 2002f34:	01400084 	movi	r5,2
 2002f38:	003fcb06 	br	2002e68 <__reset+0xfdff9e68>
 2002f3c:	500d883a 	mov	r6,r10
 2002f40:	00800084 	movi	r2,2
 2002f44:	38805926 	beq	r7,r2,20030ac <__muldf3+0x2c0>
 2002f48:	008000c4 	movi	r2,3
 2002f4c:	3881bb26 	beq	r7,r2,200363c <__muldf3+0x850>
 2002f50:	00800044 	movi	r2,1
 2002f54:	3881961e 	bne	r7,r2,20035b0 <__muldf3+0x7c4>
 2002f58:	3027883a 	mov	r19,r6
 2002f5c:	0005883a 	mov	r2,zero
 2002f60:	0021883a 	mov	r16,zero
 2002f64:	002d883a 	mov	r22,zero
 2002f68:	1004953a 	slli	r2,r2,20
 2002f6c:	98c03fcc 	andi	r3,r19,255
 2002f70:	04400434 	movhi	r17,16
 2002f74:	8c7fffc4 	addi	r17,r17,-1
 2002f78:	180697fa 	slli	r3,r3,31
 2002f7c:	8460703a 	and	r16,r16,r17
 2002f80:	80a0b03a 	or	r16,r16,r2
 2002f84:	80c6b03a 	or	r3,r16,r3
 2002f88:	b005883a 	mov	r2,r22
 2002f8c:	dfc01117 	ldw	ra,68(sp)
 2002f90:	df001017 	ldw	fp,64(sp)
 2002f94:	ddc00f17 	ldw	r23,60(sp)
 2002f98:	dd800e17 	ldw	r22,56(sp)
 2002f9c:	dd400d17 	ldw	r21,52(sp)
 2002fa0:	dd000c17 	ldw	r20,48(sp)
 2002fa4:	dcc00b17 	ldw	r19,44(sp)
 2002fa8:	dc800a17 	ldw	r18,40(sp)
 2002fac:	dc400917 	ldw	r17,36(sp)
 2002fb0:	dc000817 	ldw	r16,32(sp)
 2002fb4:	dec01204 	addi	sp,sp,72
 2002fb8:	f800283a 	ret
 2002fbc:	2404b03a 	or	r2,r4,r16
 2002fc0:	202b883a 	mov	r21,r4
 2002fc4:	10004426 	beq	r2,zero,20030d8 <__muldf3+0x2ec>
 2002fc8:	80015126 	beq	r16,zero,2003510 <__muldf3+0x724>
 2002fcc:	8009883a 	mov	r4,r16
 2002fd0:	d9800715 	stw	r6,28(sp)
 2002fd4:	d9c00215 	stw	r7,8(sp)
 2002fd8:	da400415 	stw	r9,16(sp)
 2002fdc:	20037b40 	call	20037b4 <__clzsi2>
 2002fe0:	d9800717 	ldw	r6,28(sp)
 2002fe4:	d9c00217 	ldw	r7,8(sp)
 2002fe8:	da400417 	ldw	r9,16(sp)
 2002fec:	113ffd44 	addi	r4,r2,-11
 2002ff0:	00c00704 	movi	r3,28
 2002ff4:	19014216 	blt	r3,r4,2003500 <__muldf3+0x714>
 2002ff8:	00c00744 	movi	r3,29
 2002ffc:	15bffe04 	addi	r22,r2,-8
 2003000:	1907c83a 	sub	r3,r3,r4
 2003004:	85a0983a 	sll	r16,r16,r22
 2003008:	a8c6d83a 	srl	r3,r21,r3
 200300c:	adac983a 	sll	r22,r21,r22
 2003010:	1c20b03a 	or	r16,r3,r16
 2003014:	1080fcc4 	addi	r2,r2,1011
 2003018:	00a9c83a 	sub	r20,zero,r2
 200301c:	002b883a 	mov	r21,zero
 2003020:	000b883a 	mov	r5,zero
 2003024:	003f9006 	br	2002e68 <__reset+0xfdff9e68>
 2003028:	3446b03a 	or	r3,r6,r17
 200302c:	1800281e 	bne	r3,zero,20030d0 <__muldf3+0x2e4>
 2003030:	0023883a 	mov	r17,zero
 2003034:	0025883a 	mov	r18,zero
 2003038:	01c00084 	movi	r7,2
 200303c:	003f9c06 	br	2002eb0 <__reset+0xfdff9eb0>
 2003040:	3446b03a 	or	r3,r6,r17
 2003044:	18001e26 	beq	r3,zero,20030c0 <__muldf3+0x2d4>
 2003048:	88012126 	beq	r17,zero,20034d0 <__muldf3+0x6e4>
 200304c:	8809883a 	mov	r4,r17
 2003050:	d9400215 	stw	r5,8(sp)
 2003054:	d9800715 	stw	r6,28(sp)
 2003058:	da400415 	stw	r9,16(sp)
 200305c:	da800315 	stw	r10,12(sp)
 2003060:	20037b40 	call	20037b4 <__clzsi2>
 2003064:	d9400217 	ldw	r5,8(sp)
 2003068:	d9800717 	ldw	r6,28(sp)
 200306c:	da400417 	ldw	r9,16(sp)
 2003070:	da800317 	ldw	r10,12(sp)
 2003074:	113ffd44 	addi	r4,r2,-11
 2003078:	00c00704 	movi	r3,28
 200307c:	19011016 	blt	r3,r4,20034c0 <__muldf3+0x6d4>
 2003080:	00c00744 	movi	r3,29
 2003084:	14bffe04 	addi	r18,r2,-8
 2003088:	1907c83a 	sub	r3,r3,r4
 200308c:	8ca2983a 	sll	r17,r17,r18
 2003090:	30c6d83a 	srl	r3,r6,r3
 2003094:	34a4983a 	sll	r18,r6,r18
 2003098:	1c62b03a 	or	r17,r3,r17
 200309c:	1080fcc4 	addi	r2,r2,1011
 20030a0:	0085c83a 	sub	r2,zero,r2
 20030a4:	000f883a 	mov	r7,zero
 20030a8:	003f8106 	br	2002eb0 <__reset+0xfdff9eb0>
 20030ac:	3027883a 	mov	r19,r6
 20030b0:	0081ffc4 	movi	r2,2047
 20030b4:	0021883a 	mov	r16,zero
 20030b8:	002d883a 	mov	r22,zero
 20030bc:	003faa06 	br	2002f68 <__reset+0xfdff9f68>
 20030c0:	0023883a 	mov	r17,zero
 20030c4:	0025883a 	mov	r18,zero
 20030c8:	01c00044 	movi	r7,1
 20030cc:	003f7806 	br	2002eb0 <__reset+0xfdff9eb0>
 20030d0:	01c000c4 	movi	r7,3
 20030d4:	003f7606 	br	2002eb0 <__reset+0xfdff9eb0>
 20030d8:	05400104 	movi	r21,4
 20030dc:	0021883a 	mov	r16,zero
 20030e0:	002d883a 	mov	r22,zero
 20030e4:	01400044 	movi	r5,1
 20030e8:	003f5f06 	br	2002e68 <__reset+0xfdff9e68>
 20030ec:	05400304 	movi	r21,12
 20030f0:	014000c4 	movi	r5,3
 20030f4:	003f5c06 	br	2002e68 <__reset+0xfdff9e68>
 20030f8:	04000434 	movhi	r16,16
 20030fc:	0027883a 	mov	r19,zero
 2003100:	843fffc4 	addi	r16,r16,-1
 2003104:	05bfffc4 	movi	r22,-1
 2003108:	0081ffc4 	movi	r2,2047
 200310c:	003f9606 	br	2002f68 <__reset+0xfdff9f68>
 2003110:	8023883a 	mov	r17,r16
 2003114:	b025883a 	mov	r18,r22
 2003118:	280f883a 	mov	r7,r5
 200311c:	003f8806 	br	2002f40 <__reset+0xfdff9f40>
 2003120:	8023883a 	mov	r17,r16
 2003124:	b025883a 	mov	r18,r22
 2003128:	480d883a 	mov	r6,r9
 200312c:	280f883a 	mov	r7,r5
 2003130:	003f8306 	br	2002f40 <__reset+0xfdff9f40>
 2003134:	b026d43a 	srli	r19,r22,16
 2003138:	902ed43a 	srli	r23,r18,16
 200313c:	b5bfffcc 	andi	r22,r22,65535
 2003140:	94bfffcc 	andi	r18,r18,65535
 2003144:	b00b883a 	mov	r5,r22
 2003148:	9009883a 	mov	r4,r18
 200314c:	d8c00515 	stw	r3,20(sp)
 2003150:	d9800715 	stw	r6,28(sp)
 2003154:	da000615 	stw	r8,24(sp)
 2003158:	20038180 	call	2003818 <__mulsi3>
 200315c:	980b883a 	mov	r5,r19
 2003160:	9009883a 	mov	r4,r18
 2003164:	1029883a 	mov	r20,r2
 2003168:	20038180 	call	2003818 <__mulsi3>
 200316c:	b80b883a 	mov	r5,r23
 2003170:	9809883a 	mov	r4,r19
 2003174:	102b883a 	mov	r21,r2
 2003178:	20038180 	call	2003818 <__mulsi3>
 200317c:	b809883a 	mov	r4,r23
 2003180:	b00b883a 	mov	r5,r22
 2003184:	1039883a 	mov	fp,r2
 2003188:	20038180 	call	2003818 <__mulsi3>
 200318c:	a008d43a 	srli	r4,r20,16
 2003190:	1545883a 	add	r2,r2,r21
 2003194:	d8c00517 	ldw	r3,20(sp)
 2003198:	2085883a 	add	r2,r4,r2
 200319c:	d9800717 	ldw	r6,28(sp)
 20031a0:	da000617 	ldw	r8,24(sp)
 20031a4:	1540022e 	bgeu	r2,r21,20031b0 <__muldf3+0x3c4>
 20031a8:	01000074 	movhi	r4,1
 20031ac:	e139883a 	add	fp,fp,r4
 20031b0:	100e943a 	slli	r7,r2,16
 20031b4:	1004d43a 	srli	r2,r2,16
 20031b8:	882ad43a 	srli	r21,r17,16
 20031bc:	a53fffcc 	andi	r20,r20,65535
 20031c0:	8c7fffcc 	andi	r17,r17,65535
 20031c4:	3d29883a 	add	r20,r7,r20
 20031c8:	b00b883a 	mov	r5,r22
 20031cc:	8809883a 	mov	r4,r17
 20031d0:	d8c00515 	stw	r3,20(sp)
 20031d4:	d9800715 	stw	r6,28(sp)
 20031d8:	da000615 	stw	r8,24(sp)
 20031dc:	dd000115 	stw	r20,4(sp)
 20031e0:	d8800015 	stw	r2,0(sp)
 20031e4:	20038180 	call	2003818 <__mulsi3>
 20031e8:	980b883a 	mov	r5,r19
 20031ec:	8809883a 	mov	r4,r17
 20031f0:	d8800215 	stw	r2,8(sp)
 20031f4:	20038180 	call	2003818 <__mulsi3>
 20031f8:	9809883a 	mov	r4,r19
 20031fc:	a80b883a 	mov	r5,r21
 2003200:	1029883a 	mov	r20,r2
 2003204:	20038180 	call	2003818 <__mulsi3>
 2003208:	b00b883a 	mov	r5,r22
 200320c:	a809883a 	mov	r4,r21
 2003210:	d8800415 	stw	r2,16(sp)
 2003214:	20038180 	call	2003818 <__mulsi3>
 2003218:	d9c00217 	ldw	r7,8(sp)
 200321c:	1505883a 	add	r2,r2,r20
 2003220:	d8c00517 	ldw	r3,20(sp)
 2003224:	3826d43a 	srli	r19,r7,16
 2003228:	d9800717 	ldw	r6,28(sp)
 200322c:	da000617 	ldw	r8,24(sp)
 2003230:	9885883a 	add	r2,r19,r2
 2003234:	da400417 	ldw	r9,16(sp)
 2003238:	1500022e 	bgeu	r2,r20,2003244 <__muldf3+0x458>
 200323c:	01000074 	movhi	r4,1
 2003240:	4913883a 	add	r9,r9,r4
 2003244:	1028d43a 	srli	r20,r2,16
 2003248:	1004943a 	slli	r2,r2,16
 200324c:	802cd43a 	srli	r22,r16,16
 2003250:	843fffcc 	andi	r16,r16,65535
 2003254:	3cffffcc 	andi	r19,r7,65535
 2003258:	9009883a 	mov	r4,r18
 200325c:	800b883a 	mov	r5,r16
 2003260:	a269883a 	add	r20,r20,r9
 2003264:	d8c00515 	stw	r3,20(sp)
 2003268:	d9800715 	stw	r6,28(sp)
 200326c:	da000615 	stw	r8,24(sp)
 2003270:	14e7883a 	add	r19,r2,r19
 2003274:	20038180 	call	2003818 <__mulsi3>
 2003278:	9009883a 	mov	r4,r18
 200327c:	b00b883a 	mov	r5,r22
 2003280:	d8800315 	stw	r2,12(sp)
 2003284:	20038180 	call	2003818 <__mulsi3>
 2003288:	b809883a 	mov	r4,r23
 200328c:	b00b883a 	mov	r5,r22
 2003290:	d8800215 	stw	r2,8(sp)
 2003294:	20038180 	call	2003818 <__mulsi3>
 2003298:	b80b883a 	mov	r5,r23
 200329c:	8009883a 	mov	r4,r16
 20032a0:	d8800415 	stw	r2,16(sp)
 20032a4:	20038180 	call	2003818 <__mulsi3>
 20032a8:	da800317 	ldw	r10,12(sp)
 20032ac:	d9c00217 	ldw	r7,8(sp)
 20032b0:	d9000017 	ldw	r4,0(sp)
 20032b4:	502ed43a 	srli	r23,r10,16
 20032b8:	11c5883a 	add	r2,r2,r7
 20032bc:	24e5883a 	add	r18,r4,r19
 20032c0:	b885883a 	add	r2,r23,r2
 20032c4:	d8c00517 	ldw	r3,20(sp)
 20032c8:	d9800717 	ldw	r6,28(sp)
 20032cc:	da000617 	ldw	r8,24(sp)
 20032d0:	da400417 	ldw	r9,16(sp)
 20032d4:	11c0022e 	bgeu	r2,r7,20032e0 <__muldf3+0x4f4>
 20032d8:	01000074 	movhi	r4,1
 20032dc:	4913883a 	add	r9,r9,r4
 20032e0:	100ed43a 	srli	r7,r2,16
 20032e4:	1004943a 	slli	r2,r2,16
 20032e8:	55ffffcc 	andi	r23,r10,65535
 20032ec:	3a53883a 	add	r9,r7,r9
 20032f0:	8809883a 	mov	r4,r17
 20032f4:	800b883a 	mov	r5,r16
 20032f8:	d8c00515 	stw	r3,20(sp)
 20032fc:	d9800715 	stw	r6,28(sp)
 2003300:	da000615 	stw	r8,24(sp)
 2003304:	da400415 	stw	r9,16(sp)
 2003308:	15ef883a 	add	r23,r2,r23
 200330c:	20038180 	call	2003818 <__mulsi3>
 2003310:	8809883a 	mov	r4,r17
 2003314:	b00b883a 	mov	r5,r22
 2003318:	d8800215 	stw	r2,8(sp)
 200331c:	20038180 	call	2003818 <__mulsi3>
 2003320:	b00b883a 	mov	r5,r22
 2003324:	a809883a 	mov	r4,r21
 2003328:	d8800315 	stw	r2,12(sp)
 200332c:	20038180 	call	2003818 <__mulsi3>
 2003330:	8009883a 	mov	r4,r16
 2003334:	a80b883a 	mov	r5,r21
 2003338:	1023883a 	mov	r17,r2
 200333c:	20038180 	call	2003818 <__mulsi3>
 2003340:	d9c00217 	ldw	r7,8(sp)
 2003344:	da800317 	ldw	r10,12(sp)
 2003348:	d8c00517 	ldw	r3,20(sp)
 200334c:	3808d43a 	srli	r4,r7,16
 2003350:	1285883a 	add	r2,r2,r10
 2003354:	d9800717 	ldw	r6,28(sp)
 2003358:	2085883a 	add	r2,r4,r2
 200335c:	da000617 	ldw	r8,24(sp)
 2003360:	da400417 	ldw	r9,16(sp)
 2003364:	1280022e 	bgeu	r2,r10,2003370 <__muldf3+0x584>
 2003368:	01000074 	movhi	r4,1
 200336c:	8923883a 	add	r17,r17,r4
 2003370:	1008943a 	slli	r4,r2,16
 2003374:	39ffffcc 	andi	r7,r7,65535
 2003378:	e4b9883a 	add	fp,fp,r18
 200337c:	21cf883a 	add	r7,r4,r7
 2003380:	e4e7803a 	cmpltu	r19,fp,r19
 2003384:	3d0f883a 	add	r7,r7,r20
 2003388:	bf39883a 	add	fp,r23,fp
 200338c:	99c9883a 	add	r4,r19,r7
 2003390:	e5ef803a 	cmpltu	r23,fp,r23
 2003394:	490b883a 	add	r5,r9,r4
 2003398:	1004d43a 	srli	r2,r2,16
 200339c:	b965883a 	add	r18,r23,r5
 20033a0:	24c9803a 	cmpltu	r4,r4,r19
 20033a4:	3d29803a 	cmpltu	r20,r7,r20
 20033a8:	a128b03a 	or	r20,r20,r4
 20033ac:	95ef803a 	cmpltu	r23,r18,r23
 20033b0:	2a53803a 	cmpltu	r9,r5,r9
 20033b4:	a0a9883a 	add	r20,r20,r2
 20033b8:	4deeb03a 	or	r23,r9,r23
 20033bc:	a5ef883a 	add	r23,r20,r23
 20033c0:	bc63883a 	add	r17,r23,r17
 20033c4:	e004927a 	slli	r2,fp,9
 20033c8:	d9000117 	ldw	r4,4(sp)
 20033cc:	882e927a 	slli	r23,r17,9
 20033d0:	9022d5fa 	srli	r17,r18,23
 20033d4:	e038d5fa 	srli	fp,fp,23
 20033d8:	1104b03a 	or	r2,r2,r4
 20033dc:	9024927a 	slli	r18,r18,9
 20033e0:	1004c03a 	cmpne	r2,r2,zero
 20033e4:	bc62b03a 	or	r17,r23,r17
 20033e8:	1738b03a 	or	fp,r2,fp
 20033ec:	8880402c 	andhi	r2,r17,256
 20033f0:	e4a4b03a 	or	r18,fp,r18
 20033f4:	10000726 	beq	r2,zero,2003414 <__muldf3+0x628>
 20033f8:	9006d07a 	srli	r3,r18,1
 20033fc:	880497fa 	slli	r2,r17,31
 2003400:	9480004c 	andi	r18,r18,1
 2003404:	8822d07a 	srli	r17,r17,1
 2003408:	1ca4b03a 	or	r18,r3,r18
 200340c:	14a4b03a 	or	r18,r2,r18
 2003410:	4007883a 	mov	r3,r8
 2003414:	1880ffc4 	addi	r2,r3,1023
 2003418:	0080460e 	bge	zero,r2,2003534 <__muldf3+0x748>
 200341c:	910001cc 	andi	r4,r18,7
 2003420:	20000726 	beq	r4,zero,2003440 <__muldf3+0x654>
 2003424:	910003cc 	andi	r4,r18,15
 2003428:	01400104 	movi	r5,4
 200342c:	21400426 	beq	r4,r5,2003440 <__muldf3+0x654>
 2003430:	9149883a 	add	r4,r18,r5
 2003434:	24a5803a 	cmpltu	r18,r4,r18
 2003438:	8ca3883a 	add	r17,r17,r18
 200343c:	2025883a 	mov	r18,r4
 2003440:	8900402c 	andhi	r4,r17,256
 2003444:	20000426 	beq	r4,zero,2003458 <__muldf3+0x66c>
 2003448:	18810004 	addi	r2,r3,1024
 200344c:	00ffc034 	movhi	r3,65280
 2003450:	18ffffc4 	addi	r3,r3,-1
 2003454:	88e2703a 	and	r17,r17,r3
 2003458:	00c1ff84 	movi	r3,2046
 200345c:	18bf1316 	blt	r3,r2,20030ac <__reset+0xfdffa0ac>
 2003460:	882c977a 	slli	r22,r17,29
 2003464:	9024d0fa 	srli	r18,r18,3
 2003468:	8822927a 	slli	r17,r17,9
 200346c:	1081ffcc 	andi	r2,r2,2047
 2003470:	b4acb03a 	or	r22,r22,r18
 2003474:	8820d33a 	srli	r16,r17,12
 2003478:	3027883a 	mov	r19,r6
 200347c:	003eba06 	br	2002f68 <__reset+0xfdff9f68>
 2003480:	8080022c 	andhi	r2,r16,8
 2003484:	10000926 	beq	r2,zero,20034ac <__muldf3+0x6c0>
 2003488:	8880022c 	andhi	r2,r17,8
 200348c:	1000071e 	bne	r2,zero,20034ac <__muldf3+0x6c0>
 2003490:	00800434 	movhi	r2,16
 2003494:	8c000234 	orhi	r16,r17,8
 2003498:	10bfffc4 	addi	r2,r2,-1
 200349c:	e027883a 	mov	r19,fp
 20034a0:	80a0703a 	and	r16,r16,r2
 20034a4:	902d883a 	mov	r22,r18
 20034a8:	003f1706 	br	2003108 <__reset+0xfdffa108>
 20034ac:	00800434 	movhi	r2,16
 20034b0:	84000234 	orhi	r16,r16,8
 20034b4:	10bfffc4 	addi	r2,r2,-1
 20034b8:	80a0703a 	and	r16,r16,r2
 20034bc:	003f1206 	br	2003108 <__reset+0xfdffa108>
 20034c0:	147ff604 	addi	r17,r2,-40
 20034c4:	3462983a 	sll	r17,r6,r17
 20034c8:	0025883a 	mov	r18,zero
 20034cc:	003ef306 	br	200309c <__reset+0xfdffa09c>
 20034d0:	3009883a 	mov	r4,r6
 20034d4:	d9400215 	stw	r5,8(sp)
 20034d8:	d9800715 	stw	r6,28(sp)
 20034dc:	da400415 	stw	r9,16(sp)
 20034e0:	da800315 	stw	r10,12(sp)
 20034e4:	20037b40 	call	20037b4 <__clzsi2>
 20034e8:	10800804 	addi	r2,r2,32
 20034ec:	da800317 	ldw	r10,12(sp)
 20034f0:	da400417 	ldw	r9,16(sp)
 20034f4:	d9800717 	ldw	r6,28(sp)
 20034f8:	d9400217 	ldw	r5,8(sp)
 20034fc:	003edd06 	br	2003074 <__reset+0xfdffa074>
 2003500:	143ff604 	addi	r16,r2,-40
 2003504:	ac20983a 	sll	r16,r21,r16
 2003508:	002d883a 	mov	r22,zero
 200350c:	003ec106 	br	2003014 <__reset+0xfdffa014>
 2003510:	d9800715 	stw	r6,28(sp)
 2003514:	d9c00215 	stw	r7,8(sp)
 2003518:	da400415 	stw	r9,16(sp)
 200351c:	20037b40 	call	20037b4 <__clzsi2>
 2003520:	10800804 	addi	r2,r2,32
 2003524:	da400417 	ldw	r9,16(sp)
 2003528:	d9c00217 	ldw	r7,8(sp)
 200352c:	d9800717 	ldw	r6,28(sp)
 2003530:	003eae06 	br	2002fec <__reset+0xfdff9fec>
 2003534:	00c00044 	movi	r3,1
 2003538:	1887c83a 	sub	r3,r3,r2
 200353c:	01000e04 	movi	r4,56
 2003540:	20fe8516 	blt	r4,r3,2002f58 <__reset+0xfdff9f58>
 2003544:	010007c4 	movi	r4,31
 2003548:	20c01b16 	blt	r4,r3,20035b8 <__muldf3+0x7cc>
 200354c:	00800804 	movi	r2,32
 2003550:	10c5c83a 	sub	r2,r2,r3
 2003554:	888a983a 	sll	r5,r17,r2
 2003558:	90c8d83a 	srl	r4,r18,r3
 200355c:	9084983a 	sll	r2,r18,r2
 2003560:	88e2d83a 	srl	r17,r17,r3
 2003564:	2906b03a 	or	r3,r5,r4
 2003568:	1004c03a 	cmpne	r2,r2,zero
 200356c:	1886b03a 	or	r3,r3,r2
 2003570:	188001cc 	andi	r2,r3,7
 2003574:	10000726 	beq	r2,zero,2003594 <__muldf3+0x7a8>
 2003578:	188003cc 	andi	r2,r3,15
 200357c:	01000104 	movi	r4,4
 2003580:	11000426 	beq	r2,r4,2003594 <__muldf3+0x7a8>
 2003584:	1805883a 	mov	r2,r3
 2003588:	10c00104 	addi	r3,r2,4
 200358c:	1885803a 	cmpltu	r2,r3,r2
 2003590:	88a3883a 	add	r17,r17,r2
 2003594:	8880202c 	andhi	r2,r17,128
 2003598:	10001c26 	beq	r2,zero,200360c <__muldf3+0x820>
 200359c:	3027883a 	mov	r19,r6
 20035a0:	00800044 	movi	r2,1
 20035a4:	0021883a 	mov	r16,zero
 20035a8:	002d883a 	mov	r22,zero
 20035ac:	003e6e06 	br	2002f68 <__reset+0xfdff9f68>
 20035b0:	4007883a 	mov	r3,r8
 20035b4:	003f9706 	br	2003414 <__reset+0xfdffa414>
 20035b8:	017ff844 	movi	r5,-31
 20035bc:	2885c83a 	sub	r2,r5,r2
 20035c0:	888ad83a 	srl	r5,r17,r2
 20035c4:	00800804 	movi	r2,32
 20035c8:	18801a26 	beq	r3,r2,2003634 <__muldf3+0x848>
 20035cc:	01001004 	movi	r4,64
 20035d0:	20c7c83a 	sub	r3,r4,r3
 20035d4:	88e2983a 	sll	r17,r17,r3
 20035d8:	8ca4b03a 	or	r18,r17,r18
 20035dc:	9004c03a 	cmpne	r2,r18,zero
 20035e0:	2884b03a 	or	r2,r5,r2
 20035e4:	144001cc 	andi	r17,r2,7
 20035e8:	88000d1e 	bne	r17,zero,2003620 <__muldf3+0x834>
 20035ec:	0021883a 	mov	r16,zero
 20035f0:	102cd0fa 	srli	r22,r2,3
 20035f4:	3027883a 	mov	r19,r6
 20035f8:	0005883a 	mov	r2,zero
 20035fc:	b46cb03a 	or	r22,r22,r17
 2003600:	003e5906 	br	2002f68 <__reset+0xfdff9f68>
 2003604:	1007883a 	mov	r3,r2
 2003608:	0023883a 	mov	r17,zero
 200360c:	8820927a 	slli	r16,r17,9
 2003610:	1805883a 	mov	r2,r3
 2003614:	8822977a 	slli	r17,r17,29
 2003618:	8020d33a 	srli	r16,r16,12
 200361c:	003ff406 	br	20035f0 <__reset+0xfdffa5f0>
 2003620:	10c003cc 	andi	r3,r2,15
 2003624:	01000104 	movi	r4,4
 2003628:	193ff626 	beq	r3,r4,2003604 <__reset+0xfdffa604>
 200362c:	0023883a 	mov	r17,zero
 2003630:	003fd506 	br	2003588 <__reset+0xfdffa588>
 2003634:	0023883a 	mov	r17,zero
 2003638:	003fe706 	br	20035d8 <__reset+0xfdffa5d8>
 200363c:	00800434 	movhi	r2,16
 2003640:	8c000234 	orhi	r16,r17,8
 2003644:	10bfffc4 	addi	r2,r2,-1
 2003648:	3027883a 	mov	r19,r6
 200364c:	80a0703a 	and	r16,r16,r2
 2003650:	902d883a 	mov	r22,r18
 2003654:	003eac06 	br	2003108 <__reset+0xfdffa108>

02003658 <__fixdfsi>:
 2003658:	280cd53a 	srli	r6,r5,20
 200365c:	00c00434 	movhi	r3,16
 2003660:	18ffffc4 	addi	r3,r3,-1
 2003664:	3181ffcc 	andi	r6,r6,2047
 2003668:	01c0ff84 	movi	r7,1022
 200366c:	28c6703a 	and	r3,r5,r3
 2003670:	280ad7fa 	srli	r5,r5,31
 2003674:	3980120e 	bge	r7,r6,20036c0 <__fixdfsi+0x68>
 2003678:	00810744 	movi	r2,1053
 200367c:	11800c16 	blt	r2,r6,20036b0 <__fixdfsi+0x58>
 2003680:	00810cc4 	movi	r2,1075
 2003684:	1185c83a 	sub	r2,r2,r6
 2003688:	01c007c4 	movi	r7,31
 200368c:	18c00434 	orhi	r3,r3,16
 2003690:	38800d16 	blt	r7,r2,20036c8 <__fixdfsi+0x70>
 2003694:	31befb44 	addi	r6,r6,-1043
 2003698:	2084d83a 	srl	r2,r4,r2
 200369c:	1986983a 	sll	r3,r3,r6
 20036a0:	1884b03a 	or	r2,r3,r2
 20036a4:	28000726 	beq	r5,zero,20036c4 <__fixdfsi+0x6c>
 20036a8:	0085c83a 	sub	r2,zero,r2
 20036ac:	f800283a 	ret
 20036b0:	00a00034 	movhi	r2,32768
 20036b4:	10bfffc4 	addi	r2,r2,-1
 20036b8:	2885883a 	add	r2,r5,r2
 20036bc:	f800283a 	ret
 20036c0:	0005883a 	mov	r2,zero
 20036c4:	f800283a 	ret
 20036c8:	008104c4 	movi	r2,1043
 20036cc:	1185c83a 	sub	r2,r2,r6
 20036d0:	1884d83a 	srl	r2,r3,r2
 20036d4:	003ff306 	br	20036a4 <__reset+0xfdffa6a4>

020036d8 <__floatsidf>:
 20036d8:	defffd04 	addi	sp,sp,-12
 20036dc:	dfc00215 	stw	ra,8(sp)
 20036e0:	dc400115 	stw	r17,4(sp)
 20036e4:	dc000015 	stw	r16,0(sp)
 20036e8:	20002b26 	beq	r4,zero,2003798 <__floatsidf+0xc0>
 20036ec:	2023883a 	mov	r17,r4
 20036f0:	2020d7fa 	srli	r16,r4,31
 20036f4:	20002d16 	blt	r4,zero,20037ac <__floatsidf+0xd4>
 20036f8:	8809883a 	mov	r4,r17
 20036fc:	20037b40 	call	20037b4 <__clzsi2>
 2003700:	01410784 	movi	r5,1054
 2003704:	288bc83a 	sub	r5,r5,r2
 2003708:	01010cc4 	movi	r4,1075
 200370c:	2149c83a 	sub	r4,r4,r5
 2003710:	00c007c4 	movi	r3,31
 2003714:	1900160e 	bge	r3,r4,2003770 <__floatsidf+0x98>
 2003718:	00c104c4 	movi	r3,1043
 200371c:	1947c83a 	sub	r3,r3,r5
 2003720:	88c6983a 	sll	r3,r17,r3
 2003724:	00800434 	movhi	r2,16
 2003728:	10bfffc4 	addi	r2,r2,-1
 200372c:	1886703a 	and	r3,r3,r2
 2003730:	2941ffcc 	andi	r5,r5,2047
 2003734:	800d883a 	mov	r6,r16
 2003738:	0005883a 	mov	r2,zero
 200373c:	280a953a 	slli	r5,r5,20
 2003740:	31803fcc 	andi	r6,r6,255
 2003744:	01000434 	movhi	r4,16
 2003748:	300c97fa 	slli	r6,r6,31
 200374c:	213fffc4 	addi	r4,r4,-1
 2003750:	1906703a 	and	r3,r3,r4
 2003754:	1946b03a 	or	r3,r3,r5
 2003758:	1986b03a 	or	r3,r3,r6
 200375c:	dfc00217 	ldw	ra,8(sp)
 2003760:	dc400117 	ldw	r17,4(sp)
 2003764:	dc000017 	ldw	r16,0(sp)
 2003768:	dec00304 	addi	sp,sp,12
 200376c:	f800283a 	ret
 2003770:	00c002c4 	movi	r3,11
 2003774:	1887c83a 	sub	r3,r3,r2
 2003778:	88c6d83a 	srl	r3,r17,r3
 200377c:	8904983a 	sll	r2,r17,r4
 2003780:	01000434 	movhi	r4,16
 2003784:	213fffc4 	addi	r4,r4,-1
 2003788:	2941ffcc 	andi	r5,r5,2047
 200378c:	1906703a 	and	r3,r3,r4
 2003790:	800d883a 	mov	r6,r16
 2003794:	003fe906 	br	200373c <__reset+0xfdffa73c>
 2003798:	000d883a 	mov	r6,zero
 200379c:	000b883a 	mov	r5,zero
 20037a0:	0007883a 	mov	r3,zero
 20037a4:	0005883a 	mov	r2,zero
 20037a8:	003fe406 	br	200373c <__reset+0xfdffa73c>
 20037ac:	0123c83a 	sub	r17,zero,r4
 20037b0:	003fd106 	br	20036f8 <__reset+0xfdffa6f8>

020037b4 <__clzsi2>:
 20037b4:	00bfffd4 	movui	r2,65535
 20037b8:	11000536 	bltu	r2,r4,20037d0 <__clzsi2+0x1c>
 20037bc:	00803fc4 	movi	r2,255
 20037c0:	11000f36 	bltu	r2,r4,2003800 <__clzsi2+0x4c>
 20037c4:	00800804 	movi	r2,32
 20037c8:	0007883a 	mov	r3,zero
 20037cc:	00000506 	br	20037e4 <__clzsi2+0x30>
 20037d0:	00804034 	movhi	r2,256
 20037d4:	10bfffc4 	addi	r2,r2,-1
 20037d8:	11000c2e 	bgeu	r2,r4,200380c <__clzsi2+0x58>
 20037dc:	00800204 	movi	r2,8
 20037e0:	00c00604 	movi	r3,24
 20037e4:	20c8d83a 	srl	r4,r4,r3
 20037e8:	00c082b4 	movhi	r3,522
 20037ec:	18d16104 	addi	r3,r3,17796
 20037f0:	1909883a 	add	r4,r3,r4
 20037f4:	20c00003 	ldbu	r3,0(r4)
 20037f8:	10c5c83a 	sub	r2,r2,r3
 20037fc:	f800283a 	ret
 2003800:	00800604 	movi	r2,24
 2003804:	00c00204 	movi	r3,8
 2003808:	003ff606 	br	20037e4 <__reset+0xfdffa7e4>
 200380c:	00800404 	movi	r2,16
 2003810:	1007883a 	mov	r3,r2
 2003814:	003ff306 	br	20037e4 <__reset+0xfdffa7e4>

02003818 <__mulsi3>:
 2003818:	0005883a 	mov	r2,zero
 200381c:	20000726 	beq	r4,zero,200383c <__mulsi3+0x24>
 2003820:	20c0004c 	andi	r3,r4,1
 2003824:	2008d07a 	srli	r4,r4,1
 2003828:	18000126 	beq	r3,zero,2003830 <__mulsi3+0x18>
 200382c:	1145883a 	add	r2,r2,r5
 2003830:	294b883a 	add	r5,r5,r5
 2003834:	203ffa1e 	bne	r4,zero,2003820 <__reset+0xfdffa820>
 2003838:	f800283a 	ret
 200383c:	f800283a 	ret

02003840 <__sflush_r>:
 2003840:	2880030b 	ldhu	r2,12(r5)
 2003844:	defffb04 	addi	sp,sp,-20
 2003848:	dcc00315 	stw	r19,12(sp)
 200384c:	dc400115 	stw	r17,4(sp)
 2003850:	dfc00415 	stw	ra,16(sp)
 2003854:	dc800215 	stw	r18,8(sp)
 2003858:	dc000015 	stw	r16,0(sp)
 200385c:	10c0020c 	andi	r3,r2,8
 2003860:	2823883a 	mov	r17,r5
 2003864:	2027883a 	mov	r19,r4
 2003868:	1800311e 	bne	r3,zero,2003930 <__sflush_r+0xf0>
 200386c:	28c00117 	ldw	r3,4(r5)
 2003870:	10820014 	ori	r2,r2,2048
 2003874:	2880030d 	sth	r2,12(r5)
 2003878:	00c04b0e 	bge	zero,r3,20039a8 <__sflush_r+0x168>
 200387c:	8a000a17 	ldw	r8,40(r17)
 2003880:	40002326 	beq	r8,zero,2003910 <__sflush_r+0xd0>
 2003884:	9c000017 	ldw	r16,0(r19)
 2003888:	10c4000c 	andi	r3,r2,4096
 200388c:	98000015 	stw	zero,0(r19)
 2003890:	18004826 	beq	r3,zero,20039b4 <__sflush_r+0x174>
 2003894:	89801417 	ldw	r6,80(r17)
 2003898:	10c0010c 	andi	r3,r2,4
 200389c:	18000626 	beq	r3,zero,20038b8 <__sflush_r+0x78>
 20038a0:	88c00117 	ldw	r3,4(r17)
 20038a4:	88800c17 	ldw	r2,48(r17)
 20038a8:	30cdc83a 	sub	r6,r6,r3
 20038ac:	10000226 	beq	r2,zero,20038b8 <__sflush_r+0x78>
 20038b0:	88800f17 	ldw	r2,60(r17)
 20038b4:	308dc83a 	sub	r6,r6,r2
 20038b8:	89400717 	ldw	r5,28(r17)
 20038bc:	000f883a 	mov	r7,zero
 20038c0:	9809883a 	mov	r4,r19
 20038c4:	403ee83a 	callr	r8
 20038c8:	00ffffc4 	movi	r3,-1
 20038cc:	10c04426 	beq	r2,r3,20039e0 <__sflush_r+0x1a0>
 20038d0:	88c0030b 	ldhu	r3,12(r17)
 20038d4:	89000417 	ldw	r4,16(r17)
 20038d8:	88000115 	stw	zero,4(r17)
 20038dc:	197dffcc 	andi	r5,r3,63487
 20038e0:	8940030d 	sth	r5,12(r17)
 20038e4:	89000015 	stw	r4,0(r17)
 20038e8:	18c4000c 	andi	r3,r3,4096
 20038ec:	18002c1e 	bne	r3,zero,20039a0 <__sflush_r+0x160>
 20038f0:	89400c17 	ldw	r5,48(r17)
 20038f4:	9c000015 	stw	r16,0(r19)
 20038f8:	28000526 	beq	r5,zero,2003910 <__sflush_r+0xd0>
 20038fc:	88801004 	addi	r2,r17,64
 2003900:	28800226 	beq	r5,r2,200390c <__sflush_r+0xcc>
 2003904:	9809883a 	mov	r4,r19
 2003908:	2003fbc0 	call	2003fbc <_free_r>
 200390c:	88000c15 	stw	zero,48(r17)
 2003910:	0005883a 	mov	r2,zero
 2003914:	dfc00417 	ldw	ra,16(sp)
 2003918:	dcc00317 	ldw	r19,12(sp)
 200391c:	dc800217 	ldw	r18,8(sp)
 2003920:	dc400117 	ldw	r17,4(sp)
 2003924:	dc000017 	ldw	r16,0(sp)
 2003928:	dec00504 	addi	sp,sp,20
 200392c:	f800283a 	ret
 2003930:	2c800417 	ldw	r18,16(r5)
 2003934:	903ff626 	beq	r18,zero,2003910 <__reset+0xfdffa910>
 2003938:	2c000017 	ldw	r16,0(r5)
 200393c:	108000cc 	andi	r2,r2,3
 2003940:	2c800015 	stw	r18,0(r5)
 2003944:	84a1c83a 	sub	r16,r16,r18
 2003948:	1000131e 	bne	r2,zero,2003998 <__sflush_r+0x158>
 200394c:	28800517 	ldw	r2,20(r5)
 2003950:	88800215 	stw	r2,8(r17)
 2003954:	04000316 	blt	zero,r16,2003964 <__sflush_r+0x124>
 2003958:	003fed06 	br	2003910 <__reset+0xfdffa910>
 200395c:	90a5883a 	add	r18,r18,r2
 2003960:	043feb0e 	bge	zero,r16,2003910 <__reset+0xfdffa910>
 2003964:	88800917 	ldw	r2,36(r17)
 2003968:	89400717 	ldw	r5,28(r17)
 200396c:	800f883a 	mov	r7,r16
 2003970:	900d883a 	mov	r6,r18
 2003974:	9809883a 	mov	r4,r19
 2003978:	103ee83a 	callr	r2
 200397c:	80a1c83a 	sub	r16,r16,r2
 2003980:	00bff616 	blt	zero,r2,200395c <__reset+0xfdffa95c>
 2003984:	88c0030b 	ldhu	r3,12(r17)
 2003988:	00bfffc4 	movi	r2,-1
 200398c:	18c01014 	ori	r3,r3,64
 2003990:	88c0030d 	sth	r3,12(r17)
 2003994:	003fdf06 	br	2003914 <__reset+0xfdffa914>
 2003998:	0005883a 	mov	r2,zero
 200399c:	003fec06 	br	2003950 <__reset+0xfdffa950>
 20039a0:	88801415 	stw	r2,80(r17)
 20039a4:	003fd206 	br	20038f0 <__reset+0xfdffa8f0>
 20039a8:	28c00f17 	ldw	r3,60(r5)
 20039ac:	00ffb316 	blt	zero,r3,200387c <__reset+0xfdffa87c>
 20039b0:	003fd706 	br	2003910 <__reset+0xfdffa910>
 20039b4:	89400717 	ldw	r5,28(r17)
 20039b8:	000d883a 	mov	r6,zero
 20039bc:	01c00044 	movi	r7,1
 20039c0:	9809883a 	mov	r4,r19
 20039c4:	403ee83a 	callr	r8
 20039c8:	100d883a 	mov	r6,r2
 20039cc:	00bfffc4 	movi	r2,-1
 20039d0:	30801426 	beq	r6,r2,2003a24 <__sflush_r+0x1e4>
 20039d4:	8880030b 	ldhu	r2,12(r17)
 20039d8:	8a000a17 	ldw	r8,40(r17)
 20039dc:	003fae06 	br	2003898 <__reset+0xfdffa898>
 20039e0:	98c00017 	ldw	r3,0(r19)
 20039e4:	183fba26 	beq	r3,zero,20038d0 <__reset+0xfdffa8d0>
 20039e8:	01000744 	movi	r4,29
 20039ec:	19000626 	beq	r3,r4,2003a08 <__sflush_r+0x1c8>
 20039f0:	01000584 	movi	r4,22
 20039f4:	19000426 	beq	r3,r4,2003a08 <__sflush_r+0x1c8>
 20039f8:	88c0030b 	ldhu	r3,12(r17)
 20039fc:	18c01014 	ori	r3,r3,64
 2003a00:	88c0030d 	sth	r3,12(r17)
 2003a04:	003fc306 	br	2003914 <__reset+0xfdffa914>
 2003a08:	8880030b 	ldhu	r2,12(r17)
 2003a0c:	88c00417 	ldw	r3,16(r17)
 2003a10:	88000115 	stw	zero,4(r17)
 2003a14:	10bdffcc 	andi	r2,r2,63487
 2003a18:	8880030d 	sth	r2,12(r17)
 2003a1c:	88c00015 	stw	r3,0(r17)
 2003a20:	003fb306 	br	20038f0 <__reset+0xfdffa8f0>
 2003a24:	98800017 	ldw	r2,0(r19)
 2003a28:	103fea26 	beq	r2,zero,20039d4 <__reset+0xfdffa9d4>
 2003a2c:	00c00744 	movi	r3,29
 2003a30:	10c00226 	beq	r2,r3,2003a3c <__sflush_r+0x1fc>
 2003a34:	00c00584 	movi	r3,22
 2003a38:	10c0031e 	bne	r2,r3,2003a48 <__sflush_r+0x208>
 2003a3c:	9c000015 	stw	r16,0(r19)
 2003a40:	0005883a 	mov	r2,zero
 2003a44:	003fb306 	br	2003914 <__reset+0xfdffa914>
 2003a48:	88c0030b 	ldhu	r3,12(r17)
 2003a4c:	3005883a 	mov	r2,r6
 2003a50:	18c01014 	ori	r3,r3,64
 2003a54:	88c0030d 	sth	r3,12(r17)
 2003a58:	003fae06 	br	2003914 <__reset+0xfdffa914>

02003a5c <_fflush_r>:
 2003a5c:	defffd04 	addi	sp,sp,-12
 2003a60:	dc000115 	stw	r16,4(sp)
 2003a64:	dfc00215 	stw	ra,8(sp)
 2003a68:	2021883a 	mov	r16,r4
 2003a6c:	20000226 	beq	r4,zero,2003a78 <_fflush_r+0x1c>
 2003a70:	20800e17 	ldw	r2,56(r4)
 2003a74:	10000c26 	beq	r2,zero,2003aa8 <_fflush_r+0x4c>
 2003a78:	2880030f 	ldh	r2,12(r5)
 2003a7c:	1000051e 	bne	r2,zero,2003a94 <_fflush_r+0x38>
 2003a80:	0005883a 	mov	r2,zero
 2003a84:	dfc00217 	ldw	ra,8(sp)
 2003a88:	dc000117 	ldw	r16,4(sp)
 2003a8c:	dec00304 	addi	sp,sp,12
 2003a90:	f800283a 	ret
 2003a94:	8009883a 	mov	r4,r16
 2003a98:	dfc00217 	ldw	ra,8(sp)
 2003a9c:	dc000117 	ldw	r16,4(sp)
 2003aa0:	dec00304 	addi	sp,sp,12
 2003aa4:	20038401 	jmpi	2003840 <__sflush_r>
 2003aa8:	d9400015 	stw	r5,0(sp)
 2003aac:	2003e480 	call	2003e48 <__sinit>
 2003ab0:	d9400017 	ldw	r5,0(sp)
 2003ab4:	003ff006 	br	2003a78 <__reset+0xfdffaa78>

02003ab8 <fflush>:
 2003ab8:	20000526 	beq	r4,zero,2003ad0 <fflush+0x18>
 2003abc:	008082b4 	movhi	r2,522
 2003ac0:	109a7604 	addi	r2,r2,27096
 2003ac4:	200b883a 	mov	r5,r4
 2003ac8:	11000017 	ldw	r4,0(r2)
 2003acc:	2003a5c1 	jmpi	2003a5c <_fflush_r>
 2003ad0:	008082b4 	movhi	r2,522
 2003ad4:	109a7504 	addi	r2,r2,27092
 2003ad8:	11000017 	ldw	r4,0(r2)
 2003adc:	01408034 	movhi	r5,512
 2003ae0:	294e9704 	addi	r5,r5,14940
 2003ae4:	20043901 	jmpi	2004390 <_fwalk_reent>

02003ae8 <__fp_unlock>:
 2003ae8:	0005883a 	mov	r2,zero
 2003aec:	f800283a 	ret

02003af0 <_cleanup_r>:
 2003af0:	01408074 	movhi	r5,513
 2003af4:	296a8904 	addi	r5,r5,-21980
 2003af8:	20043901 	jmpi	2004390 <_fwalk_reent>

02003afc <__sinit.part.1>:
 2003afc:	defff704 	addi	sp,sp,-36
 2003b00:	00c08034 	movhi	r3,512
 2003b04:	dfc00815 	stw	ra,32(sp)
 2003b08:	ddc00715 	stw	r23,28(sp)
 2003b0c:	dd800615 	stw	r22,24(sp)
 2003b10:	dd400515 	stw	r21,20(sp)
 2003b14:	dd000415 	stw	r20,16(sp)
 2003b18:	dcc00315 	stw	r19,12(sp)
 2003b1c:	dc800215 	stw	r18,8(sp)
 2003b20:	dc400115 	stw	r17,4(sp)
 2003b24:	dc000015 	stw	r16,0(sp)
 2003b28:	18cebc04 	addi	r3,r3,15088
 2003b2c:	24000117 	ldw	r16,4(r4)
 2003b30:	20c00f15 	stw	r3,60(r4)
 2003b34:	2080bb04 	addi	r2,r4,748
 2003b38:	00c000c4 	movi	r3,3
 2003b3c:	20c0b915 	stw	r3,740(r4)
 2003b40:	2080ba15 	stw	r2,744(r4)
 2003b44:	2000b815 	stw	zero,736(r4)
 2003b48:	05c00204 	movi	r23,8
 2003b4c:	00800104 	movi	r2,4
 2003b50:	2025883a 	mov	r18,r4
 2003b54:	b80d883a 	mov	r6,r23
 2003b58:	81001704 	addi	r4,r16,92
 2003b5c:	000b883a 	mov	r5,zero
 2003b60:	80000015 	stw	zero,0(r16)
 2003b64:	80000115 	stw	zero,4(r16)
 2003b68:	80000215 	stw	zero,8(r16)
 2003b6c:	8080030d 	sth	r2,12(r16)
 2003b70:	80001915 	stw	zero,100(r16)
 2003b74:	8000038d 	sth	zero,14(r16)
 2003b78:	80000415 	stw	zero,16(r16)
 2003b7c:	80000515 	stw	zero,20(r16)
 2003b80:	80000615 	stw	zero,24(r16)
 2003b84:	2004c600 	call	2004c60 <memset>
 2003b88:	05808034 	movhi	r22,512
 2003b8c:	94400217 	ldw	r17,8(r18)
 2003b90:	05408034 	movhi	r21,512
 2003b94:	05008034 	movhi	r20,512
 2003b98:	04c08034 	movhi	r19,512
 2003b9c:	b593e204 	addi	r22,r22,20360
 2003ba0:	ad53f904 	addi	r21,r21,20452
 2003ba4:	a5141804 	addi	r20,r20,20576
 2003ba8:	9cd42f04 	addi	r19,r19,20668
 2003bac:	85800815 	stw	r22,32(r16)
 2003bb0:	85400915 	stw	r21,36(r16)
 2003bb4:	85000a15 	stw	r20,40(r16)
 2003bb8:	84c00b15 	stw	r19,44(r16)
 2003bbc:	84000715 	stw	r16,28(r16)
 2003bc0:	00800284 	movi	r2,10
 2003bc4:	8880030d 	sth	r2,12(r17)
 2003bc8:	00800044 	movi	r2,1
 2003bcc:	b80d883a 	mov	r6,r23
 2003bd0:	89001704 	addi	r4,r17,92
 2003bd4:	000b883a 	mov	r5,zero
 2003bd8:	88000015 	stw	zero,0(r17)
 2003bdc:	88000115 	stw	zero,4(r17)
 2003be0:	88000215 	stw	zero,8(r17)
 2003be4:	88001915 	stw	zero,100(r17)
 2003be8:	8880038d 	sth	r2,14(r17)
 2003bec:	88000415 	stw	zero,16(r17)
 2003bf0:	88000515 	stw	zero,20(r17)
 2003bf4:	88000615 	stw	zero,24(r17)
 2003bf8:	2004c600 	call	2004c60 <memset>
 2003bfc:	94000317 	ldw	r16,12(r18)
 2003c00:	00800484 	movi	r2,18
 2003c04:	8c400715 	stw	r17,28(r17)
 2003c08:	8d800815 	stw	r22,32(r17)
 2003c0c:	8d400915 	stw	r21,36(r17)
 2003c10:	8d000a15 	stw	r20,40(r17)
 2003c14:	8cc00b15 	stw	r19,44(r17)
 2003c18:	8080030d 	sth	r2,12(r16)
 2003c1c:	00800084 	movi	r2,2
 2003c20:	80000015 	stw	zero,0(r16)
 2003c24:	80000115 	stw	zero,4(r16)
 2003c28:	80000215 	stw	zero,8(r16)
 2003c2c:	80001915 	stw	zero,100(r16)
 2003c30:	8080038d 	sth	r2,14(r16)
 2003c34:	80000415 	stw	zero,16(r16)
 2003c38:	80000515 	stw	zero,20(r16)
 2003c3c:	80000615 	stw	zero,24(r16)
 2003c40:	b80d883a 	mov	r6,r23
 2003c44:	000b883a 	mov	r5,zero
 2003c48:	81001704 	addi	r4,r16,92
 2003c4c:	2004c600 	call	2004c60 <memset>
 2003c50:	00800044 	movi	r2,1
 2003c54:	84000715 	stw	r16,28(r16)
 2003c58:	85800815 	stw	r22,32(r16)
 2003c5c:	85400915 	stw	r21,36(r16)
 2003c60:	85000a15 	stw	r20,40(r16)
 2003c64:	84c00b15 	stw	r19,44(r16)
 2003c68:	90800e15 	stw	r2,56(r18)
 2003c6c:	dfc00817 	ldw	ra,32(sp)
 2003c70:	ddc00717 	ldw	r23,28(sp)
 2003c74:	dd800617 	ldw	r22,24(sp)
 2003c78:	dd400517 	ldw	r21,20(sp)
 2003c7c:	dd000417 	ldw	r20,16(sp)
 2003c80:	dcc00317 	ldw	r19,12(sp)
 2003c84:	dc800217 	ldw	r18,8(sp)
 2003c88:	dc400117 	ldw	r17,4(sp)
 2003c8c:	dc000017 	ldw	r16,0(sp)
 2003c90:	dec00904 	addi	sp,sp,36
 2003c94:	f800283a 	ret

02003c98 <__fp_lock>:
 2003c98:	0005883a 	mov	r2,zero
 2003c9c:	f800283a 	ret

02003ca0 <__sfmoreglue>:
 2003ca0:	defffc04 	addi	sp,sp,-16
 2003ca4:	dc800215 	stw	r18,8(sp)
 2003ca8:	2825883a 	mov	r18,r5
 2003cac:	dc000015 	stw	r16,0(sp)
 2003cb0:	01401a04 	movi	r5,104
 2003cb4:	2021883a 	mov	r16,r4
 2003cb8:	913fffc4 	addi	r4,r18,-1
 2003cbc:	dfc00315 	stw	ra,12(sp)
 2003cc0:	dc400115 	stw	r17,4(sp)
 2003cc4:	20038180 	call	2003818 <__mulsi3>
 2003cc8:	8009883a 	mov	r4,r16
 2003ccc:	11401d04 	addi	r5,r2,116
 2003cd0:	1023883a 	mov	r17,r2
 2003cd4:	20044540 	call	2004454 <_malloc_r>
 2003cd8:	1021883a 	mov	r16,r2
 2003cdc:	10000726 	beq	r2,zero,2003cfc <__sfmoreglue+0x5c>
 2003ce0:	11000304 	addi	r4,r2,12
 2003ce4:	10000015 	stw	zero,0(r2)
 2003ce8:	14800115 	stw	r18,4(r2)
 2003cec:	11000215 	stw	r4,8(r2)
 2003cf0:	89801a04 	addi	r6,r17,104
 2003cf4:	000b883a 	mov	r5,zero
 2003cf8:	2004c600 	call	2004c60 <memset>
 2003cfc:	8005883a 	mov	r2,r16
 2003d00:	dfc00317 	ldw	ra,12(sp)
 2003d04:	dc800217 	ldw	r18,8(sp)
 2003d08:	dc400117 	ldw	r17,4(sp)
 2003d0c:	dc000017 	ldw	r16,0(sp)
 2003d10:	dec00404 	addi	sp,sp,16
 2003d14:	f800283a 	ret

02003d18 <__sfp>:
 2003d18:	defffb04 	addi	sp,sp,-20
 2003d1c:	dc000015 	stw	r16,0(sp)
 2003d20:	040082b4 	movhi	r16,522
 2003d24:	841a7504 	addi	r16,r16,27092
 2003d28:	dcc00315 	stw	r19,12(sp)
 2003d2c:	2027883a 	mov	r19,r4
 2003d30:	81000017 	ldw	r4,0(r16)
 2003d34:	dfc00415 	stw	ra,16(sp)
 2003d38:	dc800215 	stw	r18,8(sp)
 2003d3c:	20800e17 	ldw	r2,56(r4)
 2003d40:	dc400115 	stw	r17,4(sp)
 2003d44:	1000021e 	bne	r2,zero,2003d50 <__sfp+0x38>
 2003d48:	2003afc0 	call	2003afc <__sinit.part.1>
 2003d4c:	81000017 	ldw	r4,0(r16)
 2003d50:	2480b804 	addi	r18,r4,736
 2003d54:	047fffc4 	movi	r17,-1
 2003d58:	91000117 	ldw	r4,4(r18)
 2003d5c:	94000217 	ldw	r16,8(r18)
 2003d60:	213fffc4 	addi	r4,r4,-1
 2003d64:	20000a16 	blt	r4,zero,2003d90 <__sfp+0x78>
 2003d68:	8080030f 	ldh	r2,12(r16)
 2003d6c:	10000c26 	beq	r2,zero,2003da0 <__sfp+0x88>
 2003d70:	80c01d04 	addi	r3,r16,116
 2003d74:	00000206 	br	2003d80 <__sfp+0x68>
 2003d78:	18bfe60f 	ldh	r2,-104(r3)
 2003d7c:	10000826 	beq	r2,zero,2003da0 <__sfp+0x88>
 2003d80:	213fffc4 	addi	r4,r4,-1
 2003d84:	1c3ffd04 	addi	r16,r3,-12
 2003d88:	18c01a04 	addi	r3,r3,104
 2003d8c:	247ffa1e 	bne	r4,r17,2003d78 <__reset+0xfdffad78>
 2003d90:	90800017 	ldw	r2,0(r18)
 2003d94:	10001d26 	beq	r2,zero,2003e0c <__sfp+0xf4>
 2003d98:	1025883a 	mov	r18,r2
 2003d9c:	003fee06 	br	2003d58 <__reset+0xfdffad58>
 2003da0:	00bfffc4 	movi	r2,-1
 2003da4:	8080038d 	sth	r2,14(r16)
 2003da8:	00800044 	movi	r2,1
 2003dac:	8080030d 	sth	r2,12(r16)
 2003db0:	80001915 	stw	zero,100(r16)
 2003db4:	80000015 	stw	zero,0(r16)
 2003db8:	80000215 	stw	zero,8(r16)
 2003dbc:	80000115 	stw	zero,4(r16)
 2003dc0:	80000415 	stw	zero,16(r16)
 2003dc4:	80000515 	stw	zero,20(r16)
 2003dc8:	80000615 	stw	zero,24(r16)
 2003dcc:	01800204 	movi	r6,8
 2003dd0:	000b883a 	mov	r5,zero
 2003dd4:	81001704 	addi	r4,r16,92
 2003dd8:	2004c600 	call	2004c60 <memset>
 2003ddc:	8005883a 	mov	r2,r16
 2003de0:	80000c15 	stw	zero,48(r16)
 2003de4:	80000d15 	stw	zero,52(r16)
 2003de8:	80001115 	stw	zero,68(r16)
 2003dec:	80001215 	stw	zero,72(r16)
 2003df0:	dfc00417 	ldw	ra,16(sp)
 2003df4:	dcc00317 	ldw	r19,12(sp)
 2003df8:	dc800217 	ldw	r18,8(sp)
 2003dfc:	dc400117 	ldw	r17,4(sp)
 2003e00:	dc000017 	ldw	r16,0(sp)
 2003e04:	dec00504 	addi	sp,sp,20
 2003e08:	f800283a 	ret
 2003e0c:	01400104 	movi	r5,4
 2003e10:	9809883a 	mov	r4,r19
 2003e14:	2003ca00 	call	2003ca0 <__sfmoreglue>
 2003e18:	90800015 	stw	r2,0(r18)
 2003e1c:	103fde1e 	bne	r2,zero,2003d98 <__reset+0xfdffad98>
 2003e20:	00800304 	movi	r2,12
 2003e24:	98800015 	stw	r2,0(r19)
 2003e28:	0005883a 	mov	r2,zero
 2003e2c:	003ff006 	br	2003df0 <__reset+0xfdffadf0>

02003e30 <_cleanup>:
 2003e30:	008082b4 	movhi	r2,522
 2003e34:	109a7504 	addi	r2,r2,27092
 2003e38:	11000017 	ldw	r4,0(r2)
 2003e3c:	01408074 	movhi	r5,513
 2003e40:	296a8904 	addi	r5,r5,-21980
 2003e44:	20043901 	jmpi	2004390 <_fwalk_reent>

02003e48 <__sinit>:
 2003e48:	20800e17 	ldw	r2,56(r4)
 2003e4c:	10000126 	beq	r2,zero,2003e54 <__sinit+0xc>
 2003e50:	f800283a 	ret
 2003e54:	2003afc1 	jmpi	2003afc <__sinit.part.1>

02003e58 <__sfp_lock_acquire>:
 2003e58:	f800283a 	ret

02003e5c <__sfp_lock_release>:
 2003e5c:	f800283a 	ret

02003e60 <__sinit_lock_acquire>:
 2003e60:	f800283a 	ret

02003e64 <__sinit_lock_release>:
 2003e64:	f800283a 	ret

02003e68 <__fp_lock_all>:
 2003e68:	008082b4 	movhi	r2,522
 2003e6c:	109a7604 	addi	r2,r2,27096
 2003e70:	11000017 	ldw	r4,0(r2)
 2003e74:	01408034 	movhi	r5,512
 2003e78:	294f2604 	addi	r5,r5,15512
 2003e7c:	20042cc1 	jmpi	20042cc <_fwalk>

02003e80 <__fp_unlock_all>:
 2003e80:	008082b4 	movhi	r2,522
 2003e84:	109a7604 	addi	r2,r2,27096
 2003e88:	11000017 	ldw	r4,0(r2)
 2003e8c:	01408034 	movhi	r5,512
 2003e90:	294eba04 	addi	r5,r5,15080
 2003e94:	20042cc1 	jmpi	20042cc <_fwalk>

02003e98 <_malloc_trim_r>:
 2003e98:	defffb04 	addi	sp,sp,-20
 2003e9c:	dcc00315 	stw	r19,12(sp)
 2003ea0:	04c082b4 	movhi	r19,522
 2003ea4:	dc800215 	stw	r18,8(sp)
 2003ea8:	dc400115 	stw	r17,4(sp)
 2003eac:	dc000015 	stw	r16,0(sp)
 2003eb0:	dfc00415 	stw	ra,16(sp)
 2003eb4:	2821883a 	mov	r16,r5
 2003eb8:	9cd46c04 	addi	r19,r19,20912
 2003ebc:	2025883a 	mov	r18,r4
 2003ec0:	20189740 	call	2018974 <__malloc_lock>
 2003ec4:	98800217 	ldw	r2,8(r19)
 2003ec8:	14400117 	ldw	r17,4(r2)
 2003ecc:	00bfff04 	movi	r2,-4
 2003ed0:	88a2703a 	and	r17,r17,r2
 2003ed4:	8c21c83a 	sub	r16,r17,r16
 2003ed8:	8403fbc4 	addi	r16,r16,4079
 2003edc:	8020d33a 	srli	r16,r16,12
 2003ee0:	0083ffc4 	movi	r2,4095
 2003ee4:	843fffc4 	addi	r16,r16,-1
 2003ee8:	8020933a 	slli	r16,r16,12
 2003eec:	1400060e 	bge	r2,r16,2003f08 <_malloc_trim_r+0x70>
 2003ef0:	000b883a 	mov	r5,zero
 2003ef4:	9009883a 	mov	r4,r18
 2003ef8:	2004ec80 	call	2004ec8 <_sbrk_r>
 2003efc:	98c00217 	ldw	r3,8(r19)
 2003f00:	1c47883a 	add	r3,r3,r17
 2003f04:	10c00a26 	beq	r2,r3,2003f30 <_malloc_trim_r+0x98>
 2003f08:	9009883a 	mov	r4,r18
 2003f0c:	20189980 	call	2018998 <__malloc_unlock>
 2003f10:	0005883a 	mov	r2,zero
 2003f14:	dfc00417 	ldw	ra,16(sp)
 2003f18:	dcc00317 	ldw	r19,12(sp)
 2003f1c:	dc800217 	ldw	r18,8(sp)
 2003f20:	dc400117 	ldw	r17,4(sp)
 2003f24:	dc000017 	ldw	r16,0(sp)
 2003f28:	dec00504 	addi	sp,sp,20
 2003f2c:	f800283a 	ret
 2003f30:	040bc83a 	sub	r5,zero,r16
 2003f34:	9009883a 	mov	r4,r18
 2003f38:	2004ec80 	call	2004ec8 <_sbrk_r>
 2003f3c:	00ffffc4 	movi	r3,-1
 2003f40:	10c00d26 	beq	r2,r3,2003f78 <_malloc_trim_r+0xe0>
 2003f44:	00c082b4 	movhi	r3,522
 2003f48:	18daa004 	addi	r3,r3,27264
 2003f4c:	18800017 	ldw	r2,0(r3)
 2003f50:	99000217 	ldw	r4,8(r19)
 2003f54:	8c23c83a 	sub	r17,r17,r16
 2003f58:	8c400054 	ori	r17,r17,1
 2003f5c:	1421c83a 	sub	r16,r2,r16
 2003f60:	24400115 	stw	r17,4(r4)
 2003f64:	9009883a 	mov	r4,r18
 2003f68:	1c000015 	stw	r16,0(r3)
 2003f6c:	20189980 	call	2018998 <__malloc_unlock>
 2003f70:	00800044 	movi	r2,1
 2003f74:	003fe706 	br	2003f14 <__reset+0xfdffaf14>
 2003f78:	000b883a 	mov	r5,zero
 2003f7c:	9009883a 	mov	r4,r18
 2003f80:	2004ec80 	call	2004ec8 <_sbrk_r>
 2003f84:	99000217 	ldw	r4,8(r19)
 2003f88:	014003c4 	movi	r5,15
 2003f8c:	1107c83a 	sub	r3,r2,r4
 2003f90:	28ffdd0e 	bge	r5,r3,2003f08 <__reset+0xfdffaf08>
 2003f94:	014082b4 	movhi	r5,522
 2003f98:	295a7704 	addi	r5,r5,27100
 2003f9c:	29400017 	ldw	r5,0(r5)
 2003fa0:	18c00054 	ori	r3,r3,1
 2003fa4:	20c00115 	stw	r3,4(r4)
 2003fa8:	00c082b4 	movhi	r3,522
 2003fac:	1145c83a 	sub	r2,r2,r5
 2003fb0:	18daa004 	addi	r3,r3,27264
 2003fb4:	18800015 	stw	r2,0(r3)
 2003fb8:	003fd306 	br	2003f08 <__reset+0xfdffaf08>

02003fbc <_free_r>:
 2003fbc:	28004126 	beq	r5,zero,20040c4 <_free_r+0x108>
 2003fc0:	defffd04 	addi	sp,sp,-12
 2003fc4:	dc400115 	stw	r17,4(sp)
 2003fc8:	dc000015 	stw	r16,0(sp)
 2003fcc:	2023883a 	mov	r17,r4
 2003fd0:	2821883a 	mov	r16,r5
 2003fd4:	dfc00215 	stw	ra,8(sp)
 2003fd8:	20189740 	call	2018974 <__malloc_lock>
 2003fdc:	81ffff17 	ldw	r7,-4(r16)
 2003fe0:	00bfff84 	movi	r2,-2
 2003fe4:	010082b4 	movhi	r4,522
 2003fe8:	81bffe04 	addi	r6,r16,-8
 2003fec:	3884703a 	and	r2,r7,r2
 2003ff0:	21146c04 	addi	r4,r4,20912
 2003ff4:	308b883a 	add	r5,r6,r2
 2003ff8:	2a400117 	ldw	r9,4(r5)
 2003ffc:	22000217 	ldw	r8,8(r4)
 2004000:	00ffff04 	movi	r3,-4
 2004004:	48c6703a 	and	r3,r9,r3
 2004008:	2a005726 	beq	r5,r8,2004168 <_free_r+0x1ac>
 200400c:	28c00115 	stw	r3,4(r5)
 2004010:	39c0004c 	andi	r7,r7,1
 2004014:	3800091e 	bne	r7,zero,200403c <_free_r+0x80>
 2004018:	823ffe17 	ldw	r8,-8(r16)
 200401c:	22400204 	addi	r9,r4,8
 2004020:	320dc83a 	sub	r6,r6,r8
 2004024:	31c00217 	ldw	r7,8(r6)
 2004028:	1205883a 	add	r2,r2,r8
 200402c:	3a406526 	beq	r7,r9,20041c4 <_free_r+0x208>
 2004030:	32000317 	ldw	r8,12(r6)
 2004034:	3a000315 	stw	r8,12(r7)
 2004038:	41c00215 	stw	r7,8(r8)
 200403c:	28cf883a 	add	r7,r5,r3
 2004040:	39c00117 	ldw	r7,4(r7)
 2004044:	39c0004c 	andi	r7,r7,1
 2004048:	38003a26 	beq	r7,zero,2004134 <_free_r+0x178>
 200404c:	10c00054 	ori	r3,r2,1
 2004050:	30c00115 	stw	r3,4(r6)
 2004054:	3087883a 	add	r3,r6,r2
 2004058:	18800015 	stw	r2,0(r3)
 200405c:	00c07fc4 	movi	r3,511
 2004060:	18801936 	bltu	r3,r2,20040c8 <_free_r+0x10c>
 2004064:	1004d0fa 	srli	r2,r2,3
 2004068:	01c00044 	movi	r7,1
 200406c:	21400117 	ldw	r5,4(r4)
 2004070:	10c00044 	addi	r3,r2,1
 2004074:	18c7883a 	add	r3,r3,r3
 2004078:	1005d0ba 	srai	r2,r2,2
 200407c:	18c7883a 	add	r3,r3,r3
 2004080:	18c7883a 	add	r3,r3,r3
 2004084:	1907883a 	add	r3,r3,r4
 2004088:	3884983a 	sll	r2,r7,r2
 200408c:	19c00017 	ldw	r7,0(r3)
 2004090:	1a3ffe04 	addi	r8,r3,-8
 2004094:	1144b03a 	or	r2,r2,r5
 2004098:	32000315 	stw	r8,12(r6)
 200409c:	31c00215 	stw	r7,8(r6)
 20040a0:	20800115 	stw	r2,4(r4)
 20040a4:	19800015 	stw	r6,0(r3)
 20040a8:	39800315 	stw	r6,12(r7)
 20040ac:	8809883a 	mov	r4,r17
 20040b0:	dfc00217 	ldw	ra,8(sp)
 20040b4:	dc400117 	ldw	r17,4(sp)
 20040b8:	dc000017 	ldw	r16,0(sp)
 20040bc:	dec00304 	addi	sp,sp,12
 20040c0:	20189981 	jmpi	2018998 <__malloc_unlock>
 20040c4:	f800283a 	ret
 20040c8:	100ad27a 	srli	r5,r2,9
 20040cc:	00c00104 	movi	r3,4
 20040d0:	19404a36 	bltu	r3,r5,20041fc <_free_r+0x240>
 20040d4:	100ad1ba 	srli	r5,r2,6
 20040d8:	28c00e44 	addi	r3,r5,57
 20040dc:	18c7883a 	add	r3,r3,r3
 20040e0:	29400e04 	addi	r5,r5,56
 20040e4:	18c7883a 	add	r3,r3,r3
 20040e8:	18c7883a 	add	r3,r3,r3
 20040ec:	1909883a 	add	r4,r3,r4
 20040f0:	20c00017 	ldw	r3,0(r4)
 20040f4:	01c082b4 	movhi	r7,522
 20040f8:	213ffe04 	addi	r4,r4,-8
 20040fc:	39d46c04 	addi	r7,r7,20912
 2004100:	20c04426 	beq	r4,r3,2004214 <_free_r+0x258>
 2004104:	01ffff04 	movi	r7,-4
 2004108:	19400117 	ldw	r5,4(r3)
 200410c:	29ca703a 	and	r5,r5,r7
 2004110:	1140022e 	bgeu	r2,r5,200411c <_free_r+0x160>
 2004114:	18c00217 	ldw	r3,8(r3)
 2004118:	20fffb1e 	bne	r4,r3,2004108 <__reset+0xfdffb108>
 200411c:	19000317 	ldw	r4,12(r3)
 2004120:	31000315 	stw	r4,12(r6)
 2004124:	30c00215 	stw	r3,8(r6)
 2004128:	21800215 	stw	r6,8(r4)
 200412c:	19800315 	stw	r6,12(r3)
 2004130:	003fde06 	br	20040ac <__reset+0xfdffb0ac>
 2004134:	29c00217 	ldw	r7,8(r5)
 2004138:	10c5883a 	add	r2,r2,r3
 200413c:	00c082b4 	movhi	r3,522
 2004140:	18d46e04 	addi	r3,r3,20920
 2004144:	38c03b26 	beq	r7,r3,2004234 <_free_r+0x278>
 2004148:	2a000317 	ldw	r8,12(r5)
 200414c:	11400054 	ori	r5,r2,1
 2004150:	3087883a 	add	r3,r6,r2
 2004154:	3a000315 	stw	r8,12(r7)
 2004158:	41c00215 	stw	r7,8(r8)
 200415c:	31400115 	stw	r5,4(r6)
 2004160:	18800015 	stw	r2,0(r3)
 2004164:	003fbd06 	br	200405c <__reset+0xfdffb05c>
 2004168:	39c0004c 	andi	r7,r7,1
 200416c:	10c5883a 	add	r2,r2,r3
 2004170:	3800071e 	bne	r7,zero,2004190 <_free_r+0x1d4>
 2004174:	81fffe17 	ldw	r7,-8(r16)
 2004178:	31cdc83a 	sub	r6,r6,r7
 200417c:	30c00317 	ldw	r3,12(r6)
 2004180:	31400217 	ldw	r5,8(r6)
 2004184:	11c5883a 	add	r2,r2,r7
 2004188:	28c00315 	stw	r3,12(r5)
 200418c:	19400215 	stw	r5,8(r3)
 2004190:	10c00054 	ori	r3,r2,1
 2004194:	30c00115 	stw	r3,4(r6)
 2004198:	00c082b4 	movhi	r3,522
 200419c:	18da7804 	addi	r3,r3,27104
 20041a0:	18c00017 	ldw	r3,0(r3)
 20041a4:	21800215 	stw	r6,8(r4)
 20041a8:	10ffc036 	bltu	r2,r3,20040ac <__reset+0xfdffb0ac>
 20041ac:	008082b4 	movhi	r2,522
 20041b0:	109a8e04 	addi	r2,r2,27192
 20041b4:	11400017 	ldw	r5,0(r2)
 20041b8:	8809883a 	mov	r4,r17
 20041bc:	2003e980 	call	2003e98 <_malloc_trim_r>
 20041c0:	003fba06 	br	20040ac <__reset+0xfdffb0ac>
 20041c4:	28c9883a 	add	r4,r5,r3
 20041c8:	21000117 	ldw	r4,4(r4)
 20041cc:	2100004c 	andi	r4,r4,1
 20041d0:	2000391e 	bne	r4,zero,20042b8 <_free_r+0x2fc>
 20041d4:	29c00217 	ldw	r7,8(r5)
 20041d8:	29000317 	ldw	r4,12(r5)
 20041dc:	1885883a 	add	r2,r3,r2
 20041e0:	10c00054 	ori	r3,r2,1
 20041e4:	39000315 	stw	r4,12(r7)
 20041e8:	21c00215 	stw	r7,8(r4)
 20041ec:	30c00115 	stw	r3,4(r6)
 20041f0:	308d883a 	add	r6,r6,r2
 20041f4:	30800015 	stw	r2,0(r6)
 20041f8:	003fac06 	br	20040ac <__reset+0xfdffb0ac>
 20041fc:	00c00504 	movi	r3,20
 2004200:	19401536 	bltu	r3,r5,2004258 <_free_r+0x29c>
 2004204:	28c01704 	addi	r3,r5,92
 2004208:	18c7883a 	add	r3,r3,r3
 200420c:	294016c4 	addi	r5,r5,91
 2004210:	003fb406 	br	20040e4 <__reset+0xfdffb0e4>
 2004214:	280bd0ba 	srai	r5,r5,2
 2004218:	00c00044 	movi	r3,1
 200421c:	38800117 	ldw	r2,4(r7)
 2004220:	194a983a 	sll	r5,r3,r5
 2004224:	2007883a 	mov	r3,r4
 2004228:	2884b03a 	or	r2,r5,r2
 200422c:	38800115 	stw	r2,4(r7)
 2004230:	003fbb06 	br	2004120 <__reset+0xfdffb120>
 2004234:	21800515 	stw	r6,20(r4)
 2004238:	21800415 	stw	r6,16(r4)
 200423c:	10c00054 	ori	r3,r2,1
 2004240:	31c00315 	stw	r7,12(r6)
 2004244:	31c00215 	stw	r7,8(r6)
 2004248:	30c00115 	stw	r3,4(r6)
 200424c:	308d883a 	add	r6,r6,r2
 2004250:	30800015 	stw	r2,0(r6)
 2004254:	003f9506 	br	20040ac <__reset+0xfdffb0ac>
 2004258:	00c01504 	movi	r3,84
 200425c:	19400536 	bltu	r3,r5,2004274 <_free_r+0x2b8>
 2004260:	100ad33a 	srli	r5,r2,12
 2004264:	28c01bc4 	addi	r3,r5,111
 2004268:	18c7883a 	add	r3,r3,r3
 200426c:	29401b84 	addi	r5,r5,110
 2004270:	003f9c06 	br	20040e4 <__reset+0xfdffb0e4>
 2004274:	00c05504 	movi	r3,340
 2004278:	19400536 	bltu	r3,r5,2004290 <_free_r+0x2d4>
 200427c:	100ad3fa 	srli	r5,r2,15
 2004280:	28c01e04 	addi	r3,r5,120
 2004284:	18c7883a 	add	r3,r3,r3
 2004288:	29401dc4 	addi	r5,r5,119
 200428c:	003f9506 	br	20040e4 <__reset+0xfdffb0e4>
 2004290:	00c15504 	movi	r3,1364
 2004294:	19400536 	bltu	r3,r5,20042ac <_free_r+0x2f0>
 2004298:	100ad4ba 	srli	r5,r2,18
 200429c:	28c01f44 	addi	r3,r5,125
 20042a0:	18c7883a 	add	r3,r3,r3
 20042a4:	29401f04 	addi	r5,r5,124
 20042a8:	003f8e06 	br	20040e4 <__reset+0xfdffb0e4>
 20042ac:	00c03f84 	movi	r3,254
 20042b0:	01401f84 	movi	r5,126
 20042b4:	003f8b06 	br	20040e4 <__reset+0xfdffb0e4>
 20042b8:	10c00054 	ori	r3,r2,1
 20042bc:	30c00115 	stw	r3,4(r6)
 20042c0:	308d883a 	add	r6,r6,r2
 20042c4:	30800015 	stw	r2,0(r6)
 20042c8:	003f7806 	br	20040ac <__reset+0xfdffb0ac>

020042cc <_fwalk>:
 20042cc:	defff704 	addi	sp,sp,-36
 20042d0:	dd000415 	stw	r20,16(sp)
 20042d4:	dfc00815 	stw	ra,32(sp)
 20042d8:	ddc00715 	stw	r23,28(sp)
 20042dc:	dd800615 	stw	r22,24(sp)
 20042e0:	dd400515 	stw	r21,20(sp)
 20042e4:	dcc00315 	stw	r19,12(sp)
 20042e8:	dc800215 	stw	r18,8(sp)
 20042ec:	dc400115 	stw	r17,4(sp)
 20042f0:	dc000015 	stw	r16,0(sp)
 20042f4:	2500b804 	addi	r20,r4,736
 20042f8:	a0002326 	beq	r20,zero,2004388 <_fwalk+0xbc>
 20042fc:	282b883a 	mov	r21,r5
 2004300:	002f883a 	mov	r23,zero
 2004304:	05800044 	movi	r22,1
 2004308:	04ffffc4 	movi	r19,-1
 200430c:	a4400117 	ldw	r17,4(r20)
 2004310:	a4800217 	ldw	r18,8(r20)
 2004314:	8c7fffc4 	addi	r17,r17,-1
 2004318:	88000d16 	blt	r17,zero,2004350 <_fwalk+0x84>
 200431c:	94000304 	addi	r16,r18,12
 2004320:	94800384 	addi	r18,r18,14
 2004324:	8080000b 	ldhu	r2,0(r16)
 2004328:	8c7fffc4 	addi	r17,r17,-1
 200432c:	813ffd04 	addi	r4,r16,-12
 2004330:	b080042e 	bgeu	r22,r2,2004344 <_fwalk+0x78>
 2004334:	9080000f 	ldh	r2,0(r18)
 2004338:	14c00226 	beq	r2,r19,2004344 <_fwalk+0x78>
 200433c:	a83ee83a 	callr	r21
 2004340:	b8aeb03a 	or	r23,r23,r2
 2004344:	84001a04 	addi	r16,r16,104
 2004348:	94801a04 	addi	r18,r18,104
 200434c:	8cfff51e 	bne	r17,r19,2004324 <__reset+0xfdffb324>
 2004350:	a5000017 	ldw	r20,0(r20)
 2004354:	a03fed1e 	bne	r20,zero,200430c <__reset+0xfdffb30c>
 2004358:	b805883a 	mov	r2,r23
 200435c:	dfc00817 	ldw	ra,32(sp)
 2004360:	ddc00717 	ldw	r23,28(sp)
 2004364:	dd800617 	ldw	r22,24(sp)
 2004368:	dd400517 	ldw	r21,20(sp)
 200436c:	dd000417 	ldw	r20,16(sp)
 2004370:	dcc00317 	ldw	r19,12(sp)
 2004374:	dc800217 	ldw	r18,8(sp)
 2004378:	dc400117 	ldw	r17,4(sp)
 200437c:	dc000017 	ldw	r16,0(sp)
 2004380:	dec00904 	addi	sp,sp,36
 2004384:	f800283a 	ret
 2004388:	002f883a 	mov	r23,zero
 200438c:	003ff206 	br	2004358 <__reset+0xfdffb358>

02004390 <_fwalk_reent>:
 2004390:	defff704 	addi	sp,sp,-36
 2004394:	dd000415 	stw	r20,16(sp)
 2004398:	dfc00815 	stw	ra,32(sp)
 200439c:	ddc00715 	stw	r23,28(sp)
 20043a0:	dd800615 	stw	r22,24(sp)
 20043a4:	dd400515 	stw	r21,20(sp)
 20043a8:	dcc00315 	stw	r19,12(sp)
 20043ac:	dc800215 	stw	r18,8(sp)
 20043b0:	dc400115 	stw	r17,4(sp)
 20043b4:	dc000015 	stw	r16,0(sp)
 20043b8:	2500b804 	addi	r20,r4,736
 20043bc:	a0002326 	beq	r20,zero,200444c <_fwalk_reent+0xbc>
 20043c0:	282b883a 	mov	r21,r5
 20043c4:	2027883a 	mov	r19,r4
 20043c8:	002f883a 	mov	r23,zero
 20043cc:	05800044 	movi	r22,1
 20043d0:	04bfffc4 	movi	r18,-1
 20043d4:	a4400117 	ldw	r17,4(r20)
 20043d8:	a4000217 	ldw	r16,8(r20)
 20043dc:	8c7fffc4 	addi	r17,r17,-1
 20043e0:	88000c16 	blt	r17,zero,2004414 <_fwalk_reent+0x84>
 20043e4:	84000304 	addi	r16,r16,12
 20043e8:	8080000b 	ldhu	r2,0(r16)
 20043ec:	8c7fffc4 	addi	r17,r17,-1
 20043f0:	817ffd04 	addi	r5,r16,-12
 20043f4:	b080052e 	bgeu	r22,r2,200440c <_fwalk_reent+0x7c>
 20043f8:	8080008f 	ldh	r2,2(r16)
 20043fc:	9809883a 	mov	r4,r19
 2004400:	14800226 	beq	r2,r18,200440c <_fwalk_reent+0x7c>
 2004404:	a83ee83a 	callr	r21
 2004408:	b8aeb03a 	or	r23,r23,r2
 200440c:	84001a04 	addi	r16,r16,104
 2004410:	8cbff51e 	bne	r17,r18,20043e8 <__reset+0xfdffb3e8>
 2004414:	a5000017 	ldw	r20,0(r20)
 2004418:	a03fee1e 	bne	r20,zero,20043d4 <__reset+0xfdffb3d4>
 200441c:	b805883a 	mov	r2,r23
 2004420:	dfc00817 	ldw	ra,32(sp)
 2004424:	ddc00717 	ldw	r23,28(sp)
 2004428:	dd800617 	ldw	r22,24(sp)
 200442c:	dd400517 	ldw	r21,20(sp)
 2004430:	dd000417 	ldw	r20,16(sp)
 2004434:	dcc00317 	ldw	r19,12(sp)
 2004438:	dc800217 	ldw	r18,8(sp)
 200443c:	dc400117 	ldw	r17,4(sp)
 2004440:	dc000017 	ldw	r16,0(sp)
 2004444:	dec00904 	addi	sp,sp,36
 2004448:	f800283a 	ret
 200444c:	002f883a 	mov	r23,zero
 2004450:	003ff206 	br	200441c <__reset+0xfdffb41c>

02004454 <_malloc_r>:
 2004454:	defff504 	addi	sp,sp,-44
 2004458:	dc800315 	stw	r18,12(sp)
 200445c:	dfc00a15 	stw	ra,40(sp)
 2004460:	df000915 	stw	fp,36(sp)
 2004464:	ddc00815 	stw	r23,32(sp)
 2004468:	dd800715 	stw	r22,28(sp)
 200446c:	dd400615 	stw	r21,24(sp)
 2004470:	dd000515 	stw	r20,20(sp)
 2004474:	dcc00415 	stw	r19,16(sp)
 2004478:	dc400215 	stw	r17,8(sp)
 200447c:	dc000115 	stw	r16,4(sp)
 2004480:	288002c4 	addi	r2,r5,11
 2004484:	00c00584 	movi	r3,22
 2004488:	2025883a 	mov	r18,r4
 200448c:	18807f2e 	bgeu	r3,r2,200468c <_malloc_r+0x238>
 2004490:	047ffe04 	movi	r17,-8
 2004494:	1462703a 	and	r17,r2,r17
 2004498:	8800a316 	blt	r17,zero,2004728 <_malloc_r+0x2d4>
 200449c:	8940a236 	bltu	r17,r5,2004728 <_malloc_r+0x2d4>
 20044a0:	20189740 	call	2018974 <__malloc_lock>
 20044a4:	00807dc4 	movi	r2,503
 20044a8:	1441e92e 	bgeu	r2,r17,2004c50 <_malloc_r+0x7fc>
 20044ac:	8804d27a 	srli	r2,r17,9
 20044b0:	1000a126 	beq	r2,zero,2004738 <_malloc_r+0x2e4>
 20044b4:	00c00104 	movi	r3,4
 20044b8:	18811e36 	bltu	r3,r2,2004934 <_malloc_r+0x4e0>
 20044bc:	8804d1ba 	srli	r2,r17,6
 20044c0:	12000e44 	addi	r8,r2,57
 20044c4:	11c00e04 	addi	r7,r2,56
 20044c8:	4209883a 	add	r4,r8,r8
 20044cc:	04c082b4 	movhi	r19,522
 20044d0:	2109883a 	add	r4,r4,r4
 20044d4:	9cd46c04 	addi	r19,r19,20912
 20044d8:	2109883a 	add	r4,r4,r4
 20044dc:	9909883a 	add	r4,r19,r4
 20044e0:	24000117 	ldw	r16,4(r4)
 20044e4:	213ffe04 	addi	r4,r4,-8
 20044e8:	24009726 	beq	r4,r16,2004748 <_malloc_r+0x2f4>
 20044ec:	80800117 	ldw	r2,4(r16)
 20044f0:	01bfff04 	movi	r6,-4
 20044f4:	014003c4 	movi	r5,15
 20044f8:	1184703a 	and	r2,r2,r6
 20044fc:	1447c83a 	sub	r3,r2,r17
 2004500:	28c00716 	blt	r5,r3,2004520 <_malloc_r+0xcc>
 2004504:	1800920e 	bge	r3,zero,2004750 <_malloc_r+0x2fc>
 2004508:	84000317 	ldw	r16,12(r16)
 200450c:	24008e26 	beq	r4,r16,2004748 <_malloc_r+0x2f4>
 2004510:	80800117 	ldw	r2,4(r16)
 2004514:	1184703a 	and	r2,r2,r6
 2004518:	1447c83a 	sub	r3,r2,r17
 200451c:	28fff90e 	bge	r5,r3,2004504 <__reset+0xfdffb504>
 2004520:	3809883a 	mov	r4,r7
 2004524:	018082b4 	movhi	r6,522
 2004528:	9c000417 	ldw	r16,16(r19)
 200452c:	31946c04 	addi	r6,r6,20912
 2004530:	32000204 	addi	r8,r6,8
 2004534:	82013426 	beq	r16,r8,2004a08 <_malloc_r+0x5b4>
 2004538:	80c00117 	ldw	r3,4(r16)
 200453c:	00bfff04 	movi	r2,-4
 2004540:	188e703a 	and	r7,r3,r2
 2004544:	3c45c83a 	sub	r2,r7,r17
 2004548:	00c003c4 	movi	r3,15
 200454c:	18811f16 	blt	r3,r2,20049cc <_malloc_r+0x578>
 2004550:	32000515 	stw	r8,20(r6)
 2004554:	32000415 	stw	r8,16(r6)
 2004558:	10007f0e 	bge	r2,zero,2004758 <_malloc_r+0x304>
 200455c:	00807fc4 	movi	r2,511
 2004560:	11c0fd36 	bltu	r2,r7,2004958 <_malloc_r+0x504>
 2004564:	3806d0fa 	srli	r3,r7,3
 2004568:	01c00044 	movi	r7,1
 200456c:	30800117 	ldw	r2,4(r6)
 2004570:	19400044 	addi	r5,r3,1
 2004574:	294b883a 	add	r5,r5,r5
 2004578:	1807d0ba 	srai	r3,r3,2
 200457c:	294b883a 	add	r5,r5,r5
 2004580:	294b883a 	add	r5,r5,r5
 2004584:	298b883a 	add	r5,r5,r6
 2004588:	38c6983a 	sll	r3,r7,r3
 200458c:	29c00017 	ldw	r7,0(r5)
 2004590:	2a7ffe04 	addi	r9,r5,-8
 2004594:	1886b03a 	or	r3,r3,r2
 2004598:	82400315 	stw	r9,12(r16)
 200459c:	81c00215 	stw	r7,8(r16)
 20045a0:	30c00115 	stw	r3,4(r6)
 20045a4:	2c000015 	stw	r16,0(r5)
 20045a8:	3c000315 	stw	r16,12(r7)
 20045ac:	2005d0ba 	srai	r2,r4,2
 20045b0:	01400044 	movi	r5,1
 20045b4:	288a983a 	sll	r5,r5,r2
 20045b8:	19406f36 	bltu	r3,r5,2004778 <_malloc_r+0x324>
 20045bc:	28c4703a 	and	r2,r5,r3
 20045c0:	10000a1e 	bne	r2,zero,20045ec <_malloc_r+0x198>
 20045c4:	00bfff04 	movi	r2,-4
 20045c8:	294b883a 	add	r5,r5,r5
 20045cc:	2088703a 	and	r4,r4,r2
 20045d0:	28c4703a 	and	r2,r5,r3
 20045d4:	21000104 	addi	r4,r4,4
 20045d8:	1000041e 	bne	r2,zero,20045ec <_malloc_r+0x198>
 20045dc:	294b883a 	add	r5,r5,r5
 20045e0:	28c4703a 	and	r2,r5,r3
 20045e4:	21000104 	addi	r4,r4,4
 20045e8:	103ffc26 	beq	r2,zero,20045dc <__reset+0xfdffb5dc>
 20045ec:	02bfff04 	movi	r10,-4
 20045f0:	024003c4 	movi	r9,15
 20045f4:	21800044 	addi	r6,r4,1
 20045f8:	318d883a 	add	r6,r6,r6
 20045fc:	318d883a 	add	r6,r6,r6
 2004600:	318d883a 	add	r6,r6,r6
 2004604:	998d883a 	add	r6,r19,r6
 2004608:	333ffe04 	addi	r12,r6,-8
 200460c:	2017883a 	mov	r11,r4
 2004610:	31800104 	addi	r6,r6,4
 2004614:	34000017 	ldw	r16,0(r6)
 2004618:	31fffd04 	addi	r7,r6,-12
 200461c:	81c0041e 	bne	r16,r7,2004630 <_malloc_r+0x1dc>
 2004620:	0000fb06 	br	2004a10 <_malloc_r+0x5bc>
 2004624:	1801030e 	bge	r3,zero,2004a34 <_malloc_r+0x5e0>
 2004628:	84000317 	ldw	r16,12(r16)
 200462c:	81c0f826 	beq	r16,r7,2004a10 <_malloc_r+0x5bc>
 2004630:	80800117 	ldw	r2,4(r16)
 2004634:	1284703a 	and	r2,r2,r10
 2004638:	1447c83a 	sub	r3,r2,r17
 200463c:	48fff90e 	bge	r9,r3,2004624 <__reset+0xfdffb624>
 2004640:	80800317 	ldw	r2,12(r16)
 2004644:	81000217 	ldw	r4,8(r16)
 2004648:	89400054 	ori	r5,r17,1
 200464c:	81400115 	stw	r5,4(r16)
 2004650:	20800315 	stw	r2,12(r4)
 2004654:	11000215 	stw	r4,8(r2)
 2004658:	8463883a 	add	r17,r16,r17
 200465c:	9c400515 	stw	r17,20(r19)
 2004660:	9c400415 	stw	r17,16(r19)
 2004664:	18800054 	ori	r2,r3,1
 2004668:	88800115 	stw	r2,4(r17)
 200466c:	8a000315 	stw	r8,12(r17)
 2004670:	8a000215 	stw	r8,8(r17)
 2004674:	88e3883a 	add	r17,r17,r3
 2004678:	88c00015 	stw	r3,0(r17)
 200467c:	9009883a 	mov	r4,r18
 2004680:	20189980 	call	2018998 <__malloc_unlock>
 2004684:	80800204 	addi	r2,r16,8
 2004688:	00001b06 	br	20046f8 <_malloc_r+0x2a4>
 200468c:	04400404 	movi	r17,16
 2004690:	89402536 	bltu	r17,r5,2004728 <_malloc_r+0x2d4>
 2004694:	20189740 	call	2018974 <__malloc_lock>
 2004698:	00800184 	movi	r2,6
 200469c:	01000084 	movi	r4,2
 20046a0:	04c082b4 	movhi	r19,522
 20046a4:	1085883a 	add	r2,r2,r2
 20046a8:	9cd46c04 	addi	r19,r19,20912
 20046ac:	1085883a 	add	r2,r2,r2
 20046b0:	9885883a 	add	r2,r19,r2
 20046b4:	14000117 	ldw	r16,4(r2)
 20046b8:	10fffe04 	addi	r3,r2,-8
 20046bc:	80c0d926 	beq	r16,r3,2004a24 <_malloc_r+0x5d0>
 20046c0:	80c00117 	ldw	r3,4(r16)
 20046c4:	81000317 	ldw	r4,12(r16)
 20046c8:	00bfff04 	movi	r2,-4
 20046cc:	1884703a 	and	r2,r3,r2
 20046d0:	81400217 	ldw	r5,8(r16)
 20046d4:	8085883a 	add	r2,r16,r2
 20046d8:	10c00117 	ldw	r3,4(r2)
 20046dc:	29000315 	stw	r4,12(r5)
 20046e0:	21400215 	stw	r5,8(r4)
 20046e4:	18c00054 	ori	r3,r3,1
 20046e8:	10c00115 	stw	r3,4(r2)
 20046ec:	9009883a 	mov	r4,r18
 20046f0:	20189980 	call	2018998 <__malloc_unlock>
 20046f4:	80800204 	addi	r2,r16,8
 20046f8:	dfc00a17 	ldw	ra,40(sp)
 20046fc:	df000917 	ldw	fp,36(sp)
 2004700:	ddc00817 	ldw	r23,32(sp)
 2004704:	dd800717 	ldw	r22,28(sp)
 2004708:	dd400617 	ldw	r21,24(sp)
 200470c:	dd000517 	ldw	r20,20(sp)
 2004710:	dcc00417 	ldw	r19,16(sp)
 2004714:	dc800317 	ldw	r18,12(sp)
 2004718:	dc400217 	ldw	r17,8(sp)
 200471c:	dc000117 	ldw	r16,4(sp)
 2004720:	dec00b04 	addi	sp,sp,44
 2004724:	f800283a 	ret
 2004728:	00800304 	movi	r2,12
 200472c:	90800015 	stw	r2,0(r18)
 2004730:	0005883a 	mov	r2,zero
 2004734:	003ff006 	br	20046f8 <__reset+0xfdffb6f8>
 2004738:	01002004 	movi	r4,128
 200473c:	02001004 	movi	r8,64
 2004740:	01c00fc4 	movi	r7,63
 2004744:	003f6106 	br	20044cc <__reset+0xfdffb4cc>
 2004748:	4009883a 	mov	r4,r8
 200474c:	003f7506 	br	2004524 <__reset+0xfdffb524>
 2004750:	81000317 	ldw	r4,12(r16)
 2004754:	003fde06 	br	20046d0 <__reset+0xfdffb6d0>
 2004758:	81c5883a 	add	r2,r16,r7
 200475c:	11400117 	ldw	r5,4(r2)
 2004760:	9009883a 	mov	r4,r18
 2004764:	29400054 	ori	r5,r5,1
 2004768:	11400115 	stw	r5,4(r2)
 200476c:	20189980 	call	2018998 <__malloc_unlock>
 2004770:	80800204 	addi	r2,r16,8
 2004774:	003fe006 	br	20046f8 <__reset+0xfdffb6f8>
 2004778:	9c000217 	ldw	r16,8(r19)
 200477c:	00bfff04 	movi	r2,-4
 2004780:	85800117 	ldw	r22,4(r16)
 2004784:	b0ac703a 	and	r22,r22,r2
 2004788:	b4400336 	bltu	r22,r17,2004798 <_malloc_r+0x344>
 200478c:	b445c83a 	sub	r2,r22,r17
 2004790:	00c003c4 	movi	r3,15
 2004794:	18805d16 	blt	r3,r2,200490c <_malloc_r+0x4b8>
 2004798:	05c082b4 	movhi	r23,522
 200479c:	008082b4 	movhi	r2,522
 20047a0:	109a8e04 	addi	r2,r2,27192
 20047a4:	bdda7704 	addi	r23,r23,27100
 20047a8:	15400017 	ldw	r21,0(r2)
 20047ac:	b8c00017 	ldw	r3,0(r23)
 20047b0:	00bfffc4 	movi	r2,-1
 20047b4:	858d883a 	add	r6,r16,r22
 20047b8:	8d6b883a 	add	r21,r17,r21
 20047bc:	1880ea26 	beq	r3,r2,2004b68 <_malloc_r+0x714>
 20047c0:	ad4403c4 	addi	r21,r21,4111
 20047c4:	00bc0004 	movi	r2,-4096
 20047c8:	a8aa703a 	and	r21,r21,r2
 20047cc:	a80b883a 	mov	r5,r21
 20047d0:	9009883a 	mov	r4,r18
 20047d4:	d9800015 	stw	r6,0(sp)
 20047d8:	2004ec80 	call	2004ec8 <_sbrk_r>
 20047dc:	1029883a 	mov	r20,r2
 20047e0:	00bfffc4 	movi	r2,-1
 20047e4:	d9800017 	ldw	r6,0(sp)
 20047e8:	a080e826 	beq	r20,r2,2004b8c <_malloc_r+0x738>
 20047ec:	a180a636 	bltu	r20,r6,2004a88 <_malloc_r+0x634>
 20047f0:	070082b4 	movhi	fp,522
 20047f4:	e71aa004 	addi	fp,fp,27264
 20047f8:	e0800017 	ldw	r2,0(fp)
 20047fc:	a887883a 	add	r3,r21,r2
 2004800:	e0c00015 	stw	r3,0(fp)
 2004804:	3500e626 	beq	r6,r20,2004ba0 <_malloc_r+0x74c>
 2004808:	b9000017 	ldw	r4,0(r23)
 200480c:	00bfffc4 	movi	r2,-1
 2004810:	2080ee26 	beq	r4,r2,2004bcc <_malloc_r+0x778>
 2004814:	a185c83a 	sub	r2,r20,r6
 2004818:	10c5883a 	add	r2,r2,r3
 200481c:	e0800015 	stw	r2,0(fp)
 2004820:	a0c001cc 	andi	r3,r20,7
 2004824:	1800bc26 	beq	r3,zero,2004b18 <_malloc_r+0x6c4>
 2004828:	a0e9c83a 	sub	r20,r20,r3
 200482c:	00840204 	movi	r2,4104
 2004830:	a5000204 	addi	r20,r20,8
 2004834:	10c7c83a 	sub	r3,r2,r3
 2004838:	a545883a 	add	r2,r20,r21
 200483c:	1083ffcc 	andi	r2,r2,4095
 2004840:	18abc83a 	sub	r21,r3,r2
 2004844:	a80b883a 	mov	r5,r21
 2004848:	9009883a 	mov	r4,r18
 200484c:	2004ec80 	call	2004ec8 <_sbrk_r>
 2004850:	00ffffc4 	movi	r3,-1
 2004854:	10c0e126 	beq	r2,r3,2004bdc <_malloc_r+0x788>
 2004858:	1505c83a 	sub	r2,r2,r20
 200485c:	1545883a 	add	r2,r2,r21
 2004860:	10800054 	ori	r2,r2,1
 2004864:	e0c00017 	ldw	r3,0(fp)
 2004868:	9d000215 	stw	r20,8(r19)
 200486c:	a0800115 	stw	r2,4(r20)
 2004870:	a8c7883a 	add	r3,r21,r3
 2004874:	e0c00015 	stw	r3,0(fp)
 2004878:	84c00e26 	beq	r16,r19,20048b4 <_malloc_r+0x460>
 200487c:	018003c4 	movi	r6,15
 2004880:	3580a72e 	bgeu	r6,r22,2004b20 <_malloc_r+0x6cc>
 2004884:	81400117 	ldw	r5,4(r16)
 2004888:	013ffe04 	movi	r4,-8
 200488c:	b0bffd04 	addi	r2,r22,-12
 2004890:	1104703a 	and	r2,r2,r4
 2004894:	2900004c 	andi	r4,r5,1
 2004898:	2088b03a 	or	r4,r4,r2
 200489c:	81000115 	stw	r4,4(r16)
 20048a0:	01400144 	movi	r5,5
 20048a4:	8089883a 	add	r4,r16,r2
 20048a8:	21400115 	stw	r5,4(r4)
 20048ac:	21400215 	stw	r5,8(r4)
 20048b0:	3080cd36 	bltu	r6,r2,2004be8 <_malloc_r+0x794>
 20048b4:	008082b4 	movhi	r2,522
 20048b8:	109a8d04 	addi	r2,r2,27188
 20048bc:	11000017 	ldw	r4,0(r2)
 20048c0:	20c0012e 	bgeu	r4,r3,20048c8 <_malloc_r+0x474>
 20048c4:	10c00015 	stw	r3,0(r2)
 20048c8:	008082b4 	movhi	r2,522
 20048cc:	109a8c04 	addi	r2,r2,27184
 20048d0:	11000017 	ldw	r4,0(r2)
 20048d4:	9c000217 	ldw	r16,8(r19)
 20048d8:	20c0012e 	bgeu	r4,r3,20048e0 <_malloc_r+0x48c>
 20048dc:	10c00015 	stw	r3,0(r2)
 20048e0:	80c00117 	ldw	r3,4(r16)
 20048e4:	00bfff04 	movi	r2,-4
 20048e8:	1886703a 	and	r3,r3,r2
 20048ec:	1c45c83a 	sub	r2,r3,r17
 20048f0:	1c400236 	bltu	r3,r17,20048fc <_malloc_r+0x4a8>
 20048f4:	00c003c4 	movi	r3,15
 20048f8:	18800416 	blt	r3,r2,200490c <_malloc_r+0x4b8>
 20048fc:	9009883a 	mov	r4,r18
 2004900:	20189980 	call	2018998 <__malloc_unlock>
 2004904:	0005883a 	mov	r2,zero
 2004908:	003f7b06 	br	20046f8 <__reset+0xfdffb6f8>
 200490c:	88c00054 	ori	r3,r17,1
 2004910:	80c00115 	stw	r3,4(r16)
 2004914:	8463883a 	add	r17,r16,r17
 2004918:	10800054 	ori	r2,r2,1
 200491c:	9c400215 	stw	r17,8(r19)
 2004920:	88800115 	stw	r2,4(r17)
 2004924:	9009883a 	mov	r4,r18
 2004928:	20189980 	call	2018998 <__malloc_unlock>
 200492c:	80800204 	addi	r2,r16,8
 2004930:	003f7106 	br	20046f8 <__reset+0xfdffb6f8>
 2004934:	00c00504 	movi	r3,20
 2004938:	18804a2e 	bgeu	r3,r2,2004a64 <_malloc_r+0x610>
 200493c:	00c01504 	movi	r3,84
 2004940:	18806e36 	bltu	r3,r2,2004afc <_malloc_r+0x6a8>
 2004944:	8804d33a 	srli	r2,r17,12
 2004948:	12001bc4 	addi	r8,r2,111
 200494c:	11c01b84 	addi	r7,r2,110
 2004950:	4209883a 	add	r4,r8,r8
 2004954:	003edd06 	br	20044cc <__reset+0xfdffb4cc>
 2004958:	3804d27a 	srli	r2,r7,9
 200495c:	00c00104 	movi	r3,4
 2004960:	1880442e 	bgeu	r3,r2,2004a74 <_malloc_r+0x620>
 2004964:	00c00504 	movi	r3,20
 2004968:	18808136 	bltu	r3,r2,2004b70 <_malloc_r+0x71c>
 200496c:	11401704 	addi	r5,r2,92
 2004970:	10c016c4 	addi	r3,r2,91
 2004974:	294b883a 	add	r5,r5,r5
 2004978:	294b883a 	add	r5,r5,r5
 200497c:	294b883a 	add	r5,r5,r5
 2004980:	994b883a 	add	r5,r19,r5
 2004984:	28800017 	ldw	r2,0(r5)
 2004988:	018082b4 	movhi	r6,522
 200498c:	297ffe04 	addi	r5,r5,-8
 2004990:	31946c04 	addi	r6,r6,20912
 2004994:	28806526 	beq	r5,r2,2004b2c <_malloc_r+0x6d8>
 2004998:	01bfff04 	movi	r6,-4
 200499c:	10c00117 	ldw	r3,4(r2)
 20049a0:	1986703a 	and	r3,r3,r6
 20049a4:	38c0022e 	bgeu	r7,r3,20049b0 <_malloc_r+0x55c>
 20049a8:	10800217 	ldw	r2,8(r2)
 20049ac:	28bffb1e 	bne	r5,r2,200499c <__reset+0xfdffb99c>
 20049b0:	11400317 	ldw	r5,12(r2)
 20049b4:	98c00117 	ldw	r3,4(r19)
 20049b8:	81400315 	stw	r5,12(r16)
 20049bc:	80800215 	stw	r2,8(r16)
 20049c0:	2c000215 	stw	r16,8(r5)
 20049c4:	14000315 	stw	r16,12(r2)
 20049c8:	003ef806 	br	20045ac <__reset+0xfdffb5ac>
 20049cc:	88c00054 	ori	r3,r17,1
 20049d0:	80c00115 	stw	r3,4(r16)
 20049d4:	8463883a 	add	r17,r16,r17
 20049d8:	34400515 	stw	r17,20(r6)
 20049dc:	34400415 	stw	r17,16(r6)
 20049e0:	10c00054 	ori	r3,r2,1
 20049e4:	8a000315 	stw	r8,12(r17)
 20049e8:	8a000215 	stw	r8,8(r17)
 20049ec:	88c00115 	stw	r3,4(r17)
 20049f0:	88a3883a 	add	r17,r17,r2
 20049f4:	88800015 	stw	r2,0(r17)
 20049f8:	9009883a 	mov	r4,r18
 20049fc:	20189980 	call	2018998 <__malloc_unlock>
 2004a00:	80800204 	addi	r2,r16,8
 2004a04:	003f3c06 	br	20046f8 <__reset+0xfdffb6f8>
 2004a08:	30c00117 	ldw	r3,4(r6)
 2004a0c:	003ee706 	br	20045ac <__reset+0xfdffb5ac>
 2004a10:	5ac00044 	addi	r11,r11,1
 2004a14:	588000cc 	andi	r2,r11,3
 2004a18:	31800204 	addi	r6,r6,8
 2004a1c:	103efd1e 	bne	r2,zero,2004614 <__reset+0xfdffb614>
 2004a20:	00002406 	br	2004ab4 <_malloc_r+0x660>
 2004a24:	14000317 	ldw	r16,12(r2)
 2004a28:	143f251e 	bne	r2,r16,20046c0 <__reset+0xfdffb6c0>
 2004a2c:	21000084 	addi	r4,r4,2
 2004a30:	003ebc06 	br	2004524 <__reset+0xfdffb524>
 2004a34:	8085883a 	add	r2,r16,r2
 2004a38:	10c00117 	ldw	r3,4(r2)
 2004a3c:	81000317 	ldw	r4,12(r16)
 2004a40:	81400217 	ldw	r5,8(r16)
 2004a44:	18c00054 	ori	r3,r3,1
 2004a48:	10c00115 	stw	r3,4(r2)
 2004a4c:	29000315 	stw	r4,12(r5)
 2004a50:	21400215 	stw	r5,8(r4)
 2004a54:	9009883a 	mov	r4,r18
 2004a58:	20189980 	call	2018998 <__malloc_unlock>
 2004a5c:	80800204 	addi	r2,r16,8
 2004a60:	003f2506 	br	20046f8 <__reset+0xfdffb6f8>
 2004a64:	12001704 	addi	r8,r2,92
 2004a68:	11c016c4 	addi	r7,r2,91
 2004a6c:	4209883a 	add	r4,r8,r8
 2004a70:	003e9606 	br	20044cc <__reset+0xfdffb4cc>
 2004a74:	3804d1ba 	srli	r2,r7,6
 2004a78:	11400e44 	addi	r5,r2,57
 2004a7c:	10c00e04 	addi	r3,r2,56
 2004a80:	294b883a 	add	r5,r5,r5
 2004a84:	003fbc06 	br	2004978 <__reset+0xfdffb978>
 2004a88:	84ff5926 	beq	r16,r19,20047f0 <__reset+0xfdffb7f0>
 2004a8c:	008082b4 	movhi	r2,522
 2004a90:	10946c04 	addi	r2,r2,20912
 2004a94:	14000217 	ldw	r16,8(r2)
 2004a98:	00bfff04 	movi	r2,-4
 2004a9c:	80c00117 	ldw	r3,4(r16)
 2004aa0:	1886703a 	and	r3,r3,r2
 2004aa4:	003f9106 	br	20048ec <__reset+0xfdffb8ec>
 2004aa8:	60800217 	ldw	r2,8(r12)
 2004aac:	213fffc4 	addi	r4,r4,-1
 2004ab0:	1300651e 	bne	r2,r12,2004c48 <_malloc_r+0x7f4>
 2004ab4:	208000cc 	andi	r2,r4,3
 2004ab8:	633ffe04 	addi	r12,r12,-8
 2004abc:	103ffa1e 	bne	r2,zero,2004aa8 <__reset+0xfdffbaa8>
 2004ac0:	98800117 	ldw	r2,4(r19)
 2004ac4:	0146303a 	nor	r3,zero,r5
 2004ac8:	1884703a 	and	r2,r3,r2
 2004acc:	98800115 	stw	r2,4(r19)
 2004ad0:	294b883a 	add	r5,r5,r5
 2004ad4:	117f2836 	bltu	r2,r5,2004778 <__reset+0xfdffb778>
 2004ad8:	283f2726 	beq	r5,zero,2004778 <__reset+0xfdffb778>
 2004adc:	2886703a 	and	r3,r5,r2
 2004ae0:	5809883a 	mov	r4,r11
 2004ae4:	183ec31e 	bne	r3,zero,20045f4 <__reset+0xfdffb5f4>
 2004ae8:	294b883a 	add	r5,r5,r5
 2004aec:	2886703a 	and	r3,r5,r2
 2004af0:	21000104 	addi	r4,r4,4
 2004af4:	183ffc26 	beq	r3,zero,2004ae8 <__reset+0xfdffbae8>
 2004af8:	003ebe06 	br	20045f4 <__reset+0xfdffb5f4>
 2004afc:	00c05504 	movi	r3,340
 2004b00:	18801236 	bltu	r3,r2,2004b4c <_malloc_r+0x6f8>
 2004b04:	8804d3fa 	srli	r2,r17,15
 2004b08:	12001e04 	addi	r8,r2,120
 2004b0c:	11c01dc4 	addi	r7,r2,119
 2004b10:	4209883a 	add	r4,r8,r8
 2004b14:	003e6d06 	br	20044cc <__reset+0xfdffb4cc>
 2004b18:	00c40004 	movi	r3,4096
 2004b1c:	003f4606 	br	2004838 <__reset+0xfdffb838>
 2004b20:	00800044 	movi	r2,1
 2004b24:	a0800115 	stw	r2,4(r20)
 2004b28:	003f7406 	br	20048fc <__reset+0xfdffb8fc>
 2004b2c:	1805d0ba 	srai	r2,r3,2
 2004b30:	01c00044 	movi	r7,1
 2004b34:	30c00117 	ldw	r3,4(r6)
 2004b38:	388e983a 	sll	r7,r7,r2
 2004b3c:	2805883a 	mov	r2,r5
 2004b40:	38c6b03a 	or	r3,r7,r3
 2004b44:	30c00115 	stw	r3,4(r6)
 2004b48:	003f9b06 	br	20049b8 <__reset+0xfdffb9b8>
 2004b4c:	00c15504 	movi	r3,1364
 2004b50:	18801a36 	bltu	r3,r2,2004bbc <_malloc_r+0x768>
 2004b54:	8804d4ba 	srli	r2,r17,18
 2004b58:	12001f44 	addi	r8,r2,125
 2004b5c:	11c01f04 	addi	r7,r2,124
 2004b60:	4209883a 	add	r4,r8,r8
 2004b64:	003e5906 	br	20044cc <__reset+0xfdffb4cc>
 2004b68:	ad400404 	addi	r21,r21,16
 2004b6c:	003f1706 	br	20047cc <__reset+0xfdffb7cc>
 2004b70:	00c01504 	movi	r3,84
 2004b74:	18802336 	bltu	r3,r2,2004c04 <_malloc_r+0x7b0>
 2004b78:	3804d33a 	srli	r2,r7,12
 2004b7c:	11401bc4 	addi	r5,r2,111
 2004b80:	10c01b84 	addi	r3,r2,110
 2004b84:	294b883a 	add	r5,r5,r5
 2004b88:	003f7b06 	br	2004978 <__reset+0xfdffb978>
 2004b8c:	9c000217 	ldw	r16,8(r19)
 2004b90:	00bfff04 	movi	r2,-4
 2004b94:	80c00117 	ldw	r3,4(r16)
 2004b98:	1886703a 	and	r3,r3,r2
 2004b9c:	003f5306 	br	20048ec <__reset+0xfdffb8ec>
 2004ba0:	3083ffcc 	andi	r2,r6,4095
 2004ba4:	103f181e 	bne	r2,zero,2004808 <__reset+0xfdffb808>
 2004ba8:	99000217 	ldw	r4,8(r19)
 2004bac:	b545883a 	add	r2,r22,r21
 2004bb0:	10800054 	ori	r2,r2,1
 2004bb4:	20800115 	stw	r2,4(r4)
 2004bb8:	003f3e06 	br	20048b4 <__reset+0xfdffb8b4>
 2004bbc:	01003f84 	movi	r4,254
 2004bc0:	02001fc4 	movi	r8,127
 2004bc4:	01c01f84 	movi	r7,126
 2004bc8:	003e4006 	br	20044cc <__reset+0xfdffb4cc>
 2004bcc:	008082b4 	movhi	r2,522
 2004bd0:	109a7704 	addi	r2,r2,27100
 2004bd4:	15000015 	stw	r20,0(r2)
 2004bd8:	003f1106 	br	2004820 <__reset+0xfdffb820>
 2004bdc:	00800044 	movi	r2,1
 2004be0:	002b883a 	mov	r21,zero
 2004be4:	003f1f06 	br	2004864 <__reset+0xfdffb864>
 2004be8:	81400204 	addi	r5,r16,8
 2004bec:	9009883a 	mov	r4,r18
 2004bf0:	2003fbc0 	call	2003fbc <_free_r>
 2004bf4:	008082b4 	movhi	r2,522
 2004bf8:	109aa004 	addi	r2,r2,27264
 2004bfc:	10c00017 	ldw	r3,0(r2)
 2004c00:	003f2c06 	br	20048b4 <__reset+0xfdffb8b4>
 2004c04:	00c05504 	movi	r3,340
 2004c08:	18800536 	bltu	r3,r2,2004c20 <_malloc_r+0x7cc>
 2004c0c:	3804d3fa 	srli	r2,r7,15
 2004c10:	11401e04 	addi	r5,r2,120
 2004c14:	10c01dc4 	addi	r3,r2,119
 2004c18:	294b883a 	add	r5,r5,r5
 2004c1c:	003f5606 	br	2004978 <__reset+0xfdffb978>
 2004c20:	00c15504 	movi	r3,1364
 2004c24:	18800536 	bltu	r3,r2,2004c3c <_malloc_r+0x7e8>
 2004c28:	3804d4ba 	srli	r2,r7,18
 2004c2c:	11401f44 	addi	r5,r2,125
 2004c30:	10c01f04 	addi	r3,r2,124
 2004c34:	294b883a 	add	r5,r5,r5
 2004c38:	003f4f06 	br	2004978 <__reset+0xfdffb978>
 2004c3c:	01403f84 	movi	r5,254
 2004c40:	00c01f84 	movi	r3,126
 2004c44:	003f4c06 	br	2004978 <__reset+0xfdffb978>
 2004c48:	98800117 	ldw	r2,4(r19)
 2004c4c:	003fa006 	br	2004ad0 <__reset+0xfdffbad0>
 2004c50:	8808d0fa 	srli	r4,r17,3
 2004c54:	20800044 	addi	r2,r4,1
 2004c58:	1085883a 	add	r2,r2,r2
 2004c5c:	003e9006 	br	20046a0 <__reset+0xfdffb6a0>

02004c60 <memset>:
 2004c60:	20c000cc 	andi	r3,r4,3
 2004c64:	2005883a 	mov	r2,r4
 2004c68:	18004426 	beq	r3,zero,2004d7c <memset+0x11c>
 2004c6c:	31ffffc4 	addi	r7,r6,-1
 2004c70:	30004026 	beq	r6,zero,2004d74 <memset+0x114>
 2004c74:	2813883a 	mov	r9,r5
 2004c78:	200d883a 	mov	r6,r4
 2004c7c:	2007883a 	mov	r3,r4
 2004c80:	00000406 	br	2004c94 <memset+0x34>
 2004c84:	3a3fffc4 	addi	r8,r7,-1
 2004c88:	31800044 	addi	r6,r6,1
 2004c8c:	38003926 	beq	r7,zero,2004d74 <memset+0x114>
 2004c90:	400f883a 	mov	r7,r8
 2004c94:	18c00044 	addi	r3,r3,1
 2004c98:	32400005 	stb	r9,0(r6)
 2004c9c:	1a0000cc 	andi	r8,r3,3
 2004ca0:	403ff81e 	bne	r8,zero,2004c84 <__reset+0xfdffbc84>
 2004ca4:	010000c4 	movi	r4,3
 2004ca8:	21c02d2e 	bgeu	r4,r7,2004d60 <memset+0x100>
 2004cac:	29003fcc 	andi	r4,r5,255
 2004cb0:	200c923a 	slli	r6,r4,8
 2004cb4:	3108b03a 	or	r4,r6,r4
 2004cb8:	200c943a 	slli	r6,r4,16
 2004cbc:	218cb03a 	or	r6,r4,r6
 2004cc0:	010003c4 	movi	r4,15
 2004cc4:	21c0182e 	bgeu	r4,r7,2004d28 <memset+0xc8>
 2004cc8:	3b3ffc04 	addi	r12,r7,-16
 2004ccc:	6018d13a 	srli	r12,r12,4
 2004cd0:	1a000104 	addi	r8,r3,4
 2004cd4:	1ac00204 	addi	r11,r3,8
 2004cd8:	6008913a 	slli	r4,r12,4
 2004cdc:	1a800304 	addi	r10,r3,12
 2004ce0:	1813883a 	mov	r9,r3
 2004ce4:	21000504 	addi	r4,r4,20
 2004ce8:	1909883a 	add	r4,r3,r4
 2004cec:	49800015 	stw	r6,0(r9)
 2004cf0:	41800015 	stw	r6,0(r8)
 2004cf4:	59800015 	stw	r6,0(r11)
 2004cf8:	51800015 	stw	r6,0(r10)
 2004cfc:	42000404 	addi	r8,r8,16
 2004d00:	4a400404 	addi	r9,r9,16
 2004d04:	5ac00404 	addi	r11,r11,16
 2004d08:	52800404 	addi	r10,r10,16
 2004d0c:	413ff71e 	bne	r8,r4,2004cec <__reset+0xfdffbcec>
 2004d10:	63000044 	addi	r12,r12,1
 2004d14:	6018913a 	slli	r12,r12,4
 2004d18:	39c003cc 	andi	r7,r7,15
 2004d1c:	010000c4 	movi	r4,3
 2004d20:	1b07883a 	add	r3,r3,r12
 2004d24:	21c00e2e 	bgeu	r4,r7,2004d60 <memset+0x100>
 2004d28:	1813883a 	mov	r9,r3
 2004d2c:	3811883a 	mov	r8,r7
 2004d30:	010000c4 	movi	r4,3
 2004d34:	49800015 	stw	r6,0(r9)
 2004d38:	423fff04 	addi	r8,r8,-4
 2004d3c:	4a400104 	addi	r9,r9,4
 2004d40:	223ffc36 	bltu	r4,r8,2004d34 <__reset+0xfdffbd34>
 2004d44:	393fff04 	addi	r4,r7,-4
 2004d48:	2008d0ba 	srli	r4,r4,2
 2004d4c:	39c000cc 	andi	r7,r7,3
 2004d50:	21000044 	addi	r4,r4,1
 2004d54:	2109883a 	add	r4,r4,r4
 2004d58:	2109883a 	add	r4,r4,r4
 2004d5c:	1907883a 	add	r3,r3,r4
 2004d60:	38000526 	beq	r7,zero,2004d78 <memset+0x118>
 2004d64:	19cf883a 	add	r7,r3,r7
 2004d68:	19400005 	stb	r5,0(r3)
 2004d6c:	18c00044 	addi	r3,r3,1
 2004d70:	38fffd1e 	bne	r7,r3,2004d68 <__reset+0xfdffbd68>
 2004d74:	f800283a 	ret
 2004d78:	f800283a 	ret
 2004d7c:	2007883a 	mov	r3,r4
 2004d80:	300f883a 	mov	r7,r6
 2004d84:	003fc706 	br	2004ca4 <__reset+0xfdffbca4>

02004d88 <_printf_r>:
 2004d88:	defffd04 	addi	sp,sp,-12
 2004d8c:	2805883a 	mov	r2,r5
 2004d90:	dfc00015 	stw	ra,0(sp)
 2004d94:	d9800115 	stw	r6,4(sp)
 2004d98:	d9c00215 	stw	r7,8(sp)
 2004d9c:	21400217 	ldw	r5,8(r4)
 2004da0:	d9c00104 	addi	r7,sp,4
 2004da4:	100d883a 	mov	r6,r2
 2004da8:	200515c0 	call	200515c <___vfprintf_internal_r>
 2004dac:	dfc00017 	ldw	ra,0(sp)
 2004db0:	dec00304 	addi	sp,sp,12
 2004db4:	f800283a 	ret

02004db8 <printf>:
 2004db8:	defffc04 	addi	sp,sp,-16
 2004dbc:	dfc00015 	stw	ra,0(sp)
 2004dc0:	d9400115 	stw	r5,4(sp)
 2004dc4:	d9800215 	stw	r6,8(sp)
 2004dc8:	d9c00315 	stw	r7,12(sp)
 2004dcc:	008082b4 	movhi	r2,522
 2004dd0:	109a7604 	addi	r2,r2,27096
 2004dd4:	10800017 	ldw	r2,0(r2)
 2004dd8:	200b883a 	mov	r5,r4
 2004ddc:	d9800104 	addi	r6,sp,4
 2004de0:	11000217 	ldw	r4,8(r2)
 2004de4:	20074380 	call	2007438 <__vfprintf_internal>
 2004de8:	dfc00017 	ldw	ra,0(sp)
 2004dec:	dec00404 	addi	sp,sp,16
 2004df0:	f800283a 	ret

02004df4 <_puts_r>:
 2004df4:	defff604 	addi	sp,sp,-40
 2004df8:	dc000715 	stw	r16,28(sp)
 2004dfc:	2021883a 	mov	r16,r4
 2004e00:	2809883a 	mov	r4,r5
 2004e04:	dc400815 	stw	r17,32(sp)
 2004e08:	dfc00915 	stw	ra,36(sp)
 2004e0c:	2823883a 	mov	r17,r5
 2004e10:	20050c40 	call	20050c4 <strlen>
 2004e14:	10c00044 	addi	r3,r2,1
 2004e18:	d8800115 	stw	r2,4(sp)
 2004e1c:	008082b4 	movhi	r2,522
 2004e20:	1091a204 	addi	r2,r2,18056
 2004e24:	d8800215 	stw	r2,8(sp)
 2004e28:	00800044 	movi	r2,1
 2004e2c:	d8800315 	stw	r2,12(sp)
 2004e30:	00800084 	movi	r2,2
 2004e34:	dc400015 	stw	r17,0(sp)
 2004e38:	d8c00615 	stw	r3,24(sp)
 2004e3c:	dec00415 	stw	sp,16(sp)
 2004e40:	d8800515 	stw	r2,20(sp)
 2004e44:	80000226 	beq	r16,zero,2004e50 <_puts_r+0x5c>
 2004e48:	80800e17 	ldw	r2,56(r16)
 2004e4c:	10001426 	beq	r2,zero,2004ea0 <_puts_r+0xac>
 2004e50:	81400217 	ldw	r5,8(r16)
 2004e54:	2880030b 	ldhu	r2,12(r5)
 2004e58:	10c8000c 	andi	r3,r2,8192
 2004e5c:	1800061e 	bne	r3,zero,2004e78 <_puts_r+0x84>
 2004e60:	29001917 	ldw	r4,100(r5)
 2004e64:	00f7ffc4 	movi	r3,-8193
 2004e68:	10880014 	ori	r2,r2,8192
 2004e6c:	20c6703a 	and	r3,r4,r3
 2004e70:	2880030d 	sth	r2,12(r5)
 2004e74:	28c01915 	stw	r3,100(r5)
 2004e78:	d9800404 	addi	r6,sp,16
 2004e7c:	8009883a 	mov	r4,r16
 2004e80:	200ad980 	call	200ad98 <__sfvwrite_r>
 2004e84:	1000091e 	bne	r2,zero,2004eac <_puts_r+0xb8>
 2004e88:	00800284 	movi	r2,10
 2004e8c:	dfc00917 	ldw	ra,36(sp)
 2004e90:	dc400817 	ldw	r17,32(sp)
 2004e94:	dc000717 	ldw	r16,28(sp)
 2004e98:	dec00a04 	addi	sp,sp,40
 2004e9c:	f800283a 	ret
 2004ea0:	8009883a 	mov	r4,r16
 2004ea4:	2003e480 	call	2003e48 <__sinit>
 2004ea8:	003fe906 	br	2004e50 <__reset+0xfdffbe50>
 2004eac:	00bfffc4 	movi	r2,-1
 2004eb0:	003ff606 	br	2004e8c <__reset+0xfdffbe8c>

02004eb4 <puts>:
 2004eb4:	008082b4 	movhi	r2,522
 2004eb8:	109a7604 	addi	r2,r2,27096
 2004ebc:	200b883a 	mov	r5,r4
 2004ec0:	11000017 	ldw	r4,0(r2)
 2004ec4:	2004df41 	jmpi	2004df4 <_puts_r>

02004ec8 <_sbrk_r>:
 2004ec8:	defffd04 	addi	sp,sp,-12
 2004ecc:	dc000015 	stw	r16,0(sp)
 2004ed0:	040082b4 	movhi	r16,522
 2004ed4:	dc400115 	stw	r17,4(sp)
 2004ed8:	841a8f04 	addi	r16,r16,27196
 2004edc:	2023883a 	mov	r17,r4
 2004ee0:	2809883a 	mov	r4,r5
 2004ee4:	dfc00215 	stw	ra,8(sp)
 2004ee8:	80000015 	stw	zero,0(r16)
 2004eec:	2018b800 	call	2018b80 <sbrk>
 2004ef0:	00ffffc4 	movi	r3,-1
 2004ef4:	10c00526 	beq	r2,r3,2004f0c <_sbrk_r+0x44>
 2004ef8:	dfc00217 	ldw	ra,8(sp)
 2004efc:	dc400117 	ldw	r17,4(sp)
 2004f00:	dc000017 	ldw	r16,0(sp)
 2004f04:	dec00304 	addi	sp,sp,12
 2004f08:	f800283a 	ret
 2004f0c:	80c00017 	ldw	r3,0(r16)
 2004f10:	183ff926 	beq	r3,zero,2004ef8 <__reset+0xfdffbef8>
 2004f14:	88c00015 	stw	r3,0(r17)
 2004f18:	003ff706 	br	2004ef8 <__reset+0xfdffbef8>

02004f1c <scanf>:
 2004f1c:	defffc04 	addi	sp,sp,-16
 2004f20:	dfc00015 	stw	ra,0(sp)
 2004f24:	d9400115 	stw	r5,4(sp)
 2004f28:	d9800215 	stw	r6,8(sp)
 2004f2c:	d9c00315 	stw	r7,12(sp)
 2004f30:	008082b4 	movhi	r2,522
 2004f34:	109a7604 	addi	r2,r2,27096
 2004f38:	200d883a 	mov	r6,r4
 2004f3c:	11000017 	ldw	r4,0(r2)
 2004f40:	d9c00104 	addi	r7,sp,4
 2004f44:	21400117 	ldw	r5,4(r4)
 2004f48:	2008f200 	call	2008f20 <_vfscanf_r>
 2004f4c:	dfc00017 	ldw	ra,0(sp)
 2004f50:	dec00404 	addi	sp,sp,16
 2004f54:	f800283a 	ret

02004f58 <_scanf_r>:
 2004f58:	defffd04 	addi	sp,sp,-12
 2004f5c:	2805883a 	mov	r2,r5
 2004f60:	dfc00015 	stw	ra,0(sp)
 2004f64:	d9800115 	stw	r6,4(sp)
 2004f68:	d9c00215 	stw	r7,8(sp)
 2004f6c:	21400117 	ldw	r5,4(r4)
 2004f70:	d9c00104 	addi	r7,sp,4
 2004f74:	100d883a 	mov	r6,r2
 2004f78:	2008f200 	call	2008f20 <_vfscanf_r>
 2004f7c:	dfc00017 	ldw	ra,0(sp)
 2004f80:	dec00304 	addi	sp,sp,12
 2004f84:	f800283a 	ret

02004f88 <__sread>:
 2004f88:	defffe04 	addi	sp,sp,-8
 2004f8c:	dc000015 	stw	r16,0(sp)
 2004f90:	2821883a 	mov	r16,r5
 2004f94:	2940038f 	ldh	r5,14(r5)
 2004f98:	dfc00115 	stw	ra,4(sp)
 2004f9c:	200cbec0 	call	200cbec <_read_r>
 2004fa0:	10000716 	blt	r2,zero,2004fc0 <__sread+0x38>
 2004fa4:	80c01417 	ldw	r3,80(r16)
 2004fa8:	1887883a 	add	r3,r3,r2
 2004fac:	80c01415 	stw	r3,80(r16)
 2004fb0:	dfc00117 	ldw	ra,4(sp)
 2004fb4:	dc000017 	ldw	r16,0(sp)
 2004fb8:	dec00204 	addi	sp,sp,8
 2004fbc:	f800283a 	ret
 2004fc0:	80c0030b 	ldhu	r3,12(r16)
 2004fc4:	18fbffcc 	andi	r3,r3,61439
 2004fc8:	80c0030d 	sth	r3,12(r16)
 2004fcc:	dfc00117 	ldw	ra,4(sp)
 2004fd0:	dc000017 	ldw	r16,0(sp)
 2004fd4:	dec00204 	addi	sp,sp,8
 2004fd8:	f800283a 	ret

02004fdc <__seofread>:
 2004fdc:	0005883a 	mov	r2,zero
 2004fe0:	f800283a 	ret

02004fe4 <__swrite>:
 2004fe4:	2880030b 	ldhu	r2,12(r5)
 2004fe8:	defffb04 	addi	sp,sp,-20
 2004fec:	dcc00315 	stw	r19,12(sp)
 2004ff0:	dc800215 	stw	r18,8(sp)
 2004ff4:	dc400115 	stw	r17,4(sp)
 2004ff8:	dc000015 	stw	r16,0(sp)
 2004ffc:	dfc00415 	stw	ra,16(sp)
 2005000:	10c0400c 	andi	r3,r2,256
 2005004:	2821883a 	mov	r16,r5
 2005008:	2023883a 	mov	r17,r4
 200500c:	3025883a 	mov	r18,r6
 2005010:	3827883a 	mov	r19,r7
 2005014:	18000526 	beq	r3,zero,200502c <__swrite+0x48>
 2005018:	2940038f 	ldh	r5,14(r5)
 200501c:	01c00084 	movi	r7,2
 2005020:	000d883a 	mov	r6,zero
 2005024:	200b36c0 	call	200b36c <_lseek_r>
 2005028:	8080030b 	ldhu	r2,12(r16)
 200502c:	8140038f 	ldh	r5,14(r16)
 2005030:	10bbffcc 	andi	r2,r2,61439
 2005034:	980f883a 	mov	r7,r19
 2005038:	900d883a 	mov	r6,r18
 200503c:	8809883a 	mov	r4,r17
 2005040:	8080030d 	sth	r2,12(r16)
 2005044:	dfc00417 	ldw	ra,16(sp)
 2005048:	dcc00317 	ldw	r19,12(sp)
 200504c:	dc800217 	ldw	r18,8(sp)
 2005050:	dc400117 	ldw	r17,4(sp)
 2005054:	dc000017 	ldw	r16,0(sp)
 2005058:	dec00504 	addi	sp,sp,20
 200505c:	2008f6c1 	jmpi	2008f6c <_write_r>

02005060 <__sseek>:
 2005060:	defffe04 	addi	sp,sp,-8
 2005064:	dc000015 	stw	r16,0(sp)
 2005068:	2821883a 	mov	r16,r5
 200506c:	2940038f 	ldh	r5,14(r5)
 2005070:	dfc00115 	stw	ra,4(sp)
 2005074:	200b36c0 	call	200b36c <_lseek_r>
 2005078:	00ffffc4 	movi	r3,-1
 200507c:	10c00826 	beq	r2,r3,20050a0 <__sseek+0x40>
 2005080:	80c0030b 	ldhu	r3,12(r16)
 2005084:	80801415 	stw	r2,80(r16)
 2005088:	18c40014 	ori	r3,r3,4096
 200508c:	80c0030d 	sth	r3,12(r16)
 2005090:	dfc00117 	ldw	ra,4(sp)
 2005094:	dc000017 	ldw	r16,0(sp)
 2005098:	dec00204 	addi	sp,sp,8
 200509c:	f800283a 	ret
 20050a0:	80c0030b 	ldhu	r3,12(r16)
 20050a4:	18fbffcc 	andi	r3,r3,61439
 20050a8:	80c0030d 	sth	r3,12(r16)
 20050ac:	dfc00117 	ldw	ra,4(sp)
 20050b0:	dc000017 	ldw	r16,0(sp)
 20050b4:	dec00204 	addi	sp,sp,8
 20050b8:	f800283a 	ret

020050bc <__sclose>:
 20050bc:	2940038f 	ldh	r5,14(r5)
 20050c0:	20091201 	jmpi	2009120 <_close_r>

020050c4 <strlen>:
 20050c4:	208000cc 	andi	r2,r4,3
 20050c8:	10002026 	beq	r2,zero,200514c <strlen+0x88>
 20050cc:	20800007 	ldb	r2,0(r4)
 20050d0:	10002026 	beq	r2,zero,2005154 <strlen+0x90>
 20050d4:	2005883a 	mov	r2,r4
 20050d8:	00000206 	br	20050e4 <strlen+0x20>
 20050dc:	10c00007 	ldb	r3,0(r2)
 20050e0:	18001826 	beq	r3,zero,2005144 <strlen+0x80>
 20050e4:	10800044 	addi	r2,r2,1
 20050e8:	10c000cc 	andi	r3,r2,3
 20050ec:	183ffb1e 	bne	r3,zero,20050dc <__reset+0xfdffc0dc>
 20050f0:	10c00017 	ldw	r3,0(r2)
 20050f4:	01ffbff4 	movhi	r7,65279
 20050f8:	39ffbfc4 	addi	r7,r7,-257
 20050fc:	00ca303a 	nor	r5,zero,r3
 2005100:	01a02074 	movhi	r6,32897
 2005104:	19c7883a 	add	r3,r3,r7
 2005108:	31a02004 	addi	r6,r6,-32640
 200510c:	1946703a 	and	r3,r3,r5
 2005110:	1986703a 	and	r3,r3,r6
 2005114:	1800091e 	bne	r3,zero,200513c <strlen+0x78>
 2005118:	10800104 	addi	r2,r2,4
 200511c:	10c00017 	ldw	r3,0(r2)
 2005120:	19cb883a 	add	r5,r3,r7
 2005124:	00c6303a 	nor	r3,zero,r3
 2005128:	28c6703a 	and	r3,r5,r3
 200512c:	1986703a 	and	r3,r3,r6
 2005130:	183ff926 	beq	r3,zero,2005118 <__reset+0xfdffc118>
 2005134:	00000106 	br	200513c <strlen+0x78>
 2005138:	10800044 	addi	r2,r2,1
 200513c:	10c00007 	ldb	r3,0(r2)
 2005140:	183ffd1e 	bne	r3,zero,2005138 <__reset+0xfdffc138>
 2005144:	1105c83a 	sub	r2,r2,r4
 2005148:	f800283a 	ret
 200514c:	2005883a 	mov	r2,r4
 2005150:	003fe706 	br	20050f0 <__reset+0xfdffc0f0>
 2005154:	0005883a 	mov	r2,zero
 2005158:	f800283a 	ret

0200515c <___vfprintf_internal_r>:
 200515c:	deffb804 	addi	sp,sp,-288
 2005160:	dfc04715 	stw	ra,284(sp)
 2005164:	ddc04515 	stw	r23,276(sp)
 2005168:	dd404315 	stw	r21,268(sp)
 200516c:	d9002d15 	stw	r4,180(sp)
 2005170:	282f883a 	mov	r23,r5
 2005174:	302b883a 	mov	r21,r6
 2005178:	d9c02e15 	stw	r7,184(sp)
 200517c:	df004615 	stw	fp,280(sp)
 2005180:	dd804415 	stw	r22,272(sp)
 2005184:	dd004215 	stw	r20,264(sp)
 2005188:	dcc04115 	stw	r19,260(sp)
 200518c:	dc804015 	stw	r18,256(sp)
 2005190:	dc403f15 	stw	r17,252(sp)
 2005194:	dc003e15 	stw	r16,248(sp)
 2005198:	200b33c0 	call	200b33c <_localeconv_r>
 200519c:	10800017 	ldw	r2,0(r2)
 20051a0:	1009883a 	mov	r4,r2
 20051a4:	d8803415 	stw	r2,208(sp)
 20051a8:	20050c40 	call	20050c4 <strlen>
 20051ac:	d8803715 	stw	r2,220(sp)
 20051b0:	d8802d17 	ldw	r2,180(sp)
 20051b4:	10000226 	beq	r2,zero,20051c0 <___vfprintf_internal_r+0x64>
 20051b8:	10800e17 	ldw	r2,56(r2)
 20051bc:	1000fb26 	beq	r2,zero,20055ac <___vfprintf_internal_r+0x450>
 20051c0:	b880030b 	ldhu	r2,12(r23)
 20051c4:	10c8000c 	andi	r3,r2,8192
 20051c8:	1800061e 	bne	r3,zero,20051e4 <___vfprintf_internal_r+0x88>
 20051cc:	b9001917 	ldw	r4,100(r23)
 20051d0:	00f7ffc4 	movi	r3,-8193
 20051d4:	10880014 	ori	r2,r2,8192
 20051d8:	20c6703a 	and	r3,r4,r3
 20051dc:	b880030d 	sth	r2,12(r23)
 20051e0:	b8c01915 	stw	r3,100(r23)
 20051e4:	10c0020c 	andi	r3,r2,8
 20051e8:	1800c326 	beq	r3,zero,20054f8 <___vfprintf_internal_r+0x39c>
 20051ec:	b8c00417 	ldw	r3,16(r23)
 20051f0:	1800c126 	beq	r3,zero,20054f8 <___vfprintf_internal_r+0x39c>
 20051f4:	1080068c 	andi	r2,r2,26
 20051f8:	00c00284 	movi	r3,10
 20051fc:	10c0c626 	beq	r2,r3,2005518 <___vfprintf_internal_r+0x3bc>
 2005200:	d8c00404 	addi	r3,sp,16
 2005204:	050082b4 	movhi	r20,522
 2005208:	d9001e04 	addi	r4,sp,120
 200520c:	a511b384 	addi	r20,r20,18126
 2005210:	d8c01e15 	stw	r3,120(sp)
 2005214:	d8002015 	stw	zero,128(sp)
 2005218:	d8001f15 	stw	zero,124(sp)
 200521c:	d8003315 	stw	zero,204(sp)
 2005220:	d8003615 	stw	zero,216(sp)
 2005224:	d8003815 	stw	zero,224(sp)
 2005228:	1811883a 	mov	r8,r3
 200522c:	d8003915 	stw	zero,228(sp)
 2005230:	d8003a15 	stw	zero,232(sp)
 2005234:	d8002f15 	stw	zero,188(sp)
 2005238:	d9002815 	stw	r4,160(sp)
 200523c:	a8800007 	ldb	r2,0(r21)
 2005240:	10028b26 	beq	r2,zero,2005c70 <___vfprintf_internal_r+0xb14>
 2005244:	00c00944 	movi	r3,37
 2005248:	a823883a 	mov	r17,r21
 200524c:	10c0021e 	bne	r2,r3,2005258 <___vfprintf_internal_r+0xfc>
 2005250:	00001406 	br	20052a4 <___vfprintf_internal_r+0x148>
 2005254:	10c00326 	beq	r2,r3,2005264 <___vfprintf_internal_r+0x108>
 2005258:	8c400044 	addi	r17,r17,1
 200525c:	88800007 	ldb	r2,0(r17)
 2005260:	103ffc1e 	bne	r2,zero,2005254 <__reset+0xfdffc254>
 2005264:	8d61c83a 	sub	r16,r17,r21
 2005268:	80000e26 	beq	r16,zero,20052a4 <___vfprintf_internal_r+0x148>
 200526c:	d8c02017 	ldw	r3,128(sp)
 2005270:	d8801f17 	ldw	r2,124(sp)
 2005274:	45400015 	stw	r21,0(r8)
 2005278:	1c07883a 	add	r3,r3,r16
 200527c:	10800044 	addi	r2,r2,1
 2005280:	d8c02015 	stw	r3,128(sp)
 2005284:	44000115 	stw	r16,4(r8)
 2005288:	d8801f15 	stw	r2,124(sp)
 200528c:	00c001c4 	movi	r3,7
 2005290:	1880a916 	blt	r3,r2,2005538 <___vfprintf_internal_r+0x3dc>
 2005294:	42000204 	addi	r8,r8,8
 2005298:	d9402f17 	ldw	r5,188(sp)
 200529c:	2c0b883a 	add	r5,r5,r16
 20052a0:	d9402f15 	stw	r5,188(sp)
 20052a4:	88800007 	ldb	r2,0(r17)
 20052a8:	1000aa26 	beq	r2,zero,2005554 <___vfprintf_internal_r+0x3f8>
 20052ac:	8d400044 	addi	r21,r17,1
 20052b0:	8c400047 	ldb	r17,1(r17)
 20052b4:	0021883a 	mov	r16,zero
 20052b8:	00bfffc4 	movi	r2,-1
 20052bc:	0025883a 	mov	r18,zero
 20052c0:	dc002905 	stb	r16,164(sp)
 20052c4:	d8002785 	stb	zero,158(sp)
 20052c8:	d8002b05 	stb	zero,172(sp)
 20052cc:	d8802a15 	stw	r2,168(sp)
 20052d0:	d8003115 	stw	zero,196(sp)
 20052d4:	04c01604 	movi	r19,88
 20052d8:	05800244 	movi	r22,9
 20052dc:	9021883a 	mov	r16,r18
 20052e0:	4039883a 	mov	fp,r8
 20052e4:	ad400044 	addi	r21,r21,1
 20052e8:	88bff804 	addi	r2,r17,-32
 20052ec:	98833236 	bltu	r19,r2,2005fb8 <___vfprintf_internal_r+0xe5c>
 20052f0:	100490ba 	slli	r2,r2,2
 20052f4:	00c08034 	movhi	r3,512
 20052f8:	18d4c204 	addi	r3,r3,21256
 20052fc:	10c5883a 	add	r2,r2,r3
 2005300:	10800017 	ldw	r2,0(r2)
 2005304:	1000683a 	jmp	r2
 2005308:	02005eb0 	cmpltui	r8,zero,378
 200530c:	02005fb8 	rdprs	r8,zero,382
 2005310:	02005fb8 	rdprs	r8,zero,382
 2005314:	02005ed0 	cmplti	r8,zero,379
 2005318:	02005fb8 	rdprs	r8,zero,382
 200531c:	02005fb8 	rdprs	r8,zero,382
 2005320:	02005fb8 	rdprs	r8,zero,382
 2005324:	02005fb8 	rdprs	r8,zero,382
 2005328:	02005fb8 	rdprs	r8,zero,382
 200532c:	02005fb8 	rdprs	r8,zero,382
 2005330:	020055b8 	rdprs	r8,zero,342
 2005334:	02005dc0 	call	2005dc <__alt_mem_sdram_controller-0x1dffa24>
 2005338:	02005fb8 	rdprs	r8,zero,382
 200533c:	0200547c 	xorhi	r8,zero,337
 2005340:	020055dc 	xori	r8,zero,343
 2005344:	02005fb8 	rdprs	r8,zero,382
 2005348:	0200562c 	andhi	r8,zero,344
 200534c:	02005638 	rdprs	r8,zero,344
 2005350:	02005638 	rdprs	r8,zero,344
 2005354:	02005638 	rdprs	r8,zero,344
 2005358:	02005638 	rdprs	r8,zero,344
 200535c:	02005638 	rdprs	r8,zero,344
 2005360:	02005638 	rdprs	r8,zero,344
 2005364:	02005638 	rdprs	r8,zero,344
 2005368:	02005638 	rdprs	r8,zero,344
 200536c:	02005638 	rdprs	r8,zero,344
 2005370:	02005fb8 	rdprs	r8,zero,382
 2005374:	02005fb8 	rdprs	r8,zero,382
 2005378:	02005fb8 	rdprs	r8,zero,382
 200537c:	02005fb8 	rdprs	r8,zero,382
 2005380:	02005fb8 	rdprs	r8,zero,382
 2005384:	02005fb8 	rdprs	r8,zero,382
 2005388:	02005fb8 	rdprs	r8,zero,382
 200538c:	02005fb8 	rdprs	r8,zero,382
 2005390:	02005fb8 	rdprs	r8,zero,382
 2005394:	02005fb8 	rdprs	r8,zero,382
 2005398:	02005674 	movhi	r8,345
 200539c:	0200573c 	xorhi	r8,zero,348
 20053a0:	02005fb8 	rdprs	r8,zero,382
 20053a4:	0200573c 	xorhi	r8,zero,348
 20053a8:	02005fb8 	rdprs	r8,zero,382
 20053ac:	02005fb8 	rdprs	r8,zero,382
 20053b0:	02005fb8 	rdprs	r8,zero,382
 20053b4:	02005fb8 	rdprs	r8,zero,382
 20053b8:	020057e8 	cmpgeui	r8,zero,351
 20053bc:	02005fb8 	rdprs	r8,zero,382
 20053c0:	02005fb8 	rdprs	r8,zero,382
 20053c4:	020057f4 	movhi	r8,351
 20053c8:	02005fb8 	rdprs	r8,zero,382
 20053cc:	02005fb8 	rdprs	r8,zero,382
 20053d0:	02005fb8 	rdprs	r8,zero,382
 20053d4:	02005fb8 	rdprs	r8,zero,382
 20053d8:	02005fb8 	rdprs	r8,zero,382
 20053dc:	02005c78 	rdprs	r8,zero,369
 20053e0:	02005fb8 	rdprs	r8,zero,382
 20053e4:	02005fb8 	rdprs	r8,zero,382
 20053e8:	02005ce4 	muli	r8,zero,371
 20053ec:	02005fb8 	rdprs	r8,zero,382
 20053f0:	02005fb8 	rdprs	r8,zero,382
 20053f4:	02005fb8 	rdprs	r8,zero,382
 20053f8:	02005fb8 	rdprs	r8,zero,382
 20053fc:	02005fb8 	rdprs	r8,zero,382
 2005400:	02005fb8 	rdprs	r8,zero,382
 2005404:	02005fb8 	rdprs	r8,zero,382
 2005408:	02005fb8 	rdprs	r8,zero,382
 200540c:	02005fb8 	rdprs	r8,zero,382
 2005410:	02005fb8 	rdprs	r8,zero,382
 2005414:	02005f5c 	xori	r8,zero,381
 2005418:	02005edc 	xori	r8,zero,379
 200541c:	0200573c 	xorhi	r8,zero,348
 2005420:	0200573c 	xorhi	r8,zero,348
 2005424:	0200573c 	xorhi	r8,zero,348
 2005428:	02005efc 	xorhi	r8,zero,379
 200542c:	02005edc 	xori	r8,zero,379
 2005430:	02005fb8 	rdprs	r8,zero,382
 2005434:	02005fb8 	rdprs	r8,zero,382
 2005438:	02005f08 	cmpgei	r8,zero,380
 200543c:	02005fb8 	rdprs	r8,zero,382
 2005440:	02005f1c 	xori	r8,zero,380
 2005444:	02005da0 	cmpeqi	r8,zero,374
 2005448:	02005488 	cmpgei	r8,zero,338
 200544c:	02005dd8 	cmpnei	r8,zero,375
 2005450:	02005fb8 	rdprs	r8,zero,382
 2005454:	02005de4 	muli	r8,zero,375
 2005458:	02005fb8 	rdprs	r8,zero,382
 200545c:	02005e48 	cmpgei	r8,zero,377
 2005460:	02005fb8 	rdprs	r8,zero,382
 2005464:	02005fb8 	rdprs	r8,zero,382
 2005468:	02005e68 	cmpgeui	r8,zero,377
 200546c:	d8c03117 	ldw	r3,196(sp)
 2005470:	d8802e15 	stw	r2,184(sp)
 2005474:	00c7c83a 	sub	r3,zero,r3
 2005478:	d8c03115 	stw	r3,196(sp)
 200547c:	84000114 	ori	r16,r16,4
 2005480:	ac400007 	ldb	r17,0(r21)
 2005484:	003f9706 	br	20052e4 <__reset+0xfdffc2e4>
 2005488:	00800c04 	movi	r2,48
 200548c:	d8802705 	stb	r2,156(sp)
 2005490:	00801e04 	movi	r2,120
 2005494:	d8802745 	stb	r2,157(sp)
 2005498:	d9002a17 	ldw	r4,168(sp)
 200549c:	d8802e17 	ldw	r2,184(sp)
 20054a0:	d8002785 	stb	zero,158(sp)
 20054a4:	e011883a 	mov	r8,fp
 20054a8:	10c00104 	addi	r3,r2,4
 20054ac:	14c00017 	ldw	r19,0(r2)
 20054b0:	002d883a 	mov	r22,zero
 20054b4:	80800094 	ori	r2,r16,2
 20054b8:	2002ca16 	blt	r4,zero,2005fe4 <___vfprintf_internal_r+0xe88>
 20054bc:	00bfdfc4 	movi	r2,-129
 20054c0:	80a4703a 	and	r18,r16,r2
 20054c4:	d8c02e15 	stw	r3,184(sp)
 20054c8:	94800094 	ori	r18,r18,2
 20054cc:	9802b41e 	bne	r19,zero,2005fa0 <___vfprintf_internal_r+0xe44>
 20054d0:	014082b4 	movhi	r5,522
 20054d4:	2951ac04 	addi	r5,r5,18096
 20054d8:	d9403915 	stw	r5,228(sp)
 20054dc:	04401e04 	movi	r17,120
 20054e0:	d8802a17 	ldw	r2,168(sp)
 20054e4:	0039883a 	mov	fp,zero
 20054e8:	1001fa26 	beq	r2,zero,2005cd4 <___vfprintf_internal_r+0xb78>
 20054ec:	0027883a 	mov	r19,zero
 20054f0:	002d883a 	mov	r22,zero
 20054f4:	00021906 	br	2005d5c <___vfprintf_internal_r+0xc00>
 20054f8:	d9002d17 	ldw	r4,180(sp)
 20054fc:	b80b883a 	mov	r5,r23
 2005500:	2008fcc0 	call	2008fcc <__swsetup_r>
 2005504:	1005dc1e 	bne	r2,zero,2006c78 <___vfprintf_internal_r+0x1b1c>
 2005508:	b880030b 	ldhu	r2,12(r23)
 200550c:	00c00284 	movi	r3,10
 2005510:	1080068c 	andi	r2,r2,26
 2005514:	10ff3a1e 	bne	r2,r3,2005200 <__reset+0xfdffc200>
 2005518:	b880038f 	ldh	r2,14(r23)
 200551c:	103f3816 	blt	r2,zero,2005200 <__reset+0xfdffc200>
 2005520:	d9c02e17 	ldw	r7,184(sp)
 2005524:	d9002d17 	ldw	r4,180(sp)
 2005528:	a80d883a 	mov	r6,r21
 200552c:	b80b883a 	mov	r5,r23
 2005530:	20074540 	call	2007454 <__sbprintf>
 2005534:	00001106 	br	200557c <___vfprintf_internal_r+0x420>
 2005538:	d9002d17 	ldw	r4,180(sp)
 200553c:	d9801e04 	addi	r6,sp,120
 2005540:	b80b883a 	mov	r5,r23
 2005544:	2011f500 	call	2011f50 <__sprint_r>
 2005548:	1000081e 	bne	r2,zero,200556c <___vfprintf_internal_r+0x410>
 200554c:	da000404 	addi	r8,sp,16
 2005550:	003f5106 	br	2005298 <__reset+0xfdffc298>
 2005554:	d8802017 	ldw	r2,128(sp)
 2005558:	10000426 	beq	r2,zero,200556c <___vfprintf_internal_r+0x410>
 200555c:	d9002d17 	ldw	r4,180(sp)
 2005560:	d9801e04 	addi	r6,sp,120
 2005564:	b80b883a 	mov	r5,r23
 2005568:	2011f500 	call	2011f50 <__sprint_r>
 200556c:	b880030b 	ldhu	r2,12(r23)
 2005570:	1080100c 	andi	r2,r2,64
 2005574:	1005c01e 	bne	r2,zero,2006c78 <___vfprintf_internal_r+0x1b1c>
 2005578:	d8802f17 	ldw	r2,188(sp)
 200557c:	dfc04717 	ldw	ra,284(sp)
 2005580:	df004617 	ldw	fp,280(sp)
 2005584:	ddc04517 	ldw	r23,276(sp)
 2005588:	dd804417 	ldw	r22,272(sp)
 200558c:	dd404317 	ldw	r21,268(sp)
 2005590:	dd004217 	ldw	r20,264(sp)
 2005594:	dcc04117 	ldw	r19,260(sp)
 2005598:	dc804017 	ldw	r18,256(sp)
 200559c:	dc403f17 	ldw	r17,252(sp)
 20055a0:	dc003e17 	ldw	r16,248(sp)
 20055a4:	dec04804 	addi	sp,sp,288
 20055a8:	f800283a 	ret
 20055ac:	d9002d17 	ldw	r4,180(sp)
 20055b0:	2003e480 	call	2003e48 <__sinit>
 20055b4:	003f0206 	br	20051c0 <__reset+0xfdffc1c0>
 20055b8:	d9002e17 	ldw	r4,184(sp)
 20055bc:	d9402e17 	ldw	r5,184(sp)
 20055c0:	21000017 	ldw	r4,0(r4)
 20055c4:	28800104 	addi	r2,r5,4
 20055c8:	d9003115 	stw	r4,196(sp)
 20055cc:	203fa716 	blt	r4,zero,200546c <__reset+0xfdffc46c>
 20055d0:	d8802e15 	stw	r2,184(sp)
 20055d4:	ac400007 	ldb	r17,0(r21)
 20055d8:	003f4206 	br	20052e4 <__reset+0xfdffc2e4>
 20055dc:	ac400007 	ldb	r17,0(r21)
 20055e0:	01000a84 	movi	r4,42
 20055e4:	a8c00044 	addi	r3,r21,1
 20055e8:	89075826 	beq	r17,r4,200734c <___vfprintf_internal_r+0x21f0>
 20055ec:	8cbff404 	addi	r18,r17,-48
 20055f0:	b486ae36 	bltu	r22,r18,20070ac <___vfprintf_internal_r+0x1f50>
 20055f4:	0009883a 	mov	r4,zero
 20055f8:	1823883a 	mov	r17,r3
 20055fc:	01400284 	movi	r5,10
 2005600:	20038180 	call	2003818 <__mulsi3>
 2005604:	88c00007 	ldb	r3,0(r17)
 2005608:	1489883a 	add	r4,r2,r18
 200560c:	8d400044 	addi	r21,r17,1
 2005610:	1cbff404 	addi	r18,r3,-48
 2005614:	a823883a 	mov	r17,r21
 2005618:	b4bff82e 	bgeu	r22,r18,20055fc <__reset+0xfdffc5fc>
 200561c:	1823883a 	mov	r17,r3
 2005620:	2005f616 	blt	r4,zero,2006dfc <___vfprintf_internal_r+0x1ca0>
 2005624:	d9002a15 	stw	r4,168(sp)
 2005628:	003f2f06 	br	20052e8 <__reset+0xfdffc2e8>
 200562c:	84002014 	ori	r16,r16,128
 2005630:	ac400007 	ldb	r17,0(r21)
 2005634:	003f2b06 	br	20052e4 <__reset+0xfdffc2e4>
 2005638:	8cbff404 	addi	r18,r17,-48
 200563c:	d8003115 	stw	zero,196(sp)
 2005640:	0009883a 	mov	r4,zero
 2005644:	a823883a 	mov	r17,r21
 2005648:	01400284 	movi	r5,10
 200564c:	20038180 	call	2003818 <__mulsi3>
 2005650:	88c00007 	ldb	r3,0(r17)
 2005654:	9089883a 	add	r4,r18,r2
 2005658:	ad400044 	addi	r21,r21,1
 200565c:	1cbff404 	addi	r18,r3,-48
 2005660:	a823883a 	mov	r17,r21
 2005664:	b4bff82e 	bgeu	r22,r18,2005648 <__reset+0xfdffc648>
 2005668:	1823883a 	mov	r17,r3
 200566c:	d9003115 	stw	r4,196(sp)
 2005670:	003f1d06 	br	20052e8 <__reset+0xfdffc2e8>
 2005674:	8025883a 	mov	r18,r16
 2005678:	dc002903 	ldbu	r16,164(sp)
 200567c:	e011883a 	mov	r8,fp
 2005680:	84003fcc 	andi	r16,r16,255
 2005684:	8007531e 	bne	r16,zero,20073d4 <___vfprintf_internal_r+0x2278>
 2005688:	94800414 	ori	r18,r18,16
 200568c:	9080080c 	andi	r2,r18,32
 2005690:	1003a326 	beq	r2,zero,2006520 <___vfprintf_internal_r+0x13c4>
 2005694:	d9002e17 	ldw	r4,184(sp)
 2005698:	20800117 	ldw	r2,4(r4)
 200569c:	24c00017 	ldw	r19,0(r4)
 20056a0:	21000204 	addi	r4,r4,8
 20056a4:	d9002e15 	stw	r4,184(sp)
 20056a8:	102d883a 	mov	r22,r2
 20056ac:	10047316 	blt	r2,zero,200687c <___vfprintf_internal_r+0x1720>
 20056b0:	d9002a17 	ldw	r4,168(sp)
 20056b4:	df002783 	ldbu	fp,158(sp)
 20056b8:	2003e416 	blt	r4,zero,200664c <___vfprintf_internal_r+0x14f0>
 20056bc:	00ffdfc4 	movi	r3,-129
 20056c0:	9d84b03a 	or	r2,r19,r22
 20056c4:	90e4703a 	and	r18,r18,r3
 20056c8:	10018026 	beq	r2,zero,2005ccc <___vfprintf_internal_r+0xb70>
 20056cc:	b003ab26 	beq	r22,zero,200657c <___vfprintf_internal_r+0x1420>
 20056d0:	dc402915 	stw	r17,164(sp)
 20056d4:	dc001e04 	addi	r16,sp,120
 20056d8:	b023883a 	mov	r17,r22
 20056dc:	402d883a 	mov	r22,r8
 20056e0:	9809883a 	mov	r4,r19
 20056e4:	880b883a 	mov	r5,r17
 20056e8:	01800284 	movi	r6,10
 20056ec:	000f883a 	mov	r7,zero
 20056f0:	20165880 	call	2016588 <__umoddi3>
 20056f4:	10800c04 	addi	r2,r2,48
 20056f8:	843fffc4 	addi	r16,r16,-1
 20056fc:	9809883a 	mov	r4,r19
 2005700:	880b883a 	mov	r5,r17
 2005704:	80800005 	stb	r2,0(r16)
 2005708:	01800284 	movi	r6,10
 200570c:	000f883a 	mov	r7,zero
 2005710:	2015f8c0 	call	2015f8c <__udivdi3>
 2005714:	1027883a 	mov	r19,r2
 2005718:	10c4b03a 	or	r2,r2,r3
 200571c:	1823883a 	mov	r17,r3
 2005720:	103fef1e 	bne	r2,zero,20056e0 <__reset+0xfdffc6e0>
 2005724:	d8c02817 	ldw	r3,160(sp)
 2005728:	dc402917 	ldw	r17,164(sp)
 200572c:	b011883a 	mov	r8,r22
 2005730:	1c07c83a 	sub	r3,r3,r16
 2005734:	d8c02b15 	stw	r3,172(sp)
 2005738:	00005f06 	br	20058b8 <___vfprintf_internal_r+0x75c>
 200573c:	8025883a 	mov	r18,r16
 2005740:	dc002903 	ldbu	r16,164(sp)
 2005744:	e011883a 	mov	r8,fp
 2005748:	84003fcc 	andi	r16,r16,255
 200574c:	80071e1e 	bne	r16,zero,20073c8 <___vfprintf_internal_r+0x226c>
 2005750:	9080020c 	andi	r2,r18,8
 2005754:	1004af26 	beq	r2,zero,2006a14 <___vfprintf_internal_r+0x18b8>
 2005758:	d9002e17 	ldw	r4,184(sp)
 200575c:	d9402e17 	ldw	r5,184(sp)
 2005760:	d8802e17 	ldw	r2,184(sp)
 2005764:	21000017 	ldw	r4,0(r4)
 2005768:	29400117 	ldw	r5,4(r5)
 200576c:	10800204 	addi	r2,r2,8
 2005770:	d9003615 	stw	r4,216(sp)
 2005774:	d9403815 	stw	r5,224(sp)
 2005778:	d8802e15 	stw	r2,184(sp)
 200577c:	d9003617 	ldw	r4,216(sp)
 2005780:	d9403817 	ldw	r5,224(sp)
 2005784:	da003d15 	stw	r8,244(sp)
 2005788:	04000044 	movi	r16,1
 200578c:	200d3a00 	call	200d3a0 <__fpclassifyd>
 2005790:	da003d17 	ldw	r8,244(sp)
 2005794:	1404441e 	bne	r2,r16,20068a8 <___vfprintf_internal_r+0x174c>
 2005798:	d9003617 	ldw	r4,216(sp)
 200579c:	d9403817 	ldw	r5,224(sp)
 20057a0:	000d883a 	mov	r6,zero
 20057a4:	000f883a 	mov	r7,zero
 20057a8:	20177580 	call	2017758 <__ledf2>
 20057ac:	da003d17 	ldw	r8,244(sp)
 20057b0:	1005e316 	blt	r2,zero,2006f40 <___vfprintf_internal_r+0x1de4>
 20057b4:	df002783 	ldbu	fp,158(sp)
 20057b8:	008011c4 	movi	r2,71
 20057bc:	1445580e 	bge	r2,r17,2006d20 <___vfprintf_internal_r+0x1bc4>
 20057c0:	040082b4 	movhi	r16,522
 20057c4:	8411a404 	addi	r16,r16,18064
 20057c8:	00c000c4 	movi	r3,3
 20057cc:	00bfdfc4 	movi	r2,-129
 20057d0:	d8c02915 	stw	r3,164(sp)
 20057d4:	90a4703a 	and	r18,r18,r2
 20057d8:	d8c02b15 	stw	r3,172(sp)
 20057dc:	d8002a15 	stw	zero,168(sp)
 20057e0:	d8003215 	stw	zero,200(sp)
 20057e4:	00003a06 	br	20058d0 <___vfprintf_internal_r+0x774>
 20057e8:	84000214 	ori	r16,r16,8
 20057ec:	ac400007 	ldb	r17,0(r21)
 20057f0:	003ebc06 	br	20052e4 <__reset+0xfdffc2e4>
 20057f4:	8025883a 	mov	r18,r16
 20057f8:	dc002903 	ldbu	r16,164(sp)
 20057fc:	e011883a 	mov	r8,fp
 2005800:	84003fcc 	andi	r16,r16,255
 2005804:	8007001e 	bne	r16,zero,2007408 <___vfprintf_internal_r+0x22ac>
 2005808:	94800414 	ori	r18,r18,16
 200580c:	9080080c 	andi	r2,r18,32
 2005810:	1002fa26 	beq	r2,zero,20063fc <___vfprintf_internal_r+0x12a0>
 2005814:	d9002e17 	ldw	r4,184(sp)
 2005818:	d9402a17 	ldw	r5,168(sp)
 200581c:	d8002785 	stb	zero,158(sp)
 2005820:	20800204 	addi	r2,r4,8
 2005824:	24c00017 	ldw	r19,0(r4)
 2005828:	25800117 	ldw	r22,4(r4)
 200582c:	2804b116 	blt	r5,zero,2006af4 <___vfprintf_internal_r+0x1998>
 2005830:	013fdfc4 	movi	r4,-129
 2005834:	9d86b03a 	or	r3,r19,r22
 2005838:	d8802e15 	stw	r2,184(sp)
 200583c:	9124703a 	and	r18,r18,r4
 2005840:	1802fb1e 	bne	r3,zero,2006430 <___vfprintf_internal_r+0x12d4>
 2005844:	d8c02a17 	ldw	r3,168(sp)
 2005848:	0039883a 	mov	fp,zero
 200584c:	1805e526 	beq	r3,zero,2006fe4 <___vfprintf_internal_r+0x1e88>
 2005850:	0027883a 	mov	r19,zero
 2005854:	002d883a 	mov	r22,zero
 2005858:	dc001e04 	addi	r16,sp,120
 200585c:	9806d0fa 	srli	r3,r19,3
 2005860:	b008977a 	slli	r4,r22,29
 2005864:	b02cd0fa 	srli	r22,r22,3
 2005868:	9cc001cc 	andi	r19,r19,7
 200586c:	98800c04 	addi	r2,r19,48
 2005870:	843fffc4 	addi	r16,r16,-1
 2005874:	20e6b03a 	or	r19,r4,r3
 2005878:	80800005 	stb	r2,0(r16)
 200587c:	9d86b03a 	or	r3,r19,r22
 2005880:	183ff61e 	bne	r3,zero,200585c <__reset+0xfdffc85c>
 2005884:	90c0004c 	andi	r3,r18,1
 2005888:	18014126 	beq	r3,zero,2005d90 <___vfprintf_internal_r+0xc34>
 200588c:	10803fcc 	andi	r2,r2,255
 2005890:	1080201c 	xori	r2,r2,128
 2005894:	10bfe004 	addi	r2,r2,-128
 2005898:	00c00c04 	movi	r3,48
 200589c:	10c13c26 	beq	r2,r3,2005d90 <___vfprintf_internal_r+0xc34>
 20058a0:	80ffffc5 	stb	r3,-1(r16)
 20058a4:	d8c02817 	ldw	r3,160(sp)
 20058a8:	80bfffc4 	addi	r2,r16,-1
 20058ac:	1021883a 	mov	r16,r2
 20058b0:	1887c83a 	sub	r3,r3,r2
 20058b4:	d8c02b15 	stw	r3,172(sp)
 20058b8:	d8802b17 	ldw	r2,172(sp)
 20058bc:	d9002a17 	ldw	r4,168(sp)
 20058c0:	1100010e 	bge	r2,r4,20058c8 <___vfprintf_internal_r+0x76c>
 20058c4:	2005883a 	mov	r2,r4
 20058c8:	d8802915 	stw	r2,164(sp)
 20058cc:	d8003215 	stw	zero,200(sp)
 20058d0:	e7003fcc 	andi	fp,fp,255
 20058d4:	e700201c 	xori	fp,fp,128
 20058d8:	e73fe004 	addi	fp,fp,-128
 20058dc:	e0000326 	beq	fp,zero,20058ec <___vfprintf_internal_r+0x790>
 20058e0:	d8c02917 	ldw	r3,164(sp)
 20058e4:	18c00044 	addi	r3,r3,1
 20058e8:	d8c02915 	stw	r3,164(sp)
 20058ec:	90c0008c 	andi	r3,r18,2
 20058f0:	d8c02c15 	stw	r3,176(sp)
 20058f4:	18000326 	beq	r3,zero,2005904 <___vfprintf_internal_r+0x7a8>
 20058f8:	d8c02917 	ldw	r3,164(sp)
 20058fc:	18c00084 	addi	r3,r3,2
 2005900:	d8c02915 	stw	r3,164(sp)
 2005904:	90c0210c 	andi	r3,r18,132
 2005908:	d8c03015 	stw	r3,192(sp)
 200590c:	1801c51e 	bne	r3,zero,2006024 <___vfprintf_internal_r+0xec8>
 2005910:	d9003117 	ldw	r4,196(sp)
 2005914:	d8c02917 	ldw	r3,164(sp)
 2005918:	20e7c83a 	sub	r19,r4,r3
 200591c:	04c1c10e 	bge	zero,r19,2006024 <___vfprintf_internal_r+0xec8>
 2005920:	02400404 	movi	r9,16
 2005924:	d8c02017 	ldw	r3,128(sp)
 2005928:	d8801f17 	ldw	r2,124(sp)
 200592c:	4cc52f0e 	bge	r9,r19,2006dec <___vfprintf_internal_r+0x1c90>
 2005930:	014082b4 	movhi	r5,522
 2005934:	2951b784 	addi	r5,r5,18142
 2005938:	dc403b15 	stw	r17,236(sp)
 200593c:	d9403515 	stw	r5,212(sp)
 2005940:	9823883a 	mov	r17,r19
 2005944:	482d883a 	mov	r22,r9
 2005948:	9027883a 	mov	r19,r18
 200594c:	070001c4 	movi	fp,7
 2005950:	8025883a 	mov	r18,r16
 2005954:	dc002d17 	ldw	r16,180(sp)
 2005958:	00000306 	br	2005968 <___vfprintf_internal_r+0x80c>
 200595c:	8c7ffc04 	addi	r17,r17,-16
 2005960:	42000204 	addi	r8,r8,8
 2005964:	b440130e 	bge	r22,r17,20059b4 <___vfprintf_internal_r+0x858>
 2005968:	010082b4 	movhi	r4,522
 200596c:	18c00404 	addi	r3,r3,16
 2005970:	10800044 	addi	r2,r2,1
 2005974:	2111b784 	addi	r4,r4,18142
 2005978:	41000015 	stw	r4,0(r8)
 200597c:	45800115 	stw	r22,4(r8)
 2005980:	d8c02015 	stw	r3,128(sp)
 2005984:	d8801f15 	stw	r2,124(sp)
 2005988:	e0bff40e 	bge	fp,r2,200595c <__reset+0xfdffc95c>
 200598c:	d9801e04 	addi	r6,sp,120
 2005990:	b80b883a 	mov	r5,r23
 2005994:	8009883a 	mov	r4,r16
 2005998:	2011f500 	call	2011f50 <__sprint_r>
 200599c:	103ef31e 	bne	r2,zero,200556c <__reset+0xfdffc56c>
 20059a0:	8c7ffc04 	addi	r17,r17,-16
 20059a4:	d8c02017 	ldw	r3,128(sp)
 20059a8:	d8801f17 	ldw	r2,124(sp)
 20059ac:	da000404 	addi	r8,sp,16
 20059b0:	b47fed16 	blt	r22,r17,2005968 <__reset+0xfdffc968>
 20059b4:	9021883a 	mov	r16,r18
 20059b8:	9825883a 	mov	r18,r19
 20059bc:	8827883a 	mov	r19,r17
 20059c0:	dc403b17 	ldw	r17,236(sp)
 20059c4:	d9403517 	ldw	r5,212(sp)
 20059c8:	98c7883a 	add	r3,r19,r3
 20059cc:	10800044 	addi	r2,r2,1
 20059d0:	41400015 	stw	r5,0(r8)
 20059d4:	44c00115 	stw	r19,4(r8)
 20059d8:	d8c02015 	stw	r3,128(sp)
 20059dc:	d8801f15 	stw	r2,124(sp)
 20059e0:	010001c4 	movi	r4,7
 20059e4:	2082c516 	blt	r4,r2,20064fc <___vfprintf_internal_r+0x13a0>
 20059e8:	df002787 	ldb	fp,158(sp)
 20059ec:	42000204 	addi	r8,r8,8
 20059f0:	e0000c26 	beq	fp,zero,2005a24 <___vfprintf_internal_r+0x8c8>
 20059f4:	d8801f17 	ldw	r2,124(sp)
 20059f8:	d9002784 	addi	r4,sp,158
 20059fc:	18c00044 	addi	r3,r3,1
 2005a00:	10800044 	addi	r2,r2,1
 2005a04:	41000015 	stw	r4,0(r8)
 2005a08:	01000044 	movi	r4,1
 2005a0c:	41000115 	stw	r4,4(r8)
 2005a10:	d8c02015 	stw	r3,128(sp)
 2005a14:	d8801f15 	stw	r2,124(sp)
 2005a18:	010001c4 	movi	r4,7
 2005a1c:	20825e16 	blt	r4,r2,2006398 <___vfprintf_internal_r+0x123c>
 2005a20:	42000204 	addi	r8,r8,8
 2005a24:	d8802c17 	ldw	r2,176(sp)
